ccopy_reg
_reconstructor
p0
(cpygate.doc
Document
p1
c__builtin__
object
p2
Ntp3
Rp4
(dp5
S'src'
p6
VAll for Australia is a 1984 book by Australian historian Professor Geoffrey Blainey. It criticizes Australian immigration policy and the direction in which it is shaping the nation. In particular, the book is critical of what Blainey views as the disproportionately high levels of Asian immigration to Australia since the mid-1970s.\u000a\u000aIn All for Australia, Blainey argues: . \u000a\u000aFor the sake of national unity, the typical nation practices discrimination against migrants on the basis of ethnicity. Ironically, the Asian countries which Australia is too afraid to "offend" have no hesitation in using this right to retain their current ethnic compositions. \u000a\u000aEvery nation relies on a sense of community. That sense of community belonging can easily be damaged by the rapid entry of foreign peoples who unintentionally erode national cohesion. \u000a\u000aImmigration is one of the most important issues facing a nation. The notion that it is too contentious to be publicly debated makes a mockery of democracy. \u000a\u000aMulticulturalism tends to emphasize the rights of ethnic minorities at the expense of the majority of Australians, thus unnecessarily encouraging division and threatening social cohesion. \u000a\u000aThe policy of multiculturalism has tended to be implicitly anti-British, despite Australia's British colonial heritage and the large number of post-World War II British immigrants to Australia. \u000a\u000aAustralian immigration policy has moved from one extreme to another, from a policy that sought to encourage European immigration and restrict Asian immigration (White Australia policy), to a policy that now gives disproportionate preference to Asian immigration. Blainey asserts that this preferential treatment of Asian immigrants partly arose from a sense of guilt over the Vietnam War, but also reflected Canberra's misguided view that more trade with Asian countries would come with a larger Asian population.
p7
sS'string'
p8
S'All for Australia is a 1984 book by Australian historian Professor Geoffrey Blainey. It criticizes Australian immigration policy and the direction in which it is shaping the nation. In particular, the book is critical of what Blainey views as the disproportionately high levels of Asian immigration to Australia since the mid-1970s.\n\nIn All for Australia, Blainey argues: . \n\nFor the sake of national unity, the typical nation practices discrimination against migrants on the basis of ethnicity. Ironically, the Asian countries which Australia is too afraid to "offend" have no hesitation in using this right to retain their current ethnic compositions. \n\nEvery nation relies on a sense of community. That sense of community belonging can easily be damaged by the rapid entry of foreign peoples who unintentionally erode national cohesion. \n\nImmigration is one of the most important issues facing a nation. The notion that it is too contentious to be publicly debated makes a mockery of democracy. \n\nMulticulturalism tends to emphasize the rights of ethnic minorities at the expense of the majority of Australians, thus unnecessarily encouraging division and threatening social cohesion. \n\nThe policy of multiculturalism has tended to be implicitly anti-British, despite Australia\'s British colonial heritage and the large number of post-World War II British immigrants to Australia. \n\nAustralian immigration policy has moved from one extreme to another, from a policy that sought to encourage European immigration and restrict Asian immigration (White Australia policy), to a policy that now gives disproportionate preference to Asian immigration. Blainey asserts that this preferential treatment of Asian immigrants partly arose from a sense of guilt over the Vietnam War, but also reflected Canberra\'s misguided view that more trade with Asian countries would come with a larger Asian population.'
p9
sS'idx'
p10
I0
sS'tknFeatures'
p11
(lp12
sS'docFeatures'
p13
(dp14
S'file_id'
p15
S'All_for_Australia'
p16
ssS'items'
p17
(dp18
S'raw'
p19
VAll for Australia is a 1984 book by Australian historian Professor Geoffrey Blainey. It criticizes Australian immigration policy and the direction in which it is shaping the nation. In particular, the book is critical of what Blainey views as the disproportionately high levels of Asian immigration to Australia since the mid-1970s.\u000a\u000aIn All for Australia, Blainey argues: . \u000a\u000aFor the sake of national unity, the typical nation practices discrimination against migrants on the basis of ethnicity. Ironically, the Asian countries which Australia is too afraid to "offend" have no hesitation in using this right to retain their current ethnic compositions. \u000a\u000aEvery nation relies on a sense of community. That sense of community belonging can easily be damaged by the rapid entry of foreign peoples who unintentionally erode national cohesion. \u000a\u000aImmigration is one of the most important issues facing a nation. The notion that it is too contentious to be publicly debated makes a mockery of democracy. \u000a\u000aMulticulturalism tends to emphasize the rights of ethnic minorities at the expense of the majority of Australians, thus unnecessarily encouraging division and threatening social cohesion. \u000a\u000aThe policy of multiculturalism has tended to be implicitly anti-British, despite Australia's British colonial heritage and the large number of post-World War II British immigrants to Australia. \u000a\u000aAustralian immigration policy has moved from one extreme to another, from a policy that sought to encourage European immigration and restrict Asian immigration (White Australia policy), to a policy that now gives disproportionate preference to Asian immigration. Blainey asserts that this preferential treatment of Asian immigrants partly arose from a sense of guilt over the Vietnam War, but also reflected Canberra's misguided view that more trade with Asian countries would come with a larger Asian population.
p20
sS'Token'
p21
(lp22
g0
(cpygate.annotation
Annotation
p23
g2
Ntp24
Rp25
(dp26
S'features'
p27
(dp28
S'lemma'
p29
Vall
p30
sS'ner'
p31
VO
p32
sS'pos'
p33
VDT
p34
sS'index'
p35
I1
ssg10
I0
sS'doc'
p36
g4
sS'labels'
p37
(dp38
sS'relations'
p39
(dp40
sS'cStart'
p41
I0
sS'subType'
p42
g21
sS'annoType'
p43
g21
sS'tStart'
p44
I0
sS'text'
p45
VAll
p46
sS'tEnd'
p47
I0
sS'cEnd'
p48
I3
sbag0
(g23
g2
Ntp49
Rp50
(dp51
g27
(dp52
g29
Vfor
p53
sg31
VO
p54
sg33
VIN
p55
sg35
I2
ssg10
I1
sg36
g4
sg37
(dp56
sg39
(dp57
sg41
I4
sg42
g21
sg43
g21
sg44
I1
sg45
Vfor
p58
sg47
I1
sg48
I7
sbag0
(g23
g2
Ntp59
Rp60
(dp61
g27
(dp62
g29
VAustralia
p63
sg31
VLOCATION
p64
sg33
VNNP
p65
sg35
I3
ssg10
I2
sg36
g4
sg37
(dp66
sg39
(dp67
sg41
I8
sg42
g21
sg43
g21
sg44
I2
sg45
VAustralia
p68
sg47
I2
sg48
I17
sbag0
(g23
g2
Ntp69
Rp70
(dp71
g27
(dp72
g29
Vbe
p73
sg31
VO
p74
sg33
VVBZ
p75
sg35
I4
ssg10
I3
sg36
g4
sg37
(dp76
sg39
(dp77
sg41
I18
sg42
g21
sg43
g21
sg44
I3
sg45
Vis
p78
sg47
I3
sg48
I20
sbag0
(g23
g2
Ntp79
Rp80
(dp81
g27
(dp82
g29
Va
p83
sg31
VO
p84
sg33
VDT
p85
sg35
I5
ssg10
I4
sg36
g4
sg37
(dp86
sg39
(dp87
sg41
I21
sg42
g21
sg43
g21
sg44
I4
sg45
Va
p88
sg47
I4
sg48
I22
sbag0
(g23
g2
Ntp89
Rp90
(dp91
g27
(dp92
g29
V1984
p93
sg31
VDATE
p94
sg33
VCD
p95
sg35
I6
ssg10
I5
sg36
g4
sg37
(dp96
sg39
(dp97
sg41
I23
sg42
g21
sg43
g21
sg44
I5
sg45
V1984
p98
sg47
I5
sg48
I27
sbag0
(g23
g2
Ntp99
Rp100
(dp101
g27
(dp102
g29
Vbook
p103
sg31
VO
p104
sg33
VNN
p105
sg35
I7
ssg10
I6
sg36
g4
sg37
(dp106
sg39
(dp107
sg41
I28
sg42
g21
sg43
g21
sg44
I6
sg45
Vbook
p108
sg47
I6
sg48
I32
sbag0
(g23
g2
Ntp109
Rp110
(dp111
g27
(dp112
g29
Vby
p113
sg31
VO
p114
sg33
VIN
p115
sg35
I8
ssg10
I7
sg36
g4
sg37
(dp116
sg39
(dp117
sg41
I33
sg42
g21
sg43
g21
sg44
I7
sg45
Vby
p118
sg47
I7
sg48
I35
sbag0
(g23
g2
Ntp119
Rp120
(dp121
g27
(dp122
g29
Vaustralian
p123
sg31
VMISC
p124
sg33
VJJ
p125
sg35
I9
ssg10
I8
sg36
g4
sg37
(dp126
sg39
(dp127
sg41
I36
sg42
g21
sg43
g21
sg44
I8
sg45
VAustralian
p128
sg47
I8
sg48
I46
sbag0
(g23
g2
Ntp129
Rp130
(dp131
g27
(dp132
g29
Vhistorian
p133
sg31
VO
p134
sg33
VNN
p135
sg35
I10
ssg10
I9
sg36
g4
sg37
(dp136
sg39
(dp137
sg41
I47
sg42
g21
sg43
g21
sg44
I9
sg45
Vhistorian
p138
sg47
I9
sg48
I56
sbag0
(g23
g2
Ntp139
Rp140
(dp141
g27
(dp142
g29
VProfessor
p143
sg31
VO
p144
sg33
VNNP
p145
sg35
I11
ssg10
I10
sg36
g4
sg37
(dp146
sg39
(dp147
sg41
I57
sg42
g21
sg43
g21
sg44
I10
sg45
VProfessor
p148
sg47
I10
sg48
I66
sbag0
(g23
g2
Ntp149
Rp150
(dp151
g27
(dp152
g29
VGeoffrey
p153
sg31
VPERSON
p154
sg33
VNNP
p155
sg35
I12
ssg10
I11
sg36
g4
sg37
(dp156
sg39
(dp157
sg41
I67
sg42
g21
sg43
g21
sg44
I11
sg45
VGeoffrey
p158
sg47
I11
sg48
I75
sbag0
(g23
g2
Ntp159
Rp160
(dp161
g27
(dp162
g29
VBlainey
p163
sg31
VPERSON
p164
sg33
VNNP
p165
sg35
I13
ssg10
I12
sg36
g4
sg37
(dp166
sg39
(dp167
sg41
I76
sg42
g21
sg43
g21
sg44
I12
sg45
VBlainey
p168
sg47
I12
sg48
I83
sbag0
(g23
g2
Ntp169
Rp170
(dp171
g27
(dp172
g29
V.
p173
sg31
VO
p174
sg33
V.
p175
sg35
I14
ssg10
I13
sg36
g4
sg37
(dp176
sg39
(dp177
sg41
I83
sg42
g21
sg43
g21
sg44
I13
sg45
V.
p178
sg47
I13
sg48
I84
sbag0
(g23
g2
Ntp179
Rp180
(dp181
g27
(dp182
g29
Vit
p183
sg31
VO
p184
sg33
VPRP
p185
sg35
I1
ssg10
I14
sg36
g4
sg37
(dp186
sg39
(dp187
sg41
I85
sg42
g21
sg43
g21
sg44
I14
sg45
VIt
p188
sg47
I14
sg48
I87
sbag0
(g23
g2
Ntp189
Rp190
(dp191
g27
(dp192
g29
Vcriticize
p193
sg31
VO
p194
sg33
VVBZ
p195
sg35
I2
ssg10
I15
sg36
g4
sg37
(dp196
sg39
(dp197
sg41
I88
sg42
g21
sg43
g21
sg44
I15
sg45
Vcriticizes
p198
sg47
I15
sg48
I98
sbag0
(g23
g2
Ntp199
Rp200
(dp201
g27
(dp202
g29
Vaustralian
p203
sg31
VMISC
p204
sg33
VJJ
p205
sg35
I3
ssg10
I16
sg36
g4
sg37
(dp206
sg39
(dp207
sg41
I99
sg42
g21
sg43
g21
sg44
I16
sg45
VAustralian
p208
sg47
I16
sg48
I109
sbag0
(g23
g2
Ntp209
Rp210
(dp211
g27
(dp212
g29
Vimmigration
p213
sg31
VO
p214
sg33
VNN
p215
sg35
I4
ssg10
I17
sg36
g4
sg37
(dp216
sg39
(dp217
sg41
I110
sg42
g21
sg43
g21
sg44
I17
sg45
Vimmigration
p218
sg47
I17
sg48
I121
sbag0
(g23
g2
Ntp219
Rp220
(dp221
g27
(dp222
g29
Vpolicy
p223
sg31
VO
p224
sg33
VNN
p225
sg35
I5
ssg10
I18
sg36
g4
sg37
(dp226
sg39
(dp227
sg41
I122
sg42
g21
sg43
g21
sg44
I18
sg45
Vpolicy
p228
sg47
I18
sg48
I128
sbag0
(g23
g2
Ntp229
Rp230
(dp231
g27
(dp232
g29
Vand
p233
sg31
VO
p234
sg33
VCC
p235
sg35
I6
ssg10
I19
sg36
g4
sg37
(dp236
sg39
(dp237
sg41
I129
sg42
g21
sg43
g21
sg44
I19
sg45
Vand
p238
sg47
I19
sg48
I132
sbag0
(g23
g2
Ntp239
Rp240
(dp241
g27
(dp242
g29
Vthe
p243
sg31
VO
p244
sg33
VDT
p245
sg35
I7
ssg10
I20
sg36
g4
sg37
(dp246
sg39
(dp247
sg41
I133
sg42
g21
sg43
g21
sg44
I20
sg45
Vthe
p248
sg47
I20
sg48
I136
sbag0
(g23
g2
Ntp249
Rp250
(dp251
g27
(dp252
g29
Vdirection
p253
sg31
VO
p254
sg33
VNN
p255
sg35
I8
ssg10
I21
sg36
g4
sg37
(dp256
sg39
(dp257
sg41
I137
sg42
g21
sg43
g21
sg44
I21
sg45
Vdirection
p258
sg47
I21
sg48
I146
sbag0
(g23
g2
Ntp259
Rp260
(dp261
g27
(dp262
g29
Vin
p263
sg31
VO
p264
sg33
VIN
p265
sg35
I9
ssg10
I22
sg36
g4
sg37
(dp266
sg39
(dp267
sg41
I147
sg42
g21
sg43
g21
sg44
I22
sg45
Vin
p268
sg47
I22
sg48
I149
sbag0
(g23
g2
Ntp269
Rp270
(dp271
g27
(dp272
g29
Vwhich
p273
sg31
VO
p274
sg33
VWDT
p275
sg35
I10
ssg10
I23
sg36
g4
sg37
(dp276
sg39
(dp277
sg41
I150
sg42
g21
sg43
g21
sg44
I23
sg45
Vwhich
p278
sg47
I23
sg48
I155
sbag0
(g23
g2
Ntp279
Rp280
(dp281
g27
(dp282
g29
Vit
p283
sg31
VO
p284
sg33
VPRP
p285
sg35
I11
ssg10
I24
sg36
g4
sg37
(dp286
sg39
(dp287
sg41
I156
sg42
g21
sg43
g21
sg44
I24
sg45
Vit
p288
sg47
I24
sg48
I158
sbag0
(g23
g2
Ntp289
Rp290
(dp291
g27
(dp292
g29
Vbe
p293
sg31
VO
p294
sg33
VVBZ
p295
sg35
I12
ssg10
I25
sg36
g4
sg37
(dp296
sg39
(dp297
sg41
I159
sg42
g21
sg43
g21
sg44
I25
sg45
Vis
p298
sg47
I25
sg48
I161
sbag0
(g23
g2
Ntp299
Rp300
(dp301
g27
(dp302
g29
Vshape
p303
sg31
VO
p304
sg33
VVBG
p305
sg35
I13
ssg10
I26
sg36
g4
sg37
(dp306
sg39
(dp307
sg41
I162
sg42
g21
sg43
g21
sg44
I26
sg45
Vshaping
p308
sg47
I26
sg48
I169
sbag0
(g23
g2
Ntp309
Rp310
(dp311
g27
(dp312
g29
Vthe
p313
sg31
VO
p314
sg33
VDT
p315
sg35
I14
ssg10
I27
sg36
g4
sg37
(dp316
sg39
(dp317
sg41
I170
sg42
g21
sg43
g21
sg44
I27
sg45
Vthe
p318
sg47
I27
sg48
I173
sbag0
(g23
g2
Ntp319
Rp320
(dp321
g27
(dp322
g29
Vnation
p323
sg31
VO
p324
sg33
VNN
p325
sg35
I15
ssg10
I28
sg36
g4
sg37
(dp326
sg39
(dp327
sg41
I174
sg42
g21
sg43
g21
sg44
I28
sg45
Vnation
p328
sg47
I28
sg48
I180
sbag0
(g23
g2
Ntp329
Rp330
(dp331
g27
(dp332
g29
V.
p333
sg31
VO
p334
sg33
V.
p335
sg35
I16
ssg10
I29
sg36
g4
sg37
(dp336
sg39
(dp337
sg41
I180
sg42
g21
sg43
g21
sg44
I29
sg45
V.
p338
sg47
I29
sg48
I181
sbag0
(g23
g2
Ntp339
Rp340
(dp341
g27
(dp342
g29
Vin
p343
sg31
VO
p344
sg33
VIN
p345
sg35
I1
ssg10
I30
sg36
g4
sg37
(dp346
sg39
(dp347
sg41
I182
sg42
g21
sg43
g21
sg44
I30
sg45
VIn
p348
sg47
I30
sg48
I184
sbag0
(g23
g2
Ntp349
Rp350
(dp351
g27
(dp352
g29
Vparticular
p353
sg31
VO
p354
sg33
VJJ
p355
sg35
I2
ssg10
I31
sg36
g4
sg37
(dp356
sg39
(dp357
sg41
I185
sg42
g21
sg43
g21
sg44
I31
sg45
Vparticular
p358
sg47
I31
sg48
I195
sbag0
(g23
g2
Ntp359
Rp360
(dp361
g27
(dp362
g29
V,
p363
sg31
VO
p364
sg33
V,
p365
sg35
I3
ssg10
I32
sg36
g4
sg37
(dp366
sg39
(dp367
sg41
I195
sg42
g21
sg43
g21
sg44
I32
sg45
V,
p368
sg47
I32
sg48
I196
sbag0
(g23
g2
Ntp369
Rp370
(dp371
g27
(dp372
g29
Vthe
p373
sg31
VO
p374
sg33
VDT
p375
sg35
I4
ssg10
I33
sg36
g4
sg37
(dp376
sg39
(dp377
sg41
I197
sg42
g21
sg43
g21
sg44
I33
sg45
Vthe
p378
sg47
I33
sg48
I200
sbag0
(g23
g2
Ntp379
Rp380
(dp381
g27
(dp382
g29
Vbook
p383
sg31
VO
p384
sg33
VNN
p385
sg35
I5
ssg10
I34
sg36
g4
sg37
(dp386
sg39
(dp387
sg41
I201
sg42
g21
sg43
g21
sg44
I34
sg45
Vbook
p388
sg47
I34
sg48
I205
sbag0
(g23
g2
Ntp389
Rp390
(dp391
g27
(dp392
g29
Vbe
p393
sg31
VO
p394
sg33
VVBZ
p395
sg35
I6
ssg10
I35
sg36
g4
sg37
(dp396
sg39
(dp397
sg41
I206
sg42
g21
sg43
g21
sg44
I35
sg45
Vis
p398
sg47
I35
sg48
I208
sbag0
(g23
g2
Ntp399
Rp400
(dp401
g27
(dp402
g29
Vcritical
p403
sg31
VO
p404
sg33
VJJ
p405
sg35
I7
ssg10
I36
sg36
g4
sg37
(dp406
sg39
(dp407
sg41
I209
sg42
g21
sg43
g21
sg44
I36
sg45
Vcritical
p408
sg47
I36
sg48
I217
sbag0
(g23
g2
Ntp409
Rp410
(dp411
g27
(dp412
g29
Vof
p413
sg31
VO
p414
sg33
VIN
p415
sg35
I8
ssg10
I37
sg36
g4
sg37
(dp416
sg39
(dp417
sg41
I218
sg42
g21
sg43
g21
sg44
I37
sg45
Vof
p418
sg47
I37
sg48
I220
sbag0
(g23
g2
Ntp419
Rp420
(dp421
g27
(dp422
g29
Vwhat
p423
sg31
VO
p424
sg33
VWP
p425
sg35
I9
ssg10
I38
sg36
g4
sg37
(dp426
sg39
(dp427
sg41
I221
sg42
g21
sg43
g21
sg44
I38
sg45
Vwhat
p428
sg47
I38
sg48
I225
sbag0
(g23
g2
Ntp429
Rp430
(dp431
g27
(dp432
g29
VBlainey
p433
sg31
VPERSON
p434
sg33
VNNP
p435
sg35
I10
ssg10
I39
sg36
g4
sg37
(dp436
sg39
(dp437
sg41
I226
sg42
g21
sg43
g21
sg44
I39
sg45
VBlainey
p438
sg47
I39
sg48
I233
sbag0
(g23
g2
Ntp439
Rp440
(dp441
g27
(dp442
g29
Vview
p443
sg31
VO
p444
sg33
VNNS
p445
sg35
I11
ssg10
I40
sg36
g4
sg37
(dp446
sg39
(dp447
sg41
I234
sg42
g21
sg43
g21
sg44
I40
sg45
Vviews
p448
sg47
I40
sg48
I239
sbag0
(g23
g2
Ntp449
Rp450
(dp451
g27
(dp452
g29
Vas
p453
sg31
VO
p454
sg33
VIN
p455
sg35
I12
ssg10
I41
sg36
g4
sg37
(dp456
sg39
(dp457
sg41
I240
sg42
g21
sg43
g21
sg44
I41
sg45
Vas
p458
sg47
I41
sg48
I242
sbag0
(g23
g2
Ntp459
Rp460
(dp461
g27
(dp462
g29
Vthe
p463
sg31
VO
p464
sg33
VDT
p465
sg35
I13
ssg10
I42
sg36
g4
sg37
(dp466
sg39
(dp467
sg41
I243
sg42
g21
sg43
g21
sg44
I42
sg45
Vthe
p468
sg47
I42
sg48
I246
sbag0
(g23
g2
Ntp469
Rp470
(dp471
g27
(dp472
g29
Vdisproportionately
p473
sg31
VO
p474
sg33
VRB
p475
sg35
I14
ssg10
I43
sg36
g4
sg37
(dp476
sg39
(dp477
sg41
I247
sg42
g21
sg43
g21
sg44
I43
sg45
Vdisproportionately
p478
sg47
I43
sg48
I265
sbag0
(g23
g2
Ntp479
Rp480
(dp481
g27
(dp482
g29
Vhigh
p483
sg31
VO
p484
sg33
VJJ
p485
sg35
I15
ssg10
I44
sg36
g4
sg37
(dp486
sg39
(dp487
sg41
I266
sg42
g21
sg43
g21
sg44
I44
sg45
Vhigh
p488
sg47
I44
sg48
I270
sbag0
(g23
g2
Ntp489
Rp490
(dp491
g27
(dp492
g29
Vlevel
p493
sg31
VO
p494
sg33
VNNS
p495
sg35
I16
ssg10
I45
sg36
g4
sg37
(dp496
sg39
(dp497
sg41
I271
sg42
g21
sg43
g21
sg44
I45
sg45
Vlevels
p498
sg47
I45
sg48
I277
sbag0
(g23
g2
Ntp499
Rp500
(dp501
g27
(dp502
g29
Vof
p503
sg31
VO
p504
sg33
VIN
p505
sg35
I17
ssg10
I46
sg36
g4
sg37
(dp506
sg39
(dp507
sg41
I278
sg42
g21
sg43
g21
sg44
I46
sg45
Vof
p508
sg47
I46
sg48
I280
sbag0
(g23
g2
Ntp509
Rp510
(dp511
g27
(dp512
g29
Vasian
p513
sg31
VMISC
p514
sg33
VJJ
p515
sg35
I18
ssg10
I47
sg36
g4
sg37
(dp516
sg39
(dp517
sg41
I281
sg42
g21
sg43
g21
sg44
I47
sg45
VAsian
p518
sg47
I47
sg48
I286
sbag0
(g23
g2
Ntp519
Rp520
(dp521
g27
(dp522
g29
Vimmigration
p523
sg31
VO
p524
sg33
VNN
p525
sg35
I19
ssg10
I48
sg36
g4
sg37
(dp526
sg39
(dp527
sg41
I287
sg42
g21
sg43
g21
sg44
I48
sg45
Vimmigration
p528
sg47
I48
sg48
I298
sbag0
(g23
g2
Ntp529
Rp530
(dp531
g27
(dp532
g29
Vto
p533
sg31
VO
p534
sg33
VTO
p535
sg35
I20
ssg10
I49
sg36
g4
sg37
(dp536
sg39
(dp537
sg41
I299
sg42
g21
sg43
g21
sg44
I49
sg45
Vto
p538
sg47
I49
sg48
I301
sbag0
(g23
g2
Ntp539
Rp540
(dp541
g27
(dp542
g29
VAustralia
p543
sg31
VLOCATION
p544
sg33
VNNP
p545
sg35
I21
ssg10
I50
sg36
g4
sg37
(dp546
sg39
(dp547
sg41
I302
sg42
g21
sg43
g21
sg44
I50
sg45
VAustralia
p548
sg47
I50
sg48
I311
sbag0
(g23
g2
Ntp549
Rp550
(dp551
g27
(dp552
g29
Vsince
p553
sg31
VO
p554
sg33
VIN
p555
sg35
I22
ssg10
I51
sg36
g4
sg37
(dp556
sg39
(dp557
sg41
I312
sg42
g21
sg43
g21
sg44
I51
sg45
Vsince
p558
sg47
I51
sg48
I317
sbag0
(g23
g2
Ntp559
Rp560
(dp561
g27
(dp562
g29
Vthe
p563
sg31
VDATE
p564
sg33
VDT
p565
sg35
I23
ssg10
I52
sg36
g4
sg37
(dp566
sg39
(dp567
sg41
I318
sg42
g21
sg43
g21
sg44
I52
sg45
Vthe
p568
sg47
I52
sg48
I321
sbag0
(g23
g2
Ntp569
Rp570
(dp571
g27
(dp572
g29
Vmid-1970
p573
sg31
VDATE
p574
sg33
VNNS
p575
sg35
I24
ssg10
I53
sg36
g4
sg37
(dp576
sg39
(dp577
sg41
I322
sg42
g21
sg43
g21
sg44
I53
sg45
Vmid-1970s
p578
sg47
I53
sg48
I331
sbag0
(g23
g2
Ntp579
Rp580
(dp581
g27
(dp582
g29
V.
p583
sg31
VO
p584
sg33
V.
p585
sg35
I25
ssg10
I54
sg36
g4
sg37
(dp586
sg39
(dp587
sg41
I331
sg42
g21
sg43
g21
sg44
I54
sg45
V.
p588
sg47
I54
sg48
I332
sbag0
(g23
g2
Ntp589
Rp590
(dp591
g27
(dp592
g29
Vin
p593
sg31
VO
p594
sg33
VIN
p595
sg35
I1
ssg10
I55
sg36
g4
sg37
(dp596
sg39
(dp597
sg41
I334
sg42
g21
sg43
g21
sg44
I55
sg45
VIn
p598
sg47
I55
sg48
I336
sbag0
(g23
g2
Ntp599
Rp600
(dp601
g27
(dp602
g29
Vall
p603
sg31
VO
p604
sg33
VDT
p605
sg35
I2
ssg10
I56
sg36
g4
sg37
(dp606
sg39
(dp607
sg41
I337
sg42
g21
sg43
g21
sg44
I56
sg45
VAll
p608
sg47
I56
sg48
I340
sbag0
(g23
g2
Ntp609
Rp610
(dp611
g27
(dp612
g29
Vfor
p613
sg31
VO
p614
sg33
VIN
p615
sg35
I3
ssg10
I57
sg36
g4
sg37
(dp616
sg39
(dp617
sg41
I341
sg42
g21
sg43
g21
sg44
I57
sg45
Vfor
p618
sg47
I57
sg48
I344
sbag0
(g23
g2
Ntp619
Rp620
(dp621
g27
(dp622
g29
VAustralia
p623
sg31
VLOCATION
p624
sg33
VNNP
p625
sg35
I4
ssg10
I58
sg36
g4
sg37
(dp626
sg39
(dp627
sg41
I345
sg42
g21
sg43
g21
sg44
I58
sg45
VAustralia
p628
sg47
I58
sg48
I354
sbag0
(g23
g2
Ntp629
Rp630
(dp631
g27
(dp632
g29
V,
p633
sg31
VO
p634
sg33
V,
p635
sg35
I5
ssg10
I59
sg36
g4
sg37
(dp636
sg39
(dp637
sg41
I354
sg42
g21
sg43
g21
sg44
I59
sg45
V,
p638
sg47
I59
sg48
I355
sbag0
(g23
g2
Ntp639
Rp640
(dp641
g27
(dp642
g29
VBlainey
p643
sg31
VPERSON
p644
sg33
VNNP
p645
sg35
I6
ssg10
I60
sg36
g4
sg37
(dp646
sg39
(dp647
sg41
I356
sg42
g21
sg43
g21
sg44
I60
sg45
VBlainey
p648
sg47
I60
sg48
I363
sbag0
(g23
g2
Ntp649
Rp650
(dp651
g27
(dp652
g29
Vargue
p653
sg31
VO
p654
sg33
VVBZ
p655
sg35
I7
ssg10
I61
sg36
g4
sg37
(dp656
sg39
(dp657
sg41
I364
sg42
g21
sg43
g21
sg44
I61
sg45
Vargues
p658
sg47
I61
sg48
I370
sbag0
(g23
g2
Ntp659
Rp660
(dp661
g27
(dp662
g29
V:
p663
sg31
VO
p664
sg33
V:
p665
sg35
I8
ssg10
I62
sg36
g4
sg37
(dp666
sg39
(dp667
sg41
I370
sg42
g21
sg43
g21
sg44
I62
sg45
V:
p668
sg47
I62
sg48
I371
sbag0
(g23
g2
Ntp669
Rp670
(dp671
g27
(dp672
g29
V.
p673
sg31
VO
p674
sg33
V.
p675
sg35
I9
ssg10
I63
sg36
g4
sg37
(dp676
sg39
(dp677
sg41
I372
sg42
g21
sg43
g21
sg44
I63
sg45
V.
p678
sg47
I63
sg48
I373
sbag0
(g23
g2
Ntp679
Rp680
(dp681
g27
(dp682
g29
Vfor
p683
sg31
VO
p684
sg33
VIN
p685
sg35
I1
ssg10
I64
sg36
g4
sg37
(dp686
sg39
(dp687
sg41
I376
sg42
g21
sg43
g21
sg44
I64
sg45
VFor
p688
sg47
I64
sg48
I379
sbag0
(g23
g2
Ntp689
Rp690
(dp691
g27
(dp692
g29
Vthe
p693
sg31
VO
p694
sg33
VDT
p695
sg35
I2
ssg10
I65
sg36
g4
sg37
(dp696
sg39
(dp697
sg41
I380
sg42
g21
sg43
g21
sg44
I65
sg45
Vthe
p698
sg47
I65
sg48
I383
sbag0
(g23
g2
Ntp699
Rp700
(dp701
g27
(dp702
g29
Vsake
p703
sg31
VO
p704
sg33
VNN
p705
sg35
I3
ssg10
I66
sg36
g4
sg37
(dp706
sg39
(dp707
sg41
I384
sg42
g21
sg43
g21
sg44
I66
sg45
Vsake
p708
sg47
I66
sg48
I388
sbag0
(g23
g2
Ntp709
Rp710
(dp711
g27
(dp712
g29
Vof
p713
sg31
VO
p714
sg33
VIN
p715
sg35
I4
ssg10
I67
sg36
g4
sg37
(dp716
sg39
(dp717
sg41
I389
sg42
g21
sg43
g21
sg44
I67
sg45
Vof
p718
sg47
I67
sg48
I391
sbag0
(g23
g2
Ntp719
Rp720
(dp721
g27
(dp722
g29
Vnational
p723
sg31
VO
p724
sg33
VJJ
p725
sg35
I5
ssg10
I68
sg36
g4
sg37
(dp726
sg39
(dp727
sg41
I392
sg42
g21
sg43
g21
sg44
I68
sg45
Vnational
p728
sg47
I68
sg48
I400
sbag0
(g23
g2
Ntp729
Rp730
(dp731
g27
(dp732
g29
Vunity
p733
sg31
VO
p734
sg33
VNN
p735
sg35
I6
ssg10
I69
sg36
g4
sg37
(dp736
sg39
(dp737
sg41
I401
sg42
g21
sg43
g21
sg44
I69
sg45
Vunity
p738
sg47
I69
sg48
I406
sbag0
(g23
g2
Ntp739
Rp740
(dp741
g27
(dp742
g29
V,
p743
sg31
VO
p744
sg33
V,
p745
sg35
I7
ssg10
I70
sg36
g4
sg37
(dp746
sg39
(dp747
sg41
I406
sg42
g21
sg43
g21
sg44
I70
sg45
V,
p748
sg47
I70
sg48
I407
sbag0
(g23
g2
Ntp749
Rp750
(dp751
g27
(dp752
g29
Vthe
p753
sg31
VO
p754
sg33
VDT
p755
sg35
I8
ssg10
I71
sg36
g4
sg37
(dp756
sg39
(dp757
sg41
I408
sg42
g21
sg43
g21
sg44
I71
sg45
Vthe
p758
sg47
I71
sg48
I411
sbag0
(g23
g2
Ntp759
Rp760
(dp761
g27
(dp762
g29
Vtypical
p763
sg31
VO
p764
sg33
VJJ
p765
sg35
I9
ssg10
I72
sg36
g4
sg37
(dp766
sg39
(dp767
sg41
I412
sg42
g21
sg43
g21
sg44
I72
sg45
Vtypical
p768
sg47
I72
sg48
I419
sbag0
(g23
g2
Ntp769
Rp770
(dp771
g27
(dp772
g29
Vnation
p773
sg31
VO
p774
sg33
VNN
p775
sg35
I10
ssg10
I73
sg36
g4
sg37
(dp776
sg39
(dp777
sg41
I420
sg42
g21
sg43
g21
sg44
I73
sg45
Vnation
p778
sg47
I73
sg48
I426
sbag0
(g23
g2
Ntp779
Rp780
(dp781
g27
(dp782
g29
Vpractice
p783
sg31
VO
p784
sg33
VNNS
p785
sg35
I11
ssg10
I74
sg36
g4
sg37
(dp786
sg39
(dp787
sg41
I427
sg42
g21
sg43
g21
sg44
I74
sg45
Vpractices
p788
sg47
I74
sg48
I436
sbag0
(g23
g2
Ntp789
Rp790
(dp791
g27
(dp792
g29
Vdiscrimination
p793
sg31
VO
p794
sg33
VNN
p795
sg35
I12
ssg10
I75
sg36
g4
sg37
(dp796
sg39
(dp797
sg41
I437
sg42
g21
sg43
g21
sg44
I75
sg45
Vdiscrimination
p798
sg47
I75
sg48
I451
sbag0
(g23
g2
Ntp799
Rp800
(dp801
g27
(dp802
g29
Vagainst
p803
sg31
VO
p804
sg33
VIN
p805
sg35
I13
ssg10
I76
sg36
g4
sg37
(dp806
sg39
(dp807
sg41
I452
sg42
g21
sg43
g21
sg44
I76
sg45
Vagainst
p808
sg47
I76
sg48
I459
sbag0
(g23
g2
Ntp809
Rp810
(dp811
g27
(dp812
g29
Vmigrant
p813
sg31
VO
p814
sg33
VNNS
p815
sg35
I14
ssg10
I77
sg36
g4
sg37
(dp816
sg39
(dp817
sg41
I460
sg42
g21
sg43
g21
sg44
I77
sg45
Vmigrants
p818
sg47
I77
sg48
I468
sbag0
(g23
g2
Ntp819
Rp820
(dp821
g27
(dp822
g29
Von
p823
sg31
VO
p824
sg33
VIN
p825
sg35
I15
ssg10
I78
sg36
g4
sg37
(dp826
sg39
(dp827
sg41
I469
sg42
g21
sg43
g21
sg44
I78
sg45
Von
p828
sg47
I78
sg48
I471
sbag0
(g23
g2
Ntp829
Rp830
(dp831
g27
(dp832
g29
Vthe
p833
sg31
VO
p834
sg33
VDT
p835
sg35
I16
ssg10
I79
sg36
g4
sg37
(dp836
sg39
(dp837
sg41
I472
sg42
g21
sg43
g21
sg44
I79
sg45
Vthe
p838
sg47
I79
sg48
I475
sbag0
(g23
g2
Ntp839
Rp840
(dp841
g27
(dp842
g29
Vbasis
p843
sg31
VO
p844
sg33
VNN
p845
sg35
I17
ssg10
I80
sg36
g4
sg37
(dp846
sg39
(dp847
sg41
I476
sg42
g21
sg43
g21
sg44
I80
sg45
Vbasis
p848
sg47
I80
sg48
I481
sbag0
(g23
g2
Ntp849
Rp850
(dp851
g27
(dp852
g29
Vof
p853
sg31
VO
p854
sg33
VIN
p855
sg35
I18
ssg10
I81
sg36
g4
sg37
(dp856
sg39
(dp857
sg41
I482
sg42
g21
sg43
g21
sg44
I81
sg45
Vof
p858
sg47
I81
sg48
I484
sbag0
(g23
g2
Ntp859
Rp860
(dp861
g27
(dp862
g29
Vethnicity
p863
sg31
VO
p864
sg33
VNN
p865
sg35
I19
ssg10
I82
sg36
g4
sg37
(dp866
sg39
(dp867
sg41
I485
sg42
g21
sg43
g21
sg44
I82
sg45
Vethnicity
p868
sg47
I82
sg48
I494
sbag0
(g23
g2
Ntp869
Rp870
(dp871
g27
(dp872
g29
V.
p873
sg31
VO
p874
sg33
V.
p875
sg35
I20
ssg10
I83
sg36
g4
sg37
(dp876
sg39
(dp877
sg41
I494
sg42
g21
sg43
g21
sg44
I83
sg45
V.
p878
sg47
I83
sg48
I495
sbag0
(g23
g2
Ntp879
Rp880
(dp881
g27
(dp882
g29
Vironically
p883
sg31
VO
p884
sg33
VRB
p885
sg35
I1
ssg10
I84
sg36
g4
sg37
(dp886
sg39
(dp887
sg41
I496
sg42
g21
sg43
g21
sg44
I84
sg45
VIronically
p888
sg47
I84
sg48
I506
sbag0
(g23
g2
Ntp889
Rp890
(dp891
g27
(dp892
g29
V,
p893
sg31
VO
p894
sg33
V,
p895
sg35
I2
ssg10
I85
sg36
g4
sg37
(dp896
sg39
(dp897
sg41
I506
sg42
g21
sg43
g21
sg44
I85
sg45
V,
p898
sg47
I85
sg48
I507
sbag0
(g23
g2
Ntp899
Rp900
(dp901
g27
(dp902
g29
Vthe
p903
sg31
VO
p904
sg33
VDT
p905
sg35
I3
ssg10
I86
sg36
g4
sg37
(dp906
sg39
(dp907
sg41
I508
sg42
g21
sg43
g21
sg44
I86
sg45
Vthe
p908
sg47
I86
sg48
I511
sbag0
(g23
g2
Ntp909
Rp910
(dp911
g27
(dp912
g29
Vasian
p913
sg31
VMISC
p914
sg33
VJJ
p915
sg35
I4
ssg10
I87
sg36
g4
sg37
(dp916
sg39
(dp917
sg41
I512
sg42
g21
sg43
g21
sg44
I87
sg45
VAsian
p918
sg47
I87
sg48
I517
sbag0
(g23
g2
Ntp919
Rp920
(dp921
g27
(dp922
g29
Vcountry
p923
sg31
VO
p924
sg33
VNNS
p925
sg35
I5
ssg10
I88
sg36
g4
sg37
(dp926
sg39
(dp927
sg41
I518
sg42
g21
sg43
g21
sg44
I88
sg45
Vcountries
p928
sg47
I88
sg48
I527
sbag0
(g23
g2
Ntp929
Rp930
(dp931
g27
(dp932
g29
Vwhich
p933
sg31
VO
p934
sg33
VWDT
p935
sg35
I6
ssg10
I89
sg36
g4
sg37
(dp936
sg39
(dp937
sg41
I528
sg42
g21
sg43
g21
sg44
I89
sg45
Vwhich
p938
sg47
I89
sg48
I533
sbag0
(g23
g2
Ntp939
Rp940
(dp941
g27
(dp942
g29
VAustralia
p943
sg31
VLOCATION
p944
sg33
VNNP
p945
sg35
I7
ssg10
I90
sg36
g4
sg37
(dp946
sg39
(dp947
sg41
I534
sg42
g21
sg43
g21
sg44
I90
sg45
VAustralia
p948
sg47
I90
sg48
I543
sbag0
(g23
g2
Ntp949
Rp950
(dp951
g27
(dp952
g29
Vbe
p953
sg31
VO
p954
sg33
VVBZ
p955
sg35
I8
ssg10
I91
sg36
g4
sg37
(dp956
sg39
(dp957
sg41
I544
sg42
g21
sg43
g21
sg44
I91
sg45
Vis
p958
sg47
I91
sg48
I546
sbag0
(g23
g2
Ntp959
Rp960
(dp961
g27
(dp962
g29
Vtoo
p963
sg31
VO
p964
sg33
VRB
p965
sg35
I9
ssg10
I92
sg36
g4
sg37
(dp966
sg39
(dp967
sg41
I547
sg42
g21
sg43
g21
sg44
I92
sg45
Vtoo
p968
sg47
I92
sg48
I550
sbag0
(g23
g2
Ntp969
Rp970
(dp971
g27
(dp972
g29
Vafraid
p973
sg31
VO
p974
sg33
VJJ
p975
sg35
I10
ssg10
I93
sg36
g4
sg37
(dp976
sg39
(dp977
sg41
I551
sg42
g21
sg43
g21
sg44
I93
sg45
Vafraid
p978
sg47
I93
sg48
I557
sbag0
(g23
g2
Ntp979
Rp980
(dp981
g27
(dp982
g29
Vto
p983
sg31
VO
p984
sg33
VTO
p985
sg35
I11
ssg10
I94
sg36
g4
sg37
(dp986
sg39
(dp987
sg41
I558
sg42
g21
sg43
g21
sg44
I94
sg45
Vto
p988
sg47
I94
sg48
I560
sbag0
(g23
g2
Ntp989
Rp990
(dp991
g27
(dp992
g29
V``
p993
sg31
VO
p994
sg33
V``
p995
sg35
I12
ssg10
I95
sg36
g4
sg37
(dp996
sg39
(dp997
sg41
I561
sg42
g21
sg43
g21
sg44
I95
sg45
V"
p998
sg47
I95
sg48
I562
sbag0
(g23
g2
Ntp999
Rp1000
(dp1001
g27
(dp1002
g29
Voffend
p1003
sg31
VO
p1004
sg33
VVB
p1005
sg35
I13
ssg10
I96
sg36
g4
sg37
(dp1006
sg39
(dp1007
sg41
I562
sg42
g21
sg43
g21
sg44
I96
sg45
Voffend
p1008
sg47
I96
sg48
I568
sbag0
(g23
g2
Ntp1009
Rp1010
(dp1011
g27
(dp1012
g29
V''
p1013
sg31
VO
p1014
sg33
V''
p1015
sg35
I14
ssg10
I97
sg36
g4
sg37
(dp1016
sg39
(dp1017
sg41
I568
sg42
g21
sg43
g21
sg44
I97
sg45
g998
sg47
I97
sg48
I569
sbag0
(g23
g2
Ntp1018
Rp1019
(dp1020
g27
(dp1021
g29
Vhave
p1022
sg31
VO
p1023
sg33
VVBP
p1024
sg35
I15
ssg10
I98
sg36
g4
sg37
(dp1025
sg39
(dp1026
sg41
I570
sg42
g21
sg43
g21
sg44
I98
sg45
Vhave
p1027
sg47
I98
sg48
I574
sbag0
(g23
g2
Ntp1028
Rp1029
(dp1030
g27
(dp1031
g29
Vno
p1032
sg31
VO
p1033
sg33
VDT
p1034
sg35
I16
ssg10
I99
sg36
g4
sg37
(dp1035
sg39
(dp1036
sg41
I575
sg42
g21
sg43
g21
sg44
I99
sg45
Vno
p1037
sg47
I99
sg48
I577
sbag0
(g23
g2
Ntp1038
Rp1039
(dp1040
g27
(dp1041
g29
Vhesitation
p1042
sg31
VO
p1043
sg33
VNN
p1044
sg35
I17
ssg10
I100
sg36
g4
sg37
(dp1045
sg39
(dp1046
sg41
I578
sg42
g21
sg43
g21
sg44
I100
sg45
Vhesitation
p1047
sg47
I100
sg48
I588
sbag0
(g23
g2
Ntp1048
Rp1049
(dp1050
g27
(dp1051
g29
Vin
p1052
sg31
VO
p1053
sg33
VIN
p1054
sg35
I18
ssg10
I101
sg36
g4
sg37
(dp1055
sg39
(dp1056
sg41
I589
sg42
g21
sg43
g21
sg44
I101
sg45
Vin
p1057
sg47
I101
sg48
I591
sbag0
(g23
g2
Ntp1058
Rp1059
(dp1060
g27
(dp1061
g29
Vuse
p1062
sg31
VO
p1063
sg33
VVBG
p1064
sg35
I19
ssg10
I102
sg36
g4
sg37
(dp1065
sg39
(dp1066
sg41
I592
sg42
g21
sg43
g21
sg44
I102
sg45
Vusing
p1067
sg47
I102
sg48
I597
sbag0
(g23
g2
Ntp1068
Rp1069
(dp1070
g27
(dp1071
g29
Vthis
p1072
sg31
VO
p1073
sg33
VDT
p1074
sg35
I20
ssg10
I103
sg36
g4
sg37
(dp1075
sg39
(dp1076
sg41
I598
sg42
g21
sg43
g21
sg44
I103
sg45
Vthis
p1077
sg47
I103
sg48
I602
sbag0
(g23
g2
Ntp1078
Rp1079
(dp1080
g27
(dp1081
g29
Vright
p1082
sg31
VO
p1083
sg33
VNN
p1084
sg35
I21
ssg10
I104
sg36
g4
sg37
(dp1085
sg39
(dp1086
sg41
I603
sg42
g21
sg43
g21
sg44
I104
sg45
Vright
p1087
sg47
I104
sg48
I608
sbag0
(g23
g2
Ntp1088
Rp1089
(dp1090
g27
(dp1091
g29
Vto
p1092
sg31
VO
p1093
sg33
VTO
p1094
sg35
I22
ssg10
I105
sg36
g4
sg37
(dp1095
sg39
(dp1096
sg41
I609
sg42
g21
sg43
g21
sg44
I105
sg45
Vto
p1097
sg47
I105
sg48
I611
sbag0
(g23
g2
Ntp1098
Rp1099
(dp1100
g27
(dp1101
g29
Vretain
p1102
sg31
VO
p1103
sg33
VVB
p1104
sg35
I23
ssg10
I106
sg36
g4
sg37
(dp1105
sg39
(dp1106
sg41
I612
sg42
g21
sg43
g21
sg44
I106
sg45
Vretain
p1107
sg47
I106
sg48
I618
sbag0
(g23
g2
Ntp1108
Rp1109
(dp1110
g27
(dp1111
g29
Vthey
p1112
sg31
VO
p1113
sg33
VPRP$
p1114
sg35
I24
ssg10
I107
sg36
g4
sg37
(dp1115
sg39
(dp1116
sg41
I619
sg42
g21
sg43
g21
sg44
I107
sg45
Vtheir
p1117
sg47
I107
sg48
I624
sbag0
(g23
g2
Ntp1118
Rp1119
(dp1120
g27
(dp1121
g29
Vcurrent
p1122
sg31
VDATE
p1123
sg33
VJJ
p1124
sg35
I25
ssg10
I108
sg36
g4
sg37
(dp1125
sg39
(dp1126
sg41
I625
sg42
g21
sg43
g21
sg44
I108
sg45
Vcurrent
p1127
sg47
I108
sg48
I632
sbag0
(g23
g2
Ntp1128
Rp1129
(dp1130
g27
(dp1131
g29
Vethnic
p1132
sg31
VO
p1133
sg33
VJJ
p1134
sg35
I26
ssg10
I109
sg36
g4
sg37
(dp1135
sg39
(dp1136
sg41
I633
sg42
g21
sg43
g21
sg44
I109
sg45
Vethnic
p1137
sg47
I109
sg48
I639
sbag0
(g23
g2
Ntp1138
Rp1139
(dp1140
g27
(dp1141
g29
Vcomposition
p1142
sg31
VO
p1143
sg33
VNNS
p1144
sg35
I27
ssg10
I110
sg36
g4
sg37
(dp1145
sg39
(dp1146
sg41
I640
sg42
g21
sg43
g21
sg44
I110
sg45
Vcompositions
p1147
sg47
I110
sg48
I652
sbag0
(g23
g2
Ntp1148
Rp1149
(dp1150
g27
(dp1151
g29
V.
p1152
sg31
VO
p1153
sg33
V.
p1154
sg35
I28
ssg10
I111
sg36
g4
sg37
(dp1155
sg39
(dp1156
sg41
I652
sg42
g21
sg43
g21
sg44
I111
sg45
V.
p1157
sg47
I111
sg48
I653
sbag0
(g23
g2
Ntp1158
Rp1159
(dp1160
g27
(dp1161
g29
Vevery
p1162
sg31
VO
p1163
sg33
VDT
p1164
sg35
I1
ssg10
I112
sg36
g4
sg37
(dp1165
sg39
(dp1166
sg41
I656
sg42
g21
sg43
g21
sg44
I112
sg45
VEvery
p1167
sg47
I112
sg48
I661
sbag0
(g23
g2
Ntp1168
Rp1169
(dp1170
g27
(dp1171
g29
Vnation
p1172
sg31
VO
p1173
sg33
VNN
p1174
sg35
I2
ssg10
I113
sg36
g4
sg37
(dp1175
sg39
(dp1176
sg41
I662
sg42
g21
sg43
g21
sg44
I113
sg45
Vnation
p1177
sg47
I113
sg48
I668
sbag0
(g23
g2
Ntp1178
Rp1179
(dp1180
g27
(dp1181
g29
Vrely
p1182
sg31
VO
p1183
sg33
VVBZ
p1184
sg35
I3
ssg10
I114
sg36
g4
sg37
(dp1185
sg39
(dp1186
sg41
I669
sg42
g21
sg43
g21
sg44
I114
sg45
Vrelies
p1187
sg47
I114
sg48
I675
sbag0
(g23
g2
Ntp1188
Rp1189
(dp1190
g27
(dp1191
g29
Von
p1192
sg31
VO
p1193
sg33
VIN
p1194
sg35
I4
ssg10
I115
sg36
g4
sg37
(dp1195
sg39
(dp1196
sg41
I676
sg42
g21
sg43
g21
sg44
I115
sg45
Von
p1197
sg47
I115
sg48
I678
sbag0
(g23
g2
Ntp1198
Rp1199
(dp1200
g27
(dp1201
g29
Va
p1202
sg31
VO
p1203
sg33
VDT
p1204
sg35
I5
ssg10
I116
sg36
g4
sg37
(dp1205
sg39
(dp1206
sg41
I679
sg42
g21
sg43
g21
sg44
I116
sg45
Va
p1207
sg47
I116
sg48
I680
sbag0
(g23
g2
Ntp1208
Rp1209
(dp1210
g27
(dp1211
g29
Vsense
p1212
sg31
VO
p1213
sg33
VNN
p1214
sg35
I6
ssg10
I117
sg36
g4
sg37
(dp1215
sg39
(dp1216
sg41
I681
sg42
g21
sg43
g21
sg44
I117
sg45
Vsense
p1217
sg47
I117
sg48
I686
sbag0
(g23
g2
Ntp1218
Rp1219
(dp1220
g27
(dp1221
g29
Vof
p1222
sg31
VO
p1223
sg33
VIN
p1224
sg35
I7
ssg10
I118
sg36
g4
sg37
(dp1225
sg39
(dp1226
sg41
I687
sg42
g21
sg43
g21
sg44
I118
sg45
Vof
p1227
sg47
I118
sg48
I689
sbag0
(g23
g2
Ntp1228
Rp1229
(dp1230
g27
(dp1231
g29
Vcommunity
p1232
sg31
VO
p1233
sg33
VNN
p1234
sg35
I8
ssg10
I119
sg36
g4
sg37
(dp1235
sg39
(dp1236
sg41
I690
sg42
g21
sg43
g21
sg44
I119
sg45
Vcommunity
p1237
sg47
I119
sg48
I699
sbag0
(g23
g2
Ntp1238
Rp1239
(dp1240
g27
(dp1241
g29
V.
p1242
sg31
VO
p1243
sg33
V.
p1244
sg35
I9
ssg10
I120
sg36
g4
sg37
(dp1245
sg39
(dp1246
sg41
I699
sg42
g21
sg43
g21
sg44
I120
sg45
V.
p1247
sg47
I120
sg48
I700
sbag0
(g23
g2
Ntp1248
Rp1249
(dp1250
g27
(dp1251
g29
Vthat
p1252
sg31
VO
p1253
sg33
VDT
p1254
sg35
I1
ssg10
I121
sg36
g4
sg37
(dp1255
sg39
(dp1256
sg41
I701
sg42
g21
sg43
g21
sg44
I121
sg45
VThat
p1257
sg47
I121
sg48
I705
sbag0
(g23
g2
Ntp1258
Rp1259
(dp1260
g27
(dp1261
g29
Vsense
p1262
sg31
VO
p1263
sg33
VNN
p1264
sg35
I2
ssg10
I122
sg36
g4
sg37
(dp1265
sg39
(dp1266
sg41
I706
sg42
g21
sg43
g21
sg44
I122
sg45
Vsense
p1267
sg47
I122
sg48
I711
sbag0
(g23
g2
Ntp1268
Rp1269
(dp1270
g27
(dp1271
g29
Vof
p1272
sg31
VO
p1273
sg33
VIN
p1274
sg35
I3
ssg10
I123
sg36
g4
sg37
(dp1275
sg39
(dp1276
sg41
I712
sg42
g21
sg43
g21
sg44
I123
sg45
Vof
p1277
sg47
I123
sg48
I714
sbag0
(g23
g2
Ntp1278
Rp1279
(dp1280
g27
(dp1281
g29
Vcommunity
p1282
sg31
VO
p1283
sg33
VNN
p1284
sg35
I4
ssg10
I124
sg36
g4
sg37
(dp1285
sg39
(dp1286
sg41
I715
sg42
g21
sg43
g21
sg44
I124
sg45
Vcommunity
p1287
sg47
I124
sg48
I724
sbag0
(g23
g2
Ntp1288
Rp1289
(dp1290
g27
(dp1291
g29
Vbelong
p1292
sg31
VO
p1293
sg33
VVBG
p1294
sg35
I5
ssg10
I125
sg36
g4
sg37
(dp1295
sg39
(dp1296
sg41
I725
sg42
g21
sg43
g21
sg44
I125
sg45
Vbelonging
p1297
sg47
I125
sg48
I734
sbag0
(g23
g2
Ntp1298
Rp1299
(dp1300
g27
(dp1301
g29
Vcan
p1302
sg31
VO
p1303
sg33
VMD
p1304
sg35
I6
ssg10
I126
sg36
g4
sg37
(dp1305
sg39
(dp1306
sg41
I735
sg42
g21
sg43
g21
sg44
I126
sg45
Vcan
p1307
sg47
I126
sg48
I738
sbag0
(g23
g2
Ntp1308
Rp1309
(dp1310
g27
(dp1311
g29
Veasily
p1312
sg31
VO
p1313
sg33
VRB
p1314
sg35
I7
ssg10
I127
sg36
g4
sg37
(dp1315
sg39
(dp1316
sg41
I739
sg42
g21
sg43
g21
sg44
I127
sg45
Veasily
p1317
sg47
I127
sg48
I745
sbag0
(g23
g2
Ntp1318
Rp1319
(dp1320
g27
(dp1321
g29
Vbe
p1322
sg31
VO
p1323
sg33
VVB
p1324
sg35
I8
ssg10
I128
sg36
g4
sg37
(dp1325
sg39
(dp1326
sg41
I746
sg42
g21
sg43
g21
sg44
I128
sg45
Vbe
p1327
sg47
I128
sg48
I748
sbag0
(g23
g2
Ntp1328
Rp1329
(dp1330
g27
(dp1331
g29
Vdamage
p1332
sg31
VO
p1333
sg33
VVBN
p1334
sg35
I9
ssg10
I129
sg36
g4
sg37
(dp1335
sg39
(dp1336
sg41
I749
sg42
g21
sg43
g21
sg44
I129
sg45
Vdamaged
p1337
sg47
I129
sg48
I756
sbag0
(g23
g2
Ntp1338
Rp1339
(dp1340
g27
(dp1341
g29
Vby
p1342
sg31
VO
p1343
sg33
VIN
p1344
sg35
I10
ssg10
I130
sg36
g4
sg37
(dp1345
sg39
(dp1346
sg41
I757
sg42
g21
sg43
g21
sg44
I130
sg45
Vby
p1347
sg47
I130
sg48
I759
sbag0
(g23
g2
Ntp1348
Rp1349
(dp1350
g27
(dp1351
g29
Vthe
p1352
sg31
VO
p1353
sg33
VDT
p1354
sg35
I11
ssg10
I131
sg36
g4
sg37
(dp1355
sg39
(dp1356
sg41
I760
sg42
g21
sg43
g21
sg44
I131
sg45
Vthe
p1357
sg47
I131
sg48
I763
sbag0
(g23
g2
Ntp1358
Rp1359
(dp1360
g27
(dp1361
g29
Vrapid
p1362
sg31
VO
p1363
sg33
VJJ
p1364
sg35
I12
ssg10
I132
sg36
g4
sg37
(dp1365
sg39
(dp1366
sg41
I764
sg42
g21
sg43
g21
sg44
I132
sg45
Vrapid
p1367
sg47
I132
sg48
I769
sbag0
(g23
g2
Ntp1368
Rp1369
(dp1370
g27
(dp1371
g29
Ventry
p1372
sg31
VO
p1373
sg33
VNN
p1374
sg35
I13
ssg10
I133
sg36
g4
sg37
(dp1375
sg39
(dp1376
sg41
I770
sg42
g21
sg43
g21
sg44
I133
sg45
Ventry
p1377
sg47
I133
sg48
I775
sbag0
(g23
g2
Ntp1378
Rp1379
(dp1380
g27
(dp1381
g29
Vof
p1382
sg31
VO
p1383
sg33
VIN
p1384
sg35
I14
ssg10
I134
sg36
g4
sg37
(dp1385
sg39
(dp1386
sg41
I776
sg42
g21
sg43
g21
sg44
I134
sg45
Vof
p1387
sg47
I134
sg48
I778
sbag0
(g23
g2
Ntp1388
Rp1389
(dp1390
g27
(dp1391
g29
Vforeign
p1392
sg31
VO
p1393
sg33
VJJ
p1394
sg35
I15
ssg10
I135
sg36
g4
sg37
(dp1395
sg39
(dp1396
sg41
I779
sg42
g21
sg43
g21
sg44
I135
sg45
Vforeign
p1397
sg47
I135
sg48
I786
sbag0
(g23
g2
Ntp1398
Rp1399
(dp1400
g27
(dp1401
g29
Vpeople
p1402
sg31
VO
p1403
sg33
VNNS
p1404
sg35
I16
ssg10
I136
sg36
g4
sg37
(dp1405
sg39
(dp1406
sg41
I787
sg42
g21
sg43
g21
sg44
I136
sg45
Vpeoples
p1407
sg47
I136
sg48
I794
sbag0
(g23
g2
Ntp1408
Rp1409
(dp1410
g27
(dp1411
g29
Vwho
p1412
sg31
VO
p1413
sg33
VWP
p1414
sg35
I17
ssg10
I137
sg36
g4
sg37
(dp1415
sg39
(dp1416
sg41
I795
sg42
g21
sg43
g21
sg44
I137
sg45
Vwho
p1417
sg47
I137
sg48
I798
sbag0
(g23
g2
Ntp1418
Rp1419
(dp1420
g27
(dp1421
g29
Vunintentionally
p1422
sg31
VO
p1423
sg33
VRB
p1424
sg35
I18
ssg10
I138
sg36
g4
sg37
(dp1425
sg39
(dp1426
sg41
I799
sg42
g21
sg43
g21
sg44
I138
sg45
Vunintentionally
p1427
sg47
I138
sg48
I814
sbag0
(g23
g2
Ntp1428
Rp1429
(dp1430
g27
(dp1431
g29
Verode
p1432
sg31
VO
p1433
sg33
VVBP
p1434
sg35
I19
ssg10
I139
sg36
g4
sg37
(dp1435
sg39
(dp1436
sg41
I815
sg42
g21
sg43
g21
sg44
I139
sg45
Verode
p1437
sg47
I139
sg48
I820
sbag0
(g23
g2
Ntp1438
Rp1439
(dp1440
g27
(dp1441
g29
Vnational
p1442
sg31
VO
p1443
sg33
VJJ
p1444
sg35
I20
ssg10
I140
sg36
g4
sg37
(dp1445
sg39
(dp1446
sg41
I821
sg42
g21
sg43
g21
sg44
I140
sg45
Vnational
p1447
sg47
I140
sg48
I829
sbag0
(g23
g2
Ntp1448
Rp1449
(dp1450
g27
(dp1451
g29
Vcohesion
p1452
sg31
VO
p1453
sg33
VNN
p1454
sg35
I21
ssg10
I141
sg36
g4
sg37
(dp1455
sg39
(dp1456
sg41
I830
sg42
g21
sg43
g21
sg44
I141
sg45
Vcohesion
p1457
sg47
I141
sg48
I838
sbag0
(g23
g2
Ntp1458
Rp1459
(dp1460
g27
(dp1461
g29
V.
p1462
sg31
VO
p1463
sg33
V.
p1464
sg35
I22
ssg10
I142
sg36
g4
sg37
(dp1465
sg39
(dp1466
sg41
I838
sg42
g21
sg43
g21
sg44
I142
sg45
V.
p1467
sg47
I142
sg48
I839
sbag0
(g23
g2
Ntp1468
Rp1469
(dp1470
g27
(dp1471
g29
VImmigration
p1472
sg31
VO
p1473
sg33
VNNP
p1474
sg35
I1
ssg10
I143
sg36
g4
sg37
(dp1475
sg39
(dp1476
sg41
I842
sg42
g21
sg43
g21
sg44
I143
sg45
VImmigration
p1477
sg47
I143
sg48
I853
sbag0
(g23
g2
Ntp1478
Rp1479
(dp1480
g27
(dp1481
g29
Vbe
p1482
sg31
VO
p1483
sg33
VVBZ
p1484
sg35
I2
ssg10
I144
sg36
g4
sg37
(dp1485
sg39
(dp1486
sg41
I854
sg42
g21
sg43
g21
sg44
I144
sg45
Vis
p1487
sg47
I144
sg48
I856
sbag0
(g23
g2
Ntp1488
Rp1489
(dp1490
g27
(dp1491
g29
Vone
p1492
sg31
VNUMBER
p1493
sg33
VCD
p1494
sg35
I3
ssg10
I145
sg36
g4
sg37
(dp1495
sg39
(dp1496
sg41
I857
sg42
g21
sg43
g21
sg44
I145
sg45
Vone
p1497
sg47
I145
sg48
I860
sbag0
(g23
g2
Ntp1498
Rp1499
(dp1500
g27
(dp1501
g29
Vof
p1502
sg31
VO
p1503
sg33
VIN
p1504
sg35
I4
ssg10
I146
sg36
g4
sg37
(dp1505
sg39
(dp1506
sg41
I861
sg42
g21
sg43
g21
sg44
I146
sg45
Vof
p1507
sg47
I146
sg48
I863
sbag0
(g23
g2
Ntp1508
Rp1509
(dp1510
g27
(dp1511
g29
Vthe
p1512
sg31
VO
p1513
sg33
VDT
p1514
sg35
I5
ssg10
I147
sg36
g4
sg37
(dp1515
sg39
(dp1516
sg41
I864
sg42
g21
sg43
g21
sg44
I147
sg45
Vthe
p1517
sg47
I147
sg48
I867
sbag0
(g23
g2
Ntp1518
Rp1519
(dp1520
g27
(dp1521
g29
Vmost
p1522
sg31
VO
p1523
sg33
VRBS
p1524
sg35
I6
ssg10
I148
sg36
g4
sg37
(dp1525
sg39
(dp1526
sg41
I868
sg42
g21
sg43
g21
sg44
I148
sg45
Vmost
p1527
sg47
I148
sg48
I872
sbag0
(g23
g2
Ntp1528
Rp1529
(dp1530
g27
(dp1531
g29
Vimportant
p1532
sg31
VO
p1533
sg33
VJJ
p1534
sg35
I7
ssg10
I149
sg36
g4
sg37
(dp1535
sg39
(dp1536
sg41
I873
sg42
g21
sg43
g21
sg44
I149
sg45
Vimportant
p1537
sg47
I149
sg48
I882
sbag0
(g23
g2
Ntp1538
Rp1539
(dp1540
g27
(dp1541
g29
Vissue
p1542
sg31
VO
p1543
sg33
VNNS
p1544
sg35
I8
ssg10
I150
sg36
g4
sg37
(dp1545
sg39
(dp1546
sg41
I883
sg42
g21
sg43
g21
sg44
I150
sg45
Vissues
p1547
sg47
I150
sg48
I889
sbag0
(g23
g2
Ntp1548
Rp1549
(dp1550
g27
(dp1551
g29
Vface
p1552
sg31
VO
p1553
sg33
VVBG
p1554
sg35
I9
ssg10
I151
sg36
g4
sg37
(dp1555
sg39
(dp1556
sg41
I890
sg42
g21
sg43
g21
sg44
I151
sg45
Vfacing
p1557
sg47
I151
sg48
I896
sbag0
(g23
g2
Ntp1558
Rp1559
(dp1560
g27
(dp1561
g29
Va
p1562
sg31
VO
p1563
sg33
VDT
p1564
sg35
I10
ssg10
I152
sg36
g4
sg37
(dp1565
sg39
(dp1566
sg41
I891
sg42
g21
sg43
g21
sg44
I152
sg45
Va
p1567
sg47
I152
sg48
I892
sbag0
(g23
g2
Ntp1568
Rp1569
(dp1570
g27
(dp1571
g29
Vnation
p1572
sg31
VO
p1573
sg33
VNN
p1574
sg35
I11
ssg10
I153
sg36
g4
sg37
(dp1575
sg39
(dp1576
sg41
I899
sg42
g21
sg43
g21
sg44
I153
sg45
Vnation
p1577
sg47
I153
sg48
I905
sbag0
(g23
g2
Ntp1578
Rp1579
(dp1580
g27
(dp1581
g29
V.
p1582
sg31
VO
p1583
sg33
V.
p1584
sg35
I12
ssg10
I154
sg36
g4
sg37
(dp1585
sg39
(dp1586
sg41
I905
sg42
g21
sg43
g21
sg44
I154
sg45
V.
p1587
sg47
I154
sg48
I906
sbag0
(g23
g2
Ntp1588
Rp1589
(dp1590
g27
(dp1591
g29
Vthe
p1592
sg31
VO
p1593
sg33
VDT
p1594
sg35
I1
ssg10
I155
sg36
g4
sg37
(dp1595
sg39
(dp1596
sg41
I907
sg42
g21
sg43
g21
sg44
I155
sg45
VThe
p1597
sg47
I155
sg48
I910
sbag0
(g23
g2
Ntp1598
Rp1599
(dp1600
g27
(dp1601
g29
Vnotion
p1602
sg31
VO
p1603
sg33
VNN
p1604
sg35
I2
ssg10
I156
sg36
g4
sg37
(dp1605
sg39
(dp1606
sg41
I911
sg42
g21
sg43
g21
sg44
I156
sg45
Vnotion
p1607
sg47
I156
sg48
I917
sbag0
(g23
g2
Ntp1608
Rp1609
(dp1610
g27
(dp1611
g29
Vthat
p1612
sg31
VO
p1613
sg33
VIN
p1614
sg35
I3
ssg10
I157
sg36
g4
sg37
(dp1615
sg39
(dp1616
sg41
I918
sg42
g21
sg43
g21
sg44
I157
sg45
Vthat
p1617
sg47
I157
sg48
I922
sbag0
(g23
g2
Ntp1618
Rp1619
(dp1620
g27
(dp1621
g29
Vit
p1622
sg31
VO
p1623
sg33
VPRP
p1624
sg35
I4
ssg10
I158
sg36
g4
sg37
(dp1625
sg39
(dp1626
sg41
I923
sg42
g21
sg43
g21
sg44
I158
sg45
Vit
p1627
sg47
I158
sg48
I925
sbag0
(g23
g2
Ntp1628
Rp1629
(dp1630
g27
(dp1631
g29
Vbe
p1632
sg31
VO
p1633
sg33
VVBZ
p1634
sg35
I5
ssg10
I159
sg36
g4
sg37
(dp1635
sg39
(dp1636
sg41
I926
sg42
g21
sg43
g21
sg44
I159
sg45
Vis
p1637
sg47
I159
sg48
I928
sbag0
(g23
g2
Ntp1638
Rp1639
(dp1640
g27
(dp1641
g29
Vtoo
p1642
sg31
VO
p1643
sg33
VRB
p1644
sg35
I6
ssg10
I160
sg36
g4
sg37
(dp1645
sg39
(dp1646
sg41
I929
sg42
g21
sg43
g21
sg44
I160
sg45
Vtoo
p1647
sg47
I160
sg48
I932
sbag0
(g23
g2
Ntp1648
Rp1649
(dp1650
g27
(dp1651
g29
Vcontentious
p1652
sg31
VO
p1653
sg33
VJJ
p1654
sg35
I7
ssg10
I161
sg36
g4
sg37
(dp1655
sg39
(dp1656
sg41
I933
sg42
g21
sg43
g21
sg44
I161
sg45
Vcontentious
p1657
sg47
I161
sg48
I944
sbag0
(g23
g2
Ntp1658
Rp1659
(dp1660
g27
(dp1661
g29
Vto
p1662
sg31
VO
p1663
sg33
VTO
p1664
sg35
I8
ssg10
I162
sg36
g4
sg37
(dp1665
sg39
(dp1666
sg41
I945
sg42
g21
sg43
g21
sg44
I162
sg45
Vto
p1667
sg47
I162
sg48
I947
sbag0
(g23
g2
Ntp1668
Rp1669
(dp1670
g27
(dp1671
g29
Vbe
p1672
sg31
VO
p1673
sg33
VVB
p1674
sg35
I9
ssg10
I163
sg36
g4
sg37
(dp1675
sg39
(dp1676
sg41
I948
sg42
g21
sg43
g21
sg44
I163
sg45
Vbe
p1677
sg47
I163
sg48
I950
sbag0
(g23
g2
Ntp1678
Rp1679
(dp1680
g27
(dp1681
g29
Vpublicly
p1682
sg31
VO
p1683
sg33
VRB
p1684
sg35
I10
ssg10
I164
sg36
g4
sg37
(dp1685
sg39
(dp1686
sg41
I951
sg42
g21
sg43
g21
sg44
I164
sg45
Vpublicly
p1687
sg47
I164
sg48
I959
sbag0
(g23
g2
Ntp1688
Rp1689
(dp1690
g27
(dp1691
g29
Vdebate
p1692
sg31
VO
p1693
sg33
VVBN
p1694
sg35
I11
ssg10
I165
sg36
g4
sg37
(dp1695
sg39
(dp1696
sg41
I960
sg42
g21
sg43
g21
sg44
I165
sg45
Vdebated
p1697
sg47
I165
sg48
I967
sbag0
(g23
g2
Ntp1698
Rp1699
(dp1700
g27
(dp1701
g29
Vmake
p1702
sg31
VO
p1703
sg33
VVBZ
p1704
sg35
I12
ssg10
I166
sg36
g4
sg37
(dp1705
sg39
(dp1706
sg41
I968
sg42
g21
sg43
g21
sg44
I166
sg45
Vmakes
p1707
sg47
I166
sg48
I973
sbag0
(g23
g2
Ntp1708
Rp1709
(dp1710
g27
(dp1711
g29
Va
p1712
sg31
VO
p1713
sg33
VDT
p1714
sg35
I13
ssg10
I167
sg36
g4
sg37
(dp1715
sg39
(dp1716
sg41
I969
sg42
g21
sg43
g21
sg44
I167
sg45
Va
p1717
sg47
I167
sg48
I970
sbag0
(g23
g2
Ntp1718
Rp1719
(dp1720
g27
(dp1721
g29
Vmockery
p1722
sg31
VO
p1723
sg33
VNN
p1724
sg35
I14
ssg10
I168
sg36
g4
sg37
(dp1725
sg39
(dp1726
sg41
I976
sg42
g21
sg43
g21
sg44
I168
sg45
Vmockery
p1727
sg47
I168
sg48
I983
sbag0
(g23
g2
Ntp1728
Rp1729
(dp1730
g27
(dp1731
g29
Vof
p1732
sg31
VO
p1733
sg33
VIN
p1734
sg35
I15
ssg10
I169
sg36
g4
sg37
(dp1735
sg39
(dp1736
sg41
I984
sg42
g21
sg43
g21
sg44
I169
sg45
Vof
p1737
sg47
I169
sg48
I986
sbag0
(g23
g2
Ntp1738
Rp1739
(dp1740
g27
(dp1741
g29
Vdemocracy
p1742
sg31
VO
p1743
sg33
VNN
p1744
sg35
I16
ssg10
I170
sg36
g4
sg37
(dp1745
sg39
(dp1746
sg41
I987
sg42
g21
sg43
g21
sg44
I170
sg45
Vdemocracy
p1747
sg47
I170
sg48
I996
sbag0
(g23
g2
Ntp1748
Rp1749
(dp1750
g27
(dp1751
g29
V.
p1752
sg31
VO
p1753
sg33
V.
p1754
sg35
I17
ssg10
I171
sg36
g4
sg37
(dp1755
sg39
(dp1756
sg41
I996
sg42
g21
sg43
g21
sg44
I171
sg45
V.
p1757
sg47
I171
sg48
I997
sbag0
(g23
g2
Ntp1758
Rp1759
(dp1760
g27
(dp1761
g29
Vmulticulturalism
p1762
sg31
VO
p1763
sg33
VNN
p1764
sg35
I1
ssg10
I172
sg36
g4
sg37
(dp1765
sg39
(dp1766
sg41
I1000
sg42
g21
sg43
g21
sg44
I172
sg45
VMulticulturalism
p1767
sg47
I172
sg48
I1016
sbag0
(g23
g2
Ntp1768
Rp1769
(dp1770
g27
(dp1771
g29
Vtend
p1772
sg31
VO
p1773
sg33
VVBZ
p1774
sg35
I2
ssg10
I173
sg36
g4
sg37
(dp1775
sg39
(dp1776
sg41
I1017
sg42
g21
sg43
g21
sg44
I173
sg45
Vtends
p1777
sg47
I173
sg48
I1022
sbag0
(g23
g2
Ntp1778
Rp1779
(dp1780
g27
(dp1781
g29
Vto
p1782
sg31
VO
p1783
sg33
VTO
p1784
sg35
I3
ssg10
I174
sg36
g4
sg37
(dp1785
sg39
(dp1786
sg41
I1023
sg42
g21
sg43
g21
sg44
I174
sg45
Vto
p1787
sg47
I174
sg48
I1025
sbag0
(g23
g2
Ntp1788
Rp1789
(dp1790
g27
(dp1791
g29
Vemphasize
p1792
sg31
VO
p1793
sg33
VVB
p1794
sg35
I4
ssg10
I175
sg36
g4
sg37
(dp1795
sg39
(dp1796
sg41
I1026
sg42
g21
sg43
g21
sg44
I175
sg45
Vemphasize
p1797
sg47
I175
sg48
I1035
sbag0
(g23
g2
Ntp1798
Rp1799
(dp1800
g27
(dp1801
g29
Vthe
p1802
sg31
VO
p1803
sg33
VDT
p1804
sg35
I5
ssg10
I176
sg36
g4
sg37
(dp1805
sg39
(dp1806
sg41
I1036
sg42
g21
sg43
g21
sg44
I176
sg45
Vthe
p1807
sg47
I176
sg48
I1039
sbag0
(g23
g2
Ntp1808
Rp1809
(dp1810
g27
(dp1811
g29
Vrights
p1812
sg31
VO
p1813
sg33
VNNS
p1814
sg35
I6
ssg10
I177
sg36
g4
sg37
(dp1815
sg39
(dp1816
sg41
I1040
sg42
g21
sg43
g21
sg44
I177
sg45
Vrights
p1817
sg47
I177
sg48
I1046
sbag0
(g23
g2
Ntp1818
Rp1819
(dp1820
g27
(dp1821
g29
Vof
p1822
sg31
VO
p1823
sg33
VIN
p1824
sg35
I7
ssg10
I178
sg36
g4
sg37
(dp1825
sg39
(dp1826
sg41
I1047
sg42
g21
sg43
g21
sg44
I178
sg45
Vof
p1827
sg47
I178
sg48
I1049
sbag0
(g23
g2
Ntp1828
Rp1829
(dp1830
g27
(dp1831
g29
Vethnic
p1832
sg31
VO
p1833
sg33
VJJ
p1834
sg35
I8
ssg10
I179
sg36
g4
sg37
(dp1835
sg39
(dp1836
sg41
I1050
sg42
g21
sg43
g21
sg44
I179
sg45
Vethnic
p1837
sg47
I179
sg48
I1056
sbag0
(g23
g2
Ntp1838
Rp1839
(dp1840
g27
(dp1841
g29
Vminority
p1842
sg31
VO
p1843
sg33
VNNS
p1844
sg35
I9
ssg10
I180
sg36
g4
sg37
(dp1845
sg39
(dp1846
sg41
I1057
sg42
g21
sg43
g21
sg44
I180
sg45
Vminorities
p1847
sg47
I180
sg48
I1067
sbag0
(g23
g2
Ntp1848
Rp1849
(dp1850
g27
(dp1851
g29
Vat
p1852
sg31
VO
p1853
sg33
VIN
p1854
sg35
I10
ssg10
I181
sg36
g4
sg37
(dp1855
sg39
(dp1856
sg41
I1068
sg42
g21
sg43
g21
sg44
I181
sg45
Vat
p1857
sg47
I181
sg48
I1070
sbag0
(g23
g2
Ntp1858
Rp1859
(dp1860
g27
(dp1861
g29
Vthe
p1862
sg31
VO
p1863
sg33
VDT
p1864
sg35
I11
ssg10
I182
sg36
g4
sg37
(dp1865
sg39
(dp1866
sg41
I1071
sg42
g21
sg43
g21
sg44
I182
sg45
Vthe
p1867
sg47
I182
sg48
I1074
sbag0
(g23
g2
Ntp1868
Rp1869
(dp1870
g27
(dp1871
g29
Vexpense
p1872
sg31
VO
p1873
sg33
VNN
p1874
sg35
I12
ssg10
I183
sg36
g4
sg37
(dp1875
sg39
(dp1876
sg41
I1075
sg42
g21
sg43
g21
sg44
I183
sg45
Vexpense
p1877
sg47
I183
sg48
I1082
sbag0
(g23
g2
Ntp1878
Rp1879
(dp1880
g27
(dp1881
g29
Vof
p1882
sg31
VO
p1883
sg33
VIN
p1884
sg35
I13
ssg10
I184
sg36
g4
sg37
(dp1885
sg39
(dp1886
sg41
I1083
sg42
g21
sg43
g21
sg44
I184
sg45
Vof
p1887
sg47
I184
sg48
I1085
sbag0
(g23
g2
Ntp1888
Rp1889
(dp1890
g27
(dp1891
g29
Vthe
p1892
sg31
VO
p1893
sg33
VDT
p1894
sg35
I14
ssg10
I185
sg36
g4
sg37
(dp1895
sg39
(dp1896
sg41
I1086
sg42
g21
sg43
g21
sg44
I185
sg45
Vthe
p1897
sg47
I185
sg48
I1089
sbag0
(g23
g2
Ntp1898
Rp1899
(dp1900
g27
(dp1901
g29
Vmajority
p1902
sg31
VO
p1903
sg33
VNN
p1904
sg35
I15
ssg10
I186
sg36
g4
sg37
(dp1905
sg39
(dp1906
sg41
I1090
sg42
g21
sg43
g21
sg44
I186
sg45
Vmajority
p1907
sg47
I186
sg48
I1098
sbag0
(g23
g2
Ntp1908
Rp1909
(dp1910
g27
(dp1911
g29
Vof
p1912
sg31
VO
p1913
sg33
VIN
p1914
sg35
I16
ssg10
I187
sg36
g4
sg37
(dp1915
sg39
(dp1916
sg41
I1099
sg42
g21
sg43
g21
sg44
I187
sg45
Vof
p1917
sg47
I187
sg48
I1101
sbag0
(g23
g2
Ntp1918
Rp1919
(dp1920
g27
(dp1921
g29
VAustralians
p1922
sg31
VMISC
p1923
sg33
VNNPS
p1924
sg35
I17
ssg10
I188
sg36
g4
sg37
(dp1925
sg39
(dp1926
sg41
I1102
sg42
g21
sg43
g21
sg44
I188
sg45
VAustralians
p1927
sg47
I188
sg48
I1113
sbag0
(g23
g2
Ntp1928
Rp1929
(dp1930
g27
(dp1931
g29
V,
p1932
sg31
VO
p1933
sg33
V,
p1934
sg35
I18
ssg10
I189
sg36
g4
sg37
(dp1935
sg39
(dp1936
sg41
I1113
sg42
g21
sg43
g21
sg44
I189
sg45
V,
p1937
sg47
I189
sg48
I1114
sbag0
(g23
g2
Ntp1938
Rp1939
(dp1940
g27
(dp1941
g29
Vthus
p1942
sg31
VO
p1943
sg33
VRB
p1944
sg35
I19
ssg10
I190
sg36
g4
sg37
(dp1945
sg39
(dp1946
sg41
I1115
sg42
g21
sg43
g21
sg44
I190
sg45
Vthus
p1947
sg47
I190
sg48
I1119
sbag0
(g23
g2
Ntp1948
Rp1949
(dp1950
g27
(dp1951
g29
Vunnecessarily
p1952
sg31
VO
p1953
sg33
VRB
p1954
sg35
I20
ssg10
I191
sg36
g4
sg37
(dp1955
sg39
(dp1956
sg41
I1120
sg42
g21
sg43
g21
sg44
I191
sg45
Vunnecessarily
p1957
sg47
I191
sg48
I1133
sbag0
(g23
g2
Ntp1958
Rp1959
(dp1960
g27
(dp1961
g29
Vencouraging
p1962
sg31
VO
p1963
sg33
VJJ
p1964
sg35
I21
ssg10
I192
sg36
g4
sg37
(dp1965
sg39
(dp1966
sg41
I1134
sg42
g21
sg43
g21
sg44
I192
sg45
Vencouraging
p1967
sg47
I192
sg48
I1145
sbag0
(g23
g2
Ntp1968
Rp1969
(dp1970
g27
(dp1971
g29
Vdivision
p1972
sg31
VO
p1973
sg33
VNN
p1974
sg35
I22
ssg10
I193
sg36
g4
sg37
(dp1975
sg39
(dp1976
sg41
I1146
sg42
g21
sg43
g21
sg44
I193
sg45
Vdivision
p1977
sg47
I193
sg48
I1154
sbag0
(g23
g2
Ntp1978
Rp1979
(dp1980
g27
(dp1981
g29
Vand
p1982
sg31
VO
p1983
sg33
VCC
p1984
sg35
I23
ssg10
I194
sg36
g4
sg37
(dp1985
sg39
(dp1986
sg41
I1155
sg42
g21
sg43
g21
sg44
I194
sg45
Vand
p1987
sg47
I194
sg48
I1158
sbag0
(g23
g2
Ntp1988
Rp1989
(dp1990
g27
(dp1991
g29
Vthreaten
p1992
sg31
VO
p1993
sg33
VVBG
p1994
sg35
I24
ssg10
I195
sg36
g4
sg37
(dp1995
sg39
(dp1996
sg41
I1159
sg42
g21
sg43
g21
sg44
I195
sg45
Vthreatening
p1997
sg47
I195
sg48
I1170
sbag0
(g23
g2
Ntp1998
Rp1999
(dp2000
g27
(dp2001
g29
Vsocial
p2002
sg31
VO
p2003
sg33
VJJ
p2004
sg35
I25
ssg10
I196
sg36
g4
sg37
(dp2005
sg39
(dp2006
sg41
I1171
sg42
g21
sg43
g21
sg44
I196
sg45
Vsocial
p2007
sg47
I196
sg48
I1177
sbag0
(g23
g2
Ntp2008
Rp2009
(dp2010
g27
(dp2011
g29
Vcohesion
p2012
sg31
VO
p2013
sg33
VNN
p2014
sg35
I26
ssg10
I197
sg36
g4
sg37
(dp2015
sg39
(dp2016
sg41
I1178
sg42
g21
sg43
g21
sg44
I197
sg45
Vcohesion
p2017
sg47
I197
sg48
I1186
sbag0
(g23
g2
Ntp2018
Rp2019
(dp2020
g27
(dp2021
g29
V.
p2022
sg31
VO
p2023
sg33
V.
p2024
sg35
I27
ssg10
I198
sg36
g4
sg37
(dp2025
sg39
(dp2026
sg41
I1186
sg42
g21
sg43
g21
sg44
I198
sg45
V.
p2027
sg47
I198
sg48
I1187
sbag0
(g23
g2
Ntp2028
Rp2029
(dp2030
g27
(dp2031
g29
Vthe
p2032
sg31
VO
p2033
sg33
VDT
p2034
sg35
I1
ssg10
I199
sg36
g4
sg37
(dp2035
sg39
(dp2036
sg41
I1190
sg42
g21
sg43
g21
sg44
I199
sg45
VThe
p2037
sg47
I199
sg48
I1193
sbag0
(g23
g2
Ntp2038
Rp2039
(dp2040
g27
(dp2041
g29
Vpolicy
p2042
sg31
VO
p2043
sg33
VNN
p2044
sg35
I2
ssg10
I200
sg36
g4
sg37
(dp2045
sg39
(dp2046
sg41
I1194
sg42
g21
sg43
g21
sg44
I200
sg45
Vpolicy
p2047
sg47
I200
sg48
I1200
sbag0
(g23
g2
Ntp2048
Rp2049
(dp2050
g27
(dp2051
g29
Vof
p2052
sg31
VO
p2053
sg33
VIN
p2054
sg35
I3
ssg10
I201
sg36
g4
sg37
(dp2055
sg39
(dp2056
sg41
I1201
sg42
g21
sg43
g21
sg44
I201
sg45
Vof
p2057
sg47
I201
sg48
I1203
sbag0
(g23
g2
Ntp2058
Rp2059
(dp2060
g27
(dp2061
g29
Vmulticulturalism
p2062
sg31
VO
p2063
sg33
VNN
p2064
sg35
I4
ssg10
I202
sg36
g4
sg37
(dp2065
sg39
(dp2066
sg41
I1204
sg42
g21
sg43
g21
sg44
I202
sg45
Vmulticulturalism
p2067
sg47
I202
sg48
I1220
sbag0
(g23
g2
Ntp2068
Rp2069
(dp2070
g27
(dp2071
g29
Vhave
p2072
sg31
VO
p2073
sg33
VVBZ
p2074
sg35
I5
ssg10
I203
sg36
g4
sg37
(dp2075
sg39
(dp2076
sg41
I1221
sg42
g21
sg43
g21
sg44
I203
sg45
Vhas
p2077
sg47
I203
sg48
I1224
sbag0
(g23
g2
Ntp2078
Rp2079
(dp2080
g27
(dp2081
g29
Vtend
p2082
sg31
VO
p2083
sg33
VVBN
p2084
sg35
I6
ssg10
I204
sg36
g4
sg37
(dp2085
sg39
(dp2086
sg41
I1225
sg42
g21
sg43
g21
sg44
I204
sg45
Vtended
p2087
sg47
I204
sg48
I1231
sbag0
(g23
g2
Ntp2088
Rp2089
(dp2090
g27
(dp2091
g29
Vto
p2092
sg31
VO
p2093
sg33
VTO
p2094
sg35
I7
ssg10
I205
sg36
g4
sg37
(dp2095
sg39
(dp2096
sg41
I1232
sg42
g21
sg43
g21
sg44
I205
sg45
Vto
p2097
sg47
I205
sg48
I1234
sbag0
(g23
g2
Ntp2098
Rp2099
(dp2100
g27
(dp2101
g29
Vbe
p2102
sg31
VO
p2103
sg33
VVB
p2104
sg35
I8
ssg10
I206
sg36
g4
sg37
(dp2105
sg39
(dp2106
sg41
I1235
sg42
g21
sg43
g21
sg44
I206
sg45
Vbe
p2107
sg47
I206
sg48
I1237
sbag0
(g23
g2
Ntp2108
Rp2109
(dp2110
g27
(dp2111
g29
Vimplicitly
p2112
sg31
VO
p2113
sg33
VRB
p2114
sg35
I9
ssg10
I207
sg36
g4
sg37
(dp2115
sg39
(dp2116
sg41
I1238
sg42
g21
sg43
g21
sg44
I207
sg45
Vimplicitly
p2117
sg47
I207
sg48
I1248
sbag0
(g23
g2
Ntp2118
Rp2119
(dp2120
g27
(dp2121
g29
Vanti-british
p2122
sg31
VO
p2123
sg33
VJJ
p2124
sg35
I10
ssg10
I208
sg36
g4
sg37
(dp2125
sg39
(dp2126
sg41
I1249
sg42
g21
sg43
g21
sg44
I208
sg45
Vanti-British
p2127
sg47
I208
sg48
I1261
sbag0
(g23
g2
Ntp2128
Rp2129
(dp2130
g27
(dp2131
g29
V,
p2132
sg31
VO
p2133
sg33
V,
p2134
sg35
I11
ssg10
I209
sg36
g4
sg37
(dp2135
sg39
(dp2136
sg41
I1261
sg42
g21
sg43
g21
sg44
I209
sg45
V,
p2137
sg47
I209
sg48
I1262
sbag0
(g23
g2
Ntp2138
Rp2139
(dp2140
g27
(dp2141
g29
Vdespite
p2142
sg31
VO
p2143
sg33
VIN
p2144
sg35
I12
ssg10
I210
sg36
g4
sg37
(dp2145
sg39
(dp2146
sg41
I1263
sg42
g21
sg43
g21
sg44
I210
sg45
Vdespite
p2147
sg47
I210
sg48
I1270
sbag0
(g23
g2
Ntp2148
Rp2149
(dp2150
g27
(dp2151
g29
VAustralia
p2152
sg31
VLOCATION
p2153
sg33
VNNP
p2154
sg35
I13
ssg10
I211
sg36
g4
sg37
(dp2155
sg39
(dp2156
sg41
I1271
sg42
g21
sg43
g21
sg44
I211
sg45
VAustralia
p2157
sg47
I211
sg48
I1280
sbag0
(g23
g2
Ntp2158
Rp2159
(dp2160
g27
(dp2161
g29
V's
p2162
sg31
VO
p2163
sg33
VPOS
p2164
sg35
I14
ssg10
I212
sg36
g4
sg37
(dp2165
sg39
(dp2166
sg41
I1280
sg42
g21
sg43
g21
sg44
I212
sg45
V's
p2167
sg47
I212
sg48
I1282
sbag0
(g23
g2
Ntp2168
Rp2169
(dp2170
g27
(dp2171
g29
Vbritish
p2172
sg31
VMISC
p2173
sg33
VJJ
p2174
sg35
I15
ssg10
I213
sg36
g4
sg37
(dp2175
sg39
(dp2176
sg41
I1283
sg42
g21
sg43
g21
sg44
I213
sg45
VBritish
p2177
sg47
I213
sg48
I1290
sbag0
(g23
g2
Ntp2178
Rp2179
(dp2180
g27
(dp2181
g29
Vcolonial
p2182
sg31
VO
p2183
sg33
VNN
p2184
sg35
I16
ssg10
I214
sg36
g4
sg37
(dp2185
sg39
(dp2186
sg41
I1291
sg42
g21
sg43
g21
sg44
I214
sg45
Vcolonial
p2187
sg47
I214
sg48
I1299
sbag0
(g23
g2
Ntp2188
Rp2189
(dp2190
g27
(dp2191
g29
Vheritage
p2192
sg31
VO
p2193
sg33
VNN
p2194
sg35
I17
ssg10
I215
sg36
g4
sg37
(dp2195
sg39
(dp2196
sg41
I1300
sg42
g21
sg43
g21
sg44
I215
sg45
Vheritage
p2197
sg47
I215
sg48
I1308
sbag0
(g23
g2
Ntp2198
Rp2199
(dp2200
g27
(dp2201
g29
Vand
p2202
sg31
VO
p2203
sg33
VCC
p2204
sg35
I18
ssg10
I216
sg36
g4
sg37
(dp2205
sg39
(dp2206
sg41
I1309
sg42
g21
sg43
g21
sg44
I216
sg45
Vand
p2207
sg47
I216
sg48
I1312
sbag0
(g23
g2
Ntp2208
Rp2209
(dp2210
g27
(dp2211
g29
Vthe
p2212
sg31
VO
p2213
sg33
VDT
p2214
sg35
I19
ssg10
I217
sg36
g4
sg37
(dp2215
sg39
(dp2216
sg41
I1313
sg42
g21
sg43
g21
sg44
I217
sg45
Vthe
p2217
sg47
I217
sg48
I1316
sbag0
(g23
g2
Ntp2218
Rp2219
(dp2220
g27
(dp2221
g29
Vlarge
p2222
sg31
VO
p2223
sg33
VJJ
p2224
sg35
I20
ssg10
I218
sg36
g4
sg37
(dp2225
sg39
(dp2226
sg41
I1317
sg42
g21
sg43
g21
sg44
I218
sg45
Vlarge
p2227
sg47
I218
sg48
I1322
sbag0
(g23
g2
Ntp2228
Rp2229
(dp2230
g27
(dp2231
g29
Vnumber
p2232
sg31
VO
p2233
sg33
VNN
p2234
sg35
I21
ssg10
I219
sg36
g4
sg37
(dp2235
sg39
(dp2236
sg41
I1323
sg42
g21
sg43
g21
sg44
I219
sg45
Vnumber
p2237
sg47
I219
sg48
I1329
sbag0
(g23
g2
Ntp2238
Rp2239
(dp2240
g27
(dp2241
g29
Vof
p2242
sg31
VO
p2243
sg33
VIN
p2244
sg35
I22
ssg10
I220
sg36
g4
sg37
(dp2245
sg39
(dp2246
sg41
I1330
sg42
g21
sg43
g21
sg44
I220
sg45
Vof
p2247
sg47
I220
sg48
I1332
sbag0
(g23
g2
Ntp2248
Rp2249
(dp2250
g27
(dp2251
g29
Vpost-world
p2252
sg31
VMISC
p2253
sg33
VJJ
p2254
sg35
I23
ssg10
I221
sg36
g4
sg37
(dp2255
sg39
(dp2256
sg41
I1333
sg42
g21
sg43
g21
sg44
I221
sg45
Vpost-World
p2257
sg47
I221
sg48
I1343
sbag0
(g23
g2
Ntp2258
Rp2259
(dp2260
g27
(dp2261
g29
Vwar
p2262
sg31
VMISC
p2263
sg33
VNN
p2264
sg35
I24
ssg10
I222
sg36
g4
sg37
(dp2265
sg39
(dp2266
sg41
I1344
sg42
g21
sg43
g21
sg44
I222
sg45
VWar
p2267
sg47
I222
sg48
I1347
sbag0
(g23
g2
Ntp2268
Rp2269
(dp2270
g27
(dp2271
g29
Vii
p2272
sg31
VNUMBER
p2273
sg33
VCD
p2274
sg35
I25
ssg10
I223
sg36
g4
sg37
(dp2275
sg39
(dp2276
sg41
I1348
sg42
g21
sg43
g21
sg44
I223
sg45
VII
p2277
sg47
I223
sg48
I1350
sbag0
(g23
g2
Ntp2278
Rp2279
(dp2280
g27
(dp2281
g29
Vbritish
p2282
sg31
VMISC
p2283
sg33
VJJ
p2284
sg35
I26
ssg10
I224
sg36
g4
sg37
(dp2285
sg39
(dp2286
sg41
I1351
sg42
g21
sg43
g21
sg44
I224
sg45
VBritish
p2287
sg47
I224
sg48
I1358
sbag0
(g23
g2
Ntp2288
Rp2289
(dp2290
g27
(dp2291
g29
Vimmigrant
p2292
sg31
VO
p2293
sg33
VNNS
p2294
sg35
I27
ssg10
I225
sg36
g4
sg37
(dp2295
sg39
(dp2296
sg41
I1359
sg42
g21
sg43
g21
sg44
I225
sg45
Vimmigrants
p2297
sg47
I225
sg48
I1369
sbag0
(g23
g2
Ntp2298
Rp2299
(dp2300
g27
(dp2301
g29
Vto
p2302
sg31
VO
p2303
sg33
VTO
p2304
sg35
I28
ssg10
I226
sg36
g4
sg37
(dp2305
sg39
(dp2306
sg41
I1370
sg42
g21
sg43
g21
sg44
I226
sg45
Vto
p2307
sg47
I226
sg48
I1372
sbag0
(g23
g2
Ntp2308
Rp2309
(dp2310
g27
(dp2311
g29
VAustralia
p2312
sg31
VLOCATION
p2313
sg33
VNNP
p2314
sg35
I29
ssg10
I227
sg36
g4
sg37
(dp2315
sg39
(dp2316
sg41
I1373
sg42
g21
sg43
g21
sg44
I227
sg45
VAustralia
p2317
sg47
I227
sg48
I1382
sbag0
(g23
g2
Ntp2318
Rp2319
(dp2320
g27
(dp2321
g29
V.
p2322
sg31
VO
p2323
sg33
V.
p2324
sg35
I30
ssg10
I228
sg36
g4
sg37
(dp2325
sg39
(dp2326
sg41
I1382
sg42
g21
sg43
g21
sg44
I228
sg45
V.
p2327
sg47
I228
sg48
I1383
sbag0
(g23
g2
Ntp2328
Rp2329
(dp2330
g27
(dp2331
g29
Vaustralian
p2332
sg31
VMISC
p2333
sg33
VJJ
p2334
sg35
I1
ssg10
I229
sg36
g4
sg37
(dp2335
sg39
(dp2336
sg41
I1386
sg42
g21
sg43
g21
sg44
I229
sg45
VAustralian
p2337
sg47
I229
sg48
I1396
sbag0
(g23
g2
Ntp2338
Rp2339
(dp2340
g27
(dp2341
g29
Vimmigration
p2342
sg31
VO
p2343
sg33
VNN
p2344
sg35
I2
ssg10
I230
sg36
g4
sg37
(dp2345
sg39
(dp2346
sg41
I1397
sg42
g21
sg43
g21
sg44
I230
sg45
Vimmigration
p2347
sg47
I230
sg48
I1408
sbag0
(g23
g2
Ntp2348
Rp2349
(dp2350
g27
(dp2351
g29
Vpolicy
p2352
sg31
VO
p2353
sg33
VNN
p2354
sg35
I3
ssg10
I231
sg36
g4
sg37
(dp2355
sg39
(dp2356
sg41
I1409
sg42
g21
sg43
g21
sg44
I231
sg45
Vpolicy
p2357
sg47
I231
sg48
I1415
sbag0
(g23
g2
Ntp2358
Rp2359
(dp2360
g27
(dp2361
g29
Vhave
p2362
sg31
VO
p2363
sg33
VVBZ
p2364
sg35
I4
ssg10
I232
sg36
g4
sg37
(dp2365
sg39
(dp2366
sg41
I1416
sg42
g21
sg43
g21
sg44
I232
sg45
Vhas
p2367
sg47
I232
sg48
I1419
sbag0
(g23
g2
Ntp2368
Rp2369
(dp2370
g27
(dp2371
g29
Vmove
p2372
sg31
VO
p2373
sg33
VVBN
p2374
sg35
I5
ssg10
I233
sg36
g4
sg37
(dp2375
sg39
(dp2376
sg41
I1420
sg42
g21
sg43
g21
sg44
I233
sg45
Vmoved
p2377
sg47
I233
sg48
I1425
sbag0
(g23
g2
Ntp2378
Rp2379
(dp2380
g27
(dp2381
g29
Vfrom
p2382
sg31
VO
p2383
sg33
VIN
p2384
sg35
I6
ssg10
I234
sg36
g4
sg37
(dp2385
sg39
(dp2386
sg41
I1426
sg42
g21
sg43
g21
sg44
I234
sg45
Vfrom
p2387
sg47
I234
sg48
I1430
sbag0
(g23
g2
Ntp2388
Rp2389
(dp2390
g27
(dp2391
g29
Vone
p2392
sg31
VNUMBER
p2393
sg33
VCD
p2394
sg35
I7
ssg10
I235
sg36
g4
sg37
(dp2395
sg39
(dp2396
sg41
I1431
sg42
g21
sg43
g21
sg44
I235
sg45
Vone
p2397
sg47
I235
sg48
I1434
sbag0
(g23
g2
Ntp2398
Rp2399
(dp2400
g27
(dp2401
g29
Vextreme
p2402
sg31
VO
p2403
sg33
VNN
p2404
sg35
I8
ssg10
I236
sg36
g4
sg37
(dp2405
sg39
(dp2406
sg41
I1435
sg42
g21
sg43
g21
sg44
I236
sg45
Vextreme
p2407
sg47
I236
sg48
I1442
sbag0
(g23
g2
Ntp2408
Rp2409
(dp2410
g27
(dp2411
g29
Vto
p2412
sg31
VO
p2413
sg33
VTO
p2414
sg35
I9
ssg10
I237
sg36
g4
sg37
(dp2415
sg39
(dp2416
sg41
I1443
sg42
g21
sg43
g21
sg44
I237
sg45
Vto
p2417
sg47
I237
sg48
I1445
sbag0
(g23
g2
Ntp2418
Rp2419
(dp2420
g27
(dp2421
g29
Vanother
p2422
sg31
VO
p2423
sg33
VDT
p2424
sg35
I10
ssg10
I238
sg36
g4
sg37
(dp2425
sg39
(dp2426
sg41
I1446
sg42
g21
sg43
g21
sg44
I238
sg45
Vanother
p2427
sg47
I238
sg48
I1453
sbag0
(g23
g2
Ntp2428
Rp2429
(dp2430
g27
(dp2431
g29
V,
p2432
sg31
VO
p2433
sg33
V,
p2434
sg35
I11
ssg10
I239
sg36
g4
sg37
(dp2435
sg39
(dp2436
sg41
I1453
sg42
g21
sg43
g21
sg44
I239
sg45
V,
p2437
sg47
I239
sg48
I1454
sbag0
(g23
g2
Ntp2438
Rp2439
(dp2440
g27
(dp2441
g29
Vfrom
p2442
sg31
VO
p2443
sg33
VIN
p2444
sg35
I12
ssg10
I240
sg36
g4
sg37
(dp2445
sg39
(dp2446
sg41
I1455
sg42
g21
sg43
g21
sg44
I240
sg45
Vfrom
p2447
sg47
I240
sg48
I1459
sbag0
(g23
g2
Ntp2448
Rp2449
(dp2450
g27
(dp2451
g29
Va
p2452
sg31
VO
p2453
sg33
VDT
p2454
sg35
I13
ssg10
I241
sg36
g4
sg37
(dp2455
sg39
(dp2456
sg41
I1460
sg42
g21
sg43
g21
sg44
I241
sg45
Va
p2457
sg47
I241
sg48
I1461
sbag0
(g23
g2
Ntp2458
Rp2459
(dp2460
g27
(dp2461
g29
Vpolicy
p2462
sg31
VO
p2463
sg33
VNN
p2464
sg35
I14
ssg10
I242
sg36
g4
sg37
(dp2465
sg39
(dp2466
sg41
I1462
sg42
g21
sg43
g21
sg44
I242
sg45
Vpolicy
p2467
sg47
I242
sg48
I1468
sbag0
(g23
g2
Ntp2468
Rp2469
(dp2470
g27
(dp2471
g29
Vthat
p2472
sg31
VO
p2473
sg33
VWDT
p2474
sg35
I15
ssg10
I243
sg36
g4
sg37
(dp2475
sg39
(dp2476
sg41
I1469
sg42
g21
sg43
g21
sg44
I243
sg45
Vthat
p2477
sg47
I243
sg48
I1473
sbag0
(g23
g2
Ntp2478
Rp2479
(dp2480
g27
(dp2481
g29
Vseek
p2482
sg31
VO
p2483
sg33
VVBD
p2484
sg35
I16
ssg10
I244
sg36
g4
sg37
(dp2485
sg39
(dp2486
sg41
I1474
sg42
g21
sg43
g21
sg44
I244
sg45
Vsought
p2487
sg47
I244
sg48
I1480
sbag0
(g23
g2
Ntp2488
Rp2489
(dp2490
g27
(dp2491
g29
Vto
p2492
sg31
VO
p2493
sg33
VTO
p2494
sg35
I17
ssg10
I245
sg36
g4
sg37
(dp2495
sg39
(dp2496
sg41
I1481
sg42
g21
sg43
g21
sg44
I245
sg45
Vto
p2497
sg47
I245
sg48
I1483
sbag0
(g23
g2
Ntp2498
Rp2499
(dp2500
g27
(dp2501
g29
Vencourage
p2502
sg31
VO
p2503
sg33
VVB
p2504
sg35
I18
ssg10
I246
sg36
g4
sg37
(dp2505
sg39
(dp2506
sg41
I1484
sg42
g21
sg43
g21
sg44
I246
sg45
Vencourage
p2507
sg47
I246
sg48
I1493
sbag0
(g23
g2
Ntp2508
Rp2509
(dp2510
g27
(dp2511
g29
Veuropean
p2512
sg31
VMISC
p2513
sg33
VJJ
p2514
sg35
I19
ssg10
I247
sg36
g4
sg37
(dp2515
sg39
(dp2516
sg41
I1494
sg42
g21
sg43
g21
sg44
I247
sg45
VEuropean
p2517
sg47
I247
sg48
I1502
sbag0
(g23
g2
Ntp2518
Rp2519
(dp2520
g27
(dp2521
g29
Vimmigration
p2522
sg31
VO
p2523
sg33
VNN
p2524
sg35
I20
ssg10
I248
sg36
g4
sg37
(dp2525
sg39
(dp2526
sg41
I1503
sg42
g21
sg43
g21
sg44
I248
sg45
Vimmigration
p2527
sg47
I248
sg48
I1514
sbag0
(g23
g2
Ntp2528
Rp2529
(dp2530
g27
(dp2531
g29
Vand
p2532
sg31
VO
p2533
sg33
VCC
p2534
sg35
I21
ssg10
I249
sg36
g4
sg37
(dp2535
sg39
(dp2536
sg41
I1515
sg42
g21
sg43
g21
sg44
I249
sg45
Vand
p2537
sg47
I249
sg48
I1518
sbag0
(g23
g2
Ntp2538
Rp2539
(dp2540
g27
(dp2541
g29
Vrestrict
p2542
sg31
VO
p2543
sg33
VVB
p2544
sg35
I22
ssg10
I250
sg36
g4
sg37
(dp2545
sg39
(dp2546
sg41
I1519
sg42
g21
sg43
g21
sg44
I250
sg45
Vrestrict
p2547
sg47
I250
sg48
I1527
sbag0
(g23
g2
Ntp2548
Rp2549
(dp2550
g27
(dp2551
g29
Vasian
p2552
sg31
VMISC
p2553
sg33
VJJ
p2554
sg35
I23
ssg10
I251
sg36
g4
sg37
(dp2555
sg39
(dp2556
sg41
I1528
sg42
g21
sg43
g21
sg44
I251
sg45
VAsian
p2557
sg47
I251
sg48
I1533
sbag0
(g23
g2
Ntp2558
Rp2559
(dp2560
g27
(dp2561
g29
Vimmigration
p2562
sg31
VO
p2563
sg33
VNN
p2564
sg35
I24
ssg10
I252
sg36
g4
sg37
(dp2565
sg39
(dp2566
sg41
I1534
sg42
g21
sg43
g21
sg44
I252
sg45
Vimmigration
p2567
sg47
I252
sg48
I1545
sbag0
(g23
g2
Ntp2568
Rp2569
(dp2570
g27
(dp2571
g29
V-lrb-
p2572
sg31
VO
p2573
sg33
V-LRB-
p2574
sg35
I25
ssg10
I253
sg36
g4
sg37
(dp2575
sg39
(dp2576
sg41
I1546
sg42
g21
sg43
g21
sg44
I253
sg45
V(
p2577
sg47
I253
sg48
I1547
sbag0
(g23
g2
Ntp2578
Rp2579
(dp2580
g27
(dp2581
g29
VWhite
p2582
sg31
VLOCATION
p2583
sg33
VNNP
p2584
sg35
I26
ssg10
I254
sg36
g4
sg37
(dp2585
sg39
(dp2586
sg41
I1547
sg42
g21
sg43
g21
sg44
I254
sg45
VWhite
p2587
sg47
I254
sg48
I1552
sbag0
(g23
g2
Ntp2588
Rp2589
(dp2590
g27
(dp2591
g29
VAustralia
p2592
sg31
VLOCATION
p2593
sg33
VNNP
p2594
sg35
I27
ssg10
I255
sg36
g4
sg37
(dp2595
sg39
(dp2596
sg41
I1553
sg42
g21
sg43
g21
sg44
I255
sg45
VAustralia
p2597
sg47
I255
sg48
I1562
sbag0
(g23
g2
Ntp2598
Rp2599
(dp2600
g27
(dp2601
g29
Vpolicy
p2602
sg31
VO
p2603
sg33
VNN
p2604
sg35
I28
ssg10
I256
sg36
g4
sg37
(dp2605
sg39
(dp2606
sg41
I1563
sg42
g21
sg43
g21
sg44
I256
sg45
Vpolicy
p2607
sg47
I256
sg48
I1569
sbag0
(g23
g2
Ntp2608
Rp2609
(dp2610
g27
(dp2611
g29
V-rrb-
p2612
sg31
VO
p2613
sg33
V-RRB-
p2614
sg35
I29
ssg10
I257
sg36
g4
sg37
(dp2615
sg39
(dp2616
sg41
I1569
sg42
g21
sg43
g21
sg44
I257
sg45
V)
p2617
sg47
I257
sg48
I1570
sbag0
(g23
g2
Ntp2618
Rp2619
(dp2620
g27
(dp2621
g29
V,
p2622
sg31
VO
p2623
sg33
V,
p2624
sg35
I30
ssg10
I258
sg36
g4
sg37
(dp2625
sg39
(dp2626
sg41
I1570
sg42
g21
sg43
g21
sg44
I258
sg45
V,
p2627
sg47
I258
sg48
I1571
sbag0
(g23
g2
Ntp2628
Rp2629
(dp2630
g27
(dp2631
g29
Vto
p2632
sg31
VO
p2633
sg33
VTO
p2634
sg35
I31
ssg10
I259
sg36
g4
sg37
(dp2635
sg39
(dp2636
sg41
I1572
sg42
g21
sg43
g21
sg44
I259
sg45
Vto
p2637
sg47
I259
sg48
I1574
sbag0
(g23
g2
Ntp2638
Rp2639
(dp2640
g27
(dp2641
g29
Va
p2642
sg31
VO
p2643
sg33
VDT
p2644
sg35
I32
ssg10
I260
sg36
g4
sg37
(dp2645
sg39
(dp2646
sg41
I1575
sg42
g21
sg43
g21
sg44
I260
sg45
Va
p2647
sg47
I260
sg48
I1576
sbag0
(g23
g2
Ntp2648
Rp2649
(dp2650
g27
(dp2651
g29
Vpolicy
p2652
sg31
VO
p2653
sg33
VNN
p2654
sg35
I33
ssg10
I261
sg36
g4
sg37
(dp2655
sg39
(dp2656
sg41
I1577
sg42
g21
sg43
g21
sg44
I261
sg45
Vpolicy
p2657
sg47
I261
sg48
I1583
sbag0
(g23
g2
Ntp2658
Rp2659
(dp2660
g27
(dp2661
g29
Vthat
p2662
sg31
VO
p2663
sg33
VWDT
p2664
sg35
I34
ssg10
I262
sg36
g4
sg37
(dp2665
sg39
(dp2666
sg41
I1584
sg42
g21
sg43
g21
sg44
I262
sg45
Vthat
p2667
sg47
I262
sg48
I1588
sbag0
(g23
g2
Ntp2668
Rp2669
(dp2670
g27
(dp2671
g29
Vnow
p2672
sg31
VDATE
p2673
sg33
VRB
p2674
sg35
I35
ssg10
I263
sg36
g4
sg37
(dp2675
sg39
(dp2676
sg41
I1589
sg42
g21
sg43
g21
sg44
I263
sg45
Vnow
p2677
sg47
I263
sg48
I1592
sbag0
(g23
g2
Ntp2678
Rp2679
(dp2680
g27
(dp2681
g29
Vgive
p2682
sg31
VO
p2683
sg33
VVBZ
p2684
sg35
I36
ssg10
I264
sg36
g4
sg37
(dp2685
sg39
(dp2686
sg41
I1593
sg42
g21
sg43
g21
sg44
I264
sg45
Vgives
p2687
sg47
I264
sg48
I1598
sbag0
(g23
g2
Ntp2688
Rp2689
(dp2690
g27
(dp2691
g29
Vdisproportionate
p2692
sg31
VO
p2693
sg33
VJJ
p2694
sg35
I37
ssg10
I265
sg36
g4
sg37
(dp2695
sg39
(dp2696
sg41
I1599
sg42
g21
sg43
g21
sg44
I265
sg45
Vdisproportionate
p2697
sg47
I265
sg48
I1615
sbag0
(g23
g2
Ntp2698
Rp2699
(dp2700
g27
(dp2701
g29
Vpreference
p2702
sg31
VO
p2703
sg33
VNN
p2704
sg35
I38
ssg10
I266
sg36
g4
sg37
(dp2705
sg39
(dp2706
sg41
I1616
sg42
g21
sg43
g21
sg44
I266
sg45
Vpreference
p2707
sg47
I266
sg48
I1626
sbag0
(g23
g2
Ntp2708
Rp2709
(dp2710
g27
(dp2711
g29
Vto
p2712
sg31
VO
p2713
sg33
VTO
p2714
sg35
I39
ssg10
I267
sg36
g4
sg37
(dp2715
sg39
(dp2716
sg41
I1627
sg42
g21
sg43
g21
sg44
I267
sg45
Vto
p2717
sg47
I267
sg48
I1629
sbag0
(g23
g2
Ntp2718
Rp2719
(dp2720
g27
(dp2721
g29
Vasian
p2722
sg31
VMISC
p2723
sg33
VJJ
p2724
sg35
I40
ssg10
I268
sg36
g4
sg37
(dp2725
sg39
(dp2726
sg41
I1630
sg42
g21
sg43
g21
sg44
I268
sg45
VAsian
p2727
sg47
I268
sg48
I1635
sbag0
(g23
g2
Ntp2728
Rp2729
(dp2730
g27
(dp2731
g29
Vimmigration
p2732
sg31
VO
p2733
sg33
VNN
p2734
sg35
I41
ssg10
I269
sg36
g4
sg37
(dp2735
sg39
(dp2736
sg41
I1636
sg42
g21
sg43
g21
sg44
I269
sg45
Vimmigration
p2737
sg47
I269
sg48
I1647
sbag0
(g23
g2
Ntp2738
Rp2739
(dp2740
g27
(dp2741
g29
V.
p2742
sg31
VO
p2743
sg33
V.
p2744
sg35
I42
ssg10
I270
sg36
g4
sg37
(dp2745
sg39
(dp2746
sg41
I1647
sg42
g21
sg43
g21
sg44
I270
sg45
V.
p2747
sg47
I270
sg48
I1648
sbag0
(g23
g2
Ntp2748
Rp2749
(dp2750
g27
(dp2751
g29
VBlainey
p2752
sg31
VPERSON
p2753
sg33
VNNP
p2754
sg35
I1
ssg10
I271
sg36
g4
sg37
(dp2755
sg39
(dp2756
sg41
I1649
sg42
g21
sg43
g21
sg44
I271
sg45
VBlainey
p2757
sg47
I271
sg48
I1656
sbag0
(g23
g2
Ntp2758
Rp2759
(dp2760
g27
(dp2761
g29
Vassert
p2762
sg31
VO
p2763
sg33
VVBZ
p2764
sg35
I2
ssg10
I272
sg36
g4
sg37
(dp2765
sg39
(dp2766
sg41
I1657
sg42
g21
sg43
g21
sg44
I272
sg45
Vasserts
p2767
sg47
I272
sg48
I1664
sbag0
(g23
g2
Ntp2768
Rp2769
(dp2770
g27
(dp2771
g29
Vthat
p2772
sg31
VO
p2773
sg33
VIN
p2774
sg35
I3
ssg10
I273
sg36
g4
sg37
(dp2775
sg39
(dp2776
sg41
I1665
sg42
g21
sg43
g21
sg44
I273
sg45
Vthat
p2777
sg47
I273
sg48
I1669
sbag0
(g23
g2
Ntp2778
Rp2779
(dp2780
g27
(dp2781
g29
Vthis
p2782
sg31
VO
p2783
sg33
VDT
p2784
sg35
I4
ssg10
I274
sg36
g4
sg37
(dp2785
sg39
(dp2786
sg41
I1670
sg42
g21
sg43
g21
sg44
I274
sg45
Vthis
p2787
sg47
I274
sg48
I1674
sbag0
(g23
g2
Ntp2788
Rp2789
(dp2790
g27
(dp2791
g29
Vpreferential
p2792
sg31
VO
p2793
sg33
VJJ
p2794
sg35
I5
ssg10
I275
sg36
g4
sg37
(dp2795
sg39
(dp2796
sg41
I1675
sg42
g21
sg43
g21
sg44
I275
sg45
Vpreferential
p2797
sg47
I275
sg48
I1687
sbag0
(g23
g2
Ntp2798
Rp2799
(dp2800
g27
(dp2801
g29
Vtreatment
p2802
sg31
VO
p2803
sg33
VNN
p2804
sg35
I6
ssg10
I276
sg36
g4
sg37
(dp2805
sg39
(dp2806
sg41
I1688
sg42
g21
sg43
g21
sg44
I276
sg45
Vtreatment
p2807
sg47
I276
sg48
I1697
sbag0
(g23
g2
Ntp2808
Rp2809
(dp2810
g27
(dp2811
g29
Vof
p2812
sg31
VO
p2813
sg33
VIN
p2814
sg35
I7
ssg10
I277
sg36
g4
sg37
(dp2815
sg39
(dp2816
sg41
I1698
sg42
g21
sg43
g21
sg44
I277
sg45
Vof
p2817
sg47
I277
sg48
I1700
sbag0
(g23
g2
Ntp2818
Rp2819
(dp2820
g27
(dp2821
g29
Vasian
p2822
sg31
VMISC
p2823
sg33
VJJ
p2824
sg35
I8
ssg10
I278
sg36
g4
sg37
(dp2825
sg39
(dp2826
sg41
I1701
sg42
g21
sg43
g21
sg44
I278
sg45
VAsian
p2827
sg47
I278
sg48
I1706
sbag0
(g23
g2
Ntp2828
Rp2829
(dp2830
g27
(dp2831
g29
Vimmigrant
p2832
sg31
VO
p2833
sg33
VNNS
p2834
sg35
I9
ssg10
I279
sg36
g4
sg37
(dp2835
sg39
(dp2836
sg41
I1707
sg42
g21
sg43
g21
sg44
I279
sg45
Vimmigrants
p2837
sg47
I279
sg48
I1717
sbag0
(g23
g2
Ntp2838
Rp2839
(dp2840
g27
(dp2841
g29
Vpartly
p2842
sg31
VO
p2843
sg33
VRB
p2844
sg35
I10
ssg10
I280
sg36
g4
sg37
(dp2845
sg39
(dp2846
sg41
I1718
sg42
g21
sg43
g21
sg44
I280
sg45
Vpartly
p2847
sg47
I280
sg48
I1724
sbag0
(g23
g2
Ntp2848
Rp2849
(dp2850
g27
(dp2851
g29
Varise
p2852
sg31
VO
p2853
sg33
VVBD
p2854
sg35
I11
ssg10
I281
sg36
g4
sg37
(dp2855
sg39
(dp2856
sg41
I1725
sg42
g21
sg43
g21
sg44
I281
sg45
Varose
p2857
sg47
I281
sg48
I1730
sbag0
(g23
g2
Ntp2858
Rp2859
(dp2860
g27
(dp2861
g29
Vfrom
p2862
sg31
VO
p2863
sg33
VIN
p2864
sg35
I12
ssg10
I282
sg36
g4
sg37
(dp2865
sg39
(dp2866
sg41
I1731
sg42
g21
sg43
g21
sg44
I282
sg45
Vfrom
p2867
sg47
I282
sg48
I1735
sbag0
(g23
g2
Ntp2868
Rp2869
(dp2870
g27
(dp2871
g29
Va
p2872
sg31
VO
p2873
sg33
VDT
p2874
sg35
I13
ssg10
I283
sg36
g4
sg37
(dp2875
sg39
(dp2876
sg41
I1736
sg42
g21
sg43
g21
sg44
I283
sg45
Va
p2877
sg47
I283
sg48
I1737
sbag0
(g23
g2
Ntp2878
Rp2879
(dp2880
g27
(dp2881
g29
Vsense
p2882
sg31
VO
p2883
sg33
VNN
p2884
sg35
I14
ssg10
I284
sg36
g4
sg37
(dp2885
sg39
(dp2886
sg41
I1738
sg42
g21
sg43
g21
sg44
I284
sg45
Vsense
p2887
sg47
I284
sg48
I1743
sbag0
(g23
g2
Ntp2888
Rp2889
(dp2890
g27
(dp2891
g29
Vof
p2892
sg31
VO
p2893
sg33
VIN
p2894
sg35
I15
ssg10
I285
sg36
g4
sg37
(dp2895
sg39
(dp2896
sg41
I1744
sg42
g21
sg43
g21
sg44
I285
sg45
Vof
p2897
sg47
I285
sg48
I1746
sbag0
(g23
g2
Ntp2898
Rp2899
(dp2900
g27
(dp2901
g29
Vguilt
p2902
sg31
VO
p2903
sg33
VNN
p2904
sg35
I16
ssg10
I286
sg36
g4
sg37
(dp2905
sg39
(dp2906
sg41
I1747
sg42
g21
sg43
g21
sg44
I286
sg45
Vguilt
p2907
sg47
I286
sg48
I1752
sbag0
(g23
g2
Ntp2908
Rp2909
(dp2910
g27
(dp2911
g29
Vover
p2912
sg31
VO
p2913
sg33
VIN
p2914
sg35
I17
ssg10
I287
sg36
g4
sg37
(dp2915
sg39
(dp2916
sg41
I1753
sg42
g21
sg43
g21
sg44
I287
sg45
Vover
p2917
sg47
I287
sg48
I1757
sbag0
(g23
g2
Ntp2918
Rp2919
(dp2920
g27
(dp2921
g29
Vthe
p2922
sg31
VO
p2923
sg33
VDT
p2924
sg35
I18
ssg10
I288
sg36
g4
sg37
(dp2925
sg39
(dp2926
sg41
I1758
sg42
g21
sg43
g21
sg44
I288
sg45
Vthe
p2927
sg47
I288
sg48
I1761
sbag0
(g23
g2
Ntp2928
Rp2929
(dp2930
g27
(dp2931
g29
VVietnam
p2932
sg31
VMISC
p2933
sg33
VNNP
p2934
sg35
I19
ssg10
I289
sg36
g4
sg37
(dp2935
sg39
(dp2936
sg41
I1762
sg42
g21
sg43
g21
sg44
I289
sg45
VVietnam
p2937
sg47
I289
sg48
I1769
sbag0
(g23
g2
Ntp2938
Rp2939
(dp2940
g27
(dp2941
g29
VWar
p2942
sg31
VMISC
p2943
sg33
VNNP
p2944
sg35
I20
ssg10
I290
sg36
g4
sg37
(dp2945
sg39
(dp2946
sg41
I1770
sg42
g21
sg43
g21
sg44
I290
sg45
VWar
p2947
sg47
I290
sg48
I1773
sbag0
(g23
g2
Ntp2948
Rp2949
(dp2950
g27
(dp2951
g29
V,
p2952
sg31
VO
p2953
sg33
V,
p2954
sg35
I21
ssg10
I291
sg36
g4
sg37
(dp2955
sg39
(dp2956
sg41
I1773
sg42
g21
sg43
g21
sg44
I291
sg45
V,
p2957
sg47
I291
sg48
I1774
sbag0
(g23
g2
Ntp2958
Rp2959
(dp2960
g27
(dp2961
g29
Vbut
p2962
sg31
VO
p2963
sg33
VCC
p2964
sg35
I22
ssg10
I292
sg36
g4
sg37
(dp2965
sg39
(dp2966
sg41
I1775
sg42
g21
sg43
g21
sg44
I292
sg45
Vbut
p2967
sg47
I292
sg48
I1778
sbag0
(g23
g2
Ntp2968
Rp2969
(dp2970
g27
(dp2971
g29
Valso
p2972
sg31
VO
p2973
sg33
VRB
p2974
sg35
I23
ssg10
I293
sg36
g4
sg37
(dp2975
sg39
(dp2976
sg41
I1779
sg42
g21
sg43
g21
sg44
I293
sg45
Valso
p2977
sg47
I293
sg48
I1783
sbag0
(g23
g2
Ntp2978
Rp2979
(dp2980
g27
(dp2981
g29
Vreflect
p2982
sg31
VO
p2983
sg33
VVBD
p2984
sg35
I24
ssg10
I294
sg36
g4
sg37
(dp2985
sg39
(dp2986
sg41
I1784
sg42
g21
sg43
g21
sg44
I294
sg45
Vreflected
p2987
sg47
I294
sg48
I1793
sbag0
(g23
g2
Ntp2988
Rp2989
(dp2990
g27
(dp2991
g29
VCanberra
p2992
sg31
VLOCATION
p2993
sg33
VNNP
p2994
sg35
I25
ssg10
I295
sg36
g4
sg37
(dp2995
sg39
(dp2996
sg41
I1794
sg42
g21
sg43
g21
sg44
I295
sg45
VCanberra
p2997
sg47
I295
sg48
I1802
sbag0
(g23
g2
Ntp2998
Rp2999
(dp3000
g27
(dp3001
g29
V's
p3002
sg31
VO
p3003
sg33
VPOS
p3004
sg35
I26
ssg10
I296
sg36
g4
sg37
(dp3005
sg39
(dp3006
sg41
I1802
sg42
g21
sg43
g21
sg44
I296
sg45
V's
p3007
sg47
I296
sg48
I1804
sbag0
(g23
g2
Ntp3008
Rp3009
(dp3010
g27
(dp3011
g29
Vmisguided
p3012
sg31
VO
p3013
sg33
VJJ
p3014
sg35
I27
ssg10
I297
sg36
g4
sg37
(dp3015
sg39
(dp3016
sg41
I1805
sg42
g21
sg43
g21
sg44
I297
sg45
Vmisguided
p3017
sg47
I297
sg48
I1814
sbag0
(g23
g2
Ntp3018
Rp3019
(dp3020
g27
(dp3021
g29
Vview
p3022
sg31
VO
p3023
sg33
VNN
p3024
sg35
I28
ssg10
I298
sg36
g4
sg37
(dp3025
sg39
(dp3026
sg41
I1815
sg42
g21
sg43
g21
sg44
I298
sg45
Vview
p3027
sg47
I298
sg48
I1819
sbag0
(g23
g2
Ntp3028
Rp3029
(dp3030
g27
(dp3031
g29
Vthat
p3032
sg31
VO
p3033
sg33
VIN
p3034
sg35
I29
ssg10
I299
sg36
g4
sg37
(dp3035
sg39
(dp3036
sg41
I1820
sg42
g21
sg43
g21
sg44
I299
sg45
Vthat
p3037
sg47
I299
sg48
I1824
sbag0
(g23
g2
Ntp3038
Rp3039
(dp3040
g27
(dp3041
g29
Vmore
p3042
sg31
VO
p3043
sg33
VJJR
p3044
sg35
I30
ssg10
I300
sg36
g4
sg37
(dp3045
sg39
(dp3046
sg41
I1825
sg42
g21
sg43
g21
sg44
I300
sg45
Vmore
p3047
sg47
I300
sg48
I1829
sbag0
(g23
g2
Ntp3048
Rp3049
(dp3050
g27
(dp3051
g29
Vtrade
p3052
sg31
VO
p3053
sg33
VNN
p3054
sg35
I31
ssg10
I301
sg36
g4
sg37
(dp3055
sg39
(dp3056
sg41
I1830
sg42
g21
sg43
g21
sg44
I301
sg45
Vtrade
p3057
sg47
I301
sg48
I1835
sbag0
(g23
g2
Ntp3058
Rp3059
(dp3060
g27
(dp3061
g29
Vwith
p3062
sg31
VO
p3063
sg33
VIN
p3064
sg35
I32
ssg10
I302
sg36
g4
sg37
(dp3065
sg39
(dp3066
sg41
I1836
sg42
g21
sg43
g21
sg44
I302
sg45
Vwith
p3067
sg47
I302
sg48
I1840
sbag0
(g23
g2
Ntp3068
Rp3069
(dp3070
g27
(dp3071
g29
Vasian
p3072
sg31
VMISC
p3073
sg33
VJJ
p3074
sg35
I33
ssg10
I303
sg36
g4
sg37
(dp3075
sg39
(dp3076
sg41
I1841
sg42
g21
sg43
g21
sg44
I303
sg45
VAsian
p3077
sg47
I303
sg48
I1846
sbag0
(g23
g2
Ntp3078
Rp3079
(dp3080
g27
(dp3081
g29
Vcountry
p3082
sg31
VO
p3083
sg33
VNNS
p3084
sg35
I34
ssg10
I304
sg36
g4
sg37
(dp3085
sg39
(dp3086
sg41
I1847
sg42
g21
sg43
g21
sg44
I304
sg45
Vcountries
p3087
sg47
I304
sg48
I1856
sbag0
(g23
g2
Ntp3088
Rp3089
(dp3090
g27
(dp3091
g29
Vwould
p3092
sg31
VO
p3093
sg33
VMD
p3094
sg35
I35
ssg10
I305
sg36
g4
sg37
(dp3095
sg39
(dp3096
sg41
I1857
sg42
g21
sg43
g21
sg44
I305
sg45
Vwould
p3097
sg47
I305
sg48
I1862
sbag0
(g23
g2
Ntp3098
Rp3099
(dp3100
g27
(dp3101
g29
Vcome
p3102
sg31
VO
p3103
sg33
VVB
p3104
sg35
I36
ssg10
I306
sg36
g4
sg37
(dp3105
sg39
(dp3106
sg41
I1863
sg42
g21
sg43
g21
sg44
I306
sg45
Vcome
p3107
sg47
I306
sg48
I1867
sbag0
(g23
g2
Ntp3108
Rp3109
(dp3110
g27
(dp3111
g29
Vwith
p3112
sg31
VO
p3113
sg33
VIN
p3114
sg35
I37
ssg10
I307
sg36
g4
sg37
(dp3115
sg39
(dp3116
sg41
I1868
sg42
g21
sg43
g21
sg44
I307
sg45
Vwith
p3117
sg47
I307
sg48
I1872
sbag0
(g23
g2
Ntp3118
Rp3119
(dp3120
g27
(dp3121
g29
Va
p3122
sg31
VO
p3123
sg33
VDT
p3124
sg35
I38
ssg10
I308
sg36
g4
sg37
(dp3125
sg39
(dp3126
sg41
I1873
sg42
g21
sg43
g21
sg44
I308
sg45
Va
p3127
sg47
I308
sg48
I1874
sbag0
(g23
g2
Ntp3128
Rp3129
(dp3130
g27
(dp3131
g29
Vlarger
p3132
sg31
VO
p3133
sg33
VJJR
p3134
sg35
I39
ssg10
I309
sg36
g4
sg37
(dp3135
sg39
(dp3136
sg41
I1875
sg42
g21
sg43
g21
sg44
I309
sg45
Vlarger
p3137
sg47
I309
sg48
I1881
sbag0
(g23
g2
Ntp3138
Rp3139
(dp3140
g27
(dp3141
g29
Vasian
p3142
sg31
VMISC
p3143
sg33
VJJ
p3144
sg35
I40
ssg10
I310
sg36
g4
sg37
(dp3145
sg39
(dp3146
sg41
I1882
sg42
g21
sg43
g21
sg44
I310
sg45
VAsian
p3147
sg47
I310
sg48
I1887
sbag0
(g23
g2
Ntp3148
Rp3149
(dp3150
g27
(dp3151
g29
Vpopulation
p3152
sg31
VO
p3153
sg33
VNN
p3154
sg35
I41
ssg10
I311
sg36
g4
sg37
(dp3155
sg39
(dp3156
sg41
I1888
sg42
g21
sg43
g21
sg44
I311
sg45
Vpopulation
p3157
sg47
I311
sg48
I1898
sbag0
(g23
g2
Ntp3158
Rp3159
(dp3160
g27
(dp3161
g29
V.
p3162
sg31
VO
p3163
sg33
V.
p3164
sg35
I42
ssg10
I312
sg36
g4
sg37
(dp3165
sg39
(dp3166
sg41
I1898
sg42
g21
sg43
g21
sg44
I312
sg45
V.
p3167
sg47
I312
sg48
I1899
sbasS'Document'
p3168
(lp3169
g4
asS'doc-features'
p3170
g14
sS'Sentence'
p3171
(lp3172
g0
(g23
g2
Ntp3173
Rp3174
(dp3175
g27
(dp3176
S'dep-parse'
p3177
S'not implemented!'
p3178
sg35
I0
sS'constituency-parse'
p3179
V(ROOT\u000a  (S\u000a    (NP\u000a      (NP (DT All))\u000a      (PP (IN for)\u000a        (NP (NNP Australia))))\u000a    (VP (VBZ is)\u000a      (NP\u000a        (NP (DT a) (CD 1984) (NN book))\u000a        (PP (IN by)\u000a          (NP (JJ Australian) (NN historian) (NNP Professor) (NNP Geoffrey) (NNP Blainey)))))\u000a    (. .)))
p3180
ssg10
I0
sg36
g4
sg37
(dp3181
sg39
(dp3182
S'tokens'
p3183
(lp3184
g25
ag50
ag60
ag70
ag80
ag90
ag100
ag110
ag120
ag130
ag140
ag150
ag160
ag170
assg41
I0
sg42
g3171
sg43
g3171
sg44
I0
sg45
VAll for Australia is a 1984 book by Australian historian Professor Geoffrey Blainey.
p3185
sg47
I14
sg48
I84
sbag0
(g23
g2
Ntp3186
Rp3187
(dp3188
g27
(dp3189
g3177
g3178
sg35
I1
sg3179
V(ROOT\u000a  (S\u000a    (NP (PRP It))\u000a    (VP (VBZ criticizes)\u000a      (NP\u000a        (NP (JJ Australian) (NN immigration) (NN policy))\u000a        (CC and)\u000a        (NP\u000a          (NP (DT the) (NN direction))\u000a          (SBAR\u000a            (WHPP (IN in)\u000a              (WHNP (WDT which)))\u000a            (S\u000a              (NP (PRP it))\u000a              (VP (VBZ is)\u000a                (VP (VBG shaping)\u000a                  (NP (DT the) (NN nation)))))))))\u000a    (. .)))
p3190
ssg10
I1
sg36
g4
sg37
(dp3191
sg39
(dp3192
g3183
(lp3193
g180
ag190
ag200
ag210
ag220
ag230
ag240
ag250
ag260
ag270
ag280
ag290
ag300
ag310
ag320
ag330
assg41
I85
sg42
g3171
sg43
g3171
sg44
I14
sg45
V It criticizes Australian immigration policy and the direction in which it is shaping the nation.
p3194
sg47
I30
sg48
I181
sbag0
(g23
g2
Ntp3195
Rp3196
(dp3197
g27
(dp3198
g3177
g3178
sg35
I2
sg3179
V(ROOT\u000a  (S\u000a    (PP (IN In)\u000a      (ADJP (JJ particular)))\u000a    (, ,)\u000a    (NP (DT the) (NN book))\u000a    (VP (VBZ is)\u000a      (ADJP (JJ critical)\u000a        (WHPP (IN of)\u000a          (WHNP (WP what))))\u000a      (NP\u000a        (NP (NNP Blainey) (NNS views))\u000a        (PP (IN as)\u000a          (NP\u000a            (NP (DT the)\u000a              (ADJP\u000a                (ADVP (RB disproportionately))\u000a                (JJ high))\u000a              (NNS levels))\u000a            (PP (IN of)\u000a              (NP\u000a                (NP (JJ Asian) (NN immigration))\u000a                (PP (TO to)\u000a                  (NP\u000a                    (NP (NNP Australia))\u000a                    (PP (IN since)\u000a                      (NP (DT the) (NNS mid-1970s)))))))))))\u000a    (. .)))
p3199
ssg10
I2
sg36
g4
sg37
(dp3200
sg39
(dp3201
g3183
(lp3202
g340
ag350
ag360
ag370
ag380
ag390
ag400
ag410
ag420
ag430
ag440
ag450
ag460
ag470
ag480
ag490
ag500
ag510
ag520
ag530
ag540
ag550
ag560
ag570
ag580
assg41
I182
sg42
g3171
sg43
g3171
sg44
I30
sg45
V In particular, the book is critical of what Blainey views as the disproportionately high levels of Asian immigration to Australia since the mid-1970s.
p3203
sg47
I55
sg48
I332
sbag0
(g23
g2
Ntp3204
Rp3205
(dp3206
g27
(dp3207
g3177
g3178
sg35
I3
sg3179
V(ROOT\u000a  (S\u000a    (PP (IN In)\u000a      (NP\u000a        (NP (DT All))\u000a        (PP (IN for)\u000a          (NP (NNP Australia)))))\u000a    (, ,)\u000a    (NP (NNP Blainey))\u000a    (VP (VBZ argues))\u000a    (: :) (. .)))
p3208
ssg10
I3
sg36
g4
sg37
(dp3209
sg39
(dp3210
g3183
(lp3211
g590
ag600
ag610
ag620
ag630
ag640
ag650
ag660
ag670
assg41
I334
sg42
g3171
sg43
g3171
sg44
I55
sg45
V\u000a\u000aIn All for Australia, Blainey argues: .
p3212
sg47
I64
sg48
I373
sbag0
(g23
g2
Ntp3213
Rp3214
(dp3215
g27
(dp3216
g3177
g3178
sg35
I4
sg3179
V(ROOT\u000a  (FRAG\u000a    (PP (IN For)\u000a      (NP\u000a        (NP (DT the) (NN sake))\u000a        (PP (IN of)\u000a          (NP (JJ national) (NN unity)))))\u000a    (, ,)\u000a    (NP\u000a      (NP (DT the) (JJ typical) (NN nation) (NNS practices) (NN discrimination))\u000a      (PP (IN against)\u000a        (NP\u000a          (NP (NNS migrants))\u000a          (PP (IN on)\u000a            (NP\u000a              (NP (DT the) (NN basis))\u000a              (PP (IN of)\u000a                (NP (NN ethnicity))))))))\u000a    (. .)))
p3217
ssg10
I4
sg36
g4
sg37
(dp3218
sg39
(dp3219
g3183
(lp3220
g680
ag690
ag700
ag710
ag720
ag730
ag740
ag750
ag760
ag770
ag780
ag790
ag800
ag810
ag820
ag830
ag840
ag850
ag860
ag870
assg41
I376
sg42
g3171
sg43
g3171
sg44
I64
sg45
V \u000a\u000aFor the sake of national unity, the typical nation practices discrimination against migrants on the basis of ethnicity.
p3221
sg47
I84
sg48
I495
sbag0
(g23
g2
Ntp3222
Rp3223
(dp3224
g27
(dp3225
g3177
g3178
sg35
I5
sg3179
V(ROOT\u000a  (S\u000a    (ADVP (RB Ironically))\u000a    (, ,)\u000a    (NP\u000a      (NP (DT the) (JJ Asian) (NNS countries))\u000a      (SBAR\u000a        (WHNP (WDT which))\u000a        (S\u000a          (NP (NNP Australia))\u000a          (VP (VBZ is)\u000a            (ADJP (RB too) (JJ afraid))\u000a            (S\u000a              (VP (TO to)\u000a                (VP (`` ``) (VB offend) ('' ''))))))))\u000a    (VP (VBP have)\u000a      (NP\u000a        (NP (DT no) (NN hesitation))\u000a        (PP (IN in)\u000a          (S\u000a            (VP (VBG using)\u000a              (NP (DT this) (NN right)\u000a                (S\u000a                  (VP (TO to)\u000a                    (VP (VB retain)\u000a                      (NP (PRP$ their) (JJ current) (JJ ethnic) (NNS compositions)))))))))))\u000a    (. .)))
p3226
ssg10
I5
sg36
g4
sg37
(dp3227
sg39
(dp3228
g3183
(lp3229
g880
ag890
ag900
ag910
ag920
ag930
ag940
ag950
ag960
ag970
ag980
ag990
ag1000
ag1010
ag1019
ag1029
ag1039
ag1049
ag1059
ag1069
ag1079
ag1089
ag1099
ag1109
ag1119
ag1129
ag1139
ag1149
assg41
I496
sg42
g3171
sg43
g3171
sg44
I84
sg45
V Ironically, the Asian countries which Australia is too afraid to "offend" have no hesitation in using this right to retain their current ethnic compositions.
p3230
sg47
I112
sg48
I653
sbag0
(g23
g2
Ntp3231
Rp3232
(dp3233
g27
(dp3234
g3177
g3178
sg35
I6
sg3179
V(ROOT\u000a  (S\u000a    (NP (DT Every) (NN nation))\u000a    (VP (VBZ relies)\u000a      (PP (IN on)\u000a        (NP\u000a          (NP (DT a) (NN sense))\u000a          (PP (IN of)\u000a            (NP (NN community))))))\u000a    (. .)))
p3235
ssg10
I6
sg36
g4
sg37
(dp3236
sg39
(dp3237
g3183
(lp3238
g1159
ag1169
ag1179
ag1189
ag1199
ag1209
ag1219
ag1229
ag1239
assg41
I656
sg42
g3171
sg43
g3171
sg44
I112
sg45
V \u000a\u000aEvery nation relies on a sense of community.
p3239
sg47
I121
sg48
I700
sbag0
(g23
g2
Ntp3240
Rp3241
(dp3242
g27
(dp3243
g3177
g3178
sg35
I7
sg3179
V(ROOT\u000a  (S\u000a    (NP\u000a      (NP (DT That) (NN sense))\u000a      (PP (IN of)\u000a        (NP\u000a          (NP (NN community))\u000a          (VP (VBG belonging)))))\u000a    (VP (MD can)\u000a      (ADVP (RB easily))\u000a      (VP (VB be)\u000a        (VP (VBN damaged)\u000a          (PP (IN by)\u000a            (NP\u000a              (NP (DT the) (JJ rapid) (NN entry))\u000a              (PP (IN of)\u000a                (NP (JJ foreign) (NNS peoples)))\u000a              (SBAR\u000a                (WHNP (WP who))\u000a                (S\u000a                  (ADVP (RB unintentionally))\u000a                  (VP (VBP erode)\u000a                    (NP (JJ national) (NN cohesion))))))))))\u000a    (. .)))
p3244
ssg10
I7
sg36
g4
sg37
(dp3245
sg39
(dp3246
g3183
(lp3247
g1249
ag1259
ag1269
ag1279
ag1289
ag1299
ag1309
ag1319
ag1329
ag1339
ag1349
ag1359
ag1369
ag1379
ag1389
ag1399
ag1409
ag1419
ag1429
ag1439
ag1449
ag1459
assg41
I701
sg42
g3171
sg43
g3171
sg44
I121
sg45
V That sense of community belonging can easily be damaged by the rapid entry of foreign peoples who unintentionally erode national cohesion.
p3248
sg47
I143
sg48
I839
sbag0
(g23
g2
Ntp3249
Rp3250
(dp3251
g27
(dp3252
g3177
g3178
sg35
I8
sg3179
V(ROOT\u000a  (S\u000a    (NP (NNP Immigration))\u000a    (VP (VBZ is)\u000a      (NP\u000a        (NP (CD one))\u000a        (PP (IN of)\u000a          (NP\u000a            (NP (DT the)\u000a              (ADJP (RBS most) (JJ important))\u000a              (NNS issues))\u000a            (VP (VBG facing)\u000a              (NP (DT a) (NN nation)))))))\u000a    (. .)))
p3253
ssg10
I8
sg36
g4
sg37
(dp3254
sg39
(dp3255
g3183
(lp3256
g1469
ag1479
ag1489
ag1499
ag1509
ag1519
ag1529
ag1539
ag1549
ag1559
ag1569
ag1579
assg41
I842
sg42
g3171
sg43
g3171
sg44
I143
sg45
V \u000a\u000aImmigration is one of the most important issues facing a nation.
p3257
sg47
I155
sg48
I906
sbag0
(g23
g2
Ntp3258
Rp3259
(dp3260
g27
(dp3261
g3177
g3178
sg35
I9
sg3179
V(ROOT\u000a  (S\u000a    (NP\u000a      (NP (DT The) (NN notion))\u000a      (SBAR (IN that)\u000a        (S\u000a          (NP (PRP it))\u000a          (VP (VBZ is)\u000a            (ADJP (RB too) (JJ contentious))\u000a            (S\u000a              (VP (TO to)\u000a                (VP (VB be)\u000a                  (VP\u000a                    (ADVP (RB publicly))\u000a                    (VBN debated)))))))))\u000a    (VP (VBZ makes)\u000a      (NP\u000a        (NP (DT a) (NN mockery))\u000a        (PP (IN of)\u000a          (NP (NN democracy)))))\u000a    (. .)))
p3262
ssg10
I9
sg36
g4
sg37
(dp3263
sg39
(dp3264
g3183
(lp3265
g1589
ag1599
ag1609
ag1619
ag1629
ag1639
ag1649
ag1659
ag1669
ag1679
ag1689
ag1699
ag1709
ag1719
ag1729
ag1739
ag1749
assg41
I907
sg42
g3171
sg43
g3171
sg44
I155
sg45
V The notion that it is too contentious to be publicly debated makes a mockery of democracy.
p3266
sg47
I172
sg48
I997
sbag0
(g23
g2
Ntp3267
Rp3268
(dp3269
g27
(dp3270
g3177
g3178
sg35
I10
sg3179
V(ROOT\u000a  (S\u000a    (NP (NN Multiculturalism))\u000a    (VP (VBZ tends)\u000a      (S\u000a        (S\u000a          (VP (TO to)\u000a            (VP (VB emphasize)\u000a              (NP\u000a                (NP (DT the) (NNS rights))\u000a                (PP (IN of)\u000a                  (NP (JJ ethnic) (NNS minorities))))\u000a              (PP (IN at)\u000a                (NP\u000a                  (NP\u000a                    (NP (DT the) (NN expense))\u000a                    (PP (IN of)\u000a                      (NP\u000a                        (NP (DT the) (NN majority))\u000a                        (PP (IN of)\u000a                          (NP (NNPS Australians))))))\u000a                  (, ,) (RB thus)\u000a                  (NP\u000a                    (ADJP (RB unnecessarily) (JJ encouraging))\u000a                    (NN division)))))))\u000a        (CC and)\u000a        (S\u000a          (VP (VBG threatening)\u000a            (NP (JJ social) (NN cohesion))))))\u000a    (. .)))
p3271
ssg10
I10
sg36
g4
sg37
(dp3272
sg39
(dp3273
g3183
(lp3274
g1759
ag1769
ag1779
ag1789
ag1799
ag1809
ag1819
ag1829
ag1839
ag1849
ag1859
ag1869
ag1879
ag1889
ag1899
ag1909
ag1919
ag1929
ag1939
ag1949
ag1959
ag1969
ag1979
ag1989
ag1999
ag2009
ag2019
assg41
I1000
sg42
g3171
sg43
g3171
sg44
I172
sg45
V \u000a\u000aMulticulturalism tends to emphasize the rights of ethnic minorities at the expense of the majority of Australians, thus unnecessarily encouraging division and threatening social cohesion.
p3275
sg47
I199
sg48
I1187
sbag0
(g23
g2
Ntp3276
Rp3277
(dp3278
g27
(dp3279
g3177
g3178
sg35
I11
sg3179
V(ROOT\u000a  (S\u000a    (NP\u000a      (NP (DT The) (NN policy))\u000a      (PP (IN of)\u000a        (NP (NN multiculturalism))))\u000a    (VP (VBZ has)\u000a      (VP (VBN tended)\u000a        (S\u000a          (VP (TO to)\u000a            (VP (VB be)\u000a              (ADVP (RB implicitly))\u000a              (UCP\u000a                (NP (JJ anti-British))\u000a                (, ,)\u000a                (PP (IN despite)\u000a                  (NP\u000a                    (NP (NNP Australia) (POS 's))\u000a                    (JJ British) (NN colonial) (NN heritage)))\u000a                (CC and)\u000a                (NP\u000a                  (NP (DT the) (JJ large) (NN number))\u000a                  (PP (IN of)\u000a                    (NP (JJ post-World) (NN War) (CD II) (JJ British) (NNS immigrants))))))))\u000a        (PP (TO to)\u000a          (NP (NNP Australia)))))\u000a    (. .)))
p3280
ssg10
I11
sg36
g4
sg37
(dp3281
sg39
(dp3282
g3183
(lp3283
g2029
ag2039
ag2049
ag2059
ag2069
ag2079
ag2089
ag2099
ag2109
ag2119
ag2129
ag2139
ag2149
ag2159
ag2169
ag2179
ag2189
ag2199
ag2209
ag2219
ag2229
ag2239
ag2249
ag2259
ag2269
ag2279
ag2289
ag2299
ag2309
ag2319
assg41
I1190
sg42
g3171
sg43
g3171
sg44
I199
sg45
V \u000a\u000aThe policy of multiculturalism has tended to be implicitly anti-British, despite Australia's British colonial heritage and the large number of post-World War II British immigrants to Australia.
p3284
sg47
I229
sg48
I1383
sbag0
(g23
g2
Ntp3285
Rp3286
(dp3287
g27
(dp3288
g3177
g3178
sg35
I12
sg3179
V(ROOT\u000a  (S\u000a    (NP (JJ Australian) (NN immigration) (NN policy))\u000a    (VP (VBZ has)\u000a      (VP (VBN moved)\u000a        (PP (IN from)\u000a          (NP (CD one) (NN extreme)))\u000a        (PP (TO to)\u000a          (NP (DT another)))\u000a        (, ,)\u000a        (PP (IN from)\u000a          (NP\u000a            (NP (DT a) (NN policy))\u000a            (SBAR\u000a              (WHNP (WDT that))\u000a              (S\u000a                (VP (VBD sought)\u000a                  (S\u000a                    (VP (TO to)\u000a                      (VP\u000a                        (VP (VB encourage)\u000a                          (NP (JJ European) (NN immigration)))\u000a                        (CC and)\u000a                        (VP (VB restrict)\u000a                          (NP (JJ Asian) (NN immigration)))))))))\u000a            (PRN (-LRB- -LRB-)\u000a              (NP\u000a                (NP (NNP White) (NNP Australia))\u000a                (NP (NN policy)))\u000a              (-RRB- -RRB-))))\u000a        (, ,)\u000a        (PP (TO to)\u000a          (NP\u000a            (NP (DT a) (NN policy))\u000a            (SBAR\u000a              (WHNP (WDT that))\u000a              (S\u000a                (ADVP (RB now))\u000a                (VP (VBZ gives)\u000a                  (NP (JJ disproportionate) (NN preference))\u000a                  (PP (TO to)\u000a                    (NP (JJ Asian) (NN immigration))))))))))\u000a    (. .)))
p3289
ssg10
I12
sg36
g4
sg37
(dp3290
sg39
(dp3291
g3183
(lp3292
g2329
ag2339
ag2349
ag2359
ag2369
ag2379
ag2389
ag2399
ag2409
ag2419
ag2429
ag2439
ag2449
ag2459
ag2469
ag2479
ag2489
ag2499
ag2509
ag2519
ag2529
ag2539
ag2549
ag2559
ag2569
ag2579
ag2589
ag2599
ag2609
ag2619
ag2629
ag2639
ag2649
ag2659
ag2669
ag2679
ag2689
ag2699
ag2709
ag2719
ag2729
ag2739
assg41
I1386
sg42
g3171
sg43
g3171
sg44
I229
sg45
V \u000a\u000aAustralian immigration policy has moved from one extreme to another, from a policy that sought to encourage European immigration and restrict Asian immigration (White Australia policy), to a policy that now gives disproportionate preference to Asian immigration.
p3293
sg47
I271
sg48
I1648
sbag0
(g23
g2
Ntp3294
Rp3295
(dp3296
g27
(dp3297
g3177
g3178
sg35
I13
sg3179
V(ROOT\u000a  (S\u000a    (NP (NNP Blainey))\u000a    (VP (VBZ asserts)\u000a      (SBAR (IN that)\u000a        (S\u000a          (NP\u000a            (NP (DT this) (JJ preferential) (NN treatment))\u000a            (PP (IN of)\u000a              (NP (JJ Asian) (NNS immigrants))))\u000a          (VP\u000a            (VP\u000a              (ADVP (RB partly))\u000a              (VBD arose)\u000a              (PP (IN from)\u000a                (NP\u000a                  (NP (DT a) (NN sense))\u000a                  (PP (IN of)\u000a                    (NP (NN guilt)))))\u000a              (PP (IN over)\u000a                (NP (DT the) (NNP Vietnam) (NNP War))))\u000a            (, ,)\u000a            (CC but)\u000a            (VP\u000a              (ADVP (RB also))\u000a              (VBD reflected)\u000a              (NP\u000a                (NP (NNP Canberra) (POS 's))\u000a                (JJ misguided) (NN view))))))\u000a      (SBAR (IN that)\u000a        (S\u000a          (NP\u000a            (NP (JJR more) (NN trade))\u000a            (PP (IN with)\u000a              (NP (JJ Asian) (NNS countries))))\u000a          (VP (MD would)\u000a            (VP (VB come)\u000a              (PP (IN with)\u000a                (NP (DT a) (JJR larger) (JJ Asian) (NN population))))))))\u000a    (. .)))
p3298
ssg10
I13
sg36
g4
sg37
(dp3299
sg39
(dp3300
g3183
(lp3301
g2749
ag2759
ag2769
ag2779
ag2789
ag2799
ag2809
ag2819
ag2829
ag2839
ag2849
ag2859
ag2869
ag2879
ag2889
ag2899
ag2909
ag2919
ag2929
ag2939
ag2949
ag2959
ag2969
ag2979
ag2989
ag2999
ag3009
ag3019
ag3029
ag3039
ag3049
ag3059
ag3069
ag3079
ag3089
ag3099
ag3109
ag3119
ag3129
ag3139
ag3149
ag3159
assg41
I1649
sg42
g3171
sg43
g3171
sg44
I271
sg45
V Blainey asserts that this preferential treatment of Asian immigrants partly arose from a sense of guilt over the Vietnam War, but also reflected Canberra's misguided view that more trade with Asian countries would come with a larger Asian population.
p3302
sg47
I313
sg48
I1899
sbassg37
(dp3303
sg39
(dp3304
sg47
I-1
sg3183
g22
sg42
g3168
sg36
Nsg27
(dp3305
sg44
I0
sg45
VAll for Australia is a 1984 book by Australian historian Professor Geoffrey Blainey. It criticizes Australian immigration policy and the direction in which it is shaping the nation. In particular, the book is critical of what Blainey views as the disproportionately high levels of Asian immigration to Australia since the mid-1970s.\u000a\u000aIn All for Australia, Blainey argues: . \u000a\u000aFor the sake of national unity, the typical nation practices discrimination against migrants on the basis of ethnicity. Ironically, the Asian countries which Australia is too afraid to "offend" have no hesitation in using this right to retain their current ethnic compositions. \u000a\u000aEvery nation relies on a sense of community. That sense of community belonging can easily be damaged by the rapid entry of foreign peoples who unintentionally erode national cohesion. \u000a\u000aImmigration is one of the most important issues facing a nation. The notion that it is too contentious to be publicly debated makes a mockery of democracy. \u000a\u000aMulticulturalism tends to emphasize the rights of ethnic minorities at the expense of the majority of Australians, thus unnecessarily encouraging division and threatening social cohesion. \u000a\u000aThe policy of multiculturalism has tended to be implicitly anti-British, despite Australia's British colonial heritage and the large number of post-World War II British immigrants to Australia. \u000a\u000aAustralian immigration policy has moved from one extreme to another, from a policy that sought to encourage European immigration and restrict Asian immigration (White Australia policy), to a policy that now gives disproportionate preference to Asian immigration. Blainey asserts that this preferential treatment of Asian immigrants partly arose from a sense of guilt over the Vietnam War, but also reflected Canberra's misguided view that more trade with Asian countries would come with a larger Asian population.
p3306
sS'sents'
p3307
g3172
sg43
g3168
sg41
I0
sS'id'
p3308
g16
sg48
I1899
sS'sentFeatures'
p3309
(lp3310
sb.