ccopy_reg
_reconstructor
p0
(cpygate.doc
Document
p1
c__builtin__
object
p2
Ntp3
Rp4
(dp5
S'src'
p6
VFor the cosmological concept, see biocentrism (cosmology). \u000a\u000aBiocentrism (Greek: \u03b2\u03af\u03bf\u03c2, bio, "life"; and \u03ba\u03ad\u03bd\u03c4\u03c1\u03bf\u03bd, kentron, "center"), in a political and ecological sense, is an ethical point of view which extends inherent value to non-human species,[REF] ecosystems, and processes in nature - regardless of their sentience [REF]. It stands in contrast to anthropocentrism which centers on the value of humans [REF].\u000a\u000aBiocentrism states that nature does not exist simply to be used or consumed by humans, but that humans are simply one species amongst many,[REF] and that because we are part of an ecosystem, any actions which negatively affect the living systems of which we are a part, adversely affect us as well,[REF][REF] whether or not we maintain a biocentric worldview [REF]. Biocentrists believe that all species have inherent value, and that humans are not "superior" in a moral or ethical sense. \u000a\u000aPaul Taylor, one of the major[REF] early proponents of biocentrism, maintains that biocentrism is an "attitude of respect for nature", whereby one attempts to make an effort to live one's life in a way that respects the welfare and inherent worth of all living creatures [REF]. Taylor states that:[REF][REF] . \u000a\u000aHumans are members of a community of life along with all other species, and on equal terms. \u000aThis community consists of a system of interdependence between all members, both physically, and in terms of relationships with other species \u000aEvery organism is a "teleological centre of life", that is, each organism has a purpose and a reason for being, which is inherently "good" or "valuable"\u000aHumans are not inherently superior to other species . \u000a\u000aAdvocates of biocentrism are likely to promote preservation of biodiversity,[REF] animal rights, and environmental protection. \u000a\u000aThe term has been used by those advocating "left biocentrism", combining deep ecology with an "anti-industrial and anti-capitalist" position (David Orton et al.) [REF].\u000a\u000aThe term biocentrism is strongly associated with the work of the philosopher Paul Taylor, especially his book Respect for Nature: A Theory of Environmental Ethics (1986). (ISBN 978-0691150246) [REF] . \u000a\u000aHowever, historian Donald Worster has traced today's biocentric philosophies, which he sees as part of a recovery of a sense of kinship between man and nature, to the reaction by the British intelligencia of the Victorian era against the Christian ethic of dominion over nature [REF].\u000aHe has pointed to Charles Darwin as an important spokesperson for the biocentric view in ecological thought and quotes from Darwin's Notebook on Transmutation of Species:If we choose to let conjecture run wild, then animals, our fellow brethren in pain, diseases, death, suffering and famine \u2014 our slaves in the most laborious works, our companions in our amusement \u2014 they may partake of our origin in one common ancestor \u2014 we may be all netted together.
p7
sS'string'
p8
S'For the cosmological concept, see biocentrism (cosmology). \n\nBiocentrism (Greek: \xce\xb2\xce\xaf\xce\xbf\xcf\x82, bio, "life"; and \xce\xba\xce\xad\xce\xbd\xcf\x84\xcf\x81\xce\xbf\xce\xbd, kentron, "center"), in a political and ecological sense, is an ethical point of view which extends inherent value to non-human species,[REF] ecosystems, and processes in nature - regardless of their sentience [REF]. It stands in contrast to anthropocentrism which centers on the value of humans [REF].\n\nBiocentrism states that nature does not exist simply to be used or consumed by humans, but that humans are simply one species amongst many,[REF] and that because we are part of an ecosystem, any actions which negatively affect the living systems of which we are a part, adversely affect us as well,[REF][REF] whether or not we maintain a biocentric worldview [REF]. Biocentrists believe that all species have inherent value, and that humans are not "superior" in a moral or ethical sense. \n\nPaul Taylor, one of the major[REF] early proponents of biocentrism, maintains that biocentrism is an "attitude of respect for nature", whereby one attempts to make an effort to live one\'s life in a way that respects the welfare and inherent worth of all living creatures [REF]. Taylor states that:[REF][REF] . \n\nHumans are members of a community of life along with all other species, and on equal terms. \nThis community consists of a system of interdependence between all members, both physically, and in terms of relationships with other species \nEvery organism is a "teleological centre of life", that is, each organism has a purpose and a reason for being, which is inherently "good" or "valuable"\nHumans are not inherently superior to other species . \n\nAdvocates of biocentrism are likely to promote preservation of biodiversity,[REF] animal rights, and environmental protection. \n\nThe term has been used by those advocating "left biocentrism", combining deep ecology with an "anti-industrial and anti-capitalist" position (David Orton et al.) [REF].\n\nThe term biocentrism is strongly associated with the work of the philosopher Paul Taylor, especially his book Respect for Nature: A Theory of Environmental Ethics (1986). (ISBN 978-0691150246) [REF] . \n\nHowever, historian Donald Worster has traced today\'s biocentric philosophies, which he sees as part of a recovery of a sense of kinship between man and nature, to the reaction by the British intelligencia of the Victorian era against the Christian ethic of dominion over nature [REF].\nHe has pointed to Charles Darwin as an important spokesperson for the biocentric view in ecological thought and quotes from Darwin\'s Notebook on Transmutation of Species:If we choose to let conjecture run wild, then animals, our fellow brethren in pain, diseases, death, suffering and famine \xe2\x80\x94 our slaves in the most laborious works, our companions in our amusement \xe2\x80\x94 they may partake of our origin in one common ancestor \xe2\x80\x94 we may be all netted together.'
p9
sS'idx'
p10
I0
sS'tknFeatures'
p11
(lp12
sS'docFeatures'
p13
(dp14
S'file_id'
p15
S'Biocentrism_(ethics)'
p16
ssS'items'
p17
(dp18
S'raw'
p19
VFor the cosmological concept, see biocentrism (cosmology). \u000a\u000aBiocentrism (Greek: \u03b2\u03af\u03bf\u03c2, bio, "life"; and \u03ba\u03ad\u03bd\u03c4\u03c1\u03bf\u03bd, kentron, "center"), in a political and ecological sense, is an ethical point of view which extends inherent value to non-human species,[REF] ecosystems, and processes in nature - regardless of their sentience [REF]. It stands in contrast to anthropocentrism which centers on the value of humans [REF].\u000a\u000aBiocentrism states that nature does not exist simply to be used or consumed by humans, but that humans are simply one species amongst many,[REF] and that because we are part of an ecosystem, any actions which negatively affect the living systems of which we are a part, adversely affect us as well,[REF][REF] whether or not we maintain a biocentric worldview [REF]. Biocentrists believe that all species have inherent value, and that humans are not "superior" in a moral or ethical sense. \u000a\u000aPaul Taylor, one of the major[REF] early proponents of biocentrism, maintains that biocentrism is an "attitude of respect for nature", whereby one attempts to make an effort to live one's life in a way that respects the welfare and inherent worth of all living creatures [REF]. Taylor states that:[REF][REF] . \u000a\u000aHumans are members of a community of life along with all other species, and on equal terms. \u000aThis community consists of a system of interdependence between all members, both physically, and in terms of relationships with other species \u000aEvery organism is a "teleological centre of life", that is, each organism has a purpose and a reason for being, which is inherently "good" or "valuable"\u000aHumans are not inherently superior to other species . \u000a\u000aAdvocates of biocentrism are likely to promote preservation of biodiversity,[REF] animal rights, and environmental protection. \u000a\u000aThe term has been used by those advocating "left biocentrism", combining deep ecology with an "anti-industrial and anti-capitalist" position (David Orton et al.) [REF].\u000a\u000aThe term biocentrism is strongly associated with the work of the philosopher Paul Taylor, especially his book Respect for Nature: A Theory of Environmental Ethics (1986). (ISBN 978-0691150246) [REF] . \u000a\u000aHowever, historian Donald Worster has traced today's biocentric philosophies, which he sees as part of a recovery of a sense of kinship between man and nature, to the reaction by the British intelligencia of the Victorian era against the Christian ethic of dominion over nature [REF].\u000aHe has pointed to Charles Darwin as an important spokesperson for the biocentric view in ecological thought and quotes from Darwin's Notebook on Transmutation of Species:If we choose to let conjecture run wild, then animals, our fellow brethren in pain, diseases, death, suffering and famine \u2014 our slaves in the most laborious works, our companions in our amusement \u2014 they may partake of our origin in one common ancestor \u2014 we may be all netted together.
p20
sS'Token'
p21
(lp22
g0
(cpygate.annotation
Annotation
p23
g2
Ntp24
Rp25
(dp26
S'features'
p27
(dp28
S'lemma'
p29
Vfor
p30
sS'ner'
p31
VO
p32
sS'pos'
p33
VIN
p34
sS'index'
p35
I1
ssg10
I0
sS'doc'
p36
g4
sS'labels'
p37
(dp38
sS'relations'
p39
(dp40
sS'cStart'
p41
I0
sS'subType'
p42
g21
sS'annoType'
p43
g21
sS'tStart'
p44
I0
sS'text'
p45
VFor
p46
sS'tEnd'
p47
I0
sS'cEnd'
p48
I3
sbag0
(g23
g2
Ntp49
Rp50
(dp51
g27
(dp52
g29
Vthe
p53
sg31
VO
p54
sg33
VDT
p55
sg35
I2
ssg10
I1
sg36
g4
sg37
(dp56
sg39
(dp57
sg41
I4
sg42
g21
sg43
g21
sg44
I1
sg45
Vthe
p58
sg47
I1
sg48
I7
sbag0
(g23
g2
Ntp59
Rp60
(dp61
g27
(dp62
g29
Vcosmological
p63
sg31
VO
p64
sg33
VJJ
p65
sg35
I3
ssg10
I2
sg36
g4
sg37
(dp66
sg39
(dp67
sg41
I8
sg42
g21
sg43
g21
sg44
I2
sg45
Vcosmological
p68
sg47
I2
sg48
I20
sbag0
(g23
g2
Ntp69
Rp70
(dp71
g27
(dp72
g29
Vconcept
p73
sg31
VO
p74
sg33
VNN
p75
sg35
I4
ssg10
I3
sg36
g4
sg37
(dp76
sg39
(dp77
sg41
I21
sg42
g21
sg43
g21
sg44
I3
sg45
Vconcept
p78
sg47
I3
sg48
I28
sbag0
(g23
g2
Ntp79
Rp80
(dp81
g27
(dp82
g29
V,
p83
sg31
VO
p84
sg33
V,
p85
sg35
I5
ssg10
I4
sg36
g4
sg37
(dp86
sg39
(dp87
sg41
I28
sg42
g21
sg43
g21
sg44
I4
sg45
V,
p88
sg47
I4
sg48
I29
sbag0
(g23
g2
Ntp89
Rp90
(dp91
g27
(dp92
g29
Vsee
p93
sg31
VO
p94
sg33
VVB
p95
sg35
I6
ssg10
I5
sg36
g4
sg37
(dp96
sg39
(dp97
sg41
I30
sg42
g21
sg43
g21
sg44
I5
sg45
Vsee
p98
sg47
I5
sg48
I33
sbag0
(g23
g2
Ntp99
Rp100
(dp101
g27
(dp102
g29
Vbiocentrism
p103
sg31
VO
p104
sg33
VNN
p105
sg35
I7
ssg10
I6
sg36
g4
sg37
(dp106
sg39
(dp107
sg41
I34
sg42
g21
sg43
g21
sg44
I6
sg45
Vbiocentrism
p108
sg47
I6
sg48
I45
sbag0
(g23
g2
Ntp109
Rp110
(dp111
g27
(dp112
g29
V-lrb-
p113
sg31
VO
p114
sg33
V-LRB-
p115
sg35
I8
ssg10
I7
sg36
g4
sg37
(dp116
sg39
(dp117
sg41
I46
sg42
g21
sg43
g21
sg44
I7
sg45
V(
p118
sg47
I7
sg48
I47
sbag0
(g23
g2
Ntp119
Rp120
(dp121
g27
(dp122
g29
Vcosmology
p123
sg31
VO
p124
sg33
VNN
p125
sg35
I9
ssg10
I8
sg36
g4
sg37
(dp126
sg39
(dp127
sg41
I47
sg42
g21
sg43
g21
sg44
I8
sg45
Vcosmology
p128
sg47
I8
sg48
I56
sbag0
(g23
g2
Ntp129
Rp130
(dp131
g27
(dp132
g29
V-rrb-
p133
sg31
VO
p134
sg33
V-RRB-
p135
sg35
I10
ssg10
I9
sg36
g4
sg37
(dp136
sg39
(dp137
sg41
I56
sg42
g21
sg43
g21
sg44
I9
sg45
V)
p138
sg47
I9
sg48
I57
sbag0
(g23
g2
Ntp139
Rp140
(dp141
g27
(dp142
g29
V.
p143
sg31
VO
p144
sg33
V.
p145
sg35
I11
ssg10
I10
sg36
g4
sg37
(dp146
sg39
(dp147
sg41
I57
sg42
g21
sg43
g21
sg44
I10
sg45
V.
p148
sg47
I10
sg48
I58
sbag0
(g23
g2
Ntp149
Rp150
(dp151
g27
(dp152
g29
Vbiocentrism
p153
sg31
VO
p154
sg33
VNN
p155
sg35
I1
ssg10
I11
sg36
g4
sg37
(dp156
sg39
(dp157
sg41
I61
sg42
g21
sg43
g21
sg44
I11
sg45
VBiocentrism
p158
sg47
I11
sg48
I72
sbag0
(g23
g2
Ntp159
Rp160
(dp161
g27
(dp162
g29
V-lrb-
p163
sg31
VO
p164
sg33
V-LRB-
p165
sg35
I2
ssg10
I12
sg36
g4
sg37
(dp166
sg39
(dp167
sg41
I73
sg42
g21
sg43
g21
sg44
I12
sg45
V(
p168
sg47
I12
sg48
I74
sbag0
(g23
g2
Ntp169
Rp170
(dp171
g27
(dp172
g29
Vgreek
p173
sg31
VMISC
p174
sg33
VJJ
p175
sg35
I3
ssg10
I13
sg36
g4
sg37
(dp176
sg39
(dp177
sg41
I74
sg42
g21
sg43
g21
sg44
I13
sg45
VGreek
p178
sg47
I13
sg48
I79
sbag0
(g23
g2
Ntp179
Rp180
(dp181
g27
(dp182
g29
V:
p183
sg31
VO
p184
sg33
V:
p185
sg35
I4
ssg10
I14
sg36
g4
sg37
(dp186
sg39
(dp187
sg41
I79
sg42
g21
sg43
g21
sg44
I14
sg45
V:
p188
sg47
I14
sg48
I80
sbag0
(g23
g2
Ntp189
Rp190
(dp191
g27
(dp192
g29
V\u03b2\u03af\u03bf\u03c2
p193
sg31
VO
p194
sg33
VNN
p195
sg35
I5
ssg10
I15
sg36
g4
sg37
(dp196
sg39
(dp197
sg41
I81
sg42
g21
sg43
g21
sg44
I15
sg45
V\u03b2\u03af\u03bf\u03c2
p198
sg47
I15
sg48
I85
sbag0
(g23
g2
Ntp199
Rp200
(dp201
g27
(dp202
g29
V,
p203
sg31
VO
p204
sg33
V,
p205
sg35
I6
ssg10
I16
sg36
g4
sg37
(dp206
sg39
(dp207
sg41
I85
sg42
g21
sg43
g21
sg44
I16
sg45
V,
p208
sg47
I16
sg48
I86
sbag0
(g23
g2
Ntp209
Rp210
(dp211
g27
(dp212
g29
Vbio
p213
sg31
VO
p214
sg33
VNN
p215
sg35
I7
ssg10
I17
sg36
g4
sg37
(dp216
sg39
(dp217
sg41
I87
sg42
g21
sg43
g21
sg44
I17
sg45
Vbio
p218
sg47
I17
sg48
I90
sbag0
(g23
g2
Ntp219
Rp220
(dp221
g27
(dp222
g29
V,
p223
sg31
VO
p224
sg33
V,
p225
sg35
I8
ssg10
I18
sg36
g4
sg37
(dp226
sg39
(dp227
sg41
I90
sg42
g21
sg43
g21
sg44
I18
sg45
V,
p228
sg47
I18
sg48
I91
sbag0
(g23
g2
Ntp229
Rp230
(dp231
g27
(dp232
g29
V``
p233
sg31
VO
p234
sg33
V``
p235
sg35
I9
ssg10
I19
sg36
g4
sg37
(dp236
sg39
(dp237
sg41
I92
sg42
g21
sg43
g21
sg44
I19
sg45
V"
p238
sg47
I19
sg48
I93
sbag0
(g23
g2
Ntp239
Rp240
(dp241
g27
(dp242
g29
Vlife
p243
sg31
VO
p244
sg33
VNN
p245
sg35
I10
ssg10
I20
sg36
g4
sg37
(dp246
sg39
(dp247
sg41
I93
sg42
g21
sg43
g21
sg44
I20
sg45
Vlife
p248
sg47
I20
sg48
I97
sbag0
(g23
g2
Ntp249
Rp250
(dp251
g27
(dp252
g29
V''
p253
sg31
VO
p254
sg33
V''
p255
sg35
I11
ssg10
I21
sg36
g4
sg37
(dp256
sg39
(dp257
sg41
I97
sg42
g21
sg43
g21
sg44
I21
sg45
g238
sg47
I21
sg48
I98
sbag0
(g23
g2
Ntp258
Rp259
(dp260
g27
(dp261
g29
V;
p262
sg31
VO
p263
sg33
V:
p264
sg35
I12
ssg10
I22
sg36
g4
sg37
(dp265
sg39
(dp266
sg41
I98
sg42
g21
sg43
g21
sg44
I22
sg45
V;
p267
sg47
I22
sg48
I99
sbag0
(g23
g2
Ntp268
Rp269
(dp270
g27
(dp271
g29
Vand
p272
sg31
VO
p273
sg33
VCC
p274
sg35
I13
ssg10
I23
sg36
g4
sg37
(dp275
sg39
(dp276
sg41
I100
sg42
g21
sg43
g21
sg44
I23
sg45
Vand
p277
sg47
I23
sg48
I103
sbag0
(g23
g2
Ntp278
Rp279
(dp280
g27
(dp281
g29
V\u03ba\u03ad\u03bd\u03c4\u03c1\u03bf\u03bd
p282
sg31
VO
p283
sg33
VNN
p284
sg35
I14
ssg10
I24
sg36
g4
sg37
(dp285
sg39
(dp286
sg41
I104
sg42
g21
sg43
g21
sg44
I24
sg45
V\u03ba\u03ad\u03bd\u03c4\u03c1\u03bf\u03bd
p287
sg47
I24
sg48
I111
sbag0
(g23
g2
Ntp288
Rp289
(dp290
g27
(dp291
g29
V,
p292
sg31
VO
p293
sg33
V,
p294
sg35
I15
ssg10
I25
sg36
g4
sg37
(dp295
sg39
(dp296
sg41
I111
sg42
g21
sg43
g21
sg44
I25
sg45
V,
p297
sg47
I25
sg48
I112
sbag0
(g23
g2
Ntp298
Rp299
(dp300
g27
(dp301
g29
Vkentron
p302
sg31
VO
p303
sg33
VNN
p304
sg35
I16
ssg10
I26
sg36
g4
sg37
(dp305
sg39
(dp306
sg41
I113
sg42
g21
sg43
g21
sg44
I26
sg45
Vkentron
p307
sg47
I26
sg48
I120
sbag0
(g23
g2
Ntp308
Rp309
(dp310
g27
(dp311
g29
V,
p312
sg31
VO
p313
sg33
V,
p314
sg35
I17
ssg10
I27
sg36
g4
sg37
(dp315
sg39
(dp316
sg41
I120
sg42
g21
sg43
g21
sg44
I27
sg45
V,
p317
sg47
I27
sg48
I121
sbag0
(g23
g2
Ntp318
Rp319
(dp320
g27
(dp321
g29
V``
p322
sg31
VO
p323
sg33
V``
p324
sg35
I18
ssg10
I28
sg36
g4
sg37
(dp325
sg39
(dp326
sg41
I122
sg42
g21
sg43
g21
sg44
I28
sg45
g238
sg47
I28
sg48
I123
sbag0
(g23
g2
Ntp327
Rp328
(dp329
g27
(dp330
g29
Vcenter
p331
sg31
VO
p332
sg33
VNN
p333
sg35
I19
ssg10
I29
sg36
g4
sg37
(dp334
sg39
(dp335
sg41
I123
sg42
g21
sg43
g21
sg44
I29
sg45
Vcenter
p336
sg47
I29
sg48
I129
sbag0
(g23
g2
Ntp337
Rp338
(dp339
g27
(dp340
g29
V''
p341
sg31
VO
p342
sg33
V''
p343
sg35
I20
ssg10
I30
sg36
g4
sg37
(dp344
sg39
(dp345
sg41
I129
sg42
g21
sg43
g21
sg44
I30
sg45
g238
sg47
I30
sg48
I130
sbag0
(g23
g2
Ntp346
Rp347
(dp348
g27
(dp349
g29
V-rrb-
p350
sg31
VO
p351
sg33
V-RRB-
p352
sg35
I21
ssg10
I31
sg36
g4
sg37
(dp353
sg39
(dp354
sg41
I130
sg42
g21
sg43
g21
sg44
I31
sg45
V)
p355
sg47
I31
sg48
I131
sbag0
(g23
g2
Ntp356
Rp357
(dp358
g27
(dp359
g29
V,
p360
sg31
VO
p361
sg33
V,
p362
sg35
I22
ssg10
I32
sg36
g4
sg37
(dp363
sg39
(dp364
sg41
I131
sg42
g21
sg43
g21
sg44
I32
sg45
V,
p365
sg47
I32
sg48
I132
sbag0
(g23
g2
Ntp366
Rp367
(dp368
g27
(dp369
g29
Vin
p370
sg31
VO
p371
sg33
VIN
p372
sg35
I23
ssg10
I33
sg36
g4
sg37
(dp373
sg39
(dp374
sg41
I133
sg42
g21
sg43
g21
sg44
I33
sg45
Vin
p375
sg47
I33
sg48
I135
sbag0
(g23
g2
Ntp376
Rp377
(dp378
g27
(dp379
g29
Va
p380
sg31
VO
p381
sg33
VDT
p382
sg35
I24
ssg10
I34
sg36
g4
sg37
(dp383
sg39
(dp384
sg41
I136
sg42
g21
sg43
g21
sg44
I34
sg45
Va
p385
sg47
I34
sg48
I137
sbag0
(g23
g2
Ntp386
Rp387
(dp388
g27
(dp389
g29
Vpolitical
p390
sg31
VO
p391
sg33
VJJ
p392
sg35
I25
ssg10
I35
sg36
g4
sg37
(dp393
sg39
(dp394
sg41
I138
sg42
g21
sg43
g21
sg44
I35
sg45
Vpolitical
p395
sg47
I35
sg48
I147
sbag0
(g23
g2
Ntp396
Rp397
(dp398
g27
(dp399
g29
Vand
p400
sg31
VO
p401
sg33
VCC
p402
sg35
I26
ssg10
I36
sg36
g4
sg37
(dp403
sg39
(dp404
sg41
I148
sg42
g21
sg43
g21
sg44
I36
sg45
Vand
p405
sg47
I36
sg48
I151
sbag0
(g23
g2
Ntp406
Rp407
(dp408
g27
(dp409
g29
Vecological
p410
sg31
VO
p411
sg33
VJJ
p412
sg35
I27
ssg10
I37
sg36
g4
sg37
(dp413
sg39
(dp414
sg41
I152
sg42
g21
sg43
g21
sg44
I37
sg45
Vecological
p415
sg47
I37
sg48
I162
sbag0
(g23
g2
Ntp416
Rp417
(dp418
g27
(dp419
g29
Vsense
p420
sg31
VO
p421
sg33
VNN
p422
sg35
I28
ssg10
I38
sg36
g4
sg37
(dp423
sg39
(dp424
sg41
I163
sg42
g21
sg43
g21
sg44
I38
sg45
Vsense
p425
sg47
I38
sg48
I168
sbag0
(g23
g2
Ntp426
Rp427
(dp428
g27
(dp429
g29
V,
p430
sg31
VO
p431
sg33
V,
p432
sg35
I29
ssg10
I39
sg36
g4
sg37
(dp433
sg39
(dp434
sg41
I168
sg42
g21
sg43
g21
sg44
I39
sg45
V,
p435
sg47
I39
sg48
I169
sbag0
(g23
g2
Ntp436
Rp437
(dp438
g27
(dp439
g29
Vbe
p440
sg31
VO
p441
sg33
VVBZ
p442
sg35
I30
ssg10
I40
sg36
g4
sg37
(dp443
sg39
(dp444
sg41
I170
sg42
g21
sg43
g21
sg44
I40
sg45
Vis
p445
sg47
I40
sg48
I172
sbag0
(g23
g2
Ntp446
Rp447
(dp448
g27
(dp449
g29
Va
p450
sg31
VO
p451
sg33
VDT
p452
sg35
I31
ssg10
I41
sg36
g4
sg37
(dp453
sg39
(dp454
sg41
I173
sg42
g21
sg43
g21
sg44
I41
sg45
Van
p455
sg47
I41
sg48
I175
sbag0
(g23
g2
Ntp456
Rp457
(dp458
g27
(dp459
g29
Vethical
p460
sg31
VO
p461
sg33
VJJ
p462
sg35
I32
ssg10
I42
sg36
g4
sg37
(dp463
sg39
(dp464
sg41
I176
sg42
g21
sg43
g21
sg44
I42
sg45
Vethical
p465
sg47
I42
sg48
I183
sbag0
(g23
g2
Ntp466
Rp467
(dp468
g27
(dp469
g29
Vpoint
p470
sg31
VO
p471
sg33
VNN
p472
sg35
I33
ssg10
I43
sg36
g4
sg37
(dp473
sg39
(dp474
sg41
I184
sg42
g21
sg43
g21
sg44
I43
sg45
Vpoint
p475
sg47
I43
sg48
I189
sbag0
(g23
g2
Ntp476
Rp477
(dp478
g27
(dp479
g29
Vof
p480
sg31
VO
p481
sg33
VIN
p482
sg35
I34
ssg10
I44
sg36
g4
sg37
(dp483
sg39
(dp484
sg41
I190
sg42
g21
sg43
g21
sg44
I44
sg45
Vof
p485
sg47
I44
sg48
I192
sbag0
(g23
g2
Ntp486
Rp487
(dp488
g27
(dp489
g29
Vview
p490
sg31
VO
p491
sg33
VNN
p492
sg35
I35
ssg10
I45
sg36
g4
sg37
(dp493
sg39
(dp494
sg41
I193
sg42
g21
sg43
g21
sg44
I45
sg45
Vview
p495
sg47
I45
sg48
I197
sbag0
(g23
g2
Ntp496
Rp497
(dp498
g27
(dp499
g29
Vwhich
p500
sg31
VO
p501
sg33
VWDT
p502
sg35
I36
ssg10
I46
sg36
g4
sg37
(dp503
sg39
(dp504
sg41
I198
sg42
g21
sg43
g21
sg44
I46
sg45
Vwhich
p505
sg47
I46
sg48
I203
sbag0
(g23
g2
Ntp506
Rp507
(dp508
g27
(dp509
g29
Vextend
p510
sg31
VO
p511
sg33
VVBZ
p512
sg35
I37
ssg10
I47
sg36
g4
sg37
(dp513
sg39
(dp514
sg41
I204
sg42
g21
sg43
g21
sg44
I47
sg45
Vextends
p515
sg47
I47
sg48
I211
sbag0
(g23
g2
Ntp516
Rp517
(dp518
g27
(dp519
g29
Vinherent
p520
sg31
VO
p521
sg33
VJJ
p522
sg35
I38
ssg10
I48
sg36
g4
sg37
(dp523
sg39
(dp524
sg41
I212
sg42
g21
sg43
g21
sg44
I48
sg45
Vinherent
p525
sg47
I48
sg48
I220
sbag0
(g23
g2
Ntp526
Rp527
(dp528
g27
(dp529
g29
Vvalue
p530
sg31
VO
p531
sg33
VNN
p532
sg35
I39
ssg10
I49
sg36
g4
sg37
(dp533
sg39
(dp534
sg41
I221
sg42
g21
sg43
g21
sg44
I49
sg45
Vvalue
p535
sg47
I49
sg48
I226
sbag0
(g23
g2
Ntp536
Rp537
(dp538
g27
(dp539
g29
Vto
p540
sg31
VO
p541
sg33
VTO
p542
sg35
I40
ssg10
I50
sg36
g4
sg37
(dp543
sg39
(dp544
sg41
I227
sg42
g21
sg43
g21
sg44
I50
sg45
Vto
p545
sg47
I50
sg48
I229
sbag0
(g23
g2
Ntp546
Rp547
(dp548
g27
(dp549
g29
Vnon-human
p550
sg31
VO
p551
sg33
VJJ
p552
sg35
I41
ssg10
I51
sg36
g4
sg37
(dp553
sg39
(dp554
sg41
I230
sg42
g21
sg43
g21
sg44
I51
sg45
Vnon-human
p555
sg47
I51
sg48
I239
sbag0
(g23
g2
Ntp556
Rp557
(dp558
g27
(dp559
g29
Vspecies
p560
sg31
VO
p561
sg33
VNNS
p562
sg35
I42
ssg10
I52
sg36
g4
sg37
(dp563
sg39
(dp564
sg41
I240
sg42
g21
sg43
g21
sg44
I52
sg45
Vspecies
p565
sg47
I52
sg48
I247
sbag0
(g23
g2
Ntp566
Rp567
(dp568
g27
(dp569
g29
V,
p570
sg31
VO
p571
sg33
V,
p572
sg35
I43
ssg10
I53
sg36
g4
sg37
(dp573
sg39
(dp574
sg41
I247
sg42
g21
sg43
g21
sg44
I53
sg45
V,
p575
sg47
I53
sg48
I248
sbag0
(g23
g2
Ntp576
Rp577
(dp578
g27
(dp579
g29
V-lsb-
p580
sg31
VO
p581
sg33
V-LRB-
p582
sg35
I44
ssg10
I54
sg36
g4
sg37
(dp583
sg39
(dp584
sg41
I248
sg42
g21
sg43
g21
sg44
I54
sg45
V[
p585
sg47
I54
sg48
I249
sbag0
(g23
g2
Ntp586
Rp587
(dp588
g27
(dp589
g29
VREF
p590
sg31
VO
p591
sg33
VNNP
p592
sg35
I45
ssg10
I55
sg36
g4
sg37
(dp593
sg39
(dp594
sg41
I249
sg42
g21
sg43
g21
sg44
I55
sg45
VREF
p595
sg47
I55
sg48
I252
sbag0
(g23
g2
Ntp596
Rp597
(dp598
g27
(dp599
g29
V-rsb-
p600
sg31
VO
p601
sg33
V-RRB-
p602
sg35
I46
ssg10
I56
sg36
g4
sg37
(dp603
sg39
(dp604
sg41
I252
sg42
g21
sg43
g21
sg44
I56
sg45
V]
p605
sg47
I56
sg48
I253
sbag0
(g23
g2
Ntp606
Rp607
(dp608
g27
(dp609
g29
Vecosystem
p610
sg31
VO
p611
sg33
VNNS
p612
sg35
I47
ssg10
I57
sg36
g4
sg37
(dp613
sg39
(dp614
sg41
I254
sg42
g21
sg43
g21
sg44
I57
sg45
Vecosystems
p615
sg47
I57
sg48
I264
sbag0
(g23
g2
Ntp616
Rp617
(dp618
g27
(dp619
g29
V,
p620
sg31
VO
p621
sg33
V,
p622
sg35
I48
ssg10
I58
sg36
g4
sg37
(dp623
sg39
(dp624
sg41
I264
sg42
g21
sg43
g21
sg44
I58
sg45
V,
p625
sg47
I58
sg48
I265
sbag0
(g23
g2
Ntp626
Rp627
(dp628
g27
(dp629
g29
Vand
p630
sg31
VO
p631
sg33
VCC
p632
sg35
I49
ssg10
I59
sg36
g4
sg37
(dp633
sg39
(dp634
sg41
I266
sg42
g21
sg43
g21
sg44
I59
sg45
Vand
p635
sg47
I59
sg48
I269
sbag0
(g23
g2
Ntp636
Rp637
(dp638
g27
(dp639
g29
Vprocess
p640
sg31
VO
p641
sg33
VNNS
p642
sg35
I50
ssg10
I60
sg36
g4
sg37
(dp643
sg39
(dp644
sg41
I270
sg42
g21
sg43
g21
sg44
I60
sg45
Vprocesses
p645
sg47
I60
sg48
I279
sbag0
(g23
g2
Ntp646
Rp647
(dp648
g27
(dp649
g29
Vin
p650
sg31
VO
p651
sg33
VIN
p652
sg35
I51
ssg10
I61
sg36
g4
sg37
(dp653
sg39
(dp654
sg41
I280
sg42
g21
sg43
g21
sg44
I61
sg45
Vin
p655
sg47
I61
sg48
I282
sbag0
(g23
g2
Ntp656
Rp657
(dp658
g27
(dp659
g29
Vnature
p660
sg31
VO
p661
sg33
VNN
p662
sg35
I52
ssg10
I62
sg36
g4
sg37
(dp663
sg39
(dp664
sg41
I283
sg42
g21
sg43
g21
sg44
I62
sg45
Vnature
p665
sg47
I62
sg48
I289
sbag0
(g23
g2
Ntp666
Rp667
(dp668
g27
(dp669
g29
V-
p670
sg31
VO
p671
sg33
V:
p672
sg35
I53
ssg10
I63
sg36
g4
sg37
(dp673
sg39
(dp674
sg41
I290
sg42
g21
sg43
g21
sg44
I63
sg45
V-
p675
sg47
I63
sg48
I291
sbag0
(g23
g2
Ntp676
Rp677
(dp678
g27
(dp679
g29
Vregardless
p680
sg31
VO
p681
sg33
VRB
p682
sg35
I54
ssg10
I64
sg36
g4
sg37
(dp683
sg39
(dp684
sg41
I292
sg42
g21
sg43
g21
sg44
I64
sg45
Vregardless
p685
sg47
I64
sg48
I302
sbag0
(g23
g2
Ntp686
Rp687
(dp688
g27
(dp689
g29
Vof
p690
sg31
VO
p691
sg33
VIN
p692
sg35
I55
ssg10
I65
sg36
g4
sg37
(dp693
sg39
(dp694
sg41
I303
sg42
g21
sg43
g21
sg44
I65
sg45
Vof
p695
sg47
I65
sg48
I305
sbag0
(g23
g2
Ntp696
Rp697
(dp698
g27
(dp699
g29
Vthey
p700
sg31
VO
p701
sg33
VPRP$
p702
sg35
I56
ssg10
I66
sg36
g4
sg37
(dp703
sg39
(dp704
sg41
I306
sg42
g21
sg43
g21
sg44
I66
sg45
Vtheir
p705
sg47
I66
sg48
I311
sbag0
(g23
g2
Ntp706
Rp707
(dp708
g27
(dp709
g29
Vsentience
p710
sg31
VO
p711
sg33
VNN
p712
sg35
I57
ssg10
I67
sg36
g4
sg37
(dp713
sg39
(dp714
sg41
I312
sg42
g21
sg43
g21
sg44
I67
sg45
Vsentience
p715
sg47
I67
sg48
I321
sbag0
(g23
g2
Ntp716
Rp717
(dp718
g27
(dp719
g29
V-lsb-
p720
sg31
VO
p721
sg33
V-LRB-
p722
sg35
I58
ssg10
I68
sg36
g4
sg37
(dp723
sg39
(dp724
sg41
I322
sg42
g21
sg43
g21
sg44
I68
sg45
V[
p725
sg47
I68
sg48
I323
sbag0
(g23
g2
Ntp726
Rp727
(dp728
g27
(dp729
g29
Vref
p730
sg31
VO
p731
sg33
VNN
p732
sg35
I59
ssg10
I69
sg36
g4
sg37
(dp733
sg39
(dp734
sg41
I323
sg42
g21
sg43
g21
sg44
I69
sg45
VREF
p735
sg47
I69
sg48
I326
sbag0
(g23
g2
Ntp736
Rp737
(dp738
g27
(dp739
g29
V-rsb-
p740
sg31
VO
p741
sg33
V-RRB-
p742
sg35
I60
ssg10
I70
sg36
g4
sg37
(dp743
sg39
(dp744
sg41
I326
sg42
g21
sg43
g21
sg44
I70
sg45
V]
p745
sg47
I70
sg48
I327
sbag0
(g23
g2
Ntp746
Rp747
(dp748
g27
(dp749
g29
V.
p750
sg31
VO
p751
sg33
V.
p752
sg35
I61
ssg10
I71
sg36
g4
sg37
(dp753
sg39
(dp754
sg41
I327
sg42
g21
sg43
g21
sg44
I71
sg45
V.
p755
sg47
I71
sg48
I328
sbag0
(g23
g2
Ntp756
Rp757
(dp758
g27
(dp759
g29
Vit
p760
sg31
VO
p761
sg33
VPRP
p762
sg35
I1
ssg10
I72
sg36
g4
sg37
(dp763
sg39
(dp764
sg41
I329
sg42
g21
sg43
g21
sg44
I72
sg45
VIt
p765
sg47
I72
sg48
I331
sbag0
(g23
g2
Ntp766
Rp767
(dp768
g27
(dp769
g29
Vstand
p770
sg31
VO
p771
sg33
VVBZ
p772
sg35
I2
ssg10
I73
sg36
g4
sg37
(dp773
sg39
(dp774
sg41
I332
sg42
g21
sg43
g21
sg44
I73
sg45
Vstands
p775
sg47
I73
sg48
I338
sbag0
(g23
g2
Ntp776
Rp777
(dp778
g27
(dp779
g29
Vin
p780
sg31
VO
p781
sg33
VIN
p782
sg35
I3
ssg10
I74
sg36
g4
sg37
(dp783
sg39
(dp784
sg41
I339
sg42
g21
sg43
g21
sg44
I74
sg45
Vin
p785
sg47
I74
sg48
I341
sbag0
(g23
g2
Ntp786
Rp787
(dp788
g27
(dp789
g29
Vcontrast
p790
sg31
VO
p791
sg33
VNN
p792
sg35
I4
ssg10
I75
sg36
g4
sg37
(dp793
sg39
(dp794
sg41
I342
sg42
g21
sg43
g21
sg44
I75
sg45
Vcontrast
p795
sg47
I75
sg48
I350
sbag0
(g23
g2
Ntp796
Rp797
(dp798
g27
(dp799
g29
Vto
p800
sg31
VO
p801
sg33
VTO
p802
sg35
I5
ssg10
I76
sg36
g4
sg37
(dp803
sg39
(dp804
sg41
I351
sg42
g21
sg43
g21
sg44
I76
sg45
Vto
p805
sg47
I76
sg48
I353
sbag0
(g23
g2
Ntp806
Rp807
(dp808
g27
(dp809
g29
Vanthropocentrism
p810
sg31
VO
p811
sg33
VNN
p812
sg35
I6
ssg10
I77
sg36
g4
sg37
(dp813
sg39
(dp814
sg41
I354
sg42
g21
sg43
g21
sg44
I77
sg45
Vanthropocentrism
p815
sg47
I77
sg48
I370
sbag0
(g23
g2
Ntp816
Rp817
(dp818
g27
(dp819
g29
Vwhich
p820
sg31
VO
p821
sg33
VWDT
p822
sg35
I7
ssg10
I78
sg36
g4
sg37
(dp823
sg39
(dp824
sg41
I371
sg42
g21
sg43
g21
sg44
I78
sg45
Vwhich
p825
sg47
I78
sg48
I376
sbag0
(g23
g2
Ntp826
Rp827
(dp828
g27
(dp829
g29
Vcenter
p830
sg31
VO
p831
sg33
VVBZ
p832
sg35
I8
ssg10
I79
sg36
g4
sg37
(dp833
sg39
(dp834
sg41
I377
sg42
g21
sg43
g21
sg44
I79
sg45
Vcenters
p835
sg47
I79
sg48
I384
sbag0
(g23
g2
Ntp836
Rp837
(dp838
g27
(dp839
g29
Von
p840
sg31
VO
p841
sg33
VIN
p842
sg35
I9
ssg10
I80
sg36
g4
sg37
(dp843
sg39
(dp844
sg41
I385
sg42
g21
sg43
g21
sg44
I80
sg45
Von
p845
sg47
I80
sg48
I387
sbag0
(g23
g2
Ntp846
Rp847
(dp848
g27
(dp849
g29
Vthe
p850
sg31
VO
p851
sg33
VDT
p852
sg35
I10
ssg10
I81
sg36
g4
sg37
(dp853
sg39
(dp854
sg41
I388
sg42
g21
sg43
g21
sg44
I81
sg45
Vthe
p855
sg47
I81
sg48
I391
sbag0
(g23
g2
Ntp856
Rp857
(dp858
g27
(dp859
g29
Vvalue
p860
sg31
VO
p861
sg33
VNN
p862
sg35
I11
ssg10
I82
sg36
g4
sg37
(dp863
sg39
(dp864
sg41
I392
sg42
g21
sg43
g21
sg44
I82
sg45
Vvalue
p865
sg47
I82
sg48
I397
sbag0
(g23
g2
Ntp866
Rp867
(dp868
g27
(dp869
g29
Vof
p870
sg31
VO
p871
sg33
VIN
p872
sg35
I12
ssg10
I83
sg36
g4
sg37
(dp873
sg39
(dp874
sg41
I398
sg42
g21
sg43
g21
sg44
I83
sg45
Vof
p875
sg47
I83
sg48
I400
sbag0
(g23
g2
Ntp876
Rp877
(dp878
g27
(dp879
g29
Vhuman
p880
sg31
VO
p881
sg33
VNNS
p882
sg35
I13
ssg10
I84
sg36
g4
sg37
(dp883
sg39
(dp884
sg41
I401
sg42
g21
sg43
g21
sg44
I84
sg45
Vhumans
p885
sg47
I84
sg48
I407
sbag0
(g23
g2
Ntp886
Rp887
(dp888
g27
(dp889
g29
V-lsb-
p890
sg31
VO
p891
sg33
V-LRB-
p892
sg35
I14
ssg10
I85
sg36
g4
sg37
(dp893
sg39
(dp894
sg41
I408
sg42
g21
sg43
g21
sg44
I85
sg45
V[
p895
sg47
I85
sg48
I409
sbag0
(g23
g2
Ntp896
Rp897
(dp898
g27
(dp899
g29
Vref
p900
sg31
VO
p901
sg33
VNN
p902
sg35
I15
ssg10
I86
sg36
g4
sg37
(dp903
sg39
(dp904
sg41
I409
sg42
g21
sg43
g21
sg44
I86
sg45
VREF
p905
sg47
I86
sg48
I412
sbag0
(g23
g2
Ntp906
Rp907
(dp908
g27
(dp909
g29
V-rsb-
p910
sg31
VO
p911
sg33
V-RRB-
p912
sg35
I16
ssg10
I87
sg36
g4
sg37
(dp913
sg39
(dp914
sg41
I412
sg42
g21
sg43
g21
sg44
I87
sg45
V]
p915
sg47
I87
sg48
I413
sbag0
(g23
g2
Ntp916
Rp917
(dp918
g27
(dp919
g29
V.
p920
sg31
VO
p921
sg33
V.
p922
sg35
I17
ssg10
I88
sg36
g4
sg37
(dp923
sg39
(dp924
sg41
I413
sg42
g21
sg43
g21
sg44
I88
sg45
V.
p925
sg47
I88
sg48
I414
sbag0
(g23
g2
Ntp926
Rp927
(dp928
g27
(dp929
g29
VBiocentrism
p930
sg31
VO
p931
sg33
VNNP
p932
sg35
I1
ssg10
I89
sg36
g4
sg37
(dp933
sg39
(dp934
sg41
I416
sg42
g21
sg43
g21
sg44
I89
sg45
VBiocentrism
p935
sg47
I89
sg48
I427
sbag0
(g23
g2
Ntp936
Rp937
(dp938
g27
(dp939
g29
Vstate
p940
sg31
VO
p941
sg33
VVBZ
p942
sg35
I2
ssg10
I90
sg36
g4
sg37
(dp943
sg39
(dp944
sg41
I428
sg42
g21
sg43
g21
sg44
I90
sg45
Vstates
p945
sg47
I90
sg48
I434
sbag0
(g23
g2
Ntp946
Rp947
(dp948
g27
(dp949
g29
Vthat
p950
sg31
VO
p951
sg33
VIN
p952
sg35
I3
ssg10
I91
sg36
g4
sg37
(dp953
sg39
(dp954
sg41
I435
sg42
g21
sg43
g21
sg44
I91
sg45
Vthat
p955
sg47
I91
sg48
I439
sbag0
(g23
g2
Ntp956
Rp957
(dp958
g27
(dp959
g29
Vnature
p960
sg31
VO
p961
sg33
VNN
p962
sg35
I4
ssg10
I92
sg36
g4
sg37
(dp963
sg39
(dp964
sg41
I440
sg42
g21
sg43
g21
sg44
I92
sg45
Vnature
p965
sg47
I92
sg48
I446
sbag0
(g23
g2
Ntp966
Rp967
(dp968
g27
(dp969
g29
Vdo
p970
sg31
VO
p971
sg33
VVBZ
p972
sg35
I5
ssg10
I93
sg36
g4
sg37
(dp973
sg39
(dp974
sg41
I447
sg42
g21
sg43
g21
sg44
I93
sg45
Vdoes
p975
sg47
I93
sg48
I451
sbag0
(g23
g2
Ntp976
Rp977
(dp978
g27
(dp979
g29
Vnot
p980
sg31
VO
p981
sg33
VRB
p982
sg35
I6
ssg10
I94
sg36
g4
sg37
(dp983
sg39
(dp984
sg41
I452
sg42
g21
sg43
g21
sg44
I94
sg45
Vnot
p985
sg47
I94
sg48
I455
sbag0
(g23
g2
Ntp986
Rp987
(dp988
g27
(dp989
g29
Vexist
p990
sg31
VO
p991
sg33
VVB
p992
sg35
I7
ssg10
I95
sg36
g4
sg37
(dp993
sg39
(dp994
sg41
I456
sg42
g21
sg43
g21
sg44
I95
sg45
Vexist
p995
sg47
I95
sg48
I461
sbag0
(g23
g2
Ntp996
Rp997
(dp998
g27
(dp999
g29
Vsimply
p1000
sg31
VO
p1001
sg33
VRB
p1002
sg35
I8
ssg10
I96
sg36
g4
sg37
(dp1003
sg39
(dp1004
sg41
I462
sg42
g21
sg43
g21
sg44
I96
sg45
Vsimply
p1005
sg47
I96
sg48
I468
sbag0
(g23
g2
Ntp1006
Rp1007
(dp1008
g27
(dp1009
g29
Vto
p1010
sg31
VO
p1011
sg33
VTO
p1012
sg35
I9
ssg10
I97
sg36
g4
sg37
(dp1013
sg39
(dp1014
sg41
I469
sg42
g21
sg43
g21
sg44
I97
sg45
Vto
p1015
sg47
I97
sg48
I471
sbag0
(g23
g2
Ntp1016
Rp1017
(dp1018
g27
(dp1019
g29
Vbe
p1020
sg31
VO
p1021
sg33
VVB
p1022
sg35
I10
ssg10
I98
sg36
g4
sg37
(dp1023
sg39
(dp1024
sg41
I472
sg42
g21
sg43
g21
sg44
I98
sg45
Vbe
p1025
sg47
I98
sg48
I474
sbag0
(g23
g2
Ntp1026
Rp1027
(dp1028
g27
(dp1029
g29
Vuse
p1030
sg31
VO
p1031
sg33
VVBN
p1032
sg35
I11
ssg10
I99
sg36
g4
sg37
(dp1033
sg39
(dp1034
sg41
I475
sg42
g21
sg43
g21
sg44
I99
sg45
Vused
p1035
sg47
I99
sg48
I479
sbag0
(g23
g2
Ntp1036
Rp1037
(dp1038
g27
(dp1039
g29
Vor
p1040
sg31
VO
p1041
sg33
VCC
p1042
sg35
I12
ssg10
I100
sg36
g4
sg37
(dp1043
sg39
(dp1044
sg41
I480
sg42
g21
sg43
g21
sg44
I100
sg45
Vor
p1045
sg47
I100
sg48
I482
sbag0
(g23
g2
Ntp1046
Rp1047
(dp1048
g27
(dp1049
g29
Vconsume
p1050
sg31
VO
p1051
sg33
VVBN
p1052
sg35
I13
ssg10
I101
sg36
g4
sg37
(dp1053
sg39
(dp1054
sg41
I483
sg42
g21
sg43
g21
sg44
I101
sg45
Vconsumed
p1055
sg47
I101
sg48
I491
sbag0
(g23
g2
Ntp1056
Rp1057
(dp1058
g27
(dp1059
g29
Vby
p1060
sg31
VO
p1061
sg33
VIN
p1062
sg35
I14
ssg10
I102
sg36
g4
sg37
(dp1063
sg39
(dp1064
sg41
I492
sg42
g21
sg43
g21
sg44
I102
sg45
Vby
p1065
sg47
I102
sg48
I494
sbag0
(g23
g2
Ntp1066
Rp1067
(dp1068
g27
(dp1069
g29
Vhuman
p1070
sg31
VO
p1071
sg33
VNNS
p1072
sg35
I15
ssg10
I103
sg36
g4
sg37
(dp1073
sg39
(dp1074
sg41
I495
sg42
g21
sg43
g21
sg44
I103
sg45
Vhumans
p1075
sg47
I103
sg48
I501
sbag0
(g23
g2
Ntp1076
Rp1077
(dp1078
g27
(dp1079
g29
V,
p1080
sg31
VO
p1081
sg33
V,
p1082
sg35
I16
ssg10
I104
sg36
g4
sg37
(dp1083
sg39
(dp1084
sg41
I501
sg42
g21
sg43
g21
sg44
I104
sg45
V,
p1085
sg47
I104
sg48
I502
sbag0
(g23
g2
Ntp1086
Rp1087
(dp1088
g27
(dp1089
g29
Vbut
p1090
sg31
VO
p1091
sg33
VCC
p1092
sg35
I17
ssg10
I105
sg36
g4
sg37
(dp1093
sg39
(dp1094
sg41
I503
sg42
g21
sg43
g21
sg44
I105
sg45
Vbut
p1095
sg47
I105
sg48
I506
sbag0
(g23
g2
Ntp1096
Rp1097
(dp1098
g27
(dp1099
g29
Vthat
p1100
sg31
VO
p1101
sg33
VIN
p1102
sg35
I18
ssg10
I106
sg36
g4
sg37
(dp1103
sg39
(dp1104
sg41
I507
sg42
g21
sg43
g21
sg44
I106
sg45
Vthat
p1105
sg47
I106
sg48
I511
sbag0
(g23
g2
Ntp1106
Rp1107
(dp1108
g27
(dp1109
g29
Vhuman
p1110
sg31
VO
p1111
sg33
VNNS
p1112
sg35
I19
ssg10
I107
sg36
g4
sg37
(dp1113
sg39
(dp1114
sg41
I512
sg42
g21
sg43
g21
sg44
I107
sg45
Vhumans
p1115
sg47
I107
sg48
I518
sbag0
(g23
g2
Ntp1116
Rp1117
(dp1118
g27
(dp1119
g29
Vbe
p1120
sg31
VO
p1121
sg33
VVBP
p1122
sg35
I20
ssg10
I108
sg36
g4
sg37
(dp1123
sg39
(dp1124
sg41
I519
sg42
g21
sg43
g21
sg44
I108
sg45
Vare
p1125
sg47
I108
sg48
I522
sbag0
(g23
g2
Ntp1126
Rp1127
(dp1128
g27
(dp1129
g29
Vsimply
p1130
sg31
VO
p1131
sg33
VRB
p1132
sg35
I21
ssg10
I109
sg36
g4
sg37
(dp1133
sg39
(dp1134
sg41
I523
sg42
g21
sg43
g21
sg44
I109
sg45
Vsimply
p1135
sg47
I109
sg48
I529
sbag0
(g23
g2
Ntp1136
Rp1137
(dp1138
g27
(dp1139
g29
Vone
p1140
sg31
VNUMBER
p1141
sg33
VCD
p1142
sg35
I22
ssg10
I110
sg36
g4
sg37
(dp1143
sg39
(dp1144
sg41
I530
sg42
g21
sg43
g21
sg44
I110
sg45
Vone
p1145
sg47
I110
sg48
I533
sbag0
(g23
g2
Ntp1146
Rp1147
(dp1148
g27
(dp1149
g29
Vspecies
p1150
sg31
VO
p1151
sg33
VNNS
p1152
sg35
I23
ssg10
I111
sg36
g4
sg37
(dp1153
sg39
(dp1154
sg41
I534
sg42
g21
sg43
g21
sg44
I111
sg45
Vspecies
p1155
sg47
I111
sg48
I541
sbag0
(g23
g2
Ntp1156
Rp1157
(dp1158
g27
(dp1159
g29
Vamongst
p1160
sg31
VO
p1161
sg33
VIN
p1162
sg35
I24
ssg10
I112
sg36
g4
sg37
(dp1163
sg39
(dp1164
sg41
I542
sg42
g21
sg43
g21
sg44
I112
sg45
Vamongst
p1165
sg47
I112
sg48
I549
sbag0
(g23
g2
Ntp1166
Rp1167
(dp1168
g27
(dp1169
g29
Vmany
p1170
sg31
VO
p1171
sg33
VJJ
p1172
sg35
I25
ssg10
I113
sg36
g4
sg37
(dp1173
sg39
(dp1174
sg41
I550
sg42
g21
sg43
g21
sg44
I113
sg45
Vmany
p1175
sg47
I113
sg48
I554
sbag0
(g23
g2
Ntp1176
Rp1177
(dp1178
g27
(dp1179
g29
V,
p1180
sg31
VO
p1181
sg33
V,
p1182
sg35
I26
ssg10
I114
sg36
g4
sg37
(dp1183
sg39
(dp1184
sg41
I554
sg42
g21
sg43
g21
sg44
I114
sg45
V,
p1185
sg47
I114
sg48
I555
sbag0
(g23
g2
Ntp1186
Rp1187
(dp1188
g27
(dp1189
g29
V-lsb-
p1190
sg31
VO
p1191
sg33
V-LRB-
p1192
sg35
I27
ssg10
I115
sg36
g4
sg37
(dp1193
sg39
(dp1194
sg41
I555
sg42
g21
sg43
g21
sg44
I115
sg45
V[
p1195
sg47
I115
sg48
I556
sbag0
(g23
g2
Ntp1196
Rp1197
(dp1198
g27
(dp1199
g29
VREF
p1200
sg31
VO
p1201
sg33
VNNP
p1202
sg35
I28
ssg10
I116
sg36
g4
sg37
(dp1203
sg39
(dp1204
sg41
I556
sg42
g21
sg43
g21
sg44
I116
sg45
VREF
p1205
sg47
I116
sg48
I559
sbag0
(g23
g2
Ntp1206
Rp1207
(dp1208
g27
(dp1209
g29
V-rsb-
p1210
sg31
VO
p1211
sg33
V-RRB-
p1212
sg35
I29
ssg10
I117
sg36
g4
sg37
(dp1213
sg39
(dp1214
sg41
I559
sg42
g21
sg43
g21
sg44
I117
sg45
V]
p1215
sg47
I117
sg48
I560
sbag0
(g23
g2
Ntp1216
Rp1217
(dp1218
g27
(dp1219
g29
Vand
p1220
sg31
VO
p1221
sg33
VCC
p1222
sg35
I30
ssg10
I118
sg36
g4
sg37
(dp1223
sg39
(dp1224
sg41
I561
sg42
g21
sg43
g21
sg44
I118
sg45
Vand
p1225
sg47
I118
sg48
I564
sbag0
(g23
g2
Ntp1226
Rp1227
(dp1228
g27
(dp1229
g29
Vthat
p1230
sg31
VO
p1231
sg33
VIN
p1232
sg35
I31
ssg10
I119
sg36
g4
sg37
(dp1233
sg39
(dp1234
sg41
I565
sg42
g21
sg43
g21
sg44
I119
sg45
Vthat
p1235
sg47
I119
sg48
I569
sbag0
(g23
g2
Ntp1236
Rp1237
(dp1238
g27
(dp1239
g29
Vbecause
p1240
sg31
VO
p1241
sg33
VIN
p1242
sg35
I32
ssg10
I120
sg36
g4
sg37
(dp1243
sg39
(dp1244
sg41
I570
sg42
g21
sg43
g21
sg44
I120
sg45
Vbecause
p1245
sg47
I120
sg48
I577
sbag0
(g23
g2
Ntp1246
Rp1247
(dp1248
g27
(dp1249
g29
Vwe
p1250
sg31
VO
p1251
sg33
VPRP
p1252
sg35
I33
ssg10
I121
sg36
g4
sg37
(dp1253
sg39
(dp1254
sg41
I578
sg42
g21
sg43
g21
sg44
I121
sg45
Vwe
p1255
sg47
I121
sg48
I580
sbag0
(g23
g2
Ntp1256
Rp1257
(dp1258
g27
(dp1259
g29
Vbe
p1260
sg31
VO
p1261
sg33
VVBP
p1262
sg35
I34
ssg10
I122
sg36
g4
sg37
(dp1263
sg39
(dp1264
sg41
I581
sg42
g21
sg43
g21
sg44
I122
sg45
Vare
p1265
sg47
I122
sg48
I584
sbag0
(g23
g2
Ntp1266
Rp1267
(dp1268
g27
(dp1269
g29
Vpart
p1270
sg31
VO
p1271
sg33
VNN
p1272
sg35
I35
ssg10
I123
sg36
g4
sg37
(dp1273
sg39
(dp1274
sg41
I585
sg42
g21
sg43
g21
sg44
I123
sg45
Vpart
p1275
sg47
I123
sg48
I589
sbag0
(g23
g2
Ntp1276
Rp1277
(dp1278
g27
(dp1279
g29
Vof
p1280
sg31
VO
p1281
sg33
VIN
p1282
sg35
I36
ssg10
I124
sg36
g4
sg37
(dp1283
sg39
(dp1284
sg41
I590
sg42
g21
sg43
g21
sg44
I124
sg45
Vof
p1285
sg47
I124
sg48
I592
sbag0
(g23
g2
Ntp1286
Rp1287
(dp1288
g27
(dp1289
g29
Va
p1290
sg31
VO
p1291
sg33
VDT
p1292
sg35
I37
ssg10
I125
sg36
g4
sg37
(dp1293
sg39
(dp1294
sg41
I593
sg42
g21
sg43
g21
sg44
I125
sg45
Van
p1295
sg47
I125
sg48
I595
sbag0
(g23
g2
Ntp1296
Rp1297
(dp1298
g27
(dp1299
g29
Vecosystem
p1300
sg31
VO
p1301
sg33
VNN
p1302
sg35
I38
ssg10
I126
sg36
g4
sg37
(dp1303
sg39
(dp1304
sg41
I596
sg42
g21
sg43
g21
sg44
I126
sg45
Vecosystem
p1305
sg47
I126
sg48
I605
sbag0
(g23
g2
Ntp1306
Rp1307
(dp1308
g27
(dp1309
g29
V,
p1310
sg31
VO
p1311
sg33
V,
p1312
sg35
I39
ssg10
I127
sg36
g4
sg37
(dp1313
sg39
(dp1314
sg41
I605
sg42
g21
sg43
g21
sg44
I127
sg45
V,
p1315
sg47
I127
sg48
I606
sbag0
(g23
g2
Ntp1316
Rp1317
(dp1318
g27
(dp1319
g29
Vany
p1320
sg31
VO
p1321
sg33
VDT
p1322
sg35
I40
ssg10
I128
sg36
g4
sg37
(dp1323
sg39
(dp1324
sg41
I607
sg42
g21
sg43
g21
sg44
I128
sg45
Vany
p1325
sg47
I128
sg48
I610
sbag0
(g23
g2
Ntp1326
Rp1327
(dp1328
g27
(dp1329
g29
Vaction
p1330
sg31
VO
p1331
sg33
VNNS
p1332
sg35
I41
ssg10
I129
sg36
g4
sg37
(dp1333
sg39
(dp1334
sg41
I611
sg42
g21
sg43
g21
sg44
I129
sg45
Vactions
p1335
sg47
I129
sg48
I618
sbag0
(g23
g2
Ntp1336
Rp1337
(dp1338
g27
(dp1339
g29
Vwhich
p1340
sg31
VO
p1341
sg33
VWDT
p1342
sg35
I42
ssg10
I130
sg36
g4
sg37
(dp1343
sg39
(dp1344
sg41
I619
sg42
g21
sg43
g21
sg44
I130
sg45
Vwhich
p1345
sg47
I130
sg48
I624
sbag0
(g23
g2
Ntp1346
Rp1347
(dp1348
g27
(dp1349
g29
Vnegatively
p1350
sg31
VO
p1351
sg33
VRB
p1352
sg35
I43
ssg10
I131
sg36
g4
sg37
(dp1353
sg39
(dp1354
sg41
I625
sg42
g21
sg43
g21
sg44
I131
sg45
Vnegatively
p1355
sg47
I131
sg48
I635
sbag0
(g23
g2
Ntp1356
Rp1357
(dp1358
g27
(dp1359
g29
Vaffect
p1360
sg31
VO
p1361
sg33
VVBP
p1362
sg35
I44
ssg10
I132
sg36
g4
sg37
(dp1363
sg39
(dp1364
sg41
I636
sg42
g21
sg43
g21
sg44
I132
sg45
Vaffect
p1365
sg47
I132
sg48
I642
sbag0
(g23
g2
Ntp1366
Rp1367
(dp1368
g27
(dp1369
g29
Vthe
p1370
sg31
VO
p1371
sg33
VDT
p1372
sg35
I45
ssg10
I133
sg36
g4
sg37
(dp1373
sg39
(dp1374
sg41
I643
sg42
g21
sg43
g21
sg44
I133
sg45
Vthe
p1375
sg47
I133
sg48
I646
sbag0
(g23
g2
Ntp1376
Rp1377
(dp1378
g27
(dp1379
g29
Vliving
p1380
sg31
VO
p1381
sg33
VNN
p1382
sg35
I46
ssg10
I134
sg36
g4
sg37
(dp1383
sg39
(dp1384
sg41
I647
sg42
g21
sg43
g21
sg44
I134
sg45
Vliving
p1385
sg47
I134
sg48
I653
sbag0
(g23
g2
Ntp1386
Rp1387
(dp1388
g27
(dp1389
g29
Vsystem
p1390
sg31
VO
p1391
sg33
VNNS
p1392
sg35
I47
ssg10
I135
sg36
g4
sg37
(dp1393
sg39
(dp1394
sg41
I654
sg42
g21
sg43
g21
sg44
I135
sg45
Vsystems
p1395
sg47
I135
sg48
I661
sbag0
(g23
g2
Ntp1396
Rp1397
(dp1398
g27
(dp1399
g29
Vof
p1400
sg31
VO
p1401
sg33
VIN
p1402
sg35
I48
ssg10
I136
sg36
g4
sg37
(dp1403
sg39
(dp1404
sg41
I662
sg42
g21
sg43
g21
sg44
I136
sg45
Vof
p1405
sg47
I136
sg48
I664
sbag0
(g23
g2
Ntp1406
Rp1407
(dp1408
g27
(dp1409
g29
Vwhich
p1410
sg31
VO
p1411
sg33
VWDT
p1412
sg35
I49
ssg10
I137
sg36
g4
sg37
(dp1413
sg39
(dp1414
sg41
I665
sg42
g21
sg43
g21
sg44
I137
sg45
Vwhich
p1415
sg47
I137
sg48
I670
sbag0
(g23
g2
Ntp1416
Rp1417
(dp1418
g27
(dp1419
g29
Vwe
p1420
sg31
VO
p1421
sg33
VPRP
p1422
sg35
I50
ssg10
I138
sg36
g4
sg37
(dp1423
sg39
(dp1424
sg41
I671
sg42
g21
sg43
g21
sg44
I138
sg45
Vwe
p1425
sg47
I138
sg48
I673
sbag0
(g23
g2
Ntp1426
Rp1427
(dp1428
g27
(dp1429
g29
Vbe
p1430
sg31
VO
p1431
sg33
VVBP
p1432
sg35
I51
ssg10
I139
sg36
g4
sg37
(dp1433
sg39
(dp1434
sg41
I674
sg42
g21
sg43
g21
sg44
I139
sg45
Vare
p1435
sg47
I139
sg48
I677
sbag0
(g23
g2
Ntp1436
Rp1437
(dp1438
g27
(dp1439
g29
Va
p1440
sg31
VO
p1441
sg33
VDT
p1442
sg35
I52
ssg10
I140
sg36
g4
sg37
(dp1443
sg39
(dp1444
sg41
I674
sg42
g21
sg43
g21
sg44
I140
sg45
Va
p1445
sg47
I140
sg48
I675
sbag0
(g23
g2
Ntp1446
Rp1447
(dp1448
g27
(dp1449
g29
Vpart
p1450
sg31
VO
p1451
sg33
VNN
p1452
sg35
I53
ssg10
I141
sg36
g4
sg37
(dp1453
sg39
(dp1454
sg41
I680
sg42
g21
sg43
g21
sg44
I141
sg45
Vpart
p1455
sg47
I141
sg48
I684
sbag0
(g23
g2
Ntp1456
Rp1457
(dp1458
g27
(dp1459
g29
V,
p1460
sg31
VO
p1461
sg33
V,
p1462
sg35
I54
ssg10
I142
sg36
g4
sg37
(dp1463
sg39
(dp1464
sg41
I684
sg42
g21
sg43
g21
sg44
I142
sg45
V,
p1465
sg47
I142
sg48
I685
sbag0
(g23
g2
Ntp1466
Rp1467
(dp1468
g27
(dp1469
g29
Vadversely
p1470
sg31
VO
p1471
sg33
VRB
p1472
sg35
I55
ssg10
I143
sg36
g4
sg37
(dp1473
sg39
(dp1474
sg41
I686
sg42
g21
sg43
g21
sg44
I143
sg45
Vadversely
p1475
sg47
I143
sg48
I695
sbag0
(g23
g2
Ntp1476
Rp1477
(dp1478
g27
(dp1479
g29
Vaffect
p1480
sg31
VO
p1481
sg33
VVB
p1482
sg35
I56
ssg10
I144
sg36
g4
sg37
(dp1483
sg39
(dp1484
sg41
I696
sg42
g21
sg43
g21
sg44
I144
sg45
Vaffect
p1485
sg47
I144
sg48
I702
sbag0
(g23
g2
Ntp1486
Rp1487
(dp1488
g27
(dp1489
g29
Vwe
p1490
sg31
VO
p1491
sg33
VPRP
p1492
sg35
I57
ssg10
I145
sg36
g4
sg37
(dp1493
sg39
(dp1494
sg41
I703
sg42
g21
sg43
g21
sg44
I145
sg45
Vus
p1495
sg47
I145
sg48
I705
sbag0
(g23
g2
Ntp1496
Rp1497
(dp1498
g27
(dp1499
g29
Vas
p1500
sg31
VO
p1501
sg33
VRB
p1502
sg35
I58
ssg10
I146
sg36
g4
sg37
(dp1503
sg39
(dp1504
sg41
I706
sg42
g21
sg43
g21
sg44
I146
sg45
Vas
p1505
sg47
I146
sg48
I708
sbag0
(g23
g2
Ntp1506
Rp1507
(dp1508
g27
(dp1509
g29
Vwell
p1510
sg31
VO
p1511
sg33
VRB
p1512
sg35
I59
ssg10
I147
sg36
g4
sg37
(dp1513
sg39
(dp1514
sg41
I709
sg42
g21
sg43
g21
sg44
I147
sg45
Vwell
p1515
sg47
I147
sg48
I713
sbag0
(g23
g2
Ntp1516
Rp1517
(dp1518
g27
(dp1519
g29
V,
p1520
sg31
VO
p1521
sg33
V,
p1522
sg35
I60
ssg10
I148
sg36
g4
sg37
(dp1523
sg39
(dp1524
sg41
I713
sg42
g21
sg43
g21
sg44
I148
sg45
V,
p1525
sg47
I148
sg48
I714
sbag0
(g23
g2
Ntp1526
Rp1527
(dp1528
g27
(dp1529
g29
V-lsb-
p1530
sg31
VO
p1531
sg33
V-LRB-
p1532
sg35
I61
ssg10
I149
sg36
g4
sg37
(dp1533
sg39
(dp1534
sg41
I714
sg42
g21
sg43
g21
sg44
I149
sg45
V[
p1535
sg47
I149
sg48
I715
sbag0
(g23
g2
Ntp1536
Rp1537
(dp1538
g27
(dp1539
g29
VREF
p1540
sg31
VO
p1541
sg33
VNNP
p1542
sg35
I62
ssg10
I150
sg36
g4
sg37
(dp1543
sg39
(dp1544
sg41
I715
sg42
g21
sg43
g21
sg44
I150
sg45
VREF
p1545
sg47
I150
sg48
I718
sbag0
(g23
g2
Ntp1546
Rp1547
(dp1548
g27
(dp1549
g29
V-rsb-
p1550
sg31
VO
p1551
sg33
V-RRB-
p1552
sg35
I63
ssg10
I151
sg36
g4
sg37
(dp1553
sg39
(dp1554
sg41
I718
sg42
g21
sg43
g21
sg44
I151
sg45
V]
p1555
sg47
I151
sg48
I719
sbag0
(g23
g2
Ntp1556
Rp1557
(dp1558
g27
(dp1559
g29
V-lsb-
p1560
sg31
VO
p1561
sg33
V-LRB-
p1562
sg35
I64
ssg10
I152
sg36
g4
sg37
(dp1563
sg39
(dp1564
sg41
I719
sg42
g21
sg43
g21
sg44
I152
sg45
V[
p1565
sg47
I152
sg48
I720
sbag0
(g23
g2
Ntp1566
Rp1567
(dp1568
g27
(dp1569
g29
Vref
p1570
sg31
VO
p1571
sg33
VNN
p1572
sg35
I65
ssg10
I153
sg36
g4
sg37
(dp1573
sg39
(dp1574
sg41
I720
sg42
g21
sg43
g21
sg44
I153
sg45
VREF
p1575
sg47
I153
sg48
I723
sbag0
(g23
g2
Ntp1576
Rp1577
(dp1578
g27
(dp1579
g29
V-rsb-
p1580
sg31
VO
p1581
sg33
V-RRB-
p1582
sg35
I66
ssg10
I154
sg36
g4
sg37
(dp1583
sg39
(dp1584
sg41
I723
sg42
g21
sg43
g21
sg44
I154
sg45
V]
p1585
sg47
I154
sg48
I724
sbag0
(g23
g2
Ntp1586
Rp1587
(dp1588
g27
(dp1589
g29
Vwhether
p1590
sg31
VO
p1591
sg33
VIN
p1592
sg35
I67
ssg10
I155
sg36
g4
sg37
(dp1593
sg39
(dp1594
sg41
I725
sg42
g21
sg43
g21
sg44
I155
sg45
Vwhether
p1595
sg47
I155
sg48
I732
sbag0
(g23
g2
Ntp1596
Rp1597
(dp1598
g27
(dp1599
g29
Vor
p1600
sg31
VO
p1601
sg33
VCC
p1602
sg35
I68
ssg10
I156
sg36
g4
sg37
(dp1603
sg39
(dp1604
sg41
I733
sg42
g21
sg43
g21
sg44
I156
sg45
Vor
p1605
sg47
I156
sg48
I735
sbag0
(g23
g2
Ntp1606
Rp1607
(dp1608
g27
(dp1609
g29
Vnot
p1610
sg31
VO
p1611
sg33
VRB
p1612
sg35
I69
ssg10
I157
sg36
g4
sg37
(dp1613
sg39
(dp1614
sg41
I736
sg42
g21
sg43
g21
sg44
I157
sg45
Vnot
p1615
sg47
I157
sg48
I739
sbag0
(g23
g2
Ntp1616
Rp1617
(dp1618
g27
(dp1619
g29
Vwe
p1620
sg31
VO
p1621
sg33
VPRP
p1622
sg35
I70
ssg10
I158
sg36
g4
sg37
(dp1623
sg39
(dp1624
sg41
I740
sg42
g21
sg43
g21
sg44
I158
sg45
Vwe
p1625
sg47
I158
sg48
I742
sbag0
(g23
g2
Ntp1626
Rp1627
(dp1628
g27
(dp1629
g29
Vmaintain
p1630
sg31
VO
p1631
sg33
VVBP
p1632
sg35
I71
ssg10
I159
sg36
g4
sg37
(dp1633
sg39
(dp1634
sg41
I743
sg42
g21
sg43
g21
sg44
I159
sg45
Vmaintain
p1635
sg47
I159
sg48
I751
sbag0
(g23
g2
Ntp1636
Rp1637
(dp1638
g27
(dp1639
g29
Va
p1640
sg31
VO
p1641
sg33
VDT
p1642
sg35
I72
ssg10
I160
sg36
g4
sg37
(dp1643
sg39
(dp1644
sg41
I744
sg42
g21
sg43
g21
sg44
I160
sg45
Va
p1645
sg47
I160
sg48
I745
sbag0
(g23
g2
Ntp1646
Rp1647
(dp1648
g27
(dp1649
g29
Vbiocentric
p1650
sg31
VO
p1651
sg33
VJJ
p1652
sg35
I73
ssg10
I161
sg36
g4
sg37
(dp1653
sg39
(dp1654
sg41
I754
sg42
g21
sg43
g21
sg44
I161
sg45
Vbiocentric
p1655
sg47
I161
sg48
I764
sbag0
(g23
g2
Ntp1656
Rp1657
(dp1658
g27
(dp1659
g29
Vworldview
p1660
sg31
VO
p1661
sg33
VNN
p1662
sg35
I74
ssg10
I162
sg36
g4
sg37
(dp1663
sg39
(dp1664
sg41
I765
sg42
g21
sg43
g21
sg44
I162
sg45
Vworldview
p1665
sg47
I162
sg48
I774
sbag0
(g23
g2
Ntp1666
Rp1667
(dp1668
g27
(dp1669
g29
V-lsb-
p1670
sg31
VO
p1671
sg33
V-LRB-
p1672
sg35
I75
ssg10
I163
sg36
g4
sg37
(dp1673
sg39
(dp1674
sg41
I775
sg42
g21
sg43
g21
sg44
I163
sg45
V[
p1675
sg47
I163
sg48
I776
sbag0
(g23
g2
Ntp1676
Rp1677
(dp1678
g27
(dp1679
g29
Vref
p1680
sg31
VO
p1681
sg33
VNN
p1682
sg35
I76
ssg10
I164
sg36
g4
sg37
(dp1683
sg39
(dp1684
sg41
I776
sg42
g21
sg43
g21
sg44
I164
sg45
VREF
p1685
sg47
I164
sg48
I779
sbag0
(g23
g2
Ntp1686
Rp1687
(dp1688
g27
(dp1689
g29
V-rsb-
p1690
sg31
VO
p1691
sg33
V-RRB-
p1692
sg35
I77
ssg10
I165
sg36
g4
sg37
(dp1693
sg39
(dp1694
sg41
I779
sg42
g21
sg43
g21
sg44
I165
sg45
V]
p1695
sg47
I165
sg48
I780
sbag0
(g23
g2
Ntp1696
Rp1697
(dp1698
g27
(dp1699
g29
V.
p1700
sg31
VO
p1701
sg33
V.
p1702
sg35
I78
ssg10
I166
sg36
g4
sg37
(dp1703
sg39
(dp1704
sg41
I780
sg42
g21
sg43
g21
sg44
I166
sg45
V.
p1705
sg47
I166
sg48
I781
sbag0
(g23
g2
Ntp1706
Rp1707
(dp1708
g27
(dp1709
g29
Vbiocentrist
p1710
sg31
VMISC
p1711
sg33
VNNS
p1712
sg35
I1
ssg10
I167
sg36
g4
sg37
(dp1713
sg39
(dp1714
sg41
I782
sg42
g21
sg43
g21
sg44
I167
sg45
VBiocentrists
p1715
sg47
I167
sg48
I794
sbag0
(g23
g2
Ntp1716
Rp1717
(dp1718
g27
(dp1719
g29
Vbelieve
p1720
sg31
VO
p1721
sg33
VVBP
p1722
sg35
I2
ssg10
I168
sg36
g4
sg37
(dp1723
sg39
(dp1724
sg41
I795
sg42
g21
sg43
g21
sg44
I168
sg45
Vbelieve
p1725
sg47
I168
sg48
I802
sbag0
(g23
g2
Ntp1726
Rp1727
(dp1728
g27
(dp1729
g29
Vthat
p1730
sg31
VO
p1731
sg33
VIN
p1732
sg35
I3
ssg10
I169
sg36
g4
sg37
(dp1733
sg39
(dp1734
sg41
I803
sg42
g21
sg43
g21
sg44
I169
sg45
Vthat
p1735
sg47
I169
sg48
I807
sbag0
(g23
g2
Ntp1736
Rp1737
(dp1738
g27
(dp1739
g29
Vall
p1740
sg31
VO
p1741
sg33
VDT
p1742
sg35
I4
ssg10
I170
sg36
g4
sg37
(dp1743
sg39
(dp1744
sg41
I808
sg42
g21
sg43
g21
sg44
I170
sg45
Vall
p1745
sg47
I170
sg48
I811
sbag0
(g23
g2
Ntp1746
Rp1747
(dp1748
g27
(dp1749
g29
Vspecies
p1750
sg31
VO
p1751
sg33
VNNS
p1752
sg35
I5
ssg10
I171
sg36
g4
sg37
(dp1753
sg39
(dp1754
sg41
I812
sg42
g21
sg43
g21
sg44
I171
sg45
Vspecies
p1755
sg47
I171
sg48
I819
sbag0
(g23
g2
Ntp1756
Rp1757
(dp1758
g27
(dp1759
g29
Vhave
p1760
sg31
VO
p1761
sg33
VVBP
p1762
sg35
I6
ssg10
I172
sg36
g4
sg37
(dp1763
sg39
(dp1764
sg41
I820
sg42
g21
sg43
g21
sg44
I172
sg45
Vhave
p1765
sg47
I172
sg48
I824
sbag0
(g23
g2
Ntp1766
Rp1767
(dp1768
g27
(dp1769
g29
Vinherent
p1770
sg31
VO
p1771
sg33
VJJ
p1772
sg35
I7
ssg10
I173
sg36
g4
sg37
(dp1773
sg39
(dp1774
sg41
I825
sg42
g21
sg43
g21
sg44
I173
sg45
Vinherent
p1775
sg47
I173
sg48
I833
sbag0
(g23
g2
Ntp1776
Rp1777
(dp1778
g27
(dp1779
g29
Vvalue
p1780
sg31
VO
p1781
sg33
VNN
p1782
sg35
I8
ssg10
I174
sg36
g4
sg37
(dp1783
sg39
(dp1784
sg41
I834
sg42
g21
sg43
g21
sg44
I174
sg45
Vvalue
p1785
sg47
I174
sg48
I839
sbag0
(g23
g2
Ntp1786
Rp1787
(dp1788
g27
(dp1789
g29
V,
p1790
sg31
VO
p1791
sg33
V,
p1792
sg35
I9
ssg10
I175
sg36
g4
sg37
(dp1793
sg39
(dp1794
sg41
I839
sg42
g21
sg43
g21
sg44
I175
sg45
V,
p1795
sg47
I175
sg48
I840
sbag0
(g23
g2
Ntp1796
Rp1797
(dp1798
g27
(dp1799
g29
Vand
p1800
sg31
VO
p1801
sg33
VCC
p1802
sg35
I10
ssg10
I176
sg36
g4
sg37
(dp1803
sg39
(dp1804
sg41
I841
sg42
g21
sg43
g21
sg44
I176
sg45
Vand
p1805
sg47
I176
sg48
I844
sbag0
(g23
g2
Ntp1806
Rp1807
(dp1808
g27
(dp1809
g29
Vthat
p1810
sg31
VO
p1811
sg33
VIN
p1812
sg35
I11
ssg10
I177
sg36
g4
sg37
(dp1813
sg39
(dp1814
sg41
I845
sg42
g21
sg43
g21
sg44
I177
sg45
Vthat
p1815
sg47
I177
sg48
I849
sbag0
(g23
g2
Ntp1816
Rp1817
(dp1818
g27
(dp1819
g29
Vhuman
p1820
sg31
VO
p1821
sg33
VNNS
p1822
sg35
I12
ssg10
I178
sg36
g4
sg37
(dp1823
sg39
(dp1824
sg41
I850
sg42
g21
sg43
g21
sg44
I178
sg45
Vhumans
p1825
sg47
I178
sg48
I856
sbag0
(g23
g2
Ntp1826
Rp1827
(dp1828
g27
(dp1829
g29
Vbe
p1830
sg31
VO
p1831
sg33
VVBP
p1832
sg35
I13
ssg10
I179
sg36
g4
sg37
(dp1833
sg39
(dp1834
sg41
I857
sg42
g21
sg43
g21
sg44
I179
sg45
Vare
p1835
sg47
I179
sg48
I860
sbag0
(g23
g2
Ntp1836
Rp1837
(dp1838
g27
(dp1839
g29
Vnot
p1840
sg31
VO
p1841
sg33
VRB
p1842
sg35
I14
ssg10
I180
sg36
g4
sg37
(dp1843
sg39
(dp1844
sg41
I861
sg42
g21
sg43
g21
sg44
I180
sg45
Vnot
p1845
sg47
I180
sg48
I864
sbag0
(g23
g2
Ntp1846
Rp1847
(dp1848
g27
(dp1849
g29
V``
p1850
sg31
VO
p1851
sg33
V``
p1852
sg35
I15
ssg10
I181
sg36
g4
sg37
(dp1853
sg39
(dp1854
sg41
I865
sg42
g21
sg43
g21
sg44
I181
sg45
g238
sg47
I181
sg48
I866
sbag0
(g23
g2
Ntp1855
Rp1856
(dp1857
g27
(dp1858
g29
Vsuperior
p1859
sg31
VO
p1860
sg33
VJJ
p1861
sg35
I16
ssg10
I182
sg36
g4
sg37
(dp1862
sg39
(dp1863
sg41
I866
sg42
g21
sg43
g21
sg44
I182
sg45
Vsuperior
p1864
sg47
I182
sg48
I874
sbag0
(g23
g2
Ntp1865
Rp1866
(dp1867
g27
(dp1868
g29
V''
p1869
sg31
VO
p1870
sg33
V''
p1871
sg35
I17
ssg10
I183
sg36
g4
sg37
(dp1872
sg39
(dp1873
sg41
I874
sg42
g21
sg43
g21
sg44
I183
sg45
g238
sg47
I183
sg48
I875
sbag0
(g23
g2
Ntp1874
Rp1875
(dp1876
g27
(dp1877
g29
Vin
p1878
sg31
VO
p1879
sg33
VIN
p1880
sg35
I18
ssg10
I184
sg36
g4
sg37
(dp1881
sg39
(dp1882
sg41
I876
sg42
g21
sg43
g21
sg44
I184
sg45
Vin
p1883
sg47
I184
sg48
I878
sbag0
(g23
g2
Ntp1884
Rp1885
(dp1886
g27
(dp1887
g29
Va
p1888
sg31
VO
p1889
sg33
VDT
p1890
sg35
I19
ssg10
I185
sg36
g4
sg37
(dp1891
sg39
(dp1892
sg41
I879
sg42
g21
sg43
g21
sg44
I185
sg45
Va
p1893
sg47
I185
sg48
I880
sbag0
(g23
g2
Ntp1894
Rp1895
(dp1896
g27
(dp1897
g29
Vmoral
p1898
sg31
VO
p1899
sg33
VJJ
p1900
sg35
I20
ssg10
I186
sg36
g4
sg37
(dp1901
sg39
(dp1902
sg41
I881
sg42
g21
sg43
g21
sg44
I186
sg45
Vmoral
p1903
sg47
I186
sg48
I886
sbag0
(g23
g2
Ntp1904
Rp1905
(dp1906
g27
(dp1907
g29
Vor
p1908
sg31
VO
p1909
sg33
VCC
p1910
sg35
I21
ssg10
I187
sg36
g4
sg37
(dp1911
sg39
(dp1912
sg41
I882
sg42
g21
sg43
g21
sg44
I187
sg45
Vor
p1913
sg47
I187
sg48
I884
sbag0
(g23
g2
Ntp1914
Rp1915
(dp1916
g27
(dp1917
g29
Vethical
p1918
sg31
VO
p1919
sg33
VJJ
p1920
sg35
I22
ssg10
I188
sg36
g4
sg37
(dp1921
sg39
(dp1922
sg41
I890
sg42
g21
sg43
g21
sg44
I188
sg45
Vethical
p1923
sg47
I188
sg48
I897
sbag0
(g23
g2
Ntp1924
Rp1925
(dp1926
g27
(dp1927
g29
Vsense
p1928
sg31
VO
p1929
sg33
VNN
p1930
sg35
I23
ssg10
I189
sg36
g4
sg37
(dp1931
sg39
(dp1932
sg41
I898
sg42
g21
sg43
g21
sg44
I189
sg45
Vsense
p1933
sg47
I189
sg48
I903
sbag0
(g23
g2
Ntp1934
Rp1935
(dp1936
g27
(dp1937
g29
V.
p1938
sg31
VO
p1939
sg33
V.
p1940
sg35
I24
ssg10
I190
sg36
g4
sg37
(dp1941
sg39
(dp1942
sg41
I903
sg42
g21
sg43
g21
sg44
I190
sg45
V.
p1943
sg47
I190
sg48
I904
sbag0
(g23
g2
Ntp1944
Rp1945
(dp1946
g27
(dp1947
g29
VPaul
p1948
sg31
VPERSON
p1949
sg33
VNNP
p1950
sg35
I1
ssg10
I191
sg36
g4
sg37
(dp1951
sg39
(dp1952
sg41
I907
sg42
g21
sg43
g21
sg44
I191
sg45
VPaul
p1953
sg47
I191
sg48
I911
sbag0
(g23
g2
Ntp1954
Rp1955
(dp1956
g27
(dp1957
g29
VTaylor
p1958
sg31
VPERSON
p1959
sg33
VNNP
p1960
sg35
I2
ssg10
I192
sg36
g4
sg37
(dp1961
sg39
(dp1962
sg41
I912
sg42
g21
sg43
g21
sg44
I192
sg45
VTaylor
p1963
sg47
I192
sg48
I918
sbag0
(g23
g2
Ntp1964
Rp1965
(dp1966
g27
(dp1967
g29
V,
p1968
sg31
VO
p1969
sg33
V,
p1970
sg35
I3
ssg10
I193
sg36
g4
sg37
(dp1971
sg39
(dp1972
sg41
I918
sg42
g21
sg43
g21
sg44
I193
sg45
V,
p1973
sg47
I193
sg48
I919
sbag0
(g23
g2
Ntp1974
Rp1975
(dp1976
g27
(dp1977
g29
Vone
p1978
sg31
VNUMBER
p1979
sg33
VCD
p1980
sg35
I4
ssg10
I194
sg36
g4
sg37
(dp1981
sg39
(dp1982
sg41
I920
sg42
g21
sg43
g21
sg44
I194
sg45
Vone
p1983
sg47
I194
sg48
I923
sbag0
(g23
g2
Ntp1984
Rp1985
(dp1986
g27
(dp1987
g29
Vof
p1988
sg31
VO
p1989
sg33
VIN
p1990
sg35
I5
ssg10
I195
sg36
g4
sg37
(dp1991
sg39
(dp1992
sg41
I924
sg42
g21
sg43
g21
sg44
I195
sg45
Vof
p1993
sg47
I195
sg48
I926
sbag0
(g23
g2
Ntp1994
Rp1995
(dp1996
g27
(dp1997
g29
Vthe
p1998
sg31
VO
p1999
sg33
VDT
p2000
sg35
I6
ssg10
I196
sg36
g4
sg37
(dp2001
sg39
(dp2002
sg41
I927
sg42
g21
sg43
g21
sg44
I196
sg45
Vthe
p2003
sg47
I196
sg48
I930
sbag0
(g23
g2
Ntp2004
Rp2005
(dp2006
g27
(dp2007
g29
Vmajor
p2008
sg31
VO
p2009
sg33
VJJ
p2010
sg35
I7
ssg10
I197
sg36
g4
sg37
(dp2011
sg39
(dp2012
sg41
I931
sg42
g21
sg43
g21
sg44
I197
sg45
Vmajor
p2013
sg47
I197
sg48
I936
sbag0
(g23
g2
Ntp2014
Rp2015
(dp2016
g27
(dp2017
g29
V-lsb-
p2018
sg31
VO
p2019
sg33
V-LRB-
p2020
sg35
I8
ssg10
I198
sg36
g4
sg37
(dp2021
sg39
(dp2022
sg41
I936
sg42
g21
sg43
g21
sg44
I198
sg45
V[
p2023
sg47
I198
sg48
I937
sbag0
(g23
g2
Ntp2024
Rp2025
(dp2026
g27
(dp2027
g29
Vref
p2028
sg31
VO
p2029
sg33
VNN
p2030
sg35
I9
ssg10
I199
sg36
g4
sg37
(dp2031
sg39
(dp2032
sg41
I937
sg42
g21
sg43
g21
sg44
I199
sg45
VREF
p2033
sg47
I199
sg48
I940
sbag0
(g23
g2
Ntp2034
Rp2035
(dp2036
g27
(dp2037
g29
V-rsb-
p2038
sg31
VO
p2039
sg33
V-RRB-
p2040
sg35
I10
ssg10
I200
sg36
g4
sg37
(dp2041
sg39
(dp2042
sg41
I940
sg42
g21
sg43
g21
sg44
I200
sg45
V]
p2043
sg47
I200
sg48
I941
sbag0
(g23
g2
Ntp2044
Rp2045
(dp2046
g27
(dp2047
g29
Vearly
p2048
sg31
VO
p2049
sg33
VJJ
p2050
sg35
I11
ssg10
I201
sg36
g4
sg37
(dp2051
sg39
(dp2052
sg41
I942
sg42
g21
sg43
g21
sg44
I201
sg45
Vearly
p2053
sg47
I201
sg48
I947
sbag0
(g23
g2
Ntp2054
Rp2055
(dp2056
g27
(dp2057
g29
Vproponent
p2058
sg31
VO
p2059
sg33
VNNS
p2060
sg35
I12
ssg10
I202
sg36
g4
sg37
(dp2061
sg39
(dp2062
sg41
I948
sg42
g21
sg43
g21
sg44
I202
sg45
Vproponents
p2063
sg47
I202
sg48
I958
sbag0
(g23
g2
Ntp2064
Rp2065
(dp2066
g27
(dp2067
g29
Vof
p2068
sg31
VO
p2069
sg33
VIN
p2070
sg35
I13
ssg10
I203
sg36
g4
sg37
(dp2071
sg39
(dp2072
sg41
I959
sg42
g21
sg43
g21
sg44
I203
sg45
Vof
p2073
sg47
I203
sg48
I961
sbag0
(g23
g2
Ntp2074
Rp2075
(dp2076
g27
(dp2077
g29
Vbiocentrism
p2078
sg31
VO
p2079
sg33
VNN
p2080
sg35
I14
ssg10
I204
sg36
g4
sg37
(dp2081
sg39
(dp2082
sg41
I962
sg42
g21
sg43
g21
sg44
I204
sg45
Vbiocentrism
p2083
sg47
I204
sg48
I973
sbag0
(g23
g2
Ntp2084
Rp2085
(dp2086
g27
(dp2087
g29
V,
p2088
sg31
VO
p2089
sg33
V,
p2090
sg35
I15
ssg10
I205
sg36
g4
sg37
(dp2091
sg39
(dp2092
sg41
I973
sg42
g21
sg43
g21
sg44
I205
sg45
V,
p2093
sg47
I205
sg48
I974
sbag0
(g23
g2
Ntp2094
Rp2095
(dp2096
g27
(dp2097
g29
Vmaintain
p2098
sg31
VO
p2099
sg33
VVBZ
p2100
sg35
I16
ssg10
I206
sg36
g4
sg37
(dp2101
sg39
(dp2102
sg41
I975
sg42
g21
sg43
g21
sg44
I206
sg45
Vmaintains
p2103
sg47
I206
sg48
I984
sbag0
(g23
g2
Ntp2104
Rp2105
(dp2106
g27
(dp2107
g29
Vthat
p2108
sg31
VO
p2109
sg33
VIN
p2110
sg35
I17
ssg10
I207
sg36
g4
sg37
(dp2111
sg39
(dp2112
sg41
I985
sg42
g21
sg43
g21
sg44
I207
sg45
Vthat
p2113
sg47
I207
sg48
I989
sbag0
(g23
g2
Ntp2114
Rp2115
(dp2116
g27
(dp2117
g29
Vbiocentrism
p2118
sg31
VO
p2119
sg33
VNN
p2120
sg35
I18
ssg10
I208
sg36
g4
sg37
(dp2121
sg39
(dp2122
sg41
I990
sg42
g21
sg43
g21
sg44
I208
sg45
Vbiocentrism
p2123
sg47
I208
sg48
I1001
sbag0
(g23
g2
Ntp2124
Rp2125
(dp2126
g27
(dp2127
g29
Vbe
p2128
sg31
VO
p2129
sg33
VVBZ
p2130
sg35
I19
ssg10
I209
sg36
g4
sg37
(dp2131
sg39
(dp2132
sg41
I998
sg42
g21
sg43
g21
sg44
I209
sg45
Vis
p2133
sg47
I209
sg48
I1000
sbag0
(g23
g2
Ntp2134
Rp2135
(dp2136
g27
(dp2137
g29
Va
p2138
sg31
VO
p2139
sg33
VDT
p2140
sg35
I20
ssg10
I210
sg36
g4
sg37
(dp2141
sg39
(dp2142
sg41
I1005
sg42
g21
sg43
g21
sg44
I210
sg45
Van
p2143
sg47
I210
sg48
I1007
sbag0
(g23
g2
Ntp2144
Rp2145
(dp2146
g27
(dp2147
g29
V``
p2148
sg31
VO
p2149
sg33
V``
p2150
sg35
I21
ssg10
I211
sg36
g4
sg37
(dp2151
sg39
(dp2152
sg41
I1008
sg42
g21
sg43
g21
sg44
I211
sg45
g238
sg47
I211
sg48
I1009
sbag0
(g23
g2
Ntp2153
Rp2154
(dp2155
g27
(dp2156
g29
Vattitude
p2157
sg31
VO
p2158
sg33
VNN
p2159
sg35
I22
ssg10
I212
sg36
g4
sg37
(dp2160
sg39
(dp2161
sg41
I1009
sg42
g21
sg43
g21
sg44
I212
sg45
Vattitude
p2162
sg47
I212
sg48
I1017
sbag0
(g23
g2
Ntp2163
Rp2164
(dp2165
g27
(dp2166
g29
Vof
p2167
sg31
VO
p2168
sg33
VIN
p2169
sg35
I23
ssg10
I213
sg36
g4
sg37
(dp2170
sg39
(dp2171
sg41
I1018
sg42
g21
sg43
g21
sg44
I213
sg45
Vof
p2172
sg47
I213
sg48
I1020
sbag0
(g23
g2
Ntp2173
Rp2174
(dp2175
g27
(dp2176
g29
Vrespect
p2177
sg31
VO
p2178
sg33
VNN
p2179
sg35
I24
ssg10
I214
sg36
g4
sg37
(dp2180
sg39
(dp2181
sg41
I1021
sg42
g21
sg43
g21
sg44
I214
sg45
Vrespect
p2182
sg47
I214
sg48
I1028
sbag0
(g23
g2
Ntp2183
Rp2184
(dp2185
g27
(dp2186
g29
Vfor
p2187
sg31
VO
p2188
sg33
VIN
p2189
sg35
I25
ssg10
I215
sg36
g4
sg37
(dp2190
sg39
(dp2191
sg41
I1029
sg42
g21
sg43
g21
sg44
I215
sg45
Vfor
p2192
sg47
I215
sg48
I1032
sbag0
(g23
g2
Ntp2193
Rp2194
(dp2195
g27
(dp2196
g29
Vnature
p2197
sg31
VO
p2198
sg33
VNN
p2199
sg35
I26
ssg10
I216
sg36
g4
sg37
(dp2200
sg39
(dp2201
sg41
I1033
sg42
g21
sg43
g21
sg44
I216
sg45
Vnature
p2202
sg47
I216
sg48
I1039
sbag0
(g23
g2
Ntp2203
Rp2204
(dp2205
g27
(dp2206
g29
V''
p2207
sg31
VO
p2208
sg33
V''
p2209
sg35
I27
ssg10
I217
sg36
g4
sg37
(dp2210
sg39
(dp2211
sg41
I1039
sg42
g21
sg43
g21
sg44
I217
sg45
g238
sg47
I217
sg48
I1040
sbag0
(g23
g2
Ntp2212
Rp2213
(dp2214
g27
(dp2215
g29
V,
p2216
sg31
VO
p2217
sg33
V,
p2218
sg35
I28
ssg10
I218
sg36
g4
sg37
(dp2219
sg39
(dp2220
sg41
I1040
sg42
g21
sg43
g21
sg44
I218
sg45
V,
p2221
sg47
I218
sg48
I1041
sbag0
(g23
g2
Ntp2222
Rp2223
(dp2224
g27
(dp2225
g29
Vwhereby
p2226
sg31
VO
p2227
sg33
VWRB
p2228
sg35
I29
ssg10
I219
sg36
g4
sg37
(dp2229
sg39
(dp2230
sg41
I1042
sg42
g21
sg43
g21
sg44
I219
sg45
Vwhereby
p2231
sg47
I219
sg48
I1049
sbag0
(g23
g2
Ntp2232
Rp2233
(dp2234
g27
(dp2235
g29
Vone
p2236
sg31
VNUMBER
p2237
sg33
VCD
p2238
sg35
I30
ssg10
I220
sg36
g4
sg37
(dp2239
sg39
(dp2240
sg41
I1050
sg42
g21
sg43
g21
sg44
I220
sg45
Vone
p2241
sg47
I220
sg48
I1053
sbag0
(g23
g2
Ntp2242
Rp2243
(dp2244
g27
(dp2245
g29
Vattempt
p2246
sg31
VO
p2247
sg33
VNNS
p2248
sg35
I31
ssg10
I221
sg36
g4
sg37
(dp2249
sg39
(dp2250
sg41
I1054
sg42
g21
sg43
g21
sg44
I221
sg45
Vattempts
p2251
sg47
I221
sg48
I1062
sbag0
(g23
g2
Ntp2252
Rp2253
(dp2254
g27
(dp2255
g29
Vto
p2256
sg31
VO
p2257
sg33
VTO
p2258
sg35
I32
ssg10
I222
sg36
g4
sg37
(dp2259
sg39
(dp2260
sg41
I1063
sg42
g21
sg43
g21
sg44
I222
sg45
Vto
p2261
sg47
I222
sg48
I1065
sbag0
(g23
g2
Ntp2262
Rp2263
(dp2264
g27
(dp2265
g29
Vmake
p2266
sg31
VO
p2267
sg33
VVB
p2268
sg35
I33
ssg10
I223
sg36
g4
sg37
(dp2269
sg39
(dp2270
sg41
I1066
sg42
g21
sg43
g21
sg44
I223
sg45
Vmake
p2271
sg47
I223
sg48
I1070
sbag0
(g23
g2
Ntp2272
Rp2273
(dp2274
g27
(dp2275
g29
Va
p2276
sg31
VO
p2277
sg33
VDT
p2278
sg35
I34
ssg10
I224
sg36
g4
sg37
(dp2279
sg39
(dp2280
sg41
I1071
sg42
g21
sg43
g21
sg44
I224
sg45
Van
p2281
sg47
I224
sg48
I1073
sbag0
(g23
g2
Ntp2282
Rp2283
(dp2284
g27
(dp2285
g29
Veffort
p2286
sg31
VO
p2287
sg33
VNN
p2288
sg35
I35
ssg10
I225
sg36
g4
sg37
(dp2289
sg39
(dp2290
sg41
I1074
sg42
g21
sg43
g21
sg44
I225
sg45
Veffort
p2291
sg47
I225
sg48
I1080
sbag0
(g23
g2
Ntp2292
Rp2293
(dp2294
g27
(dp2295
g29
Vto
p2296
sg31
VO
p2297
sg33
VTO
p2298
sg35
I36
ssg10
I226
sg36
g4
sg37
(dp2299
sg39
(dp2300
sg41
I1081
sg42
g21
sg43
g21
sg44
I226
sg45
Vto
p2301
sg47
I226
sg48
I1083
sbag0
(g23
g2
Ntp2302
Rp2303
(dp2304
g27
(dp2305
g29
Vlive
p2306
sg31
VO
p2307
sg33
VVB
p2308
sg35
I37
ssg10
I227
sg36
g4
sg37
(dp2309
sg39
(dp2310
sg41
I1084
sg42
g21
sg43
g21
sg44
I227
sg45
Vlive
p2311
sg47
I227
sg48
I1088
sbag0
(g23
g2
Ntp2312
Rp2313
(dp2314
g27
(dp2315
g29
Vone
p2316
sg31
VNUMBER
p2317
sg33
VCD
p2318
sg35
I38
ssg10
I228
sg36
g4
sg37
(dp2319
sg39
(dp2320
sg41
I1089
sg42
g21
sg43
g21
sg44
I228
sg45
Vone
p2321
sg47
I228
sg48
I1092
sbag0
(g23
g2
Ntp2322
Rp2323
(dp2324
g27
(dp2325
g29
V's
p2326
sg31
VO
p2327
sg33
VPOS
p2328
sg35
I39
ssg10
I229
sg36
g4
sg37
(dp2329
sg39
(dp2330
sg41
I1092
sg42
g21
sg43
g21
sg44
I229
sg45
V's
p2331
sg47
I229
sg48
I1094
sbag0
(g23
g2
Ntp2332
Rp2333
(dp2334
g27
(dp2335
g29
Vlife
p2336
sg31
VO
p2337
sg33
VNN
p2338
sg35
I40
ssg10
I230
sg36
g4
sg37
(dp2339
sg39
(dp2340
sg41
I1095
sg42
g21
sg43
g21
sg44
I230
sg45
Vlife
p2341
sg47
I230
sg48
I1099
sbag0
(g23
g2
Ntp2342
Rp2343
(dp2344
g27
(dp2345
g29
Vin
p2346
sg31
VO
p2347
sg33
VIN
p2348
sg35
I41
ssg10
I231
sg36
g4
sg37
(dp2349
sg39
(dp2350
sg41
I1100
sg42
g21
sg43
g21
sg44
I231
sg45
Vin
p2351
sg47
I231
sg48
I1102
sbag0
(g23
g2
Ntp2352
Rp2353
(dp2354
g27
(dp2355
g29
Va
p2356
sg31
VO
p2357
sg33
VDT
p2358
sg35
I42
ssg10
I232
sg36
g4
sg37
(dp2359
sg39
(dp2360
sg41
I1103
sg42
g21
sg43
g21
sg44
I232
sg45
Va
p2361
sg47
I232
sg48
I1104
sbag0
(g23
g2
Ntp2362
Rp2363
(dp2364
g27
(dp2365
g29
Vway
p2366
sg31
VO
p2367
sg33
VNN
p2368
sg35
I43
ssg10
I233
sg36
g4
sg37
(dp2369
sg39
(dp2370
sg41
I1105
sg42
g21
sg43
g21
sg44
I233
sg45
Vway
p2371
sg47
I233
sg48
I1108
sbag0
(g23
g2
Ntp2372
Rp2373
(dp2374
g27
(dp2375
g29
Vthat
p2376
sg31
VO
p2377
sg33
VIN
p2378
sg35
I44
ssg10
I234
sg36
g4
sg37
(dp2379
sg39
(dp2380
sg41
I1109
sg42
g21
sg43
g21
sg44
I234
sg45
Vthat
p2381
sg47
I234
sg48
I1113
sbag0
(g23
g2
Ntp2382
Rp2383
(dp2384
g27
(dp2385
g29
Vrespect
p2386
sg31
VO
p2387
sg33
VVBZ
p2388
sg35
I45
ssg10
I235
sg36
g4
sg37
(dp2389
sg39
(dp2390
sg41
I1114
sg42
g21
sg43
g21
sg44
I235
sg45
Vrespects
p2391
sg47
I235
sg48
I1122
sbag0
(g23
g2
Ntp2392
Rp2393
(dp2394
g27
(dp2395
g29
Vthe
p2396
sg31
VO
p2397
sg33
VDT
p2398
sg35
I46
ssg10
I236
sg36
g4
sg37
(dp2399
sg39
(dp2400
sg41
I1123
sg42
g21
sg43
g21
sg44
I236
sg45
Vthe
p2401
sg47
I236
sg48
I1126
sbag0
(g23
g2
Ntp2402
Rp2403
(dp2404
g27
(dp2405
g29
Vwelfare
p2406
sg31
VO
p2407
sg33
VNN
p2408
sg35
I47
ssg10
I237
sg36
g4
sg37
(dp2409
sg39
(dp2410
sg41
I1127
sg42
g21
sg43
g21
sg44
I237
sg45
Vwelfare
p2411
sg47
I237
sg48
I1134
sbag0
(g23
g2
Ntp2412
Rp2413
(dp2414
g27
(dp2415
g29
Vand
p2416
sg31
VO
p2417
sg33
VCC
p2418
sg35
I48
ssg10
I238
sg36
g4
sg37
(dp2419
sg39
(dp2420
sg41
I1135
sg42
g21
sg43
g21
sg44
I238
sg45
Vand
p2421
sg47
I238
sg48
I1138
sbag0
(g23
g2
Ntp2422
Rp2423
(dp2424
g27
(dp2425
g29
Vinherent
p2426
sg31
VO
p2427
sg33
VJJ
p2428
sg35
I49
ssg10
I239
sg36
g4
sg37
(dp2429
sg39
(dp2430
sg41
I1139
sg42
g21
sg43
g21
sg44
I239
sg45
Vinherent
p2431
sg47
I239
sg48
I1147
sbag0
(g23
g2
Ntp2432
Rp2433
(dp2434
g27
(dp2435
g29
Vworth
p2436
sg31
VO
p2437
sg33
VNN
p2438
sg35
I50
ssg10
I240
sg36
g4
sg37
(dp2439
sg39
(dp2440
sg41
I1148
sg42
g21
sg43
g21
sg44
I240
sg45
Vworth
p2441
sg47
I240
sg48
I1153
sbag0
(g23
g2
Ntp2442
Rp2443
(dp2444
g27
(dp2445
g29
Vof
p2446
sg31
VO
p2447
sg33
VIN
p2448
sg35
I51
ssg10
I241
sg36
g4
sg37
(dp2449
sg39
(dp2450
sg41
I1154
sg42
g21
sg43
g21
sg44
I241
sg45
Vof
p2451
sg47
I241
sg48
I1156
sbag0
(g23
g2
Ntp2452
Rp2453
(dp2454
g27
(dp2455
g29
Vall
p2456
sg31
VO
p2457
sg33
VDT
p2458
sg35
I52
ssg10
I242
sg36
g4
sg37
(dp2459
sg39
(dp2460
sg41
I1157
sg42
g21
sg43
g21
sg44
I242
sg45
Vall
p2461
sg47
I242
sg48
I1160
sbag0
(g23
g2
Ntp2462
Rp2463
(dp2464
g27
(dp2465
g29
Vlive
p2466
sg31
VO
p2467
sg33
VVBG
p2468
sg35
I53
ssg10
I243
sg36
g4
sg37
(dp2469
sg39
(dp2470
sg41
I1161
sg42
g21
sg43
g21
sg44
I243
sg45
Vliving
p2471
sg47
I243
sg48
I1167
sbag0
(g23
g2
Ntp2472
Rp2473
(dp2474
g27
(dp2475
g29
Vcreature
p2476
sg31
VO
p2477
sg33
VNNS
p2478
sg35
I54
ssg10
I244
sg36
g4
sg37
(dp2479
sg39
(dp2480
sg41
I1168
sg42
g21
sg43
g21
sg44
I244
sg45
Vcreatures
p2481
sg47
I244
sg48
I1177
sbag0
(g23
g2
Ntp2482
Rp2483
(dp2484
g27
(dp2485
g29
V-lsb-
p2486
sg31
VO
p2487
sg33
V-LRB-
p2488
sg35
I55
ssg10
I245
sg36
g4
sg37
(dp2489
sg39
(dp2490
sg41
I1178
sg42
g21
sg43
g21
sg44
I245
sg45
V[
p2491
sg47
I245
sg48
I1179
sbag0
(g23
g2
Ntp2492
Rp2493
(dp2494
g27
(dp2495
g29
Vref
p2496
sg31
VO
p2497
sg33
VNN
p2498
sg35
I56
ssg10
I246
sg36
g4
sg37
(dp2499
sg39
(dp2500
sg41
I1179
sg42
g21
sg43
g21
sg44
I246
sg45
VREF
p2501
sg47
I246
sg48
I1182
sbag0
(g23
g2
Ntp2502
Rp2503
(dp2504
g27
(dp2505
g29
V-rsb-
p2506
sg31
VO
p2507
sg33
V-RRB-
p2508
sg35
I57
ssg10
I247
sg36
g4
sg37
(dp2509
sg39
(dp2510
sg41
I1182
sg42
g21
sg43
g21
sg44
I247
sg45
V]
p2511
sg47
I247
sg48
I1183
sbag0
(g23
g2
Ntp2512
Rp2513
(dp2514
g27
(dp2515
g29
V.
p2516
sg31
VO
p2517
sg33
V.
p2518
sg35
I58
ssg10
I248
sg36
g4
sg37
(dp2519
sg39
(dp2520
sg41
I1183
sg42
g21
sg43
g21
sg44
I248
sg45
V.
p2521
sg47
I248
sg48
I1184
sbag0
(g23
g2
Ntp2522
Rp2523
(dp2524
g27
(dp2525
g29
VTaylor
p2526
sg31
VPERSON
p2527
sg33
VNNP
p2528
sg35
I1
ssg10
I249
sg36
g4
sg37
(dp2529
sg39
(dp2530
sg41
I1185
sg42
g21
sg43
g21
sg44
I249
sg45
VTaylor
p2531
sg47
I249
sg48
I1191
sbag0
(g23
g2
Ntp2532
Rp2533
(dp2534
g27
(dp2535
g29
Vstate
p2536
sg31
VO
p2537
sg33
VVBZ
p2538
sg35
I2
ssg10
I250
sg36
g4
sg37
(dp2539
sg39
(dp2540
sg41
I1192
sg42
g21
sg43
g21
sg44
I250
sg45
Vstates
p2541
sg47
I250
sg48
I1198
sbag0
(g23
g2
Ntp2542
Rp2543
(dp2544
g27
(dp2545
g29
Vthat
p2546
sg31
VO
p2547
sg33
VIN
p2548
sg35
I3
ssg10
I251
sg36
g4
sg37
(dp2549
sg39
(dp2550
sg41
I1199
sg42
g21
sg43
g21
sg44
I251
sg45
Vthat
p2551
sg47
I251
sg48
I1203
sbag0
(g23
g2
Ntp2552
Rp2553
(dp2554
g27
(dp2555
g29
V:
p2556
sg31
VO
p2557
sg33
V:
p2558
sg35
I4
ssg10
I252
sg36
g4
sg37
(dp2559
sg39
(dp2560
sg41
I1203
sg42
g21
sg43
g21
sg44
I252
sg45
V:
p2561
sg47
I252
sg48
I1204
sbag0
(g23
g2
Ntp2562
Rp2563
(dp2564
g27
(dp2565
g29
V-lsb-
p2566
sg31
VO
p2567
sg33
V-LRB-
p2568
sg35
I5
ssg10
I253
sg36
g4
sg37
(dp2569
sg39
(dp2570
sg41
I1204
sg42
g21
sg43
g21
sg44
I253
sg45
V[
p2571
sg47
I253
sg48
I1205
sbag0
(g23
g2
Ntp2572
Rp2573
(dp2574
g27
(dp2575
g29
Vref
p2576
sg31
VO
p2577
sg33
VNN
p2578
sg35
I6
ssg10
I254
sg36
g4
sg37
(dp2579
sg39
(dp2580
sg41
I1205
sg42
g21
sg43
g21
sg44
I254
sg45
VREF
p2581
sg47
I254
sg48
I1208
sbag0
(g23
g2
Ntp2582
Rp2583
(dp2584
g27
(dp2585
g29
V-rsb-
p2586
sg31
VO
p2587
sg33
V-RRB-
p2588
sg35
I7
ssg10
I255
sg36
g4
sg37
(dp2589
sg39
(dp2590
sg41
I1208
sg42
g21
sg43
g21
sg44
I255
sg45
V]
p2591
sg47
I255
sg48
I1209
sbag0
(g23
g2
Ntp2592
Rp2593
(dp2594
g27
(dp2595
g29
V-lsb-
p2596
sg31
VO
p2597
sg33
V-LRB-
p2598
sg35
I8
ssg10
I256
sg36
g4
sg37
(dp2599
sg39
(dp2600
sg41
I1209
sg42
g21
sg43
g21
sg44
I256
sg45
V[
p2601
sg47
I256
sg48
I1210
sbag0
(g23
g2
Ntp2602
Rp2603
(dp2604
g27
(dp2605
g29
Vref
p2606
sg31
VO
p2607
sg33
VNN
p2608
sg35
I9
ssg10
I257
sg36
g4
sg37
(dp2609
sg39
(dp2610
sg41
I1210
sg42
g21
sg43
g21
sg44
I257
sg45
VREF
p2611
sg47
I257
sg48
I1213
sbag0
(g23
g2
Ntp2612
Rp2613
(dp2614
g27
(dp2615
g29
V-rsb-
p2616
sg31
VO
p2617
sg33
V-RRB-
p2618
sg35
I10
ssg10
I258
sg36
g4
sg37
(dp2619
sg39
(dp2620
sg41
I1213
sg42
g21
sg43
g21
sg44
I258
sg45
V]
p2621
sg47
I258
sg48
I1214
sbag0
(g23
g2
Ntp2622
Rp2623
(dp2624
g27
(dp2625
g29
V.
p2626
sg31
VO
p2627
sg33
V.
p2628
sg35
I11
ssg10
I259
sg36
g4
sg37
(dp2629
sg39
(dp2630
sg41
I1215
sg42
g21
sg43
g21
sg44
I259
sg45
V.
p2631
sg47
I259
sg48
I1216
sbag0
(g23
g2
Ntp2632
Rp2633
(dp2634
g27
(dp2635
g29
Vhuman
p2636
sg31
VO
p2637
sg33
VNNS
p2638
sg35
I1
ssg10
I260
sg36
g4
sg37
(dp2639
sg39
(dp2640
sg41
I1219
sg42
g21
sg43
g21
sg44
I260
sg45
VHumans
p2641
sg47
I260
sg48
I1225
sbag0
(g23
g2
Ntp2642
Rp2643
(dp2644
g27
(dp2645
g29
Vbe
p2646
sg31
VO
p2647
sg33
VVBP
p2648
sg35
I2
ssg10
I261
sg36
g4
sg37
(dp2649
sg39
(dp2650
sg41
I1226
sg42
g21
sg43
g21
sg44
I261
sg45
Vare
p2651
sg47
I261
sg48
I1229
sbag0
(g23
g2
Ntp2652
Rp2653
(dp2654
g27
(dp2655
g29
Vmember
p2656
sg31
VO
p2657
sg33
VNNS
p2658
sg35
I3
ssg10
I262
sg36
g4
sg37
(dp2659
sg39
(dp2660
sg41
I1230
sg42
g21
sg43
g21
sg44
I262
sg45
Vmembers
p2661
sg47
I262
sg48
I1237
sbag0
(g23
g2
Ntp2662
Rp2663
(dp2664
g27
(dp2665
g29
Vof
p2666
sg31
VO
p2667
sg33
VIN
p2668
sg35
I4
ssg10
I263
sg36
g4
sg37
(dp2669
sg39
(dp2670
sg41
I1238
sg42
g21
sg43
g21
sg44
I263
sg45
Vof
p2671
sg47
I263
sg48
I1240
sbag0
(g23
g2
Ntp2672
Rp2673
(dp2674
g27
(dp2675
g29
Va
p2676
sg31
VO
p2677
sg33
VDT
p2678
sg35
I5
ssg10
I264
sg36
g4
sg37
(dp2679
sg39
(dp2680
sg41
I1241
sg42
g21
sg43
g21
sg44
I264
sg45
Va
p2681
sg47
I264
sg48
I1242
sbag0
(g23
g2
Ntp2682
Rp2683
(dp2684
g27
(dp2685
g29
Vcommunity
p2686
sg31
VO
p2687
sg33
VNN
p2688
sg35
I6
ssg10
I265
sg36
g4
sg37
(dp2689
sg39
(dp2690
sg41
I1243
sg42
g21
sg43
g21
sg44
I265
sg45
Vcommunity
p2691
sg47
I265
sg48
I1252
sbag0
(g23
g2
Ntp2692
Rp2693
(dp2694
g27
(dp2695
g29
Vof
p2696
sg31
VO
p2697
sg33
VIN
p2698
sg35
I7
ssg10
I266
sg36
g4
sg37
(dp2699
sg39
(dp2700
sg41
I1253
sg42
g21
sg43
g21
sg44
I266
sg45
Vof
p2701
sg47
I266
sg48
I1255
sbag0
(g23
g2
Ntp2702
Rp2703
(dp2704
g27
(dp2705
g29
Vlife
p2706
sg31
VO
p2707
sg33
VNN
p2708
sg35
I8
ssg10
I267
sg36
g4
sg37
(dp2709
sg39
(dp2710
sg41
I1256
sg42
g21
sg43
g21
sg44
I267
sg45
Vlife
p2711
sg47
I267
sg48
I1260
sbag0
(g23
g2
Ntp2712
Rp2713
(dp2714
g27
(dp2715
g29
Valong
p2716
sg31
VO
p2717
sg33
VIN
p2718
sg35
I9
ssg10
I268
sg36
g4
sg37
(dp2719
sg39
(dp2720
sg41
I1261
sg42
g21
sg43
g21
sg44
I268
sg45
Valong
p2721
sg47
I268
sg48
I1266
sbag0
(g23
g2
Ntp2722
Rp2723
(dp2724
g27
(dp2725
g29
Vwith
p2726
sg31
VO
p2727
sg33
VIN
p2728
sg35
I10
ssg10
I269
sg36
g4
sg37
(dp2729
sg39
(dp2730
sg41
I1267
sg42
g21
sg43
g21
sg44
I269
sg45
Vwith
p2731
sg47
I269
sg48
I1271
sbag0
(g23
g2
Ntp2732
Rp2733
(dp2734
g27
(dp2735
g29
Vall
p2736
sg31
VO
p2737
sg33
VDT
p2738
sg35
I11
ssg10
I270
sg36
g4
sg37
(dp2739
sg39
(dp2740
sg41
I1272
sg42
g21
sg43
g21
sg44
I270
sg45
Vall
p2741
sg47
I270
sg48
I1275
sbag0
(g23
g2
Ntp2742
Rp2743
(dp2744
g27
(dp2745
g29
Vother
p2746
sg31
VO
p2747
sg33
VJJ
p2748
sg35
I12
ssg10
I271
sg36
g4
sg37
(dp2749
sg39
(dp2750
sg41
I1276
sg42
g21
sg43
g21
sg44
I271
sg45
Vother
p2751
sg47
I271
sg48
I1281
sbag0
(g23
g2
Ntp2752
Rp2753
(dp2754
g27
(dp2755
g29
Vspecies
p2756
sg31
VO
p2757
sg33
VNNS
p2758
sg35
I13
ssg10
I272
sg36
g4
sg37
(dp2759
sg39
(dp2760
sg41
I1282
sg42
g21
sg43
g21
sg44
I272
sg45
Vspecies
p2761
sg47
I272
sg48
I1289
sbag0
(g23
g2
Ntp2762
Rp2763
(dp2764
g27
(dp2765
g29
V,
p2766
sg31
VO
p2767
sg33
V,
p2768
sg35
I14
ssg10
I273
sg36
g4
sg37
(dp2769
sg39
(dp2770
sg41
I1289
sg42
g21
sg43
g21
sg44
I273
sg45
V,
p2771
sg47
I273
sg48
I1290
sbag0
(g23
g2
Ntp2772
Rp2773
(dp2774
g27
(dp2775
g29
Vand
p2776
sg31
VO
p2777
sg33
VCC
p2778
sg35
I15
ssg10
I274
sg36
g4
sg37
(dp2779
sg39
(dp2780
sg41
I1291
sg42
g21
sg43
g21
sg44
I274
sg45
Vand
p2781
sg47
I274
sg48
I1294
sbag0
(g23
g2
Ntp2782
Rp2783
(dp2784
g27
(dp2785
g29
Von
p2786
sg31
VO
p2787
sg33
VIN
p2788
sg35
I16
ssg10
I275
sg36
g4
sg37
(dp2789
sg39
(dp2790
sg41
I1295
sg42
g21
sg43
g21
sg44
I275
sg45
Von
p2791
sg47
I275
sg48
I1297
sbag0
(g23
g2
Ntp2792
Rp2793
(dp2794
g27
(dp2795
g29
Vequal
p2796
sg31
VO
p2797
sg33
VJJ
p2798
sg35
I17
ssg10
I276
sg36
g4
sg37
(dp2799
sg39
(dp2800
sg41
I1298
sg42
g21
sg43
g21
sg44
I276
sg45
Vequal
p2801
sg47
I276
sg48
I1303
sbag0
(g23
g2
Ntp2802
Rp2803
(dp2804
g27
(dp2805
g29
Vterm
p2806
sg31
VO
p2807
sg33
VNNS
p2808
sg35
I18
ssg10
I277
sg36
g4
sg37
(dp2809
sg39
(dp2810
sg41
I1304
sg42
g21
sg43
g21
sg44
I277
sg45
Vterms
p2811
sg47
I277
sg48
I1309
sbag0
(g23
g2
Ntp2812
Rp2813
(dp2814
g27
(dp2815
g29
V.
p2816
sg31
VO
p2817
sg33
V.
p2818
sg35
I19
ssg10
I278
sg36
g4
sg37
(dp2819
sg39
(dp2820
sg41
I1309
sg42
g21
sg43
g21
sg44
I278
sg45
V.
p2821
sg47
I278
sg48
I1310
sbag0
(g23
g2
Ntp2822
Rp2823
(dp2824
g27
(dp2825
g29
Vthis
p2826
sg31
VO
p2827
sg33
VDT
p2828
sg35
I1
ssg10
I279
sg36
g4
sg37
(dp2829
sg39
(dp2830
sg41
I1312
sg42
g21
sg43
g21
sg44
I279
sg45
VThis
p2831
sg47
I279
sg48
I1316
sbag0
(g23
g2
Ntp2832
Rp2833
(dp2834
g27
(dp2835
g29
Vcommunity
p2836
sg31
VO
p2837
sg33
VNN
p2838
sg35
I2
ssg10
I280
sg36
g4
sg37
(dp2839
sg39
(dp2840
sg41
I1317
sg42
g21
sg43
g21
sg44
I280
sg45
Vcommunity
p2841
sg47
I280
sg48
I1326
sbag0
(g23
g2
Ntp2842
Rp2843
(dp2844
g27
(dp2845
g29
Vconsist
p2846
sg31
VO
p2847
sg33
VVBZ
p2848
sg35
I3
ssg10
I281
sg36
g4
sg37
(dp2849
sg39
(dp2850
sg41
I1327
sg42
g21
sg43
g21
sg44
I281
sg45
Vconsists
p2851
sg47
I281
sg48
I1335
sbag0
(g23
g2
Ntp2852
Rp2853
(dp2854
g27
(dp2855
g29
Vof
p2856
sg31
VO
p2857
sg33
VIN
p2858
sg35
I4
ssg10
I282
sg36
g4
sg37
(dp2859
sg39
(dp2860
sg41
I1336
sg42
g21
sg43
g21
sg44
I282
sg45
Vof
p2861
sg47
I282
sg48
I1338
sbag0
(g23
g2
Ntp2862
Rp2863
(dp2864
g27
(dp2865
g29
Va
p2866
sg31
VO
p2867
sg33
VDT
p2868
sg35
I5
ssg10
I283
sg36
g4
sg37
(dp2869
sg39
(dp2870
sg41
I1339
sg42
g21
sg43
g21
sg44
I283
sg45
Va
p2871
sg47
I283
sg48
I1340
sbag0
(g23
g2
Ntp2872
Rp2873
(dp2874
g27
(dp2875
g29
Vsystem
p2876
sg31
VO
p2877
sg33
VNN
p2878
sg35
I6
ssg10
I284
sg36
g4
sg37
(dp2879
sg39
(dp2880
sg41
I1341
sg42
g21
sg43
g21
sg44
I284
sg45
Vsystem
p2881
sg47
I284
sg48
I1347
sbag0
(g23
g2
Ntp2882
Rp2883
(dp2884
g27
(dp2885
g29
Vof
p2886
sg31
VO
p2887
sg33
VIN
p2888
sg35
I7
ssg10
I285
sg36
g4
sg37
(dp2889
sg39
(dp2890
sg41
I1348
sg42
g21
sg43
g21
sg44
I285
sg45
Vof
p2891
sg47
I285
sg48
I1350
sbag0
(g23
g2
Ntp2892
Rp2893
(dp2894
g27
(dp2895
g29
Vinterdependence
p2896
sg31
VO
p2897
sg33
VNN
p2898
sg35
I8
ssg10
I286
sg36
g4
sg37
(dp2899
sg39
(dp2900
sg41
I1351
sg42
g21
sg43
g21
sg44
I286
sg45
Vinterdependence
p2901
sg47
I286
sg48
I1366
sbag0
(g23
g2
Ntp2902
Rp2903
(dp2904
g27
(dp2905
g29
Vbetween
p2906
sg31
VO
p2907
sg33
VIN
p2908
sg35
I9
ssg10
I287
sg36
g4
sg37
(dp2909
sg39
(dp2910
sg41
I1367
sg42
g21
sg43
g21
sg44
I287
sg45
Vbetween
p2911
sg47
I287
sg48
I1374
sbag0
(g23
g2
Ntp2912
Rp2913
(dp2914
g27
(dp2915
g29
Vall
p2916
sg31
VO
p2917
sg33
VDT
p2918
sg35
I10
ssg10
I288
sg36
g4
sg37
(dp2919
sg39
(dp2920
sg41
I1375
sg42
g21
sg43
g21
sg44
I288
sg45
Vall
p2921
sg47
I288
sg48
I1378
sbag0
(g23
g2
Ntp2922
Rp2923
(dp2924
g27
(dp2925
g29
Vmember
p2926
sg31
VO
p2927
sg33
VNNS
p2928
sg35
I11
ssg10
I289
sg36
g4
sg37
(dp2929
sg39
(dp2930
sg41
I1379
sg42
g21
sg43
g21
sg44
I289
sg45
Vmembers
p2931
sg47
I289
sg48
I1386
sbag0
(g23
g2
Ntp2932
Rp2933
(dp2934
g27
(dp2935
g29
V,
p2936
sg31
VO
p2937
sg33
V,
p2938
sg35
I12
ssg10
I290
sg36
g4
sg37
(dp2939
sg39
(dp2940
sg41
I1386
sg42
g21
sg43
g21
sg44
I290
sg45
V,
p2941
sg47
I290
sg48
I1387
sbag0
(g23
g2
Ntp2942
Rp2943
(dp2944
g27
(dp2945
g29
Vboth
p2946
sg31
VO
p2947
sg33
VDT
p2948
sg35
I13
ssg10
I291
sg36
g4
sg37
(dp2949
sg39
(dp2950
sg41
I1388
sg42
g21
sg43
g21
sg44
I291
sg45
Vboth
p2951
sg47
I291
sg48
I1392
sbag0
(g23
g2
Ntp2952
Rp2953
(dp2954
g27
(dp2955
g29
Vphysically
p2956
sg31
VO
p2957
sg33
VRB
p2958
sg35
I14
ssg10
I292
sg36
g4
sg37
(dp2959
sg39
(dp2960
sg41
I1393
sg42
g21
sg43
g21
sg44
I292
sg45
Vphysically
p2961
sg47
I292
sg48
I1403
sbag0
(g23
g2
Ntp2962
Rp2963
(dp2964
g27
(dp2965
g29
V,
p2966
sg31
VO
p2967
sg33
V,
p2968
sg35
I15
ssg10
I293
sg36
g4
sg37
(dp2969
sg39
(dp2970
sg41
I1403
sg42
g21
sg43
g21
sg44
I293
sg45
V,
p2971
sg47
I293
sg48
I1404
sbag0
(g23
g2
Ntp2972
Rp2973
(dp2974
g27
(dp2975
g29
Vand
p2976
sg31
VO
p2977
sg33
VCC
p2978
sg35
I16
ssg10
I294
sg36
g4
sg37
(dp2979
sg39
(dp2980
sg41
I1405
sg42
g21
sg43
g21
sg44
I294
sg45
Vand
p2981
sg47
I294
sg48
I1408
sbag0
(g23
g2
Ntp2982
Rp2983
(dp2984
g27
(dp2985
g29
Vin
p2986
sg31
VO
p2987
sg33
VIN
p2988
sg35
I17
ssg10
I295
sg36
g4
sg37
(dp2989
sg39
(dp2990
sg41
I1409
sg42
g21
sg43
g21
sg44
I295
sg45
Vin
p2991
sg47
I295
sg48
I1411
sbag0
(g23
g2
Ntp2992
Rp2993
(dp2994
g27
(dp2995
g29
Vterm
p2996
sg31
VO
p2997
sg33
VNNS
p2998
sg35
I18
ssg10
I296
sg36
g4
sg37
(dp2999
sg39
(dp3000
sg41
I1412
sg42
g21
sg43
g21
sg44
I296
sg45
Vterms
p3001
sg47
I296
sg48
I1417
sbag0
(g23
g2
Ntp3002
Rp3003
(dp3004
g27
(dp3005
g29
Vof
p3006
sg31
VO
p3007
sg33
VIN
p3008
sg35
I19
ssg10
I297
sg36
g4
sg37
(dp3009
sg39
(dp3010
sg41
I1418
sg42
g21
sg43
g21
sg44
I297
sg45
Vof
p3011
sg47
I297
sg48
I1420
sbag0
(g23
g2
Ntp3012
Rp3013
(dp3014
g27
(dp3015
g29
Vrelationship
p3016
sg31
VO
p3017
sg33
VNNS
p3018
sg35
I20
ssg10
I298
sg36
g4
sg37
(dp3019
sg39
(dp3020
sg41
I1421
sg42
g21
sg43
g21
sg44
I298
sg45
Vrelationships
p3021
sg47
I298
sg48
I1434
sbag0
(g23
g2
Ntp3022
Rp3023
(dp3024
g27
(dp3025
g29
Vwith
p3026
sg31
VO
p3027
sg33
VIN
p3028
sg35
I21
ssg10
I299
sg36
g4
sg37
(dp3029
sg39
(dp3030
sg41
I1435
sg42
g21
sg43
g21
sg44
I299
sg45
Vwith
p3031
sg47
I299
sg48
I1439
sbag0
(g23
g2
Ntp3032
Rp3033
(dp3034
g27
(dp3035
g29
Vother
p3036
sg31
VO
p3037
sg33
VJJ
p3038
sg35
I22
ssg10
I300
sg36
g4
sg37
(dp3039
sg39
(dp3040
sg41
I1440
sg42
g21
sg43
g21
sg44
I300
sg45
Vother
p3041
sg47
I300
sg48
I1445
sbag0
(g23
g2
Ntp3042
Rp3043
(dp3044
g27
(dp3045
g29
Vspecies
p3046
sg31
VO
p3047
sg33
VNNS
p3048
sg35
I23
ssg10
I301
sg36
g4
sg37
(dp3049
sg39
(dp3050
sg41
I1446
sg42
g21
sg43
g21
sg44
I301
sg45
Vspecies
p3051
sg47
I301
sg48
I1453
sbag0
(g23
g2
Ntp3052
Rp3053
(dp3054
g27
(dp3055
g29
Vevery
p3056
sg31
VO
p3057
sg33
VDT
p3058
sg35
I24
ssg10
I302
sg36
g4
sg37
(dp3059
sg39
(dp3060
sg41
I1455
sg42
g21
sg43
g21
sg44
I302
sg45
VEvery
p3061
sg47
I302
sg48
I1460
sbag0
(g23
g2
Ntp3062
Rp3063
(dp3064
g27
(dp3065
g29
Vorganism
p3066
sg31
VO
p3067
sg33
VNN
p3068
sg35
I25
ssg10
I303
sg36
g4
sg37
(dp3069
sg39
(dp3070
sg41
I1461
sg42
g21
sg43
g21
sg44
I303
sg45
Vorganism
p3071
sg47
I303
sg48
I1469
sbag0
(g23
g2
Ntp3072
Rp3073
(dp3074
g27
(dp3075
g29
Vbe
p3076
sg31
VO
p3077
sg33
VVBZ
p3078
sg35
I26
ssg10
I304
sg36
g4
sg37
(dp3079
sg39
(dp3080
sg41
I1466
sg42
g21
sg43
g21
sg44
I304
sg45
Vis
p3081
sg47
I304
sg48
I1468
sbag0
(g23
g2
Ntp3082
Rp3083
(dp3084
g27
(dp3085
g29
Va
p3086
sg31
VO
p3087
sg33
VDT
p3088
sg35
I27
ssg10
I305
sg36
g4
sg37
(dp3089
sg39
(dp3090
sg41
I1473
sg42
g21
sg43
g21
sg44
I305
sg45
Va
p3091
sg47
I305
sg48
I1474
sbag0
(g23
g2
Ntp3092
Rp3093
(dp3094
g27
(dp3095
g29
V``
p3096
sg31
VO
p3097
sg33
V``
p3098
sg35
I28
ssg10
I306
sg36
g4
sg37
(dp3099
sg39
(dp3100
sg41
I1475
sg42
g21
sg43
g21
sg44
I306
sg45
g238
sg47
I306
sg48
I1476
sbag0
(g23
g2
Ntp3101
Rp3102
(dp3103
g27
(dp3104
g29
Vteleological
p3105
sg31
VO
p3106
sg33
VJJ
p3107
sg35
I29
ssg10
I307
sg36
g4
sg37
(dp3108
sg39
(dp3109
sg41
I1476
sg42
g21
sg43
g21
sg44
I307
sg45
Vteleological
p3110
sg47
I307
sg48
I1488
sbag0
(g23
g2
Ntp3111
Rp3112
(dp3113
g27
(dp3114
g29
Vcentre
p3115
sg31
VO
p3116
sg33
VNN
p3117
sg35
I30
ssg10
I308
sg36
g4
sg37
(dp3118
sg39
(dp3119
sg41
I1489
sg42
g21
sg43
g21
sg44
I308
sg45
Vcentre
p3120
sg47
I308
sg48
I1495
sbag0
(g23
g2
Ntp3121
Rp3122
(dp3123
g27
(dp3124
g29
Vof
p3125
sg31
VO
p3126
sg33
VIN
p3127
sg35
I31
ssg10
I309
sg36
g4
sg37
(dp3128
sg39
(dp3129
sg41
I1496
sg42
g21
sg43
g21
sg44
I309
sg45
Vof
p3130
sg47
I309
sg48
I1498
sbag0
(g23
g2
Ntp3131
Rp3132
(dp3133
g27
(dp3134
g29
Vlife
p3135
sg31
VO
p3136
sg33
VNN
p3137
sg35
I32
ssg10
I310
sg36
g4
sg37
(dp3138
sg39
(dp3139
sg41
I1499
sg42
g21
sg43
g21
sg44
I310
sg45
Vlife
p3140
sg47
I310
sg48
I1503
sbag0
(g23
g2
Ntp3141
Rp3142
(dp3143
g27
(dp3144
g29
V''
p3145
sg31
VO
p3146
sg33
V''
p3147
sg35
I33
ssg10
I311
sg36
g4
sg37
(dp3148
sg39
(dp3149
sg41
I1503
sg42
g21
sg43
g21
sg44
I311
sg45
g238
sg47
I311
sg48
I1504
sbag0
(g23
g2
Ntp3150
Rp3151
(dp3152
g27
(dp3153
g29
V,
p3154
sg31
VO
p3155
sg33
V,
p3156
sg35
I34
ssg10
I312
sg36
g4
sg37
(dp3157
sg39
(dp3158
sg41
I1504
sg42
g21
sg43
g21
sg44
I312
sg45
V,
p3159
sg47
I312
sg48
I1505
sbag0
(g23
g2
Ntp3160
Rp3161
(dp3162
g27
(dp3163
g29
Vthat
p3164
sg31
VO
p3165
sg33
VDT
p3166
sg35
I35
ssg10
I313
sg36
g4
sg37
(dp3167
sg39
(dp3168
sg41
I1506
sg42
g21
sg43
g21
sg44
I313
sg45
Vthat
p3169
sg47
I313
sg48
I1510
sbag0
(g23
g2
Ntp3170
Rp3171
(dp3172
g27
(dp3173
g29
Vbe
p3174
sg31
VO
p3175
sg33
VVBZ
p3176
sg35
I36
ssg10
I314
sg36
g4
sg37
(dp3177
sg39
(dp3178
sg41
I1511
sg42
g21
sg43
g21
sg44
I314
sg45
Vis
p3179
sg47
I314
sg48
I1513
sbag0
(g23
g2
Ntp3180
Rp3181
(dp3182
g27
(dp3183
g29
V,
p3184
sg31
VO
p3185
sg33
V,
p3186
sg35
I37
ssg10
I315
sg36
g4
sg37
(dp3187
sg39
(dp3188
sg41
I1513
sg42
g21
sg43
g21
sg44
I315
sg45
V,
p3189
sg47
I315
sg48
I1514
sbag0
(g23
g2
Ntp3190
Rp3191
(dp3192
g27
(dp3193
g29
Veach
p3194
sg31
VO
p3195
sg33
VDT
p3196
sg35
I38
ssg10
I316
sg36
g4
sg37
(dp3197
sg39
(dp3198
sg41
I1515
sg42
g21
sg43
g21
sg44
I316
sg45
Veach
p3199
sg47
I316
sg48
I1519
sbag0
(g23
g2
Ntp3200
Rp3201
(dp3202
g27
(dp3203
g29
Vorganism
p3204
sg31
VO
p3205
sg33
VNN
p3206
sg35
I39
ssg10
I317
sg36
g4
sg37
(dp3207
sg39
(dp3208
sg41
I1520
sg42
g21
sg43
g21
sg44
I317
sg45
Vorganism
p3209
sg47
I317
sg48
I1528
sbag0
(g23
g2
Ntp3210
Rp3211
(dp3212
g27
(dp3213
g29
Vhave
p3214
sg31
VO
p3215
sg33
VVBZ
p3216
sg35
I40
ssg10
I318
sg36
g4
sg37
(dp3217
sg39
(dp3218
sg41
I1529
sg42
g21
sg43
g21
sg44
I318
sg45
Vhas
p3219
sg47
I318
sg48
I1532
sbag0
(g23
g2
Ntp3220
Rp3221
(dp3222
g27
(dp3223
g29
Va
p3224
sg31
VO
p3225
sg33
VDT
p3226
sg35
I41
ssg10
I319
sg36
g4
sg37
(dp3227
sg39
(dp3228
sg41
I1530
sg42
g21
sg43
g21
sg44
I319
sg45
Va
p3229
sg47
I319
sg48
I1531
sbag0
(g23
g2
Ntp3230
Rp3231
(dp3232
g27
(dp3233
g29
Vpurpose
p3234
sg31
VO
p3235
sg33
VNN
p3236
sg35
I42
ssg10
I320
sg36
g4
sg37
(dp3237
sg39
(dp3238
sg41
I1535
sg42
g21
sg43
g21
sg44
I320
sg45
Vpurpose
p3239
sg47
I320
sg48
I1542
sbag0
(g23
g2
Ntp3240
Rp3241
(dp3242
g27
(dp3243
g29
Vand
p3244
sg31
VO
p3245
sg33
VCC
p3246
sg35
I43
ssg10
I321
sg36
g4
sg37
(dp3247
sg39
(dp3248
sg41
I1543
sg42
g21
sg43
g21
sg44
I321
sg45
Vand
p3249
sg47
I321
sg48
I1546
sbag0
(g23
g2
Ntp3250
Rp3251
(dp3252
g27
(dp3253
g29
Va
p3254
sg31
VO
p3255
sg33
VDT
p3256
sg35
I44
ssg10
I322
sg36
g4
sg37
(dp3257
sg39
(dp3258
sg41
I1543
sg42
g21
sg43
g21
sg44
I322
sg45
Va
p3259
sg47
I322
sg48
I1544
sbag0
(g23
g2
Ntp3260
Rp3261
(dp3262
g27
(dp3263
g29
Vreason
p3264
sg31
VO
p3265
sg33
VNN
p3266
sg35
I45
ssg10
I323
sg36
g4
sg37
(dp3267
sg39
(dp3268
sg41
I1549
sg42
g21
sg43
g21
sg44
I323
sg45
Vreason
p3269
sg47
I323
sg48
I1555
sbag0
(g23
g2
Ntp3270
Rp3271
(dp3272
g27
(dp3273
g29
Vfor
p3274
sg31
VO
p3275
sg33
VIN
p3276
sg35
I46
ssg10
I324
sg36
g4
sg37
(dp3277
sg39
(dp3278
sg41
I1556
sg42
g21
sg43
g21
sg44
I324
sg45
Vfor
p3279
sg47
I324
sg48
I1559
sbag0
(g23
g2
Ntp3280
Rp3281
(dp3282
g27
(dp3283
g29
Vbe
p3284
sg31
VO
p3285
sg33
VVBG
p3286
sg35
I47
ssg10
I325
sg36
g4
sg37
(dp3287
sg39
(dp3288
sg41
I1560
sg42
g21
sg43
g21
sg44
I325
sg45
Vbeing
p3289
sg47
I325
sg48
I1565
sbag0
(g23
g2
Ntp3290
Rp3291
(dp3292
g27
(dp3293
g29
V,
p3294
sg31
VO
p3295
sg33
V,
p3296
sg35
I48
ssg10
I326
sg36
g4
sg37
(dp3297
sg39
(dp3298
sg41
I1565
sg42
g21
sg43
g21
sg44
I326
sg45
V,
p3299
sg47
I326
sg48
I1566
sbag0
(g23
g2
Ntp3300
Rp3301
(dp3302
g27
(dp3303
g29
Vwhich
p3304
sg31
VO
p3305
sg33
VWDT
p3306
sg35
I49
ssg10
I327
sg36
g4
sg37
(dp3307
sg39
(dp3308
sg41
I1567
sg42
g21
sg43
g21
sg44
I327
sg45
Vwhich
p3309
sg47
I327
sg48
I1572
sbag0
(g23
g2
Ntp3310
Rp3311
(dp3312
g27
(dp3313
g29
Vbe
p3314
sg31
VO
p3315
sg33
VVBZ
p3316
sg35
I50
ssg10
I328
sg36
g4
sg37
(dp3317
sg39
(dp3318
sg41
I1573
sg42
g21
sg43
g21
sg44
I328
sg45
Vis
p3319
sg47
I328
sg48
I1575
sbag0
(g23
g2
Ntp3320
Rp3321
(dp3322
g27
(dp3323
g29
Vinherently
p3324
sg31
VO
p3325
sg33
VRB
p3326
sg35
I51
ssg10
I329
sg36
g4
sg37
(dp3327
sg39
(dp3328
sg41
I1576
sg42
g21
sg43
g21
sg44
I329
sg45
Vinherently
p3329
sg47
I329
sg48
I1586
sbag0
(g23
g2
Ntp3330
Rp3331
(dp3332
g27
(dp3333
g29
V``
p3334
sg31
VO
p3335
sg33
V``
p3336
sg35
I52
ssg10
I330
sg36
g4
sg37
(dp3337
sg39
(dp3338
sg41
I1587
sg42
g21
sg43
g21
sg44
I330
sg45
g238
sg47
I330
sg48
I1588
sbag0
(g23
g2
Ntp3339
Rp3340
(dp3341
g27
(dp3342
g29
Vgood
p3343
sg31
VO
p3344
sg33
VJJ
p3345
sg35
I53
ssg10
I331
sg36
g4
sg37
(dp3346
sg39
(dp3347
sg41
I1588
sg42
g21
sg43
g21
sg44
I331
sg45
Vgood
p3348
sg47
I331
sg48
I1592
sbag0
(g23
g2
Ntp3349
Rp3350
(dp3351
g27
(dp3352
g29
V''
p3353
sg31
VO
p3354
sg33
V''
p3355
sg35
I54
ssg10
I332
sg36
g4
sg37
(dp3356
sg39
(dp3357
sg41
I1592
sg42
g21
sg43
g21
sg44
I332
sg45
g238
sg47
I332
sg48
I1593
sbag0
(g23
g2
Ntp3358
Rp3359
(dp3360
g27
(dp3361
g29
Vor
p3362
sg31
VO
p3363
sg33
VCC
p3364
sg35
I55
ssg10
I333
sg36
g4
sg37
(dp3365
sg39
(dp3366
sg41
I1594
sg42
g21
sg43
g21
sg44
I333
sg45
Vor
p3367
sg47
I333
sg48
I1596
sbag0
(g23
g2
Ntp3368
Rp3369
(dp3370
g27
(dp3371
g29
V``
p3372
sg31
VO
p3373
sg33
V``
p3374
sg35
I56
ssg10
I334
sg36
g4
sg37
(dp3375
sg39
(dp3376
sg41
I1597
sg42
g21
sg43
g21
sg44
I334
sg45
g238
sg47
I334
sg48
I1598
sbag0
(g23
g2
Ntp3377
Rp3378
(dp3379
g27
(dp3380
g29
Vvaluable
p3381
sg31
VO
p3382
sg33
VJJ
p3383
sg35
I57
ssg10
I335
sg36
g4
sg37
(dp3384
sg39
(dp3385
sg41
I1598
sg42
g21
sg43
g21
sg44
I335
sg45
Vvaluable
p3386
sg47
I335
sg48
I1606
sbag0
(g23
g2
Ntp3387
Rp3388
(dp3389
g27
(dp3390
g29
V''
p3391
sg31
VO
p3392
sg33
V''
p3393
sg35
I58
ssg10
I336
sg36
g4
sg37
(dp3394
sg39
(dp3395
sg41
I1606
sg42
g21
sg43
g21
sg44
I336
sg45
g238
sg47
I336
sg48
I1607
sbag0
(g23
g2
Ntp3396
Rp3397
(dp3398
g27
(dp3399
g29
Vhuman
p3400
sg31
VO
p3401
sg33
VNNS
p3402
sg35
I59
ssg10
I337
sg36
g4
sg37
(dp3403
sg39
(dp3404
sg41
I1608
sg42
g21
sg43
g21
sg44
I337
sg45
VHumans
p3405
sg47
I337
sg48
I1614
sbag0
(g23
g2
Ntp3406
Rp3407
(dp3408
g27
(dp3409
g29
Vbe
p3410
sg31
VO
p3411
sg33
VVBP
p3412
sg35
I60
ssg10
I338
sg36
g4
sg37
(dp3413
sg39
(dp3414
sg41
I1615
sg42
g21
sg43
g21
sg44
I338
sg45
Vare
p3415
sg47
I338
sg48
I1618
sbag0
(g23
g2
Ntp3416
Rp3417
(dp3418
g27
(dp3419
g29
Vnot
p3420
sg31
VO
p3421
sg33
VRB
p3422
sg35
I61
ssg10
I339
sg36
g4
sg37
(dp3423
sg39
(dp3424
sg41
I1619
sg42
g21
sg43
g21
sg44
I339
sg45
Vnot
p3425
sg47
I339
sg48
I1622
sbag0
(g23
g2
Ntp3426
Rp3427
(dp3428
g27
(dp3429
g29
Vinherently
p3430
sg31
VO
p3431
sg33
VRB
p3432
sg35
I62
ssg10
I340
sg36
g4
sg37
(dp3433
sg39
(dp3434
sg41
I1623
sg42
g21
sg43
g21
sg44
I340
sg45
Vinherently
p3435
sg47
I340
sg48
I1633
sbag0
(g23
g2
Ntp3436
Rp3437
(dp3438
g27
(dp3439
g29
Vsuperior
p3440
sg31
VO
p3441
sg33
VJJ
p3442
sg35
I63
ssg10
I341
sg36
g4
sg37
(dp3443
sg39
(dp3444
sg41
I1634
sg42
g21
sg43
g21
sg44
I341
sg45
Vsuperior
p3445
sg47
I341
sg48
I1642
sbag0
(g23
g2
Ntp3446
Rp3447
(dp3448
g27
(dp3449
g29
Vto
p3450
sg31
VO
p3451
sg33
VTO
p3452
sg35
I64
ssg10
I342
sg36
g4
sg37
(dp3453
sg39
(dp3454
sg41
I1643
sg42
g21
sg43
g21
sg44
I342
sg45
Vto
p3455
sg47
I342
sg48
I1645
sbag0
(g23
g2
Ntp3456
Rp3457
(dp3458
g27
(dp3459
g29
Vother
p3460
sg31
VO
p3461
sg33
VJJ
p3462
sg35
I65
ssg10
I343
sg36
g4
sg37
(dp3463
sg39
(dp3464
sg41
I1646
sg42
g21
sg43
g21
sg44
I343
sg45
Vother
p3465
sg47
I343
sg48
I1651
sbag0
(g23
g2
Ntp3466
Rp3467
(dp3468
g27
(dp3469
g29
Vspecies
p3470
sg31
VO
p3471
sg33
VNNS
p3472
sg35
I66
ssg10
I344
sg36
g4
sg37
(dp3473
sg39
(dp3474
sg41
I1652
sg42
g21
sg43
g21
sg44
I344
sg45
Vspecies
p3475
sg47
I344
sg48
I1659
sbag0
(g23
g2
Ntp3476
Rp3477
(dp3478
g27
(dp3479
g29
V.
p3480
sg31
VO
p3481
sg33
V.
p3482
sg35
I67
ssg10
I345
sg36
g4
sg37
(dp3483
sg39
(dp3484
sg41
I1660
sg42
g21
sg43
g21
sg44
I345
sg45
V.
p3485
sg47
I345
sg48
I1661
sbag0
(g23
g2
Ntp3486
Rp3487
(dp3488
g27
(dp3489
g29
Vadvocate
p3490
sg31
VO
p3491
sg33
VNNS
p3492
sg35
I1
ssg10
I346
sg36
g4
sg37
(dp3493
sg39
(dp3494
sg41
I1664
sg42
g21
sg43
g21
sg44
I346
sg45
VAdvocates
p3495
sg47
I346
sg48
I1673
sbag0
(g23
g2
Ntp3496
Rp3497
(dp3498
g27
(dp3499
g29
Vof
p3500
sg31
VO
p3501
sg33
VIN
p3502
sg35
I2
ssg10
I347
sg36
g4
sg37
(dp3503
sg39
(dp3504
sg41
I1674
sg42
g21
sg43
g21
sg44
I347
sg45
Vof
p3505
sg47
I347
sg48
I1676
sbag0
(g23
g2
Ntp3506
Rp3507
(dp3508
g27
(dp3509
g29
Vbiocentrism
p3510
sg31
VO
p3511
sg33
VNN
p3512
sg35
I3
ssg10
I348
sg36
g4
sg37
(dp3513
sg39
(dp3514
sg41
I1677
sg42
g21
sg43
g21
sg44
I348
sg45
Vbiocentrism
p3515
sg47
I348
sg48
I1688
sbag0
(g23
g2
Ntp3516
Rp3517
(dp3518
g27
(dp3519
g29
Vbe
p3520
sg31
VO
p3521
sg33
VVBP
p3522
sg35
I4
ssg10
I349
sg36
g4
sg37
(dp3523
sg39
(dp3524
sg41
I1689
sg42
g21
sg43
g21
sg44
I349
sg45
Vare
p3525
sg47
I349
sg48
I1692
sbag0
(g23
g2
Ntp3526
Rp3527
(dp3528
g27
(dp3529
g29
Vlikely
p3530
sg31
VO
p3531
sg33
VJJ
p3532
sg35
I5
ssg10
I350
sg36
g4
sg37
(dp3533
sg39
(dp3534
sg41
I1693
sg42
g21
sg43
g21
sg44
I350
sg45
Vlikely
p3535
sg47
I350
sg48
I1699
sbag0
(g23
g2
Ntp3536
Rp3537
(dp3538
g27
(dp3539
g29
Vto
p3540
sg31
VO
p3541
sg33
VTO
p3542
sg35
I6
ssg10
I351
sg36
g4
sg37
(dp3543
sg39
(dp3544
sg41
I1700
sg42
g21
sg43
g21
sg44
I351
sg45
Vto
p3545
sg47
I351
sg48
I1702
sbag0
(g23
g2
Ntp3546
Rp3547
(dp3548
g27
(dp3549
g29
Vpromote
p3550
sg31
VO
p3551
sg33
VVB
p3552
sg35
I7
ssg10
I352
sg36
g4
sg37
(dp3553
sg39
(dp3554
sg41
I1703
sg42
g21
sg43
g21
sg44
I352
sg45
Vpromote
p3555
sg47
I352
sg48
I1710
sbag0
(g23
g2
Ntp3556
Rp3557
(dp3558
g27
(dp3559
g29
Vpreservation
p3560
sg31
VO
p3561
sg33
VNN
p3562
sg35
I8
ssg10
I353
sg36
g4
sg37
(dp3563
sg39
(dp3564
sg41
I1711
sg42
g21
sg43
g21
sg44
I353
sg45
Vpreservation
p3565
sg47
I353
sg48
I1723
sbag0
(g23
g2
Ntp3566
Rp3567
(dp3568
g27
(dp3569
g29
Vof
p3570
sg31
VO
p3571
sg33
VIN
p3572
sg35
I9
ssg10
I354
sg36
g4
sg37
(dp3573
sg39
(dp3574
sg41
I1724
sg42
g21
sg43
g21
sg44
I354
sg45
Vof
p3575
sg47
I354
sg48
I1726
sbag0
(g23
g2
Ntp3576
Rp3577
(dp3578
g27
(dp3579
g29
Vbiodiversity
p3580
sg31
VO
p3581
sg33
VNN
p3582
sg35
I10
ssg10
I355
sg36
g4
sg37
(dp3583
sg39
(dp3584
sg41
I1727
sg42
g21
sg43
g21
sg44
I355
sg45
Vbiodiversity
p3585
sg47
I355
sg48
I1739
sbag0
(g23
g2
Ntp3586
Rp3587
(dp3588
g27
(dp3589
g29
V,
p3590
sg31
VO
p3591
sg33
V,
p3592
sg35
I11
ssg10
I356
sg36
g4
sg37
(dp3593
sg39
(dp3594
sg41
I1739
sg42
g21
sg43
g21
sg44
I356
sg45
V,
p3595
sg47
I356
sg48
I1740
sbag0
(g23
g2
Ntp3596
Rp3597
(dp3598
g27
(dp3599
g29
V-lsb-
p3600
sg31
VO
p3601
sg33
V-LRB-
p3602
sg35
I12
ssg10
I357
sg36
g4
sg37
(dp3603
sg39
(dp3604
sg41
I1740
sg42
g21
sg43
g21
sg44
I357
sg45
V[
p3605
sg47
I357
sg48
I1741
sbag0
(g23
g2
Ntp3606
Rp3607
(dp3608
g27
(dp3609
g29
Vref
p3610
sg31
VO
p3611
sg33
VNN
p3612
sg35
I13
ssg10
I358
sg36
g4
sg37
(dp3613
sg39
(dp3614
sg41
I1741
sg42
g21
sg43
g21
sg44
I358
sg45
VREF
p3615
sg47
I358
sg48
I1744
sbag0
(g23
g2
Ntp3616
Rp3617
(dp3618
g27
(dp3619
g29
V-rsb-
p3620
sg31
VO
p3621
sg33
V-RRB-
p3622
sg35
I14
ssg10
I359
sg36
g4
sg37
(dp3623
sg39
(dp3624
sg41
I1744
sg42
g21
sg43
g21
sg44
I359
sg45
V]
p3625
sg47
I359
sg48
I1745
sbag0
(g23
g2
Ntp3626
Rp3627
(dp3628
g27
(dp3629
g29
Vanimal
p3630
sg31
VO
p3631
sg33
VNN
p3632
sg35
I15
ssg10
I360
sg36
g4
sg37
(dp3633
sg39
(dp3634
sg41
I1746
sg42
g21
sg43
g21
sg44
I360
sg45
Vanimal
p3635
sg47
I360
sg48
I1752
sbag0
(g23
g2
Ntp3636
Rp3637
(dp3638
g27
(dp3639
g29
Vrights
p3640
sg31
VO
p3641
sg33
VNNS
p3642
sg35
I16
ssg10
I361
sg36
g4
sg37
(dp3643
sg39
(dp3644
sg41
I1753
sg42
g21
sg43
g21
sg44
I361
sg45
Vrights
p3645
sg47
I361
sg48
I1759
sbag0
(g23
g2
Ntp3646
Rp3647
(dp3648
g27
(dp3649
g29
V,
p3650
sg31
VO
p3651
sg33
V,
p3652
sg35
I17
ssg10
I362
sg36
g4
sg37
(dp3653
sg39
(dp3654
sg41
I1759
sg42
g21
sg43
g21
sg44
I362
sg45
V,
p3655
sg47
I362
sg48
I1760
sbag0
(g23
g2
Ntp3656
Rp3657
(dp3658
g27
(dp3659
g29
Vand
p3660
sg31
VO
p3661
sg33
VCC
p3662
sg35
I18
ssg10
I363
sg36
g4
sg37
(dp3663
sg39
(dp3664
sg41
I1761
sg42
g21
sg43
g21
sg44
I363
sg45
Vand
p3665
sg47
I363
sg48
I1764
sbag0
(g23
g2
Ntp3666
Rp3667
(dp3668
g27
(dp3669
g29
Venvironmental
p3670
sg31
VO
p3671
sg33
VJJ
p3672
sg35
I19
ssg10
I364
sg36
g4
sg37
(dp3673
sg39
(dp3674
sg41
I1765
sg42
g21
sg43
g21
sg44
I364
sg45
Venvironmental
p3675
sg47
I364
sg48
I1778
sbag0
(g23
g2
Ntp3676
Rp3677
(dp3678
g27
(dp3679
g29
Vprotection
p3680
sg31
VO
p3681
sg33
VNN
p3682
sg35
I20
ssg10
I365
sg36
g4
sg37
(dp3683
sg39
(dp3684
sg41
I1779
sg42
g21
sg43
g21
sg44
I365
sg45
Vprotection
p3685
sg47
I365
sg48
I1789
sbag0
(g23
g2
Ntp3686
Rp3687
(dp3688
g27
(dp3689
g29
V.
p3690
sg31
VO
p3691
sg33
V.
p3692
sg35
I21
ssg10
I366
sg36
g4
sg37
(dp3693
sg39
(dp3694
sg41
I1789
sg42
g21
sg43
g21
sg44
I366
sg45
V.
p3695
sg47
I366
sg48
I1790
sbag0
(g23
g2
Ntp3696
Rp3697
(dp3698
g27
(dp3699
g29
Vthe
p3700
sg31
VO
p3701
sg33
VDT
p3702
sg35
I1
ssg10
I367
sg36
g4
sg37
(dp3703
sg39
(dp3704
sg41
I1793
sg42
g21
sg43
g21
sg44
I367
sg45
VThe
p3705
sg47
I367
sg48
I1796
sbag0
(g23
g2
Ntp3706
Rp3707
(dp3708
g27
(dp3709
g29
Vterm
p3710
sg31
VO
p3711
sg33
VNN
p3712
sg35
I2
ssg10
I368
sg36
g4
sg37
(dp3713
sg39
(dp3714
sg41
I1797
sg42
g21
sg43
g21
sg44
I368
sg45
Vterm
p3715
sg47
I368
sg48
I1801
sbag0
(g23
g2
Ntp3716
Rp3717
(dp3718
g27
(dp3719
g29
Vhave
p3720
sg31
VO
p3721
sg33
VVBZ
p3722
sg35
I3
ssg10
I369
sg36
g4
sg37
(dp3723
sg39
(dp3724
sg41
I1802
sg42
g21
sg43
g21
sg44
I369
sg45
Vhas
p3725
sg47
I369
sg48
I1805
sbag0
(g23
g2
Ntp3726
Rp3727
(dp3728
g27
(dp3729
g29
Vbe
p3730
sg31
VO
p3731
sg33
VVBN
p3732
sg35
I4
ssg10
I370
sg36
g4
sg37
(dp3733
sg39
(dp3734
sg41
I1806
sg42
g21
sg43
g21
sg44
I370
sg45
Vbeen
p3735
sg47
I370
sg48
I1810
sbag0
(g23
g2
Ntp3736
Rp3737
(dp3738
g27
(dp3739
g29
Vuse
p3740
sg31
VO
p3741
sg33
VVBN
p3742
sg35
I5
ssg10
I371
sg36
g4
sg37
(dp3743
sg39
(dp3744
sg41
I1811
sg42
g21
sg43
g21
sg44
I371
sg45
Vused
p3745
sg47
I371
sg48
I1815
sbag0
(g23
g2
Ntp3746
Rp3747
(dp3748
g27
(dp3749
g29
Vby
p3750
sg31
VO
p3751
sg33
VIN
p3752
sg35
I6
ssg10
I372
sg36
g4
sg37
(dp3753
sg39
(dp3754
sg41
I1816
sg42
g21
sg43
g21
sg44
I372
sg45
Vby
p3755
sg47
I372
sg48
I1818
sbag0
(g23
g2
Ntp3756
Rp3757
(dp3758
g27
(dp3759
g29
Vthose
p3760
sg31
VO
p3761
sg33
VDT
p3762
sg35
I7
ssg10
I373
sg36
g4
sg37
(dp3763
sg39
(dp3764
sg41
I1819
sg42
g21
sg43
g21
sg44
I373
sg45
Vthose
p3765
sg47
I373
sg48
I1824
sbag0
(g23
g2
Ntp3766
Rp3767
(dp3768
g27
(dp3769
g29
Vadvocate
p3770
sg31
VO
p3771
sg33
VVBG
p3772
sg35
I8
ssg10
I374
sg36
g4
sg37
(dp3773
sg39
(dp3774
sg41
I1825
sg42
g21
sg43
g21
sg44
I374
sg45
Vadvocating
p3775
sg47
I374
sg48
I1835
sbag0
(g23
g2
Ntp3776
Rp3777
(dp3778
g27
(dp3779
g29
V``
p3780
sg31
VO
p3781
sg33
V``
p3782
sg35
I9
ssg10
I375
sg36
g4
sg37
(dp3783
sg39
(dp3784
sg41
I1836
sg42
g21
sg43
g21
sg44
I375
sg45
g238
sg47
I375
sg48
I1837
sbag0
(g23
g2
Ntp3785
Rp3786
(dp3787
g27
(dp3788
g29
Vleft
p3789
sg31
VO
p3790
sg33
VJJ
p3791
sg35
I10
ssg10
I376
sg36
g4
sg37
(dp3792
sg39
(dp3793
sg41
I1837
sg42
g21
sg43
g21
sg44
I376
sg45
Vleft
p3794
sg47
I376
sg48
I1841
sbag0
(g23
g2
Ntp3795
Rp3796
(dp3797
g27
(dp3798
g29
Vbiocentrism
p3799
sg31
VO
p3800
sg33
VNN
p3801
sg35
I11
ssg10
I377
sg36
g4
sg37
(dp3802
sg39
(dp3803
sg41
I1842
sg42
g21
sg43
g21
sg44
I377
sg45
Vbiocentrism
p3804
sg47
I377
sg48
I1853
sbag0
(g23
g2
Ntp3805
Rp3806
(dp3807
g27
(dp3808
g29
V''
p3809
sg31
VO
p3810
sg33
V''
p3811
sg35
I12
ssg10
I378
sg36
g4
sg37
(dp3812
sg39
(dp3813
sg41
I1853
sg42
g21
sg43
g21
sg44
I378
sg45
g238
sg47
I378
sg48
I1854
sbag0
(g23
g2
Ntp3814
Rp3815
(dp3816
g27
(dp3817
g29
V,
p3818
sg31
VO
p3819
sg33
V,
p3820
sg35
I13
ssg10
I379
sg36
g4
sg37
(dp3821
sg39
(dp3822
sg41
I1854
sg42
g21
sg43
g21
sg44
I379
sg45
V,
p3823
sg47
I379
sg48
I1855
sbag0
(g23
g2
Ntp3824
Rp3825
(dp3826
g27
(dp3827
g29
Vcombine
p3828
sg31
VO
p3829
sg33
VVBG
p3830
sg35
I14
ssg10
I380
sg36
g4
sg37
(dp3831
sg39
(dp3832
sg41
I1856
sg42
g21
sg43
g21
sg44
I380
sg45
Vcombining
p3833
sg47
I380
sg48
I1865
sbag0
(g23
g2
Ntp3834
Rp3835
(dp3836
g27
(dp3837
g29
Vdeep
p3838
sg31
VO
p3839
sg33
VJJ
p3840
sg35
I15
ssg10
I381
sg36
g4
sg37
(dp3841
sg39
(dp3842
sg41
I1866
sg42
g21
sg43
g21
sg44
I381
sg45
Vdeep
p3843
sg47
I381
sg48
I1870
sbag0
(g23
g2
Ntp3844
Rp3845
(dp3846
g27
(dp3847
g29
Vecology
p3848
sg31
VO
p3849
sg33
VNN
p3850
sg35
I16
ssg10
I382
sg36
g4
sg37
(dp3851
sg39
(dp3852
sg41
I1871
sg42
g21
sg43
g21
sg44
I382
sg45
Vecology
p3853
sg47
I382
sg48
I1878
sbag0
(g23
g2
Ntp3854
Rp3855
(dp3856
g27
(dp3857
g29
Vwith
p3858
sg31
VO
p3859
sg33
VIN
p3860
sg35
I17
ssg10
I383
sg36
g4
sg37
(dp3861
sg39
(dp3862
sg41
I1879
sg42
g21
sg43
g21
sg44
I383
sg45
Vwith
p3863
sg47
I383
sg48
I1883
sbag0
(g23
g2
Ntp3864
Rp3865
(dp3866
g27
(dp3867
g29
Va
p3868
sg31
VO
p3869
sg33
VDT
p3870
sg35
I18
ssg10
I384
sg36
g4
sg37
(dp3871
sg39
(dp3872
sg41
I1884
sg42
g21
sg43
g21
sg44
I384
sg45
Van
p3873
sg47
I384
sg48
I1886
sbag0
(g23
g2
Ntp3874
Rp3875
(dp3876
g27
(dp3877
g29
V``
p3878
sg31
VO
p3879
sg33
V``
p3880
sg35
I19
ssg10
I385
sg36
g4
sg37
(dp3881
sg39
(dp3882
sg41
I1887
sg42
g21
sg43
g21
sg44
I385
sg45
g238
sg47
I385
sg48
I1888
sbag0
(g23
g2
Ntp3883
Rp3884
(dp3885
g27
(dp3886
g29
Vanti-industrial
p3887
sg31
VO
p3888
sg33
VJJ
p3889
sg35
I20
ssg10
I386
sg36
g4
sg37
(dp3890
sg39
(dp3891
sg41
I1888
sg42
g21
sg43
g21
sg44
I386
sg45
Vanti-industrial
p3892
sg47
I386
sg48
I1903
sbag0
(g23
g2
Ntp3893
Rp3894
(dp3895
g27
(dp3896
g29
Vand
p3897
sg31
VO
p3898
sg33
VCC
p3899
sg35
I21
ssg10
I387
sg36
g4
sg37
(dp3900
sg39
(dp3901
sg41
I1904
sg42
g21
sg43
g21
sg44
I387
sg45
Vand
p3902
sg47
I387
sg48
I1907
sbag0
(g23
g2
Ntp3903
Rp3904
(dp3905
g27
(dp3906
g29
Vanti-capitalist
p3907
sg31
VO
p3908
sg33
VJJ
p3909
sg35
I22
ssg10
I388
sg36
g4
sg37
(dp3910
sg39
(dp3911
sg41
I1908
sg42
g21
sg43
g21
sg44
I388
sg45
Vanti-capitalist
p3912
sg47
I388
sg48
I1923
sbag0
(g23
g2
Ntp3913
Rp3914
(dp3915
g27
(dp3916
g29
V''
p3917
sg31
VO
p3918
sg33
V''
p3919
sg35
I23
ssg10
I389
sg36
g4
sg37
(dp3920
sg39
(dp3921
sg41
I1923
sg42
g21
sg43
g21
sg44
I389
sg45
g238
sg47
I389
sg48
I1924
sbag0
(g23
g2
Ntp3922
Rp3923
(dp3924
g27
(dp3925
g29
Vposition
p3926
sg31
VO
p3927
sg33
VNN
p3928
sg35
I24
ssg10
I390
sg36
g4
sg37
(dp3929
sg39
(dp3930
sg41
I1925
sg42
g21
sg43
g21
sg44
I390
sg45
Vposition
p3931
sg47
I390
sg48
I1933
sbag0
(g23
g2
Ntp3932
Rp3933
(dp3934
g27
(dp3935
g29
V-lrb-
p3936
sg31
VO
p3937
sg33
V-LRB-
p3938
sg35
I25
ssg10
I391
sg36
g4
sg37
(dp3939
sg39
(dp3940
sg41
I1934
sg42
g21
sg43
g21
sg44
I391
sg45
V(
p3941
sg47
I391
sg48
I1935
sbag0
(g23
g2
Ntp3942
Rp3943
(dp3944
g27
(dp3945
g29
VDavid
p3946
sg31
VPERSON
p3947
sg33
VNNP
p3948
sg35
I26
ssg10
I392
sg36
g4
sg37
(dp3949
sg39
(dp3950
sg41
I1935
sg42
g21
sg43
g21
sg44
I392
sg45
VDavid
p3951
sg47
I392
sg48
I1940
sbag0
(g23
g2
Ntp3952
Rp3953
(dp3954
g27
(dp3955
g29
VOrton
p3956
sg31
VPERSON
p3957
sg33
VNNP
p3958
sg35
I27
ssg10
I393
sg36
g4
sg37
(dp3959
sg39
(dp3960
sg41
I1941
sg42
g21
sg43
g21
sg44
I393
sg45
VOrton
p3961
sg47
I393
sg48
I1946
sbag0
(g23
g2
Ntp3962
Rp3963
(dp3964
g27
(dp3965
g29
Vet
p3966
sg31
VO
p3967
sg33
VFW
p3968
sg35
I28
ssg10
I394
sg36
g4
sg37
(dp3969
sg39
(dp3970
sg41
I1947
sg42
g21
sg43
g21
sg44
I394
sg45
Vet
p3971
sg47
I394
sg48
I1949
sbag0
(g23
g2
Ntp3972
Rp3973
(dp3974
g27
(dp3975
g29
Val.
p3976
sg31
VO
p3977
sg33
VFW
p3978
sg35
I29
ssg10
I395
sg36
g4
sg37
(dp3979
sg39
(dp3980
sg41
I1950
sg42
g21
sg43
g21
sg44
I395
sg45
Val.
p3981
sg47
I395
sg48
I1953
sbag0
(g23
g2
Ntp3982
Rp3983
(dp3984
g27
(dp3985
g29
V-rrb-
p3986
sg31
VO
p3987
sg33
V-RRB-
p3988
sg35
I30
ssg10
I396
sg36
g4
sg37
(dp3989
sg39
(dp3990
sg41
I1953
sg42
g21
sg43
g21
sg44
I396
sg45
V)
p3991
sg47
I396
sg48
I1954
sbag0
(g23
g2
Ntp3992
Rp3993
(dp3994
g27
(dp3995
g29
V-lsb-
p3996
sg31
VO
p3997
sg33
V-LRB-
p3998
sg35
I31
ssg10
I397
sg36
g4
sg37
(dp3999
sg39
(dp4000
sg41
I1955
sg42
g21
sg43
g21
sg44
I397
sg45
V[
p4001
sg47
I397
sg48
I1956
sbag0
(g23
g2
Ntp4002
Rp4003
(dp4004
g27
(dp4005
g29
Vref
p4006
sg31
VO
p4007
sg33
VNN
p4008
sg35
I32
ssg10
I398
sg36
g4
sg37
(dp4009
sg39
(dp4010
sg41
I1956
sg42
g21
sg43
g21
sg44
I398
sg45
VREF
p4011
sg47
I398
sg48
I1959
sbag0
(g23
g2
Ntp4012
Rp4013
(dp4014
g27
(dp4015
g29
V-rsb-
p4016
sg31
VO
p4017
sg33
V-RRB-
p4018
sg35
I33
ssg10
I399
sg36
g4
sg37
(dp4019
sg39
(dp4020
sg41
I1959
sg42
g21
sg43
g21
sg44
I399
sg45
V]
p4021
sg47
I399
sg48
I1960
sbag0
(g23
g2
Ntp4022
Rp4023
(dp4024
g27
(dp4025
g29
V.
p4026
sg31
VO
p4027
sg33
V.
p4028
sg35
I34
ssg10
I400
sg36
g4
sg37
(dp4029
sg39
(dp4030
sg41
I1960
sg42
g21
sg43
g21
sg44
I400
sg45
V.
p4031
sg47
I400
sg48
I1961
sbag0
(g23
g2
Ntp4032
Rp4033
(dp4034
g27
(dp4035
g29
Vthe
p4036
sg31
VO
p4037
sg33
VDT
p4038
sg35
I1
ssg10
I401
sg36
g4
sg37
(dp4039
sg39
(dp4040
sg41
I1963
sg42
g21
sg43
g21
sg44
I401
sg45
VThe
p4041
sg47
I401
sg48
I1966
sbag0
(g23
g2
Ntp4042
Rp4043
(dp4044
g27
(dp4045
g29
Vterm
p4046
sg31
VO
p4047
sg33
VNN
p4048
sg35
I2
ssg10
I402
sg36
g4
sg37
(dp4049
sg39
(dp4050
sg41
I1967
sg42
g21
sg43
g21
sg44
I402
sg45
Vterm
p4051
sg47
I402
sg48
I1971
sbag0
(g23
g2
Ntp4052
Rp4053
(dp4054
g27
(dp4055
g29
Vbiocentrism
p4056
sg31
VO
p4057
sg33
VNN
p4058
sg35
I3
ssg10
I403
sg36
g4
sg37
(dp4059
sg39
(dp4060
sg41
I1972
sg42
g21
sg43
g21
sg44
I403
sg45
Vbiocentrism
p4061
sg47
I403
sg48
I1983
sbag0
(g23
g2
Ntp4062
Rp4063
(dp4064
g27
(dp4065
g29
Vbe
p4066
sg31
VO
p4067
sg33
VVBZ
p4068
sg35
I4
ssg10
I404
sg36
g4
sg37
(dp4069
sg39
(dp4070
sg41
I1980
sg42
g21
sg43
g21
sg44
I404
sg45
Vis
p4071
sg47
I404
sg48
I1982
sbag0
(g23
g2
Ntp4072
Rp4073
(dp4074
g27
(dp4075
g29
Vstrongly
p4076
sg31
VO
p4077
sg33
VRB
p4078
sg35
I5
ssg10
I405
sg36
g4
sg37
(dp4079
sg39
(dp4080
sg41
I1987
sg42
g21
sg43
g21
sg44
I405
sg45
Vstrongly
p4081
sg47
I405
sg48
I1995
sbag0
(g23
g2
Ntp4082
Rp4083
(dp4084
g27
(dp4085
g29
Vassociate
p4086
sg31
VO
p4087
sg33
VVBN
p4088
sg35
I6
ssg10
I406
sg36
g4
sg37
(dp4089
sg39
(dp4090
sg41
I1996
sg42
g21
sg43
g21
sg44
I406
sg45
Vassociated
p4091
sg47
I406
sg48
I2006
sbag0
(g23
g2
Ntp4092
Rp4093
(dp4094
g27
(dp4095
g29
Vwith
p4096
sg31
VO
p4097
sg33
VIN
p4098
sg35
I7
ssg10
I407
sg36
g4
sg37
(dp4099
sg39
(dp4100
sg41
I2007
sg42
g21
sg43
g21
sg44
I407
sg45
Vwith
p4101
sg47
I407
sg48
I2011
sbag0
(g23
g2
Ntp4102
Rp4103
(dp4104
g27
(dp4105
g29
Vthe
p4106
sg31
VO
p4107
sg33
VDT
p4108
sg35
I8
ssg10
I408
sg36
g4
sg37
(dp4109
sg39
(dp4110
sg41
I2012
sg42
g21
sg43
g21
sg44
I408
sg45
Vthe
p4111
sg47
I408
sg48
I2015
sbag0
(g23
g2
Ntp4112
Rp4113
(dp4114
g27
(dp4115
g29
Vwork
p4116
sg31
VO
p4117
sg33
VNN
p4118
sg35
I9
ssg10
I409
sg36
g4
sg37
(dp4119
sg39
(dp4120
sg41
I2016
sg42
g21
sg43
g21
sg44
I409
sg45
Vwork
p4121
sg47
I409
sg48
I2020
sbag0
(g23
g2
Ntp4122
Rp4123
(dp4124
g27
(dp4125
g29
Vof
p4126
sg31
VO
p4127
sg33
VIN
p4128
sg35
I10
ssg10
I410
sg36
g4
sg37
(dp4129
sg39
(dp4130
sg41
I2021
sg42
g21
sg43
g21
sg44
I410
sg45
Vof
p4131
sg47
I410
sg48
I2023
sbag0
(g23
g2
Ntp4132
Rp4133
(dp4134
g27
(dp4135
g29
Vthe
p4136
sg31
VO
p4137
sg33
VDT
p4138
sg35
I11
ssg10
I411
sg36
g4
sg37
(dp4139
sg39
(dp4140
sg41
I2024
sg42
g21
sg43
g21
sg44
I411
sg45
Vthe
p4141
sg47
I411
sg48
I2027
sbag0
(g23
g2
Ntp4142
Rp4143
(dp4144
g27
(dp4145
g29
Vphilosopher
p4146
sg31
VO
p4147
sg33
VNN
p4148
sg35
I12
ssg10
I412
sg36
g4
sg37
(dp4149
sg39
(dp4150
sg41
I2028
sg42
g21
sg43
g21
sg44
I412
sg45
Vphilosopher
p4151
sg47
I412
sg48
I2039
sbag0
(g23
g2
Ntp4152
Rp4153
(dp4154
g27
(dp4155
g29
VPaul
p4156
sg31
VPERSON
p4157
sg33
VNNP
p4158
sg35
I13
ssg10
I413
sg36
g4
sg37
(dp4159
sg39
(dp4160
sg41
I2040
sg42
g21
sg43
g21
sg44
I413
sg45
VPaul
p4161
sg47
I413
sg48
I2044
sbag0
(g23
g2
Ntp4162
Rp4163
(dp4164
g27
(dp4165
g29
VTaylor
p4166
sg31
VPERSON
p4167
sg33
VNNP
p4168
sg35
I14
ssg10
I414
sg36
g4
sg37
(dp4169
sg39
(dp4170
sg41
I2045
sg42
g21
sg43
g21
sg44
I414
sg45
VTaylor
p4171
sg47
I414
sg48
I2051
sbag0
(g23
g2
Ntp4172
Rp4173
(dp4174
g27
(dp4175
g29
V,
p4176
sg31
VO
p4177
sg33
V,
p4178
sg35
I15
ssg10
I415
sg36
g4
sg37
(dp4179
sg39
(dp4180
sg41
I2051
sg42
g21
sg43
g21
sg44
I415
sg45
V,
p4181
sg47
I415
sg48
I2052
sbag0
(g23
g2
Ntp4182
Rp4183
(dp4184
g27
(dp4185
g29
Vespecially
p4186
sg31
VO
p4187
sg33
VRB
p4188
sg35
I16
ssg10
I416
sg36
g4
sg37
(dp4189
sg39
(dp4190
sg41
I2053
sg42
g21
sg43
g21
sg44
I416
sg45
Vespecially
p4191
sg47
I416
sg48
I2063
sbag0
(g23
g2
Ntp4192
Rp4193
(dp4194
g27
(dp4195
g29
Vhe
p4196
sg31
VO
p4197
sg33
VPRP$
p4198
sg35
I17
ssg10
I417
sg36
g4
sg37
(dp4199
sg39
(dp4200
sg41
I2064
sg42
g21
sg43
g21
sg44
I417
sg45
Vhis
p4201
sg47
I417
sg48
I2067
sbag0
(g23
g2
Ntp4202
Rp4203
(dp4204
g27
(dp4205
g29
Vbook
p4206
sg31
VO
p4207
sg33
VNN
p4208
sg35
I18
ssg10
I418
sg36
g4
sg37
(dp4209
sg39
(dp4210
sg41
I2068
sg42
g21
sg43
g21
sg44
I418
sg45
Vbook
p4211
sg47
I418
sg48
I2072
sbag0
(g23
g2
Ntp4212
Rp4213
(dp4214
g27
(dp4215
g29
Vrespect
p4216
sg31
VO
p4217
sg33
VNN
p4218
sg35
I19
ssg10
I419
sg36
g4
sg37
(dp4219
sg39
(dp4220
sg41
I2073
sg42
g21
sg43
g21
sg44
I419
sg45
VRespect
p4221
sg47
I419
sg48
I2080
sbag0
(g23
g2
Ntp4222
Rp4223
(dp4224
g27
(dp4225
g29
Vfor
p4226
sg31
VO
p4227
sg33
VIN
p4228
sg35
I20
ssg10
I420
sg36
g4
sg37
(dp4229
sg39
(dp4230
sg41
I2081
sg42
g21
sg43
g21
sg44
I420
sg45
Vfor
p4231
sg47
I420
sg48
I2084
sbag0
(g23
g2
Ntp4232
Rp4233
(dp4234
g27
(dp4235
g29
Vnature
p4236
sg31
VO
p4237
sg33
VNN
p4238
sg35
I21
ssg10
I421
sg36
g4
sg37
(dp4239
sg39
(dp4240
sg41
I2085
sg42
g21
sg43
g21
sg44
I421
sg45
VNature
p4241
sg47
I421
sg48
I2091
sbag0
(g23
g2
Ntp4242
Rp4243
(dp4244
g27
(dp4245
g29
V:
p4246
sg31
VO
p4247
sg33
V:
p4248
sg35
I22
ssg10
I422
sg36
g4
sg37
(dp4249
sg39
(dp4250
sg41
I2091
sg42
g21
sg43
g21
sg44
I422
sg45
V:
p4251
sg47
I422
sg48
I2092
sbag0
(g23
g2
Ntp4252
Rp4253
(dp4254
g27
(dp4255
g29
Va
p4256
sg31
VO
p4257
sg33
VDT
p4258
sg35
I23
ssg10
I423
sg36
g4
sg37
(dp4259
sg39
(dp4260
sg41
I2093
sg42
g21
sg43
g21
sg44
I423
sg45
VA
p4261
sg47
I423
sg48
I2094
sbag0
(g23
g2
Ntp4262
Rp4263
(dp4264
g27
(dp4265
g29
VTheory
p4266
sg31
VO
p4267
sg33
VNNP
p4268
sg35
I24
ssg10
I424
sg36
g4
sg37
(dp4269
sg39
(dp4270
sg41
I2095
sg42
g21
sg43
g21
sg44
I424
sg45
VTheory
p4271
sg47
I424
sg48
I2101
sbag0
(g23
g2
Ntp4272
Rp4273
(dp4274
g27
(dp4275
g29
Vof
p4276
sg31
VO
p4277
sg33
VIN
p4278
sg35
I25
ssg10
I425
sg36
g4
sg37
(dp4279
sg39
(dp4280
sg41
I2102
sg42
g21
sg43
g21
sg44
I425
sg45
Vof
p4281
sg47
I425
sg48
I2104
sbag0
(g23
g2
Ntp4282
Rp4283
(dp4284
g27
(dp4285
g29
VEnvironmental
p4286
sg31
VO
p4287
sg33
VNNP
p4288
sg35
I26
ssg10
I426
sg36
g4
sg37
(dp4289
sg39
(dp4290
sg41
I2105
sg42
g21
sg43
g21
sg44
I426
sg45
VEnvironmental
p4291
sg47
I426
sg48
I2118
sbag0
(g23
g2
Ntp4292
Rp4293
(dp4294
g27
(dp4295
g29
VEthics
p4296
sg31
VO
p4297
sg33
VNNP
p4298
sg35
I27
ssg10
I427
sg36
g4
sg37
(dp4299
sg39
(dp4300
sg41
I2119
sg42
g21
sg43
g21
sg44
I427
sg45
VEthics
p4301
sg47
I427
sg48
I2125
sbag0
(g23
g2
Ntp4302
Rp4303
(dp4304
g27
(dp4305
g29
V-lrb-
p4306
sg31
VO
p4307
sg33
V-LRB-
p4308
sg35
I28
ssg10
I428
sg36
g4
sg37
(dp4309
sg39
(dp4310
sg41
I2126
sg42
g21
sg43
g21
sg44
I428
sg45
V(
p4311
sg47
I428
sg48
I2127
sbag0
(g23
g2
Ntp4312
Rp4313
(dp4314
g27
(dp4315
g29
V1986
p4316
sg31
VDATE
p4317
sg33
VCD
p4318
sg35
I29
ssg10
I429
sg36
g4
sg37
(dp4319
sg39
(dp4320
sg41
I2127
sg42
g21
sg43
g21
sg44
I429
sg45
V1986
p4321
sg47
I429
sg48
I2131
sbag0
(g23
g2
Ntp4322
Rp4323
(dp4324
g27
(dp4325
g29
V-rrb-
p4326
sg31
VO
p4327
sg33
V-RRB-
p4328
sg35
I30
ssg10
I430
sg36
g4
sg37
(dp4329
sg39
(dp4330
sg41
I2131
sg42
g21
sg43
g21
sg44
I430
sg45
V)
p4331
sg47
I430
sg48
I2132
sbag0
(g23
g2
Ntp4332
Rp4333
(dp4334
g27
(dp4335
g29
V.
p4336
sg31
VO
p4337
sg33
V.
p4338
sg35
I31
ssg10
I431
sg36
g4
sg37
(dp4339
sg39
(dp4340
sg41
I2132
sg42
g21
sg43
g21
sg44
I431
sg45
V.
p4341
sg47
I431
sg48
I2133
sbag0
(g23
g2
Ntp4342
Rp4343
(dp4344
g27
(dp4345
g29
V-lrb-
p4346
sg31
VO
p4347
sg33
V-LRB-
p4348
sg35
I1
ssg10
I432
sg36
g4
sg37
(dp4349
sg39
(dp4350
sg41
I2134
sg42
g21
sg43
g21
sg44
I432
sg45
V(
p4351
sg47
I432
sg48
I2135
sbag0
(g23
g2
Ntp4352
Rp4353
(dp4354
g27
(dp4355
g29
Visbn
p4356
sg31
VO
p4357
sg33
VNN
p4358
sg35
I2
ssg10
I433
sg36
g4
sg37
(dp4359
sg39
(dp4360
sg41
I2135
sg42
g21
sg43
g21
sg44
I433
sg45
VISBN
p4361
sg47
I433
sg48
I2139
sbag0
(g23
g2
Ntp4362
Rp4363
(dp4364
g27
(dp4365
g29
V978-0691150246
p4366
sg31
VNUMBER
p4367
sg33
VCD
p4368
sg35
I3
ssg10
I434
sg36
g4
sg37
(dp4369
sg39
(dp4370
sg41
I2140
sg42
g21
sg43
g21
sg44
I434
sg45
V978-0691150246
p4371
sg47
I434
sg48
I2154
sbag0
(g23
g2
Ntp4372
Rp4373
(dp4374
g27
(dp4375
g29
V-rrb-
p4376
sg31
VO
p4377
sg33
V-RRB-
p4378
sg35
I4
ssg10
I435
sg36
g4
sg37
(dp4379
sg39
(dp4380
sg41
I2154
sg42
g21
sg43
g21
sg44
I435
sg45
V)
p4381
sg47
I435
sg48
I2155
sbag0
(g23
g2
Ntp4382
Rp4383
(dp4384
g27
(dp4385
g29
V-lsb-
p4386
sg31
VO
p4387
sg33
V-LRB-
p4388
sg35
I5
ssg10
I436
sg36
g4
sg37
(dp4389
sg39
(dp4390
sg41
I2156
sg42
g21
sg43
g21
sg44
I436
sg45
V[
p4391
sg47
I436
sg48
I2157
sbag0
(g23
g2
Ntp4392
Rp4393
(dp4394
g27
(dp4395
g29
Vref
p4396
sg31
VO
p4397
sg33
VNN
p4398
sg35
I6
ssg10
I437
sg36
g4
sg37
(dp4399
sg39
(dp4400
sg41
I2157
sg42
g21
sg43
g21
sg44
I437
sg45
VREF
p4401
sg47
I437
sg48
I2160
sbag0
(g23
g2
Ntp4402
Rp4403
(dp4404
g27
(dp4405
g29
V-rsb-
p4406
sg31
VO
p4407
sg33
V-RRB-
p4408
sg35
I7
ssg10
I438
sg36
g4
sg37
(dp4409
sg39
(dp4410
sg41
I2160
sg42
g21
sg43
g21
sg44
I438
sg45
V]
p4411
sg47
I438
sg48
I2161
sbag0
(g23
g2
Ntp4412
Rp4413
(dp4414
g27
(dp4415
g29
V.
p4416
sg31
VO
p4417
sg33
V.
p4418
sg35
I8
ssg10
I439
sg36
g4
sg37
(dp4419
sg39
(dp4420
sg41
I2162
sg42
g21
sg43
g21
sg44
I439
sg45
V.
p4421
sg47
I439
sg48
I2163
sbag0
(g23
g2
Ntp4422
Rp4423
(dp4424
g27
(dp4425
g29
Vhowever
p4426
sg31
VO
p4427
sg33
VRB
p4428
sg35
I1
ssg10
I440
sg36
g4
sg37
(dp4429
sg39
(dp4430
sg41
I2166
sg42
g21
sg43
g21
sg44
I440
sg45
VHowever
p4431
sg47
I440
sg48
I2173
sbag0
(g23
g2
Ntp4432
Rp4433
(dp4434
g27
(dp4435
g29
V,
p4436
sg31
VO
p4437
sg33
V,
p4438
sg35
I2
ssg10
I441
sg36
g4
sg37
(dp4439
sg39
(dp4440
sg41
I2173
sg42
g21
sg43
g21
sg44
I441
sg45
V,
p4441
sg47
I441
sg48
I2174
sbag0
(g23
g2
Ntp4442
Rp4443
(dp4444
g27
(dp4445
g29
Vhistorian
p4446
sg31
VO
p4447
sg33
VNN
p4448
sg35
I3
ssg10
I442
sg36
g4
sg37
(dp4449
sg39
(dp4450
sg41
I2175
sg42
g21
sg43
g21
sg44
I442
sg45
Vhistorian
p4451
sg47
I442
sg48
I2184
sbag0
(g23
g2
Ntp4452
Rp4453
(dp4454
g27
(dp4455
g29
VDonald
p4456
sg31
VPERSON
p4457
sg33
VNNP
p4458
sg35
I4
ssg10
I443
sg36
g4
sg37
(dp4459
sg39
(dp4460
sg41
I2185
sg42
g21
sg43
g21
sg44
I443
sg45
VDonald
p4461
sg47
I443
sg48
I2191
sbag0
(g23
g2
Ntp4462
Rp4463
(dp4464
g27
(dp4465
g29
VWorster
p4466
sg31
VPERSON
p4467
sg33
VNNP
p4468
sg35
I5
ssg10
I444
sg36
g4
sg37
(dp4469
sg39
(dp4470
sg41
I2192
sg42
g21
sg43
g21
sg44
I444
sg45
VWorster
p4471
sg47
I444
sg48
I2199
sbag0
(g23
g2
Ntp4472
Rp4473
(dp4474
g27
(dp4475
g29
Vhave
p4476
sg31
VO
p4477
sg33
VVBZ
p4478
sg35
I6
ssg10
I445
sg36
g4
sg37
(dp4479
sg39
(dp4480
sg41
I2200
sg42
g21
sg43
g21
sg44
I445
sg45
Vhas
p4481
sg47
I445
sg48
I2203
sbag0
(g23
g2
Ntp4482
Rp4483
(dp4484
g27
(dp4485
g29
Vtrace
p4486
sg31
VO
p4487
sg33
VVBN
p4488
sg35
I7
ssg10
I446
sg36
g4
sg37
(dp4489
sg39
(dp4490
sg41
I2204
sg42
g21
sg43
g21
sg44
I446
sg45
Vtraced
p4491
sg47
I446
sg48
I2210
sbag0
(g23
g2
Ntp4492
Rp4493
(dp4494
g27
(dp4495
g29
Vtoday
p4496
sg31
VDATE
p4497
sg33
VNN
p4498
sg35
I8
ssg10
I447
sg36
g4
sg37
(dp4499
sg39
(dp4500
sg41
I2211
sg42
g21
sg43
g21
sg44
I447
sg45
Vtoday
p4501
sg47
I447
sg48
I2216
sbag0
(g23
g2
Ntp4502
Rp4503
(dp4504
g27
(dp4505
g29
V's
p4506
sg31
VO
p4507
sg33
VPOS
p4508
sg35
I9
ssg10
I448
sg36
g4
sg37
(dp4509
sg39
(dp4510
sg41
I2216
sg42
g21
sg43
g21
sg44
I448
sg45
V's
p4511
sg47
I448
sg48
I2218
sbag0
(g23
g2
Ntp4512
Rp4513
(dp4514
g27
(dp4515
g29
Vbiocentric
p4516
sg31
VO
p4517
sg33
VJJ
p4518
sg35
I10
ssg10
I449
sg36
g4
sg37
(dp4519
sg39
(dp4520
sg41
I2219
sg42
g21
sg43
g21
sg44
I449
sg45
Vbiocentric
p4521
sg47
I449
sg48
I2229
sbag0
(g23
g2
Ntp4522
Rp4523
(dp4524
g27
(dp4525
g29
Vphilosophy
p4526
sg31
VO
p4527
sg33
VNNS
p4528
sg35
I11
ssg10
I450
sg36
g4
sg37
(dp4529
sg39
(dp4530
sg41
I2230
sg42
g21
sg43
g21
sg44
I450
sg45
Vphilosophies
p4531
sg47
I450
sg48
I2242
sbag0
(g23
g2
Ntp4532
Rp4533
(dp4534
g27
(dp4535
g29
V,
p4536
sg31
VO
p4537
sg33
V,
p4538
sg35
I12
ssg10
I451
sg36
g4
sg37
(dp4539
sg39
(dp4540
sg41
I2242
sg42
g21
sg43
g21
sg44
I451
sg45
V,
p4541
sg47
I451
sg48
I2243
sbag0
(g23
g2
Ntp4542
Rp4543
(dp4544
g27
(dp4545
g29
Vwhich
p4546
sg31
VO
p4547
sg33
VWDT
p4548
sg35
I13
ssg10
I452
sg36
g4
sg37
(dp4549
sg39
(dp4550
sg41
I2244
sg42
g21
sg43
g21
sg44
I452
sg45
Vwhich
p4551
sg47
I452
sg48
I2249
sbag0
(g23
g2
Ntp4552
Rp4553
(dp4554
g27
(dp4555
g29
Vhe
p4556
sg31
VO
p4557
sg33
VPRP
p4558
sg35
I14
ssg10
I453
sg36
g4
sg37
(dp4559
sg39
(dp4560
sg41
I2250
sg42
g21
sg43
g21
sg44
I453
sg45
Vhe
p4561
sg47
I453
sg48
I2252
sbag0
(g23
g2
Ntp4562
Rp4563
(dp4564
g27
(dp4565
g29
Vsee
p4566
sg31
VO
p4567
sg33
VVBZ
p4568
sg35
I15
ssg10
I454
sg36
g4
sg37
(dp4569
sg39
(dp4570
sg41
I2253
sg42
g21
sg43
g21
sg44
I454
sg45
Vsees
p4571
sg47
I454
sg48
I2257
sbag0
(g23
g2
Ntp4572
Rp4573
(dp4574
g27
(dp4575
g29
Vas
p4576
sg31
VO
p4577
sg33
VIN
p4578
sg35
I16
ssg10
I455
sg36
g4
sg37
(dp4579
sg39
(dp4580
sg41
I2258
sg42
g21
sg43
g21
sg44
I455
sg45
Vas
p4581
sg47
I455
sg48
I2260
sbag0
(g23
g2
Ntp4582
Rp4583
(dp4584
g27
(dp4585
g29
Vpart
p4586
sg31
VO
p4587
sg33
VNN
p4588
sg35
I17
ssg10
I456
sg36
g4
sg37
(dp4589
sg39
(dp4590
sg41
I2261
sg42
g21
sg43
g21
sg44
I456
sg45
Vpart
p4591
sg47
I456
sg48
I2265
sbag0
(g23
g2
Ntp4592
Rp4593
(dp4594
g27
(dp4595
g29
Vof
p4596
sg31
VO
p4597
sg33
VIN
p4598
sg35
I18
ssg10
I457
sg36
g4
sg37
(dp4599
sg39
(dp4600
sg41
I2266
sg42
g21
sg43
g21
sg44
I457
sg45
Vof
p4601
sg47
I457
sg48
I2268
sbag0
(g23
g2
Ntp4602
Rp4603
(dp4604
g27
(dp4605
g29
Va
p4606
sg31
VO
p4607
sg33
VDT
p4608
sg35
I19
ssg10
I458
sg36
g4
sg37
(dp4609
sg39
(dp4610
sg41
I2269
sg42
g21
sg43
g21
sg44
I458
sg45
Va
p4611
sg47
I458
sg48
I2270
sbag0
(g23
g2
Ntp4612
Rp4613
(dp4614
g27
(dp4615
g29
Vrecovery
p4616
sg31
VO
p4617
sg33
VNN
p4618
sg35
I20
ssg10
I459
sg36
g4
sg37
(dp4619
sg39
(dp4620
sg41
I2271
sg42
g21
sg43
g21
sg44
I459
sg45
Vrecovery
p4621
sg47
I459
sg48
I2279
sbag0
(g23
g2
Ntp4622
Rp4623
(dp4624
g27
(dp4625
g29
Vof
p4626
sg31
VO
p4627
sg33
VIN
p4628
sg35
I21
ssg10
I460
sg36
g4
sg37
(dp4629
sg39
(dp4630
sg41
I2280
sg42
g21
sg43
g21
sg44
I460
sg45
Vof
p4631
sg47
I460
sg48
I2282
sbag0
(g23
g2
Ntp4632
Rp4633
(dp4634
g27
(dp4635
g29
Va
p4636
sg31
VO
p4637
sg33
VDT
p4638
sg35
I22
ssg10
I461
sg36
g4
sg37
(dp4639
sg39
(dp4640
sg41
I2283
sg42
g21
sg43
g21
sg44
I461
sg45
Va
p4641
sg47
I461
sg48
I2284
sbag0
(g23
g2
Ntp4642
Rp4643
(dp4644
g27
(dp4645
g29
Vsense
p4646
sg31
VO
p4647
sg33
VNN
p4648
sg35
I23
ssg10
I462
sg36
g4
sg37
(dp4649
sg39
(dp4650
sg41
I2285
sg42
g21
sg43
g21
sg44
I462
sg45
Vsense
p4651
sg47
I462
sg48
I2290
sbag0
(g23
g2
Ntp4652
Rp4653
(dp4654
g27
(dp4655
g29
Vof
p4656
sg31
VO
p4657
sg33
VIN
p4658
sg35
I24
ssg10
I463
sg36
g4
sg37
(dp4659
sg39
(dp4660
sg41
I2291
sg42
g21
sg43
g21
sg44
I463
sg45
Vof
p4661
sg47
I463
sg48
I2293
sbag0
(g23
g2
Ntp4662
Rp4663
(dp4664
g27
(dp4665
g29
Vkinship
p4666
sg31
VO
p4667
sg33
VNN
p4668
sg35
I25
ssg10
I464
sg36
g4
sg37
(dp4669
sg39
(dp4670
sg41
I2294
sg42
g21
sg43
g21
sg44
I464
sg45
Vkinship
p4671
sg47
I464
sg48
I2301
sbag0
(g23
g2
Ntp4672
Rp4673
(dp4674
g27
(dp4675
g29
Vbetween
p4676
sg31
VO
p4677
sg33
VIN
p4678
sg35
I26
ssg10
I465
sg36
g4
sg37
(dp4679
sg39
(dp4680
sg41
I2302
sg42
g21
sg43
g21
sg44
I465
sg45
Vbetween
p4681
sg47
I465
sg48
I2309
sbag0
(g23
g2
Ntp4682
Rp4683
(dp4684
g27
(dp4685
g29
Vman
p4686
sg31
VO
p4687
sg33
VNN
p4688
sg35
I27
ssg10
I466
sg36
g4
sg37
(dp4689
sg39
(dp4690
sg41
I2310
sg42
g21
sg43
g21
sg44
I466
sg45
Vman
p4691
sg47
I466
sg48
I2313
sbag0
(g23
g2
Ntp4692
Rp4693
(dp4694
g27
(dp4695
g29
Vand
p4696
sg31
VO
p4697
sg33
VCC
p4698
sg35
I28
ssg10
I467
sg36
g4
sg37
(dp4699
sg39
(dp4700
sg41
I2314
sg42
g21
sg43
g21
sg44
I467
sg45
Vand
p4701
sg47
I467
sg48
I2317
sbag0
(g23
g2
Ntp4702
Rp4703
(dp4704
g27
(dp4705
g29
Vnature
p4706
sg31
VO
p4707
sg33
VNN
p4708
sg35
I29
ssg10
I468
sg36
g4
sg37
(dp4709
sg39
(dp4710
sg41
I2318
sg42
g21
sg43
g21
sg44
I468
sg45
Vnature
p4711
sg47
I468
sg48
I2324
sbag0
(g23
g2
Ntp4712
Rp4713
(dp4714
g27
(dp4715
g29
V,
p4716
sg31
VO
p4717
sg33
V,
p4718
sg35
I30
ssg10
I469
sg36
g4
sg37
(dp4719
sg39
(dp4720
sg41
I2324
sg42
g21
sg43
g21
sg44
I469
sg45
V,
p4721
sg47
I469
sg48
I2325
sbag0
(g23
g2
Ntp4722
Rp4723
(dp4724
g27
(dp4725
g29
Vto
p4726
sg31
VO
p4727
sg33
VTO
p4728
sg35
I31
ssg10
I470
sg36
g4
sg37
(dp4729
sg39
(dp4730
sg41
I2326
sg42
g21
sg43
g21
sg44
I470
sg45
Vto
p4731
sg47
I470
sg48
I2328
sbag0
(g23
g2
Ntp4732
Rp4733
(dp4734
g27
(dp4735
g29
Vthe
p4736
sg31
VO
p4737
sg33
VDT
p4738
sg35
I32
ssg10
I471
sg36
g4
sg37
(dp4739
sg39
(dp4740
sg41
I2329
sg42
g21
sg43
g21
sg44
I471
sg45
Vthe
p4741
sg47
I471
sg48
I2332
sbag0
(g23
g2
Ntp4742
Rp4743
(dp4744
g27
(dp4745
g29
Vreaction
p4746
sg31
VO
p4747
sg33
VNN
p4748
sg35
I33
ssg10
I472
sg36
g4
sg37
(dp4749
sg39
(dp4750
sg41
I2333
sg42
g21
sg43
g21
sg44
I472
sg45
Vreaction
p4751
sg47
I472
sg48
I2341
sbag0
(g23
g2
Ntp4752
Rp4753
(dp4754
g27
(dp4755
g29
Vby
p4756
sg31
VO
p4757
sg33
VIN
p4758
sg35
I34
ssg10
I473
sg36
g4
sg37
(dp4759
sg39
(dp4760
sg41
I2342
sg42
g21
sg43
g21
sg44
I473
sg45
Vby
p4761
sg47
I473
sg48
I2344
sbag0
(g23
g2
Ntp4762
Rp4763
(dp4764
g27
(dp4765
g29
Vthe
p4766
sg31
VO
p4767
sg33
VDT
p4768
sg35
I35
ssg10
I474
sg36
g4
sg37
(dp4769
sg39
(dp4770
sg41
I2345
sg42
g21
sg43
g21
sg44
I474
sg45
Vthe
p4771
sg47
I474
sg48
I2348
sbag0
(g23
g2
Ntp4772
Rp4773
(dp4774
g27
(dp4775
g29
Vbritish
p4776
sg31
VMISC
p4777
sg33
VJJ
p4778
sg35
I36
ssg10
I475
sg36
g4
sg37
(dp4779
sg39
(dp4780
sg41
I2349
sg42
g21
sg43
g21
sg44
I475
sg45
VBritish
p4781
sg47
I475
sg48
I2356
sbag0
(g23
g2
Ntp4782
Rp4783
(dp4784
g27
(dp4785
g29
Vintelligencia
p4786
sg31
VO
p4787
sg33
VNN
p4788
sg35
I37
ssg10
I476
sg36
g4
sg37
(dp4789
sg39
(dp4790
sg41
I2357
sg42
g21
sg43
g21
sg44
I476
sg45
Vintelligencia
p4791
sg47
I476
sg48
I2370
sbag0
(g23
g2
Ntp4792
Rp4793
(dp4794
g27
(dp4795
g29
Vof
p4796
sg31
VO
p4797
sg33
VIN
p4798
sg35
I38
ssg10
I477
sg36
g4
sg37
(dp4799
sg39
(dp4800
sg41
I2371
sg42
g21
sg43
g21
sg44
I477
sg45
Vof
p4801
sg47
I477
sg48
I2373
sbag0
(g23
g2
Ntp4802
Rp4803
(dp4804
g27
(dp4805
g29
Vthe
p4806
sg31
VO
p4807
sg33
VDT
p4808
sg35
I39
ssg10
I478
sg36
g4
sg37
(dp4809
sg39
(dp4810
sg41
I2374
sg42
g21
sg43
g21
sg44
I478
sg45
Vthe
p4811
sg47
I478
sg48
I2377
sbag0
(g23
g2
Ntp4812
Rp4813
(dp4814
g27
(dp4815
g29
Vvictorian
p4816
sg31
VMISC
p4817
sg33
VJJ
p4818
sg35
I40
ssg10
I479
sg36
g4
sg37
(dp4819
sg39
(dp4820
sg41
I2378
sg42
g21
sg43
g21
sg44
I479
sg45
VVictorian
p4821
sg47
I479
sg48
I2387
sbag0
(g23
g2
Ntp4822
Rp4823
(dp4824
g27
(dp4825
g29
Vera
p4826
sg31
VO
p4827
sg33
VNN
p4828
sg35
I41
ssg10
I480
sg36
g4
sg37
(dp4829
sg39
(dp4830
sg41
I2388
sg42
g21
sg43
g21
sg44
I480
sg45
Vera
p4831
sg47
I480
sg48
I2391
sbag0
(g23
g2
Ntp4832
Rp4833
(dp4834
g27
(dp4835
g29
Vagainst
p4836
sg31
VO
p4837
sg33
VIN
p4838
sg35
I42
ssg10
I481
sg36
g4
sg37
(dp4839
sg39
(dp4840
sg41
I2392
sg42
g21
sg43
g21
sg44
I481
sg45
Vagainst
p4841
sg47
I481
sg48
I2399
sbag0
(g23
g2
Ntp4842
Rp4843
(dp4844
g27
(dp4845
g29
Vthe
p4846
sg31
VO
p4847
sg33
VDT
p4848
sg35
I43
ssg10
I482
sg36
g4
sg37
(dp4849
sg39
(dp4850
sg41
I2400
sg42
g21
sg43
g21
sg44
I482
sg45
Vthe
p4851
sg47
I482
sg48
I2403
sbag0
(g23
g2
Ntp4852
Rp4853
(dp4854
g27
(dp4855
g29
VChristian
p4856
sg31
VMISC
p4857
sg33
VNNP
p4858
sg35
I44
ssg10
I483
sg36
g4
sg37
(dp4859
sg39
(dp4860
sg41
I2404
sg42
g21
sg43
g21
sg44
I483
sg45
VChristian
p4861
sg47
I483
sg48
I2413
sbag0
(g23
g2
Ntp4862
Rp4863
(dp4864
g27
(dp4865
g29
Vethic
p4866
sg31
VO
p4867
sg33
VNN
p4868
sg35
I45
ssg10
I484
sg36
g4
sg37
(dp4869
sg39
(dp4870
sg41
I2414
sg42
g21
sg43
g21
sg44
I484
sg45
Vethic
p4871
sg47
I484
sg48
I2419
sbag0
(g23
g2
Ntp4872
Rp4873
(dp4874
g27
(dp4875
g29
Vof
p4876
sg31
VO
p4877
sg33
VIN
p4878
sg35
I46
ssg10
I485
sg36
g4
sg37
(dp4879
sg39
(dp4880
sg41
I2420
sg42
g21
sg43
g21
sg44
I485
sg45
Vof
p4881
sg47
I485
sg48
I2422
sbag0
(g23
g2
Ntp4882
Rp4883
(dp4884
g27
(dp4885
g29
Vdominion
p4886
sg31
VO
p4887
sg33
VNN
p4888
sg35
I47
ssg10
I486
sg36
g4
sg37
(dp4889
sg39
(dp4890
sg41
I2423
sg42
g21
sg43
g21
sg44
I486
sg45
Vdominion
p4891
sg47
I486
sg48
I2431
sbag0
(g23
g2
Ntp4892
Rp4893
(dp4894
g27
(dp4895
g29
Vover
p4896
sg31
VO
p4897
sg33
VIN
p4898
sg35
I48
ssg10
I487
sg36
g4
sg37
(dp4899
sg39
(dp4900
sg41
I2432
sg42
g21
sg43
g21
sg44
I487
sg45
Vover
p4901
sg47
I487
sg48
I2436
sbag0
(g23
g2
Ntp4902
Rp4903
(dp4904
g27
(dp4905
g29
Vnature
p4906
sg31
VO
p4907
sg33
VNN
p4908
sg35
I49
ssg10
I488
sg36
g4
sg37
(dp4909
sg39
(dp4910
sg41
I2437
sg42
g21
sg43
g21
sg44
I488
sg45
Vnature
p4911
sg47
I488
sg48
I2443
sbag0
(g23
g2
Ntp4912
Rp4913
(dp4914
g27
(dp4915
g29
V-lsb-
p4916
sg31
VO
p4917
sg33
V-LRB-
p4918
sg35
I50
ssg10
I489
sg36
g4
sg37
(dp4919
sg39
(dp4920
sg41
I2444
sg42
g21
sg43
g21
sg44
I489
sg45
V[
p4921
sg47
I489
sg48
I2445
sbag0
(g23
g2
Ntp4922
Rp4923
(dp4924
g27
(dp4925
g29
Vref
p4926
sg31
VO
p4927
sg33
VNN
p4928
sg35
I51
ssg10
I490
sg36
g4
sg37
(dp4929
sg39
(dp4930
sg41
I2445
sg42
g21
sg43
g21
sg44
I490
sg45
VREF
p4931
sg47
I490
sg48
I2448
sbag0
(g23
g2
Ntp4932
Rp4933
(dp4934
g27
(dp4935
g29
V-rsb-
p4936
sg31
VO
p4937
sg33
V-RRB-
p4938
sg35
I52
ssg10
I491
sg36
g4
sg37
(dp4939
sg39
(dp4940
sg41
I2448
sg42
g21
sg43
g21
sg44
I491
sg45
V]
p4941
sg47
I491
sg48
I2449
sbag0
(g23
g2
Ntp4942
Rp4943
(dp4944
g27
(dp4945
g29
V.
p4946
sg31
VO
p4947
sg33
V.
p4948
sg35
I53
ssg10
I492
sg36
g4
sg37
(dp4949
sg39
(dp4950
sg41
I2449
sg42
g21
sg43
g21
sg44
I492
sg45
V.
p4951
sg47
I492
sg48
I2450
sbag0
(g23
g2
Ntp4952
Rp4953
(dp4954
g27
(dp4955
g29
Vhe
p4956
sg31
VO
p4957
sg33
VPRP
p4958
sg35
I1
ssg10
I493
sg36
g4
sg37
(dp4959
sg39
(dp4960
sg41
I2451
sg42
g21
sg43
g21
sg44
I493
sg45
VHe
p4961
sg47
I493
sg48
I2453
sbag0
(g23
g2
Ntp4962
Rp4963
(dp4964
g27
(dp4965
g29
Vhave
p4966
sg31
VO
p4967
sg33
VVBZ
p4968
sg35
I2
ssg10
I494
sg36
g4
sg37
(dp4969
sg39
(dp4970
sg41
I2454
sg42
g21
sg43
g21
sg44
I494
sg45
Vhas
p4971
sg47
I494
sg48
I2457
sbag0
(g23
g2
Ntp4972
Rp4973
(dp4974
g27
(dp4975
g29
Vpoint
p4976
sg31
VO
p4977
sg33
VVBN
p4978
sg35
I3
ssg10
I495
sg36
g4
sg37
(dp4979
sg39
(dp4980
sg41
I2458
sg42
g21
sg43
g21
sg44
I495
sg45
Vpointed
p4981
sg47
I495
sg48
I2465
sbag0
(g23
g2
Ntp4982
Rp4983
(dp4984
g27
(dp4985
g29
Vto
p4986
sg31
VO
p4987
sg33
VTO
p4988
sg35
I4
ssg10
I496
sg36
g4
sg37
(dp4989
sg39
(dp4990
sg41
I2466
sg42
g21
sg43
g21
sg44
I496
sg45
Vto
p4991
sg47
I496
sg48
I2468
sbag0
(g23
g2
Ntp4992
Rp4993
(dp4994
g27
(dp4995
g29
VCharles
p4996
sg31
VPERSON
p4997
sg33
VNNP
p4998
sg35
I5
ssg10
I497
sg36
g4
sg37
(dp4999
sg39
(dp5000
sg41
I2469
sg42
g21
sg43
g21
sg44
I497
sg45
VCharles
p5001
sg47
I497
sg48
I2476
sbag0
(g23
g2
Ntp5002
Rp5003
(dp5004
g27
(dp5005
g29
VDarwin
p5006
sg31
VPERSON
p5007
sg33
VNNP
p5008
sg35
I6
ssg10
I498
sg36
g4
sg37
(dp5009
sg39
(dp5010
sg41
I2477
sg42
g21
sg43
g21
sg44
I498
sg45
VDarwin
p5011
sg47
I498
sg48
I2483
sbag0
(g23
g2
Ntp5012
Rp5013
(dp5014
g27
(dp5015
g29
Vas
p5016
sg31
VO
p5017
sg33
VIN
p5018
sg35
I7
ssg10
I499
sg36
g4
sg37
(dp5019
sg39
(dp5020
sg41
I2484
sg42
g21
sg43
g21
sg44
I499
sg45
Vas
p5021
sg47
I499
sg48
I2486
sbag0
(g23
g2
Ntp5022
Rp5023
(dp5024
g27
(dp5025
g29
Va
p5026
sg31
VO
p5027
sg33
VDT
p5028
sg35
I8
ssg10
I500
sg36
g4
sg37
(dp5029
sg39
(dp5030
sg41
I2487
sg42
g21
sg43
g21
sg44
I500
sg45
Van
p5031
sg47
I500
sg48
I2489
sbag0
(g23
g2
Ntp5032
Rp5033
(dp5034
g27
(dp5035
g29
Vimportant
p5036
sg31
VO
p5037
sg33
VJJ
p5038
sg35
I9
ssg10
I501
sg36
g4
sg37
(dp5039
sg39
(dp5040
sg41
I2490
sg42
g21
sg43
g21
sg44
I501
sg45
Vimportant
p5041
sg47
I501
sg48
I2499
sbag0
(g23
g2
Ntp5042
Rp5043
(dp5044
g27
(dp5045
g29
Vspokesperson
p5046
sg31
VO
p5047
sg33
VNN
p5048
sg35
I10
ssg10
I502
sg36
g4
sg37
(dp5049
sg39
(dp5050
sg41
I2500
sg42
g21
sg43
g21
sg44
I502
sg45
Vspokesperson
p5051
sg47
I502
sg48
I2512
sbag0
(g23
g2
Ntp5052
Rp5053
(dp5054
g27
(dp5055
g29
Vfor
p5056
sg31
VO
p5057
sg33
VIN
p5058
sg35
I11
ssg10
I503
sg36
g4
sg37
(dp5059
sg39
(dp5060
sg41
I2513
sg42
g21
sg43
g21
sg44
I503
sg45
Vfor
p5061
sg47
I503
sg48
I2516
sbag0
(g23
g2
Ntp5062
Rp5063
(dp5064
g27
(dp5065
g29
Vthe
p5066
sg31
VO
p5067
sg33
VDT
p5068
sg35
I12
ssg10
I504
sg36
g4
sg37
(dp5069
sg39
(dp5070
sg41
I2517
sg42
g21
sg43
g21
sg44
I504
sg45
Vthe
p5071
sg47
I504
sg48
I2520
sbag0
(g23
g2
Ntp5072
Rp5073
(dp5074
g27
(dp5075
g29
Vbiocentric
p5076
sg31
VO
p5077
sg33
VJJ
p5078
sg35
I13
ssg10
I505
sg36
g4
sg37
(dp5079
sg39
(dp5080
sg41
I2521
sg42
g21
sg43
g21
sg44
I505
sg45
Vbiocentric
p5081
sg47
I505
sg48
I2531
sbag0
(g23
g2
Ntp5082
Rp5083
(dp5084
g27
(dp5085
g29
Vview
p5086
sg31
VO
p5087
sg33
VNN
p5088
sg35
I14
ssg10
I506
sg36
g4
sg37
(dp5089
sg39
(dp5090
sg41
I2532
sg42
g21
sg43
g21
sg44
I506
sg45
Vview
p5091
sg47
I506
sg48
I2536
sbag0
(g23
g2
Ntp5092
Rp5093
(dp5094
g27
(dp5095
g29
Vin
p5096
sg31
VO
p5097
sg33
VIN
p5098
sg35
I15
ssg10
I507
sg36
g4
sg37
(dp5099
sg39
(dp5100
sg41
I2537
sg42
g21
sg43
g21
sg44
I507
sg45
Vin
p5101
sg47
I507
sg48
I2539
sbag0
(g23
g2
Ntp5102
Rp5103
(dp5104
g27
(dp5105
g29
Vecological
p5106
sg31
VO
p5107
sg33
VJJ
p5108
sg35
I16
ssg10
I508
sg36
g4
sg37
(dp5109
sg39
(dp5110
sg41
I2540
sg42
g21
sg43
g21
sg44
I508
sg45
Vecological
p5111
sg47
I508
sg48
I2550
sbag0
(g23
g2
Ntp5112
Rp5113
(dp5114
g27
(dp5115
g29
Vthought
p5116
sg31
VO
p5117
sg33
VNN
p5118
sg35
I17
ssg10
I509
sg36
g4
sg37
(dp5119
sg39
(dp5120
sg41
I2551
sg42
g21
sg43
g21
sg44
I509
sg45
Vthought
p5121
sg47
I509
sg48
I2558
sbag0
(g23
g2
Ntp5122
Rp5123
(dp5124
g27
(dp5125
g29
Vand
p5126
sg31
VO
p5127
sg33
VCC
p5128
sg35
I18
ssg10
I510
sg36
g4
sg37
(dp5129
sg39
(dp5130
sg41
I2559
sg42
g21
sg43
g21
sg44
I510
sg45
Vand
p5131
sg47
I510
sg48
I2562
sbag0
(g23
g2
Ntp5132
Rp5133
(dp5134
g27
(dp5135
g29
Vquote
p5136
sg31
VO
p5137
sg33
VNNS
p5138
sg35
I19
ssg10
I511
sg36
g4
sg37
(dp5139
sg39
(dp5140
sg41
I2563
sg42
g21
sg43
g21
sg44
I511
sg45
Vquotes
p5141
sg47
I511
sg48
I2569
sbag0
(g23
g2
Ntp5142
Rp5143
(dp5144
g27
(dp5145
g29
Vfrom
p5146
sg31
VO
p5147
sg33
VIN
p5148
sg35
I20
ssg10
I512
sg36
g4
sg37
(dp5149
sg39
(dp5150
sg41
I2570
sg42
g21
sg43
g21
sg44
I512
sg45
Vfrom
p5151
sg47
I512
sg48
I2574
sbag0
(g23
g2
Ntp5152
Rp5153
(dp5154
g27
(dp5155
g29
VDarwin
p5156
sg31
VPERSON
p5157
sg33
VNNP
p5158
sg35
I21
ssg10
I513
sg36
g4
sg37
(dp5159
sg39
(dp5160
sg41
I2575
sg42
g21
sg43
g21
sg44
I513
sg45
VDarwin
p5161
sg47
I513
sg48
I2581
sbag0
(g23
g2
Ntp5162
Rp5163
(dp5164
g27
(dp5165
g29
V's
p5166
sg31
VO
p5167
sg33
VPOS
p5168
sg35
I22
ssg10
I514
sg36
g4
sg37
(dp5169
sg39
(dp5170
sg41
I2581
sg42
g21
sg43
g21
sg44
I514
sg45
V's
p5171
sg47
I514
sg48
I2583
sbag0
(g23
g2
Ntp5172
Rp5173
(dp5174
g27
(dp5175
g29
VNotebook
p5176
sg31
VMISC
p5177
sg33
VNNP
p5178
sg35
I23
ssg10
I515
sg36
g4
sg37
(dp5179
sg39
(dp5180
sg41
I2584
sg42
g21
sg43
g21
sg44
I515
sg45
VNotebook
p5181
sg47
I515
sg48
I2592
sbag0
(g23
g2
Ntp5182
Rp5183
(dp5184
g27
(dp5185
g29
Von
p5186
sg31
VMISC
p5187
sg33
VIN
p5188
sg35
I24
ssg10
I516
sg36
g4
sg37
(dp5189
sg39
(dp5190
sg41
I2593
sg42
g21
sg43
g21
sg44
I516
sg45
Von
p5191
sg47
I516
sg48
I2595
sbag0
(g23
g2
Ntp5192
Rp5193
(dp5194
g27
(dp5195
g29
VTransmutation
p5196
sg31
VMISC
p5197
sg33
VNNP
p5198
sg35
I25
ssg10
I517
sg36
g4
sg37
(dp5199
sg39
(dp5200
sg41
I2596
sg42
g21
sg43
g21
sg44
I517
sg45
VTransmutation
p5201
sg47
I517
sg48
I2609
sbag0
(g23
g2
Ntp5202
Rp5203
(dp5204
g27
(dp5205
g29
Vof
p5206
sg31
VMISC
p5207
sg33
VIN
p5208
sg35
I26
ssg10
I518
sg36
g4
sg37
(dp5209
sg39
(dp5210
sg41
I2610
sg42
g21
sg43
g21
sg44
I518
sg45
Vof
p5211
sg47
I518
sg48
I2612
sbag0
(g23
g2
Ntp5212
Rp5213
(dp5214
g27
(dp5215
g29
VSpecies
p5216
sg31
VMISC
p5217
sg33
VNNP
p5218
sg35
I27
ssg10
I519
sg36
g4
sg37
(dp5219
sg39
(dp5220
sg41
I2613
sg42
g21
sg43
g21
sg44
I519
sg45
VSpecies
p5221
sg47
I519
sg48
I2620
sbag0
(g23
g2
Ntp5222
Rp5223
(dp5224
g27
(dp5225
g29
V:
p5226
sg31
VO
p5227
sg33
V:
p5228
sg35
I28
ssg10
I520
sg36
g4
sg37
(dp5229
sg39
(dp5230
sg41
I2620
sg42
g21
sg43
g21
sg44
I520
sg45
V:
p5231
sg47
I520
sg48
I2621
sbag0
(g23
g2
Ntp5232
Rp5233
(dp5234
g27
(dp5235
g29
Vif
p5236
sg31
VO
p5237
sg33
VIN
p5238
sg35
I29
ssg10
I521
sg36
g4
sg37
(dp5239
sg39
(dp5240
sg41
I2621
sg42
g21
sg43
g21
sg44
I521
sg45
VIf
p5241
sg47
I521
sg48
I2623
sbag0
(g23
g2
Ntp5242
Rp5243
(dp5244
g27
(dp5245
g29
Vwe
p5246
sg31
VO
p5247
sg33
VPRP
p5248
sg35
I30
ssg10
I522
sg36
g4
sg37
(dp5249
sg39
(dp5250
sg41
I2624
sg42
g21
sg43
g21
sg44
I522
sg45
Vwe
p5251
sg47
I522
sg48
I2626
sbag0
(g23
g2
Ntp5252
Rp5253
(dp5254
g27
(dp5255
g29
Vchoose
p5256
sg31
VO
p5257
sg33
VVBP
p5258
sg35
I31
ssg10
I523
sg36
g4
sg37
(dp5259
sg39
(dp5260
sg41
I2627
sg42
g21
sg43
g21
sg44
I523
sg45
Vchoose
p5261
sg47
I523
sg48
I2633
sbag0
(g23
g2
Ntp5262
Rp5263
(dp5264
g27
(dp5265
g29
Vto
p5266
sg31
VO
p5267
sg33
VTO
p5268
sg35
I32
ssg10
I524
sg36
g4
sg37
(dp5269
sg39
(dp5270
sg41
I2634
sg42
g21
sg43
g21
sg44
I524
sg45
Vto
p5271
sg47
I524
sg48
I2636
sbag0
(g23
g2
Ntp5272
Rp5273
(dp5274
g27
(dp5275
g29
Vlet
p5276
sg31
VO
p5277
sg33
VVB
p5278
sg35
I33
ssg10
I525
sg36
g4
sg37
(dp5279
sg39
(dp5280
sg41
I2637
sg42
g21
sg43
g21
sg44
I525
sg45
Vlet
p5281
sg47
I525
sg48
I2640
sbag0
(g23
g2
Ntp5282
Rp5283
(dp5284
g27
(dp5285
g29
Vconjecture
p5286
sg31
VO
p5287
sg33
VNN
p5288
sg35
I34
ssg10
I526
sg36
g4
sg37
(dp5289
sg39
(dp5290
sg41
I2641
sg42
g21
sg43
g21
sg44
I526
sg45
Vconjecture
p5291
sg47
I526
sg48
I2651
sbag0
(g23
g2
Ntp5292
Rp5293
(dp5294
g27
(dp5295
g29
Vrun
p5296
sg31
VO
p5297
sg33
VNN
p5298
sg35
I35
ssg10
I527
sg36
g4
sg37
(dp5299
sg39
(dp5300
sg41
I2652
sg42
g21
sg43
g21
sg44
I527
sg45
Vrun
p5301
sg47
I527
sg48
I2655
sbag0
(g23
g2
Ntp5302
Rp5303
(dp5304
g27
(dp5305
g29
Vwild
p5306
sg31
VO
p5307
sg33
VJJ
p5308
sg35
I36
ssg10
I528
sg36
g4
sg37
(dp5309
sg39
(dp5310
sg41
I2656
sg42
g21
sg43
g21
sg44
I528
sg45
Vwild
p5311
sg47
I528
sg48
I2660
sbag0
(g23
g2
Ntp5312
Rp5313
(dp5314
g27
(dp5315
g29
V,
p5316
sg31
VO
p5317
sg33
V,
p5318
sg35
I37
ssg10
I529
sg36
g4
sg37
(dp5319
sg39
(dp5320
sg41
I2660
sg42
g21
sg43
g21
sg44
I529
sg45
V,
p5321
sg47
I529
sg48
I2661
sbag0
(g23
g2
Ntp5322
Rp5323
(dp5324
g27
(dp5325
g29
Vthen
p5326
sg31
VO
p5327
sg33
VRB
p5328
sg35
I38
ssg10
I530
sg36
g4
sg37
(dp5329
sg39
(dp5330
sg41
I2662
sg42
g21
sg43
g21
sg44
I530
sg45
Vthen
p5331
sg47
I530
sg48
I2666
sbag0
(g23
g2
Ntp5332
Rp5333
(dp5334
g27
(dp5335
g29
Vanimal
p5336
sg31
VO
p5337
sg33
VNNS
p5338
sg35
I39
ssg10
I531
sg36
g4
sg37
(dp5339
sg39
(dp5340
sg41
I2667
sg42
g21
sg43
g21
sg44
I531
sg45
Vanimals
p5341
sg47
I531
sg48
I2674
sbag0
(g23
g2
Ntp5342
Rp5343
(dp5344
g27
(dp5345
g29
V,
p5346
sg31
VO
p5347
sg33
V,
p5348
sg35
I40
ssg10
I532
sg36
g4
sg37
(dp5349
sg39
(dp5350
sg41
I2674
sg42
g21
sg43
g21
sg44
I532
sg45
V,
p5351
sg47
I532
sg48
I2675
sbag0
(g23
g2
Ntp5352
Rp5353
(dp5354
g27
(dp5355
g29
Vwe
p5356
sg31
VO
p5357
sg33
VPRP$
p5358
sg35
I41
ssg10
I533
sg36
g4
sg37
(dp5359
sg39
(dp5360
sg41
I2676
sg42
g21
sg43
g21
sg44
I533
sg45
Vour
p5361
sg47
I533
sg48
I2679
sbag0
(g23
g2
Ntp5362
Rp5363
(dp5364
g27
(dp5365
g29
Vfellow
p5366
sg31
VO
p5367
sg33
VJJ
p5368
sg35
I42
ssg10
I534
sg36
g4
sg37
(dp5369
sg39
(dp5370
sg41
I2680
sg42
g21
sg43
g21
sg44
I534
sg45
Vfellow
p5371
sg47
I534
sg48
I2686
sbag0
(g23
g2
Ntp5372
Rp5373
(dp5374
g27
(dp5375
g29
Vbrethren
p5376
sg31
VO
p5377
sg33
VNNS
p5378
sg35
I43
ssg10
I535
sg36
g4
sg37
(dp5379
sg39
(dp5380
sg41
I2687
sg42
g21
sg43
g21
sg44
I535
sg45
Vbrethren
p5381
sg47
I535
sg48
I2695
sbag0
(g23
g2
Ntp5382
Rp5383
(dp5384
g27
(dp5385
g29
Vin
p5386
sg31
VO
p5387
sg33
VIN
p5388
sg35
I44
ssg10
I536
sg36
g4
sg37
(dp5389
sg39
(dp5390
sg41
I2696
sg42
g21
sg43
g21
sg44
I536
sg45
Vin
p5391
sg47
I536
sg48
I2698
sbag0
(g23
g2
Ntp5392
Rp5393
(dp5394
g27
(dp5395
g29
Vpain
p5396
sg31
VO
p5397
sg33
VNN
p5398
sg35
I45
ssg10
I537
sg36
g4
sg37
(dp5399
sg39
(dp5400
sg41
I2699
sg42
g21
sg43
g21
sg44
I537
sg45
Vpain
p5401
sg47
I537
sg48
I2703
sbag0
(g23
g2
Ntp5402
Rp5403
(dp5404
g27
(dp5405
g29
V,
p5406
sg31
VO
p5407
sg33
V,
p5408
sg35
I46
ssg10
I538
sg36
g4
sg37
(dp5409
sg39
(dp5410
sg41
I2703
sg42
g21
sg43
g21
sg44
I538
sg45
V,
p5411
sg47
I538
sg48
I2704
sbag0
(g23
g2
Ntp5412
Rp5413
(dp5414
g27
(dp5415
g29
Vdisease
p5416
sg31
VO
p5417
sg33
VNNS
p5418
sg35
I47
ssg10
I539
sg36
g4
sg37
(dp5419
sg39
(dp5420
sg41
I2705
sg42
g21
sg43
g21
sg44
I539
sg45
Vdiseases
p5421
sg47
I539
sg48
I2713
sbag0
(g23
g2
Ntp5422
Rp5423
(dp5424
g27
(dp5425
g29
V,
p5426
sg31
VO
p5427
sg33
V,
p5428
sg35
I48
ssg10
I540
sg36
g4
sg37
(dp5429
sg39
(dp5430
sg41
I2713
sg42
g21
sg43
g21
sg44
I540
sg45
V,
p5431
sg47
I540
sg48
I2714
sbag0
(g23
g2
Ntp5432
Rp5433
(dp5434
g27
(dp5435
g29
Vdeath
p5436
sg31
VO
p5437
sg33
VNN
p5438
sg35
I49
ssg10
I541
sg36
g4
sg37
(dp5439
sg39
(dp5440
sg41
I2715
sg42
g21
sg43
g21
sg44
I541
sg45
Vdeath
p5441
sg47
I541
sg48
I2720
sbag0
(g23
g2
Ntp5442
Rp5443
(dp5444
g27
(dp5445
g29
V,
p5446
sg31
VO
p5447
sg33
V,
p5448
sg35
I50
ssg10
I542
sg36
g4
sg37
(dp5449
sg39
(dp5450
sg41
I2720
sg42
g21
sg43
g21
sg44
I542
sg45
V,
p5451
sg47
I542
sg48
I2721
sbag0
(g23
g2
Ntp5452
Rp5453
(dp5454
g27
(dp5455
g29
Vsuffer
p5456
sg31
VO
p5457
sg33
VVBG
p5458
sg35
I51
ssg10
I543
sg36
g4
sg37
(dp5459
sg39
(dp5460
sg41
I2722
sg42
g21
sg43
g21
sg44
I543
sg45
Vsuffering
p5461
sg47
I543
sg48
I2731
sbag0
(g23
g2
Ntp5462
Rp5463
(dp5464
g27
(dp5465
g29
Vand
p5466
sg31
VO
p5467
sg33
VCC
p5468
sg35
I52
ssg10
I544
sg36
g4
sg37
(dp5469
sg39
(dp5470
sg41
I2732
sg42
g21
sg43
g21
sg44
I544
sg45
Vand
p5471
sg47
I544
sg48
I2735
sbag0
(g23
g2
Ntp5472
Rp5473
(dp5474
g27
(dp5475
g29
Vfamine
p5476
sg31
VO
p5477
sg33
VNN
p5478
sg35
I53
ssg10
I545
sg36
g4
sg37
(dp5479
sg39
(dp5480
sg41
I2736
sg42
g21
sg43
g21
sg44
I545
sg45
Vfamine
p5481
sg47
I545
sg48
I2742
sbag0
(g23
g2
Ntp5482
Rp5483
(dp5484
g27
(dp5485
g29
V--
p5486
sg31
VO
p5487
sg33
V:
p5488
sg35
I54
ssg10
I546
sg36
g4
sg37
(dp5489
sg39
(dp5490
sg41
I2743
sg42
g21
sg43
g21
sg44
I546
sg45
V\u2014
p5491
sg47
I546
sg48
I2744
sbag0
(g23
g2
Ntp5492
Rp5493
(dp5494
g27
(dp5495
g29
Vwe
p5496
sg31
VO
p5497
sg33
VPRP$
p5498
sg35
I55
ssg10
I547
sg36
g4
sg37
(dp5499
sg39
(dp5500
sg41
I2745
sg42
g21
sg43
g21
sg44
I547
sg45
Vour
p5501
sg47
I547
sg48
I2748
sbag0
(g23
g2
Ntp5502
Rp5503
(dp5504
g27
(dp5505
g29
Vslave
p5506
sg31
VO
p5507
sg33
VNNS
p5508
sg35
I56
ssg10
I548
sg36
g4
sg37
(dp5509
sg39
(dp5510
sg41
I2749
sg42
g21
sg43
g21
sg44
I548
sg45
Vslaves
p5511
sg47
I548
sg48
I2755
sbag0
(g23
g2
Ntp5512
Rp5513
(dp5514
g27
(dp5515
g29
Vin
p5516
sg31
VO
p5517
sg33
VIN
p5518
sg35
I57
ssg10
I549
sg36
g4
sg37
(dp5519
sg39
(dp5520
sg41
I2756
sg42
g21
sg43
g21
sg44
I549
sg45
Vin
p5521
sg47
I549
sg48
I2758
sbag0
(g23
g2
Ntp5522
Rp5523
(dp5524
g27
(dp5525
g29
Vthe
p5526
sg31
VO
p5527
sg33
VDT
p5528
sg35
I58
ssg10
I550
sg36
g4
sg37
(dp5529
sg39
(dp5530
sg41
I2759
sg42
g21
sg43
g21
sg44
I550
sg45
Vthe
p5531
sg47
I550
sg48
I2762
sbag0
(g23
g2
Ntp5532
Rp5533
(dp5534
g27
(dp5535
g29
Vmost
p5536
sg31
VO
p5537
sg33
VRBS
p5538
sg35
I59
ssg10
I551
sg36
g4
sg37
(dp5539
sg39
(dp5540
sg41
I2763
sg42
g21
sg43
g21
sg44
I551
sg45
Vmost
p5541
sg47
I551
sg48
I2767
sbag0
(g23
g2
Ntp5542
Rp5543
(dp5544
g27
(dp5545
g29
Vlaborious
p5546
sg31
VO
p5547
sg33
VJJ
p5548
sg35
I60
ssg10
I552
sg36
g4
sg37
(dp5549
sg39
(dp5550
sg41
I2768
sg42
g21
sg43
g21
sg44
I552
sg45
Vlaborious
p5551
sg47
I552
sg48
I2777
sbag0
(g23
g2
Ntp5552
Rp5553
(dp5554
g27
(dp5555
g29
Vwork
p5556
sg31
VO
p5557
sg33
VNNS
p5558
sg35
I61
ssg10
I553
sg36
g4
sg37
(dp5559
sg39
(dp5560
sg41
I2778
sg42
g21
sg43
g21
sg44
I553
sg45
Vworks
p5561
sg47
I553
sg48
I2783
sbag0
(g23
g2
Ntp5562
Rp5563
(dp5564
g27
(dp5565
g29
V,
p5566
sg31
VO
p5567
sg33
V,
p5568
sg35
I62
ssg10
I554
sg36
g4
sg37
(dp5569
sg39
(dp5570
sg41
I2783
sg42
g21
sg43
g21
sg44
I554
sg45
V,
p5571
sg47
I554
sg48
I2784
sbag0
(g23
g2
Ntp5572
Rp5573
(dp5574
g27
(dp5575
g29
Vwe
p5576
sg31
VO
p5577
sg33
VPRP$
p5578
sg35
I63
ssg10
I555
sg36
g4
sg37
(dp5579
sg39
(dp5580
sg41
I2785
sg42
g21
sg43
g21
sg44
I555
sg45
Vour
p5581
sg47
I555
sg48
I2788
sbag0
(g23
g2
Ntp5582
Rp5583
(dp5584
g27
(dp5585
g29
Vcompanion
p5586
sg31
VO
p5587
sg33
VNNS
p5588
sg35
I64
ssg10
I556
sg36
g4
sg37
(dp5589
sg39
(dp5590
sg41
I2789
sg42
g21
sg43
g21
sg44
I556
sg45
Vcompanions
p5591
sg47
I556
sg48
I2799
sbag0
(g23
g2
Ntp5592
Rp5593
(dp5594
g27
(dp5595
g29
Vin
p5596
sg31
VO
p5597
sg33
VIN
p5598
sg35
I65
ssg10
I557
sg36
g4
sg37
(dp5599
sg39
(dp5600
sg41
I2800
sg42
g21
sg43
g21
sg44
I557
sg45
Vin
p5601
sg47
I557
sg48
I2802
sbag0
(g23
g2
Ntp5602
Rp5603
(dp5604
g27
(dp5605
g29
Vwe
p5606
sg31
VO
p5607
sg33
VPRP$
p5608
sg35
I66
ssg10
I558
sg36
g4
sg37
(dp5609
sg39
(dp5610
sg41
I2803
sg42
g21
sg43
g21
sg44
I558
sg45
Vour
p5611
sg47
I558
sg48
I2806
sbag0
(g23
g2
Ntp5612
Rp5613
(dp5614
g27
(dp5615
g29
Vamusement
p5616
sg31
VO
p5617
sg33
VNN
p5618
sg35
I67
ssg10
I559
sg36
g4
sg37
(dp5619
sg39
(dp5620
sg41
I2807
sg42
g21
sg43
g21
sg44
I559
sg45
Vamusement
p5621
sg47
I559
sg48
I2816
sbag0
(g23
g2
Ntp5622
Rp5623
(dp5624
g27
(dp5625
g29
V--
p5626
sg31
VO
p5627
sg33
V:
p5628
sg35
I68
ssg10
I560
sg36
g4
sg37
(dp5629
sg39
(dp5630
sg41
I2817
sg42
g21
sg43
g21
sg44
I560
sg45
V\u2014
p5631
sg47
I560
sg48
I2818
sbag0
(g23
g2
Ntp5632
Rp5633
(dp5634
g27
(dp5635
g29
Vthey
p5636
sg31
VO
p5637
sg33
VPRP
p5638
sg35
I69
ssg10
I561
sg36
g4
sg37
(dp5639
sg39
(dp5640
sg41
I2819
sg42
g21
sg43
g21
sg44
I561
sg45
Vthey
p5641
sg47
I561
sg48
I2823
sbag0
(g23
g2
Ntp5642
Rp5643
(dp5644
g27
(dp5645
g29
Vmay
p5646
sg31
VO
p5647
sg33
VMD
p5648
sg35
I70
ssg10
I562
sg36
g4
sg37
(dp5649
sg39
(dp5650
sg41
I2824
sg42
g21
sg43
g21
sg44
I562
sg45
Vmay
p5651
sg47
I562
sg48
I2827
sbag0
(g23
g2
Ntp5652
Rp5653
(dp5654
g27
(dp5655
g29
Vpartake
p5656
sg31
VO
p5657
sg33
VVB
p5658
sg35
I71
ssg10
I563
sg36
g4
sg37
(dp5659
sg39
(dp5660
sg41
I2828
sg42
g21
sg43
g21
sg44
I563
sg45
Vpartake
p5661
sg47
I563
sg48
I2835
sbag0
(g23
g2
Ntp5662
Rp5663
(dp5664
g27
(dp5665
g29
Vof
p5666
sg31
VO
p5667
sg33
VIN
p5668
sg35
I72
ssg10
I564
sg36
g4
sg37
(dp5669
sg39
(dp5670
sg41
I2836
sg42
g21
sg43
g21
sg44
I564
sg45
Vof
p5671
sg47
I564
sg48
I2838
sbag0
(g23
g2
Ntp5672
Rp5673
(dp5674
g27
(dp5675
g29
Vwe
p5676
sg31
VO
p5677
sg33
VPRP$
p5678
sg35
I73
ssg10
I565
sg36
g4
sg37
(dp5679
sg39
(dp5680
sg41
I2839
sg42
g21
sg43
g21
sg44
I565
sg45
Vour
p5681
sg47
I565
sg48
I2842
sbag0
(g23
g2
Ntp5682
Rp5683
(dp5684
g27
(dp5685
g29
Vorigin
p5686
sg31
VO
p5687
sg33
VNN
p5688
sg35
I74
ssg10
I566
sg36
g4
sg37
(dp5689
sg39
(dp5690
sg41
I2843
sg42
g21
sg43
g21
sg44
I566
sg45
Vorigin
p5691
sg47
I566
sg48
I2849
sbag0
(g23
g2
Ntp5692
Rp5693
(dp5694
g27
(dp5695
g29
Vin
p5696
sg31
VO
p5697
sg33
VIN
p5698
sg35
I75
ssg10
I567
sg36
g4
sg37
(dp5699
sg39
(dp5700
sg41
I2847
sg42
g21
sg43
g21
sg44
I567
sg45
Vin
p5701
sg47
I567
sg48
I2849
sbag0
(g23
g2
Ntp5702
Rp5703
(dp5704
g27
(dp5705
g29
Vone
p5706
sg31
VNUMBER
p5707
sg33
VCD
p5708
sg35
I76
ssg10
I568
sg36
g4
sg37
(dp5709
sg39
(dp5710
sg41
I2853
sg42
g21
sg43
g21
sg44
I568
sg45
Vone
p5711
sg47
I568
sg48
I2856
sbag0
(g23
g2
Ntp5712
Rp5713
(dp5714
g27
(dp5715
g29
Vcommon
p5716
sg31
VO
p5717
sg33
VJJ
p5718
sg35
I77
ssg10
I569
sg36
g4
sg37
(dp5719
sg39
(dp5720
sg41
I2857
sg42
g21
sg43
g21
sg44
I569
sg45
Vcommon
p5721
sg47
I569
sg48
I2863
sbag0
(g23
g2
Ntp5722
Rp5723
(dp5724
g27
(dp5725
g29
Vancestor
p5726
sg31
VO
p5727
sg33
VNN
p5728
sg35
I78
ssg10
I570
sg36
g4
sg37
(dp5729
sg39
(dp5730
sg41
I2864
sg42
g21
sg43
g21
sg44
I570
sg45
Vancestor
p5731
sg47
I570
sg48
I2872
sbag0
(g23
g2
Ntp5732
Rp5733
(dp5734
g27
(dp5735
g29
V--
p5736
sg31
VO
p5737
sg33
V:
p5738
sg35
I79
ssg10
I571
sg36
g4
sg37
(dp5739
sg39
(dp5740
sg41
I2873
sg42
g21
sg43
g21
sg44
I571
sg45
V\u2014
p5741
sg47
I571
sg48
I2874
sbag0
(g23
g2
Ntp5742
Rp5743
(dp5744
g27
(dp5745
g29
Vwe
p5746
sg31
VO
p5747
sg33
VPRP
p5748
sg35
I80
ssg10
I572
sg36
g4
sg37
(dp5749
sg39
(dp5750
sg41
I2875
sg42
g21
sg43
g21
sg44
I572
sg45
Vwe
p5751
sg47
I572
sg48
I2877
sbag0
(g23
g2
Ntp5752
Rp5753
(dp5754
g27
(dp5755
g29
Vmay
p5756
sg31
VO
p5757
sg33
VMD
p5758
sg35
I81
ssg10
I573
sg36
g4
sg37
(dp5759
sg39
(dp5760
sg41
I2878
sg42
g21
sg43
g21
sg44
I573
sg45
Vmay
p5761
sg47
I573
sg48
I2881
sbag0
(g23
g2
Ntp5762
Rp5763
(dp5764
g27
(dp5765
g29
Vbe
p5766
sg31
VO
p5767
sg33
VVB
p5768
sg35
I82
ssg10
I574
sg36
g4
sg37
(dp5769
sg39
(dp5770
sg41
I2882
sg42
g21
sg43
g21
sg44
I574
sg45
Vbe
p5771
sg47
I574
sg48
I2884
sbag0
(g23
g2
Ntp5772
Rp5773
(dp5774
g27
(dp5775
g29
Vall
p5776
sg31
VO
p5777
sg33
VDT
p5778
sg35
I83
ssg10
I575
sg36
g4
sg37
(dp5779
sg39
(dp5780
sg41
I2885
sg42
g21
sg43
g21
sg44
I575
sg45
Vall
p5781
sg47
I575
sg48
I2888
sbag0
(g23
g2
Ntp5782
Rp5783
(dp5784
g27
(dp5785
g29
Vnet
p5786
sg31
VO
p5787
sg33
VVBN
p5788
sg35
I84
ssg10
I576
sg36
g4
sg37
(dp5789
sg39
(dp5790
sg41
I2889
sg42
g21
sg43
g21
sg44
I576
sg45
Vnetted
p5791
sg47
I576
sg48
I2895
sbag0
(g23
g2
Ntp5792
Rp5793
(dp5794
g27
(dp5795
g29
Vtogether
p5796
sg31
VO
p5797
sg33
VRB
p5798
sg35
I85
ssg10
I577
sg36
g4
sg37
(dp5799
sg39
(dp5800
sg41
I2896
sg42
g21
sg43
g21
sg44
I577
sg45
Vtogether
p5801
sg47
I577
sg48
I2904
sbag0
(g23
g2
Ntp5802
Rp5803
(dp5804
g27
(dp5805
g29
V.
p5806
sg31
VO
p5807
sg33
V.
p5808
sg35
I86
ssg10
I578
sg36
g4
sg37
(dp5809
sg39
(dp5810
sg41
I2904
sg42
g21
sg43
g21
sg44
I578
sg45
V.
p5811
sg47
I578
sg48
I2905
sbasS'Document'
p5812
(lp5813
g4
asS'doc-features'
p5814
g14
sS'Sentence'
p5815
(lp5816
g0
(g23
g2
Ntp5817
Rp5818
(dp5819
g27
(dp5820
S'dep-parse'
p5821
S'not implemented!'
p5822
sg35
I0
sS'constituency-parse'
p5823
V(ROOT\u000a  (S\u000a    (PP (IN For)\u000a      (NP (DT the) (JJ cosmological) (NN concept)))\u000a    (, ,)\u000a    (VP (VB see)\u000a      (NP\u000a        (NP (NN biocentrism))\u000a        (PRN (-LRB- -LRB-)\u000a          (NP (NN cosmology))\u000a          (-RRB- -RRB-))))\u000a    (. .)))
p5824
ssg10
I0
sg36
g4
sg37
(dp5825
sg39
(dp5826
S'tokens'
p5827
(lp5828
g25
ag50
ag60
ag70
ag80
ag90
ag100
ag110
ag120
ag130
ag140
assg41
I0
sg42
g5815
sg43
g5815
sg44
I0
sg45
VFor the cosmological concept, see biocentrism (cosmology).
p5829
sg47
I11
sg48
I58
sbag0
(g23
g2
Ntp5830
Rp5831
(dp5832
g27
(dp5833
g5821
g5822
sg35
I1
sg5823
V(X (NN Biocentrism) (-LRB- -LRB-) (JJ Greek) (: :) (NN \u03b2\u03af\u03bf\u03c2) (, ,) (NN bio) (, ,) (`` ``) (NN life) ('' '') (: ;)\u000a  (CC and)\u000a  (NN \u03ba\u03ad\u03bd\u03c4\u03c1\u03bf\u03bd) (, ,) (NN kentron) (, ,) (`` ``) (NN center) ('' '') (-RRB- -RRB-) (, ,) (IN in) (DT a) (JJ political)\u000a  (CC and)\u000a  (JJ ecological) (NN sense) (, ,) (VBZ is) (DT an) (JJ ethical) (NN point) (IN of) (NN view) (WDT which) (VBZ extends) (JJ inherent) (NN value) (TO to) (JJ non-human) (NNS species) (, ,) (-LRB- -LSB-) (NNP REF) (-RRB- -RSB-) (NNS ecosystems) (, ,)\u000a  (CC and)\u000a  (NNS processes) (IN in) (NN nature) (: -) (RB regardless) (IN of) (PRP$ their) (NN sentience) (-LRB- -LSB-) (NN REF) (-RRB- -RSB-) (. .))
p5834
ssg10
I1
sg36
g4
sg37
(dp5835
sg39
(dp5836
g5827
(lp5837
g150
ag160
ag170
ag180
ag190
ag200
ag210
ag220
ag230
ag240
ag250
ag259
ag269
ag279
ag289
ag299
ag309
ag319
ag328
ag338
ag347
ag357
ag367
ag377
ag387
ag397
ag407
ag417
ag427
ag437
ag447
ag457
ag467
ag477
ag487
ag497
ag507
ag517
ag527
ag537
ag547
ag557
ag567
ag577
ag587
ag597
ag607
ag617
ag627
ag637
ag647
ag657
ag667
ag677
ag687
ag697
ag707
ag717
ag727
ag737
ag747
assg41
I61
sg42
g5815
sg43
g5815
sg44
I11
sg45
V \u000a\u000aBiocentrism (Greek: \u03b2\u03af\u03bf\u03c2, bio, "life"; and \u03ba\u03ad\u03bd\u03c4\u03c1\u03bf\u03bd, kentron, "center"), in a political and ecological sense, is an ethical point of view which extends inherent value to non-human species,[REF] ecosystems, and processes in nature - regardless of their sentience [REF].
p5838
sg47
I72
sg48
I328
sbag0
(g23
g2
Ntp5839
Rp5840
(dp5841
g27
(dp5842
g5821
g5822
sg35
I2
sg5823
V(ROOT\u000a  (S\u000a    (NP (PRP It))\u000a    (VP (VBZ stands)\u000a      (PP (IN in)\u000a        (NP (NN contrast)))\u000a      (PP (TO to)\u000a        (NP\u000a          (NP (NN anthropocentrism))\u000a          (SBAR\u000a            (WHNP (WDT which))\u000a            (S\u000a              (VP (VBZ centers)\u000a                (PP (IN on)\u000a                  (NP\u000a                    (NP (DT the) (NN value))\u000a                    (PP (IN of)\u000a                      (NP\u000a                        (NP (NNS humans))\u000a                        (PP (-LRB- -LSB-)\u000a                          (NP (NN REF) (-RRB- -RSB-)))))))))))))\u000a    (. .)))
p5843
ssg10
I2
sg36
g4
sg37
(dp5844
sg39
(dp5845
g5827
(lp5846
g757
ag767
ag777
ag787
ag797
ag807
ag817
ag827
ag837
ag847
ag857
ag867
ag877
ag887
ag897
ag907
ag917
assg41
I329
sg42
g5815
sg43
g5815
sg44
I72
sg45
V It stands in contrast to anthropocentrism which centers on the value of humans [REF].
p5847
sg47
I89
sg48
I414
sbag0
(g23
g2
Ntp5848
Rp5849
(dp5850
g27
(dp5851
g5821
g5822
sg35
I3
sg5823
V(X (NNP Biocentrism) (VBZ states) (IN that) (NN nature) (VBZ does) (RB not) (VB exist) (RB simply) (TO to) (VB be) (VBN used)\u000a  (CC or)\u000a  (VBN consumed) (IN by) (NNS humans) (, ,)\u000a  (CC but)\u000a  (IN that) (NNS humans) (VBP are) (RB simply) (CD one) (NNS species) (IN amongst) (JJ many) (, ,) (-LRB- -LSB-) (NNP REF) (-RRB- -RSB-)\u000a  (CC and)\u000a  (IN that) (IN because) (PRP we) (VBP are) (NN part) (IN of) (DT an) (NN ecosystem) (, ,) (DT any) (NNS actions) (WDT which) (RB negatively) (VBP affect) (DT the) (NN living) (NNS systems) (IN of) (WDT which) (PRP we) (VBP are) (DT a) (NN part) (, ,) (RB adversely) (VB affect) (PRP us) (RB as) (RB well) (, ,) (-LRB- -LSB-) (NNP REF) (-RRB- -RSB-) (-LRB- -LSB-) (NN REF) (-RRB- -RSB-) (IN whether)\u000a  (CC or)\u000a  (RB not) (PRP we) (VBP maintain) (DT a) (JJ biocentric) (NN worldview) (-LRB- -LSB-) (NN REF) (-RRB- -RSB-) (. .))
p5852
ssg10
I3
sg36
g4
sg37
(dp5853
sg39
(dp5854
g5827
(lp5855
g927
ag937
ag947
ag957
ag967
ag977
ag987
ag997
ag1007
ag1017
ag1027
ag1037
ag1047
ag1057
ag1067
ag1077
ag1087
ag1097
ag1107
ag1117
ag1127
ag1137
ag1147
ag1157
ag1167
ag1177
ag1187
ag1197
ag1207
ag1217
ag1227
ag1237
ag1247
ag1257
ag1267
ag1277
ag1287
ag1297
ag1307
ag1317
ag1327
ag1337
ag1347
ag1357
ag1367
ag1377
ag1387
ag1397
ag1407
ag1417
ag1427
ag1437
ag1447
ag1457
ag1467
ag1477
ag1487
ag1497
ag1507
ag1517
ag1527
ag1537
ag1547
ag1557
ag1567
ag1577
ag1587
ag1597
ag1607
ag1617
ag1627
ag1637
ag1647
ag1657
ag1667
ag1677
ag1687
ag1697
assg41
I416
sg42
g5815
sg43
g5815
sg44
I89
sg45
V\u000a\u000aBiocentrism states that nature does not exist simply to be used or consumed by humans, but that humans are simply one species amongst many,[REF] and that because we are part of an ecosystem, any actions which negatively affect the living systems of which we are a part, adversely affect us as well,[REF][REF] whether or not we maintain a biocentric worldview [REF].
p5856
sg47
I167
sg48
I781
sbag0
(g23
g2
Ntp5857
Rp5858
(dp5859
g27
(dp5860
g5821
g5822
sg35
I4
sg5823
V(ROOT\u000a  (S\u000a    (NP (NNS Biocentrists))\u000a    (VP (VBP believe)\u000a      (SBAR\u000a        (SBAR (IN that)\u000a          (S\u000a            (NP (DT all) (NNS species))\u000a            (VP (VBP have)\u000a              (NP (JJ inherent) (NN value)))))\u000a        (, ,)\u000a        (CC and)\u000a        (SBAR (IN that)\u000a          (S\u000a            (NP (NNS humans))\u000a            (VP (VBP are) (RB not)\u000a              (ADJP (`` ``) (JJ superior) ('' '')\u000a                (PP (IN in)\u000a                  (NP (DT a) (JJ moral)\u000a                    (CC or)\u000a                    (JJ ethical) (NN sense)))))))))\u000a    (. .)))
p5861
ssg10
I4
sg36
g4
sg37
(dp5862
sg39
(dp5863
g5827
(lp5864
g1707
ag1717
ag1727
ag1737
ag1747
ag1757
ag1767
ag1777
ag1787
ag1797
ag1807
ag1817
ag1827
ag1837
ag1847
ag1856
ag1866
ag1875
ag1885
ag1895
ag1905
ag1915
ag1925
ag1935
assg41
I782
sg42
g5815
sg43
g5815
sg44
I167
sg45
V Biocentrists believe that all species have inherent value, and that humans are not "superior" in a moral or ethical sense.
p5865
sg47
I191
sg48
I904
sbag0
(g23
g2
Ntp5866
Rp5867
(dp5868
g27
(dp5869
g5821
g5822
sg35
I5
sg5823
V(ROOT\u000a  (S\u000a    (NP\u000a      (NP (NNP Paul) (NNP Taylor))\u000a      (, ,)\u000a      (NP\u000a        (NP (CD one))\u000a        (PP (IN of)\u000a          (NP\u000a            (NP (DT the) (JJ major) (-LRB- -LSB-) (NN REF))\u000a            (PP (-RRB- -RSB-)\u000a              (NP\u000a                (NP (JJ early) (NNS proponents))\u000a                (PP (IN of)\u000a                  (NP (NN biocentrism))))))))\u000a      (, ,))\u000a    (VP (VBZ maintains)\u000a      (SBAR (IN that)\u000a        (S\u000a          (NP (NN biocentrism))\u000a          (VP (VBZ is)\u000a            (NP\u000a              (NP (DT an) (`` ``) (NN attitude))\u000a              (PP (IN of)\u000a                (NP\u000a                  (NP (NN respect))\u000a                  (PP (IN for)\u000a                    (NP (NN nature)))))\u000a              ('' ''))\u000a            (, ,)\u000a            (SBAR\u000a              (WHADVP (WRB whereby))\u000a              (S\u000a                (NP (CD one) (NNS attempts))\u000a                (VP (TO to)\u000a                  (VP (VB make)\u000a                    (NP (DT an) (NN effort)\u000a                      (S\u000a                        (VP (TO to)\u000a                          (VP (VB live)\u000a                            (NP\u000a                              (NP (CD one) (POS 's))\u000a                              (NN life))\u000a                            (PP (IN in)\u000a                              (NP\u000a                                (NP (DT a) (NN way))\u000a                                (SBAR\u000a                                  (WHNP (IN that))\u000a                                  (S\u000a                                    (VP (VBZ respects)\u000a                                      (NP\u000a                                        (NP (DT the) (NN welfare)\u000a                                          (CC and)\u000a                                          (JJ inherent) (NN worth))\u000a                                        (PP (IN of)\u000a                                          (NP\u000a                                            (NP (DT all) (VBG living) (NNS creatures))\u000a                                            (PP (-LRB- -LSB-)\u000a                                              (NP (NN REF) (-RRB- -RSB-)))))))))))))))))))))))\u000a    (. .)))
p5870
ssg10
I5
sg36
g4
sg37
(dp5871
sg39
(dp5872
g5827
(lp5873
g1945
ag1955
ag1965
ag1975
ag1985
ag1995
ag2005
ag2015
ag2025
ag2035
ag2045
ag2055
ag2065
ag2075
ag2085
ag2095
ag2105
ag2115
ag2125
ag2135
ag2145
ag2154
ag2164
ag2174
ag2184
ag2194
ag2204
ag2213
ag2223
ag2233
ag2243
ag2253
ag2263
ag2273
ag2283
ag2293
ag2303
ag2313
ag2323
ag2333
ag2343
ag2353
ag2363
ag2373
ag2383
ag2393
ag2403
ag2413
ag2423
ag2433
ag2443
ag2453
ag2463
ag2473
ag2483
ag2493
ag2503
ag2513
assg41
I907
sg42
g5815
sg43
g5815
sg44
I191
sg45
V \u000a\u000aPaul Taylor, one of the major[REF] early proponents of biocentrism, maintains that biocentrism is an "attitude of respect for nature", whereby one attempts to make an effort to live one's life in a way that respects the welfare and inherent worth of all living creatures [REF].
p5874
sg47
I249
sg48
I1184
sbag0
(g23
g2
Ntp5875
Rp5876
(dp5877
g27
(dp5878
g5821
g5822
sg35
I6
sg5823
V(ROOT\u000a  (S\u000a    (NP (NNP Taylor))\u000a    (VP (VBZ states)\u000a      (SBAR (IN that)\u000a        (S (: :)\u000a          (PP (-LRB- -LSB-)\u000a            (NP (NN REF)))\u000a          (-RRB- -RSB-)\u000a          (NP (-LRB- -LSB-) (NN REF))\u000a          (VP (-RRB- -RSB-)))))\u000a    (. .)))
p5879
ssg10
I6
sg36
g4
sg37
(dp5880
sg39
(dp5881
g5827
(lp5882
g2523
ag2533
ag2543
ag2553
ag2563
ag2573
ag2583
ag2593
ag2603
ag2613
ag2623
assg41
I1185
sg42
g5815
sg43
g5815
sg44
I249
sg45
V Taylor states that:[REF][REF] .
p5883
sg47
I260
sg48
I1216
sbag0
(g23
g2
Ntp5884
Rp5885
(dp5886
g27
(dp5887
g5821
g5822
sg35
I7
sg5823
V(ROOT\u000a  (S\u000a    (NP (NNS Humans))\u000a    (VP (VBP are)\u000a      (NP\u000a        (NP (NNS members))\u000a        (PP (IN of)\u000a          (NP\u000a            (NP (DT a) (NN community))\u000a            (PP (IN of)\u000a              (NP (NN life))))))\u000a      (ADVP (IN along)\u000a        (PP\u000a          (PP (IN with)\u000a            (NP (DT all) (JJ other) (NNS species)))\u000a          (, ,)\u000a          (CC and)\u000a          (PP (IN on)\u000a            (NP (JJ equal) (NNS terms))))))\u000a    (. .)))
p5888
ssg10
I7
sg36
g4
sg37
(dp5889
sg39
(dp5890
g5827
(lp5891
g2633
ag2643
ag2653
ag2663
ag2673
ag2683
ag2693
ag2703
ag2713
ag2723
ag2733
ag2743
ag2753
ag2763
ag2773
ag2783
ag2793
ag2803
ag2813
assg41
I1219
sg42
g5815
sg43
g5815
sg44
I260
sg45
V \u000a\u000aHumans are members of a community of life along with all other species, and on equal terms.
p5892
sg47
I279
sg48
I1310
sbag0
(g23
g2
Ntp5893
Rp5894
(dp5895
g27
(dp5896
g5821
g5822
sg35
I8
sg5823
V(X (DT This) (NN community) (VBZ consists) (IN of) (DT a) (NN system) (IN of) (NN interdependence) (IN between) (DT all) (NNS members) (, ,) (DT both) (RB physically) (, ,)\u000a  (CC and)\u000a  (IN in) (NNS terms) (IN of) (NNS relationships) (IN with) (JJ other) (NNS species) (DT Every) (NN organism) (VBZ is) (DT a) (`` ``) (JJ teleological) (NN centre) (IN of) (NN life) ('' '') (, ,) (DT that) (VBZ is) (, ,) (DT each) (NN organism) (VBZ has) (DT a) (NN purpose)\u000a  (CC and)\u000a  (DT a) (NN reason) (IN for) (VBG being) (, ,) (WDT which) (VBZ is) (RB inherently) (`` ``) (JJ good) ('' '')\u000a  (CC or)\u000a  (`` ``) (JJ valuable) ('' '') (NNS Humans) (VBP are) (RB not) (RB inherently) (JJ superior) (TO to) (JJ other) (NNS species) (. .))
p5897
ssg10
I8
sg36
g4
sg37
(dp5898
sg39
(dp5899
g5827
(lp5900
g2823
ag2833
ag2843
ag2853
ag2863
ag2873
ag2883
ag2893
ag2903
ag2913
ag2923
ag2933
ag2943
ag2953
ag2963
ag2973
ag2983
ag2993
ag3003
ag3013
ag3023
ag3033
ag3043
ag3053
ag3063
ag3073
ag3083
ag3093
ag3102
ag3112
ag3122
ag3132
ag3142
ag3151
ag3161
ag3171
ag3181
ag3191
ag3201
ag3211
ag3221
ag3231
ag3241
ag3251
ag3261
ag3271
ag3281
ag3291
ag3301
ag3311
ag3321
ag3331
ag3340
ag3350
ag3359
ag3369
ag3378
ag3388
ag3397
ag3407
ag3417
ag3427
ag3437
ag3447
ag3457
ag3467
ag3477
assg41
I1312
sg42
g5815
sg43
g5815
sg44
I279
sg45
V \u000aThis community consists of a system of interdependence between all members, both physically, and in terms of relationships with other species \u000aEvery organism is a "teleological centre of life", that is, each organism has a purpose and a reason for being, which is inherently "good" or "valuable"\u000aHumans are not inherently superior to other species .
p5901
sg47
I346
sg48
I1661
sbag0
(g23
g2
Ntp5902
Rp5903
(dp5904
g27
(dp5905
g5821
g5822
sg35
I9
sg5823
V(ROOT\u000a  (S\u000a    (NP\u000a      (NP (NNS Advocates))\u000a      (PP (IN of)\u000a        (NP (NN biocentrism))))\u000a    (VP (VBP are)\u000a      (ADJP (JJ likely)\u000a        (S\u000a          (VP (TO to)\u000a            (VP (VB promote)\u000a              (NP\u000a                (NP (NN preservation))\u000a                (PP (IN of)\u000a                  (NP\u000a                    (NP (NN biodiversity))\u000a                    (, ,)\u000a                    (NP (-LRB- -LSB-) (NN REF))\u000a                    (-RRB- -RSB-)\u000a                    (NP (NN animal) (NNS rights))\u000a                    (, ,)\u000a                    (CC and)\u000a                    (NP (JJ environmental) (NN protection))))))))))\u000a    (. .)))
p5906
ssg10
I9
sg36
g4
sg37
(dp5907
sg39
(dp5908
g5827
(lp5909
g3487
ag3497
ag3507
ag3517
ag3527
ag3537
ag3547
ag3557
ag3567
ag3577
ag3587
ag3597
ag3607
ag3617
ag3627
ag3637
ag3647
ag3657
ag3667
ag3677
ag3687
assg41
I1664
sg42
g5815
sg43
g5815
sg44
I346
sg45
V \u000a\u000aAdvocates of biocentrism are likely to promote preservation of biodiversity,[REF] animal rights, and environmental protection.
p5910
sg47
I367
sg48
I1790
sbag0
(g23
g2
Ntp5911
Rp5912
(dp5913
g27
(dp5914
g5821
g5822
sg35
I10
sg5823
V(ROOT\u000a  (S\u000a    (NP (DT The) (NN term))\u000a    (VP (VBZ has)\u000a      (VP (VBN been)\u000a        (VP (VBN used)\u000a          (PP (IN by)\u000a            (S\u000a              (NP (DT those))\u000a              (VP (VBG advocating)\u000a                (NP\u000a                  (NP (`` ``) (JJ left) (NN biocentrism) ('' ''))\u000a                  (, ,)\u000a                  (VP (VBG combining)\u000a                    (NP (JJ deep) (NN ecology))\u000a                    (PP (IN with)\u000a                      (NP (DT an)\u000a                        (ADJP (`` ``) (JJ anti-industrial)\u000a                          (CC and)\u000a                          (JJ anti-capitalist) ('' ''))\u000a                        (NN position)\u000a                        (PRN (-LRB- -LRB-)\u000a                          (NP\u000a                            (NP (NNP David) (NNP Orton))\u000a                            (NP (FW et) (FW al.)))\u000a                          (-RRB- -RRB-))\u000a                        (-LRB- -LSB-) (NN REF))))\u000a                  (-RRB- -RSB-))))))))\u000a    (. .)))
p5915
ssg10
I10
sg36
g4
sg37
(dp5916
sg39
(dp5917
g5827
(lp5918
g3697
ag3707
ag3717
ag3727
ag3737
ag3747
ag3757
ag3767
ag3777
ag3786
ag3796
ag3806
ag3815
ag3825
ag3835
ag3845
ag3855
ag3865
ag3875
ag3884
ag3894
ag3904
ag3914
ag3923
ag3933
ag3943
ag3953
ag3963
ag3973
ag3983
ag3993
ag4003
ag4013
ag4023
assg41
I1793
sg42
g5815
sg43
g5815
sg44
I367
sg45
V \u000a\u000aThe term has been used by those advocating "left biocentrism", combining deep ecology with an "anti-industrial and anti-capitalist" position (David Orton et al.) [REF].
p5919
sg47
I401
sg48
I1961
sbag0
(g23
g2
Ntp5920
Rp5921
(dp5922
g27
(dp5923
g5821
g5822
sg35
I11
sg5823
V(ROOT\u000a  (S\u000a    (NP (DT The) (NN term) (NN biocentrism))\u000a    (VP (VBZ is)\u000a      (ADVP (RB strongly))\u000a      (VP (VBN associated)\u000a        (PP (IN with)\u000a          (NP\u000a            (NP (DT the) (NN work))\u000a            (PP (IN of)\u000a              (NP\u000a                (NP\u000a                  (NP (DT the) (NN philosopher))\u000a                  (NP (NNP Paul) (NNP Taylor)))\u000a                (, ,) (RB especially)\u000a                (NP\u000a                  (NP\u000a                    (NP (PRP$ his) (NN book) (NN Respect))\u000a                    (PP (IN for)\u000a                      (NP (NN Nature))))\u000a                  (: :)\u000a                  (NP\u000a                    (NP (DT A) (NNP Theory))\u000a                    (PP (IN of)\u000a                      (NP\u000a                        (NP (NNP Environmental) (NNP Ethics))\u000a                        (PRN (-LRB- -LRB-)\u000a                          (NP (CD 1986))\u000a                          (-RRB- -RRB-))))))))))))\u000a    (. .)))
p5924
ssg10
I11
sg36
g4
sg37
(dp5925
sg39
(dp5926
g5827
(lp5927
g4033
ag4043
ag4053
ag4063
ag4073
ag4083
ag4093
ag4103
ag4113
ag4123
ag4133
ag4143
ag4153
ag4163
ag4173
ag4183
ag4193
ag4203
ag4213
ag4223
ag4233
ag4243
ag4253
ag4263
ag4273
ag4283
ag4293
ag4303
ag4313
ag4323
ag4333
assg41
I1963
sg42
g5815
sg43
g5815
sg44
I401
sg45
V\u000a\u000aThe term biocentrism is strongly associated with the work of the philosopher Paul Taylor, especially his book Respect for Nature: A Theory of Environmental Ethics (1986).
p5928
sg47
I432
sg48
I2133
sbag0
(g23
g2
Ntp5929
Rp5930
(dp5931
g27
(dp5932
g5821
g5822
sg35
I12
sg5823
V(ROOT\u000a  (S\u000a    (NP\u000a      (PRN (-LRB- -LRB-)\u000a        (NP (NN ISBN) (CD 978-0691150246))\u000a        (-RRB- -RRB-)))\u000a    (VP (-LRB- -LSB-)\u000a      (NP (NN REF) (-RRB- -RSB-)))\u000a    (. .)))
p5933
ssg10
I12
sg36
g4
sg37
(dp5934
sg39
(dp5935
g5827
(lp5936
g4343
ag4353
ag4363
ag4373
ag4383
ag4393
ag4403
ag4413
assg41
I2134
sg42
g5815
sg43
g5815
sg44
I432
sg45
V (ISBN 978-0691150246) [REF] .
p5937
sg47
I440
sg48
I2163
sbag0
(g23
g2
Ntp5938
Rp5939
(dp5940
g27
(dp5941
g5821
g5822
sg35
I13
sg5823
V(ROOT\u000a  (S\u000a    (ADVP (RB However))\u000a    (, ,)\u000a    (NP (NN historian) (NNP Donald) (NNP Worster))\u000a    (VP (VBZ has)\u000a      (VP (VBN traced)\u000a        (NP\u000a          (NP\u000a            (NP (NN today) (POS 's))\u000a            (JJ biocentric) (NNS philosophies))\u000a          (, ,)\u000a          (SBAR\u000a            (WHNP (WDT which))\u000a            (S\u000a              (NP (PRP he))\u000a              (VP (VBZ sees)\u000a                (PP (IN as)\u000a                  (NP\u000a                    (NP (NN part))\u000a                    (PP (IN of)\u000a                      (NP\u000a                        (NP (DT a) (NN recovery))\u000a                        (PP (IN of)\u000a                          (NP\u000a                            (NP (DT a) (NN sense))\u000a                            (PP (IN of)\u000a                              (NP\u000a                                (NP (NN kinship))\u000a                                (PP (IN between)\u000a                                  (NP (NN man)\u000a                                    (CC and)\u000a                                    (NN nature)))))))))))\u000a                (, ,)\u000a                (PP (TO to)\u000a                  (NP\u000a                    (NP (DT the) (NN reaction))\u000a                    (PP (IN by)\u000a                      (NP\u000a                        (NP (DT the) (JJ British) (NN intelligencia))\u000a                        (PP (IN of)\u000a                          (NP\u000a                            (NP (DT the) (JJ Victorian) (NN era))\u000a                            (PP (IN against)\u000a                              (NP\u000a                                (NP (DT the) (NNP Christian) (NN ethic))\u000a                                (PP (IN of)\u000a                                  (NP\u000a                                    (NP (NN dominion))\u000a                                    (PP (IN over)\u000a                                      (NP (NN nature) (-LRB- -LSB-) (NN REF) (-RRB- -RSB-)))))))))))))))))))\u000a    (. .)))
p5942
ssg10
I13
sg36
g4
sg37
(dp5943
sg39
(dp5944
g5827
(lp5945
g4423
ag4433
ag4443
ag4453
ag4463
ag4473
ag4483
ag4493
ag4503
ag4513
ag4523
ag4533
ag4543
ag4553
ag4563
ag4573
ag4583
ag4593
ag4603
ag4613
ag4623
ag4633
ag4643
ag4653
ag4663
ag4673
ag4683
ag4693
ag4703
ag4713
ag4723
ag4733
ag4743
ag4753
ag4763
ag4773
ag4783
ag4793
ag4803
ag4813
ag4823
ag4833
ag4843
ag4853
ag4863
ag4873
ag4883
ag4893
ag4903
ag4913
ag4923
ag4933
ag4943
assg41
I2166
sg42
g5815
sg43
g5815
sg44
I440
sg45
V \u000a\u000aHowever, historian Donald Worster has traced today's biocentric philosophies, which he sees as part of a recovery of a sense of kinship between man and nature, to the reaction by the British intelligencia of the Victorian era against the Christian ethic of dominion over nature [REF].
p5946
sg47
I493
sg48
I2450
sbag0
(g23
g2
Ntp5947
Rp5948
(dp5949
g27
(dp5950
g5821
g5822
sg35
I14
sg5823
V(X (PRP He) (VBZ has) (VBN pointed) (TO to) (NNP Charles) (NNP Darwin) (IN as) (DT an) (JJ important) (NN spokesperson) (IN for) (DT the) (JJ biocentric) (NN view) (IN in) (JJ ecological) (NN thought)\u000a  (CC and)\u000a  (NNS quotes) (IN from) (NNP Darwin) (POS 's) (NNP Notebook) (IN on) (NNP Transmutation) (IN of) (NNP Species) (: :) (IN If) (PRP we) (VBP choose) (TO to) (VB let) (NN conjecture) (NN run) (JJ wild) (, ,) (RB then) (NNS animals) (, ,) (PRP$ our) (JJ fellow) (NNS brethren) (IN in) (NN pain) (, ,) (NNS diseases) (, ,) (NN death) (, ,) (VBG suffering)\u000a  (CC and)\u000a  (NN famine) (: --) (PRP$ our) (NNS slaves) (IN in) (DT the) (RBS most) (JJ laborious) (NNS works) (, ,) (PRP$ our) (NNS companions) (IN in) (PRP$ our) (NN amusement) (: --) (PRP they) (MD may) (VB partake) (IN of) (PRP$ our) (NN origin) (IN in) (CD one) (JJ common) (NN ancestor) (: --) (PRP we) (MD may) (VB be) (DT all) (VBN netted) (RB together) (. .))
p5951
ssg10
I14
sg36
g4
sg37
(dp5952
sg39
(dp5953
g5827
(lp5954
g4953
ag4963
ag4973
ag4983
ag4993
ag5003
ag5013
ag5023
ag5033
ag5043
ag5053
ag5063
ag5073
ag5083
ag5093
ag5103
ag5113
ag5123
ag5133
ag5143
ag5153
ag5163
ag5173
ag5183
ag5193
ag5203
ag5213
ag5223
ag5233
ag5243
ag5253
ag5263
ag5273
ag5283
ag5293
ag5303
ag5313
ag5323
ag5333
ag5343
ag5353
ag5363
ag5373
ag5383
ag5393
ag5403
ag5413
ag5423
ag5433
ag5443
ag5453
ag5463
ag5473
ag5483
ag5493
ag5503
ag5513
ag5523
ag5533
ag5543
ag5553
ag5563
ag5573
ag5583
ag5593
ag5603
ag5613
ag5623
ag5633
ag5643
ag5653
ag5663
ag5673
ag5683
ag5693
ag5703
ag5713
ag5723
ag5733
ag5743
ag5753
ag5763
ag5773
ag5783
ag5793
ag5803
assg41
I2451
sg42
g5815
sg43
g5815
sg44
I493
sg45
V\u000aHe has pointed to Charles Darwin as an important spokesperson for the biocentric view in ecological thought and quotes from Darwin's Notebook on Transmutation of Species:If we choose to let conjecture run wild, then animals, our fellow brethren in pain, diseases, death, suffering and famine \u2014 our slaves in the most laborious works, our companions in our amusement \u2014 they may partake of our origin in one common ancestor \u2014 we may be all netted together.
p5955
sg47
I579
sg48
I2905
sbassg37
(dp5956
sg39
(dp5957
sg47
I-1
sg5827
g22
sg42
g5812
sg36
Nsg27
(dp5958
sg44
I0
sg45
VFor the cosmological concept, see biocentrism (cosmology). \u000a\u000aBiocentrism (Greek: \u03b2\u03af\u03bf\u03c2, bio, "life"; and \u03ba\u03ad\u03bd\u03c4\u03c1\u03bf\u03bd, kentron, "center"), in a political and ecological sense, is an ethical point of view which extends inherent value to non-human species,[REF] ecosystems, and processes in nature - regardless of their sentience [REF]. It stands in contrast to anthropocentrism which centers on the value of humans [REF].\u000a\u000aBiocentrism states that nature does not exist simply to be used or consumed by humans, but that humans are simply one species amongst many,[REF] and that because we are part of an ecosystem, any actions which negatively affect the living systems of which we are a part, adversely affect us as well,[REF][REF] whether or not we maintain a biocentric worldview [REF]. Biocentrists believe that all species have inherent value, and that humans are not "superior" in a moral or ethical sense. \u000a\u000aPaul Taylor, one of the major[REF] early proponents of biocentrism, maintains that biocentrism is an "attitude of respect for nature", whereby one attempts to make an effort to live one's life in a way that respects the welfare and inherent worth of all living creatures [REF]. Taylor states that:[REF][REF] . \u000a\u000aHumans are members of a community of life along with all other species, and on equal terms. \u000aThis community consists of a system of interdependence between all members, both physically, and in terms of relationships with other species \u000aEvery organism is a "teleological centre of life", that is, each organism has a purpose and a reason for being, which is inherently "good" or "valuable"\u000aHumans are not inherently superior to other species . \u000a\u000aAdvocates of biocentrism are likely to promote preservation of biodiversity,[REF] animal rights, and environmental protection. \u000a\u000aThe term has been used by those advocating "left biocentrism", combining deep ecology with an "anti-industrial and anti-capitalist" position (David Orton et al.) [REF].\u000a\u000aThe term biocentrism is strongly associated with the work of the philosopher Paul Taylor, especially his book Respect for Nature: A Theory of Environmental Ethics (1986). (ISBN 978-0691150246) [REF] . \u000a\u000aHowever, historian Donald Worster has traced today's biocentric philosophies, which he sees as part of a recovery of a sense of kinship between man and nature, to the reaction by the British intelligencia of the Victorian era against the Christian ethic of dominion over nature [REF].\u000aHe has pointed to Charles Darwin as an important spokesperson for the biocentric view in ecological thought and quotes from Darwin's Notebook on Transmutation of Species:If we choose to let conjecture run wild, then animals, our fellow brethren in pain, diseases, death, suffering and famine \u2014 our slaves in the most laborious works, our companions in our amusement \u2014 they may partake of our origin in one common ancestor \u2014 we may be all netted together.
p5959
sS'sents'
p5960
g5816
sg43
g5812
sg41
I0
sS'id'
p5961
g16
sg48
I2905
sS'sentFeatures'
p5962
(lp5963
sb.