ccopy_reg
_reconstructor
p0
(cpygate.doc
Document
p1
c__builtin__
object
p2
Ntp3
Rp4
(dp5
S'src'
p6
VHuman genetic engineering is the alteration of an individual's genotype with the aim of choosing the phenotype of a newborn or changing the existing phenotype of a child or adult. {{Cite journal | last =\u000a | first = \u000a | author-link = \u000a | last2 = \u000a | first2 = \u000a | author2-link = \u000a | title = \u000a | volume = \u000a | edition = \u000a | url = \u000a | doi = \u000a | id = \u000a | isbn =\u000a | postscript = \u000aIt holds the promise of curing genetic diseases like cystic fibrosis, and increasing the immunity of people to viruses. It is speculated that genetic engineering could be used to change physical appearance, metabolism, and even improve mental faculties like memory and intelligence, although for now these uses seem to be of lower priority to researchers and are therefore limited to science fiction.\u000a\u000aGene therapy trials on humans began in 2004 on patients with Severe Combined Immunodeficiency (SCID). In 2000, the first gene therapy "success" resulted in SCID patients with a functional immune system. These trials were stopped when it was discovered that two of ten patients in one trial had developed leukemia resulting from the insertion of the gene-carrying retrovirus near an oncogene. In 2007, four of the ten patients had developed leukemia [REF]. Work is now focusing on correcting the gene without triggering an oncogene. \u000a\u000aTrial treatments of SCID have been gene therapy's only success; since 1999, gene therapy has restored the immune systems of at least 17 children with two forms (ADA-SCID and X-SCID) of the disorder. \u000a\u000aHuman genetic engineering is already being used on a small scale to allow infertile women with genetic defects in their mitochondria to have children [REF]. Healthy human eggs from a second mother are used. The child produced this way has genetic information from two mothers and one father [REF]. The changes made are germline changes and will likely be passed down from generation to generation, and, thus, are a permanent change to the human genome [REF]. \u000a\u000aOther forms of human genetic engineering are still theoretical. Recombinant DNA research is usually performed to study gene expression and various human diseases. Some drastic demonstrations of gene modification have been made with mice and other animals. In some instances changes are usually brought about by removing genetic material from one organism and transferring them into another species.\u000a\u000aThe potential to genetically engineer humans has raised many ethical issues. The issues range from a belief that every fetus has an inherent right to remain genetically unmodified to a belief that parents hold the rights to change their unborn children [REF]. In the middle is the belief that every child has the right to be born free from preventable diseases. \u000a\u000aMolecular Biologist Lee M. Silver believes that unlike Aldous Huxley\u2019s Brave New World, where a totalitarian government use eugenics to control the genetic makeup within society, the use of gene therapy to design children will be spread through what he calls \u201cfree market eugenics\u201d (Silver 315). Wealthy families will opt to design their child with genetic advantages because other families are doing so, and everybody wants to provide their newborn child with the best opportunities in life. Silver thinks that the use of germline gene therapy will mean wealthy families pass down enhanced traits to their children, potentially disadvantaging poorer families that can not afford the technology. (Silver 313) .
p7
sS'string'
p8
S'Human genetic engineering is the alteration of an individual\'s genotype with the aim of choosing the phenotype of a newborn or changing the existing phenotype of a child or adult. {{Cite journal | last =\n | first = \n | author-link = \n | last2 = \n | first2 = \n | author2-link = \n | title = \n | volume = \n | edition = \n | url = \n | doi = \n | id = \n | isbn =\n | postscript = \nIt holds the promise of curing genetic diseases like cystic fibrosis, and increasing the immunity of people to viruses. It is speculated that genetic engineering could be used to change physical appearance, metabolism, and even improve mental faculties like memory and intelligence, although for now these uses seem to be of lower priority to researchers and are therefore limited to science fiction.\n\nGene therapy trials on humans began in 2004 on patients with Severe Combined Immunodeficiency (SCID). In 2000, the first gene therapy "success" resulted in SCID patients with a functional immune system. These trials were stopped when it was discovered that two of ten patients in one trial had developed leukemia resulting from the insertion of the gene-carrying retrovirus near an oncogene. In 2007, four of the ten patients had developed leukemia [REF]. Work is now focusing on correcting the gene without triggering an oncogene. \n\nTrial treatments of SCID have been gene therapy\'s only success; since 1999, gene therapy has restored the immune systems of at least 17 children with two forms (ADA-SCID and X-SCID) of the disorder. \n\nHuman genetic engineering is already being used on a small scale to allow infertile women with genetic defects in their mitochondria to have children [REF]. Healthy human eggs from a second mother are used. The child produced this way has genetic information from two mothers and one father [REF]. The changes made are germline changes and will likely be passed down from generation to generation, and, thus, are a permanent change to the human genome [REF]. \n\nOther forms of human genetic engineering are still theoretical. Recombinant DNA research is usually performed to study gene expression and various human diseases. Some drastic demonstrations of gene modification have been made with mice and other animals. In some instances changes are usually brought about by removing genetic material from one organism and transferring them into another species.\n\nThe potential to genetically engineer humans has raised many ethical issues. The issues range from a belief that every fetus has an inherent right to remain genetically unmodified to a belief that parents hold the rights to change their unborn children [REF]. In the middle is the belief that every child has the right to be born free from preventable diseases. \n\nMolecular Biologist Lee M. Silver believes that unlike Aldous Huxley\xe2\x80\x99s Brave New World, where a totalitarian government use eugenics to control the genetic makeup within society, the use of gene therapy to design children will be spread through what he calls \xe2\x80\x9cfree market eugenics\xe2\x80\x9d (Silver 315). Wealthy families will opt to design their child with genetic advantages because other families are doing so, and everybody wants to provide their newborn child with the best opportunities in life. Silver thinks that the use of germline gene therapy will mean wealthy families pass down enhanced traits to their children, potentially disadvantaging poorer families that can not afford the technology. (Silver 313) .'
p9
sS'idx'
p10
I0
sS'tknFeatures'
p11
(lp12
sS'docFeatures'
p13
(dp14
S'file_id'
p15
S'Human_genetic_engineering'
p16
ssS'items'
p17
(dp18
S'raw'
p19
VHuman genetic engineering is the alteration of an individual's genotype with the aim of choosing the phenotype of a newborn or changing the existing phenotype of a child or adult. {{Cite journal | last =\u000a | first = \u000a | author-link = \u000a | last2 = \u000a | first2 = \u000a | author2-link = \u000a | title = \u000a | volume = \u000a | edition = \u000a | url = \u000a | doi = \u000a | id = \u000a | isbn =\u000a | postscript = \u000aIt holds the promise of curing genetic diseases like cystic fibrosis, and increasing the immunity of people to viruses. It is speculated that genetic engineering could be used to change physical appearance, metabolism, and even improve mental faculties like memory and intelligence, although for now these uses seem to be of lower priority to researchers and are therefore limited to science fiction.\u000a\u000aGene therapy trials on humans began in 2004 on patients with Severe Combined Immunodeficiency (SCID). In 2000, the first gene therapy "success" resulted in SCID patients with a functional immune system. These trials were stopped when it was discovered that two of ten patients in one trial had developed leukemia resulting from the insertion of the gene-carrying retrovirus near an oncogene. In 2007, four of the ten patients had developed leukemia [REF]. Work is now focusing on correcting the gene without triggering an oncogene. \u000a\u000aTrial treatments of SCID have been gene therapy's only success; since 1999, gene therapy has restored the immune systems of at least 17 children with two forms (ADA-SCID and X-SCID) of the disorder. \u000a\u000aHuman genetic engineering is already being used on a small scale to allow infertile women with genetic defects in their mitochondria to have children [REF]. Healthy human eggs from a second mother are used. The child produced this way has genetic information from two mothers and one father [REF]. The changes made are germline changes and will likely be passed down from generation to generation, and, thus, are a permanent change to the human genome [REF]. \u000a\u000aOther forms of human genetic engineering are still theoretical. Recombinant DNA research is usually performed to study gene expression and various human diseases. Some drastic demonstrations of gene modification have been made with mice and other animals. In some instances changes are usually brought about by removing genetic material from one organism and transferring them into another species.\u000a\u000aThe potential to genetically engineer humans has raised many ethical issues. The issues range from a belief that every fetus has an inherent right to remain genetically unmodified to a belief that parents hold the rights to change their unborn children [REF]. In the middle is the belief that every child has the right to be born free from preventable diseases. \u000a\u000aMolecular Biologist Lee M. Silver believes that unlike Aldous Huxley\u2019s Brave New World, where a totalitarian government use eugenics to control the genetic makeup within society, the use of gene therapy to design children will be spread through what he calls \u201cfree market eugenics\u201d (Silver 315). Wealthy families will opt to design their child with genetic advantages because other families are doing so, and everybody wants to provide their newborn child with the best opportunities in life. Silver thinks that the use of germline gene therapy will mean wealthy families pass down enhanced traits to their children, potentially disadvantaging poorer families that can not afford the technology. (Silver 313) .
p20
sS'Token'
p21
(lp22
g0
(cpygate.annotation
Annotation
p23
g2
Ntp24
Rp25
(dp26
S'features'
p27
(dp28
S'lemma'
p29
Vhuman
p30
sS'ner'
p31
VO
p32
sS'pos'
p33
VJJ
p34
sS'index'
p35
I1
ssg10
I0
sS'doc'
p36
g4
sS'labels'
p37
(dp38
sS'relations'
p39
(dp40
sS'cStart'
p41
I0
sS'subType'
p42
g21
sS'annoType'
p43
g21
sS'tStart'
p44
I0
sS'text'
p45
VHuman
p46
sS'tEnd'
p47
I0
sS'cEnd'
p48
I5
sbag0
(g23
g2
Ntp49
Rp50
(dp51
g27
(dp52
g29
Vgenetic
p53
sg31
VO
p54
sg33
VJJ
p55
sg35
I2
ssg10
I1
sg36
g4
sg37
(dp56
sg39
(dp57
sg41
I6
sg42
g21
sg43
g21
sg44
I1
sg45
Vgenetic
p58
sg47
I1
sg48
I13
sbag0
(g23
g2
Ntp59
Rp60
(dp61
g27
(dp62
g29
Vengineering
p63
sg31
VO
p64
sg33
VNN
p65
sg35
I3
ssg10
I2
sg36
g4
sg37
(dp66
sg39
(dp67
sg41
I14
sg42
g21
sg43
g21
sg44
I2
sg45
Vengineering
p68
sg47
I2
sg48
I25
sbag0
(g23
g2
Ntp69
Rp70
(dp71
g27
(dp72
g29
Vbe
p73
sg31
VO
p74
sg33
VVBZ
p75
sg35
I4
ssg10
I3
sg36
g4
sg37
(dp76
sg39
(dp77
sg41
I26
sg42
g21
sg43
g21
sg44
I3
sg45
Vis
p78
sg47
I3
sg48
I28
sbag0
(g23
g2
Ntp79
Rp80
(dp81
g27
(dp82
g29
Vthe
p83
sg31
VO
p84
sg33
VDT
p85
sg35
I5
ssg10
I4
sg36
g4
sg37
(dp86
sg39
(dp87
sg41
I29
sg42
g21
sg43
g21
sg44
I4
sg45
Vthe
p88
sg47
I4
sg48
I32
sbag0
(g23
g2
Ntp89
Rp90
(dp91
g27
(dp92
g29
Valteration
p93
sg31
VO
p94
sg33
VNN
p95
sg35
I6
ssg10
I5
sg36
g4
sg37
(dp96
sg39
(dp97
sg41
I33
sg42
g21
sg43
g21
sg44
I5
sg45
Valteration
p98
sg47
I5
sg48
I43
sbag0
(g23
g2
Ntp99
Rp100
(dp101
g27
(dp102
g29
Vof
p103
sg31
VO
p104
sg33
VIN
p105
sg35
I7
ssg10
I6
sg36
g4
sg37
(dp106
sg39
(dp107
sg41
I44
sg42
g21
sg43
g21
sg44
I6
sg45
Vof
p108
sg47
I6
sg48
I46
sbag0
(g23
g2
Ntp109
Rp110
(dp111
g27
(dp112
g29
Va
p113
sg31
VO
p114
sg33
VDT
p115
sg35
I8
ssg10
I7
sg36
g4
sg37
(dp116
sg39
(dp117
sg41
I47
sg42
g21
sg43
g21
sg44
I7
sg45
Van
p118
sg47
I7
sg48
I49
sbag0
(g23
g2
Ntp119
Rp120
(dp121
g27
(dp122
g29
Vindividual
p123
sg31
VO
p124
sg33
VNN
p125
sg35
I9
ssg10
I8
sg36
g4
sg37
(dp126
sg39
(dp127
sg41
I50
sg42
g21
sg43
g21
sg44
I8
sg45
Vindividual
p128
sg47
I8
sg48
I60
sbag0
(g23
g2
Ntp129
Rp130
(dp131
g27
(dp132
g29
V's
p133
sg31
VO
p134
sg33
VPOS
p135
sg35
I10
ssg10
I9
sg36
g4
sg37
(dp136
sg39
(dp137
sg41
I60
sg42
g21
sg43
g21
sg44
I9
sg45
V's
p138
sg47
I9
sg48
I62
sbag0
(g23
g2
Ntp139
Rp140
(dp141
g27
(dp142
g29
Vgenotype
p143
sg31
VO
p144
sg33
VNN
p145
sg35
I11
ssg10
I10
sg36
g4
sg37
(dp146
sg39
(dp147
sg41
I63
sg42
g21
sg43
g21
sg44
I10
sg45
Vgenotype
p148
sg47
I10
sg48
I71
sbag0
(g23
g2
Ntp149
Rp150
(dp151
g27
(dp152
g29
Vwith
p153
sg31
VO
p154
sg33
VIN
p155
sg35
I12
ssg10
I11
sg36
g4
sg37
(dp156
sg39
(dp157
sg41
I72
sg42
g21
sg43
g21
sg44
I11
sg45
Vwith
p158
sg47
I11
sg48
I76
sbag0
(g23
g2
Ntp159
Rp160
(dp161
g27
(dp162
g29
Vthe
p163
sg31
VO
p164
sg33
VDT
p165
sg35
I13
ssg10
I12
sg36
g4
sg37
(dp166
sg39
(dp167
sg41
I77
sg42
g21
sg43
g21
sg44
I12
sg45
Vthe
p168
sg47
I12
sg48
I80
sbag0
(g23
g2
Ntp169
Rp170
(dp171
g27
(dp172
g29
Vaim
p173
sg31
VO
p174
sg33
VNN
p175
sg35
I14
ssg10
I13
sg36
g4
sg37
(dp176
sg39
(dp177
sg41
I81
sg42
g21
sg43
g21
sg44
I13
sg45
Vaim
p178
sg47
I13
sg48
I84
sbag0
(g23
g2
Ntp179
Rp180
(dp181
g27
(dp182
g29
Vof
p183
sg31
VO
p184
sg33
VIN
p185
sg35
I15
ssg10
I14
sg36
g4
sg37
(dp186
sg39
(dp187
sg41
I85
sg42
g21
sg43
g21
sg44
I14
sg45
Vof
p188
sg47
I14
sg48
I87
sbag0
(g23
g2
Ntp189
Rp190
(dp191
g27
(dp192
g29
Vchoose
p193
sg31
VO
p194
sg33
VVBG
p195
sg35
I16
ssg10
I15
sg36
g4
sg37
(dp196
sg39
(dp197
sg41
I88
sg42
g21
sg43
g21
sg44
I15
sg45
Vchoosing
p198
sg47
I15
sg48
I96
sbag0
(g23
g2
Ntp199
Rp200
(dp201
g27
(dp202
g29
Vthe
p203
sg31
VO
p204
sg33
VDT
p205
sg35
I17
ssg10
I16
sg36
g4
sg37
(dp206
sg39
(dp207
sg41
I97
sg42
g21
sg43
g21
sg44
I16
sg45
Vthe
p208
sg47
I16
sg48
I100
sbag0
(g23
g2
Ntp209
Rp210
(dp211
g27
(dp212
g29
Vphenotype
p213
sg31
VO
p214
sg33
VNN
p215
sg35
I18
ssg10
I17
sg36
g4
sg37
(dp216
sg39
(dp217
sg41
I101
sg42
g21
sg43
g21
sg44
I17
sg45
Vphenotype
p218
sg47
I17
sg48
I110
sbag0
(g23
g2
Ntp219
Rp220
(dp221
g27
(dp222
g29
Vof
p223
sg31
VO
p224
sg33
VIN
p225
sg35
I19
ssg10
I18
sg36
g4
sg37
(dp226
sg39
(dp227
sg41
I111
sg42
g21
sg43
g21
sg44
I18
sg45
Vof
p228
sg47
I18
sg48
I113
sbag0
(g23
g2
Ntp229
Rp230
(dp231
g27
(dp232
g29
Va
p233
sg31
VO
p234
sg33
VDT
p235
sg35
I20
ssg10
I19
sg36
g4
sg37
(dp236
sg39
(dp237
sg41
I114
sg42
g21
sg43
g21
sg44
I19
sg45
Va
p238
sg47
I19
sg48
I115
sbag0
(g23
g2
Ntp239
Rp240
(dp241
g27
(dp242
g29
Vnewborn
p243
sg31
VO
p244
sg33
VJJ
p245
sg35
I21
ssg10
I20
sg36
g4
sg37
(dp246
sg39
(dp247
sg41
I116
sg42
g21
sg43
g21
sg44
I20
sg45
Vnewborn
p248
sg47
I20
sg48
I123
sbag0
(g23
g2
Ntp249
Rp250
(dp251
g27
(dp252
g29
Vor
p253
sg31
VO
p254
sg33
VCC
p255
sg35
I22
ssg10
I21
sg36
g4
sg37
(dp256
sg39
(dp257
sg41
I120
sg42
g21
sg43
g21
sg44
I21
sg45
Vor
p258
sg47
I21
sg48
I122
sbag0
(g23
g2
Ntp259
Rp260
(dp261
g27
(dp262
g29
Vchange
p263
sg31
VO
p264
sg33
VVBG
p265
sg35
I23
ssg10
I22
sg36
g4
sg37
(dp266
sg39
(dp267
sg41
I127
sg42
g21
sg43
g21
sg44
I22
sg45
Vchanging
p268
sg47
I22
sg48
I135
sbag0
(g23
g2
Ntp269
Rp270
(dp271
g27
(dp272
g29
Vthe
p273
sg31
VO
p274
sg33
VDT
p275
sg35
I24
ssg10
I23
sg36
g4
sg37
(dp276
sg39
(dp277
sg41
I136
sg42
g21
sg43
g21
sg44
I23
sg45
Vthe
p278
sg47
I23
sg48
I139
sbag0
(g23
g2
Ntp279
Rp280
(dp281
g27
(dp282
g29
Vexist
p283
sg31
VO
p284
sg33
VVBG
p285
sg35
I25
ssg10
I24
sg36
g4
sg37
(dp286
sg39
(dp287
sg41
I140
sg42
g21
sg43
g21
sg44
I24
sg45
Vexisting
p288
sg47
I24
sg48
I148
sbag0
(g23
g2
Ntp289
Rp290
(dp291
g27
(dp292
g29
Vphenotype
p293
sg31
VO
p294
sg33
VNN
p295
sg35
I26
ssg10
I25
sg36
g4
sg37
(dp296
sg39
(dp297
sg41
I149
sg42
g21
sg43
g21
sg44
I25
sg45
Vphenotype
p298
sg47
I25
sg48
I158
sbag0
(g23
g2
Ntp299
Rp300
(dp301
g27
(dp302
g29
Vof
p303
sg31
VO
p304
sg33
VIN
p305
sg35
I27
ssg10
I26
sg36
g4
sg37
(dp306
sg39
(dp307
sg41
I159
sg42
g21
sg43
g21
sg44
I26
sg45
Vof
p308
sg47
I26
sg48
I161
sbag0
(g23
g2
Ntp309
Rp310
(dp311
g27
(dp312
g29
Va
p313
sg31
VO
p314
sg33
VDT
p315
sg35
I28
ssg10
I27
sg36
g4
sg37
(dp316
sg39
(dp317
sg41
I162
sg42
g21
sg43
g21
sg44
I27
sg45
Va
p318
sg47
I27
sg48
I163
sbag0
(g23
g2
Ntp319
Rp320
(dp321
g27
(dp322
g29
Vchild
p323
sg31
VO
p324
sg33
VNN
p325
sg35
I29
ssg10
I28
sg36
g4
sg37
(dp326
sg39
(dp327
sg41
I164
sg42
g21
sg43
g21
sg44
I28
sg45
Vchild
p328
sg47
I28
sg48
I169
sbag0
(g23
g2
Ntp329
Rp330
(dp331
g27
(dp332
g29
Vor
p333
sg31
VO
p334
sg33
VCC
p335
sg35
I30
ssg10
I29
sg36
g4
sg37
(dp336
sg39
(dp337
sg41
I170
sg42
g21
sg43
g21
sg44
I29
sg45
Vor
p338
sg47
I29
sg48
I172
sbag0
(g23
g2
Ntp339
Rp340
(dp341
g27
(dp342
g29
Vadult
p343
sg31
VO
p344
sg33
VNN
p345
sg35
I31
ssg10
I30
sg36
g4
sg37
(dp346
sg39
(dp347
sg41
I173
sg42
g21
sg43
g21
sg44
I30
sg45
Vadult
p348
sg47
I30
sg48
I178
sbag0
(g23
g2
Ntp349
Rp350
(dp351
g27
(dp352
g29
V.
p353
sg31
VO
p354
sg33
V.
p355
sg35
I32
ssg10
I31
sg36
g4
sg37
(dp356
sg39
(dp357
sg41
I178
sg42
g21
sg43
g21
sg44
I31
sg45
V.
p358
sg47
I31
sg48
I179
sbag0
(g23
g2
Ntp359
Rp360
(dp361
g27
(dp362
g29
V-lcb-
p363
sg31
VO
p364
sg33
V-LRB-
p365
sg35
I1
ssg10
I32
sg36
g4
sg37
(dp366
sg39
(dp367
sg41
I180
sg42
g21
sg43
g21
sg44
I32
sg45
V{
p368
sg47
I32
sg48
I181
sbag0
(g23
g2
Ntp369
Rp370
(dp371
g27
(dp372
g29
V-lcb-
p373
sg31
VO
p374
sg33
V-LRB-
p375
sg35
I2
ssg10
I33
sg36
g4
sg37
(dp376
sg39
(dp377
sg41
I180
sg42
g21
sg43
g21
sg44
I33
sg45
V{
p378
sg47
I33
sg48
I181
sbag0
(g23
g2
Ntp379
Rp380
(dp381
g27
(dp382
g29
Vcite
p383
sg31
VO
p384
sg33
VVB
p385
sg35
I3
ssg10
I34
sg36
g4
sg37
(dp386
sg39
(dp387
sg41
I182
sg42
g21
sg43
g21
sg44
I34
sg45
VCite
p388
sg47
I34
sg48
I186
sbag0
(g23
g2
Ntp389
Rp390
(dp391
g27
(dp392
g29
Vjournal
p393
sg31
VO
p394
sg33
VNN
p395
sg35
I4
ssg10
I35
sg36
g4
sg37
(dp396
sg39
(dp397
sg41
I187
sg42
g21
sg43
g21
sg44
I35
sg45
Vjournal
p398
sg47
I35
sg48
I194
sbag0
(g23
g2
Ntp399
Rp400
(dp401
g27
(dp402
g29
V|
p403
sg31
VO
p404
sg33
VNNP
p405
sg35
I5
ssg10
I36
sg36
g4
sg37
(dp406
sg39
(dp407
sg41
I195
sg42
g21
sg43
g21
sg44
I36
sg45
V|
p408
sg47
I36
sg48
I196
sbag0
(g23
g2
Ntp409
Rp410
(dp411
g27
(dp412
g29
Vlast
p413
sg31
VO
p414
sg33
VJJ
p415
sg35
I6
ssg10
I37
sg36
g4
sg37
(dp416
sg39
(dp417
sg41
I197
sg42
g21
sg43
g21
sg44
I37
sg45
Vlast
p418
sg47
I37
sg48
I201
sbag0
(g23
g2
Ntp419
Rp420
(dp421
g27
(dp422
g29
V=
p423
sg31
VO
p424
sg33
VJJ
p425
sg35
I7
ssg10
I38
sg36
g4
sg37
(dp426
sg39
(dp427
sg41
I202
sg42
g21
sg43
g21
sg44
I38
sg45
V=
p428
sg47
I38
sg48
I203
sbag0
(g23
g2
Ntp429
Rp430
(dp431
g27
(dp432
g29
V|
p433
sg31
VO
p434
sg33
VNN
p435
sg35
I8
ssg10
I39
sg36
g4
sg37
(dp436
sg39
(dp437
sg41
I205
sg42
g21
sg43
g21
sg44
I39
sg45
V|
p438
sg47
I39
sg48
I206
sbag0
(g23
g2
Ntp439
Rp440
(dp441
g27
(dp442
g29
Vfirst
p443
sg31
VORDINAL
p444
sg33
VRB
p445
sg35
I9
ssg10
I40
sg36
g4
sg37
(dp446
sg39
(dp447
sg41
I207
sg42
g21
sg43
g21
sg44
I40
sg45
Vfirst
p448
sg47
I40
sg48
I212
sbag0
(g23
g2
Ntp449
Rp450
(dp451
g27
(dp452
g29
V=
p453
sg31
VO
p454
sg33
VJJ
p455
sg35
I10
ssg10
I41
sg36
g4
sg37
(dp456
sg39
(dp457
sg41
I213
sg42
g21
sg43
g21
sg44
I41
sg45
V=
p458
sg47
I41
sg48
I214
sbag0
(g23
g2
Ntp459
Rp460
(dp461
g27
(dp462
g29
V|
p463
sg31
VNUMBER
p464
sg33
VCD
p465
sg35
I11
ssg10
I42
sg36
g4
sg37
(dp466
sg39
(dp467
sg41
I217
sg42
g21
sg43
g21
sg44
I42
sg45
V|
p468
sg47
I42
sg48
I218
sbag0
(g23
g2
Ntp469
Rp470
(dp471
g27
(dp472
g29
Vauthor-link
p473
sg31
VO
p474
sg33
VNN
p475
sg35
I12
ssg10
I43
sg36
g4
sg37
(dp476
sg39
(dp477
sg41
I219
sg42
g21
sg43
g21
sg44
I43
sg45
Vauthor-link
p478
sg47
I43
sg48
I230
sbag0
(g23
g2
Ntp479
Rp480
(dp481
g27
(dp482
g29
V=
p483
sg31
VO
p484
sg33
VJJ
p485
sg35
I13
ssg10
I44
sg36
g4
sg37
(dp486
sg39
(dp487
sg41
I231
sg42
g21
sg43
g21
sg44
I44
sg45
V=
p488
sg47
I44
sg48
I232
sbag0
(g23
g2
Ntp489
Rp490
(dp491
g27
(dp492
g29
V|
p493
sg31
VNUMBER
p494
sg33
VCD
p495
sg35
I14
ssg10
I45
sg36
g4
sg37
(dp496
sg39
(dp497
sg41
I235
sg42
g21
sg43
g21
sg44
I45
sg45
V|
p498
sg47
I45
sg48
I236
sbag0
(g23
g2
Ntp499
Rp500
(dp501
g27
(dp502
g29
Vlast2
p503
sg31
VO
p504
sg33
VNN
p505
sg35
I15
ssg10
I46
sg36
g4
sg37
(dp506
sg39
(dp507
sg41
I237
sg42
g21
sg43
g21
sg44
I46
sg45
Vlast2
p508
sg47
I46
sg48
I242
sbag0
(g23
g2
Ntp509
Rp510
(dp511
g27
(dp512
g29
V=
p513
sg31
VO
p514
sg33
VJJ
p515
sg35
I16
ssg10
I47
sg36
g4
sg37
(dp516
sg39
(dp517
sg41
I243
sg42
g21
sg43
g21
sg44
I47
sg45
V=
p518
sg47
I47
sg48
I244
sbag0
(g23
g2
Ntp519
Rp520
(dp521
g27
(dp522
g29
V|
p523
sg31
VNUMBER
p524
sg33
VCD
p525
sg35
I17
ssg10
I48
sg36
g4
sg37
(dp526
sg39
(dp527
sg41
I247
sg42
g21
sg43
g21
sg44
I48
sg45
V|
p528
sg47
I48
sg48
I248
sbag0
(g23
g2
Ntp529
Rp530
(dp531
g27
(dp532
g29
Vfirst2
p533
sg31
VO
p534
sg33
VNN
p535
sg35
I18
ssg10
I49
sg36
g4
sg37
(dp536
sg39
(dp537
sg41
I249
sg42
g21
sg43
g21
sg44
I49
sg45
Vfirst2
p538
sg47
I49
sg48
I255
sbag0
(g23
g2
Ntp539
Rp540
(dp541
g27
(dp542
g29
V=
p543
sg31
VO
p544
sg33
VJJ
p545
sg35
I19
ssg10
I50
sg36
g4
sg37
(dp546
sg39
(dp547
sg41
I256
sg42
g21
sg43
g21
sg44
I50
sg45
V=
p548
sg47
I50
sg48
I257
sbag0
(g23
g2
Ntp549
Rp550
(dp551
g27
(dp552
g29
V|
p553
sg31
VNUMBER
p554
sg33
VCD
p555
sg35
I20
ssg10
I51
sg36
g4
sg37
(dp556
sg39
(dp557
sg41
I260
sg42
g21
sg43
g21
sg44
I51
sg45
V|
p558
sg47
I51
sg48
I261
sbag0
(g23
g2
Ntp559
Rp560
(dp561
g27
(dp562
g29
Vauthor2-link
p563
sg31
VO
p564
sg33
VNN
p565
sg35
I21
ssg10
I52
sg36
g4
sg37
(dp566
sg39
(dp567
sg41
I262
sg42
g21
sg43
g21
sg44
I52
sg45
Vauthor2-link
p568
sg47
I52
sg48
I274
sbag0
(g23
g2
Ntp569
Rp570
(dp571
g27
(dp572
g29
V=
p573
sg31
VO
p574
sg33
VJJ
p575
sg35
I22
ssg10
I53
sg36
g4
sg37
(dp576
sg39
(dp577
sg41
I275
sg42
g21
sg43
g21
sg44
I53
sg45
V=
p578
sg47
I53
sg48
I276
sbag0
(g23
g2
Ntp579
Rp580
(dp581
g27
(dp582
g29
V|
p583
sg31
VNUMBER
p584
sg33
VCD
p585
sg35
I23
ssg10
I54
sg36
g4
sg37
(dp586
sg39
(dp587
sg41
I279
sg42
g21
sg43
g21
sg44
I54
sg45
V|
p588
sg47
I54
sg48
I280
sbag0
(g23
g2
Ntp589
Rp590
(dp591
g27
(dp592
g29
Vtitle
p593
sg31
VO
p594
sg33
VNN
p595
sg35
I24
ssg10
I55
sg36
g4
sg37
(dp596
sg39
(dp597
sg41
I281
sg42
g21
sg43
g21
sg44
I55
sg45
Vtitle
p598
sg47
I55
sg48
I286
sbag0
(g23
g2
Ntp599
Rp600
(dp601
g27
(dp602
g29
V=
p603
sg31
VO
p604
sg33
VJJ
p605
sg35
I25
ssg10
I56
sg36
g4
sg37
(dp606
sg39
(dp607
sg41
I287
sg42
g21
sg43
g21
sg44
I56
sg45
V=
p608
sg47
I56
sg48
I288
sbag0
(g23
g2
Ntp609
Rp610
(dp611
g27
(dp612
g29
V|
p613
sg31
VNUMBER
p614
sg33
VCD
p615
sg35
I26
ssg10
I57
sg36
g4
sg37
(dp616
sg39
(dp617
sg41
I291
sg42
g21
sg43
g21
sg44
I57
sg45
V|
p618
sg47
I57
sg48
I292
sbag0
(g23
g2
Ntp619
Rp620
(dp621
g27
(dp622
g29
Vvolume
p623
sg31
VO
p624
sg33
VNN
p625
sg35
I27
ssg10
I58
sg36
g4
sg37
(dp626
sg39
(dp627
sg41
I293
sg42
g21
sg43
g21
sg44
I58
sg45
Vvolume
p628
sg47
I58
sg48
I299
sbag0
(g23
g2
Ntp629
Rp630
(dp631
g27
(dp632
g29
V=
p633
sg31
VO
p634
sg33
VJJ
p635
sg35
I28
ssg10
I59
sg36
g4
sg37
(dp636
sg39
(dp637
sg41
I300
sg42
g21
sg43
g21
sg44
I59
sg45
V=
p638
sg47
I59
sg48
I301
sbag0
(g23
g2
Ntp639
Rp640
(dp641
g27
(dp642
g29
V|
p643
sg31
VNUMBER
p644
sg33
VCD
p645
sg35
I29
ssg10
I60
sg36
g4
sg37
(dp646
sg39
(dp647
sg41
I304
sg42
g21
sg43
g21
sg44
I60
sg45
V|
p648
sg47
I60
sg48
I305
sbag0
(g23
g2
Ntp649
Rp650
(dp651
g27
(dp652
g29
Vedition
p653
sg31
VO
p654
sg33
VNN
p655
sg35
I30
ssg10
I61
sg36
g4
sg37
(dp656
sg39
(dp657
sg41
I306
sg42
g21
sg43
g21
sg44
I61
sg45
Vedition
p658
sg47
I61
sg48
I313
sbag0
(g23
g2
Ntp659
Rp660
(dp661
g27
(dp662
g29
V=
p663
sg31
VO
p664
sg33
VJJ
p665
sg35
I31
ssg10
I62
sg36
g4
sg37
(dp666
sg39
(dp667
sg41
I314
sg42
g21
sg43
g21
sg44
I62
sg45
V=
p668
sg47
I62
sg48
I315
sbag0
(g23
g2
Ntp669
Rp670
(dp671
g27
(dp672
g29
V|
p673
sg31
VNUMBER
p674
sg33
VCD
p675
sg35
I32
ssg10
I63
sg36
g4
sg37
(dp676
sg39
(dp677
sg41
I318
sg42
g21
sg43
g21
sg44
I63
sg45
V|
p678
sg47
I63
sg48
I319
sbag0
(g23
g2
Ntp679
Rp680
(dp681
g27
(dp682
g29
Vurl
p683
sg31
VO
p684
sg33
VNN
p685
sg35
I33
ssg10
I64
sg36
g4
sg37
(dp686
sg39
(dp687
sg41
I320
sg42
g21
sg43
g21
sg44
I64
sg45
Vurl
p688
sg47
I64
sg48
I323
sbag0
(g23
g2
Ntp689
Rp690
(dp691
g27
(dp692
g29
V=
p693
sg31
VO
p694
sg33
VJJ
p695
sg35
I34
ssg10
I65
sg36
g4
sg37
(dp696
sg39
(dp697
sg41
I324
sg42
g21
sg43
g21
sg44
I65
sg45
V=
p698
sg47
I65
sg48
I325
sbag0
(g23
g2
Ntp699
Rp700
(dp701
g27
(dp702
g29
V|
p703
sg31
VNUMBER
p704
sg33
VCD
p705
sg35
I35
ssg10
I66
sg36
g4
sg37
(dp706
sg39
(dp707
sg41
I328
sg42
g21
sg43
g21
sg44
I66
sg45
V|
p708
sg47
I66
sg48
I329
sbag0
(g23
g2
Ntp709
Rp710
(dp711
g27
(dp712
g29
Vdoi
p713
sg31
VO
p714
sg33
VFW
p715
sg35
I36
ssg10
I67
sg36
g4
sg37
(dp716
sg39
(dp717
sg41
I330
sg42
g21
sg43
g21
sg44
I67
sg45
Vdoi
p718
sg47
I67
sg48
I333
sbag0
(g23
g2
Ntp719
Rp720
(dp721
g27
(dp722
g29
V=
p723
sg31
VO
p724
sg33
VJJ
p725
sg35
I37
ssg10
I68
sg36
g4
sg37
(dp726
sg39
(dp727
sg41
I334
sg42
g21
sg43
g21
sg44
I68
sg45
V=
p728
sg47
I68
sg48
I335
sbag0
(g23
g2
Ntp729
Rp730
(dp731
g27
(dp732
g29
V|
p733
sg31
VNUMBER
p734
sg33
VCD
p735
sg35
I38
ssg10
I69
sg36
g4
sg37
(dp736
sg39
(dp737
sg41
I338
sg42
g21
sg43
g21
sg44
I69
sg45
V|
p738
sg47
I69
sg48
I339
sbag0
(g23
g2
Ntp739
Rp740
(dp741
g27
(dp742
g29
Vid
p743
sg31
VO
p744
sg33
VNN
p745
sg35
I39
ssg10
I70
sg36
g4
sg37
(dp746
sg39
(dp747
sg41
I340
sg42
g21
sg43
g21
sg44
I70
sg45
Vid
p748
sg47
I70
sg48
I342
sbag0
(g23
g2
Ntp749
Rp750
(dp751
g27
(dp752
g29
V=
p753
sg31
VO
p754
sg33
VJJ
p755
sg35
I40
ssg10
I71
sg36
g4
sg37
(dp756
sg39
(dp757
sg41
I343
sg42
g21
sg43
g21
sg44
I71
sg45
V=
p758
sg47
I71
sg48
I344
sbag0
(g23
g2
Ntp759
Rp760
(dp761
g27
(dp762
g29
V|
p763
sg31
VNUMBER
p764
sg33
VCD
p765
sg35
I41
ssg10
I72
sg36
g4
sg37
(dp766
sg39
(dp767
sg41
I347
sg42
g21
sg43
g21
sg44
I72
sg45
V|
p768
sg47
I72
sg48
I348
sbag0
(g23
g2
Ntp769
Rp770
(dp771
g27
(dp772
g29
Visbn
p773
sg31
VO
p774
sg33
VNN
p775
sg35
I42
ssg10
I73
sg36
g4
sg37
(dp776
sg39
(dp777
sg41
I349
sg42
g21
sg43
g21
sg44
I73
sg45
Visbn
p778
sg47
I73
sg48
I353
sbag0
(g23
g2
Ntp779
Rp780
(dp781
g27
(dp782
g29
V=
p783
sg31
VO
p784
sg33
VJJ
p785
sg35
I43
ssg10
I74
sg36
g4
sg37
(dp786
sg39
(dp787
sg41
I354
sg42
g21
sg43
g21
sg44
I74
sg45
V=
p788
sg47
I74
sg48
I355
sbag0
(g23
g2
Ntp789
Rp790
(dp791
g27
(dp792
g29
V|
p793
sg31
VNUMBER
p794
sg33
VCD
p795
sg35
I44
ssg10
I75
sg36
g4
sg37
(dp796
sg39
(dp797
sg41
I357
sg42
g21
sg43
g21
sg44
I75
sg45
V|
p798
sg47
I75
sg48
I358
sbag0
(g23
g2
Ntp799
Rp800
(dp801
g27
(dp802
g29
Vpostscript
p803
sg31
VO
p804
sg33
VNN
p805
sg35
I45
ssg10
I76
sg36
g4
sg37
(dp806
sg39
(dp807
sg41
I359
sg42
g21
sg43
g21
sg44
I76
sg45
Vpostscript
p808
sg47
I76
sg48
I369
sbag0
(g23
g2
Ntp809
Rp810
(dp811
g27
(dp812
g29
V=
p813
sg31
VO
p814
sg33
VJJ
p815
sg35
I46
ssg10
I77
sg36
g4
sg37
(dp816
sg39
(dp817
sg41
I370
sg42
g21
sg43
g21
sg44
I77
sg45
V=
p818
sg47
I77
sg48
I371
sbag0
(g23
g2
Ntp819
Rp820
(dp821
g27
(dp822
g29
Vit
p823
sg31
VO
p824
sg33
VPRP
p825
sg35
I47
ssg10
I78
sg36
g4
sg37
(dp826
sg39
(dp827
sg41
I373
sg42
g21
sg43
g21
sg44
I78
sg45
VIt
p828
sg47
I78
sg48
I375
sbag0
(g23
g2
Ntp829
Rp830
(dp831
g27
(dp832
g29
Vhold
p833
sg31
VO
p834
sg33
VVBZ
p835
sg35
I48
ssg10
I79
sg36
g4
sg37
(dp836
sg39
(dp837
sg41
I376
sg42
g21
sg43
g21
sg44
I79
sg45
Vholds
p838
sg47
I79
sg48
I381
sbag0
(g23
g2
Ntp839
Rp840
(dp841
g27
(dp842
g29
Vthe
p843
sg31
VO
p844
sg33
VDT
p845
sg35
I49
ssg10
I80
sg36
g4
sg37
(dp846
sg39
(dp847
sg41
I382
sg42
g21
sg43
g21
sg44
I80
sg45
Vthe
p848
sg47
I80
sg48
I385
sbag0
(g23
g2
Ntp849
Rp850
(dp851
g27
(dp852
g29
Vpromise
p853
sg31
VO
p854
sg33
VNN
p855
sg35
I50
ssg10
I81
sg36
g4
sg37
(dp856
sg39
(dp857
sg41
I386
sg42
g21
sg43
g21
sg44
I81
sg45
Vpromise
p858
sg47
I81
sg48
I393
sbag0
(g23
g2
Ntp859
Rp860
(dp861
g27
(dp862
g29
Vof
p863
sg31
VO
p864
sg33
VIN
p865
sg35
I51
ssg10
I82
sg36
g4
sg37
(dp866
sg39
(dp867
sg41
I394
sg42
g21
sg43
g21
sg44
I82
sg45
Vof
p868
sg47
I82
sg48
I396
sbag0
(g23
g2
Ntp869
Rp870
(dp871
g27
(dp872
g29
Vcure
p873
sg31
VO
p874
sg33
VVBG
p875
sg35
I52
ssg10
I83
sg36
g4
sg37
(dp876
sg39
(dp877
sg41
I397
sg42
g21
sg43
g21
sg44
I83
sg45
Vcuring
p878
sg47
I83
sg48
I403
sbag0
(g23
g2
Ntp879
Rp880
(dp881
g27
(dp882
g29
Vgenetic
p883
sg31
VO
p884
sg33
VJJ
p885
sg35
I53
ssg10
I84
sg36
g4
sg37
(dp886
sg39
(dp887
sg41
I404
sg42
g21
sg43
g21
sg44
I84
sg45
Vgenetic
p888
sg47
I84
sg48
I411
sbag0
(g23
g2
Ntp889
Rp890
(dp891
g27
(dp892
g29
Vdisease
p893
sg31
VO
p894
sg33
VNNS
p895
sg35
I54
ssg10
I85
sg36
g4
sg37
(dp896
sg39
(dp897
sg41
I412
sg42
g21
sg43
g21
sg44
I85
sg45
Vdiseases
p898
sg47
I85
sg48
I420
sbag0
(g23
g2
Ntp899
Rp900
(dp901
g27
(dp902
g29
Vlike
p903
sg31
VO
p904
sg33
VIN
p905
sg35
I55
ssg10
I86
sg36
g4
sg37
(dp906
sg39
(dp907
sg41
I421
sg42
g21
sg43
g21
sg44
I86
sg45
Vlike
p908
sg47
I86
sg48
I425
sbag0
(g23
g2
Ntp909
Rp910
(dp911
g27
(dp912
g29
Vcystic
p913
sg31
VMISC
p914
sg33
VJJ
p915
sg35
I56
ssg10
I87
sg36
g4
sg37
(dp916
sg39
(dp917
sg41
I426
sg42
g21
sg43
g21
sg44
I87
sg45
Vcystic
p918
sg47
I87
sg48
I432
sbag0
(g23
g2
Ntp919
Rp920
(dp921
g27
(dp922
g29
Vfibrosis
p923
sg31
VO
p924
sg33
VNN
p925
sg35
I57
ssg10
I88
sg36
g4
sg37
(dp926
sg39
(dp927
sg41
I433
sg42
g21
sg43
g21
sg44
I88
sg45
Vfibrosis
p928
sg47
I88
sg48
I441
sbag0
(g23
g2
Ntp929
Rp930
(dp931
g27
(dp932
g29
V,
p933
sg31
VO
p934
sg33
V,
p935
sg35
I58
ssg10
I89
sg36
g4
sg37
(dp936
sg39
(dp937
sg41
I441
sg42
g21
sg43
g21
sg44
I89
sg45
V,
p938
sg47
I89
sg48
I442
sbag0
(g23
g2
Ntp939
Rp940
(dp941
g27
(dp942
g29
Vand
p943
sg31
VO
p944
sg33
VCC
p945
sg35
I59
ssg10
I90
sg36
g4
sg37
(dp946
sg39
(dp947
sg41
I443
sg42
g21
sg43
g21
sg44
I90
sg45
Vand
p948
sg47
I90
sg48
I446
sbag0
(g23
g2
Ntp949
Rp950
(dp951
g27
(dp952
g29
Vincrease
p953
sg31
VO
p954
sg33
VVBG
p955
sg35
I60
ssg10
I91
sg36
g4
sg37
(dp956
sg39
(dp957
sg41
I447
sg42
g21
sg43
g21
sg44
I91
sg45
Vincreasing
p958
sg47
I91
sg48
I457
sbag0
(g23
g2
Ntp959
Rp960
(dp961
g27
(dp962
g29
Vthe
p963
sg31
VO
p964
sg33
VDT
p965
sg35
I61
ssg10
I92
sg36
g4
sg37
(dp966
sg39
(dp967
sg41
I458
sg42
g21
sg43
g21
sg44
I92
sg45
Vthe
p968
sg47
I92
sg48
I461
sbag0
(g23
g2
Ntp969
Rp970
(dp971
g27
(dp972
g29
Vimmunity
p973
sg31
VO
p974
sg33
VNN
p975
sg35
I62
ssg10
I93
sg36
g4
sg37
(dp976
sg39
(dp977
sg41
I462
sg42
g21
sg43
g21
sg44
I93
sg45
Vimmunity
p978
sg47
I93
sg48
I470
sbag0
(g23
g2
Ntp979
Rp980
(dp981
g27
(dp982
g29
Vof
p983
sg31
VO
p984
sg33
VIN
p985
sg35
I63
ssg10
I94
sg36
g4
sg37
(dp986
sg39
(dp987
sg41
I471
sg42
g21
sg43
g21
sg44
I94
sg45
Vof
p988
sg47
I94
sg48
I473
sbag0
(g23
g2
Ntp989
Rp990
(dp991
g27
(dp992
g29
Vpeople
p993
sg31
VO
p994
sg33
VNNS
p995
sg35
I64
ssg10
I95
sg36
g4
sg37
(dp996
sg39
(dp997
sg41
I474
sg42
g21
sg43
g21
sg44
I95
sg45
Vpeople
p998
sg47
I95
sg48
I480
sbag0
(g23
g2
Ntp999
Rp1000
(dp1001
g27
(dp1002
g29
Vto
p1003
sg31
VO
p1004
sg33
VTO
p1005
sg35
I65
ssg10
I96
sg36
g4
sg37
(dp1006
sg39
(dp1007
sg41
I481
sg42
g21
sg43
g21
sg44
I96
sg45
Vto
p1008
sg47
I96
sg48
I483
sbag0
(g23
g2
Ntp1009
Rp1010
(dp1011
g27
(dp1012
g29
Vvirus
p1013
sg31
VO
p1014
sg33
VNNS
p1015
sg35
I66
ssg10
I97
sg36
g4
sg37
(dp1016
sg39
(dp1017
sg41
I484
sg42
g21
sg43
g21
sg44
I97
sg45
Vviruses
p1018
sg47
I97
sg48
I491
sbag0
(g23
g2
Ntp1019
Rp1020
(dp1021
g27
(dp1022
g29
V.
p1023
sg31
VO
p1024
sg33
V.
p1025
sg35
I67
ssg10
I98
sg36
g4
sg37
(dp1026
sg39
(dp1027
sg41
I491
sg42
g21
sg43
g21
sg44
I98
sg45
V.
p1028
sg47
I98
sg48
I492
sbag0
(g23
g2
Ntp1029
Rp1030
(dp1031
g27
(dp1032
g29
Vit
p1033
sg31
VO
p1034
sg33
VPRP
p1035
sg35
I1
ssg10
I99
sg36
g4
sg37
(dp1036
sg39
(dp1037
sg41
I493
sg42
g21
sg43
g21
sg44
I99
sg45
VIt
p1038
sg47
I99
sg48
I495
sbag0
(g23
g2
Ntp1039
Rp1040
(dp1041
g27
(dp1042
g29
Vbe
p1043
sg31
VO
p1044
sg33
VVBZ
p1045
sg35
I2
ssg10
I100
sg36
g4
sg37
(dp1046
sg39
(dp1047
sg41
I496
sg42
g21
sg43
g21
sg44
I100
sg45
Vis
p1048
sg47
I100
sg48
I498
sbag0
(g23
g2
Ntp1049
Rp1050
(dp1051
g27
(dp1052
g29
Vspeculate
p1053
sg31
VO
p1054
sg33
VVBN
p1055
sg35
I3
ssg10
I101
sg36
g4
sg37
(dp1056
sg39
(dp1057
sg41
I499
sg42
g21
sg43
g21
sg44
I101
sg45
Vspeculated
p1058
sg47
I101
sg48
I509
sbag0
(g23
g2
Ntp1059
Rp1060
(dp1061
g27
(dp1062
g29
Vthat
p1063
sg31
VO
p1064
sg33
VIN
p1065
sg35
I4
ssg10
I102
sg36
g4
sg37
(dp1066
sg39
(dp1067
sg41
I510
sg42
g21
sg43
g21
sg44
I102
sg45
Vthat
p1068
sg47
I102
sg48
I514
sbag0
(g23
g2
Ntp1069
Rp1070
(dp1071
g27
(dp1072
g29
Vgenetic
p1073
sg31
VO
p1074
sg33
VJJ
p1075
sg35
I5
ssg10
I103
sg36
g4
sg37
(dp1076
sg39
(dp1077
sg41
I515
sg42
g21
sg43
g21
sg44
I103
sg45
Vgenetic
p1078
sg47
I103
sg48
I522
sbag0
(g23
g2
Ntp1079
Rp1080
(dp1081
g27
(dp1082
g29
Vengineering
p1083
sg31
VO
p1084
sg33
VNN
p1085
sg35
I6
ssg10
I104
sg36
g4
sg37
(dp1086
sg39
(dp1087
sg41
I523
sg42
g21
sg43
g21
sg44
I104
sg45
Vengineering
p1088
sg47
I104
sg48
I534
sbag0
(g23
g2
Ntp1089
Rp1090
(dp1091
g27
(dp1092
g29
Vcould
p1093
sg31
VO
p1094
sg33
VMD
p1095
sg35
I7
ssg10
I105
sg36
g4
sg37
(dp1096
sg39
(dp1097
sg41
I535
sg42
g21
sg43
g21
sg44
I105
sg45
Vcould
p1098
sg47
I105
sg48
I540
sbag0
(g23
g2
Ntp1099
Rp1100
(dp1101
g27
(dp1102
g29
Vbe
p1103
sg31
VO
p1104
sg33
VVB
p1105
sg35
I8
ssg10
I106
sg36
g4
sg37
(dp1106
sg39
(dp1107
sg41
I541
sg42
g21
sg43
g21
sg44
I106
sg45
Vbe
p1108
sg47
I106
sg48
I543
sbag0
(g23
g2
Ntp1109
Rp1110
(dp1111
g27
(dp1112
g29
Vuse
p1113
sg31
VO
p1114
sg33
VVBN
p1115
sg35
I9
ssg10
I107
sg36
g4
sg37
(dp1116
sg39
(dp1117
sg41
I544
sg42
g21
sg43
g21
sg44
I107
sg45
Vused
p1118
sg47
I107
sg48
I548
sbag0
(g23
g2
Ntp1119
Rp1120
(dp1121
g27
(dp1122
g29
Vto
p1123
sg31
VO
p1124
sg33
VTO
p1125
sg35
I10
ssg10
I108
sg36
g4
sg37
(dp1126
sg39
(dp1127
sg41
I549
sg42
g21
sg43
g21
sg44
I108
sg45
Vto
p1128
sg47
I108
sg48
I551
sbag0
(g23
g2
Ntp1129
Rp1130
(dp1131
g27
(dp1132
g29
Vchange
p1133
sg31
VO
p1134
sg33
VVB
p1135
sg35
I11
ssg10
I109
sg36
g4
sg37
(dp1136
sg39
(dp1137
sg41
I552
sg42
g21
sg43
g21
sg44
I109
sg45
Vchange
p1138
sg47
I109
sg48
I558
sbag0
(g23
g2
Ntp1139
Rp1140
(dp1141
g27
(dp1142
g29
Vphysical
p1143
sg31
VO
p1144
sg33
VJJ
p1145
sg35
I12
ssg10
I110
sg36
g4
sg37
(dp1146
sg39
(dp1147
sg41
I559
sg42
g21
sg43
g21
sg44
I110
sg45
Vphysical
p1148
sg47
I110
sg48
I567
sbag0
(g23
g2
Ntp1149
Rp1150
(dp1151
g27
(dp1152
g29
Vappearance
p1153
sg31
VO
p1154
sg33
VNN
p1155
sg35
I13
ssg10
I111
sg36
g4
sg37
(dp1156
sg39
(dp1157
sg41
I568
sg42
g21
sg43
g21
sg44
I111
sg45
Vappearance
p1158
sg47
I111
sg48
I578
sbag0
(g23
g2
Ntp1159
Rp1160
(dp1161
g27
(dp1162
g29
V,
p1163
sg31
VO
p1164
sg33
V,
p1165
sg35
I14
ssg10
I112
sg36
g4
sg37
(dp1166
sg39
(dp1167
sg41
I578
sg42
g21
sg43
g21
sg44
I112
sg45
V,
p1168
sg47
I112
sg48
I579
sbag0
(g23
g2
Ntp1169
Rp1170
(dp1171
g27
(dp1172
g29
Vmetabolism
p1173
sg31
VO
p1174
sg33
VNN
p1175
sg35
I15
ssg10
I113
sg36
g4
sg37
(dp1176
sg39
(dp1177
sg41
I580
sg42
g21
sg43
g21
sg44
I113
sg45
Vmetabolism
p1178
sg47
I113
sg48
I590
sbag0
(g23
g2
Ntp1179
Rp1180
(dp1181
g27
(dp1182
g29
V,
p1183
sg31
VO
p1184
sg33
V,
p1185
sg35
I16
ssg10
I114
sg36
g4
sg37
(dp1186
sg39
(dp1187
sg41
I590
sg42
g21
sg43
g21
sg44
I114
sg45
V,
p1188
sg47
I114
sg48
I591
sbag0
(g23
g2
Ntp1189
Rp1190
(dp1191
g27
(dp1192
g29
Vand
p1193
sg31
VO
p1194
sg33
VCC
p1195
sg35
I17
ssg10
I115
sg36
g4
sg37
(dp1196
sg39
(dp1197
sg41
I592
sg42
g21
sg43
g21
sg44
I115
sg45
Vand
p1198
sg47
I115
sg48
I595
sbag0
(g23
g2
Ntp1199
Rp1200
(dp1201
g27
(dp1202
g29
Veven
p1203
sg31
VO
p1204
sg33
VRB
p1205
sg35
I18
ssg10
I116
sg36
g4
sg37
(dp1206
sg39
(dp1207
sg41
I596
sg42
g21
sg43
g21
sg44
I116
sg45
Veven
p1208
sg47
I116
sg48
I600
sbag0
(g23
g2
Ntp1209
Rp1210
(dp1211
g27
(dp1212
g29
Vimprove
p1213
sg31
VO
p1214
sg33
VVB
p1215
sg35
I19
ssg10
I117
sg36
g4
sg37
(dp1216
sg39
(dp1217
sg41
I601
sg42
g21
sg43
g21
sg44
I117
sg45
Vimprove
p1218
sg47
I117
sg48
I608
sbag0
(g23
g2
Ntp1219
Rp1220
(dp1221
g27
(dp1222
g29
Vmental
p1223
sg31
VO
p1224
sg33
VJJ
p1225
sg35
I20
ssg10
I118
sg36
g4
sg37
(dp1226
sg39
(dp1227
sg41
I609
sg42
g21
sg43
g21
sg44
I118
sg45
Vmental
p1228
sg47
I118
sg48
I615
sbag0
(g23
g2
Ntp1229
Rp1230
(dp1231
g27
(dp1232
g29
Vfaculty
p1233
sg31
VO
p1234
sg33
VNNS
p1235
sg35
I21
ssg10
I119
sg36
g4
sg37
(dp1236
sg39
(dp1237
sg41
I616
sg42
g21
sg43
g21
sg44
I119
sg45
Vfaculties
p1238
sg47
I119
sg48
I625
sbag0
(g23
g2
Ntp1239
Rp1240
(dp1241
g27
(dp1242
g29
Vlike
p1243
sg31
VO
p1244
sg33
VIN
p1245
sg35
I22
ssg10
I120
sg36
g4
sg37
(dp1246
sg39
(dp1247
sg41
I626
sg42
g21
sg43
g21
sg44
I120
sg45
Vlike
p1248
sg47
I120
sg48
I630
sbag0
(g23
g2
Ntp1249
Rp1250
(dp1251
g27
(dp1252
g29
Vmemory
p1253
sg31
VO
p1254
sg33
VNN
p1255
sg35
I23
ssg10
I121
sg36
g4
sg37
(dp1256
sg39
(dp1257
sg41
I631
sg42
g21
sg43
g21
sg44
I121
sg45
Vmemory
p1258
sg47
I121
sg48
I637
sbag0
(g23
g2
Ntp1259
Rp1260
(dp1261
g27
(dp1262
g29
Vand
p1263
sg31
VO
p1264
sg33
VCC
p1265
sg35
I24
ssg10
I122
sg36
g4
sg37
(dp1266
sg39
(dp1267
sg41
I638
sg42
g21
sg43
g21
sg44
I122
sg45
Vand
p1268
sg47
I122
sg48
I641
sbag0
(g23
g2
Ntp1269
Rp1270
(dp1271
g27
(dp1272
g29
Vintelligence
p1273
sg31
VO
p1274
sg33
VNN
p1275
sg35
I25
ssg10
I123
sg36
g4
sg37
(dp1276
sg39
(dp1277
sg41
I642
sg42
g21
sg43
g21
sg44
I123
sg45
Vintelligence
p1278
sg47
I123
sg48
I654
sbag0
(g23
g2
Ntp1279
Rp1280
(dp1281
g27
(dp1282
g29
V,
p1283
sg31
VO
p1284
sg33
V,
p1285
sg35
I26
ssg10
I124
sg36
g4
sg37
(dp1286
sg39
(dp1287
sg41
I654
sg42
g21
sg43
g21
sg44
I124
sg45
V,
p1288
sg47
I124
sg48
I655
sbag0
(g23
g2
Ntp1289
Rp1290
(dp1291
g27
(dp1292
g29
Valthough
p1293
sg31
VO
p1294
sg33
VIN
p1295
sg35
I27
ssg10
I125
sg36
g4
sg37
(dp1296
sg39
(dp1297
sg41
I656
sg42
g21
sg43
g21
sg44
I125
sg45
Valthough
p1298
sg47
I125
sg48
I664
sbag0
(g23
g2
Ntp1299
Rp1300
(dp1301
g27
(dp1302
g29
Vfor
p1303
sg31
VO
p1304
sg33
VIN
p1305
sg35
I28
ssg10
I126
sg36
g4
sg37
(dp1306
sg39
(dp1307
sg41
I665
sg42
g21
sg43
g21
sg44
I126
sg45
Vfor
p1308
sg47
I126
sg48
I668
sbag0
(g23
g2
Ntp1309
Rp1310
(dp1311
g27
(dp1312
g29
Vnow
p1313
sg31
VDATE
p1314
sg33
VRB
p1315
sg35
I29
ssg10
I127
sg36
g4
sg37
(dp1316
sg39
(dp1317
sg41
I669
sg42
g21
sg43
g21
sg44
I127
sg45
Vnow
p1318
sg47
I127
sg48
I672
sbag0
(g23
g2
Ntp1319
Rp1320
(dp1321
g27
(dp1322
g29
Vthese
p1323
sg31
VO
p1324
sg33
VDT
p1325
sg35
I30
ssg10
I128
sg36
g4
sg37
(dp1326
sg39
(dp1327
sg41
I673
sg42
g21
sg43
g21
sg44
I128
sg45
Vthese
p1328
sg47
I128
sg48
I678
sbag0
(g23
g2
Ntp1329
Rp1330
(dp1331
g27
(dp1332
g29
Vuse
p1333
sg31
VO
p1334
sg33
VNNS
p1335
sg35
I31
ssg10
I129
sg36
g4
sg37
(dp1336
sg39
(dp1337
sg41
I679
sg42
g21
sg43
g21
sg44
I129
sg45
Vuses
p1338
sg47
I129
sg48
I683
sbag0
(g23
g2
Ntp1339
Rp1340
(dp1341
g27
(dp1342
g29
Vseem
p1343
sg31
VO
p1344
sg33
VVBP
p1345
sg35
I32
ssg10
I130
sg36
g4
sg37
(dp1346
sg39
(dp1347
sg41
I684
sg42
g21
sg43
g21
sg44
I130
sg45
Vseem
p1348
sg47
I130
sg48
I688
sbag0
(g23
g2
Ntp1349
Rp1350
(dp1351
g27
(dp1352
g29
Vto
p1353
sg31
VO
p1354
sg33
VTO
p1355
sg35
I33
ssg10
I131
sg36
g4
sg37
(dp1356
sg39
(dp1357
sg41
I689
sg42
g21
sg43
g21
sg44
I131
sg45
Vto
p1358
sg47
I131
sg48
I691
sbag0
(g23
g2
Ntp1359
Rp1360
(dp1361
g27
(dp1362
g29
Vbe
p1363
sg31
VO
p1364
sg33
VVB
p1365
sg35
I34
ssg10
I132
sg36
g4
sg37
(dp1366
sg39
(dp1367
sg41
I692
sg42
g21
sg43
g21
sg44
I132
sg45
Vbe
p1368
sg47
I132
sg48
I694
sbag0
(g23
g2
Ntp1369
Rp1370
(dp1371
g27
(dp1372
g29
Vof
p1373
sg31
VO
p1374
sg33
VIN
p1375
sg35
I35
ssg10
I133
sg36
g4
sg37
(dp1376
sg39
(dp1377
sg41
I695
sg42
g21
sg43
g21
sg44
I133
sg45
Vof
p1378
sg47
I133
sg48
I697
sbag0
(g23
g2
Ntp1379
Rp1380
(dp1381
g27
(dp1382
g29
Vlower
p1383
sg31
VO
p1384
sg33
VJJR
p1385
sg35
I36
ssg10
I134
sg36
g4
sg37
(dp1386
sg39
(dp1387
sg41
I698
sg42
g21
sg43
g21
sg44
I134
sg45
Vlower
p1388
sg47
I134
sg48
I703
sbag0
(g23
g2
Ntp1389
Rp1390
(dp1391
g27
(dp1392
g29
Vpriority
p1393
sg31
VO
p1394
sg33
VNN
p1395
sg35
I37
ssg10
I135
sg36
g4
sg37
(dp1396
sg39
(dp1397
sg41
I704
sg42
g21
sg43
g21
sg44
I135
sg45
Vpriority
p1398
sg47
I135
sg48
I712
sbag0
(g23
g2
Ntp1399
Rp1400
(dp1401
g27
(dp1402
g29
Vto
p1403
sg31
VO
p1404
sg33
VTO
p1405
sg35
I38
ssg10
I136
sg36
g4
sg37
(dp1406
sg39
(dp1407
sg41
I713
sg42
g21
sg43
g21
sg44
I136
sg45
Vto
p1408
sg47
I136
sg48
I715
sbag0
(g23
g2
Ntp1409
Rp1410
(dp1411
g27
(dp1412
g29
Vresearcher
p1413
sg31
VO
p1414
sg33
VNNS
p1415
sg35
I39
ssg10
I137
sg36
g4
sg37
(dp1416
sg39
(dp1417
sg41
I716
sg42
g21
sg43
g21
sg44
I137
sg45
Vresearchers
p1418
sg47
I137
sg48
I727
sbag0
(g23
g2
Ntp1419
Rp1420
(dp1421
g27
(dp1422
g29
Vand
p1423
sg31
VO
p1424
sg33
VCC
p1425
sg35
I40
ssg10
I138
sg36
g4
sg37
(dp1426
sg39
(dp1427
sg41
I728
sg42
g21
sg43
g21
sg44
I138
sg45
Vand
p1428
sg47
I138
sg48
I731
sbag0
(g23
g2
Ntp1429
Rp1430
(dp1431
g27
(dp1432
g29
Vbe
p1433
sg31
VO
p1434
sg33
VVBP
p1435
sg35
I41
ssg10
I139
sg36
g4
sg37
(dp1436
sg39
(dp1437
sg41
I732
sg42
g21
sg43
g21
sg44
I139
sg45
Vare
p1438
sg47
I139
sg48
I735
sbag0
(g23
g2
Ntp1439
Rp1440
(dp1441
g27
(dp1442
g29
Vtherefore
p1443
sg31
VO
p1444
sg33
VRB
p1445
sg35
I42
ssg10
I140
sg36
g4
sg37
(dp1446
sg39
(dp1447
sg41
I736
sg42
g21
sg43
g21
sg44
I140
sg45
Vtherefore
p1448
sg47
I140
sg48
I745
sbag0
(g23
g2
Ntp1449
Rp1450
(dp1451
g27
(dp1452
g29
Vlimit
p1453
sg31
VO
p1454
sg33
VVBN
p1455
sg35
I43
ssg10
I141
sg36
g4
sg37
(dp1456
sg39
(dp1457
sg41
I746
sg42
g21
sg43
g21
sg44
I141
sg45
Vlimited
p1458
sg47
I141
sg48
I753
sbag0
(g23
g2
Ntp1459
Rp1460
(dp1461
g27
(dp1462
g29
Vto
p1463
sg31
VO
p1464
sg33
VTO
p1465
sg35
I44
ssg10
I142
sg36
g4
sg37
(dp1466
sg39
(dp1467
sg41
I754
sg42
g21
sg43
g21
sg44
I142
sg45
Vto
p1468
sg47
I142
sg48
I756
sbag0
(g23
g2
Ntp1469
Rp1470
(dp1471
g27
(dp1472
g29
Vscience
p1473
sg31
VO
p1474
sg33
VNN
p1475
sg35
I45
ssg10
I143
sg36
g4
sg37
(dp1476
sg39
(dp1477
sg41
I757
sg42
g21
sg43
g21
sg44
I143
sg45
Vscience
p1478
sg47
I143
sg48
I764
sbag0
(g23
g2
Ntp1479
Rp1480
(dp1481
g27
(dp1482
g29
Vfiction
p1483
sg31
VO
p1484
sg33
VNN
p1485
sg35
I46
ssg10
I144
sg36
g4
sg37
(dp1486
sg39
(dp1487
sg41
I765
sg42
g21
sg43
g21
sg44
I144
sg45
Vfiction
p1488
sg47
I144
sg48
I772
sbag0
(g23
g2
Ntp1489
Rp1490
(dp1491
g27
(dp1492
g29
V.
p1493
sg31
VO
p1494
sg33
V.
p1495
sg35
I47
ssg10
I145
sg36
g4
sg37
(dp1496
sg39
(dp1497
sg41
I772
sg42
g21
sg43
g21
sg44
I145
sg45
V.
p1498
sg47
I145
sg48
I773
sbag0
(g23
g2
Ntp1499
Rp1500
(dp1501
g27
(dp1502
g29
Vgene
p1503
sg31
VO
p1504
sg33
VNN
p1505
sg35
I1
ssg10
I146
sg36
g4
sg37
(dp1506
sg39
(dp1507
sg41
I775
sg42
g21
sg43
g21
sg44
I146
sg45
VGene
p1508
sg47
I146
sg48
I779
sbag0
(g23
g2
Ntp1509
Rp1510
(dp1511
g27
(dp1512
g29
Vtherapy
p1513
sg31
VO
p1514
sg33
VNN
p1515
sg35
I2
ssg10
I147
sg36
g4
sg37
(dp1516
sg39
(dp1517
sg41
I780
sg42
g21
sg43
g21
sg44
I147
sg45
Vtherapy
p1518
sg47
I147
sg48
I787
sbag0
(g23
g2
Ntp1519
Rp1520
(dp1521
g27
(dp1522
g29
Vtrial
p1523
sg31
VO
p1524
sg33
VNNS
p1525
sg35
I3
ssg10
I148
sg36
g4
sg37
(dp1526
sg39
(dp1527
sg41
I788
sg42
g21
sg43
g21
sg44
I148
sg45
Vtrials
p1528
sg47
I148
sg48
I794
sbag0
(g23
g2
Ntp1529
Rp1530
(dp1531
g27
(dp1532
g29
Von
p1533
sg31
VO
p1534
sg33
VIN
p1535
sg35
I4
ssg10
I149
sg36
g4
sg37
(dp1536
sg39
(dp1537
sg41
I795
sg42
g21
sg43
g21
sg44
I149
sg45
Von
p1538
sg47
I149
sg48
I797
sbag0
(g23
g2
Ntp1539
Rp1540
(dp1541
g27
(dp1542
g29
Vhuman
p1543
sg31
VO
p1544
sg33
VNNS
p1545
sg35
I5
ssg10
I150
sg36
g4
sg37
(dp1546
sg39
(dp1547
sg41
I798
sg42
g21
sg43
g21
sg44
I150
sg45
Vhumans
p1548
sg47
I150
sg48
I804
sbag0
(g23
g2
Ntp1549
Rp1550
(dp1551
g27
(dp1552
g29
Vbegin
p1553
sg31
VO
p1554
sg33
VVBD
p1555
sg35
I6
ssg10
I151
sg36
g4
sg37
(dp1556
sg39
(dp1557
sg41
I805
sg42
g21
sg43
g21
sg44
I151
sg45
Vbegan
p1558
sg47
I151
sg48
I810
sbag0
(g23
g2
Ntp1559
Rp1560
(dp1561
g27
(dp1562
g29
Vin
p1563
sg31
VO
p1564
sg33
VIN
p1565
sg35
I7
ssg10
I152
sg36
g4
sg37
(dp1566
sg39
(dp1567
sg41
I811
sg42
g21
sg43
g21
sg44
I152
sg45
Vin
p1568
sg47
I152
sg48
I813
sbag0
(g23
g2
Ntp1569
Rp1570
(dp1571
g27
(dp1572
g29
V2004
p1573
sg31
VDATE
p1574
sg33
VCD
p1575
sg35
I8
ssg10
I153
sg36
g4
sg37
(dp1576
sg39
(dp1577
sg41
I814
sg42
g21
sg43
g21
sg44
I153
sg45
V2004
p1578
sg47
I153
sg48
I818
sbag0
(g23
g2
Ntp1579
Rp1580
(dp1581
g27
(dp1582
g29
Von
p1583
sg31
VO
p1584
sg33
VIN
p1585
sg35
I9
ssg10
I154
sg36
g4
sg37
(dp1586
sg39
(dp1587
sg41
I819
sg42
g21
sg43
g21
sg44
I154
sg45
Von
p1588
sg47
I154
sg48
I821
sbag0
(g23
g2
Ntp1589
Rp1590
(dp1591
g27
(dp1592
g29
Vpatient
p1593
sg31
VO
p1594
sg33
VNNS
p1595
sg35
I10
ssg10
I155
sg36
g4
sg37
(dp1596
sg39
(dp1597
sg41
I822
sg42
g21
sg43
g21
sg44
I155
sg45
Vpatients
p1598
sg47
I155
sg48
I830
sbag0
(g23
g2
Ntp1599
Rp1600
(dp1601
g27
(dp1602
g29
Vwith
p1603
sg31
VO
p1604
sg33
VIN
p1605
sg35
I11
ssg10
I156
sg36
g4
sg37
(dp1606
sg39
(dp1607
sg41
I831
sg42
g21
sg43
g21
sg44
I156
sg45
Vwith
p1608
sg47
I156
sg48
I835
sbag0
(g23
g2
Ntp1609
Rp1610
(dp1611
g27
(dp1612
g29
Vsevere
p1613
sg31
VO
p1614
sg33
VJJ
p1615
sg35
I12
ssg10
I157
sg36
g4
sg37
(dp1616
sg39
(dp1617
sg41
I836
sg42
g21
sg43
g21
sg44
I157
sg45
VSevere
p1618
sg47
I157
sg48
I842
sbag0
(g23
g2
Ntp1619
Rp1620
(dp1621
g27
(dp1622
g29
Vcombined
p1623
sg31
VO
p1624
sg33
VJJ
p1625
sg35
I13
ssg10
I158
sg36
g4
sg37
(dp1626
sg39
(dp1627
sg41
I843
sg42
g21
sg43
g21
sg44
I158
sg45
VCombined
p1628
sg47
I158
sg48
I851
sbag0
(g23
g2
Ntp1629
Rp1630
(dp1631
g27
(dp1632
g29
Vimmunodeficiency
p1633
sg31
VO
p1634
sg33
VNN
p1635
sg35
I14
ssg10
I159
sg36
g4
sg37
(dp1636
sg39
(dp1637
sg41
I852
sg42
g21
sg43
g21
sg44
I159
sg45
VImmunodeficiency
p1638
sg47
I159
sg48
I868
sbag0
(g23
g2
Ntp1639
Rp1640
(dp1641
g27
(dp1642
g29
V-lrb-
p1643
sg31
VO
p1644
sg33
V-LRB-
p1645
sg35
I15
ssg10
I160
sg36
g4
sg37
(dp1646
sg39
(dp1647
sg41
I869
sg42
g21
sg43
g21
sg44
I160
sg45
V(
p1648
sg47
I160
sg48
I870
sbag0
(g23
g2
Ntp1649
Rp1650
(dp1651
g27
(dp1652
g29
Vscid
p1653
sg31
VO
p1654
sg33
VNN
p1655
sg35
I16
ssg10
I161
sg36
g4
sg37
(dp1656
sg39
(dp1657
sg41
I870
sg42
g21
sg43
g21
sg44
I161
sg45
VSCID
p1658
sg47
I161
sg48
I874
sbag0
(g23
g2
Ntp1659
Rp1660
(dp1661
g27
(dp1662
g29
V-rrb-
p1663
sg31
VO
p1664
sg33
V-RRB-
p1665
sg35
I17
ssg10
I162
sg36
g4
sg37
(dp1666
sg39
(dp1667
sg41
I874
sg42
g21
sg43
g21
sg44
I162
sg45
V)
p1668
sg47
I162
sg48
I875
sbag0
(g23
g2
Ntp1669
Rp1670
(dp1671
g27
(dp1672
g29
V.
p1673
sg31
VO
p1674
sg33
V.
p1675
sg35
I18
ssg10
I163
sg36
g4
sg37
(dp1676
sg39
(dp1677
sg41
I875
sg42
g21
sg43
g21
sg44
I163
sg45
V.
p1678
sg47
I163
sg48
I876
sbag0
(g23
g2
Ntp1679
Rp1680
(dp1681
g27
(dp1682
g29
Vin
p1683
sg31
VO
p1684
sg33
VIN
p1685
sg35
I1
ssg10
I164
sg36
g4
sg37
(dp1686
sg39
(dp1687
sg41
I877
sg42
g21
sg43
g21
sg44
I164
sg45
VIn
p1688
sg47
I164
sg48
I879
sbag0
(g23
g2
Ntp1689
Rp1690
(dp1691
g27
(dp1692
g29
V2000
p1693
sg31
VDATE
p1694
sg33
VCD
p1695
sg35
I2
ssg10
I165
sg36
g4
sg37
(dp1696
sg39
(dp1697
sg41
I880
sg42
g21
sg43
g21
sg44
I165
sg45
V2000
p1698
sg47
I165
sg48
I884
sbag0
(g23
g2
Ntp1699
Rp1700
(dp1701
g27
(dp1702
g29
V,
p1703
sg31
VO
p1704
sg33
V,
p1705
sg35
I3
ssg10
I166
sg36
g4
sg37
(dp1706
sg39
(dp1707
sg41
I884
sg42
g21
sg43
g21
sg44
I166
sg45
V,
p1708
sg47
I166
sg48
I885
sbag0
(g23
g2
Ntp1709
Rp1710
(dp1711
g27
(dp1712
g29
Vthe
p1713
sg31
VO
p1714
sg33
VDT
p1715
sg35
I4
ssg10
I167
sg36
g4
sg37
(dp1716
sg39
(dp1717
sg41
I886
sg42
g21
sg43
g21
sg44
I167
sg45
Vthe
p1718
sg47
I167
sg48
I889
sbag0
(g23
g2
Ntp1719
Rp1720
(dp1721
g27
(dp1722
g29
Vfirst
p1723
sg31
VORDINAL
p1724
sg33
VJJ
p1725
sg35
I5
ssg10
I168
sg36
g4
sg37
(dp1726
sg39
(dp1727
sg41
I890
sg42
g21
sg43
g21
sg44
I168
sg45
Vfirst
p1728
sg47
I168
sg48
I895
sbag0
(g23
g2
Ntp1729
Rp1730
(dp1731
g27
(dp1732
g29
Vgene
p1733
sg31
VO
p1734
sg33
VNN
p1735
sg35
I6
ssg10
I169
sg36
g4
sg37
(dp1736
sg39
(dp1737
sg41
I896
sg42
g21
sg43
g21
sg44
I169
sg45
Vgene
p1738
sg47
I169
sg48
I900
sbag0
(g23
g2
Ntp1739
Rp1740
(dp1741
g27
(dp1742
g29
Vtherapy
p1743
sg31
VO
p1744
sg33
VNN
p1745
sg35
I7
ssg10
I170
sg36
g4
sg37
(dp1746
sg39
(dp1747
sg41
I901
sg42
g21
sg43
g21
sg44
I170
sg45
Vtherapy
p1748
sg47
I170
sg48
I908
sbag0
(g23
g2
Ntp1749
Rp1750
(dp1751
g27
(dp1752
g29
V``
p1753
sg31
VO
p1754
sg33
V``
p1755
sg35
I8
ssg10
I171
sg36
g4
sg37
(dp1756
sg39
(dp1757
sg41
I909
sg42
g21
sg43
g21
sg44
I171
sg45
V"
p1758
sg47
I171
sg48
I910
sbag0
(g23
g2
Ntp1759
Rp1760
(dp1761
g27
(dp1762
g29
Vsuccess
p1763
sg31
VO
p1764
sg33
VNN
p1765
sg35
I9
ssg10
I172
sg36
g4
sg37
(dp1766
sg39
(dp1767
sg41
I910
sg42
g21
sg43
g21
sg44
I172
sg45
Vsuccess
p1768
sg47
I172
sg48
I917
sbag0
(g23
g2
Ntp1769
Rp1770
(dp1771
g27
(dp1772
g29
V''
p1773
sg31
VO
p1774
sg33
V''
p1775
sg35
I10
ssg10
I173
sg36
g4
sg37
(dp1776
sg39
(dp1777
sg41
I917
sg42
g21
sg43
g21
sg44
I173
sg45
g1758
sg47
I173
sg48
I918
sbag0
(g23
g2
Ntp1778
Rp1779
(dp1780
g27
(dp1781
g29
Vresult
p1782
sg31
VO
p1783
sg33
VVBD
p1784
sg35
I11
ssg10
I174
sg36
g4
sg37
(dp1785
sg39
(dp1786
sg41
I919
sg42
g21
sg43
g21
sg44
I174
sg45
Vresulted
p1787
sg47
I174
sg48
I927
sbag0
(g23
g2
Ntp1788
Rp1789
(dp1790
g27
(dp1791
g29
Vin
p1792
sg31
VO
p1793
sg33
VIN
p1794
sg35
I12
ssg10
I175
sg36
g4
sg37
(dp1795
sg39
(dp1796
sg41
I928
sg42
g21
sg43
g21
sg44
I175
sg45
Vin
p1797
sg47
I175
sg48
I930
sbag0
(g23
g2
Ntp1798
Rp1799
(dp1800
g27
(dp1801
g29
Vscid
p1802
sg31
VO
p1803
sg33
VNN
p1804
sg35
I13
ssg10
I176
sg36
g4
sg37
(dp1805
sg39
(dp1806
sg41
I931
sg42
g21
sg43
g21
sg44
I176
sg45
VSCID
p1807
sg47
I176
sg48
I935
sbag0
(g23
g2
Ntp1808
Rp1809
(dp1810
g27
(dp1811
g29
Vpatient
p1812
sg31
VO
p1813
sg33
VNNS
p1814
sg35
I14
ssg10
I177
sg36
g4
sg37
(dp1815
sg39
(dp1816
sg41
I936
sg42
g21
sg43
g21
sg44
I177
sg45
Vpatients
p1817
sg47
I177
sg48
I944
sbag0
(g23
g2
Ntp1818
Rp1819
(dp1820
g27
(dp1821
g29
Vwith
p1822
sg31
VO
p1823
sg33
VIN
p1824
sg35
I15
ssg10
I178
sg36
g4
sg37
(dp1825
sg39
(dp1826
sg41
I945
sg42
g21
sg43
g21
sg44
I178
sg45
Vwith
p1827
sg47
I178
sg48
I949
sbag0
(g23
g2
Ntp1828
Rp1829
(dp1830
g27
(dp1831
g29
Va
p1832
sg31
VO
p1833
sg33
VDT
p1834
sg35
I16
ssg10
I179
sg36
g4
sg37
(dp1835
sg39
(dp1836
sg41
I950
sg42
g21
sg43
g21
sg44
I179
sg45
Va
p1837
sg47
I179
sg48
I951
sbag0
(g23
g2
Ntp1838
Rp1839
(dp1840
g27
(dp1841
g29
Vfunctional
p1842
sg31
VO
p1843
sg33
VJJ
p1844
sg35
I17
ssg10
I180
sg36
g4
sg37
(dp1845
sg39
(dp1846
sg41
I952
sg42
g21
sg43
g21
sg44
I180
sg45
Vfunctional
p1847
sg47
I180
sg48
I962
sbag0
(g23
g2
Ntp1848
Rp1849
(dp1850
g27
(dp1851
g29
Vimmune
p1852
sg31
VO
p1853
sg33
VJJ
p1854
sg35
I18
ssg10
I181
sg36
g4
sg37
(dp1855
sg39
(dp1856
sg41
I963
sg42
g21
sg43
g21
sg44
I181
sg45
Vimmune
p1857
sg47
I181
sg48
I969
sbag0
(g23
g2
Ntp1858
Rp1859
(dp1860
g27
(dp1861
g29
Vsystem
p1862
sg31
VO
p1863
sg33
VNN
p1864
sg35
I19
ssg10
I182
sg36
g4
sg37
(dp1865
sg39
(dp1866
sg41
I970
sg42
g21
sg43
g21
sg44
I182
sg45
Vsystem
p1867
sg47
I182
sg48
I976
sbag0
(g23
g2
Ntp1868
Rp1869
(dp1870
g27
(dp1871
g29
V.
p1872
sg31
VO
p1873
sg33
V.
p1874
sg35
I20
ssg10
I183
sg36
g4
sg37
(dp1875
sg39
(dp1876
sg41
I976
sg42
g21
sg43
g21
sg44
I183
sg45
V.
p1877
sg47
I183
sg48
I977
sbag0
(g23
g2
Ntp1878
Rp1879
(dp1880
g27
(dp1881
g29
Vthese
p1882
sg31
VO
p1883
sg33
VDT
p1884
sg35
I1
ssg10
I184
sg36
g4
sg37
(dp1885
sg39
(dp1886
sg41
I978
sg42
g21
sg43
g21
sg44
I184
sg45
VThese
p1887
sg47
I184
sg48
I983
sbag0
(g23
g2
Ntp1888
Rp1889
(dp1890
g27
(dp1891
g29
Vtrial
p1892
sg31
VO
p1893
sg33
VNNS
p1894
sg35
I2
ssg10
I185
sg36
g4
sg37
(dp1895
sg39
(dp1896
sg41
I984
sg42
g21
sg43
g21
sg44
I185
sg45
Vtrials
p1897
sg47
I185
sg48
I990
sbag0
(g23
g2
Ntp1898
Rp1899
(dp1900
g27
(dp1901
g29
Vbe
p1902
sg31
VO
p1903
sg33
VVBD
p1904
sg35
I3
ssg10
I186
sg36
g4
sg37
(dp1905
sg39
(dp1906
sg41
I991
sg42
g21
sg43
g21
sg44
I186
sg45
Vwere
p1907
sg47
I186
sg48
I995
sbag0
(g23
g2
Ntp1908
Rp1909
(dp1910
g27
(dp1911
g29
Vstop
p1912
sg31
VO
p1913
sg33
VVBN
p1914
sg35
I4
ssg10
I187
sg36
g4
sg37
(dp1915
sg39
(dp1916
sg41
I996
sg42
g21
sg43
g21
sg44
I187
sg45
Vstopped
p1917
sg47
I187
sg48
I1003
sbag0
(g23
g2
Ntp1918
Rp1919
(dp1920
g27
(dp1921
g29
Vwhen
p1922
sg31
VO
p1923
sg33
VWRB
p1924
sg35
I5
ssg10
I188
sg36
g4
sg37
(dp1925
sg39
(dp1926
sg41
I1004
sg42
g21
sg43
g21
sg44
I188
sg45
Vwhen
p1927
sg47
I188
sg48
I1008
sbag0
(g23
g2
Ntp1928
Rp1929
(dp1930
g27
(dp1931
g29
Vit
p1932
sg31
VO
p1933
sg33
VPRP
p1934
sg35
I6
ssg10
I189
sg36
g4
sg37
(dp1935
sg39
(dp1936
sg41
I1009
sg42
g21
sg43
g21
sg44
I189
sg45
Vit
p1937
sg47
I189
sg48
I1011
sbag0
(g23
g2
Ntp1938
Rp1939
(dp1940
g27
(dp1941
g29
Vbe
p1942
sg31
VO
p1943
sg33
VVBD
p1944
sg35
I7
ssg10
I190
sg36
g4
sg37
(dp1945
sg39
(dp1946
sg41
I1012
sg42
g21
sg43
g21
sg44
I190
sg45
Vwas
p1947
sg47
I190
sg48
I1015
sbag0
(g23
g2
Ntp1948
Rp1949
(dp1950
g27
(dp1951
g29
Vdiscover
p1952
sg31
VO
p1953
sg33
VVBN
p1954
sg35
I8
ssg10
I191
sg36
g4
sg37
(dp1955
sg39
(dp1956
sg41
I1016
sg42
g21
sg43
g21
sg44
I191
sg45
Vdiscovered
p1957
sg47
I191
sg48
I1026
sbag0
(g23
g2
Ntp1958
Rp1959
(dp1960
g27
(dp1961
g29
Vthat
p1962
sg31
VO
p1963
sg33
VIN
p1964
sg35
I9
ssg10
I192
sg36
g4
sg37
(dp1965
sg39
(dp1966
sg41
I1027
sg42
g21
sg43
g21
sg44
I192
sg45
Vthat
p1967
sg47
I192
sg48
I1031
sbag0
(g23
g2
Ntp1968
Rp1969
(dp1970
g27
(dp1971
g29
Vtwo
p1972
sg31
VNUMBER
p1973
sg33
VCD
p1974
sg35
I10
ssg10
I193
sg36
g4
sg37
(dp1975
sg39
(dp1976
sg41
I1032
sg42
g21
sg43
g21
sg44
I193
sg45
Vtwo
p1977
sg47
I193
sg48
I1035
sbag0
(g23
g2
Ntp1978
Rp1979
(dp1980
g27
(dp1981
g29
Vof
p1982
sg31
VO
p1983
sg33
VIN
p1984
sg35
I11
ssg10
I194
sg36
g4
sg37
(dp1985
sg39
(dp1986
sg41
I1036
sg42
g21
sg43
g21
sg44
I194
sg45
Vof
p1987
sg47
I194
sg48
I1038
sbag0
(g23
g2
Ntp1988
Rp1989
(dp1990
g27
(dp1991
g29
Vten
p1992
sg31
VNUMBER
p1993
sg33
VCD
p1994
sg35
I12
ssg10
I195
sg36
g4
sg37
(dp1995
sg39
(dp1996
sg41
I1039
sg42
g21
sg43
g21
sg44
I195
sg45
Vten
p1997
sg47
I195
sg48
I1042
sbag0
(g23
g2
Ntp1998
Rp1999
(dp2000
g27
(dp2001
g29
Vpatient
p2002
sg31
VO
p2003
sg33
VNNS
p2004
sg35
I13
ssg10
I196
sg36
g4
sg37
(dp2005
sg39
(dp2006
sg41
I1043
sg42
g21
sg43
g21
sg44
I196
sg45
Vpatients
p2007
sg47
I196
sg48
I1051
sbag0
(g23
g2
Ntp2008
Rp2009
(dp2010
g27
(dp2011
g29
Vin
p2012
sg31
VO
p2013
sg33
VIN
p2014
sg35
I14
ssg10
I197
sg36
g4
sg37
(dp2015
sg39
(dp2016
sg41
I1052
sg42
g21
sg43
g21
sg44
I197
sg45
Vin
p2017
sg47
I197
sg48
I1054
sbag0
(g23
g2
Ntp2018
Rp2019
(dp2020
g27
(dp2021
g29
Vone
p2022
sg31
VNUMBER
p2023
sg33
VCD
p2024
sg35
I15
ssg10
I198
sg36
g4
sg37
(dp2025
sg39
(dp2026
sg41
I1055
sg42
g21
sg43
g21
sg44
I198
sg45
Vone
p2027
sg47
I198
sg48
I1058
sbag0
(g23
g2
Ntp2028
Rp2029
(dp2030
g27
(dp2031
g29
Vtrial
p2032
sg31
VO
p2033
sg33
VNN
p2034
sg35
I16
ssg10
I199
sg36
g4
sg37
(dp2035
sg39
(dp2036
sg41
I1059
sg42
g21
sg43
g21
sg44
I199
sg45
Vtrial
p2037
sg47
I199
sg48
I1064
sbag0
(g23
g2
Ntp2038
Rp2039
(dp2040
g27
(dp2041
g29
Vhave
p2042
sg31
VO
p2043
sg33
VVBD
p2044
sg35
I17
ssg10
I200
sg36
g4
sg37
(dp2045
sg39
(dp2046
sg41
I1065
sg42
g21
sg43
g21
sg44
I200
sg45
Vhad
p2047
sg47
I200
sg48
I1068
sbag0
(g23
g2
Ntp2048
Rp2049
(dp2050
g27
(dp2051
g29
Vdevelop
p2052
sg31
VO
p2053
sg33
VVBN
p2054
sg35
I18
ssg10
I201
sg36
g4
sg37
(dp2055
sg39
(dp2056
sg41
I1069
sg42
g21
sg43
g21
sg44
I201
sg45
Vdeveloped
p2057
sg47
I201
sg48
I1078
sbag0
(g23
g2
Ntp2058
Rp2059
(dp2060
g27
(dp2061
g29
Vleukemia
p2062
sg31
VO
p2063
sg33
VNN
p2064
sg35
I19
ssg10
I202
sg36
g4
sg37
(dp2065
sg39
(dp2066
sg41
I1079
sg42
g21
sg43
g21
sg44
I202
sg45
Vleukemia
p2067
sg47
I202
sg48
I1087
sbag0
(g23
g2
Ntp2068
Rp2069
(dp2070
g27
(dp2071
g29
Vresult
p2072
sg31
VO
p2073
sg33
VVBG
p2074
sg35
I20
ssg10
I203
sg36
g4
sg37
(dp2075
sg39
(dp2076
sg41
I1088
sg42
g21
sg43
g21
sg44
I203
sg45
Vresulting
p2077
sg47
I203
sg48
I1097
sbag0
(g23
g2
Ntp2078
Rp2079
(dp2080
g27
(dp2081
g29
Vfrom
p2082
sg31
VO
p2083
sg33
VIN
p2084
sg35
I21
ssg10
I204
sg36
g4
sg37
(dp2085
sg39
(dp2086
sg41
I1098
sg42
g21
sg43
g21
sg44
I204
sg45
Vfrom
p2087
sg47
I204
sg48
I1102
sbag0
(g23
g2
Ntp2088
Rp2089
(dp2090
g27
(dp2091
g29
Vthe
p2092
sg31
VO
p2093
sg33
VDT
p2094
sg35
I22
ssg10
I205
sg36
g4
sg37
(dp2095
sg39
(dp2096
sg41
I1103
sg42
g21
sg43
g21
sg44
I205
sg45
Vthe
p2097
sg47
I205
sg48
I1106
sbag0
(g23
g2
Ntp2098
Rp2099
(dp2100
g27
(dp2101
g29
Vinsertion
p2102
sg31
VO
p2103
sg33
VNN
p2104
sg35
I23
ssg10
I206
sg36
g4
sg37
(dp2105
sg39
(dp2106
sg41
I1107
sg42
g21
sg43
g21
sg44
I206
sg45
Vinsertion
p2107
sg47
I206
sg48
I1116
sbag0
(g23
g2
Ntp2108
Rp2109
(dp2110
g27
(dp2111
g29
Vof
p2112
sg31
VO
p2113
sg33
VIN
p2114
sg35
I24
ssg10
I207
sg36
g4
sg37
(dp2115
sg39
(dp2116
sg41
I1117
sg42
g21
sg43
g21
sg44
I207
sg45
Vof
p2117
sg47
I207
sg48
I1119
sbag0
(g23
g2
Ntp2118
Rp2119
(dp2120
g27
(dp2121
g29
Vthe
p2122
sg31
VO
p2123
sg33
VDT
p2124
sg35
I25
ssg10
I208
sg36
g4
sg37
(dp2125
sg39
(dp2126
sg41
I1120
sg42
g21
sg43
g21
sg44
I208
sg45
Vthe
p2127
sg47
I208
sg48
I1123
sbag0
(g23
g2
Ntp2128
Rp2129
(dp2130
g27
(dp2131
g29
Vgene-carrying
p2132
sg31
VO
p2133
sg33
VJJ
p2134
sg35
I26
ssg10
I209
sg36
g4
sg37
(dp2135
sg39
(dp2136
sg41
I1124
sg42
g21
sg43
g21
sg44
I209
sg45
Vgene-carrying
p2137
sg47
I209
sg48
I1137
sbag0
(g23
g2
Ntp2138
Rp2139
(dp2140
g27
(dp2141
g29
Vretrovirus
p2142
sg31
VO
p2143
sg33
VNN
p2144
sg35
I27
ssg10
I210
sg36
g4
sg37
(dp2145
sg39
(dp2146
sg41
I1138
sg42
g21
sg43
g21
sg44
I210
sg45
Vretrovirus
p2147
sg47
I210
sg48
I1148
sbag0
(g23
g2
Ntp2148
Rp2149
(dp2150
g27
(dp2151
g29
Vnear
p2152
sg31
VO
p2153
sg33
VIN
p2154
sg35
I28
ssg10
I211
sg36
g4
sg37
(dp2155
sg39
(dp2156
sg41
I1149
sg42
g21
sg43
g21
sg44
I211
sg45
Vnear
p2157
sg47
I211
sg48
I1153
sbag0
(g23
g2
Ntp2158
Rp2159
(dp2160
g27
(dp2161
g29
Va
p2162
sg31
VO
p2163
sg33
VDT
p2164
sg35
I29
ssg10
I212
sg36
g4
sg37
(dp2165
sg39
(dp2166
sg41
I1154
sg42
g21
sg43
g21
sg44
I212
sg45
Van
p2167
sg47
I212
sg48
I1156
sbag0
(g23
g2
Ntp2168
Rp2169
(dp2170
g27
(dp2171
g29
Voncogene
p2172
sg31
VO
p2173
sg33
VNN
p2174
sg35
I30
ssg10
I213
sg36
g4
sg37
(dp2175
sg39
(dp2176
sg41
I1157
sg42
g21
sg43
g21
sg44
I213
sg45
Voncogene
p2177
sg47
I213
sg48
I1165
sbag0
(g23
g2
Ntp2178
Rp2179
(dp2180
g27
(dp2181
g29
V.
p2182
sg31
VO
p2183
sg33
V.
p2184
sg35
I31
ssg10
I214
sg36
g4
sg37
(dp2185
sg39
(dp2186
sg41
I1165
sg42
g21
sg43
g21
sg44
I214
sg45
V.
p2187
sg47
I214
sg48
I1166
sbag0
(g23
g2
Ntp2188
Rp2189
(dp2190
g27
(dp2191
g29
Vin
p2192
sg31
VO
p2193
sg33
VIN
p2194
sg35
I1
ssg10
I215
sg36
g4
sg37
(dp2195
sg39
(dp2196
sg41
I1167
sg42
g21
sg43
g21
sg44
I215
sg45
VIn
p2197
sg47
I215
sg48
I1169
sbag0
(g23
g2
Ntp2198
Rp2199
(dp2200
g27
(dp2201
g29
V2007
p2202
sg31
VDATE
p2203
sg33
VCD
p2204
sg35
I2
ssg10
I216
sg36
g4
sg37
(dp2205
sg39
(dp2206
sg41
I1170
sg42
g21
sg43
g21
sg44
I216
sg45
V2007
p2207
sg47
I216
sg48
I1174
sbag0
(g23
g2
Ntp2208
Rp2209
(dp2210
g27
(dp2211
g29
V,
p2212
sg31
VO
p2213
sg33
V,
p2214
sg35
I3
ssg10
I217
sg36
g4
sg37
(dp2215
sg39
(dp2216
sg41
I1174
sg42
g21
sg43
g21
sg44
I217
sg45
V,
p2217
sg47
I217
sg48
I1175
sbag0
(g23
g2
Ntp2218
Rp2219
(dp2220
g27
(dp2221
g29
Vfour
p2222
sg31
VNUMBER
p2223
sg33
VCD
p2224
sg35
I4
ssg10
I218
sg36
g4
sg37
(dp2225
sg39
(dp2226
sg41
I1176
sg42
g21
sg43
g21
sg44
I218
sg45
Vfour
p2227
sg47
I218
sg48
I1180
sbag0
(g23
g2
Ntp2228
Rp2229
(dp2230
g27
(dp2231
g29
Vof
p2232
sg31
VO
p2233
sg33
VIN
p2234
sg35
I5
ssg10
I219
sg36
g4
sg37
(dp2235
sg39
(dp2236
sg41
I1181
sg42
g21
sg43
g21
sg44
I219
sg45
Vof
p2237
sg47
I219
sg48
I1183
sbag0
(g23
g2
Ntp2238
Rp2239
(dp2240
g27
(dp2241
g29
Vthe
p2242
sg31
VO
p2243
sg33
VDT
p2244
sg35
I6
ssg10
I220
sg36
g4
sg37
(dp2245
sg39
(dp2246
sg41
I1184
sg42
g21
sg43
g21
sg44
I220
sg45
Vthe
p2247
sg47
I220
sg48
I1187
sbag0
(g23
g2
Ntp2248
Rp2249
(dp2250
g27
(dp2251
g29
Vten
p2252
sg31
VNUMBER
p2253
sg33
VCD
p2254
sg35
I7
ssg10
I221
sg36
g4
sg37
(dp2255
sg39
(dp2256
sg41
I1188
sg42
g21
sg43
g21
sg44
I221
sg45
Vten
p2257
sg47
I221
sg48
I1191
sbag0
(g23
g2
Ntp2258
Rp2259
(dp2260
g27
(dp2261
g29
Vpatient
p2262
sg31
VO
p2263
sg33
VNNS
p2264
sg35
I8
ssg10
I222
sg36
g4
sg37
(dp2265
sg39
(dp2266
sg41
I1192
sg42
g21
sg43
g21
sg44
I222
sg45
Vpatients
p2267
sg47
I222
sg48
I1200
sbag0
(g23
g2
Ntp2268
Rp2269
(dp2270
g27
(dp2271
g29
Vhave
p2272
sg31
VO
p2273
sg33
VVBD
p2274
sg35
I9
ssg10
I223
sg36
g4
sg37
(dp2275
sg39
(dp2276
sg41
I1201
sg42
g21
sg43
g21
sg44
I223
sg45
Vhad
p2277
sg47
I223
sg48
I1204
sbag0
(g23
g2
Ntp2278
Rp2279
(dp2280
g27
(dp2281
g29
Vdevelop
p2282
sg31
VO
p2283
sg33
VVBN
p2284
sg35
I10
ssg10
I224
sg36
g4
sg37
(dp2285
sg39
(dp2286
sg41
I1205
sg42
g21
sg43
g21
sg44
I224
sg45
Vdeveloped
p2287
sg47
I224
sg48
I1214
sbag0
(g23
g2
Ntp2288
Rp2289
(dp2290
g27
(dp2291
g29
Vleukemia
p2292
sg31
VO
p2293
sg33
VNN
p2294
sg35
I11
ssg10
I225
sg36
g4
sg37
(dp2295
sg39
(dp2296
sg41
I1215
sg42
g21
sg43
g21
sg44
I225
sg45
Vleukemia
p2297
sg47
I225
sg48
I1223
sbag0
(g23
g2
Ntp2298
Rp2299
(dp2300
g27
(dp2301
g29
V-lsb-
p2302
sg31
VO
p2303
sg33
V-LRB-
p2304
sg35
I12
ssg10
I226
sg36
g4
sg37
(dp2305
sg39
(dp2306
sg41
I1224
sg42
g21
sg43
g21
sg44
I226
sg45
V[
p2307
sg47
I226
sg48
I1225
sbag0
(g23
g2
Ntp2308
Rp2309
(dp2310
g27
(dp2311
g29
Vref
p2312
sg31
VO
p2313
sg33
VNN
p2314
sg35
I13
ssg10
I227
sg36
g4
sg37
(dp2315
sg39
(dp2316
sg41
I1225
sg42
g21
sg43
g21
sg44
I227
sg45
VREF
p2317
sg47
I227
sg48
I1228
sbag0
(g23
g2
Ntp2318
Rp2319
(dp2320
g27
(dp2321
g29
V-rsb-
p2322
sg31
VO
p2323
sg33
V-RRB-
p2324
sg35
I14
ssg10
I228
sg36
g4
sg37
(dp2325
sg39
(dp2326
sg41
I1228
sg42
g21
sg43
g21
sg44
I228
sg45
V]
p2327
sg47
I228
sg48
I1229
sbag0
(g23
g2
Ntp2328
Rp2329
(dp2330
g27
(dp2331
g29
V.
p2332
sg31
VO
p2333
sg33
V.
p2334
sg35
I15
ssg10
I229
sg36
g4
sg37
(dp2335
sg39
(dp2336
sg41
I1229
sg42
g21
sg43
g21
sg44
I229
sg45
V.
p2337
sg47
I229
sg48
I1230
sbag0
(g23
g2
Ntp2338
Rp2339
(dp2340
g27
(dp2341
g29
Vwork
p2342
sg31
VO
p2343
sg33
VNN
p2344
sg35
I1
ssg10
I230
sg36
g4
sg37
(dp2345
sg39
(dp2346
sg41
I1231
sg42
g21
sg43
g21
sg44
I230
sg45
VWork
p2347
sg47
I230
sg48
I1235
sbag0
(g23
g2
Ntp2348
Rp2349
(dp2350
g27
(dp2351
g29
Vbe
p2352
sg31
VO
p2353
sg33
VVBZ
p2354
sg35
I2
ssg10
I231
sg36
g4
sg37
(dp2355
sg39
(dp2356
sg41
I1236
sg42
g21
sg43
g21
sg44
I231
sg45
Vis
p2357
sg47
I231
sg48
I1238
sbag0
(g23
g2
Ntp2358
Rp2359
(dp2360
g27
(dp2361
g29
Vnow
p2362
sg31
VDATE
p2363
sg33
VRB
p2364
sg35
I3
ssg10
I232
sg36
g4
sg37
(dp2365
sg39
(dp2366
sg41
I1239
sg42
g21
sg43
g21
sg44
I232
sg45
Vnow
p2367
sg47
I232
sg48
I1242
sbag0
(g23
g2
Ntp2368
Rp2369
(dp2370
g27
(dp2371
g29
Vfocus
p2372
sg31
VO
p2373
sg33
VVBG
p2374
sg35
I4
ssg10
I233
sg36
g4
sg37
(dp2375
sg39
(dp2376
sg41
I1243
sg42
g21
sg43
g21
sg44
I233
sg45
Vfocusing
p2377
sg47
I233
sg48
I1251
sbag0
(g23
g2
Ntp2378
Rp2379
(dp2380
g27
(dp2381
g29
Von
p2382
sg31
VO
p2383
sg33
VIN
p2384
sg35
I5
ssg10
I234
sg36
g4
sg37
(dp2385
sg39
(dp2386
sg41
I1252
sg42
g21
sg43
g21
sg44
I234
sg45
Von
p2387
sg47
I234
sg48
I1254
sbag0
(g23
g2
Ntp2388
Rp2389
(dp2390
g27
(dp2391
g29
Vcorrect
p2392
sg31
VO
p2393
sg33
VVBG
p2394
sg35
I6
ssg10
I235
sg36
g4
sg37
(dp2395
sg39
(dp2396
sg41
I1255
sg42
g21
sg43
g21
sg44
I235
sg45
Vcorrecting
p2397
sg47
I235
sg48
I1265
sbag0
(g23
g2
Ntp2398
Rp2399
(dp2400
g27
(dp2401
g29
Vthe
p2402
sg31
VO
p2403
sg33
VDT
p2404
sg35
I7
ssg10
I236
sg36
g4
sg37
(dp2405
sg39
(dp2406
sg41
I1266
sg42
g21
sg43
g21
sg44
I236
sg45
Vthe
p2407
sg47
I236
sg48
I1269
sbag0
(g23
g2
Ntp2408
Rp2409
(dp2410
g27
(dp2411
g29
Vgene
p2412
sg31
VO
p2413
sg33
VNN
p2414
sg35
I8
ssg10
I237
sg36
g4
sg37
(dp2415
sg39
(dp2416
sg41
I1270
sg42
g21
sg43
g21
sg44
I237
sg45
Vgene
p2417
sg47
I237
sg48
I1274
sbag0
(g23
g2
Ntp2418
Rp2419
(dp2420
g27
(dp2421
g29
Vwithout
p2422
sg31
VO
p2423
sg33
VIN
p2424
sg35
I9
ssg10
I238
sg36
g4
sg37
(dp2425
sg39
(dp2426
sg41
I1275
sg42
g21
sg43
g21
sg44
I238
sg45
Vwithout
p2427
sg47
I238
sg48
I1282
sbag0
(g23
g2
Ntp2428
Rp2429
(dp2430
g27
(dp2431
g29
Vtrigger
p2432
sg31
VO
p2433
sg33
VVBG
p2434
sg35
I10
ssg10
I239
sg36
g4
sg37
(dp2435
sg39
(dp2436
sg41
I1283
sg42
g21
sg43
g21
sg44
I239
sg45
Vtriggering
p2437
sg47
I239
sg48
I1293
sbag0
(g23
g2
Ntp2438
Rp2439
(dp2440
g27
(dp2441
g29
Va
p2442
sg31
VO
p2443
sg33
VDT
p2444
sg35
I11
ssg10
I240
sg36
g4
sg37
(dp2445
sg39
(dp2446
sg41
I1294
sg42
g21
sg43
g21
sg44
I240
sg45
Van
p2447
sg47
I240
sg48
I1296
sbag0
(g23
g2
Ntp2448
Rp2449
(dp2450
g27
(dp2451
g29
Voncogene
p2452
sg31
VO
p2453
sg33
VNN
p2454
sg35
I12
ssg10
I241
sg36
g4
sg37
(dp2455
sg39
(dp2456
sg41
I1297
sg42
g21
sg43
g21
sg44
I241
sg45
Voncogene
p2457
sg47
I241
sg48
I1305
sbag0
(g23
g2
Ntp2458
Rp2459
(dp2460
g27
(dp2461
g29
V.
p2462
sg31
VO
p2463
sg33
V.
p2464
sg35
I13
ssg10
I242
sg36
g4
sg37
(dp2465
sg39
(dp2466
sg41
I1305
sg42
g21
sg43
g21
sg44
I242
sg45
V.
p2467
sg47
I242
sg48
I1306
sbag0
(g23
g2
Ntp2468
Rp2469
(dp2470
g27
(dp2471
g29
Vtrial
p2472
sg31
VO
p2473
sg33
VNN
p2474
sg35
I1
ssg10
I243
sg36
g4
sg37
(dp2475
sg39
(dp2476
sg41
I1309
sg42
g21
sg43
g21
sg44
I243
sg45
VTrial
p2477
sg47
I243
sg48
I1314
sbag0
(g23
g2
Ntp2478
Rp2479
(dp2480
g27
(dp2481
g29
Vtreatment
p2482
sg31
VO
p2483
sg33
VNNS
p2484
sg35
I2
ssg10
I244
sg36
g4
sg37
(dp2485
sg39
(dp2486
sg41
I1315
sg42
g21
sg43
g21
sg44
I244
sg45
Vtreatments
p2487
sg47
I244
sg48
I1325
sbag0
(g23
g2
Ntp2488
Rp2489
(dp2490
g27
(dp2491
g29
Vof
p2492
sg31
VO
p2493
sg33
VIN
p2494
sg35
I3
ssg10
I245
sg36
g4
sg37
(dp2495
sg39
(dp2496
sg41
I1326
sg42
g21
sg43
g21
sg44
I245
sg45
Vof
p2497
sg47
I245
sg48
I1328
sbag0
(g23
g2
Ntp2498
Rp2499
(dp2500
g27
(dp2501
g29
Vscid
p2502
sg31
VO
p2503
sg33
VNN
p2504
sg35
I4
ssg10
I246
sg36
g4
sg37
(dp2505
sg39
(dp2506
sg41
I1329
sg42
g21
sg43
g21
sg44
I246
sg45
VSCID
p2507
sg47
I246
sg48
I1333
sbag0
(g23
g2
Ntp2508
Rp2509
(dp2510
g27
(dp2511
g29
Vhave
p2512
sg31
VO
p2513
sg33
VVBP
p2514
sg35
I5
ssg10
I247
sg36
g4
sg37
(dp2515
sg39
(dp2516
sg41
I1334
sg42
g21
sg43
g21
sg44
I247
sg45
Vhave
p2517
sg47
I247
sg48
I1338
sbag0
(g23
g2
Ntp2518
Rp2519
(dp2520
g27
(dp2521
g29
Vbe
p2522
sg31
VO
p2523
sg33
VVBN
p2524
sg35
I6
ssg10
I248
sg36
g4
sg37
(dp2525
sg39
(dp2526
sg41
I1339
sg42
g21
sg43
g21
sg44
I248
sg45
Vbeen
p2527
sg47
I248
sg48
I1343
sbag0
(g23
g2
Ntp2528
Rp2529
(dp2530
g27
(dp2531
g29
Vgene
p2532
sg31
VO
p2533
sg33
VNN
p2534
sg35
I7
ssg10
I249
sg36
g4
sg37
(dp2535
sg39
(dp2536
sg41
I1344
sg42
g21
sg43
g21
sg44
I249
sg45
Vgene
p2537
sg47
I249
sg48
I1348
sbag0
(g23
g2
Ntp2538
Rp2539
(dp2540
g27
(dp2541
g29
Vtherapy
p2542
sg31
VO
p2543
sg33
VNN
p2544
sg35
I8
ssg10
I250
sg36
g4
sg37
(dp2545
sg39
(dp2546
sg41
I1349
sg42
g21
sg43
g21
sg44
I250
sg45
Vtherapy
p2547
sg47
I250
sg48
I1356
sbag0
(g23
g2
Ntp2548
Rp2549
(dp2550
g27
(dp2551
g29
V's
p2552
sg31
VO
p2553
sg33
VPOS
p2554
sg35
I9
ssg10
I251
sg36
g4
sg37
(dp2555
sg39
(dp2556
sg41
I1356
sg42
g21
sg43
g21
sg44
I251
sg45
V's
p2557
sg47
I251
sg48
I1358
sbag0
(g23
g2
Ntp2558
Rp2559
(dp2560
g27
(dp2561
g29
Vonly
p2562
sg31
VO
p2563
sg33
VJJ
p2564
sg35
I10
ssg10
I252
sg36
g4
sg37
(dp2565
sg39
(dp2566
sg41
I1359
sg42
g21
sg43
g21
sg44
I252
sg45
Vonly
p2567
sg47
I252
sg48
I1363
sbag0
(g23
g2
Ntp2568
Rp2569
(dp2570
g27
(dp2571
g29
Vsuccess
p2572
sg31
VO
p2573
sg33
VNN
p2574
sg35
I11
ssg10
I253
sg36
g4
sg37
(dp2575
sg39
(dp2576
sg41
I1364
sg42
g21
sg43
g21
sg44
I253
sg45
Vsuccess
p2577
sg47
I253
sg48
I1371
sbag0
(g23
g2
Ntp2578
Rp2579
(dp2580
g27
(dp2581
g29
V;
p2582
sg31
VO
p2583
sg33
V:
p2584
sg35
I12
ssg10
I254
sg36
g4
sg37
(dp2585
sg39
(dp2586
sg41
I1371
sg42
g21
sg43
g21
sg44
I254
sg45
V;
p2587
sg47
I254
sg48
I1372
sbag0
(g23
g2
Ntp2588
Rp2589
(dp2590
g27
(dp2591
g29
Vsince
p2592
sg31
VO
p2593
sg33
VIN
p2594
sg35
I13
ssg10
I255
sg36
g4
sg37
(dp2595
sg39
(dp2596
sg41
I1373
sg42
g21
sg43
g21
sg44
I255
sg45
Vsince
p2597
sg47
I255
sg48
I1378
sbag0
(g23
g2
Ntp2598
Rp2599
(dp2600
g27
(dp2601
g29
V1999
p2602
sg31
VDATE
p2603
sg33
VCD
p2604
sg35
I14
ssg10
I256
sg36
g4
sg37
(dp2605
sg39
(dp2606
sg41
I1379
sg42
g21
sg43
g21
sg44
I256
sg45
V1999
p2607
sg47
I256
sg48
I1383
sbag0
(g23
g2
Ntp2608
Rp2609
(dp2610
g27
(dp2611
g29
V,
p2612
sg31
VO
p2613
sg33
V,
p2614
sg35
I15
ssg10
I257
sg36
g4
sg37
(dp2615
sg39
(dp2616
sg41
I1383
sg42
g21
sg43
g21
sg44
I257
sg45
V,
p2617
sg47
I257
sg48
I1384
sbag0
(g23
g2
Ntp2618
Rp2619
(dp2620
g27
(dp2621
g29
Vgene
p2622
sg31
VO
p2623
sg33
VNN
p2624
sg35
I16
ssg10
I258
sg36
g4
sg37
(dp2625
sg39
(dp2626
sg41
I1385
sg42
g21
sg43
g21
sg44
I258
sg45
Vgene
p2627
sg47
I258
sg48
I1389
sbag0
(g23
g2
Ntp2628
Rp2629
(dp2630
g27
(dp2631
g29
Vtherapy
p2632
sg31
VO
p2633
sg33
VNN
p2634
sg35
I17
ssg10
I259
sg36
g4
sg37
(dp2635
sg39
(dp2636
sg41
I1390
sg42
g21
sg43
g21
sg44
I259
sg45
Vtherapy
p2637
sg47
I259
sg48
I1397
sbag0
(g23
g2
Ntp2638
Rp2639
(dp2640
g27
(dp2641
g29
Vhave
p2642
sg31
VO
p2643
sg33
VVBZ
p2644
sg35
I18
ssg10
I260
sg36
g4
sg37
(dp2645
sg39
(dp2646
sg41
I1398
sg42
g21
sg43
g21
sg44
I260
sg45
Vhas
p2647
sg47
I260
sg48
I1401
sbag0
(g23
g2
Ntp2648
Rp2649
(dp2650
g27
(dp2651
g29
Vrestore
p2652
sg31
VO
p2653
sg33
VVBN
p2654
sg35
I19
ssg10
I261
sg36
g4
sg37
(dp2655
sg39
(dp2656
sg41
I1402
sg42
g21
sg43
g21
sg44
I261
sg45
Vrestored
p2657
sg47
I261
sg48
I1410
sbag0
(g23
g2
Ntp2658
Rp2659
(dp2660
g27
(dp2661
g29
Vthe
p2662
sg31
VO
p2663
sg33
VDT
p2664
sg35
I20
ssg10
I262
sg36
g4
sg37
(dp2665
sg39
(dp2666
sg41
I1411
sg42
g21
sg43
g21
sg44
I262
sg45
Vthe
p2667
sg47
I262
sg48
I1414
sbag0
(g23
g2
Ntp2668
Rp2669
(dp2670
g27
(dp2671
g29
Vimmune
p2672
sg31
VO
p2673
sg33
VJJ
p2674
sg35
I21
ssg10
I263
sg36
g4
sg37
(dp2675
sg39
(dp2676
sg41
I1415
sg42
g21
sg43
g21
sg44
I263
sg45
Vimmune
p2677
sg47
I263
sg48
I1421
sbag0
(g23
g2
Ntp2678
Rp2679
(dp2680
g27
(dp2681
g29
Vsystem
p2682
sg31
VO
p2683
sg33
VNNS
p2684
sg35
I22
ssg10
I264
sg36
g4
sg37
(dp2685
sg39
(dp2686
sg41
I1422
sg42
g21
sg43
g21
sg44
I264
sg45
Vsystems
p2687
sg47
I264
sg48
I1429
sbag0
(g23
g2
Ntp2688
Rp2689
(dp2690
g27
(dp2691
g29
Vof
p2692
sg31
VO
p2693
sg33
VIN
p2694
sg35
I23
ssg10
I265
sg36
g4
sg37
(dp2695
sg39
(dp2696
sg41
I1430
sg42
g21
sg43
g21
sg44
I265
sg45
Vof
p2697
sg47
I265
sg48
I1432
sbag0
(g23
g2
Ntp2698
Rp2699
(dp2700
g27
(dp2701
g29
Vat
p2702
sg31
VO
p2703
sg33
VIN
p2704
sg35
I24
ssg10
I266
sg36
g4
sg37
(dp2705
sg39
(dp2706
sg41
I1433
sg42
g21
sg43
g21
sg44
I266
sg45
Vat
p2707
sg47
I266
sg48
I1435
sbag0
(g23
g2
Ntp2708
Rp2709
(dp2710
g27
(dp2711
g29
Vleast
p2712
sg31
VO
p2713
sg33
VJJS
p2714
sg35
I25
ssg10
I267
sg36
g4
sg37
(dp2715
sg39
(dp2716
sg41
I1436
sg42
g21
sg43
g21
sg44
I267
sg45
Vleast
p2717
sg47
I267
sg48
I1441
sbag0
(g23
g2
Ntp2718
Rp2719
(dp2720
g27
(dp2721
g29
V17
p2722
sg31
VNUMBER
p2723
sg33
VCD
p2724
sg35
I26
ssg10
I268
sg36
g4
sg37
(dp2725
sg39
(dp2726
sg41
I1442
sg42
g21
sg43
g21
sg44
I268
sg45
V17
p2727
sg47
I268
sg48
I1444
sbag0
(g23
g2
Ntp2728
Rp2729
(dp2730
g27
(dp2731
g29
Vchild
p2732
sg31
VO
p2733
sg33
VNNS
p2734
sg35
I27
ssg10
I269
sg36
g4
sg37
(dp2735
sg39
(dp2736
sg41
I1445
sg42
g21
sg43
g21
sg44
I269
sg45
Vchildren
p2737
sg47
I269
sg48
I1453
sbag0
(g23
g2
Ntp2738
Rp2739
(dp2740
g27
(dp2741
g29
Vwith
p2742
sg31
VO
p2743
sg33
VIN
p2744
sg35
I28
ssg10
I270
sg36
g4
sg37
(dp2745
sg39
(dp2746
sg41
I1454
sg42
g21
sg43
g21
sg44
I270
sg45
Vwith
p2747
sg47
I270
sg48
I1458
sbag0
(g23
g2
Ntp2748
Rp2749
(dp2750
g27
(dp2751
g29
Vtwo
p2752
sg31
VNUMBER
p2753
sg33
VCD
p2754
sg35
I29
ssg10
I271
sg36
g4
sg37
(dp2755
sg39
(dp2756
sg41
I1459
sg42
g21
sg43
g21
sg44
I271
sg45
Vtwo
p2757
sg47
I271
sg48
I1462
sbag0
(g23
g2
Ntp2758
Rp2759
(dp2760
g27
(dp2761
g29
Vform
p2762
sg31
VO
p2763
sg33
VNNS
p2764
sg35
I30
ssg10
I272
sg36
g4
sg37
(dp2765
sg39
(dp2766
sg41
I1463
sg42
g21
sg43
g21
sg44
I272
sg45
Vforms
p2767
sg47
I272
sg48
I1468
sbag0
(g23
g2
Ntp2768
Rp2769
(dp2770
g27
(dp2771
g29
V-lrb-
p2772
sg31
VO
p2773
sg33
V-LRB-
p2774
sg35
I31
ssg10
I273
sg36
g4
sg37
(dp2775
sg39
(dp2776
sg41
I1469
sg42
g21
sg43
g21
sg44
I273
sg45
V(
p2777
sg47
I273
sg48
I1470
sbag0
(g23
g2
Ntp2778
Rp2779
(dp2780
g27
(dp2781
g29
Vada-scid
p2782
sg31
VO
p2783
sg33
VNN
p2784
sg35
I32
ssg10
I274
sg36
g4
sg37
(dp2785
sg39
(dp2786
sg41
I1470
sg42
g21
sg43
g21
sg44
I274
sg45
VADA-SCID
p2787
sg47
I274
sg48
I1478
sbag0
(g23
g2
Ntp2788
Rp2789
(dp2790
g27
(dp2791
g29
Vand
p2792
sg31
VO
p2793
sg33
VCC
p2794
sg35
I33
ssg10
I275
sg36
g4
sg37
(dp2795
sg39
(dp2796
sg41
I1479
sg42
g21
sg43
g21
sg44
I275
sg45
Vand
p2797
sg47
I275
sg48
I1482
sbag0
(g23
g2
Ntp2798
Rp2799
(dp2800
g27
(dp2801
g29
Vx-scid
p2802
sg31
VO
p2803
sg33
VNN
p2804
sg35
I34
ssg10
I276
sg36
g4
sg37
(dp2805
sg39
(dp2806
sg41
I1483
sg42
g21
sg43
g21
sg44
I276
sg45
VX-SCID
p2807
sg47
I276
sg48
I1489
sbag0
(g23
g2
Ntp2808
Rp2809
(dp2810
g27
(dp2811
g29
V-rrb-
p2812
sg31
VO
p2813
sg33
V-RRB-
p2814
sg35
I35
ssg10
I277
sg36
g4
sg37
(dp2815
sg39
(dp2816
sg41
I1489
sg42
g21
sg43
g21
sg44
I277
sg45
V)
p2817
sg47
I277
sg48
I1490
sbag0
(g23
g2
Ntp2818
Rp2819
(dp2820
g27
(dp2821
g29
Vof
p2822
sg31
VO
p2823
sg33
VIN
p2824
sg35
I36
ssg10
I278
sg36
g4
sg37
(dp2825
sg39
(dp2826
sg41
I1491
sg42
g21
sg43
g21
sg44
I278
sg45
Vof
p2827
sg47
I278
sg48
I1493
sbag0
(g23
g2
Ntp2828
Rp2829
(dp2830
g27
(dp2831
g29
Vthe
p2832
sg31
VO
p2833
sg33
VDT
p2834
sg35
I37
ssg10
I279
sg36
g4
sg37
(dp2835
sg39
(dp2836
sg41
I1494
sg42
g21
sg43
g21
sg44
I279
sg45
Vthe
p2837
sg47
I279
sg48
I1497
sbag0
(g23
g2
Ntp2838
Rp2839
(dp2840
g27
(dp2841
g29
Vdisorder
p2842
sg31
VO
p2843
sg33
VNN
p2844
sg35
I38
ssg10
I280
sg36
g4
sg37
(dp2845
sg39
(dp2846
sg41
I1498
sg42
g21
sg43
g21
sg44
I280
sg45
Vdisorder
p2847
sg47
I280
sg48
I1506
sbag0
(g23
g2
Ntp2848
Rp2849
(dp2850
g27
(dp2851
g29
V.
p2852
sg31
VO
p2853
sg33
V.
p2854
sg35
I39
ssg10
I281
sg36
g4
sg37
(dp2855
sg39
(dp2856
sg41
I1506
sg42
g21
sg43
g21
sg44
I281
sg45
V.
p2857
sg47
I281
sg48
I1507
sbag0
(g23
g2
Ntp2858
Rp2859
(dp2860
g27
(dp2861
g29
Vhuman
p2862
sg31
VO
p2863
sg33
VJJ
p2864
sg35
I1
ssg10
I282
sg36
g4
sg37
(dp2865
sg39
(dp2866
sg41
I1510
sg42
g21
sg43
g21
sg44
I282
sg45
VHuman
p2867
sg47
I282
sg48
I1515
sbag0
(g23
g2
Ntp2868
Rp2869
(dp2870
g27
(dp2871
g29
Vgenetic
p2872
sg31
VO
p2873
sg33
VJJ
p2874
sg35
I2
ssg10
I283
sg36
g4
sg37
(dp2875
sg39
(dp2876
sg41
I1516
sg42
g21
sg43
g21
sg44
I283
sg45
Vgenetic
p2877
sg47
I283
sg48
I1523
sbag0
(g23
g2
Ntp2878
Rp2879
(dp2880
g27
(dp2881
g29
Vengineering
p2882
sg31
VO
p2883
sg33
VNN
p2884
sg35
I3
ssg10
I284
sg36
g4
sg37
(dp2885
sg39
(dp2886
sg41
I1524
sg42
g21
sg43
g21
sg44
I284
sg45
Vengineering
p2887
sg47
I284
sg48
I1535
sbag0
(g23
g2
Ntp2888
Rp2889
(dp2890
g27
(dp2891
g29
Vbe
p2892
sg31
VO
p2893
sg33
VVBZ
p2894
sg35
I4
ssg10
I285
sg36
g4
sg37
(dp2895
sg39
(dp2896
sg41
I1536
sg42
g21
sg43
g21
sg44
I285
sg45
Vis
p2897
sg47
I285
sg48
I1538
sbag0
(g23
g2
Ntp2898
Rp2899
(dp2900
g27
(dp2901
g29
Valready
p2902
sg31
VO
p2903
sg33
VRB
p2904
sg35
I5
ssg10
I286
sg36
g4
sg37
(dp2905
sg39
(dp2906
sg41
I1539
sg42
g21
sg43
g21
sg44
I286
sg45
Valready
p2907
sg47
I286
sg48
I1546
sbag0
(g23
g2
Ntp2908
Rp2909
(dp2910
g27
(dp2911
g29
Vbe
p2912
sg31
VO
p2913
sg33
VVBG
p2914
sg35
I6
ssg10
I287
sg36
g4
sg37
(dp2915
sg39
(dp2916
sg41
I1547
sg42
g21
sg43
g21
sg44
I287
sg45
Vbeing
p2917
sg47
I287
sg48
I1552
sbag0
(g23
g2
Ntp2918
Rp2919
(dp2920
g27
(dp2921
g29
Vuse
p2922
sg31
VO
p2923
sg33
VVBN
p2924
sg35
I7
ssg10
I288
sg36
g4
sg37
(dp2925
sg39
(dp2926
sg41
I1553
sg42
g21
sg43
g21
sg44
I288
sg45
Vused
p2927
sg47
I288
sg48
I1557
sbag0
(g23
g2
Ntp2928
Rp2929
(dp2930
g27
(dp2931
g29
Von
p2932
sg31
VO
p2933
sg33
VIN
p2934
sg35
I8
ssg10
I289
sg36
g4
sg37
(dp2935
sg39
(dp2936
sg41
I1558
sg42
g21
sg43
g21
sg44
I289
sg45
Von
p2937
sg47
I289
sg48
I1560
sbag0
(g23
g2
Ntp2938
Rp2939
(dp2940
g27
(dp2941
g29
Va
p2942
sg31
VO
p2943
sg33
VDT
p2944
sg35
I9
ssg10
I290
sg36
g4
sg37
(dp2945
sg39
(dp2946
sg41
I1561
sg42
g21
sg43
g21
sg44
I290
sg45
Va
p2947
sg47
I290
sg48
I1562
sbag0
(g23
g2
Ntp2948
Rp2949
(dp2950
g27
(dp2951
g29
Vsmall
p2952
sg31
VO
p2953
sg33
VJJ
p2954
sg35
I10
ssg10
I291
sg36
g4
sg37
(dp2955
sg39
(dp2956
sg41
I1563
sg42
g21
sg43
g21
sg44
I291
sg45
Vsmall
p2957
sg47
I291
sg48
I1568
sbag0
(g23
g2
Ntp2958
Rp2959
(dp2960
g27
(dp2961
g29
Vscale
p2962
sg31
VO
p2963
sg33
VNN
p2964
sg35
I11
ssg10
I292
sg36
g4
sg37
(dp2965
sg39
(dp2966
sg41
I1569
sg42
g21
sg43
g21
sg44
I292
sg45
Vscale
p2967
sg47
I292
sg48
I1574
sbag0
(g23
g2
Ntp2968
Rp2969
(dp2970
g27
(dp2971
g29
Vto
p2972
sg31
VO
p2973
sg33
VTO
p2974
sg35
I12
ssg10
I293
sg36
g4
sg37
(dp2975
sg39
(dp2976
sg41
I1575
sg42
g21
sg43
g21
sg44
I293
sg45
Vto
p2977
sg47
I293
sg48
I1577
sbag0
(g23
g2
Ntp2978
Rp2979
(dp2980
g27
(dp2981
g29
Vallow
p2982
sg31
VO
p2983
sg33
VVB
p2984
sg35
I13
ssg10
I294
sg36
g4
sg37
(dp2985
sg39
(dp2986
sg41
I1578
sg42
g21
sg43
g21
sg44
I294
sg45
Vallow
p2987
sg47
I294
sg48
I1583
sbag0
(g23
g2
Ntp2988
Rp2989
(dp2990
g27
(dp2991
g29
Vinfertile
p2992
sg31
VO
p2993
sg33
VJJ
p2994
sg35
I14
ssg10
I295
sg36
g4
sg37
(dp2995
sg39
(dp2996
sg41
I1584
sg42
g21
sg43
g21
sg44
I295
sg45
Vinfertile
p2997
sg47
I295
sg48
I1593
sbag0
(g23
g2
Ntp2998
Rp2999
(dp3000
g27
(dp3001
g29
Vwoman
p3002
sg31
VO
p3003
sg33
VNNS
p3004
sg35
I15
ssg10
I296
sg36
g4
sg37
(dp3005
sg39
(dp3006
sg41
I1594
sg42
g21
sg43
g21
sg44
I296
sg45
Vwomen
p3007
sg47
I296
sg48
I1599
sbag0
(g23
g2
Ntp3008
Rp3009
(dp3010
g27
(dp3011
g29
Vwith
p3012
sg31
VO
p3013
sg33
VIN
p3014
sg35
I16
ssg10
I297
sg36
g4
sg37
(dp3015
sg39
(dp3016
sg41
I1600
sg42
g21
sg43
g21
sg44
I297
sg45
Vwith
p3017
sg47
I297
sg48
I1604
sbag0
(g23
g2
Ntp3018
Rp3019
(dp3020
g27
(dp3021
g29
Vgenetic
p3022
sg31
VO
p3023
sg33
VJJ
p3024
sg35
I17
ssg10
I298
sg36
g4
sg37
(dp3025
sg39
(dp3026
sg41
I1605
sg42
g21
sg43
g21
sg44
I298
sg45
Vgenetic
p3027
sg47
I298
sg48
I1612
sbag0
(g23
g2
Ntp3028
Rp3029
(dp3030
g27
(dp3031
g29
Vdefect
p3032
sg31
VO
p3033
sg33
VNNS
p3034
sg35
I18
ssg10
I299
sg36
g4
sg37
(dp3035
sg39
(dp3036
sg41
I1613
sg42
g21
sg43
g21
sg44
I299
sg45
Vdefects
p3037
sg47
I299
sg48
I1620
sbag0
(g23
g2
Ntp3038
Rp3039
(dp3040
g27
(dp3041
g29
Vin
p3042
sg31
VO
p3043
sg33
VIN
p3044
sg35
I19
ssg10
I300
sg36
g4
sg37
(dp3045
sg39
(dp3046
sg41
I1621
sg42
g21
sg43
g21
sg44
I300
sg45
Vin
p3047
sg47
I300
sg48
I1623
sbag0
(g23
g2
Ntp3048
Rp3049
(dp3050
g27
(dp3051
g29
Vthey
p3052
sg31
VO
p3053
sg33
VPRP$
p3054
sg35
I20
ssg10
I301
sg36
g4
sg37
(dp3055
sg39
(dp3056
sg41
I1624
sg42
g21
sg43
g21
sg44
I301
sg45
Vtheir
p3057
sg47
I301
sg48
I1629
sbag0
(g23
g2
Ntp3058
Rp3059
(dp3060
g27
(dp3061
g29
Vmitochondria
p3062
sg31
VO
p3063
sg33
VNN
p3064
sg35
I21
ssg10
I302
sg36
g4
sg37
(dp3065
sg39
(dp3066
sg41
I1630
sg42
g21
sg43
g21
sg44
I302
sg45
Vmitochondria
p3067
sg47
I302
sg48
I1642
sbag0
(g23
g2
Ntp3068
Rp3069
(dp3070
g27
(dp3071
g29
Vto
p3072
sg31
VO
p3073
sg33
VTO
p3074
sg35
I22
ssg10
I303
sg36
g4
sg37
(dp3075
sg39
(dp3076
sg41
I1632
sg42
g21
sg43
g21
sg44
I303
sg45
Vto
p3077
sg47
I303
sg48
I1634
sbag0
(g23
g2
Ntp3078
Rp3079
(dp3080
g27
(dp3081
g29
Vhave
p3082
sg31
VO
p3083
sg33
VVB
p3084
sg35
I23
ssg10
I304
sg36
g4
sg37
(dp3085
sg39
(dp3086
sg41
I1646
sg42
g21
sg43
g21
sg44
I304
sg45
Vhave
p3087
sg47
I304
sg48
I1650
sbag0
(g23
g2
Ntp3088
Rp3089
(dp3090
g27
(dp3091
g29
Vchild
p3092
sg31
VO
p3093
sg33
VNNS
p3094
sg35
I24
ssg10
I305
sg36
g4
sg37
(dp3095
sg39
(dp3096
sg41
I1651
sg42
g21
sg43
g21
sg44
I305
sg45
Vchildren
p3097
sg47
I305
sg48
I1659
sbag0
(g23
g2
Ntp3098
Rp3099
(dp3100
g27
(dp3101
g29
V-lsb-
p3102
sg31
VO
p3103
sg33
V-LRB-
p3104
sg35
I25
ssg10
I306
sg36
g4
sg37
(dp3105
sg39
(dp3106
sg41
I1660
sg42
g21
sg43
g21
sg44
I306
sg45
V[
p3107
sg47
I306
sg48
I1661
sbag0
(g23
g2
Ntp3108
Rp3109
(dp3110
g27
(dp3111
g29
Vref
p3112
sg31
VO
p3113
sg33
VNN
p3114
sg35
I26
ssg10
I307
sg36
g4
sg37
(dp3115
sg39
(dp3116
sg41
I1661
sg42
g21
sg43
g21
sg44
I307
sg45
VREF
p3117
sg47
I307
sg48
I1664
sbag0
(g23
g2
Ntp3118
Rp3119
(dp3120
g27
(dp3121
g29
V-rsb-
p3122
sg31
VO
p3123
sg33
V-RRB-
p3124
sg35
I27
ssg10
I308
sg36
g4
sg37
(dp3125
sg39
(dp3126
sg41
I1664
sg42
g21
sg43
g21
sg44
I308
sg45
V]
p3127
sg47
I308
sg48
I1665
sbag0
(g23
g2
Ntp3128
Rp3129
(dp3130
g27
(dp3131
g29
V.
p3132
sg31
VO
p3133
sg33
V.
p3134
sg35
I28
ssg10
I309
sg36
g4
sg37
(dp3135
sg39
(dp3136
sg41
I1665
sg42
g21
sg43
g21
sg44
I309
sg45
V.
p3137
sg47
I309
sg48
I1666
sbag0
(g23
g2
Ntp3138
Rp3139
(dp3140
g27
(dp3141
g29
Vhealthy
p3142
sg31
VO
p3143
sg33
VJJ
p3144
sg35
I1
ssg10
I310
sg36
g4
sg37
(dp3145
sg39
(dp3146
sg41
I1667
sg42
g21
sg43
g21
sg44
I310
sg45
VHealthy
p3147
sg47
I310
sg48
I1674
sbag0
(g23
g2
Ntp3148
Rp3149
(dp3150
g27
(dp3151
g29
Vhuman
p3152
sg31
VO
p3153
sg33
VJJ
p3154
sg35
I2
ssg10
I311
sg36
g4
sg37
(dp3155
sg39
(dp3156
sg41
I1675
sg42
g21
sg43
g21
sg44
I311
sg45
Vhuman
p3157
sg47
I311
sg48
I1680
sbag0
(g23
g2
Ntp3158
Rp3159
(dp3160
g27
(dp3161
g29
Vegg
p3162
sg31
VO
p3163
sg33
VNNS
p3164
sg35
I3
ssg10
I312
sg36
g4
sg37
(dp3165
sg39
(dp3166
sg41
I1681
sg42
g21
sg43
g21
sg44
I312
sg45
Veggs
p3167
sg47
I312
sg48
I1685
sbag0
(g23
g2
Ntp3168
Rp3169
(dp3170
g27
(dp3171
g29
Vfrom
p3172
sg31
VO
p3173
sg33
VIN
p3174
sg35
I4
ssg10
I313
sg36
g4
sg37
(dp3175
sg39
(dp3176
sg41
I1686
sg42
g21
sg43
g21
sg44
I313
sg45
Vfrom
p3177
sg47
I313
sg48
I1690
sbag0
(g23
g2
Ntp3178
Rp3179
(dp3180
g27
(dp3181
g29
Va
p3182
sg31
VDURATION
p3183
sg33
VDT
p3184
sg35
I5
ssg10
I314
sg36
g4
sg37
(dp3185
sg39
(dp3186
sg41
I1691
sg42
g21
sg43
g21
sg44
I314
sg45
Va
p3187
sg47
I314
sg48
I1692
sbag0
(g23
g2
Ntp3188
Rp3189
(dp3190
g27
(dp3191
g29
Vsecond
p3192
sg31
VDURATION
p3193
sg33
VJJ
p3194
sg35
I6
ssg10
I315
sg36
g4
sg37
(dp3195
sg39
(dp3196
sg41
I1693
sg42
g21
sg43
g21
sg44
I315
sg45
Vsecond
p3197
sg47
I315
sg48
I1699
sbag0
(g23
g2
Ntp3198
Rp3199
(dp3200
g27
(dp3201
g29
Vmother
p3202
sg31
VO
p3203
sg33
VNN
p3204
sg35
I7
ssg10
I316
sg36
g4
sg37
(dp3205
sg39
(dp3206
sg41
I1700
sg42
g21
sg43
g21
sg44
I316
sg45
Vmother
p3207
sg47
I316
sg48
I1706
sbag0
(g23
g2
Ntp3208
Rp3209
(dp3210
g27
(dp3211
g29
Vbe
p3212
sg31
VO
p3213
sg33
VVBP
p3214
sg35
I8
ssg10
I317
sg36
g4
sg37
(dp3215
sg39
(dp3216
sg41
I1707
sg42
g21
sg43
g21
sg44
I317
sg45
Vare
p3217
sg47
I317
sg48
I1710
sbag0
(g23
g2
Ntp3218
Rp3219
(dp3220
g27
(dp3221
g29
Vuse
p3222
sg31
VO
p3223
sg33
VVBN
p3224
sg35
I9
ssg10
I318
sg36
g4
sg37
(dp3225
sg39
(dp3226
sg41
I1711
sg42
g21
sg43
g21
sg44
I318
sg45
Vused
p3227
sg47
I318
sg48
I1715
sbag0
(g23
g2
Ntp3228
Rp3229
(dp3230
g27
(dp3231
g29
V.
p3232
sg31
VO
p3233
sg33
V.
p3234
sg35
I10
ssg10
I319
sg36
g4
sg37
(dp3235
sg39
(dp3236
sg41
I1715
sg42
g21
sg43
g21
sg44
I319
sg45
V.
p3237
sg47
I319
sg48
I1716
sbag0
(g23
g2
Ntp3238
Rp3239
(dp3240
g27
(dp3241
g29
Vthe
p3242
sg31
VO
p3243
sg33
VDT
p3244
sg35
I1
ssg10
I320
sg36
g4
sg37
(dp3245
sg39
(dp3246
sg41
I1717
sg42
g21
sg43
g21
sg44
I320
sg45
VThe
p3247
sg47
I320
sg48
I1720
sbag0
(g23
g2
Ntp3248
Rp3249
(dp3250
g27
(dp3251
g29
Vchild
p3252
sg31
VO
p3253
sg33
VNN
p3254
sg35
I2
ssg10
I321
sg36
g4
sg37
(dp3255
sg39
(dp3256
sg41
I1721
sg42
g21
sg43
g21
sg44
I321
sg45
Vchild
p3257
sg47
I321
sg48
I1726
sbag0
(g23
g2
Ntp3258
Rp3259
(dp3260
g27
(dp3261
g29
Vproduce
p3262
sg31
VO
p3263
sg33
VVBD
p3264
sg35
I3
ssg10
I322
sg36
g4
sg37
(dp3265
sg39
(dp3266
sg41
I1727
sg42
g21
sg43
g21
sg44
I322
sg45
Vproduced
p3267
sg47
I322
sg48
I1735
sbag0
(g23
g2
Ntp3268
Rp3269
(dp3270
g27
(dp3271
g29
Vthis
p3272
sg31
VO
p3273
sg33
VDT
p3274
sg35
I4
ssg10
I323
sg36
g4
sg37
(dp3275
sg39
(dp3276
sg41
I1736
sg42
g21
sg43
g21
sg44
I323
sg45
Vthis
p3277
sg47
I323
sg48
I1740
sbag0
(g23
g2
Ntp3278
Rp3279
(dp3280
g27
(dp3281
g29
Vway
p3282
sg31
VO
p3283
sg33
VNN
p3284
sg35
I5
ssg10
I324
sg36
g4
sg37
(dp3285
sg39
(dp3286
sg41
I1741
sg42
g21
sg43
g21
sg44
I324
sg45
Vway
p3287
sg47
I324
sg48
I1744
sbag0
(g23
g2
Ntp3288
Rp3289
(dp3290
g27
(dp3291
g29
Vhave
p3292
sg31
VO
p3293
sg33
VVBZ
p3294
sg35
I6
ssg10
I325
sg36
g4
sg37
(dp3295
sg39
(dp3296
sg41
I1745
sg42
g21
sg43
g21
sg44
I325
sg45
Vhas
p3297
sg47
I325
sg48
I1748
sbag0
(g23
g2
Ntp3298
Rp3299
(dp3300
g27
(dp3301
g29
Vgenetic
p3302
sg31
VO
p3303
sg33
VJJ
p3304
sg35
I7
ssg10
I326
sg36
g4
sg37
(dp3305
sg39
(dp3306
sg41
I1749
sg42
g21
sg43
g21
sg44
I326
sg45
Vgenetic
p3307
sg47
I326
sg48
I1756
sbag0
(g23
g2
Ntp3308
Rp3309
(dp3310
g27
(dp3311
g29
Vinformation
p3312
sg31
VO
p3313
sg33
VNN
p3314
sg35
I8
ssg10
I327
sg36
g4
sg37
(dp3315
sg39
(dp3316
sg41
I1757
sg42
g21
sg43
g21
sg44
I327
sg45
Vinformation
p3317
sg47
I327
sg48
I1768
sbag0
(g23
g2
Ntp3318
Rp3319
(dp3320
g27
(dp3321
g29
Vfrom
p3322
sg31
VO
p3323
sg33
VIN
p3324
sg35
I9
ssg10
I328
sg36
g4
sg37
(dp3325
sg39
(dp3326
sg41
I1769
sg42
g21
sg43
g21
sg44
I328
sg45
Vfrom
p3327
sg47
I328
sg48
I1773
sbag0
(g23
g2
Ntp3328
Rp3329
(dp3330
g27
(dp3331
g29
Vtwo
p3332
sg31
VNUMBER
p3333
sg33
VCD
p3334
sg35
I10
ssg10
I329
sg36
g4
sg37
(dp3335
sg39
(dp3336
sg41
I1774
sg42
g21
sg43
g21
sg44
I329
sg45
Vtwo
p3337
sg47
I329
sg48
I1777
sbag0
(g23
g2
Ntp3338
Rp3339
(dp3340
g27
(dp3341
g29
Vmother
p3342
sg31
VO
p3343
sg33
VNNS
p3344
sg35
I11
ssg10
I330
sg36
g4
sg37
(dp3345
sg39
(dp3346
sg41
I1778
sg42
g21
sg43
g21
sg44
I330
sg45
Vmothers
p3347
sg47
I330
sg48
I1785
sbag0
(g23
g2
Ntp3348
Rp3349
(dp3350
g27
(dp3351
g29
Vand
p3352
sg31
VO
p3353
sg33
VCC
p3354
sg35
I12
ssg10
I331
sg36
g4
sg37
(dp3355
sg39
(dp3356
sg41
I1786
sg42
g21
sg43
g21
sg44
I331
sg45
Vand
p3357
sg47
I331
sg48
I1789
sbag0
(g23
g2
Ntp3358
Rp3359
(dp3360
g27
(dp3361
g29
Vone
p3362
sg31
VNUMBER
p3363
sg33
VCD
p3364
sg35
I13
ssg10
I332
sg36
g4
sg37
(dp3365
sg39
(dp3366
sg41
I1790
sg42
g21
sg43
g21
sg44
I332
sg45
Vone
p3367
sg47
I332
sg48
I1793
sbag0
(g23
g2
Ntp3368
Rp3369
(dp3370
g27
(dp3371
g29
Vfather
p3372
sg31
VO
p3373
sg33
VNN
p3374
sg35
I14
ssg10
I333
sg36
g4
sg37
(dp3375
sg39
(dp3376
sg41
I1794
sg42
g21
sg43
g21
sg44
I333
sg45
Vfather
p3377
sg47
I333
sg48
I1800
sbag0
(g23
g2
Ntp3378
Rp3379
(dp3380
g27
(dp3381
g29
V-lsb-
p3382
sg31
VO
p3383
sg33
V-LRB-
p3384
sg35
I15
ssg10
I334
sg36
g4
sg37
(dp3385
sg39
(dp3386
sg41
I1801
sg42
g21
sg43
g21
sg44
I334
sg45
V[
p3387
sg47
I334
sg48
I1802
sbag0
(g23
g2
Ntp3388
Rp3389
(dp3390
g27
(dp3391
g29
Vref
p3392
sg31
VO
p3393
sg33
VNN
p3394
sg35
I16
ssg10
I335
sg36
g4
sg37
(dp3395
sg39
(dp3396
sg41
I1802
sg42
g21
sg43
g21
sg44
I335
sg45
VREF
p3397
sg47
I335
sg48
I1805
sbag0
(g23
g2
Ntp3398
Rp3399
(dp3400
g27
(dp3401
g29
V-rsb-
p3402
sg31
VO
p3403
sg33
V-RRB-
p3404
sg35
I17
ssg10
I336
sg36
g4
sg37
(dp3405
sg39
(dp3406
sg41
I1805
sg42
g21
sg43
g21
sg44
I336
sg45
V]
p3407
sg47
I336
sg48
I1806
sbag0
(g23
g2
Ntp3408
Rp3409
(dp3410
g27
(dp3411
g29
V.
p3412
sg31
VO
p3413
sg33
V.
p3414
sg35
I18
ssg10
I337
sg36
g4
sg37
(dp3415
sg39
(dp3416
sg41
I1806
sg42
g21
sg43
g21
sg44
I337
sg45
V.
p3417
sg47
I337
sg48
I1807
sbag0
(g23
g2
Ntp3418
Rp3419
(dp3420
g27
(dp3421
g29
Vthe
p3422
sg31
VO
p3423
sg33
VDT
p3424
sg35
I1
ssg10
I338
sg36
g4
sg37
(dp3425
sg39
(dp3426
sg41
I1808
sg42
g21
sg43
g21
sg44
I338
sg45
VThe
p3427
sg47
I338
sg48
I1811
sbag0
(g23
g2
Ntp3428
Rp3429
(dp3430
g27
(dp3431
g29
Vchange
p3432
sg31
VO
p3433
sg33
VNNS
p3434
sg35
I2
ssg10
I339
sg36
g4
sg37
(dp3435
sg39
(dp3436
sg41
I1812
sg42
g21
sg43
g21
sg44
I339
sg45
Vchanges
p3437
sg47
I339
sg48
I1819
sbag0
(g23
g2
Ntp3438
Rp3439
(dp3440
g27
(dp3441
g29
Vmake
p3442
sg31
VO
p3443
sg33
VVBN
p3444
sg35
I3
ssg10
I340
sg36
g4
sg37
(dp3445
sg39
(dp3446
sg41
I1820
sg42
g21
sg43
g21
sg44
I340
sg45
Vmade
p3447
sg47
I340
sg48
I1824
sbag0
(g23
g2
Ntp3448
Rp3449
(dp3450
g27
(dp3451
g29
Vbe
p3452
sg31
VO
p3453
sg33
VVBP
p3454
sg35
I4
ssg10
I341
sg36
g4
sg37
(dp3455
sg39
(dp3456
sg41
I1825
sg42
g21
sg43
g21
sg44
I341
sg45
Vare
p3457
sg47
I341
sg48
I1828
sbag0
(g23
g2
Ntp3458
Rp3459
(dp3460
g27
(dp3461
g29
Vgermline
p3462
sg31
VO
p3463
sg33
VNN
p3464
sg35
I5
ssg10
I342
sg36
g4
sg37
(dp3465
sg39
(dp3466
sg41
I1829
sg42
g21
sg43
g21
sg44
I342
sg45
Vgermline
p3467
sg47
I342
sg48
I1837
sbag0
(g23
g2
Ntp3468
Rp3469
(dp3470
g27
(dp3471
g29
Vchange
p3472
sg31
VO
p3473
sg33
VNNS
p3474
sg35
I6
ssg10
I343
sg36
g4
sg37
(dp3475
sg39
(dp3476
sg41
I1838
sg42
g21
sg43
g21
sg44
I343
sg45
Vchanges
p3477
sg47
I343
sg48
I1845
sbag0
(g23
g2
Ntp3478
Rp3479
(dp3480
g27
(dp3481
g29
Vand
p3482
sg31
VO
p3483
sg33
VCC
p3484
sg35
I7
ssg10
I344
sg36
g4
sg37
(dp3485
sg39
(dp3486
sg41
I1846
sg42
g21
sg43
g21
sg44
I344
sg45
Vand
p3487
sg47
I344
sg48
I1849
sbag0
(g23
g2
Ntp3488
Rp3489
(dp3490
g27
(dp3491
g29
Vwill
p3492
sg31
VO
p3493
sg33
VMD
p3494
sg35
I8
ssg10
I345
sg36
g4
sg37
(dp3495
sg39
(dp3496
sg41
I1850
sg42
g21
sg43
g21
sg44
I345
sg45
Vwill
p3497
sg47
I345
sg48
I1854
sbag0
(g23
g2
Ntp3498
Rp3499
(dp3500
g27
(dp3501
g29
Vlikely
p3502
sg31
VO
p3503
sg33
VRB
p3504
sg35
I9
ssg10
I346
sg36
g4
sg37
(dp3505
sg39
(dp3506
sg41
I1855
sg42
g21
sg43
g21
sg44
I346
sg45
Vlikely
p3507
sg47
I346
sg48
I1861
sbag0
(g23
g2
Ntp3508
Rp3509
(dp3510
g27
(dp3511
g29
Vbe
p3512
sg31
VO
p3513
sg33
VVB
p3514
sg35
I10
ssg10
I347
sg36
g4
sg37
(dp3515
sg39
(dp3516
sg41
I1862
sg42
g21
sg43
g21
sg44
I347
sg45
Vbe
p3517
sg47
I347
sg48
I1864
sbag0
(g23
g2
Ntp3518
Rp3519
(dp3520
g27
(dp3521
g29
Vpass
p3522
sg31
VO
p3523
sg33
VVBN
p3524
sg35
I11
ssg10
I348
sg36
g4
sg37
(dp3525
sg39
(dp3526
sg41
I1865
sg42
g21
sg43
g21
sg44
I348
sg45
Vpassed
p3527
sg47
I348
sg48
I1871
sbag0
(g23
g2
Ntp3528
Rp3529
(dp3530
g27
(dp3531
g29
Vdown
p3532
sg31
VO
p3533
sg33
VRP
p3534
sg35
I12
ssg10
I349
sg36
g4
sg37
(dp3535
sg39
(dp3536
sg41
I1872
sg42
g21
sg43
g21
sg44
I349
sg45
Vdown
p3537
sg47
I349
sg48
I1876
sbag0
(g23
g2
Ntp3538
Rp3539
(dp3540
g27
(dp3541
g29
Vfrom
p3542
sg31
VO
p3543
sg33
VIN
p3544
sg35
I13
ssg10
I350
sg36
g4
sg37
(dp3545
sg39
(dp3546
sg41
I1877
sg42
g21
sg43
g21
sg44
I350
sg45
Vfrom
p3547
sg47
I350
sg48
I1881
sbag0
(g23
g2
Ntp3548
Rp3549
(dp3550
g27
(dp3551
g29
Vgeneration
p3552
sg31
VO
p3553
sg33
VNN
p3554
sg35
I14
ssg10
I351
sg36
g4
sg37
(dp3555
sg39
(dp3556
sg41
I1882
sg42
g21
sg43
g21
sg44
I351
sg45
Vgeneration
p3557
sg47
I351
sg48
I1892
sbag0
(g23
g2
Ntp3558
Rp3559
(dp3560
g27
(dp3561
g29
Vto
p3562
sg31
VO
p3563
sg33
VTO
p3564
sg35
I15
ssg10
I352
sg36
g4
sg37
(dp3565
sg39
(dp3566
sg41
I1893
sg42
g21
sg43
g21
sg44
I352
sg45
Vto
p3567
sg47
I352
sg48
I1895
sbag0
(g23
g2
Ntp3568
Rp3569
(dp3570
g27
(dp3571
g29
Vgeneration
p3572
sg31
VO
p3573
sg33
VNN
p3574
sg35
I16
ssg10
I353
sg36
g4
sg37
(dp3575
sg39
(dp3576
sg41
I1896
sg42
g21
sg43
g21
sg44
I353
sg45
Vgeneration
p3577
sg47
I353
sg48
I1906
sbag0
(g23
g2
Ntp3578
Rp3579
(dp3580
g27
(dp3581
g29
V,
p3582
sg31
VO
p3583
sg33
V,
p3584
sg35
I17
ssg10
I354
sg36
g4
sg37
(dp3585
sg39
(dp3586
sg41
I1906
sg42
g21
sg43
g21
sg44
I354
sg45
V,
p3587
sg47
I354
sg48
I1907
sbag0
(g23
g2
Ntp3588
Rp3589
(dp3590
g27
(dp3591
g29
Vand
p3592
sg31
VO
p3593
sg33
VCC
p3594
sg35
I18
ssg10
I355
sg36
g4
sg37
(dp3595
sg39
(dp3596
sg41
I1908
sg42
g21
sg43
g21
sg44
I355
sg45
Vand
p3597
sg47
I355
sg48
I1911
sbag0
(g23
g2
Ntp3598
Rp3599
(dp3600
g27
(dp3601
g29
V,
p3602
sg31
VO
p3603
sg33
V,
p3604
sg35
I19
ssg10
I356
sg36
g4
sg37
(dp3605
sg39
(dp3606
sg41
I1911
sg42
g21
sg43
g21
sg44
I356
sg45
V,
p3607
sg47
I356
sg48
I1912
sbag0
(g23
g2
Ntp3608
Rp3609
(dp3610
g27
(dp3611
g29
Vthus
p3612
sg31
VO
p3613
sg33
VRB
p3614
sg35
I20
ssg10
I357
sg36
g4
sg37
(dp3615
sg39
(dp3616
sg41
I1913
sg42
g21
sg43
g21
sg44
I357
sg45
Vthus
p3617
sg47
I357
sg48
I1917
sbag0
(g23
g2
Ntp3618
Rp3619
(dp3620
g27
(dp3621
g29
V,
p3622
sg31
VO
p3623
sg33
V,
p3624
sg35
I21
ssg10
I358
sg36
g4
sg37
(dp3625
sg39
(dp3626
sg41
I1917
sg42
g21
sg43
g21
sg44
I358
sg45
V,
p3627
sg47
I358
sg48
I1918
sbag0
(g23
g2
Ntp3628
Rp3629
(dp3630
g27
(dp3631
g29
Vbe
p3632
sg31
VO
p3633
sg33
VVBP
p3634
sg35
I22
ssg10
I359
sg36
g4
sg37
(dp3635
sg39
(dp3636
sg41
I1919
sg42
g21
sg43
g21
sg44
I359
sg45
Vare
p3637
sg47
I359
sg48
I1922
sbag0
(g23
g2
Ntp3638
Rp3639
(dp3640
g27
(dp3641
g29
Va
p3642
sg31
VO
p3643
sg33
VDT
p3644
sg35
I23
ssg10
I360
sg36
g4
sg37
(dp3645
sg39
(dp3646
sg41
I1919
sg42
g21
sg43
g21
sg44
I360
sg45
Va
p3647
sg47
I360
sg48
I1920
sbag0
(g23
g2
Ntp3648
Rp3649
(dp3650
g27
(dp3651
g29
Vpermanent
p3652
sg31
VO
p3653
sg33
VJJ
p3654
sg35
I24
ssg10
I361
sg36
g4
sg37
(dp3655
sg39
(dp3656
sg41
I1925
sg42
g21
sg43
g21
sg44
I361
sg45
Vpermanent
p3657
sg47
I361
sg48
I1934
sbag0
(g23
g2
Ntp3658
Rp3659
(dp3660
g27
(dp3661
g29
Vchange
p3662
sg31
VO
p3663
sg33
VNN
p3664
sg35
I25
ssg10
I362
sg36
g4
sg37
(dp3665
sg39
(dp3666
sg41
I1935
sg42
g21
sg43
g21
sg44
I362
sg45
Vchange
p3667
sg47
I362
sg48
I1941
sbag0
(g23
g2
Ntp3668
Rp3669
(dp3670
g27
(dp3671
g29
Vto
p3672
sg31
VO
p3673
sg33
VTO
p3674
sg35
I26
ssg10
I363
sg36
g4
sg37
(dp3675
sg39
(dp3676
sg41
I1942
sg42
g21
sg43
g21
sg44
I363
sg45
Vto
p3677
sg47
I363
sg48
I1944
sbag0
(g23
g2
Ntp3678
Rp3679
(dp3680
g27
(dp3681
g29
Vthe
p3682
sg31
VO
p3683
sg33
VDT
p3684
sg35
I27
ssg10
I364
sg36
g4
sg37
(dp3685
sg39
(dp3686
sg41
I1945
sg42
g21
sg43
g21
sg44
I364
sg45
Vthe
p3687
sg47
I364
sg48
I1948
sbag0
(g23
g2
Ntp3688
Rp3689
(dp3690
g27
(dp3691
g29
Vhuman
p3692
sg31
VO
p3693
sg33
VJJ
p3694
sg35
I28
ssg10
I365
sg36
g4
sg37
(dp3695
sg39
(dp3696
sg41
I1949
sg42
g21
sg43
g21
sg44
I365
sg45
Vhuman
p3697
sg47
I365
sg48
I1954
sbag0
(g23
g2
Ntp3698
Rp3699
(dp3700
g27
(dp3701
g29
Vgenome
p3702
sg31
VO
p3703
sg33
VNN
p3704
sg35
I29
ssg10
I366
sg36
g4
sg37
(dp3705
sg39
(dp3706
sg41
I1955
sg42
g21
sg43
g21
sg44
I366
sg45
Vgenome
p3707
sg47
I366
sg48
I1961
sbag0
(g23
g2
Ntp3708
Rp3709
(dp3710
g27
(dp3711
g29
V-lsb-
p3712
sg31
VO
p3713
sg33
V-LRB-
p3714
sg35
I30
ssg10
I367
sg36
g4
sg37
(dp3715
sg39
(dp3716
sg41
I1962
sg42
g21
sg43
g21
sg44
I367
sg45
V[
p3717
sg47
I367
sg48
I1963
sbag0
(g23
g2
Ntp3718
Rp3719
(dp3720
g27
(dp3721
g29
Vref
p3722
sg31
VO
p3723
sg33
VNN
p3724
sg35
I31
ssg10
I368
sg36
g4
sg37
(dp3725
sg39
(dp3726
sg41
I1963
sg42
g21
sg43
g21
sg44
I368
sg45
VREF
p3727
sg47
I368
sg48
I1966
sbag0
(g23
g2
Ntp3728
Rp3729
(dp3730
g27
(dp3731
g29
V-rsb-
p3732
sg31
VO
p3733
sg33
V-RRB-
p3734
sg35
I32
ssg10
I369
sg36
g4
sg37
(dp3735
sg39
(dp3736
sg41
I1966
sg42
g21
sg43
g21
sg44
I369
sg45
V]
p3737
sg47
I369
sg48
I1967
sbag0
(g23
g2
Ntp3738
Rp3739
(dp3740
g27
(dp3741
g29
V.
p3742
sg31
VO
p3743
sg33
V.
p3744
sg35
I33
ssg10
I370
sg36
g4
sg37
(dp3745
sg39
(dp3746
sg41
I1967
sg42
g21
sg43
g21
sg44
I370
sg45
V.
p3747
sg47
I370
sg48
I1968
sbag0
(g23
g2
Ntp3748
Rp3749
(dp3750
g27
(dp3751
g29
Vother
p3752
sg31
VO
p3753
sg33
VJJ
p3754
sg35
I1
ssg10
I371
sg36
g4
sg37
(dp3755
sg39
(dp3756
sg41
I1971
sg42
g21
sg43
g21
sg44
I371
sg45
VOther
p3757
sg47
I371
sg48
I1976
sbag0
(g23
g2
Ntp3758
Rp3759
(dp3760
g27
(dp3761
g29
Vform
p3762
sg31
VO
p3763
sg33
VNNS
p3764
sg35
I2
ssg10
I372
sg36
g4
sg37
(dp3765
sg39
(dp3766
sg41
I1977
sg42
g21
sg43
g21
sg44
I372
sg45
Vforms
p3767
sg47
I372
sg48
I1982
sbag0
(g23
g2
Ntp3768
Rp3769
(dp3770
g27
(dp3771
g29
Vof
p3772
sg31
VO
p3773
sg33
VIN
p3774
sg35
I3
ssg10
I373
sg36
g4
sg37
(dp3775
sg39
(dp3776
sg41
I1983
sg42
g21
sg43
g21
sg44
I373
sg45
Vof
p3777
sg47
I373
sg48
I1985
sbag0
(g23
g2
Ntp3778
Rp3779
(dp3780
g27
(dp3781
g29
Vhuman
p3782
sg31
VO
p3783
sg33
VJJ
p3784
sg35
I4
ssg10
I374
sg36
g4
sg37
(dp3785
sg39
(dp3786
sg41
I1986
sg42
g21
sg43
g21
sg44
I374
sg45
Vhuman
p3787
sg47
I374
sg48
I1991
sbag0
(g23
g2
Ntp3788
Rp3789
(dp3790
g27
(dp3791
g29
Vgenetic
p3792
sg31
VO
p3793
sg33
VJJ
p3794
sg35
I5
ssg10
I375
sg36
g4
sg37
(dp3795
sg39
(dp3796
sg41
I1992
sg42
g21
sg43
g21
sg44
I375
sg45
Vgenetic
p3797
sg47
I375
sg48
I1999
sbag0
(g23
g2
Ntp3798
Rp3799
(dp3800
g27
(dp3801
g29
Vengineering
p3802
sg31
VO
p3803
sg33
VNN
p3804
sg35
I6
ssg10
I376
sg36
g4
sg37
(dp3805
sg39
(dp3806
sg41
I2000
sg42
g21
sg43
g21
sg44
I376
sg45
Vengineering
p3807
sg47
I376
sg48
I2011
sbag0
(g23
g2
Ntp3808
Rp3809
(dp3810
g27
(dp3811
g29
Vbe
p3812
sg31
VO
p3813
sg33
VVBP
p3814
sg35
I7
ssg10
I377
sg36
g4
sg37
(dp3815
sg39
(dp3816
sg41
I2012
sg42
g21
sg43
g21
sg44
I377
sg45
Vare
p3817
sg47
I377
sg48
I2015
sbag0
(g23
g2
Ntp3818
Rp3819
(dp3820
g27
(dp3821
g29
Vstill
p3822
sg31
VO
p3823
sg33
VRB
p3824
sg35
I8
ssg10
I378
sg36
g4
sg37
(dp3825
sg39
(dp3826
sg41
I2016
sg42
g21
sg43
g21
sg44
I378
sg45
Vstill
p3827
sg47
I378
sg48
I2021
sbag0
(g23
g2
Ntp3828
Rp3829
(dp3830
g27
(dp3831
g29
Vtheoretical
p3832
sg31
VO
p3833
sg33
VJJ
p3834
sg35
I9
ssg10
I379
sg36
g4
sg37
(dp3835
sg39
(dp3836
sg41
I2022
sg42
g21
sg43
g21
sg44
I379
sg45
Vtheoretical
p3837
sg47
I379
sg48
I2033
sbag0
(g23
g2
Ntp3838
Rp3839
(dp3840
g27
(dp3841
g29
V.
p3842
sg31
VO
p3843
sg33
V.
p3844
sg35
I10
ssg10
I380
sg36
g4
sg37
(dp3845
sg39
(dp3846
sg41
I2033
sg42
g21
sg43
g21
sg44
I380
sg45
V.
p3847
sg47
I380
sg48
I2034
sbag0
(g23
g2
Ntp3848
Rp3849
(dp3850
g27
(dp3851
g29
Vrecombinant
p3852
sg31
VO
p3853
sg33
VJJ
p3854
sg35
I1
ssg10
I381
sg36
g4
sg37
(dp3855
sg39
(dp3856
sg41
I2035
sg42
g21
sg43
g21
sg44
I381
sg45
VRecombinant
p3857
sg47
I381
sg48
I2046
sbag0
(g23
g2
Ntp3858
Rp3859
(dp3860
g27
(dp3861
g29
Vdna
p3862
sg31
VO
p3863
sg33
VNN
p3864
sg35
I2
ssg10
I382
sg36
g4
sg37
(dp3865
sg39
(dp3866
sg41
I2047
sg42
g21
sg43
g21
sg44
I382
sg45
VDNA
p3867
sg47
I382
sg48
I2050
sbag0
(g23
g2
Ntp3868
Rp3869
(dp3870
g27
(dp3871
g29
Vresearch
p3872
sg31
VO
p3873
sg33
VNN
p3874
sg35
I3
ssg10
I383
sg36
g4
sg37
(dp3875
sg39
(dp3876
sg41
I2051
sg42
g21
sg43
g21
sg44
I383
sg45
Vresearch
p3877
sg47
I383
sg48
I2059
sbag0
(g23
g2
Ntp3878
Rp3879
(dp3880
g27
(dp3881
g29
Vbe
p3882
sg31
VO
p3883
sg33
VVBZ
p3884
sg35
I4
ssg10
I384
sg36
g4
sg37
(dp3885
sg39
(dp3886
sg41
I2060
sg42
g21
sg43
g21
sg44
I384
sg45
Vis
p3887
sg47
I384
sg48
I2062
sbag0
(g23
g2
Ntp3888
Rp3889
(dp3890
g27
(dp3891
g29
Vusually
p3892
sg31
VO
p3893
sg33
VRB
p3894
sg35
I5
ssg10
I385
sg36
g4
sg37
(dp3895
sg39
(dp3896
sg41
I2063
sg42
g21
sg43
g21
sg44
I385
sg45
Vusually
p3897
sg47
I385
sg48
I2070
sbag0
(g23
g2
Ntp3898
Rp3899
(dp3900
g27
(dp3901
g29
Vperform
p3902
sg31
VO
p3903
sg33
VVBN
p3904
sg35
I6
ssg10
I386
sg36
g4
sg37
(dp3905
sg39
(dp3906
sg41
I2071
sg42
g21
sg43
g21
sg44
I386
sg45
Vperformed
p3907
sg47
I386
sg48
I2080
sbag0
(g23
g2
Ntp3908
Rp3909
(dp3910
g27
(dp3911
g29
Vto
p3912
sg31
VO
p3913
sg33
VTO
p3914
sg35
I7
ssg10
I387
sg36
g4
sg37
(dp3915
sg39
(dp3916
sg41
I2081
sg42
g21
sg43
g21
sg44
I387
sg45
Vto
p3917
sg47
I387
sg48
I2083
sbag0
(g23
g2
Ntp3918
Rp3919
(dp3920
g27
(dp3921
g29
Vstudy
p3922
sg31
VO
p3923
sg33
VVB
p3924
sg35
I8
ssg10
I388
sg36
g4
sg37
(dp3925
sg39
(dp3926
sg41
I2084
sg42
g21
sg43
g21
sg44
I388
sg45
Vstudy
p3927
sg47
I388
sg48
I2089
sbag0
(g23
g2
Ntp3928
Rp3929
(dp3930
g27
(dp3931
g29
Vgene
p3932
sg31
VO
p3933
sg33
VNN
p3934
sg35
I9
ssg10
I389
sg36
g4
sg37
(dp3935
sg39
(dp3936
sg41
I2090
sg42
g21
sg43
g21
sg44
I389
sg45
Vgene
p3937
sg47
I389
sg48
I2094
sbag0
(g23
g2
Ntp3938
Rp3939
(dp3940
g27
(dp3941
g29
Vexpression
p3942
sg31
VO
p3943
sg33
VNN
p3944
sg35
I10
ssg10
I390
sg36
g4
sg37
(dp3945
sg39
(dp3946
sg41
I2095
sg42
g21
sg43
g21
sg44
I390
sg45
Vexpression
p3947
sg47
I390
sg48
I2105
sbag0
(g23
g2
Ntp3948
Rp3949
(dp3950
g27
(dp3951
g29
Vand
p3952
sg31
VO
p3953
sg33
VCC
p3954
sg35
I11
ssg10
I391
sg36
g4
sg37
(dp3955
sg39
(dp3956
sg41
I2106
sg42
g21
sg43
g21
sg44
I391
sg45
Vand
p3957
sg47
I391
sg48
I2109
sbag0
(g23
g2
Ntp3958
Rp3959
(dp3960
g27
(dp3961
g29
Vvarious
p3962
sg31
VO
p3963
sg33
VJJ
p3964
sg35
I12
ssg10
I392
sg36
g4
sg37
(dp3965
sg39
(dp3966
sg41
I2110
sg42
g21
sg43
g21
sg44
I392
sg45
Vvarious
p3967
sg47
I392
sg48
I2117
sbag0
(g23
g2
Ntp3968
Rp3969
(dp3970
g27
(dp3971
g29
Vhuman
p3972
sg31
VO
p3973
sg33
VJJ
p3974
sg35
I13
ssg10
I393
sg36
g4
sg37
(dp3975
sg39
(dp3976
sg41
I2118
sg42
g21
sg43
g21
sg44
I393
sg45
Vhuman
p3977
sg47
I393
sg48
I2123
sbag0
(g23
g2
Ntp3978
Rp3979
(dp3980
g27
(dp3981
g29
Vdisease
p3982
sg31
VO
p3983
sg33
VNNS
p3984
sg35
I14
ssg10
I394
sg36
g4
sg37
(dp3985
sg39
(dp3986
sg41
I2124
sg42
g21
sg43
g21
sg44
I394
sg45
Vdiseases
p3987
sg47
I394
sg48
I2132
sbag0
(g23
g2
Ntp3988
Rp3989
(dp3990
g27
(dp3991
g29
V.
p3992
sg31
VO
p3993
sg33
V.
p3994
sg35
I15
ssg10
I395
sg36
g4
sg37
(dp3995
sg39
(dp3996
sg41
I2132
sg42
g21
sg43
g21
sg44
I395
sg45
V.
p3997
sg47
I395
sg48
I2133
sbag0
(g23
g2
Ntp3998
Rp3999
(dp4000
g27
(dp4001
g29
Vsome
p4002
sg31
VO
p4003
sg33
VDT
p4004
sg35
I1
ssg10
I396
sg36
g4
sg37
(dp4005
sg39
(dp4006
sg41
I2134
sg42
g21
sg43
g21
sg44
I396
sg45
VSome
p4007
sg47
I396
sg48
I2138
sbag0
(g23
g2
Ntp4008
Rp4009
(dp4010
g27
(dp4011
g29
Vdrastic
p4012
sg31
VO
p4013
sg33
VJJ
p4014
sg35
I2
ssg10
I397
sg36
g4
sg37
(dp4015
sg39
(dp4016
sg41
I2139
sg42
g21
sg43
g21
sg44
I397
sg45
Vdrastic
p4017
sg47
I397
sg48
I2146
sbag0
(g23
g2
Ntp4018
Rp4019
(dp4020
g27
(dp4021
g29
Vdemonstration
p4022
sg31
VO
p4023
sg33
VNNS
p4024
sg35
I3
ssg10
I398
sg36
g4
sg37
(dp4025
sg39
(dp4026
sg41
I2147
sg42
g21
sg43
g21
sg44
I398
sg45
Vdemonstrations
p4027
sg47
I398
sg48
I2161
sbag0
(g23
g2
Ntp4028
Rp4029
(dp4030
g27
(dp4031
g29
Vof
p4032
sg31
VO
p4033
sg33
VIN
p4034
sg35
I4
ssg10
I399
sg36
g4
sg37
(dp4035
sg39
(dp4036
sg41
I2162
sg42
g21
sg43
g21
sg44
I399
sg45
Vof
p4037
sg47
I399
sg48
I2164
sbag0
(g23
g2
Ntp4038
Rp4039
(dp4040
g27
(dp4041
g29
Vgene
p4042
sg31
VO
p4043
sg33
VNN
p4044
sg35
I5
ssg10
I400
sg36
g4
sg37
(dp4045
sg39
(dp4046
sg41
I2165
sg42
g21
sg43
g21
sg44
I400
sg45
Vgene
p4047
sg47
I400
sg48
I2169
sbag0
(g23
g2
Ntp4048
Rp4049
(dp4050
g27
(dp4051
g29
Vmodification
p4052
sg31
VO
p4053
sg33
VNN
p4054
sg35
I6
ssg10
I401
sg36
g4
sg37
(dp4055
sg39
(dp4056
sg41
I2170
sg42
g21
sg43
g21
sg44
I401
sg45
Vmodification
p4057
sg47
I401
sg48
I2182
sbag0
(g23
g2
Ntp4058
Rp4059
(dp4060
g27
(dp4061
g29
Vhave
p4062
sg31
VO
p4063
sg33
VVBP
p4064
sg35
I7
ssg10
I402
sg36
g4
sg37
(dp4065
sg39
(dp4066
sg41
I2183
sg42
g21
sg43
g21
sg44
I402
sg45
Vhave
p4067
sg47
I402
sg48
I2187
sbag0
(g23
g2
Ntp4068
Rp4069
(dp4070
g27
(dp4071
g29
Vbe
p4072
sg31
VO
p4073
sg33
VVBN
p4074
sg35
I8
ssg10
I403
sg36
g4
sg37
(dp4075
sg39
(dp4076
sg41
I2188
sg42
g21
sg43
g21
sg44
I403
sg45
Vbeen
p4077
sg47
I403
sg48
I2192
sbag0
(g23
g2
Ntp4078
Rp4079
(dp4080
g27
(dp4081
g29
Vmake
p4082
sg31
VO
p4083
sg33
VVBN
p4084
sg35
I9
ssg10
I404
sg36
g4
sg37
(dp4085
sg39
(dp4086
sg41
I2193
sg42
g21
sg43
g21
sg44
I404
sg45
Vmade
p4087
sg47
I404
sg48
I2197
sbag0
(g23
g2
Ntp4088
Rp4089
(dp4090
g27
(dp4091
g29
Vwith
p4092
sg31
VO
p4093
sg33
VIN
p4094
sg35
I10
ssg10
I405
sg36
g4
sg37
(dp4095
sg39
(dp4096
sg41
I2198
sg42
g21
sg43
g21
sg44
I405
sg45
Vwith
p4097
sg47
I405
sg48
I2202
sbag0
(g23
g2
Ntp4098
Rp4099
(dp4100
g27
(dp4101
g29
Vmouse
p4102
sg31
VO
p4103
sg33
VNNS
p4104
sg35
I11
ssg10
I406
sg36
g4
sg37
(dp4105
sg39
(dp4106
sg41
I2203
sg42
g21
sg43
g21
sg44
I406
sg45
Vmice
p4107
sg47
I406
sg48
I2207
sbag0
(g23
g2
Ntp4108
Rp4109
(dp4110
g27
(dp4111
g29
Vand
p4112
sg31
VO
p4113
sg33
VCC
p4114
sg35
I12
ssg10
I407
sg36
g4
sg37
(dp4115
sg39
(dp4116
sg41
I2208
sg42
g21
sg43
g21
sg44
I407
sg45
Vand
p4117
sg47
I407
sg48
I2211
sbag0
(g23
g2
Ntp4118
Rp4119
(dp4120
g27
(dp4121
g29
Vother
p4122
sg31
VO
p4123
sg33
VJJ
p4124
sg35
I13
ssg10
I408
sg36
g4
sg37
(dp4125
sg39
(dp4126
sg41
I2212
sg42
g21
sg43
g21
sg44
I408
sg45
Vother
p4127
sg47
I408
sg48
I2217
sbag0
(g23
g2
Ntp4128
Rp4129
(dp4130
g27
(dp4131
g29
Vanimal
p4132
sg31
VO
p4133
sg33
VNNS
p4134
sg35
I14
ssg10
I409
sg36
g4
sg37
(dp4135
sg39
(dp4136
sg41
I2218
sg42
g21
sg43
g21
sg44
I409
sg45
Vanimals
p4137
sg47
I409
sg48
I2225
sbag0
(g23
g2
Ntp4138
Rp4139
(dp4140
g27
(dp4141
g29
V.
p4142
sg31
VO
p4143
sg33
V.
p4144
sg35
I15
ssg10
I410
sg36
g4
sg37
(dp4145
sg39
(dp4146
sg41
I2225
sg42
g21
sg43
g21
sg44
I410
sg45
V.
p4147
sg47
I410
sg48
I2226
sbag0
(g23
g2
Ntp4148
Rp4149
(dp4150
g27
(dp4151
g29
Vin
p4152
sg31
VO
p4153
sg33
VIN
p4154
sg35
I1
ssg10
I411
sg36
g4
sg37
(dp4155
sg39
(dp4156
sg41
I2227
sg42
g21
sg43
g21
sg44
I411
sg45
VIn
p4157
sg47
I411
sg48
I2229
sbag0
(g23
g2
Ntp4158
Rp4159
(dp4160
g27
(dp4161
g29
Vsome
p4162
sg31
VO
p4163
sg33
VDT
p4164
sg35
I2
ssg10
I412
sg36
g4
sg37
(dp4165
sg39
(dp4166
sg41
I2230
sg42
g21
sg43
g21
sg44
I412
sg45
Vsome
p4167
sg47
I412
sg48
I2234
sbag0
(g23
g2
Ntp4168
Rp4169
(dp4170
g27
(dp4171
g29
Vinstance
p4172
sg31
VO
p4173
sg33
VNNS
p4174
sg35
I3
ssg10
I413
sg36
g4
sg37
(dp4175
sg39
(dp4176
sg41
I2235
sg42
g21
sg43
g21
sg44
I413
sg45
Vinstances
p4177
sg47
I413
sg48
I2244
sbag0
(g23
g2
Ntp4178
Rp4179
(dp4180
g27
(dp4181
g29
Vchange
p4182
sg31
VO
p4183
sg33
VNNS
p4184
sg35
I4
ssg10
I414
sg36
g4
sg37
(dp4185
sg39
(dp4186
sg41
I2245
sg42
g21
sg43
g21
sg44
I414
sg45
Vchanges
p4187
sg47
I414
sg48
I2252
sbag0
(g23
g2
Ntp4188
Rp4189
(dp4190
g27
(dp4191
g29
Vbe
p4192
sg31
VO
p4193
sg33
VVBP
p4194
sg35
I5
ssg10
I415
sg36
g4
sg37
(dp4195
sg39
(dp4196
sg41
I2253
sg42
g21
sg43
g21
sg44
I415
sg45
Vare
p4197
sg47
I415
sg48
I2256
sbag0
(g23
g2
Ntp4198
Rp4199
(dp4200
g27
(dp4201
g29
Vusually
p4202
sg31
VO
p4203
sg33
VRB
p4204
sg35
I6
ssg10
I416
sg36
g4
sg37
(dp4205
sg39
(dp4206
sg41
I2257
sg42
g21
sg43
g21
sg44
I416
sg45
Vusually
p4207
sg47
I416
sg48
I2264
sbag0
(g23
g2
Ntp4208
Rp4209
(dp4210
g27
(dp4211
g29
Vbring
p4212
sg31
VO
p4213
sg33
VVBN
p4214
sg35
I7
ssg10
I417
sg36
g4
sg37
(dp4215
sg39
(dp4216
sg41
I2265
sg42
g21
sg43
g21
sg44
I417
sg45
Vbrought
p4217
sg47
I417
sg48
I2272
sbag0
(g23
g2
Ntp4218
Rp4219
(dp4220
g27
(dp4221
g29
Vabout
p4222
sg31
VO
p4223
sg33
VRB
p4224
sg35
I8
ssg10
I418
sg36
g4
sg37
(dp4225
sg39
(dp4226
sg41
I2273
sg42
g21
sg43
g21
sg44
I418
sg45
Vabout
p4227
sg47
I418
sg48
I2278
sbag0
(g23
g2
Ntp4228
Rp4229
(dp4230
g27
(dp4231
g29
Vby
p4232
sg31
VO
p4233
sg33
VIN
p4234
sg35
I9
ssg10
I419
sg36
g4
sg37
(dp4235
sg39
(dp4236
sg41
I2279
sg42
g21
sg43
g21
sg44
I419
sg45
Vby
p4237
sg47
I419
sg48
I2281
sbag0
(g23
g2
Ntp4238
Rp4239
(dp4240
g27
(dp4241
g29
Vremove
p4242
sg31
VO
p4243
sg33
VVBG
p4244
sg35
I10
ssg10
I420
sg36
g4
sg37
(dp4245
sg39
(dp4246
sg41
I2282
sg42
g21
sg43
g21
sg44
I420
sg45
Vremoving
p4247
sg47
I420
sg48
I2290
sbag0
(g23
g2
Ntp4248
Rp4249
(dp4250
g27
(dp4251
g29
Vgenetic
p4252
sg31
VO
p4253
sg33
VJJ
p4254
sg35
I11
ssg10
I421
sg36
g4
sg37
(dp4255
sg39
(dp4256
sg41
I2291
sg42
g21
sg43
g21
sg44
I421
sg45
Vgenetic
p4257
sg47
I421
sg48
I2298
sbag0
(g23
g2
Ntp4258
Rp4259
(dp4260
g27
(dp4261
g29
Vmaterial
p4262
sg31
VO
p4263
sg33
VNN
p4264
sg35
I12
ssg10
I422
sg36
g4
sg37
(dp4265
sg39
(dp4266
sg41
I2299
sg42
g21
sg43
g21
sg44
I422
sg45
Vmaterial
p4267
sg47
I422
sg48
I2307
sbag0
(g23
g2
Ntp4268
Rp4269
(dp4270
g27
(dp4271
g29
Vfrom
p4272
sg31
VO
p4273
sg33
VIN
p4274
sg35
I13
ssg10
I423
sg36
g4
sg37
(dp4275
sg39
(dp4276
sg41
I2308
sg42
g21
sg43
g21
sg44
I423
sg45
Vfrom
p4277
sg47
I423
sg48
I2312
sbag0
(g23
g2
Ntp4278
Rp4279
(dp4280
g27
(dp4281
g29
Vone
p4282
sg31
VNUMBER
p4283
sg33
VCD
p4284
sg35
I14
ssg10
I424
sg36
g4
sg37
(dp4285
sg39
(dp4286
sg41
I2313
sg42
g21
sg43
g21
sg44
I424
sg45
Vone
p4287
sg47
I424
sg48
I2316
sbag0
(g23
g2
Ntp4288
Rp4289
(dp4290
g27
(dp4291
g29
Vorganism
p4292
sg31
VO
p4293
sg33
VNN
p4294
sg35
I15
ssg10
I425
sg36
g4
sg37
(dp4295
sg39
(dp4296
sg41
I2317
sg42
g21
sg43
g21
sg44
I425
sg45
Vorganism
p4297
sg47
I425
sg48
I2325
sbag0
(g23
g2
Ntp4298
Rp4299
(dp4300
g27
(dp4301
g29
Vand
p4302
sg31
VO
p4303
sg33
VCC
p4304
sg35
I16
ssg10
I426
sg36
g4
sg37
(dp4305
sg39
(dp4306
sg41
I2326
sg42
g21
sg43
g21
sg44
I426
sg45
Vand
p4307
sg47
I426
sg48
I2329
sbag0
(g23
g2
Ntp4308
Rp4309
(dp4310
g27
(dp4311
g29
Vtransfer
p4312
sg31
VO
p4313
sg33
VVBG
p4314
sg35
I17
ssg10
I427
sg36
g4
sg37
(dp4315
sg39
(dp4316
sg41
I2330
sg42
g21
sg43
g21
sg44
I427
sg45
Vtransferring
p4317
sg47
I427
sg48
I2342
sbag0
(g23
g2
Ntp4318
Rp4319
(dp4320
g27
(dp4321
g29
Vthey
p4322
sg31
VO
p4323
sg33
VPRP
p4324
sg35
I18
ssg10
I428
sg36
g4
sg37
(dp4325
sg39
(dp4326
sg41
I2343
sg42
g21
sg43
g21
sg44
I428
sg45
Vthem
p4327
sg47
I428
sg48
I2347
sbag0
(g23
g2
Ntp4328
Rp4329
(dp4330
g27
(dp4331
g29
Vinto
p4332
sg31
VO
p4333
sg33
VIN
p4334
sg35
I19
ssg10
I429
sg36
g4
sg37
(dp4335
sg39
(dp4336
sg41
I2348
sg42
g21
sg43
g21
sg44
I429
sg45
Vinto
p4337
sg47
I429
sg48
I2352
sbag0
(g23
g2
Ntp4338
Rp4339
(dp4340
g27
(dp4341
g29
Vanother
p4342
sg31
VO
p4343
sg33
VDT
p4344
sg35
I20
ssg10
I430
sg36
g4
sg37
(dp4345
sg39
(dp4346
sg41
I2353
sg42
g21
sg43
g21
sg44
I430
sg45
Vanother
p4347
sg47
I430
sg48
I2360
sbag0
(g23
g2
Ntp4348
Rp4349
(dp4350
g27
(dp4351
g29
Vspecies
p4352
sg31
VO
p4353
sg33
VNNS
p4354
sg35
I21
ssg10
I431
sg36
g4
sg37
(dp4355
sg39
(dp4356
sg41
I2361
sg42
g21
sg43
g21
sg44
I431
sg45
Vspecies
p4357
sg47
I431
sg48
I2368
sbag0
(g23
g2
Ntp4358
Rp4359
(dp4360
g27
(dp4361
g29
V.
p4362
sg31
VO
p4363
sg33
V.
p4364
sg35
I22
ssg10
I432
sg36
g4
sg37
(dp4365
sg39
(dp4366
sg41
I2368
sg42
g21
sg43
g21
sg44
I432
sg45
V.
p4367
sg47
I432
sg48
I2369
sbag0
(g23
g2
Ntp4368
Rp4369
(dp4370
g27
(dp4371
g29
Vthe
p4372
sg31
VO
p4373
sg33
VDT
p4374
sg35
I1
ssg10
I433
sg36
g4
sg37
(dp4375
sg39
(dp4376
sg41
I2371
sg42
g21
sg43
g21
sg44
I433
sg45
VThe
p4377
sg47
I433
sg48
I2374
sbag0
(g23
g2
Ntp4378
Rp4379
(dp4380
g27
(dp4381
g29
Vpotential
p4382
sg31
VO
p4383
sg33
VJJ
p4384
sg35
I2
ssg10
I434
sg36
g4
sg37
(dp4385
sg39
(dp4386
sg41
I2375
sg42
g21
sg43
g21
sg44
I434
sg45
Vpotential
p4387
sg47
I434
sg48
I2384
sbag0
(g23
g2
Ntp4388
Rp4389
(dp4390
g27
(dp4391
g29
Vto
p4392
sg31
VO
p4393
sg33
VTO
p4394
sg35
I3
ssg10
I435
sg36
g4
sg37
(dp4395
sg39
(dp4396
sg41
I2385
sg42
g21
sg43
g21
sg44
I435
sg45
Vto
p4397
sg47
I435
sg48
I2387
sbag0
(g23
g2
Ntp4398
Rp4399
(dp4400
g27
(dp4401
g29
Vgenetically
p4402
sg31
VO
p4403
sg33
VRB
p4404
sg35
I4
ssg10
I436
sg36
g4
sg37
(dp4405
sg39
(dp4406
sg41
I2388
sg42
g21
sg43
g21
sg44
I436
sg45
Vgenetically
p4407
sg47
I436
sg48
I2399
sbag0
(g23
g2
Ntp4408
Rp4409
(dp4410
g27
(dp4411
g29
Vengineer
p4412
sg31
VO
p4413
sg33
VVB
p4414
sg35
I5
ssg10
I437
sg36
g4
sg37
(dp4415
sg39
(dp4416
sg41
I2400
sg42
g21
sg43
g21
sg44
I437
sg45
Vengineer
p4417
sg47
I437
sg48
I2408
sbag0
(g23
g2
Ntp4418
Rp4419
(dp4420
g27
(dp4421
g29
Vhuman
p4422
sg31
VO
p4423
sg33
VNNS
p4424
sg35
I6
ssg10
I438
sg36
g4
sg37
(dp4425
sg39
(dp4426
sg41
I2409
sg42
g21
sg43
g21
sg44
I438
sg45
Vhumans
p4427
sg47
I438
sg48
I2415
sbag0
(g23
g2
Ntp4428
Rp4429
(dp4430
g27
(dp4431
g29
Vhave
p4432
sg31
VO
p4433
sg33
VVBZ
p4434
sg35
I7
ssg10
I439
sg36
g4
sg37
(dp4435
sg39
(dp4436
sg41
I2416
sg42
g21
sg43
g21
sg44
I439
sg45
Vhas
p4437
sg47
I439
sg48
I2419
sbag0
(g23
g2
Ntp4438
Rp4439
(dp4440
g27
(dp4441
g29
Vraise
p4442
sg31
VO
p4443
sg33
VVBN
p4444
sg35
I8
ssg10
I440
sg36
g4
sg37
(dp4445
sg39
(dp4446
sg41
I2420
sg42
g21
sg43
g21
sg44
I440
sg45
Vraised
p4447
sg47
I440
sg48
I2426
sbag0
(g23
g2
Ntp4448
Rp4449
(dp4450
g27
(dp4451
g29
Vmany
p4452
sg31
VO
p4453
sg33
VJJ
p4454
sg35
I9
ssg10
I441
sg36
g4
sg37
(dp4455
sg39
(dp4456
sg41
I2427
sg42
g21
sg43
g21
sg44
I441
sg45
Vmany
p4457
sg47
I441
sg48
I2431
sbag0
(g23
g2
Ntp4458
Rp4459
(dp4460
g27
(dp4461
g29
Vethical
p4462
sg31
VO
p4463
sg33
VJJ
p4464
sg35
I10
ssg10
I442
sg36
g4
sg37
(dp4465
sg39
(dp4466
sg41
I2432
sg42
g21
sg43
g21
sg44
I442
sg45
Vethical
p4467
sg47
I442
sg48
I2439
sbag0
(g23
g2
Ntp4468
Rp4469
(dp4470
g27
(dp4471
g29
Vissue
p4472
sg31
VO
p4473
sg33
VNNS
p4474
sg35
I11
ssg10
I443
sg36
g4
sg37
(dp4475
sg39
(dp4476
sg41
I2440
sg42
g21
sg43
g21
sg44
I443
sg45
Vissues
p4477
sg47
I443
sg48
I2446
sbag0
(g23
g2
Ntp4478
Rp4479
(dp4480
g27
(dp4481
g29
V.
p4482
sg31
VO
p4483
sg33
V.
p4484
sg35
I12
ssg10
I444
sg36
g4
sg37
(dp4485
sg39
(dp4486
sg41
I2446
sg42
g21
sg43
g21
sg44
I444
sg45
V.
p4487
sg47
I444
sg48
I2447
sbag0
(g23
g2
Ntp4488
Rp4489
(dp4490
g27
(dp4491
g29
Vthe
p4492
sg31
VO
p4493
sg33
VDT
p4494
sg35
I1
ssg10
I445
sg36
g4
sg37
(dp4495
sg39
(dp4496
sg41
I2448
sg42
g21
sg43
g21
sg44
I445
sg45
VThe
p4497
sg47
I445
sg48
I2451
sbag0
(g23
g2
Ntp4498
Rp4499
(dp4500
g27
(dp4501
g29
Vissue
p4502
sg31
VO
p4503
sg33
VNNS
p4504
sg35
I2
ssg10
I446
sg36
g4
sg37
(dp4505
sg39
(dp4506
sg41
I2452
sg42
g21
sg43
g21
sg44
I446
sg45
Vissues
p4507
sg47
I446
sg48
I2458
sbag0
(g23
g2
Ntp4508
Rp4509
(dp4510
g27
(dp4511
g29
Vrange
p4512
sg31
VO
p4513
sg33
VVBP
p4514
sg35
I3
ssg10
I447
sg36
g4
sg37
(dp4515
sg39
(dp4516
sg41
I2459
sg42
g21
sg43
g21
sg44
I447
sg45
Vrange
p4517
sg47
I447
sg48
I2464
sbag0
(g23
g2
Ntp4518
Rp4519
(dp4520
g27
(dp4521
g29
Vfrom
p4522
sg31
VO
p4523
sg33
VIN
p4524
sg35
I4
ssg10
I448
sg36
g4
sg37
(dp4525
sg39
(dp4526
sg41
I2465
sg42
g21
sg43
g21
sg44
I448
sg45
Vfrom
p4527
sg47
I448
sg48
I2469
sbag0
(g23
g2
Ntp4528
Rp4529
(dp4530
g27
(dp4531
g29
Va
p4532
sg31
VO
p4533
sg33
VDT
p4534
sg35
I5
ssg10
I449
sg36
g4
sg37
(dp4535
sg39
(dp4536
sg41
I2470
sg42
g21
sg43
g21
sg44
I449
sg45
Va
p4537
sg47
I449
sg48
I2471
sbag0
(g23
g2
Ntp4538
Rp4539
(dp4540
g27
(dp4541
g29
Vbelief
p4542
sg31
VO
p4543
sg33
VNN
p4544
sg35
I6
ssg10
I450
sg36
g4
sg37
(dp4545
sg39
(dp4546
sg41
I2472
sg42
g21
sg43
g21
sg44
I450
sg45
Vbelief
p4547
sg47
I450
sg48
I2478
sbag0
(g23
g2
Ntp4548
Rp4549
(dp4550
g27
(dp4551
g29
Vthat
p4552
sg31
VO
p4553
sg33
VIN
p4554
sg35
I7
ssg10
I451
sg36
g4
sg37
(dp4555
sg39
(dp4556
sg41
I2479
sg42
g21
sg43
g21
sg44
I451
sg45
Vthat
p4557
sg47
I451
sg48
I2483
sbag0
(g23
g2
Ntp4558
Rp4559
(dp4560
g27
(dp4561
g29
Vevery
p4562
sg31
VO
p4563
sg33
VDT
p4564
sg35
I8
ssg10
I452
sg36
g4
sg37
(dp4565
sg39
(dp4566
sg41
I2484
sg42
g21
sg43
g21
sg44
I452
sg45
Vevery
p4567
sg47
I452
sg48
I2489
sbag0
(g23
g2
Ntp4568
Rp4569
(dp4570
g27
(dp4571
g29
Vfetus
p4572
sg31
VO
p4573
sg33
VNN
p4574
sg35
I9
ssg10
I453
sg36
g4
sg37
(dp4575
sg39
(dp4576
sg41
I2490
sg42
g21
sg43
g21
sg44
I453
sg45
Vfetus
p4577
sg47
I453
sg48
I2495
sbag0
(g23
g2
Ntp4578
Rp4579
(dp4580
g27
(dp4581
g29
Vhave
p4582
sg31
VO
p4583
sg33
VVBZ
p4584
sg35
I10
ssg10
I454
sg36
g4
sg37
(dp4585
sg39
(dp4586
sg41
I2496
sg42
g21
sg43
g21
sg44
I454
sg45
Vhas
p4587
sg47
I454
sg48
I2499
sbag0
(g23
g2
Ntp4588
Rp4589
(dp4590
g27
(dp4591
g29
Va
p4592
sg31
VO
p4593
sg33
VDT
p4594
sg35
I11
ssg10
I455
sg36
g4
sg37
(dp4595
sg39
(dp4596
sg41
I2500
sg42
g21
sg43
g21
sg44
I455
sg45
Van
p4597
sg47
I455
sg48
I2502
sbag0
(g23
g2
Ntp4598
Rp4599
(dp4600
g27
(dp4601
g29
Vinherent
p4602
sg31
VO
p4603
sg33
VJJ
p4604
sg35
I12
ssg10
I456
sg36
g4
sg37
(dp4605
sg39
(dp4606
sg41
I2503
sg42
g21
sg43
g21
sg44
I456
sg45
Vinherent
p4607
sg47
I456
sg48
I2511
sbag0
(g23
g2
Ntp4608
Rp4609
(dp4610
g27
(dp4611
g29
Vright
p4612
sg31
VO
p4613
sg33
VNN
p4614
sg35
I13
ssg10
I457
sg36
g4
sg37
(dp4615
sg39
(dp4616
sg41
I2512
sg42
g21
sg43
g21
sg44
I457
sg45
Vright
p4617
sg47
I457
sg48
I2517
sbag0
(g23
g2
Ntp4618
Rp4619
(dp4620
g27
(dp4621
g29
Vto
p4622
sg31
VO
p4623
sg33
VTO
p4624
sg35
I14
ssg10
I458
sg36
g4
sg37
(dp4625
sg39
(dp4626
sg41
I2518
sg42
g21
sg43
g21
sg44
I458
sg45
Vto
p4627
sg47
I458
sg48
I2520
sbag0
(g23
g2
Ntp4628
Rp4629
(dp4630
g27
(dp4631
g29
Vremain
p4632
sg31
VO
p4633
sg33
VVB
p4634
sg35
I15
ssg10
I459
sg36
g4
sg37
(dp4635
sg39
(dp4636
sg41
I2521
sg42
g21
sg43
g21
sg44
I459
sg45
Vremain
p4637
sg47
I459
sg48
I2527
sbag0
(g23
g2
Ntp4638
Rp4639
(dp4640
g27
(dp4641
g29
Vgenetically
p4642
sg31
VO
p4643
sg33
VRB
p4644
sg35
I16
ssg10
I460
sg36
g4
sg37
(dp4645
sg39
(dp4646
sg41
I2528
sg42
g21
sg43
g21
sg44
I460
sg45
Vgenetically
p4647
sg47
I460
sg48
I2539
sbag0
(g23
g2
Ntp4648
Rp4649
(dp4650
g27
(dp4651
g29
Vunmodified
p4652
sg31
VO
p4653
sg33
VJJ
p4654
sg35
I17
ssg10
I461
sg36
g4
sg37
(dp4655
sg39
(dp4656
sg41
I2540
sg42
g21
sg43
g21
sg44
I461
sg45
Vunmodified
p4657
sg47
I461
sg48
I2550
sbag0
(g23
g2
Ntp4658
Rp4659
(dp4660
g27
(dp4661
g29
Vto
p4662
sg31
VO
p4663
sg33
VTO
p4664
sg35
I18
ssg10
I462
sg36
g4
sg37
(dp4665
sg39
(dp4666
sg41
I2551
sg42
g21
sg43
g21
sg44
I462
sg45
Vto
p4667
sg47
I462
sg48
I2553
sbag0
(g23
g2
Ntp4668
Rp4669
(dp4670
g27
(dp4671
g29
Va
p4672
sg31
VO
p4673
sg33
VDT
p4674
sg35
I19
ssg10
I463
sg36
g4
sg37
(dp4675
sg39
(dp4676
sg41
I2554
sg42
g21
sg43
g21
sg44
I463
sg45
Va
p4677
sg47
I463
sg48
I2555
sbag0
(g23
g2
Ntp4678
Rp4679
(dp4680
g27
(dp4681
g29
Vbelief
p4682
sg31
VO
p4683
sg33
VNN
p4684
sg35
I20
ssg10
I464
sg36
g4
sg37
(dp4685
sg39
(dp4686
sg41
I2556
sg42
g21
sg43
g21
sg44
I464
sg45
Vbelief
p4687
sg47
I464
sg48
I2562
sbag0
(g23
g2
Ntp4688
Rp4689
(dp4690
g27
(dp4691
g29
Vthat
p4692
sg31
VO
p4693
sg33
VWDT
p4694
sg35
I21
ssg10
I465
sg36
g4
sg37
(dp4695
sg39
(dp4696
sg41
I2563
sg42
g21
sg43
g21
sg44
I465
sg45
Vthat
p4697
sg47
I465
sg48
I2567
sbag0
(g23
g2
Ntp4698
Rp4699
(dp4700
g27
(dp4701
g29
Vparent
p4702
sg31
VO
p4703
sg33
VNNS
p4704
sg35
I22
ssg10
I466
sg36
g4
sg37
(dp4705
sg39
(dp4706
sg41
I2568
sg42
g21
sg43
g21
sg44
I466
sg45
Vparents
p4707
sg47
I466
sg48
I2575
sbag0
(g23
g2
Ntp4708
Rp4709
(dp4710
g27
(dp4711
g29
Vhold
p4712
sg31
VO
p4713
sg33
VVBP
p4714
sg35
I23
ssg10
I467
sg36
g4
sg37
(dp4715
sg39
(dp4716
sg41
I2576
sg42
g21
sg43
g21
sg44
I467
sg45
Vhold
p4717
sg47
I467
sg48
I2580
sbag0
(g23
g2
Ntp4718
Rp4719
(dp4720
g27
(dp4721
g29
Vthe
p4722
sg31
VO
p4723
sg33
VDT
p4724
sg35
I24
ssg10
I468
sg36
g4
sg37
(dp4725
sg39
(dp4726
sg41
I2581
sg42
g21
sg43
g21
sg44
I468
sg45
Vthe
p4727
sg47
I468
sg48
I2584
sbag0
(g23
g2
Ntp4728
Rp4729
(dp4730
g27
(dp4731
g29
Vrights
p4732
sg31
VO
p4733
sg33
VNNS
p4734
sg35
I25
ssg10
I469
sg36
g4
sg37
(dp4735
sg39
(dp4736
sg41
I2585
sg42
g21
sg43
g21
sg44
I469
sg45
Vrights
p4737
sg47
I469
sg48
I2591
sbag0
(g23
g2
Ntp4738
Rp4739
(dp4740
g27
(dp4741
g29
Vto
p4742
sg31
VO
p4743
sg33
VTO
p4744
sg35
I26
ssg10
I470
sg36
g4
sg37
(dp4745
sg39
(dp4746
sg41
I2592
sg42
g21
sg43
g21
sg44
I470
sg45
Vto
p4747
sg47
I470
sg48
I2594
sbag0
(g23
g2
Ntp4748
Rp4749
(dp4750
g27
(dp4751
g29
Vchange
p4752
sg31
VO
p4753
sg33
VVB
p4754
sg35
I27
ssg10
I471
sg36
g4
sg37
(dp4755
sg39
(dp4756
sg41
I2595
sg42
g21
sg43
g21
sg44
I471
sg45
Vchange
p4757
sg47
I471
sg48
I2601
sbag0
(g23
g2
Ntp4758
Rp4759
(dp4760
g27
(dp4761
g29
Vthey
p4762
sg31
VO
p4763
sg33
VPRP$
p4764
sg35
I28
ssg10
I472
sg36
g4
sg37
(dp4765
sg39
(dp4766
sg41
I2602
sg42
g21
sg43
g21
sg44
I472
sg45
Vtheir
p4767
sg47
I472
sg48
I2607
sbag0
(g23
g2
Ntp4768
Rp4769
(dp4770
g27
(dp4771
g29
Vunborn
p4772
sg31
VO
p4773
sg33
VJJ
p4774
sg35
I29
ssg10
I473
sg36
g4
sg37
(dp4775
sg39
(dp4776
sg41
I2608
sg42
g21
sg43
g21
sg44
I473
sg45
Vunborn
p4777
sg47
I473
sg48
I2614
sbag0
(g23
g2
Ntp4778
Rp4779
(dp4780
g27
(dp4781
g29
Vchild
p4782
sg31
VO
p4783
sg33
VNNS
p4784
sg35
I30
ssg10
I474
sg36
g4
sg37
(dp4785
sg39
(dp4786
sg41
I2615
sg42
g21
sg43
g21
sg44
I474
sg45
Vchildren
p4787
sg47
I474
sg48
I2623
sbag0
(g23
g2
Ntp4788
Rp4789
(dp4790
g27
(dp4791
g29
V-lsb-
p4792
sg31
VO
p4793
sg33
V-LRB-
p4794
sg35
I31
ssg10
I475
sg36
g4
sg37
(dp4795
sg39
(dp4796
sg41
I2624
sg42
g21
sg43
g21
sg44
I475
sg45
V[
p4797
sg47
I475
sg48
I2625
sbag0
(g23
g2
Ntp4798
Rp4799
(dp4800
g27
(dp4801
g29
Vref
p4802
sg31
VO
p4803
sg33
VNN
p4804
sg35
I32
ssg10
I476
sg36
g4
sg37
(dp4805
sg39
(dp4806
sg41
I2625
sg42
g21
sg43
g21
sg44
I476
sg45
VREF
p4807
sg47
I476
sg48
I2628
sbag0
(g23
g2
Ntp4808
Rp4809
(dp4810
g27
(dp4811
g29
V-rsb-
p4812
sg31
VO
p4813
sg33
V-RRB-
p4814
sg35
I33
ssg10
I477
sg36
g4
sg37
(dp4815
sg39
(dp4816
sg41
I2628
sg42
g21
sg43
g21
sg44
I477
sg45
V]
p4817
sg47
I477
sg48
I2629
sbag0
(g23
g2
Ntp4818
Rp4819
(dp4820
g27
(dp4821
g29
V.
p4822
sg31
VO
p4823
sg33
V.
p4824
sg35
I34
ssg10
I478
sg36
g4
sg37
(dp4825
sg39
(dp4826
sg41
I2629
sg42
g21
sg43
g21
sg44
I478
sg45
V.
p4827
sg47
I478
sg48
I2630
sbag0
(g23
g2
Ntp4828
Rp4829
(dp4830
g27
(dp4831
g29
Vin
p4832
sg31
VO
p4833
sg33
VIN
p4834
sg35
I1
ssg10
I479
sg36
g4
sg37
(dp4835
sg39
(dp4836
sg41
I2631
sg42
g21
sg43
g21
sg44
I479
sg45
VIn
p4837
sg47
I479
sg48
I2633
sbag0
(g23
g2
Ntp4838
Rp4839
(dp4840
g27
(dp4841
g29
Vthe
p4842
sg31
VO
p4843
sg33
VDT
p4844
sg35
I2
ssg10
I480
sg36
g4
sg37
(dp4845
sg39
(dp4846
sg41
I2634
sg42
g21
sg43
g21
sg44
I480
sg45
Vthe
p4847
sg47
I480
sg48
I2637
sbag0
(g23
g2
Ntp4848
Rp4849
(dp4850
g27
(dp4851
g29
Vmiddle
p4852
sg31
VO
p4853
sg33
VNN
p4854
sg35
I3
ssg10
I481
sg36
g4
sg37
(dp4855
sg39
(dp4856
sg41
I2638
sg42
g21
sg43
g21
sg44
I481
sg45
Vmiddle
p4857
sg47
I481
sg48
I2644
sbag0
(g23
g2
Ntp4858
Rp4859
(dp4860
g27
(dp4861
g29
Vbe
p4862
sg31
VO
p4863
sg33
VVBZ
p4864
sg35
I4
ssg10
I482
sg36
g4
sg37
(dp4865
sg39
(dp4866
sg41
I2645
sg42
g21
sg43
g21
sg44
I482
sg45
Vis
p4867
sg47
I482
sg48
I2647
sbag0
(g23
g2
Ntp4868
Rp4869
(dp4870
g27
(dp4871
g29
Vthe
p4872
sg31
VO
p4873
sg33
VDT
p4874
sg35
I5
ssg10
I483
sg36
g4
sg37
(dp4875
sg39
(dp4876
sg41
I2648
sg42
g21
sg43
g21
sg44
I483
sg45
Vthe
p4877
sg47
I483
sg48
I2651
sbag0
(g23
g2
Ntp4878
Rp4879
(dp4880
g27
(dp4881
g29
Vbelief
p4882
sg31
VO
p4883
sg33
VNN
p4884
sg35
I6
ssg10
I484
sg36
g4
sg37
(dp4885
sg39
(dp4886
sg41
I2652
sg42
g21
sg43
g21
sg44
I484
sg45
Vbelief
p4887
sg47
I484
sg48
I2658
sbag0
(g23
g2
Ntp4888
Rp4889
(dp4890
g27
(dp4891
g29
Vthat
p4892
sg31
VO
p4893
sg33
VIN
p4894
sg35
I7
ssg10
I485
sg36
g4
sg37
(dp4895
sg39
(dp4896
sg41
I2659
sg42
g21
sg43
g21
sg44
I485
sg45
Vthat
p4897
sg47
I485
sg48
I2663
sbag0
(g23
g2
Ntp4898
Rp4899
(dp4900
g27
(dp4901
g29
Vevery
p4902
sg31
VO
p4903
sg33
VDT
p4904
sg35
I8
ssg10
I486
sg36
g4
sg37
(dp4905
sg39
(dp4906
sg41
I2664
sg42
g21
sg43
g21
sg44
I486
sg45
Vevery
p4907
sg47
I486
sg48
I2669
sbag0
(g23
g2
Ntp4908
Rp4909
(dp4910
g27
(dp4911
g29
Vchild
p4912
sg31
VO
p4913
sg33
VNN
p4914
sg35
I9
ssg10
I487
sg36
g4
sg37
(dp4915
sg39
(dp4916
sg41
I2670
sg42
g21
sg43
g21
sg44
I487
sg45
Vchild
p4917
sg47
I487
sg48
I2675
sbag0
(g23
g2
Ntp4918
Rp4919
(dp4920
g27
(dp4921
g29
Vhave
p4922
sg31
VO
p4923
sg33
VVBZ
p4924
sg35
I10
ssg10
I488
sg36
g4
sg37
(dp4925
sg39
(dp4926
sg41
I2676
sg42
g21
sg43
g21
sg44
I488
sg45
Vhas
p4927
sg47
I488
sg48
I2679
sbag0
(g23
g2
Ntp4928
Rp4929
(dp4930
g27
(dp4931
g29
Vthe
p4932
sg31
VO
p4933
sg33
VDT
p4934
sg35
I11
ssg10
I489
sg36
g4
sg37
(dp4935
sg39
(dp4936
sg41
I2680
sg42
g21
sg43
g21
sg44
I489
sg45
Vthe
p4937
sg47
I489
sg48
I2683
sbag0
(g23
g2
Ntp4938
Rp4939
(dp4940
g27
(dp4941
g29
Vright
p4942
sg31
VO
p4943
sg33
VNN
p4944
sg35
I12
ssg10
I490
sg36
g4
sg37
(dp4945
sg39
(dp4946
sg41
I2684
sg42
g21
sg43
g21
sg44
I490
sg45
Vright
p4947
sg47
I490
sg48
I2689
sbag0
(g23
g2
Ntp4948
Rp4949
(dp4950
g27
(dp4951
g29
Vto
p4952
sg31
VO
p4953
sg33
VTO
p4954
sg35
I13
ssg10
I491
sg36
g4
sg37
(dp4955
sg39
(dp4956
sg41
I2690
sg42
g21
sg43
g21
sg44
I491
sg45
Vto
p4957
sg47
I491
sg48
I2692
sbag0
(g23
g2
Ntp4958
Rp4959
(dp4960
g27
(dp4961
g29
Vbe
p4962
sg31
VO
p4963
sg33
VVB
p4964
sg35
I14
ssg10
I492
sg36
g4
sg37
(dp4965
sg39
(dp4966
sg41
I2693
sg42
g21
sg43
g21
sg44
I492
sg45
Vbe
p4967
sg47
I492
sg48
I2695
sbag0
(g23
g2
Ntp4968
Rp4969
(dp4970
g27
(dp4971
g29
Vbear
p4972
sg31
VO
p4973
sg33
VVBN
p4974
sg35
I15
ssg10
I493
sg36
g4
sg37
(dp4975
sg39
(dp4976
sg41
I2696
sg42
g21
sg43
g21
sg44
I493
sg45
Vborn
p4977
sg47
I493
sg48
I2700
sbag0
(g23
g2
Ntp4978
Rp4979
(dp4980
g27
(dp4981
g29
Vfree
p4982
sg31
VO
p4983
sg33
VJJ
p4984
sg35
I16
ssg10
I494
sg36
g4
sg37
(dp4985
sg39
(dp4986
sg41
I2701
sg42
g21
sg43
g21
sg44
I494
sg45
Vfree
p4987
sg47
I494
sg48
I2705
sbag0
(g23
g2
Ntp4988
Rp4989
(dp4990
g27
(dp4991
g29
Vfrom
p4992
sg31
VO
p4993
sg33
VIN
p4994
sg35
I17
ssg10
I495
sg36
g4
sg37
(dp4995
sg39
(dp4996
sg41
I2706
sg42
g21
sg43
g21
sg44
I495
sg45
Vfrom
p4997
sg47
I495
sg48
I2710
sbag0
(g23
g2
Ntp4998
Rp4999
(dp5000
g27
(dp5001
g29
Vpreventable
p5002
sg31
VO
p5003
sg33
VJJ
p5004
sg35
I18
ssg10
I496
sg36
g4
sg37
(dp5005
sg39
(dp5006
sg41
I2711
sg42
g21
sg43
g21
sg44
I496
sg45
Vpreventable
p5007
sg47
I496
sg48
I2722
sbag0
(g23
g2
Ntp5008
Rp5009
(dp5010
g27
(dp5011
g29
Vdisease
p5012
sg31
VO
p5013
sg33
VNNS
p5014
sg35
I19
ssg10
I497
sg36
g4
sg37
(dp5015
sg39
(dp5016
sg41
I2723
sg42
g21
sg43
g21
sg44
I497
sg45
Vdiseases
p5017
sg47
I497
sg48
I2731
sbag0
(g23
g2
Ntp5018
Rp5019
(dp5020
g27
(dp5021
g29
V.
p5022
sg31
VO
p5023
sg33
V.
p5024
sg35
I20
ssg10
I498
sg36
g4
sg37
(dp5025
sg39
(dp5026
sg41
I2731
sg42
g21
sg43
g21
sg44
I498
sg45
V.
p5027
sg47
I498
sg48
I2732
sbag0
(g23
g2
Ntp5028
Rp5029
(dp5030
g27
(dp5031
g29
Vmolecular
p5032
sg31
VO
p5033
sg33
VJJ
p5034
sg35
I1
ssg10
I499
sg36
g4
sg37
(dp5035
sg39
(dp5036
sg41
I2735
sg42
g21
sg43
g21
sg44
I499
sg45
VMolecular
p5037
sg47
I499
sg48
I2744
sbag0
(g23
g2
Ntp5038
Rp5039
(dp5040
g27
(dp5041
g29
VBiologist
p5042
sg31
VO
p5043
sg33
VNNP
p5044
sg35
I2
ssg10
I500
sg36
g4
sg37
(dp5045
sg39
(dp5046
sg41
I2745
sg42
g21
sg43
g21
sg44
I500
sg45
VBiologist
p5047
sg47
I500
sg48
I2754
sbag0
(g23
g2
Ntp5048
Rp5049
(dp5050
g27
(dp5051
g29
VLee
p5052
sg31
VPERSON
p5053
sg33
VNNP
p5054
sg35
I3
ssg10
I501
sg36
g4
sg37
(dp5055
sg39
(dp5056
sg41
I2755
sg42
g21
sg43
g21
sg44
I501
sg45
VLee
p5057
sg47
I501
sg48
I2758
sbag0
(g23
g2
Ntp5058
Rp5059
(dp5060
g27
(dp5061
g29
VM.
p5062
sg31
VPERSON
p5063
sg33
VNNP
p5064
sg35
I4
ssg10
I502
sg36
g4
sg37
(dp5065
sg39
(dp5066
sg41
I2759
sg42
g21
sg43
g21
sg44
I502
sg45
VM.
p5067
sg47
I502
sg48
I2761
sbag0
(g23
g2
Ntp5068
Rp5069
(dp5070
g27
(dp5071
g29
VSilver
p5072
sg31
VPERSON
p5073
sg33
VNNP
p5074
sg35
I5
ssg10
I503
sg36
g4
sg37
(dp5075
sg39
(dp5076
sg41
I2762
sg42
g21
sg43
g21
sg44
I503
sg45
VSilver
p5077
sg47
I503
sg48
I2768
sbag0
(g23
g2
Ntp5078
Rp5079
(dp5080
g27
(dp5081
g29
Vbelieve
p5082
sg31
VO
p5083
sg33
VVBZ
p5084
sg35
I6
ssg10
I504
sg36
g4
sg37
(dp5085
sg39
(dp5086
sg41
I2769
sg42
g21
sg43
g21
sg44
I504
sg45
Vbelieves
p5087
sg47
I504
sg48
I2777
sbag0
(g23
g2
Ntp5088
Rp5089
(dp5090
g27
(dp5091
g29
Vthat
p5092
sg31
VO
p5093
sg33
VIN
p5094
sg35
I7
ssg10
I505
sg36
g4
sg37
(dp5095
sg39
(dp5096
sg41
I2778
sg42
g21
sg43
g21
sg44
I505
sg45
Vthat
p5097
sg47
I505
sg48
I2782
sbag0
(g23
g2
Ntp5098
Rp5099
(dp5100
g27
(dp5101
g29
Vunlike
p5102
sg31
VO
p5103
sg33
VIN
p5104
sg35
I8
ssg10
I506
sg36
g4
sg37
(dp5105
sg39
(dp5106
sg41
I2783
sg42
g21
sg43
g21
sg44
I506
sg45
Vunlike
p5107
sg47
I506
sg48
I2789
sbag0
(g23
g2
Ntp5108
Rp5109
(dp5110
g27
(dp5111
g29
VAldous
p5112
sg31
VLOCATION
p5113
sg33
VNNP
p5114
sg35
I9
ssg10
I507
sg36
g4
sg37
(dp5115
sg39
(dp5116
sg41
I2790
sg42
g21
sg43
g21
sg44
I507
sg45
VAldous
p5117
sg47
I507
sg48
I2796
sbag0
(g23
g2
Ntp5118
Rp5119
(dp5120
g27
(dp5121
g29
VHuxley
p5122
sg31
VLOCATION
p5123
sg33
VNNP
p5124
sg35
I10
ssg10
I508
sg36
g4
sg37
(dp5125
sg39
(dp5126
sg41
I2797
sg42
g21
sg43
g21
sg44
I508
sg45
VHuxley
p5127
sg47
I508
sg48
I2803
sbag0
(g23
g2
Ntp5128
Rp5129
(dp5130
g27
(dp5131
g29
V's
p5132
sg31
VO
p5133
sg33
VPOS
p5134
sg35
I11
ssg10
I509
sg36
g4
sg37
(dp5135
sg39
(dp5136
sg41
I2803
sg42
g21
sg43
g21
sg44
I509
sg45
V\u2019s
p5137
sg47
I509
sg48
I2805
sbag0
(g23
g2
Ntp5138
Rp5139
(dp5140
g27
(dp5141
g29
VBrave
p5142
sg31
VLOCATION
p5143
sg33
VNNP
p5144
sg35
I12
ssg10
I510
sg36
g4
sg37
(dp5145
sg39
(dp5146
sg41
I2806
sg42
g21
sg43
g21
sg44
I510
sg45
VBrave
p5147
sg47
I510
sg48
I2811
sbag0
(g23
g2
Ntp5148
Rp5149
(dp5150
g27
(dp5151
g29
VNew
p5152
sg31
VLOCATION
p5153
sg33
VNNP
p5154
sg35
I13
ssg10
I511
sg36
g4
sg37
(dp5155
sg39
(dp5156
sg41
I2812
sg42
g21
sg43
g21
sg44
I511
sg45
VNew
p5157
sg47
I511
sg48
I2815
sbag0
(g23
g2
Ntp5158
Rp5159
(dp5160
g27
(dp5161
g29
VWorld
p5162
sg31
VLOCATION
p5163
sg33
VNNP
p5164
sg35
I14
ssg10
I512
sg36
g4
sg37
(dp5165
sg39
(dp5166
sg41
I2816
sg42
g21
sg43
g21
sg44
I512
sg45
VWorld
p5167
sg47
I512
sg48
I2821
sbag0
(g23
g2
Ntp5168
Rp5169
(dp5170
g27
(dp5171
g29
V,
p5172
sg31
VO
p5173
sg33
V,
p5174
sg35
I15
ssg10
I513
sg36
g4
sg37
(dp5175
sg39
(dp5176
sg41
I2821
sg42
g21
sg43
g21
sg44
I513
sg45
V,
p5177
sg47
I513
sg48
I2822
sbag0
(g23
g2
Ntp5178
Rp5179
(dp5180
g27
(dp5181
g29
Vwhere
p5182
sg31
VO
p5183
sg33
VWRB
p5184
sg35
I16
ssg10
I514
sg36
g4
sg37
(dp5185
sg39
(dp5186
sg41
I2823
sg42
g21
sg43
g21
sg44
I514
sg45
Vwhere
p5187
sg47
I514
sg48
I2828
sbag0
(g23
g2
Ntp5188
Rp5189
(dp5190
g27
(dp5191
g29
Va
p5192
sg31
VO
p5193
sg33
VDT
p5194
sg35
I17
ssg10
I515
sg36
g4
sg37
(dp5195
sg39
(dp5196
sg41
I2829
sg42
g21
sg43
g21
sg44
I515
sg45
Va
p5197
sg47
I515
sg48
I2830
sbag0
(g23
g2
Ntp5198
Rp5199
(dp5200
g27
(dp5201
g29
Vtotalitarian
p5202
sg31
VMISC
p5203
sg33
VJJ
p5204
sg35
I18
ssg10
I516
sg36
g4
sg37
(dp5205
sg39
(dp5206
sg41
I2831
sg42
g21
sg43
g21
sg44
I516
sg45
Vtotalitarian
p5207
sg47
I516
sg48
I2843
sbag0
(g23
g2
Ntp5208
Rp5209
(dp5210
g27
(dp5211
g29
Vgovernment
p5212
sg31
VO
p5213
sg33
VNN
p5214
sg35
I19
ssg10
I517
sg36
g4
sg37
(dp5215
sg39
(dp5216
sg41
I2844
sg42
g21
sg43
g21
sg44
I517
sg45
Vgovernment
p5217
sg47
I517
sg48
I2854
sbag0
(g23
g2
Ntp5218
Rp5219
(dp5220
g27
(dp5221
g29
Vuse
p5222
sg31
VO
p5223
sg33
VNN
p5224
sg35
I20
ssg10
I518
sg36
g4
sg37
(dp5225
sg39
(dp5226
sg41
I2855
sg42
g21
sg43
g21
sg44
I518
sg45
Vuse
p5227
sg47
I518
sg48
I2858
sbag0
(g23
g2
Ntp5228
Rp5229
(dp5230
g27
(dp5231
g29
Veugenics
p5232
sg31
VO
p5233
sg33
VNNS
p5234
sg35
I21
ssg10
I519
sg36
g4
sg37
(dp5235
sg39
(dp5236
sg41
I2859
sg42
g21
sg43
g21
sg44
I519
sg45
Veugenics
p5237
sg47
I519
sg48
I2867
sbag0
(g23
g2
Ntp5238
Rp5239
(dp5240
g27
(dp5241
g29
Vto
p5242
sg31
VO
p5243
sg33
VTO
p5244
sg35
I22
ssg10
I520
sg36
g4
sg37
(dp5245
sg39
(dp5246
sg41
I2868
sg42
g21
sg43
g21
sg44
I520
sg45
Vto
p5247
sg47
I520
sg48
I2870
sbag0
(g23
g2
Ntp5248
Rp5249
(dp5250
g27
(dp5251
g29
Vcontrol
p5252
sg31
VO
p5253
sg33
VVB
p5254
sg35
I23
ssg10
I521
sg36
g4
sg37
(dp5255
sg39
(dp5256
sg41
I2871
sg42
g21
sg43
g21
sg44
I521
sg45
Vcontrol
p5257
sg47
I521
sg48
I2878
sbag0
(g23
g2
Ntp5258
Rp5259
(dp5260
g27
(dp5261
g29
Vthe
p5262
sg31
VO
p5263
sg33
VDT
p5264
sg35
I24
ssg10
I522
sg36
g4
sg37
(dp5265
sg39
(dp5266
sg41
I2879
sg42
g21
sg43
g21
sg44
I522
sg45
Vthe
p5267
sg47
I522
sg48
I2882
sbag0
(g23
g2
Ntp5268
Rp5269
(dp5270
g27
(dp5271
g29
Vgenetic
p5272
sg31
VO
p5273
sg33
VJJ
p5274
sg35
I25
ssg10
I523
sg36
g4
sg37
(dp5275
sg39
(dp5276
sg41
I2883
sg42
g21
sg43
g21
sg44
I523
sg45
Vgenetic
p5277
sg47
I523
sg48
I2890
sbag0
(g23
g2
Ntp5278
Rp5279
(dp5280
g27
(dp5281
g29
Vmakeup
p5282
sg31
VO
p5283
sg33
VNN
p5284
sg35
I26
ssg10
I524
sg36
g4
sg37
(dp5285
sg39
(dp5286
sg41
I2891
sg42
g21
sg43
g21
sg44
I524
sg45
Vmakeup
p5287
sg47
I524
sg48
I2897
sbag0
(g23
g2
Ntp5288
Rp5289
(dp5290
g27
(dp5291
g29
Vwithin
p5292
sg31
VO
p5293
sg33
VIN
p5294
sg35
I27
ssg10
I525
sg36
g4
sg37
(dp5295
sg39
(dp5296
sg41
I2898
sg42
g21
sg43
g21
sg44
I525
sg45
Vwithin
p5297
sg47
I525
sg48
I2904
sbag0
(g23
g2
Ntp5298
Rp5299
(dp5300
g27
(dp5301
g29
Vsociety
p5302
sg31
VO
p5303
sg33
VNN
p5304
sg35
I28
ssg10
I526
sg36
g4
sg37
(dp5305
sg39
(dp5306
sg41
I2905
sg42
g21
sg43
g21
sg44
I526
sg45
Vsociety
p5307
sg47
I526
sg48
I2912
sbag0
(g23
g2
Ntp5308
Rp5309
(dp5310
g27
(dp5311
g29
V,
p5312
sg31
VO
p5313
sg33
V,
p5314
sg35
I29
ssg10
I527
sg36
g4
sg37
(dp5315
sg39
(dp5316
sg41
I2912
sg42
g21
sg43
g21
sg44
I527
sg45
V,
p5317
sg47
I527
sg48
I2913
sbag0
(g23
g2
Ntp5318
Rp5319
(dp5320
g27
(dp5321
g29
Vthe
p5322
sg31
VO
p5323
sg33
VDT
p5324
sg35
I30
ssg10
I528
sg36
g4
sg37
(dp5325
sg39
(dp5326
sg41
I2914
sg42
g21
sg43
g21
sg44
I528
sg45
Vthe
p5327
sg47
I528
sg48
I2917
sbag0
(g23
g2
Ntp5328
Rp5329
(dp5330
g27
(dp5331
g29
Vuse
p5332
sg31
VO
p5333
sg33
VNN
p5334
sg35
I31
ssg10
I529
sg36
g4
sg37
(dp5335
sg39
(dp5336
sg41
I2918
sg42
g21
sg43
g21
sg44
I529
sg45
Vuse
p5337
sg47
I529
sg48
I2921
sbag0
(g23
g2
Ntp5338
Rp5339
(dp5340
g27
(dp5341
g29
Vof
p5342
sg31
VO
p5343
sg33
VIN
p5344
sg35
I32
ssg10
I530
sg36
g4
sg37
(dp5345
sg39
(dp5346
sg41
I2922
sg42
g21
sg43
g21
sg44
I530
sg45
Vof
p5347
sg47
I530
sg48
I2924
sbag0
(g23
g2
Ntp5348
Rp5349
(dp5350
g27
(dp5351
g29
Vgene
p5352
sg31
VO
p5353
sg33
VNN
p5354
sg35
I33
ssg10
I531
sg36
g4
sg37
(dp5355
sg39
(dp5356
sg41
I2925
sg42
g21
sg43
g21
sg44
I531
sg45
Vgene
p5357
sg47
I531
sg48
I2929
sbag0
(g23
g2
Ntp5358
Rp5359
(dp5360
g27
(dp5361
g29
Vtherapy
p5362
sg31
VO
p5363
sg33
VNN
p5364
sg35
I34
ssg10
I532
sg36
g4
sg37
(dp5365
sg39
(dp5366
sg41
I2930
sg42
g21
sg43
g21
sg44
I532
sg45
Vtherapy
p5367
sg47
I532
sg48
I2937
sbag0
(g23
g2
Ntp5368
Rp5369
(dp5370
g27
(dp5371
g29
Vto
p5372
sg31
VO
p5373
sg33
VTO
p5374
sg35
I35
ssg10
I533
sg36
g4
sg37
(dp5375
sg39
(dp5376
sg41
I2938
sg42
g21
sg43
g21
sg44
I533
sg45
Vto
p5377
sg47
I533
sg48
I2940
sbag0
(g23
g2
Ntp5378
Rp5379
(dp5380
g27
(dp5381
g29
Vdesign
p5382
sg31
VO
p5383
sg33
VVB
p5384
sg35
I36
ssg10
I534
sg36
g4
sg37
(dp5385
sg39
(dp5386
sg41
I2941
sg42
g21
sg43
g21
sg44
I534
sg45
Vdesign
p5387
sg47
I534
sg48
I2947
sbag0
(g23
g2
Ntp5388
Rp5389
(dp5390
g27
(dp5391
g29
Vchild
p5392
sg31
VO
p5393
sg33
VNNS
p5394
sg35
I37
ssg10
I535
sg36
g4
sg37
(dp5395
sg39
(dp5396
sg41
I2948
sg42
g21
sg43
g21
sg44
I535
sg45
Vchildren
p5397
sg47
I535
sg48
I2956
sbag0
(g23
g2
Ntp5398
Rp5399
(dp5400
g27
(dp5401
g29
Vwill
p5402
sg31
VO
p5403
sg33
VMD
p5404
sg35
I38
ssg10
I536
sg36
g4
sg37
(dp5405
sg39
(dp5406
sg41
I2957
sg42
g21
sg43
g21
sg44
I536
sg45
Vwill
p5407
sg47
I536
sg48
I2961
sbag0
(g23
g2
Ntp5408
Rp5409
(dp5410
g27
(dp5411
g29
Vbe
p5412
sg31
VO
p5413
sg33
VVB
p5414
sg35
I39
ssg10
I537
sg36
g4
sg37
(dp5415
sg39
(dp5416
sg41
I2962
sg42
g21
sg43
g21
sg44
I537
sg45
Vbe
p5417
sg47
I537
sg48
I2964
sbag0
(g23
g2
Ntp5418
Rp5419
(dp5420
g27
(dp5421
g29
Vspread
p5422
sg31
VO
p5423
sg33
VVBN
p5424
sg35
I40
ssg10
I538
sg36
g4
sg37
(dp5425
sg39
(dp5426
sg41
I2965
sg42
g21
sg43
g21
sg44
I538
sg45
Vspread
p5427
sg47
I538
sg48
I2971
sbag0
(g23
g2
Ntp5428
Rp5429
(dp5430
g27
(dp5431
g29
Vthrough
p5432
sg31
VO
p5433
sg33
VIN
p5434
sg35
I41
ssg10
I539
sg36
g4
sg37
(dp5435
sg39
(dp5436
sg41
I2972
sg42
g21
sg43
g21
sg44
I539
sg45
Vthrough
p5437
sg47
I539
sg48
I2979
sbag0
(g23
g2
Ntp5438
Rp5439
(dp5440
g27
(dp5441
g29
Vwhat
p5442
sg31
VO
p5443
sg33
VWP
p5444
sg35
I42
ssg10
I540
sg36
g4
sg37
(dp5445
sg39
(dp5446
sg41
I2980
sg42
g21
sg43
g21
sg44
I540
sg45
Vwhat
p5447
sg47
I540
sg48
I2984
sbag0
(g23
g2
Ntp5448
Rp5449
(dp5450
g27
(dp5451
g29
Vhe
p5452
sg31
VO
p5453
sg33
VPRP
p5454
sg35
I43
ssg10
I541
sg36
g4
sg37
(dp5455
sg39
(dp5456
sg41
I2985
sg42
g21
sg43
g21
sg44
I541
sg45
Vhe
p5457
sg47
I541
sg48
I2987
sbag0
(g23
g2
Ntp5458
Rp5459
(dp5460
g27
(dp5461
g29
Vcall
p5462
sg31
VO
p5463
sg33
VVBZ
p5464
sg35
I44
ssg10
I542
sg36
g4
sg37
(dp5465
sg39
(dp5466
sg41
I2988
sg42
g21
sg43
g21
sg44
I542
sg45
Vcalls
p5467
sg47
I542
sg48
I2993
sbag0
(g23
g2
Ntp5468
Rp5469
(dp5470
g27
(dp5471
g29
V``
p5472
sg31
VO
p5473
sg33
V``
p5474
sg35
I45
ssg10
I543
sg36
g4
sg37
(dp5475
sg39
(dp5476
sg41
I2994
sg42
g21
sg43
g21
sg44
I543
sg45
V\u201c
p5477
sg47
I543
sg48
I2995
sbag0
(g23
g2
Ntp5478
Rp5479
(dp5480
g27
(dp5481
g29
Vfree
p5482
sg31
VO
p5483
sg33
VJJ
p5484
sg35
I46
ssg10
I544
sg36
g4
sg37
(dp5485
sg39
(dp5486
sg41
I2995
sg42
g21
sg43
g21
sg44
I544
sg45
Vfree
p5487
sg47
I544
sg48
I2999
sbag0
(g23
g2
Ntp5488
Rp5489
(dp5490
g27
(dp5491
g29
Vmarket
p5492
sg31
VO
p5493
sg33
VNN
p5494
sg35
I47
ssg10
I545
sg36
g4
sg37
(dp5495
sg39
(dp5496
sg41
I3000
sg42
g21
sg43
g21
sg44
I545
sg45
Vmarket
p5497
sg47
I545
sg48
I3006
sbag0
(g23
g2
Ntp5498
Rp5499
(dp5500
g27
(dp5501
g29
Veugenics
p5502
sg31
VO
p5503
sg33
VNNS
p5504
sg35
I48
ssg10
I546
sg36
g4
sg37
(dp5505
sg39
(dp5506
sg41
I3007
sg42
g21
sg43
g21
sg44
I546
sg45
Veugenics
p5507
sg47
I546
sg48
I3015
sbag0
(g23
g2
Ntp5508
Rp5509
(dp5510
g27
(dp5511
g29
V''
p5512
sg31
VO
p5513
sg33
V''
p5514
sg35
I49
ssg10
I547
sg36
g4
sg37
(dp5515
sg39
(dp5516
sg41
I3015
sg42
g21
sg43
g21
sg44
I547
sg45
V\u201d
p5517
sg47
I547
sg48
I3016
sbag0
(g23
g2
Ntp5518
Rp5519
(dp5520
g27
(dp5521
g29
V-lrb-
p5522
sg31
VO
p5523
sg33
V-LRB-
p5524
sg35
I50
ssg10
I548
sg36
g4
sg37
(dp5525
sg39
(dp5526
sg41
I3017
sg42
g21
sg43
g21
sg44
I548
sg45
V(
p5527
sg47
I548
sg48
I3018
sbag0
(g23
g2
Ntp5528
Rp5529
(dp5530
g27
(dp5531
g29
VSilver
p5532
sg31
VO
p5533
sg33
VNNP
p5534
sg35
I51
ssg10
I549
sg36
g4
sg37
(dp5535
sg39
(dp5536
sg41
I3018
sg42
g21
sg43
g21
sg44
I549
sg45
VSilver
p5537
sg47
I549
sg48
I3024
sbag0
(g23
g2
Ntp5538
Rp5539
(dp5540
g27
(dp5541
g29
V315
p5542
sg31
VNUMBER
p5543
sg33
VCD
p5544
sg35
I52
ssg10
I550
sg36
g4
sg37
(dp5545
sg39
(dp5546
sg41
I3025
sg42
g21
sg43
g21
sg44
I550
sg45
V315
p5547
sg47
I550
sg48
I3028
sbag0
(g23
g2
Ntp5548
Rp5549
(dp5550
g27
(dp5551
g29
V-rrb-
p5552
sg31
VO
p5553
sg33
V-RRB-
p5554
sg35
I53
ssg10
I551
sg36
g4
sg37
(dp5555
sg39
(dp5556
sg41
I3028
sg42
g21
sg43
g21
sg44
I551
sg45
V)
p5557
sg47
I551
sg48
I3029
sbag0
(g23
g2
Ntp5558
Rp5559
(dp5560
g27
(dp5561
g29
V.
p5562
sg31
VO
p5563
sg33
V.
p5564
sg35
I54
ssg10
I552
sg36
g4
sg37
(dp5565
sg39
(dp5566
sg41
I3029
sg42
g21
sg43
g21
sg44
I552
sg45
V.
p5567
sg47
I552
sg48
I3030
sbag0
(g23
g2
Ntp5568
Rp5569
(dp5570
g27
(dp5571
g29
Vwealthy
p5572
sg31
VO
p5573
sg33
VJJ
p5574
sg35
I1
ssg10
I553
sg36
g4
sg37
(dp5575
sg39
(dp5576
sg41
I3031
sg42
g21
sg43
g21
sg44
I553
sg45
VWealthy
p5577
sg47
I553
sg48
I3038
sbag0
(g23
g2
Ntp5578
Rp5579
(dp5580
g27
(dp5581
g29
Vfamily
p5582
sg31
VO
p5583
sg33
VNNS
p5584
sg35
I2
ssg10
I554
sg36
g4
sg37
(dp5585
sg39
(dp5586
sg41
I3039
sg42
g21
sg43
g21
sg44
I554
sg45
Vfamilies
p5587
sg47
I554
sg48
I3047
sbag0
(g23
g2
Ntp5588
Rp5589
(dp5590
g27
(dp5591
g29
Vwill
p5592
sg31
VO
p5593
sg33
VMD
p5594
sg35
I3
ssg10
I555
sg36
g4
sg37
(dp5595
sg39
(dp5596
sg41
I3048
sg42
g21
sg43
g21
sg44
I555
sg45
Vwill
p5597
sg47
I555
sg48
I3052
sbag0
(g23
g2
Ntp5598
Rp5599
(dp5600
g27
(dp5601
g29
Vopt
p5602
sg31
VO
p5603
sg33
VVB
p5604
sg35
I4
ssg10
I556
sg36
g4
sg37
(dp5605
sg39
(dp5606
sg41
I3053
sg42
g21
sg43
g21
sg44
I556
sg45
Vopt
p5607
sg47
I556
sg48
I3056
sbag0
(g23
g2
Ntp5608
Rp5609
(dp5610
g27
(dp5611
g29
Vto
p5612
sg31
VO
p5613
sg33
VTO
p5614
sg35
I5
ssg10
I557
sg36
g4
sg37
(dp5615
sg39
(dp5616
sg41
I3057
sg42
g21
sg43
g21
sg44
I557
sg45
Vto
p5617
sg47
I557
sg48
I3059
sbag0
(g23
g2
Ntp5618
Rp5619
(dp5620
g27
(dp5621
g29
Vdesign
p5622
sg31
VO
p5623
sg33
VVB
p5624
sg35
I6
ssg10
I558
sg36
g4
sg37
(dp5625
sg39
(dp5626
sg41
I3060
sg42
g21
sg43
g21
sg44
I558
sg45
Vdesign
p5627
sg47
I558
sg48
I3066
sbag0
(g23
g2
Ntp5628
Rp5629
(dp5630
g27
(dp5631
g29
Vthey
p5632
sg31
VO
p5633
sg33
VPRP$
p5634
sg35
I7
ssg10
I559
sg36
g4
sg37
(dp5635
sg39
(dp5636
sg41
I3067
sg42
g21
sg43
g21
sg44
I559
sg45
Vtheir
p5637
sg47
I559
sg48
I3072
sbag0
(g23
g2
Ntp5638
Rp5639
(dp5640
g27
(dp5641
g29
Vchild
p5642
sg31
VO
p5643
sg33
VNN
p5644
sg35
I8
ssg10
I560
sg36
g4
sg37
(dp5645
sg39
(dp5646
sg41
I3073
sg42
g21
sg43
g21
sg44
I560
sg45
Vchild
p5647
sg47
I560
sg48
I3078
sbag0
(g23
g2
Ntp5648
Rp5649
(dp5650
g27
(dp5651
g29
Vwith
p5652
sg31
VO
p5653
sg33
VIN
p5654
sg35
I9
ssg10
I561
sg36
g4
sg37
(dp5655
sg39
(dp5656
sg41
I3079
sg42
g21
sg43
g21
sg44
I561
sg45
Vwith
p5657
sg47
I561
sg48
I3083
sbag0
(g23
g2
Ntp5658
Rp5659
(dp5660
g27
(dp5661
g29
Vgenetic
p5662
sg31
VO
p5663
sg33
VJJ
p5664
sg35
I10
ssg10
I562
sg36
g4
sg37
(dp5665
sg39
(dp5666
sg41
I3084
sg42
g21
sg43
g21
sg44
I562
sg45
Vgenetic
p5667
sg47
I562
sg48
I3091
sbag0
(g23
g2
Ntp5668
Rp5669
(dp5670
g27
(dp5671
g29
Vadvantage
p5672
sg31
VO
p5673
sg33
VNNS
p5674
sg35
I11
ssg10
I563
sg36
g4
sg37
(dp5675
sg39
(dp5676
sg41
I3092
sg42
g21
sg43
g21
sg44
I563
sg45
Vadvantages
p5677
sg47
I563
sg48
I3102
sbag0
(g23
g2
Ntp5678
Rp5679
(dp5680
g27
(dp5681
g29
Vbecause
p5682
sg31
VO
p5683
sg33
VIN
p5684
sg35
I12
ssg10
I564
sg36
g4
sg37
(dp5685
sg39
(dp5686
sg41
I3103
sg42
g21
sg43
g21
sg44
I564
sg45
Vbecause
p5687
sg47
I564
sg48
I3110
sbag0
(g23
g2
Ntp5688
Rp5689
(dp5690
g27
(dp5691
g29
Vother
p5692
sg31
VO
p5693
sg33
VJJ
p5694
sg35
I13
ssg10
I565
sg36
g4
sg37
(dp5695
sg39
(dp5696
sg41
I3111
sg42
g21
sg43
g21
sg44
I565
sg45
Vother
p5697
sg47
I565
sg48
I3116
sbag0
(g23
g2
Ntp5698
Rp5699
(dp5700
g27
(dp5701
g29
Vfamily
p5702
sg31
VO
p5703
sg33
VNNS
p5704
sg35
I14
ssg10
I566
sg36
g4
sg37
(dp5705
sg39
(dp5706
sg41
I3117
sg42
g21
sg43
g21
sg44
I566
sg45
Vfamilies
p5707
sg47
I566
sg48
I3125
sbag0
(g23
g2
Ntp5708
Rp5709
(dp5710
g27
(dp5711
g29
Vbe
p5712
sg31
VO
p5713
sg33
VVBP
p5714
sg35
I15
ssg10
I567
sg36
g4
sg37
(dp5715
sg39
(dp5716
sg41
I3126
sg42
g21
sg43
g21
sg44
I567
sg45
Vare
p5717
sg47
I567
sg48
I3129
sbag0
(g23
g2
Ntp5718
Rp5719
(dp5720
g27
(dp5721
g29
Vdo
p5722
sg31
VO
p5723
sg33
VVBG
p5724
sg35
I16
ssg10
I568
sg36
g4
sg37
(dp5725
sg39
(dp5726
sg41
I3130
sg42
g21
sg43
g21
sg44
I568
sg45
Vdoing
p5727
sg47
I568
sg48
I3135
sbag0
(g23
g2
Ntp5728
Rp5729
(dp5730
g27
(dp5731
g29
Vso
p5732
sg31
VO
p5733
sg33
VRB
p5734
sg35
I17
ssg10
I569
sg36
g4
sg37
(dp5735
sg39
(dp5736
sg41
I3136
sg42
g21
sg43
g21
sg44
I569
sg45
Vso
p5737
sg47
I569
sg48
I3138
sbag0
(g23
g2
Ntp5738
Rp5739
(dp5740
g27
(dp5741
g29
V,
p5742
sg31
VO
p5743
sg33
V,
p5744
sg35
I18
ssg10
I570
sg36
g4
sg37
(dp5745
sg39
(dp5746
sg41
I3138
sg42
g21
sg43
g21
sg44
I570
sg45
V,
p5747
sg47
I570
sg48
I3139
sbag0
(g23
g2
Ntp5748
Rp5749
(dp5750
g27
(dp5751
g29
Vand
p5752
sg31
VO
p5753
sg33
VCC
p5754
sg35
I19
ssg10
I571
sg36
g4
sg37
(dp5755
sg39
(dp5756
sg41
I3140
sg42
g21
sg43
g21
sg44
I571
sg45
Vand
p5757
sg47
I571
sg48
I3143
sbag0
(g23
g2
Ntp5758
Rp5759
(dp5760
g27
(dp5761
g29
Veverybody
p5762
sg31
VO
p5763
sg33
VNN
p5764
sg35
I20
ssg10
I572
sg36
g4
sg37
(dp5765
sg39
(dp5766
sg41
I3144
sg42
g21
sg43
g21
sg44
I572
sg45
Veverybody
p5767
sg47
I572
sg48
I3153
sbag0
(g23
g2
Ntp5768
Rp5769
(dp5770
g27
(dp5771
g29
Vwant
p5772
sg31
VO
p5773
sg33
VVBZ
p5774
sg35
I21
ssg10
I573
sg36
g4
sg37
(dp5775
sg39
(dp5776
sg41
I3154
sg42
g21
sg43
g21
sg44
I573
sg45
Vwants
p5777
sg47
I573
sg48
I3159
sbag0
(g23
g2
Ntp5778
Rp5779
(dp5780
g27
(dp5781
g29
Vto
p5782
sg31
VO
p5783
sg33
VTO
p5784
sg35
I22
ssg10
I574
sg36
g4
sg37
(dp5785
sg39
(dp5786
sg41
I3160
sg42
g21
sg43
g21
sg44
I574
sg45
Vto
p5787
sg47
I574
sg48
I3162
sbag0
(g23
g2
Ntp5788
Rp5789
(dp5790
g27
(dp5791
g29
Vprovide
p5792
sg31
VO
p5793
sg33
VVB
p5794
sg35
I23
ssg10
I575
sg36
g4
sg37
(dp5795
sg39
(dp5796
sg41
I3163
sg42
g21
sg43
g21
sg44
I575
sg45
Vprovide
p5797
sg47
I575
sg48
I3170
sbag0
(g23
g2
Ntp5798
Rp5799
(dp5800
g27
(dp5801
g29
Vthey
p5802
sg31
VO
p5803
sg33
VPRP$
p5804
sg35
I24
ssg10
I576
sg36
g4
sg37
(dp5805
sg39
(dp5806
sg41
I3171
sg42
g21
sg43
g21
sg44
I576
sg45
Vtheir
p5807
sg47
I576
sg48
I3176
sbag0
(g23
g2
Ntp5808
Rp5809
(dp5810
g27
(dp5811
g29
Vnewborn
p5812
sg31
VO
p5813
sg33
VJJ
p5814
sg35
I25
ssg10
I577
sg36
g4
sg37
(dp5815
sg39
(dp5816
sg41
I3177
sg42
g21
sg43
g21
sg44
I577
sg45
Vnewborn
p5817
sg47
I577
sg48
I3184
sbag0
(g23
g2
Ntp5818
Rp5819
(dp5820
g27
(dp5821
g29
Vchild
p5822
sg31
VO
p5823
sg33
VNN
p5824
sg35
I26
ssg10
I578
sg36
g4
sg37
(dp5825
sg39
(dp5826
sg41
I3185
sg42
g21
sg43
g21
sg44
I578
sg45
Vchild
p5827
sg47
I578
sg48
I3190
sbag0
(g23
g2
Ntp5828
Rp5829
(dp5830
g27
(dp5831
g29
Vwith
p5832
sg31
VO
p5833
sg33
VIN
p5834
sg35
I27
ssg10
I579
sg36
g4
sg37
(dp5835
sg39
(dp5836
sg41
I3191
sg42
g21
sg43
g21
sg44
I579
sg45
Vwith
p5837
sg47
I579
sg48
I3195
sbag0
(g23
g2
Ntp5838
Rp5839
(dp5840
g27
(dp5841
g29
Vthe
p5842
sg31
VO
p5843
sg33
VDT
p5844
sg35
I28
ssg10
I580
sg36
g4
sg37
(dp5845
sg39
(dp5846
sg41
I3196
sg42
g21
sg43
g21
sg44
I580
sg45
Vthe
p5847
sg47
I580
sg48
I3199
sbag0
(g23
g2
Ntp5848
Rp5849
(dp5850
g27
(dp5851
g29
Vbest
p5852
sg31
VO
p5853
sg33
VJJS
p5854
sg35
I29
ssg10
I581
sg36
g4
sg37
(dp5855
sg39
(dp5856
sg41
I3200
sg42
g21
sg43
g21
sg44
I581
sg45
Vbest
p5857
sg47
I581
sg48
I3204
sbag0
(g23
g2
Ntp5858
Rp5859
(dp5860
g27
(dp5861
g29
Vopportunity
p5862
sg31
VO
p5863
sg33
VNNS
p5864
sg35
I30
ssg10
I582
sg36
g4
sg37
(dp5865
sg39
(dp5866
sg41
I3205
sg42
g21
sg43
g21
sg44
I582
sg45
Vopportunities
p5867
sg47
I582
sg48
I3218
sbag0
(g23
g2
Ntp5868
Rp5869
(dp5870
g27
(dp5871
g29
Vin
p5872
sg31
VO
p5873
sg33
VIN
p5874
sg35
I31
ssg10
I583
sg36
g4
sg37
(dp5875
sg39
(dp5876
sg41
I3219
sg42
g21
sg43
g21
sg44
I583
sg45
Vin
p5877
sg47
I583
sg48
I3221
sbag0
(g23
g2
Ntp5878
Rp5879
(dp5880
g27
(dp5881
g29
Vlife
p5882
sg31
VO
p5883
sg33
VNN
p5884
sg35
I32
ssg10
I584
sg36
g4
sg37
(dp5885
sg39
(dp5886
sg41
I3222
sg42
g21
sg43
g21
sg44
I584
sg45
Vlife
p5887
sg47
I584
sg48
I3226
sbag0
(g23
g2
Ntp5888
Rp5889
(dp5890
g27
(dp5891
g29
V.
p5892
sg31
VO
p5893
sg33
V.
p5894
sg35
I33
ssg10
I585
sg36
g4
sg37
(dp5895
sg39
(dp5896
sg41
I3226
sg42
g21
sg43
g21
sg44
I585
sg45
V.
p5897
sg47
I585
sg48
I3227
sbag0
(g23
g2
Ntp5898
Rp5899
(dp5900
g27
(dp5901
g29
Vsilver
p5902
sg31
VO
p5903
sg33
VNN
p5904
sg35
I1
ssg10
I586
sg36
g4
sg37
(dp5905
sg39
(dp5906
sg41
I3228
sg42
g21
sg43
g21
sg44
I586
sg45
VSilver
p5907
sg47
I586
sg48
I3234
sbag0
(g23
g2
Ntp5908
Rp5909
(dp5910
g27
(dp5911
g29
Vthink
p5912
sg31
VO
p5913
sg33
VVBZ
p5914
sg35
I2
ssg10
I587
sg36
g4
sg37
(dp5915
sg39
(dp5916
sg41
I3235
sg42
g21
sg43
g21
sg44
I587
sg45
Vthinks
p5917
sg47
I587
sg48
I3241
sbag0
(g23
g2
Ntp5918
Rp5919
(dp5920
g27
(dp5921
g29
Vthat
p5922
sg31
VO
p5923
sg33
VIN
p5924
sg35
I3
ssg10
I588
sg36
g4
sg37
(dp5925
sg39
(dp5926
sg41
I3242
sg42
g21
sg43
g21
sg44
I588
sg45
Vthat
p5927
sg47
I588
sg48
I3246
sbag0
(g23
g2
Ntp5928
Rp5929
(dp5930
g27
(dp5931
g29
Vthe
p5932
sg31
VO
p5933
sg33
VDT
p5934
sg35
I4
ssg10
I589
sg36
g4
sg37
(dp5935
sg39
(dp5936
sg41
I3247
sg42
g21
sg43
g21
sg44
I589
sg45
Vthe
p5937
sg47
I589
sg48
I3250
sbag0
(g23
g2
Ntp5938
Rp5939
(dp5940
g27
(dp5941
g29
Vuse
p5942
sg31
VO
p5943
sg33
VNN
p5944
sg35
I5
ssg10
I590
sg36
g4
sg37
(dp5945
sg39
(dp5946
sg41
I3251
sg42
g21
sg43
g21
sg44
I590
sg45
Vuse
p5947
sg47
I590
sg48
I3254
sbag0
(g23
g2
Ntp5948
Rp5949
(dp5950
g27
(dp5951
g29
Vof
p5952
sg31
VO
p5953
sg33
VIN
p5954
sg35
I6
ssg10
I591
sg36
g4
sg37
(dp5955
sg39
(dp5956
sg41
I3255
sg42
g21
sg43
g21
sg44
I591
sg45
Vof
p5957
sg47
I591
sg48
I3257
sbag0
(g23
g2
Ntp5958
Rp5959
(dp5960
g27
(dp5961
g29
Vgermline
p5962
sg31
VO
p5963
sg33
VNN
p5964
sg35
I7
ssg10
I592
sg36
g4
sg37
(dp5965
sg39
(dp5966
sg41
I3258
sg42
g21
sg43
g21
sg44
I592
sg45
Vgermline
p5967
sg47
I592
sg48
I3266
sbag0
(g23
g2
Ntp5968
Rp5969
(dp5970
g27
(dp5971
g29
Vgene
p5972
sg31
VO
p5973
sg33
VNN
p5974
sg35
I8
ssg10
I593
sg36
g4
sg37
(dp5975
sg39
(dp5976
sg41
I3267
sg42
g21
sg43
g21
sg44
I593
sg45
Vgene
p5977
sg47
I593
sg48
I3271
sbag0
(g23
g2
Ntp5978
Rp5979
(dp5980
g27
(dp5981
g29
Vtherapy
p5982
sg31
VO
p5983
sg33
VNN
p5984
sg35
I9
ssg10
I594
sg36
g4
sg37
(dp5985
sg39
(dp5986
sg41
I3272
sg42
g21
sg43
g21
sg44
I594
sg45
Vtherapy
p5987
sg47
I594
sg48
I3279
sbag0
(g23
g2
Ntp5988
Rp5989
(dp5990
g27
(dp5991
g29
Vwill
p5992
sg31
VO
p5993
sg33
VMD
p5994
sg35
I10
ssg10
I595
sg36
g4
sg37
(dp5995
sg39
(dp5996
sg41
I3280
sg42
g21
sg43
g21
sg44
I595
sg45
Vwill
p5997
sg47
I595
sg48
I3284
sbag0
(g23
g2
Ntp5998
Rp5999
(dp6000
g27
(dp6001
g29
Vmean
p6002
sg31
VO
p6003
sg33
VVB
p6004
sg35
I11
ssg10
I596
sg36
g4
sg37
(dp6005
sg39
(dp6006
sg41
I3285
sg42
g21
sg43
g21
sg44
I596
sg45
Vmean
p6007
sg47
I596
sg48
I3289
sbag0
(g23
g2
Ntp6008
Rp6009
(dp6010
g27
(dp6011
g29
Vwealthy
p6012
sg31
VO
p6013
sg33
VJJ
p6014
sg35
I12
ssg10
I597
sg36
g4
sg37
(dp6015
sg39
(dp6016
sg41
I3290
sg42
g21
sg43
g21
sg44
I597
sg45
Vwealthy
p6017
sg47
I597
sg48
I3297
sbag0
(g23
g2
Ntp6018
Rp6019
(dp6020
g27
(dp6021
g29
Vfamily
p6022
sg31
VO
p6023
sg33
VNNS
p6024
sg35
I13
ssg10
I598
sg36
g4
sg37
(dp6025
sg39
(dp6026
sg41
I3298
sg42
g21
sg43
g21
sg44
I598
sg45
Vfamilies
p6027
sg47
I598
sg48
I3306
sbag0
(g23
g2
Ntp6028
Rp6029
(dp6030
g27
(dp6031
g29
Vpass
p6032
sg31
VO
p6033
sg33
VVBP
p6034
sg35
I14
ssg10
I599
sg36
g4
sg37
(dp6035
sg39
(dp6036
sg41
I3307
sg42
g21
sg43
g21
sg44
I599
sg45
Vpass
p6037
sg47
I599
sg48
I3311
sbag0
(g23
g2
Ntp6038
Rp6039
(dp6040
g27
(dp6041
g29
Vdown
p6042
sg31
VO
p6043
sg33
VRB
p6044
sg35
I15
ssg10
I600
sg36
g4
sg37
(dp6045
sg39
(dp6046
sg41
I3312
sg42
g21
sg43
g21
sg44
I600
sg45
Vdown
p6047
sg47
I600
sg48
I3316
sbag0
(g23
g2
Ntp6048
Rp6049
(dp6050
g27
(dp6051
g29
Venhance
p6052
sg31
VO
p6053
sg33
VVBN
p6054
sg35
I16
ssg10
I601
sg36
g4
sg37
(dp6055
sg39
(dp6056
sg41
I3317
sg42
g21
sg43
g21
sg44
I601
sg45
Venhanced
p6057
sg47
I601
sg48
I3325
sbag0
(g23
g2
Ntp6058
Rp6059
(dp6060
g27
(dp6061
g29
Vtrait
p6062
sg31
VO
p6063
sg33
VNNS
p6064
sg35
I17
ssg10
I602
sg36
g4
sg37
(dp6065
sg39
(dp6066
sg41
I3326
sg42
g21
sg43
g21
sg44
I602
sg45
Vtraits
p6067
sg47
I602
sg48
I3332
sbag0
(g23
g2
Ntp6068
Rp6069
(dp6070
g27
(dp6071
g29
Vto
p6072
sg31
VO
p6073
sg33
VTO
p6074
sg35
I18
ssg10
I603
sg36
g4
sg37
(dp6075
sg39
(dp6076
sg41
I3333
sg42
g21
sg43
g21
sg44
I603
sg45
Vto
p6077
sg47
I603
sg48
I3335
sbag0
(g23
g2
Ntp6078
Rp6079
(dp6080
g27
(dp6081
g29
Vthey
p6082
sg31
VO
p6083
sg33
VPRP$
p6084
sg35
I19
ssg10
I604
sg36
g4
sg37
(dp6085
sg39
(dp6086
sg41
I3336
sg42
g21
sg43
g21
sg44
I604
sg45
Vtheir
p6087
sg47
I604
sg48
I3341
sbag0
(g23
g2
Ntp6088
Rp6089
(dp6090
g27
(dp6091
g29
Vchild
p6092
sg31
VO
p6093
sg33
VNNS
p6094
sg35
I20
ssg10
I605
sg36
g4
sg37
(dp6095
sg39
(dp6096
sg41
I3342
sg42
g21
sg43
g21
sg44
I605
sg45
Vchildren
p6097
sg47
I605
sg48
I3350
sbag0
(g23
g2
Ntp6098
Rp6099
(dp6100
g27
(dp6101
g29
V,
p6102
sg31
VO
p6103
sg33
V,
p6104
sg35
I21
ssg10
I606
sg36
g4
sg37
(dp6105
sg39
(dp6106
sg41
I3350
sg42
g21
sg43
g21
sg44
I606
sg45
V,
p6107
sg47
I606
sg48
I3351
sbag0
(g23
g2
Ntp6108
Rp6109
(dp6110
g27
(dp6111
g29
Vpotentially
p6112
sg31
VO
p6113
sg33
VRB
p6114
sg35
I22
ssg10
I607
sg36
g4
sg37
(dp6115
sg39
(dp6116
sg41
I3352
sg42
g21
sg43
g21
sg44
I607
sg45
Vpotentially
p6117
sg47
I607
sg48
I3363
sbag0
(g23
g2
Ntp6118
Rp6119
(dp6120
g27
(dp6121
g29
Vdisadvantage
p6122
sg31
VO
p6123
sg33
VVBG
p6124
sg35
I23
ssg10
I608
sg36
g4
sg37
(dp6125
sg39
(dp6126
sg41
I3364
sg42
g21
sg43
g21
sg44
I608
sg45
Vdisadvantaging
p6127
sg47
I608
sg48
I3378
sbag0
(g23
g2
Ntp6128
Rp6129
(dp6130
g27
(dp6131
g29
Vpoorer
p6132
sg31
VO
p6133
sg33
VJJR
p6134
sg35
I24
ssg10
I609
sg36
g4
sg37
(dp6135
sg39
(dp6136
sg41
I3379
sg42
g21
sg43
g21
sg44
I609
sg45
Vpoorer
p6137
sg47
I609
sg48
I3385
sbag0
(g23
g2
Ntp6138
Rp6139
(dp6140
g27
(dp6141
g29
Vfamily
p6142
sg31
VO
p6143
sg33
VNNS
p6144
sg35
I25
ssg10
I610
sg36
g4
sg37
(dp6145
sg39
(dp6146
sg41
I3386
sg42
g21
sg43
g21
sg44
I610
sg45
Vfamilies
p6147
sg47
I610
sg48
I3394
sbag0
(g23
g2
Ntp6148
Rp6149
(dp6150
g27
(dp6151
g29
Vthat
p6152
sg31
VO
p6153
sg33
VWDT
p6154
sg35
I26
ssg10
I611
sg36
g4
sg37
(dp6155
sg39
(dp6156
sg41
I3395
sg42
g21
sg43
g21
sg44
I611
sg45
Vthat
p6157
sg47
I611
sg48
I3399
sbag0
(g23
g2
Ntp6158
Rp6159
(dp6160
g27
(dp6161
g29
Vcan
p6162
sg31
VO
p6163
sg33
VMD
p6164
sg35
I27
ssg10
I612
sg36
g4
sg37
(dp6165
sg39
(dp6166
sg41
I3400
sg42
g21
sg43
g21
sg44
I612
sg45
Vcan
p6167
sg47
I612
sg48
I3403
sbag0
(g23
g2
Ntp6168
Rp6169
(dp6170
g27
(dp6171
g29
Vnot
p6172
sg31
VO
p6173
sg33
VRB
p6174
sg35
I28
ssg10
I613
sg36
g4
sg37
(dp6175
sg39
(dp6176
sg41
I3404
sg42
g21
sg43
g21
sg44
I613
sg45
Vnot
p6177
sg47
I613
sg48
I3407
sbag0
(g23
g2
Ntp6178
Rp6179
(dp6180
g27
(dp6181
g29
Vafford
p6182
sg31
VO
p6183
sg33
VVB
p6184
sg35
I29
ssg10
I614
sg36
g4
sg37
(dp6185
sg39
(dp6186
sg41
I3408
sg42
g21
sg43
g21
sg44
I614
sg45
Vafford
p6187
sg47
I614
sg48
I3414
sbag0
(g23
g2
Ntp6188
Rp6189
(dp6190
g27
(dp6191
g29
Vthe
p6192
sg31
VO
p6193
sg33
VDT
p6194
sg35
I30
ssg10
I615
sg36
g4
sg37
(dp6195
sg39
(dp6196
sg41
I3415
sg42
g21
sg43
g21
sg44
I615
sg45
Vthe
p6197
sg47
I615
sg48
I3418
sbag0
(g23
g2
Ntp6198
Rp6199
(dp6200
g27
(dp6201
g29
Vtechnology
p6202
sg31
VO
p6203
sg33
VNN
p6204
sg35
I31
ssg10
I616
sg36
g4
sg37
(dp6205
sg39
(dp6206
sg41
I3419
sg42
g21
sg43
g21
sg44
I616
sg45
Vtechnology
p6207
sg47
I616
sg48
I3429
sbag0
(g23
g2
Ntp6208
Rp6209
(dp6210
g27
(dp6211
g29
V.
p6212
sg31
VO
p6213
sg33
V.
p6214
sg35
I32
ssg10
I617
sg36
g4
sg37
(dp6215
sg39
(dp6216
sg41
I3429
sg42
g21
sg43
g21
sg44
I617
sg45
V.
p6217
sg47
I617
sg48
I3430
sbag0
(g23
g2
Ntp6218
Rp6219
(dp6220
g27
(dp6221
g29
V-lrb-
p6222
sg31
VO
p6223
sg33
V-LRB-
p6224
sg35
I1
ssg10
I618
sg36
g4
sg37
(dp6225
sg39
(dp6226
sg41
I3431
sg42
g21
sg43
g21
sg44
I618
sg45
V(
p6227
sg47
I618
sg48
I3432
sbag0
(g23
g2
Ntp6228
Rp6229
(dp6230
g27
(dp6231
g29
Vsilver
p6232
sg31
VO
p6233
sg33
VNN
p6234
sg35
I2
ssg10
I619
sg36
g4
sg37
(dp6235
sg39
(dp6236
sg41
I3432
sg42
g21
sg43
g21
sg44
I619
sg45
VSilver
p6237
sg47
I619
sg48
I3438
sbag0
(g23
g2
Ntp6238
Rp6239
(dp6240
g27
(dp6241
g29
V313
p6242
sg31
VNUMBER
p6243
sg33
VCD
p6244
sg35
I3
ssg10
I620
sg36
g4
sg37
(dp6245
sg39
(dp6246
sg41
I3439
sg42
g21
sg43
g21
sg44
I620
sg45
V313
p6247
sg47
I620
sg48
I3442
sbag0
(g23
g2
Ntp6248
Rp6249
(dp6250
g27
(dp6251
g29
V-rrb-
p6252
sg31
VO
p6253
sg33
V-RRB-
p6254
sg35
I4
ssg10
I621
sg36
g4
sg37
(dp6255
sg39
(dp6256
sg41
I3442
sg42
g21
sg43
g21
sg44
I621
sg45
V)
p6257
sg47
I621
sg48
I3443
sbag0
(g23
g2
Ntp6258
Rp6259
(dp6260
g27
(dp6261
g29
V.
p6262
sg31
VO
p6263
sg33
V.
p6264
sg35
I5
ssg10
I622
sg36
g4
sg37
(dp6265
sg39
(dp6266
sg41
I3444
sg42
g21
sg43
g21
sg44
I622
sg45
V.
p6267
sg47
I622
sg48
I3445
sbasS'Document'
p6268
(lp6269
g4
asS'doc-features'
p6270
g14
sS'Sentence'
p6271
(lp6272
g0
(g23
g2
Ntp6273
Rp6274
(dp6275
g27
(dp6276
S'dep-parse'
p6277
S'not implemented!'
p6278
sg35
I0
sS'constituency-parse'
p6279
V(ROOT\u000a  (S\u000a    (NP (JJ Human) (JJ genetic) (NN engineering))\u000a    (VP (VBZ is)\u000a      (NP\u000a        (NP (DT the) (NN alteration))\u000a        (PP (IN of)\u000a          (NP\u000a            (NP\u000a              (NP (DT an) (NN individual) (POS 's))\u000a              (NN genotype))\u000a            (PP (IN with)\u000a              (NP\u000a                (NP (DT the) (NN aim))\u000a                (PP (IN of)\u000a                  (S\u000a                    (VP\u000a                      (VP (VBG choosing)\u000a                        (NP\u000a                          (NP (DT the) (NN phenotype))\u000a                          (PP (IN of)\u000a                            (NP (DT a) (JJ newborn)))))\u000a                      (CC or)\u000a                      (VP (VBG changing)\u000a                        (NP\u000a                          (NP (DT the) (VBG existing) (NN phenotype))\u000a                          (PP (IN of)\u000a                            (NP (DT a) (NN child)\u000a                              (CC or)\u000a                              (NN adult))))))))))))))\u000a    (. .)))
p6280
ssg10
I0
sg36
g4
sg37
(dp6281
sg39
(dp6282
S'tokens'
p6283
(lp6284
g25
ag50
ag60
ag70
ag80
ag90
ag100
ag110
ag120
ag130
ag140
ag150
ag160
ag170
ag180
ag190
ag200
ag210
ag220
ag230
ag240
ag250
ag260
ag270
ag280
ag290
ag300
ag310
ag320
ag330
ag340
ag350
assg41
I0
sg42
g6271
sg43
g6271
sg44
I0
sg45
VHuman genetic engineering is the alteration of an individual's genotype with the aim of choosing the phenotype of a newborn or changing the existing phenotype of a child or adult.
p6285
sg47
I32
sg48
I179
sbag0
(g23
g2
Ntp6286
Rp6287
(dp6288
g27
(dp6289
g6277
g6278
sg35
I1
sg6279
V(X (-LRB- -LCB-) (-LRB- -LCB-) (VB Cite) (NN journal) (NNP |) (JJ last) (JJ =) (NN |) (RB first) (JJ =) (CD |) (NN author-link) (JJ =) (CD |) (NN last2) (JJ =) (CD |) (NN first2) (JJ =) (CD |) (NN author2-link) (JJ =) (CD |) (NN title) (JJ =) (CD |) (NN volume) (JJ =) (CD |) (NN edition) (JJ =) (CD |) (NN url) (JJ =) (CD |) (FW doi) (JJ =) (CD |) (NN id) (JJ =) (CD |) (NN isbn) (JJ =) (CD |) (NN postscript) (JJ =) (PRP It) (VBZ holds) (DT the) (NN promise) (IN of) (VBG curing) (JJ genetic) (NNS diseases) (IN like) (JJ cystic) (NN fibrosis) (, ,)\u000a  (CC and)\u000a  (VBG increasing) (DT the) (NN immunity) (IN of) (NNS people) (TO to) (NNS viruses) (. .))
p6290
ssg10
I1
sg36
g4
sg37
(dp6291
sg39
(dp6292
g6283
(lp6293
g360
ag370
ag380
ag390
ag400
ag410
ag420
ag430
ag440
ag450
ag460
ag470
ag480
ag490
ag500
ag510
ag520
ag530
ag540
ag550
ag560
ag570
ag580
ag590
ag600
ag610
ag620
ag630
ag640
ag650
ag660
ag670
ag680
ag690
ag700
ag710
ag720
ag730
ag740
ag750
ag760
ag770
ag780
ag790
ag800
ag810
ag820
ag830
ag840
ag850
ag860
ag870
ag880
ag890
ag900
ag910
ag920
ag930
ag940
ag950
ag960
ag970
ag980
ag990
ag1000
ag1010
ag1020
assg41
I180
sg42
g6271
sg43
g6271
sg44
I32
sg45
V {{Cite journal | last =\u000a | first = \u000a | author-link = \u000a | last2 = \u000a | first2 = \u000a | author2-link = \u000a | title = \u000a | volume = \u000a | edition = \u000a | url = \u000a | doi = \u000a | id = \u000a | isbn =\u000a | postscript = \u000aIt holds the promise of curing genetic diseases like cystic fibrosis, and increasing the immunity of people to viruses.
p6294
sg47
I99
sg48
I492
sbag0
(g23
g2
Ntp6295
Rp6296
(dp6297
g27
(dp6298
g6277
g6278
sg35
I2
sg6279
V(ROOT\u000a  (S\u000a    (NP (PRP It))\u000a    (VP (VBZ is)\u000a      (VP (VBN speculated)\u000a        (SBAR (IN that)\u000a          (S\u000a            (NP (JJ genetic) (NN engineering))\u000a            (VP (MD could)\u000a              (VP\u000a                (VP (VB be)\u000a                  (VP (VBN used)\u000a                    (S\u000a                      (VP (TO to)\u000a                        (VP (VB change)\u000a                          (NP\u000a                            (NP (JJ physical) (NN appearance))\u000a                            (, ,)\u000a                            (NP (NN metabolism))\u000a                            (, ,)))))))\u000a                (CC and)\u000a                (VP\u000a                  (ADVP (RB even))\u000a                  (VB improve)\u000a                  (NP (JJ mental) (NNS faculties))\u000a                  (PP (IN like)\u000a                    (NP (NN memory)\u000a                      (CC and)\u000a                      (NN intelligence)))\u000a                  (, ,)\u000a                  (SBAR (IN although)\u000a                    (S\u000a                      (PP (IN for)\u000a                        (NP (RB now)))\u000a                      (NP (DT these) (NNS uses))\u000a                      (VP\u000a                        (VP (VBP seem)\u000a                          (S\u000a                            (VP (TO to)\u000a                              (VP (VB be)\u000a                                (PP (IN of)\u000a                                  (NP\u000a                                    (NP (JJR lower) (NN priority))\u000a                                    (PP (TO to)\u000a                                      (NP (NNS researchers)))))))))\u000a                        (CC and)\u000a                        (VP (VBP are)\u000a                          (ADVP (RB therefore))\u000a                          (VP (VBN limited)\u000a                            (PP (TO to)\u000a                              (NP (NN science) (NN fiction)))))))))))))))\u000a    (. .)))
p6299
ssg10
I2
sg36
g4
sg37
(dp6300
sg39
(dp6301
g6283
(lp6302
g1030
ag1040
ag1050
ag1060
ag1070
ag1080
ag1090
ag1100
ag1110
ag1120
ag1130
ag1140
ag1150
ag1160
ag1170
ag1180
ag1190
ag1200
ag1210
ag1220
ag1230
ag1240
ag1250
ag1260
ag1270
ag1280
ag1290
ag1300
ag1310
ag1320
ag1330
ag1340
ag1350
ag1360
ag1370
ag1380
ag1390
ag1400
ag1410
ag1420
ag1430
ag1440
ag1450
ag1460
ag1470
ag1480
ag1490
assg41
I493
sg42
g6271
sg43
g6271
sg44
I99
sg45
V It is speculated that genetic engineering could be used to change physical appearance, metabolism, and even improve mental faculties like memory and intelligence, although for now these uses seem to be of lower priority to researchers and are therefore limited to science fiction.
p6303
sg47
I146
sg48
I773
sbag0
(g23
g2
Ntp6304
Rp6305
(dp6306
g27
(dp6307
g6277
g6278
sg35
I3
sg6279
V(ROOT\u000a  (S\u000a    (NP\u000a      (NP (NN Gene) (NN therapy) (NNS trials))\u000a      (PP (IN on)\u000a        (NP (NNS humans))))\u000a    (VP (VBD began)\u000a      (PP (IN in)\u000a        (NP (CD 2004)))\u000a      (PP (IN on)\u000a        (NP\u000a          (NP (NNS patients))\u000a          (PP (IN with)\u000a            (NP\u000a              (NP (JJ Severe) (JJ Combined) (NN Immunodeficiency))\u000a              (PRN (-LRB- -LRB-)\u000a                (NP (NN SCID))\u000a                (-RRB- -RRB-)))))))\u000a    (. .)))
p6308
ssg10
I3
sg36
g4
sg37
(dp6309
sg39
(dp6310
g6283
(lp6311
g1500
ag1510
ag1520
ag1530
ag1540
ag1550
ag1560
ag1570
ag1580
ag1590
ag1600
ag1610
ag1620
ag1630
ag1640
ag1650
ag1660
ag1670
assg41
I775
sg42
g6271
sg43
g6271
sg44
I146
sg45
V\u000a\u000aGene therapy trials on humans began in 2004 on patients with Severe Combined Immunodeficiency (SCID).
p6312
sg47
I164
sg48
I876
sbag0
(g23
g2
Ntp6313
Rp6314
(dp6315
g27
(dp6316
g6277
g6278
sg35
I4
sg6279
V(ROOT\u000a  (S\u000a    (PP (IN In)\u000a      (NP (CD 2000)))\u000a    (, ,)\u000a    (NP (DT the) (JJ first) (NN gene) (NN therapy) (`` ``) (NN success) ('' ''))\u000a    (VP (VBD resulted)\u000a      (PP (IN in)\u000a        (NP (NN SCID) (NNS patients)))\u000a      (PP (IN with)\u000a        (NP (DT a)\u000a          (ADJP (JJ functional) (JJ immune))\u000a          (NN system))))\u000a    (. .)))
p6317
ssg10
I4
sg36
g4
sg37
(dp6318
sg39
(dp6319
g6283
(lp6320
g1680
ag1690
ag1700
ag1710
ag1720
ag1730
ag1740
ag1750
ag1760
ag1770
ag1779
ag1789
ag1799
ag1809
ag1819
ag1829
ag1839
ag1849
ag1859
ag1869
assg41
I877
sg42
g6271
sg43
g6271
sg44
I164
sg45
V In 2000, the first gene therapy "success" resulted in SCID patients with a functional immune system.
p6321
sg47
I184
sg48
I977
sbag0
(g23
g2
Ntp6322
Rp6323
(dp6324
g27
(dp6325
g6277
g6278
sg35
I5
sg6279
V(ROOT\u000a  (S\u000a    (NP (DT These) (NNS trials))\u000a    (VP (VBD were)\u000a      (VP (VBN stopped)\u000a        (SBAR\u000a          (WHADVP (WRB when))\u000a          (S\u000a            (NP (PRP it))\u000a            (VP (VBD was)\u000a              (VP (VBN discovered)\u000a                (SBAR (IN that)\u000a                  (S\u000a                    (NP\u000a                      (NP (CD two))\u000a                      (PP (IN of)\u000a                        (NP\u000a                          (NP (CD ten) (NNS patients))\u000a                          (PP (IN in)\u000a                            (NP (CD one) (NN trial))))))\u000a                    (VP (VBD had)\u000a                      (VP (VBN developed)\u000a                        (NP\u000a                          (NP (NN leukemia))\u000a                          (VP (VBG resulting)\u000a                            (PP (IN from)\u000a                              (NP\u000a                                (NP (DT the) (NN insertion))\u000a                                (PP (IN of)\u000a                                  (NP\u000a                                    (NP (DT the) (JJ gene-carrying) (NN retrovirus))\u000a                                    (PP (IN near)\u000a                                      (NP (DT an) (NN oncogene)))))))))))))))))))\u000a    (. .)))
p6326
ssg10
I5
sg36
g4
sg37
(dp6327
sg39
(dp6328
g6283
(lp6329
g1879
ag1889
ag1899
ag1909
ag1919
ag1929
ag1939
ag1949
ag1959
ag1969
ag1979
ag1989
ag1999
ag2009
ag2019
ag2029
ag2039
ag2049
ag2059
ag2069
ag2079
ag2089
ag2099
ag2109
ag2119
ag2129
ag2139
ag2149
ag2159
ag2169
ag2179
assg41
I978
sg42
g6271
sg43
g6271
sg44
I184
sg45
V These trials were stopped when it was discovered that two of ten patients in one trial had developed leukemia resulting from the insertion of the gene-carrying retrovirus near an oncogene.
p6330
sg47
I215
sg48
I1166
sbag0
(g23
g2
Ntp6331
Rp6332
(dp6333
g27
(dp6334
g6277
g6278
sg35
I6
sg6279
V(ROOT\u000a  (S\u000a    (PP (IN In)\u000a      (NP (CD 2007)))\u000a    (, ,)\u000a    (NP\u000a      (NP (CD four))\u000a      (PP (IN of)\u000a        (NP (DT the) (CD ten) (NNS patients))))\u000a    (VP (VBD had)\u000a      (VP (VBN developed)\u000a        (NP (NN leukemia) (-LRB- -LSB-) (NN REF) (-RRB- -RSB-))))\u000a    (. .)))
p6335
ssg10
I6
sg36
g4
sg37
(dp6336
sg39
(dp6337
g6283
(lp6338
g2189
ag2199
ag2209
ag2219
ag2229
ag2239
ag2249
ag2259
ag2269
ag2279
ag2289
ag2299
ag2309
ag2319
ag2329
assg41
I1167
sg42
g6271
sg43
g6271
sg44
I215
sg45
V In 2007, four of the ten patients had developed leukemia [REF].
p6339
sg47
I230
sg48
I1230
sbag0
(g23
g2
Ntp6340
Rp6341
(dp6342
g27
(dp6343
g6277
g6278
sg35
I7
sg6279
V(ROOT\u000a  (S\u000a    (NP (NN Work))\u000a    (VP (VBZ is)\u000a      (ADVP (RB now))\u000a      (VP (VBG focusing)\u000a        (PP (IN on)\u000a          (S\u000a            (VP (VBG correcting)\u000a              (NP (DT the) (NN gene))\u000a              (PP (IN without)\u000a                (S\u000a                  (VP (VBG triggering)\u000a                    (NP (DT an) (NN oncogene))))))))))\u000a    (. .)))
p6344
ssg10
I7
sg36
g4
sg37
(dp6345
sg39
(dp6346
g6283
(lp6347
g2339
ag2349
ag2359
ag2369
ag2379
ag2389
ag2399
ag2409
ag2419
ag2429
ag2439
ag2449
ag2459
assg41
I1231
sg42
g6271
sg43
g6271
sg44
I230
sg45
V Work is now focusing on correcting the gene without triggering an oncogene.
p6348
sg47
I243
sg48
I1306
sbag0
(g23
g2
Ntp6349
Rp6350
(dp6351
g27
(dp6352
g6277
g6278
sg35
I8
sg6279
V(ROOT\u000a  (S\u000a    (S\u000a      (NP\u000a        (NP (NN Trial) (NNS treatments))\u000a        (PP (IN of)\u000a          (NP (NN SCID))))\u000a      (VP (VBP have)\u000a        (VP (VBN been)\u000a          (NP\u000a            (NP (NN gene) (NN therapy) (POS 's))\u000a            (JJ only) (NN success)))))\u000a    (: ;)\u000a    (S\u000a      (PP (IN since)\u000a        (NP (CD 1999)))\u000a      (, ,)\u000a      (NP (NN gene) (NN therapy))\u000a      (VP (VBZ has)\u000a        (VP (VBN restored)\u000a          (NP\u000a            (NP (DT the) (JJ immune) (NNS systems))\u000a            (PP (IN of)\u000a              (NP\u000a                (QP (IN at) (JJS least) (CD 17))\u000a                (NNS children))))\u000a          (PP (IN with)\u000a            (NP\u000a              (NP\u000a                (NP (CD two) (NNS forms))\u000a                (PRN (-LRB- -LRB-)\u000a                  (NP\u000a                    (NP (NN ADA-SCID))\u000a                    (CC and)\u000a                    (NP (NN X-SCID)))\u000a                  (-RRB- -RRB-)))\u000a              (PP (IN of)\u000a                (NP (DT the) (NN disorder))))))))\u000a    (. .)))
p6353
ssg10
I8
sg36
g4
sg37
(dp6354
sg39
(dp6355
g6283
(lp6356
g2469
ag2479
ag2489
ag2499
ag2509
ag2519
ag2529
ag2539
ag2549
ag2559
ag2569
ag2579
ag2589
ag2599
ag2609
ag2619
ag2629
ag2639
ag2649
ag2659
ag2669
ag2679
ag2689
ag2699
ag2709
ag2719
ag2729
ag2739
ag2749
ag2759
ag2769
ag2779
ag2789
ag2799
ag2809
ag2819
ag2829
ag2839
ag2849
assg41
I1309
sg42
g6271
sg43
g6271
sg44
I243
sg45
V \u000a\u000aTrial treatments of SCID have been gene therapy's only success; since 1999, gene therapy has restored the immune systems of at least 17 children with two forms (ADA-SCID and X-SCID) of the disorder.
p6357
sg47
I282
sg48
I1507
sbag0
(g23
g2
Ntp6358
Rp6359
(dp6360
g27
(dp6361
g6277
g6278
sg35
I9
sg6279
V(ROOT\u000a  (S\u000a    (NP (JJ Human) (JJ genetic) (NN engineering))\u000a    (VP (VBZ is)\u000a      (ADVP (RB already))\u000a      (VP (VBG being)\u000a        (VP (VBN used)\u000a          (PP (IN on)\u000a            (NP (DT a) (JJ small) (NN scale)))\u000a          (S\u000a            (VP (TO to)\u000a              (VP (VB allow)\u000a                (NP (JJ infertile) (NNS women))\u000a                (PP (IN with)\u000a                  (NP (JJ genetic) (NNS defects)))\u000a                (PP (IN in)\u000a                  (NP (PRP$ their) (NN mitochondria)\u000a                    (S\u000a                      (VP (TO to)\u000a                        (VP (VB have)\u000a                          (NP\u000a                            (NP (NNS children))\u000a                            (PP (-LRB- -LSB-)\u000a                              (NP (NN REF) (-RRB- -RSB-)))))))))))))))\u000a    (. .)))
p6362
ssg10
I9
sg36
g4
sg37
(dp6363
sg39
(dp6364
g6283
(lp6365
g2859
ag2869
ag2879
ag2889
ag2899
ag2909
ag2919
ag2929
ag2939
ag2949
ag2959
ag2969
ag2979
ag2989
ag2999
ag3009
ag3019
ag3029
ag3039
ag3049
ag3059
ag3069
ag3079
ag3089
ag3099
ag3109
ag3119
ag3129
assg41
I1510
sg42
g6271
sg43
g6271
sg44
I282
sg45
V \u000a\u000aHuman genetic engineering is already being used on a small scale to allow infertile women with genetic defects in their mitochondria to have children [REF].
p6366
sg47
I310
sg48
I1666
sbag0
(g23
g2
Ntp6367
Rp6368
(dp6369
g27
(dp6370
g6277
g6278
sg35
I10
sg6279
V(ROOT\u000a  (S\u000a    (NP\u000a      (NP (JJ Healthy) (JJ human) (NNS eggs))\u000a      (PP (IN from)\u000a        (NP (DT a) (JJ second) (NN mother))))\u000a    (VP (VBP are)\u000a      (VP (VBN used)))\u000a    (. .)))
p6371
ssg10
I10
sg36
g4
sg37
(dp6372
sg39
(dp6373
g6283
(lp6374
g3139
ag3149
ag3159
ag3169
ag3179
ag3189
ag3199
ag3209
ag3219
ag3229
assg41
I1667
sg42
g6271
sg43
g6271
sg44
I310
sg45
V Healthy human eggs from a second mother are used.
p6375
sg47
I320
sg48
I1716
sbag0
(g23
g2
Ntp6376
Rp6377
(dp6378
g27
(dp6379
g6277
g6278
sg35
I11
sg6279
V(ROOT\u000a  (S\u000a    (NP (DT The) (NN child))\u000a    (VP (VBD produced)\u000a      (SBAR\u000a        (S\u000a          (NP (DT this) (NN way))\u000a          (VP (VBZ has)\u000a            (NP (JJ genetic) (NN information))\u000a            (PP (IN from)\u000a              (NP\u000a                (NP (CD two) (NNS mothers))\u000a                (CC and)\u000a                (NP (CD one) (NN father) (-LRB- -LSB-) (NN REF) (-RRB- -RSB-))))))))\u000a    (. .)))
p6380
ssg10
I11
sg36
g4
sg37
(dp6381
sg39
(dp6382
g6283
(lp6383
g3239
ag3249
ag3259
ag3269
ag3279
ag3289
ag3299
ag3309
ag3319
ag3329
ag3339
ag3349
ag3359
ag3369
ag3379
ag3389
ag3399
ag3409
assg41
I1717
sg42
g6271
sg43
g6271
sg44
I320
sg45
V The child produced this way has genetic information from two mothers and one father [REF].
p6384
sg47
I338
sg48
I1807
sbag0
(g23
g2
Ntp6385
Rp6386
(dp6387
g27
(dp6388
g6277
g6278
sg35
I12
sg6279
V(ROOT\u000a  (S\u000a    (S\u000a      (NP\u000a        (NP (DT The) (NNS changes))\u000a        (VP (VBN made)))\u000a      (VP\u000a        (VP (VBP are)\u000a          (NP (NN germline) (NNS changes)))\u000a        (CC and)\u000a        (VP (MD will)\u000a          (ADVP (RB likely))\u000a          (VP (VB be)\u000a            (VP (VBN passed)\u000a              (PRT (RP down))\u000a              (PP (IN from)\u000a                (NP (NN generation)))\u000a              (PP (TO to)\u000a                (NP (NN generation)))))\u000a          (, ,))))\u000a    (CC and)\u000a    (, ,)\u000a    (S\u000a      (ADVP (RB thus))\u000a      (, ,)\u000a      (VP (VBP are)\u000a        (NP\u000a          (NP (DT a) (JJ permanent) (NN change))\u000a          (PP (TO to)\u000a            (NP\u000a              (NP (DT the) (JJ human) (NN genome))\u000a              (PP (-LRB- -LSB-)\u000a                (NP (NN REF) (-RRB- -RSB-))))))))\u000a    (. .)))
p6389
ssg10
I12
sg36
g4
sg37
(dp6390
sg39
(dp6391
g6283
(lp6392
g3419
ag3429
ag3439
ag3449
ag3459
ag3469
ag3479
ag3489
ag3499
ag3509
ag3519
ag3529
ag3539
ag3549
ag3559
ag3569
ag3579
ag3589
ag3599
ag3609
ag3619
ag3629
ag3639
ag3649
ag3659
ag3669
ag3679
ag3689
ag3699
ag3709
ag3719
ag3729
ag3739
assg41
I1808
sg42
g6271
sg43
g6271
sg44
I338
sg45
V The changes made are germline changes and will likely be passed down from generation to generation, and, thus, are a permanent change to the human genome [REF].
p6393
sg47
I371
sg48
I1968
sbag0
(g23
g2
Ntp6394
Rp6395
(dp6396
g27
(dp6397
g6277
g6278
sg35
I13
sg6279
V(ROOT\u000a  (S\u000a    (NP\u000a      (NP (JJ Other) (NNS forms))\u000a      (PP (IN of)\u000a        (NP (JJ human) (JJ genetic) (NN engineering))))\u000a    (VP (VBP are)\u000a      (ADVP (RB still))\u000a      (ADJP (JJ theoretical)))\u000a    (. .)))
p6398
ssg10
I13
sg36
g4
sg37
(dp6399
sg39
(dp6400
g6283
(lp6401
g3749
ag3759
ag3769
ag3779
ag3789
ag3799
ag3809
ag3819
ag3829
ag3839
assg41
I1971
sg42
g6271
sg43
g6271
sg44
I371
sg45
V \u000a\u000aOther forms of human genetic engineering are still theoretical.
p6402
sg47
I381
sg48
I2034
sbag0
(g23
g2
Ntp6403
Rp6404
(dp6405
g27
(dp6406
g6277
g6278
sg35
I14
sg6279
V(ROOT\u000a  (S\u000a    (NP (JJ Recombinant) (NN DNA) (NN research))\u000a    (VP (VBZ is)\u000a      (ADVP (RB usually))\u000a      (VP (VBN performed)\u000a        (S\u000a          (VP (TO to)\u000a            (VP (VB study)\u000a              (NP\u000a                (NP (NN gene) (NN expression))\u000a                (CC and)\u000a                (NP (JJ various) (JJ human) (NNS diseases))))))))\u000a    (. .)))
p6407
ssg10
I14
sg36
g4
sg37
(dp6408
sg39
(dp6409
g6283
(lp6410
g3849
ag3859
ag3869
ag3879
ag3889
ag3899
ag3909
ag3919
ag3929
ag3939
ag3949
ag3959
ag3969
ag3979
ag3989
assg41
I2035
sg42
g6271
sg43
g6271
sg44
I381
sg45
V Recombinant DNA research is usually performed to study gene expression and various human diseases.
p6411
sg47
I396
sg48
I2133
sbag0
(g23
g2
Ntp6412
Rp6413
(dp6414
g27
(dp6415
g6277
g6278
sg35
I15
sg6279
V(ROOT\u000a  (S\u000a    (NP\u000a      (NP (DT Some) (JJ drastic) (NNS demonstrations))\u000a      (PP (IN of)\u000a        (NP (NN gene) (NN modification))))\u000a    (VP (VBP have)\u000a      (VP (VBN been)\u000a        (VP (VBN made)\u000a          (PP (IN with)\u000a            (NP\u000a              (NP (NNS mice))\u000a              (CC and)\u000a              (NP (JJ other) (NNS animals)))))))\u000a    (. .)))
p6416
ssg10
I15
sg36
g4
sg37
(dp6417
sg39
(dp6418
g6283
(lp6419
g3999
ag4009
ag4019
ag4029
ag4039
ag4049
ag4059
ag4069
ag4079
ag4089
ag4099
ag4109
ag4119
ag4129
ag4139
assg41
I2134
sg42
g6271
sg43
g6271
sg44
I396
sg45
V Some drastic demonstrations of gene modification have been made with mice and other animals.
p6420
sg47
I411
sg48
I2226
sbag0
(g23
g2
Ntp6421
Rp6422
(dp6423
g27
(dp6424
g6277
g6278
sg35
I16
sg6279
V(ROOT\u000a  (S\u000a    (PP (IN In)\u000a      (NP (DT some) (NNS instances)))\u000a    (NP (NNS changes))\u000a    (VP (VBP are)\u000a      (ADVP (RB usually))\u000a      (VP (VBN brought)\u000a        (PP (RB about) (IN by)\u000a          (S\u000a            (VP\u000a              (VP (VBG removing)\u000a                (NP (JJ genetic) (NN material))\u000a                (PP (IN from)\u000a                  (NP (CD one) (NN organism))))\u000a              (CC and)\u000a              (VP (VBG transferring)\u000a                (NP (PRP them))\u000a                (PP (IN into)\u000a                  (NP (DT another) (NNS species)))))))))\u000a    (. .)))
p6425
ssg10
I16
sg36
g4
sg37
(dp6426
sg39
(dp6427
g6283
(lp6428
g4149
ag4159
ag4169
ag4179
ag4189
ag4199
ag4209
ag4219
ag4229
ag4239
ag4249
ag4259
ag4269
ag4279
ag4289
ag4299
ag4309
ag4319
ag4329
ag4339
ag4349
ag4359
assg41
I2227
sg42
g6271
sg43
g6271
sg44
I411
sg45
V In some instances changes are usually brought about by removing genetic material from one organism and transferring them into another species.
p6429
sg47
I433
sg48
I2369
sbag0
(g23
g2
Ntp6430
Rp6431
(dp6432
g27
(dp6433
g6277
g6278
sg35
I17
sg6279
V(ROOT\u000a  (S\u000a    (NP\u000a      (NP (DT The) (JJ potential))\u000a      (SBAR\u000a        (S\u000a          (VP (TO to)\u000a            (VP\u000a              (ADVP (RB genetically))\u000a              (VB engineer)\u000a              (NP (NNS humans)))))))\u000a    (VP (VBZ has)\u000a      (VP (VBN raised)\u000a        (NP (JJ many) (JJ ethical) (NNS issues))))\u000a    (. .)))
p6434
ssg10
I17
sg36
g4
sg37
(dp6435
sg39
(dp6436
g6283
(lp6437
g4369
ag4379
ag4389
ag4399
ag4409
ag4419
ag4429
ag4439
ag4449
ag4459
ag4469
ag4479
assg41
I2371
sg42
g6271
sg43
g6271
sg44
I433
sg45
V\u000a\u000aThe potential to genetically engineer humans has raised many ethical issues.
p6438
sg47
I445
sg48
I2447
sbag0
(g23
g2
Ntp6439
Rp6440
(dp6441
g27
(dp6442
g6277
g6278
sg35
I18
sg6279
V(ROOT\u000a  (S\u000a    (NP (DT The) (NNS issues))\u000a    (VP (VBP range)\u000a      (PP (IN from)\u000a        (NP (DT a) (NN belief)))\u000a      (SBAR (IN that)\u000a        (S\u000a          (NP (DT every) (NN fetus))\u000a          (VP (VBZ has)\u000a            (NP (DT an) (JJ inherent) (NN right)\u000a              (S\u000a                (VP (TO to)\u000a                  (VP (VB remain)\u000a                    (ADJP (RB genetically) (JJ unmodified)\u000a                      (PP (TO to)\u000a                        (NP\u000a                          (NP (DT a) (NN belief))\u000a                          (SBAR\u000a                            (WHNP (WDT that) (NNS parents))\u000a                            (S\u000a                              (VP (VBP hold)\u000a                                (S\u000a                                  (NP (DT the) (NNS rights))\u000a                                  (VP (TO to)\u000a                                    (VP (VB change)\u000a                                      (NP (PRP$ their) (JJ unborn) (NNS children))\u000a                                      (PP (-LRB- -LSB-)\u000a                                        (NP (NN REF) (-RRB- -RSB-))))))))))))))))))))\u000a    (. .)))
p6443
ssg10
I18
sg36
g4
sg37
(dp6444
sg39
(dp6445
g6283
(lp6446
g4489
ag4499
ag4509
ag4519
ag4529
ag4539
ag4549
ag4559
ag4569
ag4579
ag4589
ag4599
ag4609
ag4619
ag4629
ag4639
ag4649
ag4659
ag4669
ag4679
ag4689
ag4699
ag4709
ag4719
ag4729
ag4739
ag4749
ag4759
ag4769
ag4779
ag4789
ag4799
ag4809
ag4819
assg41
I2448
sg42
g6271
sg43
g6271
sg44
I445
sg45
V The issues range from a belief that every fetus has an inherent right to remain genetically unmodified to a belief that parents hold the rights to change their unborn children [REF].
p6447
sg47
I479
sg48
I2630
sbag0
(g23
g2
Ntp6448
Rp6449
(dp6450
g27
(dp6451
g6277
g6278
sg35
I19
sg6279
V(ROOT\u000a  (SINV\u000a    (PP (IN In)\u000a      (NP (DT the) (NN middle)))\u000a    (VP (VBZ is))\u000a    (NP (DT the) (NN belief)\u000a      (SBAR (IN that)\u000a        (S\u000a          (NP (DT every) (NN child))\u000a          (VP (VBZ has)\u000a            (NP (DT the) (NN right)\u000a              (S\u000a                (VP (TO to)\u000a                  (VP (VB be)\u000a                    (VP (VBN born)\u000a                      (ADVP (JJ free))\u000a                      (PP (IN from)\u000a                        (NP (JJ preventable) (NNS diseases))))))))))))\u000a    (. .)))
p6452
ssg10
I19
sg36
g4
sg37
(dp6453
sg39
(dp6454
g6283
(lp6455
g4829
ag4839
ag4849
ag4859
ag4869
ag4879
ag4889
ag4899
ag4909
ag4919
ag4929
ag4939
ag4949
ag4959
ag4969
ag4979
ag4989
ag4999
ag5009
ag5019
assg41
I2631
sg42
g6271
sg43
g6271
sg44
I479
sg45
V In the middle is the belief that every child has the right to be born free from preventable diseases.
p6456
sg47
I499
sg48
I2732
sbag0
(g23
g2
Ntp6457
Rp6458
(dp6459
g27
(dp6460
g6277
g6278
sg35
I20
sg6279
V(ROOT\u000a  (S\u000a    (NP (JJ Molecular) (NNP Biologist) (NNP Lee) (NNP M.) (NNP Silver))\u000a    (VP (VBZ believes)\u000a      (SBAR (IN that)\u000a        (S\u000a          (PP (IN unlike)\u000a            (NP\u000a              (NP\u000a                (NP (NNP Aldous) (NNP Huxley) (POS 's))\u000a                (NNP Brave) (NNP New) (NNP World))\u000a              (, ,)\u000a              (SBAR\u000a                (WHADVP (WRB where))\u000a                (S\u000a                  (NP (DT a) (JJ totalitarian) (NN government) (NN use) (NNS eugenics))\u000a                  (VP (TO to)\u000a                    (VP (VB control)\u000a                      (NP (DT the) (JJ genetic) (NN makeup))\u000a                      (PP (IN within)\u000a                        (NP (NN society)))))))))\u000a          (, ,)\u000a          (NP\u000a            (NP (DT the) (NN use))\u000a            (PP (IN of)\u000a              (NP (NN gene) (NN therapy)))\u000a            (S\u000a              (VP (TO to)\u000a                (VP (VB design)\u000a                  (NP (NNS children))))))\u000a          (VP (MD will)\u000a            (VP (VB be)\u000a              (VP (VBN spread)\u000a                (PP (IN through)\u000a                  (SBAR\u000a                    (WHNP (WP what))\u000a                    (S\u000a                      (NP (PRP he))\u000a                      (VP (VBZ calls) (`` ``)\u000a                        (NP (JJ free) (NN market) (NNS eugenics))\u000a                        ('' '')\u000a                        (PRN (-LRB- -LRB-)\u000a                          (NP (NNP Silver) (CD 315))\u000a                          (-RRB- -RRB-))))))))))))\u000a    (. .)))
p6461
ssg10
I20
sg36
g4
sg37
(dp6462
sg39
(dp6463
g6283
(lp6464
g5029
ag5039
ag5049
ag5059
ag5069
ag5079
ag5089
ag5099
ag5109
ag5119
ag5129
ag5139
ag5149
ag5159
ag5169
ag5179
ag5189
ag5199
ag5209
ag5219
ag5229
ag5239
ag5249
ag5259
ag5269
ag5279
ag5289
ag5299
ag5309
ag5319
ag5329
ag5339
ag5349
ag5359
ag5369
ag5379
ag5389
ag5399
ag5409
ag5419
ag5429
ag5439
ag5449
ag5459
ag5469
ag5479
ag5489
ag5499
ag5509
ag5519
ag5529
ag5539
ag5549
ag5559
assg41
I2735
sg42
g6271
sg43
g6271
sg44
I499
sg45
V \u000a\u000aMolecular Biologist Lee M. Silver believes that unlike Aldous Huxley\u2019s Brave New World, where a totalitarian government use eugenics to control the genetic makeup within society, the use of gene therapy to design children will be spread through what he calls \u201cfree market eugenics\u201d (Silver 315).
p6465
sg47
I553
sg48
I3030
sbag0
(g23
g2
Ntp6466
Rp6467
(dp6468
g27
(dp6469
g6277
g6278
sg35
I21
sg6279
V(ROOT\u000a  (S\u000a    (S\u000a      (NP (JJ Wealthy) (NNS families))\u000a      (VP (MD will)\u000a        (VP (VB opt)\u000a          (S\u000a            (VP (TO to)\u000a              (VP (VB design)\u000a                (NP (PRP$ their) (NN child))\u000a                (PP (IN with)\u000a                  (NP (JJ genetic) (NNS advantages)))\u000a                (SBAR (IN because)\u000a                  (S\u000a                    (NP (JJ other) (NNS families))\u000a                    (VP (VBP are)\u000a                      (VP (VBG doing)\u000a                        (ADVP (RB so))))))))))))\u000a    (, ,)\u000a    (CC and)\u000a    (S\u000a      (NP (NN everybody))\u000a      (VP (VBZ wants)\u000a        (S\u000a          (VP (TO to)\u000a            (VP (VB provide)\u000a              (NP (PRP$ their) (JJ newborn) (NN child))\u000a              (PP (IN with)\u000a                (NP\u000a                  (NP (DT the) (JJS best) (NNS opportunities))\u000a                  (PP (IN in)\u000a                    (NP (NN life))))))))))\u000a    (. .)))
p6470
ssg10
I21
sg36
g4
sg37
(dp6471
sg39
(dp6472
g6283
(lp6473
g5569
ag5579
ag5589
ag5599
ag5609
ag5619
ag5629
ag5639
ag5649
ag5659
ag5669
ag5679
ag5689
ag5699
ag5709
ag5719
ag5729
ag5739
ag5749
ag5759
ag5769
ag5779
ag5789
ag5799
ag5809
ag5819
ag5829
ag5839
ag5849
ag5859
ag5869
ag5879
ag5889
assg41
I3031
sg42
g6271
sg43
g6271
sg44
I553
sg45
V Wealthy families will opt to design their child with genetic advantages because other families are doing so, and everybody wants to provide their newborn child with the best opportunities in life.
p6474
sg47
I586
sg48
I3227
sbag0
(g23
g2
Ntp6475
Rp6476
(dp6477
g27
(dp6478
g6277
g6278
sg35
I22
sg6279
V(ROOT\u000a  (S\u000a    (NP (NN Silver))\u000a    (VP (VBZ thinks)\u000a      (SBAR (IN that)\u000a        (S\u000a          (NP\u000a            (NP (DT the) (NN use))\u000a            (PP (IN of)\u000a              (NP (NN germline) (NN gene) (NN therapy))))\u000a          (VP (MD will)\u000a            (VP (VB mean)\u000a              (SBAR\u000a                (S\u000a                  (NP (JJ wealthy) (NNS families))\u000a                  (VP (VBP pass)\u000a                    (ADVP (RB down))\u000a                    (NP\u000a                      (NP (VBN enhanced) (NNS traits))\u000a                      (PP (TO to)\u000a                        (NP (PRP$ their) (NNS children))))\u000a                    (, ,)\u000a                    (S\u000a                      (ADVP (RB potentially))\u000a                      (VP (VBG disadvantaging)\u000a                        (NP\u000a                          (NP (JJR poorer) (NNS families))\u000a                          (SBAR\u000a                            (WHNP (WDT that))\u000a                            (S\u000a                              (VP (MD can) (RB not)\u000a                                (VP (VB afford)\u000a                                  (NP (DT the) (NN technology)))))))))))))))))\u000a    (. .)))
p6479
ssg10
I22
sg36
g4
sg37
(dp6480
sg39
(dp6481
g6283
(lp6482
g5899
ag5909
ag5919
ag5929
ag5939
ag5949
ag5959
ag5969
ag5979
ag5989
ag5999
ag6009
ag6019
ag6029
ag6039
ag6049
ag6059
ag6069
ag6079
ag6089
ag6099
ag6109
ag6119
ag6129
ag6139
ag6149
ag6159
ag6169
ag6179
ag6189
ag6199
ag6209
assg41
I3228
sg42
g6271
sg43
g6271
sg44
I586
sg45
V Silver thinks that the use of germline gene therapy will mean wealthy families pass down enhanced traits to their children, potentially disadvantaging poorer families that can not afford the technology.
p6483
sg47
I618
sg48
I3430
sbag0
(g23
g2
Ntp6484
Rp6485
(dp6486
g27
(dp6487
g6277
g6278
sg35
I23
sg6279
V(ROOT\u000a  (FRAG (-LRB- -LRB-)\u000a    (NP (NN Silver) (CD 313))\u000a    (-RRB- -RRB-) (. .)))
p6488
ssg10
I23
sg36
g4
sg37
(dp6489
sg39
(dp6490
g6283
(lp6491
g6219
ag6229
ag6239
ag6249
ag6259
assg41
I3431
sg42
g6271
sg43
g6271
sg44
I618
sg45
V (Silver 313) .
p6492
sg47
I623
sg48
I3445
sbassg37
(dp6493
sg39
(dp6494
sg47
I-1
sg6283
g22
sg42
g6268
sg36
Nsg27
(dp6495
sg44
I0
sg45
VHuman genetic engineering is the alteration of an individual's genotype with the aim of choosing the phenotype of a newborn or changing the existing phenotype of a child or adult. {{Cite journal | last =\u000a | first = \u000a | author-link = \u000a | last2 = \u000a | first2 = \u000a | author2-link = \u000a | title = \u000a | volume = \u000a | edition = \u000a | url = \u000a | doi = \u000a | id = \u000a | isbn =\u000a | postscript = \u000aIt holds the promise of curing genetic diseases like cystic fibrosis, and increasing the immunity of people to viruses. It is speculated that genetic engineering could be used to change physical appearance, metabolism, and even improve mental faculties like memory and intelligence, although for now these uses seem to be of lower priority to researchers and are therefore limited to science fiction.\u000a\u000aGene therapy trials on humans began in 2004 on patients with Severe Combined Immunodeficiency (SCID). In 2000, the first gene therapy "success" resulted in SCID patients with a functional immune system. These trials were stopped when it was discovered that two of ten patients in one trial had developed leukemia resulting from the insertion of the gene-carrying retrovirus near an oncogene. In 2007, four of the ten patients had developed leukemia [REF]. Work is now focusing on correcting the gene without triggering an oncogene. \u000a\u000aTrial treatments of SCID have been gene therapy's only success; since 1999, gene therapy has restored the immune systems of at least 17 children with two forms (ADA-SCID and X-SCID) of the disorder. \u000a\u000aHuman genetic engineering is already being used on a small scale to allow infertile women with genetic defects in their mitochondria to have children [REF]. Healthy human eggs from a second mother are used. The child produced this way has genetic information from two mothers and one father [REF]. The changes made are germline changes and will likely be passed down from generation to generation, and, thus, are a permanent change to the human genome [REF]. \u000a\u000aOther forms of human genetic engineering are still theoretical. Recombinant DNA research is usually performed to study gene expression and various human diseases. Some drastic demonstrations of gene modification have been made with mice and other animals. In some instances changes are usually brought about by removing genetic material from one organism and transferring them into another species.\u000a\u000aThe potential to genetically engineer humans has raised many ethical issues. The issues range from a belief that every fetus has an inherent right to remain genetically unmodified to a belief that parents hold the rights to change their unborn children [REF]. In the middle is the belief that every child has the right to be born free from preventable diseases. \u000a\u000aMolecular Biologist Lee M. Silver believes that unlike Aldous Huxley\u2019s Brave New World, where a totalitarian government use eugenics to control the genetic makeup within society, the use of gene therapy to design children will be spread through what he calls \u201cfree market eugenics\u201d (Silver 315). Wealthy families will opt to design their child with genetic advantages because other families are doing so, and everybody wants to provide their newborn child with the best opportunities in life. Silver thinks that the use of germline gene therapy will mean wealthy families pass down enhanced traits to their children, potentially disadvantaging poorer families that can not afford the technology. (Silver 313) .
p6496
sS'sents'
p6497
g6272
sg43
g6268
sg41
I0
sS'id'
p6498
g16
sg48
I3445
sS'sentFeatures'
p6499
(lp6500
sb.