ccopy_reg
_reconstructor
p0
(cpygate.doc
Document
p1
c__builtin__
object
p2
Ntp3
Rp4
(dp5
S'src'
p6
V.\u000a\u000aImmigration and crime refers to perceived or actual relationships between crime and immigration.\u000a\u000aThe Handbook of Crime Correlates (2009), a review of studies of correlates with crime, states that most studies on immigrants have found higher rates of crime. However, this varies greatly depending on the country of origin with immigrants from some regions having lower crime rates than the indigenous population [REF].\u000a\u000aA "new anti-immigrant" movement has become apparent in some European countries, especially the Netherlands, Scandinavia, and Switzerland, during the early 21st century. The issue of immigrant crime plays an important role in the political debate in these countries [REF].\u000a\u000aImmigrants are overrepresented in Sweden's crime statistics. During the period 1997-2001, 25% of the almost 1,520,000 offences were committed by people born abroad, while almost 20% were committed by Swedish-born people with a foreign background. \u000a[REF] .\u000a\u000aIn Switzerland, 69.7% of prison population had no Swiss citizenship, compared to 22.1% of total resident population (as of 2008). \u000aThe figure of arrests by residence status is not usually made public. As in 1997 the conviction rate of Swiss citizens fell below 50% for the first time, a special report was compiled by the Federal Department of Justice and Police (published in 2001) which for the year 1998 found an arrest rate per 1000 adult population of 2.3 for Swiss citizens, 4.2 for legally resident aliens and 32 for asylum seekers. \u000a21% of arrests made concerned individuals with no residence status, who were thus either sans papiers or "crime tourists" without any permanent residence in Switzerland [REF]. \u000a\u000aThe term ("foreigner criminality") since the 1990s has become a politically charged term, with the populist "black sheep" campaign for the "initiative for the extradition of criminal foreigners" of the Swiss People's Party making international headlines in September 2007. \u000a\u000aIn April 2010, the director of the Federal Office for Migration (BFM), Alard du Bois-Reymond, issued a statement on the large number of unfounded requests for asylum by nationals of Nigeria in particular. \u000aDu Bois-Reymond said that 99.5% of asylum seekers of Nigerian origin were abusing the asylum system, entering Switzerland with the intention of pursuing petty crime and drug dealing [REF].\u000aThe Nigerian ambassador to Switzerland, Martin Ihoeghian Uhomoibhi, objected to du Boi-Reymond's statement as an undue generalization [REF].\u000a\u000aIt was reported in 2007 that more than one-fifth of crime in London was committed by immigrants [REF]. A 2008 study found that the crime rate of Eastern European immigrants was the same as that of the indigenous population [REF].\u000a\u000aThe Handbook of Crime Correlates states that unlike studies outside the US, a majority of studies in the US have found lower crime rates among immigrants than among non-immigrants. Again, the country of origin may be more important than immigrant status itself [REF]. \u000a\u000aThe Center for Immigration Studies in a 2009 report argued that "New government data indicate that immigrants have high rates of criminality, while older academic research found low rates. The overall picture of immigrants and crime remains confused due to a lack of good data and contrary information."[REF] This view is disputed by Tony Waters and others [REF]. who point out that some studies show that immigrants in the United States are often associated with lower levels of crime than native born.
p7
sS'string'
p8
S'.\n\nImmigration and crime refers to perceived or actual relationships between crime and immigration.\n\nThe Handbook of Crime Correlates (2009), a review of studies of correlates with crime, states that most studies on immigrants have found higher rates of crime. However, this varies greatly depending on the country of origin with immigrants from some regions having lower crime rates than the indigenous population [REF].\n\nA "new anti-immigrant" movement has become apparent in some European countries, especially the Netherlands, Scandinavia, and Switzerland, during the early 21st century. The issue of immigrant crime plays an important role in the political debate in these countries [REF].\n\nImmigrants are overrepresented in Sweden\'s crime statistics. During the period 1997-2001, 25% of the almost 1,520,000 offences were committed by people born abroad, while almost 20% were committed by Swedish-born people with a foreign background. \n[REF] .\n\nIn Switzerland, 69.7% of prison population had no Swiss citizenship, compared to 22.1% of total resident population (as of 2008). \nThe figure of arrests by residence status is not usually made public. As in 1997 the conviction rate of Swiss citizens fell below 50% for the first time, a special report was compiled by the Federal Department of Justice and Police (published in 2001) which for the year 1998 found an arrest rate per 1000 adult population of 2.3 for Swiss citizens, 4.2 for legally resident aliens and 32 for asylum seekers. \n21% of arrests made concerned individuals with no residence status, who were thus either sans papiers or "crime tourists" without any permanent residence in Switzerland [REF]. \n\nThe term ("foreigner criminality") since the 1990s has become a politically charged term, with the populist "black sheep" campaign for the "initiative for the extradition of criminal foreigners" of the Swiss People\'s Party making international headlines in September 2007. \n\nIn April 2010, the director of the Federal Office for Migration (BFM), Alard du Bois-Reymond, issued a statement on the large number of unfounded requests for asylum by nationals of Nigeria in particular. \nDu Bois-Reymond said that 99.5% of asylum seekers of Nigerian origin were abusing the asylum system, entering Switzerland with the intention of pursuing petty crime and drug dealing [REF].\nThe Nigerian ambassador to Switzerland, Martin Ihoeghian Uhomoibhi, objected to du Boi-Reymond\'s statement as an undue generalization [REF].\n\nIt was reported in 2007 that more than one-fifth of crime in London was committed by immigrants [REF]. A 2008 study found that the crime rate of Eastern European immigrants was the same as that of the indigenous population [REF].\n\nThe Handbook of Crime Correlates states that unlike studies outside the US, a majority of studies in the US have found lower crime rates among immigrants than among non-immigrants. Again, the country of origin may be more important than immigrant status itself [REF]. \n\nThe Center for Immigration Studies in a 2009 report argued that "New government data indicate that immigrants have high rates of criminality, while older academic research found low rates. The overall picture of immigrants and crime remains confused due to a lack of good data and contrary information."[REF] This view is disputed by Tony Waters and others [REF]. who point out that some studies show that immigrants in the United States are often associated with lower levels of crime than native born.'
p9
sS'idx'
p10
I0
sS'tknFeatures'
p11
(lp12
sS'docFeatures'
p13
(dp14
S'file_id'
p15
S'Immigration_and_crime'
p16
ssS'items'
p17
(dp18
S'raw'
p19
V.\u000a\u000aImmigration and crime refers to perceived or actual relationships between crime and immigration.\u000a\u000aThe Handbook of Crime Correlates (2009), a review of studies of correlates with crime, states that most studies on immigrants have found higher rates of crime. However, this varies greatly depending on the country of origin with immigrants from some regions having lower crime rates than the indigenous population [REF].\u000a\u000aA "new anti-immigrant" movement has become apparent in some European countries, especially the Netherlands, Scandinavia, and Switzerland, during the early 21st century. The issue of immigrant crime plays an important role in the political debate in these countries [REF].\u000a\u000aImmigrants are overrepresented in Sweden's crime statistics. During the period 1997-2001, 25% of the almost 1,520,000 offences were committed by people born abroad, while almost 20% were committed by Swedish-born people with a foreign background. \u000a[REF] .\u000a\u000aIn Switzerland, 69.7% of prison population had no Swiss citizenship, compared to 22.1% of total resident population (as of 2008). \u000aThe figure of arrests by residence status is not usually made public. As in 1997 the conviction rate of Swiss citizens fell below 50% for the first time, a special report was compiled by the Federal Department of Justice and Police (published in 2001) which for the year 1998 found an arrest rate per 1000 adult population of 2.3 for Swiss citizens, 4.2 for legally resident aliens and 32 for asylum seekers. \u000a21% of arrests made concerned individuals with no residence status, who were thus either sans papiers or "crime tourists" without any permanent residence in Switzerland [REF]. \u000a\u000aThe term ("foreigner criminality") since the 1990s has become a politically charged term, with the populist "black sheep" campaign for the "initiative for the extradition of criminal foreigners" of the Swiss People's Party making international headlines in September 2007. \u000a\u000aIn April 2010, the director of the Federal Office for Migration (BFM), Alard du Bois-Reymond, issued a statement on the large number of unfounded requests for asylum by nationals of Nigeria in particular. \u000aDu Bois-Reymond said that 99.5% of asylum seekers of Nigerian origin were abusing the asylum system, entering Switzerland with the intention of pursuing petty crime and drug dealing [REF].\u000aThe Nigerian ambassador to Switzerland, Martin Ihoeghian Uhomoibhi, objected to du Boi-Reymond's statement as an undue generalization [REF].\u000a\u000aIt was reported in 2007 that more than one-fifth of crime in London was committed by immigrants [REF]. A 2008 study found that the crime rate of Eastern European immigrants was the same as that of the indigenous population [REF].\u000a\u000aThe Handbook of Crime Correlates states that unlike studies outside the US, a majority of studies in the US have found lower crime rates among immigrants than among non-immigrants. Again, the country of origin may be more important than immigrant status itself [REF]. \u000a\u000aThe Center for Immigration Studies in a 2009 report argued that "New government data indicate that immigrants have high rates of criminality, while older academic research found low rates. The overall picture of immigrants and crime remains confused due to a lack of good data and contrary information."[REF] This view is disputed by Tony Waters and others [REF]. who point out that some studies show that immigrants in the United States are often associated with lower levels of crime than native born.
p20
sS'Token'
p21
(lp22
g0
(cpygate.annotation
Annotation
p23
g2
Ntp24
Rp25
(dp26
S'features'
p27
(dp28
S'lemma'
p29
V.
p30
sS'ner'
p31
VO
p32
sS'pos'
p33
V.
p34
sS'index'
p35
I1
ssg10
I0
sS'doc'
p36
g4
sS'labels'
p37
(dp38
sS'relations'
p39
(dp40
sS'cStart'
p41
I0
sS'subType'
p42
g21
sS'annoType'
p43
g21
sS'tStart'
p44
I0
sS'text'
p45
V.
p46
sS'tEnd'
p47
I0
sS'cEnd'
p48
I1
sbag0
(g23
g2
Ntp49
Rp50
(dp51
g27
(dp52
g29
VImmigration
p53
sg31
VO
p54
sg33
VNNP
p55
sg35
I1
ssg10
I1
sg36
g4
sg37
(dp56
sg39
(dp57
sg41
I3
sg42
g21
sg43
g21
sg44
I1
sg45
VImmigration
p58
sg47
I1
sg48
I14
sbag0
(g23
g2
Ntp59
Rp60
(dp61
g27
(dp62
g29
Vand
p63
sg31
VO
p64
sg33
VCC
p65
sg35
I2
ssg10
I2
sg36
g4
sg37
(dp66
sg39
(dp67
sg41
I15
sg42
g21
sg43
g21
sg44
I2
sg45
Vand
p68
sg47
I2
sg48
I18
sbag0
(g23
g2
Ntp69
Rp70
(dp71
g27
(dp72
g29
Vcrime
p73
sg31
VO
p74
sg33
VNN
p75
sg35
I3
ssg10
I3
sg36
g4
sg37
(dp76
sg39
(dp77
sg41
I19
sg42
g21
sg43
g21
sg44
I3
sg45
Vcrime
p78
sg47
I3
sg48
I24
sbag0
(g23
g2
Ntp79
Rp80
(dp81
g27
(dp82
g29
Vrefer
p83
sg31
VO
p84
sg33
VVBZ
p85
sg35
I4
ssg10
I4
sg36
g4
sg37
(dp86
sg39
(dp87
sg41
I25
sg42
g21
sg43
g21
sg44
I4
sg45
Vrefers
p88
sg47
I4
sg48
I31
sbag0
(g23
g2
Ntp89
Rp90
(dp91
g27
(dp92
g29
Vto
p93
sg31
VO
p94
sg33
VTO
p95
sg35
I5
ssg10
I5
sg36
g4
sg37
(dp96
sg39
(dp97
sg41
I32
sg42
g21
sg43
g21
sg44
I5
sg45
Vto
p98
sg47
I5
sg48
I34
sbag0
(g23
g2
Ntp99
Rp100
(dp101
g27
(dp102
g29
Vperceive
p103
sg31
VO
p104
sg33
VVBN
p105
sg35
I6
ssg10
I6
sg36
g4
sg37
(dp106
sg39
(dp107
sg41
I35
sg42
g21
sg43
g21
sg44
I6
sg45
Vperceived
p108
sg47
I6
sg48
I44
sbag0
(g23
g2
Ntp109
Rp110
(dp111
g27
(dp112
g29
Vor
p113
sg31
VO
p114
sg33
VCC
p115
sg35
I7
ssg10
I7
sg36
g4
sg37
(dp116
sg39
(dp117
sg41
I45
sg42
g21
sg43
g21
sg44
I7
sg45
Vor
p118
sg47
I7
sg48
I47
sbag0
(g23
g2
Ntp119
Rp120
(dp121
g27
(dp122
g29
Vactual
p123
sg31
VO
p124
sg33
VJJ
p125
sg35
I8
ssg10
I8
sg36
g4
sg37
(dp126
sg39
(dp127
sg41
I48
sg42
g21
sg43
g21
sg44
I8
sg45
Vactual
p128
sg47
I8
sg48
I54
sbag0
(g23
g2
Ntp129
Rp130
(dp131
g27
(dp132
g29
Vrelationship
p133
sg31
VO
p134
sg33
VNNS
p135
sg35
I9
ssg10
I9
sg36
g4
sg37
(dp136
sg39
(dp137
sg41
I55
sg42
g21
sg43
g21
sg44
I9
sg45
Vrelationships
p138
sg47
I9
sg48
I68
sbag0
(g23
g2
Ntp139
Rp140
(dp141
g27
(dp142
g29
Vbetween
p143
sg31
VO
p144
sg33
VIN
p145
sg35
I10
ssg10
I10
sg36
g4
sg37
(dp146
sg39
(dp147
sg41
I69
sg42
g21
sg43
g21
sg44
I10
sg45
Vbetween
p148
sg47
I10
sg48
I76
sbag0
(g23
g2
Ntp149
Rp150
(dp151
g27
(dp152
g29
Vcrime
p153
sg31
VO
p154
sg33
VNN
p155
sg35
I11
ssg10
I11
sg36
g4
sg37
(dp156
sg39
(dp157
sg41
I77
sg42
g21
sg43
g21
sg44
I11
sg45
Vcrime
p158
sg47
I11
sg48
I82
sbag0
(g23
g2
Ntp159
Rp160
(dp161
g27
(dp162
g29
Vand
p163
sg31
VO
p164
sg33
VCC
p165
sg35
I12
ssg10
I12
sg36
g4
sg37
(dp166
sg39
(dp167
sg41
I83
sg42
g21
sg43
g21
sg44
I12
sg45
Vand
p168
sg47
I12
sg48
I86
sbag0
(g23
g2
Ntp169
Rp170
(dp171
g27
(dp172
g29
Vimmigration
p173
sg31
VO
p174
sg33
VNN
p175
sg35
I13
ssg10
I13
sg36
g4
sg37
(dp176
sg39
(dp177
sg41
I87
sg42
g21
sg43
g21
sg44
I13
sg45
Vimmigration
p178
sg47
I13
sg48
I98
sbag0
(g23
g2
Ntp179
Rp180
(dp181
g27
(dp182
g29
V.
p183
sg31
VO
p184
sg33
V.
p185
sg35
I14
ssg10
I14
sg36
g4
sg37
(dp186
sg39
(dp187
sg41
I98
sg42
g21
sg43
g21
sg44
I14
sg45
V.
p188
sg47
I14
sg48
I99
sbag0
(g23
g2
Ntp189
Rp190
(dp191
g27
(dp192
g29
Vthe
p193
sg31
VO
p194
sg33
VDT
p195
sg35
I1
ssg10
I15
sg36
g4
sg37
(dp196
sg39
(dp197
sg41
I101
sg42
g21
sg43
g21
sg44
I15
sg45
VThe
p198
sg47
I15
sg48
I104
sbag0
(g23
g2
Ntp199
Rp200
(dp201
g27
(dp202
g29
Vhandbook
p203
sg31
VO
p204
sg33
VNN
p205
sg35
I2
ssg10
I16
sg36
g4
sg37
(dp206
sg39
(dp207
sg41
I105
sg42
g21
sg43
g21
sg44
I16
sg45
VHandbook
p208
sg47
I16
sg48
I113
sbag0
(g23
g2
Ntp209
Rp210
(dp211
g27
(dp212
g29
Vof
p213
sg31
VO
p214
sg33
VIN
p215
sg35
I3
ssg10
I17
sg36
g4
sg37
(dp216
sg39
(dp217
sg41
I114
sg42
g21
sg43
g21
sg44
I17
sg45
Vof
p218
sg47
I17
sg48
I116
sbag0
(g23
g2
Ntp219
Rp220
(dp221
g27
(dp222
g29
Vcrime
p223
sg31
VO
p224
sg33
VNN
p225
sg35
I4
ssg10
I18
sg36
g4
sg37
(dp226
sg39
(dp227
sg41
I117
sg42
g21
sg43
g21
sg44
I18
sg45
VCrime
p228
sg47
I18
sg48
I122
sbag0
(g23
g2
Ntp229
Rp230
(dp231
g27
(dp232
g29
Vcorrelate
p233
sg31
VO
p234
sg33
VVBZ
p235
sg35
I5
ssg10
I19
sg36
g4
sg37
(dp236
sg39
(dp237
sg41
I123
sg42
g21
sg43
g21
sg44
I19
sg45
VCorrelates
p238
sg47
I19
sg48
I133
sbag0
(g23
g2
Ntp239
Rp240
(dp241
g27
(dp242
g29
V-lrb-
p243
sg31
VO
p244
sg33
V-LRB-
p245
sg35
I6
ssg10
I20
sg36
g4
sg37
(dp246
sg39
(dp247
sg41
I134
sg42
g21
sg43
g21
sg44
I20
sg45
V(
p248
sg47
I20
sg48
I135
sbag0
(g23
g2
Ntp249
Rp250
(dp251
g27
(dp252
g29
V2009
p253
sg31
VDATE
p254
sg33
VCD
p255
sg35
I7
ssg10
I21
sg36
g4
sg37
(dp256
sg39
(dp257
sg41
I135
sg42
g21
sg43
g21
sg44
I21
sg45
V2009
p258
sg47
I21
sg48
I139
sbag0
(g23
g2
Ntp259
Rp260
(dp261
g27
(dp262
g29
V-rrb-
p263
sg31
VO
p264
sg33
V-RRB-
p265
sg35
I8
ssg10
I22
sg36
g4
sg37
(dp266
sg39
(dp267
sg41
I139
sg42
g21
sg43
g21
sg44
I22
sg45
V)
p268
sg47
I22
sg48
I140
sbag0
(g23
g2
Ntp269
Rp270
(dp271
g27
(dp272
g29
V,
p273
sg31
VO
p274
sg33
V,
p275
sg35
I9
ssg10
I23
sg36
g4
sg37
(dp276
sg39
(dp277
sg41
I140
sg42
g21
sg43
g21
sg44
I23
sg45
V,
p278
sg47
I23
sg48
I141
sbag0
(g23
g2
Ntp279
Rp280
(dp281
g27
(dp282
g29
Va
p283
sg31
VO
p284
sg33
VDT
p285
sg35
I10
ssg10
I24
sg36
g4
sg37
(dp286
sg39
(dp287
sg41
I142
sg42
g21
sg43
g21
sg44
I24
sg45
Va
p288
sg47
I24
sg48
I143
sbag0
(g23
g2
Ntp289
Rp290
(dp291
g27
(dp292
g29
Vreview
p293
sg31
VO
p294
sg33
VNN
p295
sg35
I11
ssg10
I25
sg36
g4
sg37
(dp296
sg39
(dp297
sg41
I144
sg42
g21
sg43
g21
sg44
I25
sg45
Vreview
p298
sg47
I25
sg48
I150
sbag0
(g23
g2
Ntp299
Rp300
(dp301
g27
(dp302
g29
Vof
p303
sg31
VO
p304
sg33
VIN
p305
sg35
I12
ssg10
I26
sg36
g4
sg37
(dp306
sg39
(dp307
sg41
I151
sg42
g21
sg43
g21
sg44
I26
sg45
Vof
p308
sg47
I26
sg48
I153
sbag0
(g23
g2
Ntp309
Rp310
(dp311
g27
(dp312
g29
Vstudy
p313
sg31
VO
p314
sg33
VNNS
p315
sg35
I13
ssg10
I27
sg36
g4
sg37
(dp316
sg39
(dp317
sg41
I154
sg42
g21
sg43
g21
sg44
I27
sg45
Vstudies
p318
sg47
I27
sg48
I161
sbag0
(g23
g2
Ntp319
Rp320
(dp321
g27
(dp322
g29
Vof
p323
sg31
VO
p324
sg33
VIN
p325
sg35
I14
ssg10
I28
sg36
g4
sg37
(dp326
sg39
(dp327
sg41
I162
sg42
g21
sg43
g21
sg44
I28
sg45
Vof
p328
sg47
I28
sg48
I164
sbag0
(g23
g2
Ntp329
Rp330
(dp331
g27
(dp332
g29
Vcorrelate
p333
sg31
VO
p334
sg33
VVBZ
p335
sg35
I15
ssg10
I29
sg36
g4
sg37
(dp336
sg39
(dp337
sg41
I165
sg42
g21
sg43
g21
sg44
I29
sg45
Vcorrelates
p338
sg47
I29
sg48
I175
sbag0
(g23
g2
Ntp339
Rp340
(dp341
g27
(dp342
g29
Vwith
p343
sg31
VO
p344
sg33
VIN
p345
sg35
I16
ssg10
I30
sg36
g4
sg37
(dp346
sg39
(dp347
sg41
I176
sg42
g21
sg43
g21
sg44
I30
sg45
Vwith
p348
sg47
I30
sg48
I180
sbag0
(g23
g2
Ntp349
Rp350
(dp351
g27
(dp352
g29
Vcrime
p353
sg31
VO
p354
sg33
VNN
p355
sg35
I17
ssg10
I31
sg36
g4
sg37
(dp356
sg39
(dp357
sg41
I181
sg42
g21
sg43
g21
sg44
I31
sg45
Vcrime
p358
sg47
I31
sg48
I186
sbag0
(g23
g2
Ntp359
Rp360
(dp361
g27
(dp362
g29
V,
p363
sg31
VO
p364
sg33
V,
p365
sg35
I18
ssg10
I32
sg36
g4
sg37
(dp366
sg39
(dp367
sg41
I186
sg42
g21
sg43
g21
sg44
I32
sg45
V,
p368
sg47
I32
sg48
I187
sbag0
(g23
g2
Ntp369
Rp370
(dp371
g27
(dp372
g29
Vstate
p373
sg31
VO
p374
sg33
VVBZ
p375
sg35
I19
ssg10
I33
sg36
g4
sg37
(dp376
sg39
(dp377
sg41
I188
sg42
g21
sg43
g21
sg44
I33
sg45
Vstates
p378
sg47
I33
sg48
I194
sbag0
(g23
g2
Ntp379
Rp380
(dp381
g27
(dp382
g29
Vthat
p383
sg31
VO
p384
sg33
VIN
p385
sg35
I20
ssg10
I34
sg36
g4
sg37
(dp386
sg39
(dp387
sg41
I195
sg42
g21
sg43
g21
sg44
I34
sg45
Vthat
p388
sg47
I34
sg48
I199
sbag0
(g23
g2
Ntp389
Rp390
(dp391
g27
(dp392
g29
Vmost
p393
sg31
VO
p394
sg33
VJJS
p395
sg35
I21
ssg10
I35
sg36
g4
sg37
(dp396
sg39
(dp397
sg41
I200
sg42
g21
sg43
g21
sg44
I35
sg45
Vmost
p398
sg47
I35
sg48
I204
sbag0
(g23
g2
Ntp399
Rp400
(dp401
g27
(dp402
g29
Vstudy
p403
sg31
VO
p404
sg33
VNNS
p405
sg35
I22
ssg10
I36
sg36
g4
sg37
(dp406
sg39
(dp407
sg41
I205
sg42
g21
sg43
g21
sg44
I36
sg45
Vstudies
p408
sg47
I36
sg48
I212
sbag0
(g23
g2
Ntp409
Rp410
(dp411
g27
(dp412
g29
Von
p413
sg31
VO
p414
sg33
VIN
p415
sg35
I23
ssg10
I37
sg36
g4
sg37
(dp416
sg39
(dp417
sg41
I213
sg42
g21
sg43
g21
sg44
I37
sg45
Von
p418
sg47
I37
sg48
I215
sbag0
(g23
g2
Ntp419
Rp420
(dp421
g27
(dp422
g29
Vimmigrant
p423
sg31
VO
p424
sg33
VNNS
p425
sg35
I24
ssg10
I38
sg36
g4
sg37
(dp426
sg39
(dp427
sg41
I216
sg42
g21
sg43
g21
sg44
I38
sg45
Vimmigrants
p428
sg47
I38
sg48
I226
sbag0
(g23
g2
Ntp429
Rp430
(dp431
g27
(dp432
g29
Vhave
p433
sg31
VO
p434
sg33
VVBP
p435
sg35
I25
ssg10
I39
sg36
g4
sg37
(dp436
sg39
(dp437
sg41
I227
sg42
g21
sg43
g21
sg44
I39
sg45
Vhave
p438
sg47
I39
sg48
I231
sbag0
(g23
g2
Ntp439
Rp440
(dp441
g27
(dp442
g29
Vfind
p443
sg31
VO
p444
sg33
VVBN
p445
sg35
I26
ssg10
I40
sg36
g4
sg37
(dp446
sg39
(dp447
sg41
I232
sg42
g21
sg43
g21
sg44
I40
sg45
Vfound
p448
sg47
I40
sg48
I237
sbag0
(g23
g2
Ntp449
Rp450
(dp451
g27
(dp452
g29
Vhigher
p453
sg31
VO
p454
sg33
VJJR
p455
sg35
I27
ssg10
I41
sg36
g4
sg37
(dp456
sg39
(dp457
sg41
I238
sg42
g21
sg43
g21
sg44
I41
sg45
Vhigher
p458
sg47
I41
sg48
I244
sbag0
(g23
g2
Ntp459
Rp460
(dp461
g27
(dp462
g29
Vrate
p463
sg31
VO
p464
sg33
VNNS
p465
sg35
I28
ssg10
I42
sg36
g4
sg37
(dp466
sg39
(dp467
sg41
I245
sg42
g21
sg43
g21
sg44
I42
sg45
Vrates
p468
sg47
I42
sg48
I250
sbag0
(g23
g2
Ntp469
Rp470
(dp471
g27
(dp472
g29
Vof
p473
sg31
VO
p474
sg33
VIN
p475
sg35
I29
ssg10
I43
sg36
g4
sg37
(dp476
sg39
(dp477
sg41
I251
sg42
g21
sg43
g21
sg44
I43
sg45
Vof
p478
sg47
I43
sg48
I253
sbag0
(g23
g2
Ntp479
Rp480
(dp481
g27
(dp482
g29
Vcrime
p483
sg31
VO
p484
sg33
VNN
p485
sg35
I30
ssg10
I44
sg36
g4
sg37
(dp486
sg39
(dp487
sg41
I254
sg42
g21
sg43
g21
sg44
I44
sg45
Vcrime
p488
sg47
I44
sg48
I259
sbag0
(g23
g2
Ntp489
Rp490
(dp491
g27
(dp492
g29
V.
p493
sg31
VO
p494
sg33
V.
p495
sg35
I31
ssg10
I45
sg36
g4
sg37
(dp496
sg39
(dp497
sg41
I259
sg42
g21
sg43
g21
sg44
I45
sg45
V.
p498
sg47
I45
sg48
I260
sbag0
(g23
g2
Ntp499
Rp500
(dp501
g27
(dp502
g29
Vhowever
p503
sg31
VO
p504
sg33
VRB
p505
sg35
I1
ssg10
I46
sg36
g4
sg37
(dp506
sg39
(dp507
sg41
I261
sg42
g21
sg43
g21
sg44
I46
sg45
VHowever
p508
sg47
I46
sg48
I268
sbag0
(g23
g2
Ntp509
Rp510
(dp511
g27
(dp512
g29
V,
p513
sg31
VO
p514
sg33
V,
p515
sg35
I2
ssg10
I47
sg36
g4
sg37
(dp516
sg39
(dp517
sg41
I268
sg42
g21
sg43
g21
sg44
I47
sg45
V,
p518
sg47
I47
sg48
I269
sbag0
(g23
g2
Ntp519
Rp520
(dp521
g27
(dp522
g29
Vthis
p523
sg31
VO
p524
sg33
VDT
p525
sg35
I3
ssg10
I48
sg36
g4
sg37
(dp526
sg39
(dp527
sg41
I270
sg42
g21
sg43
g21
sg44
I48
sg45
Vthis
p528
sg47
I48
sg48
I274
sbag0
(g23
g2
Ntp529
Rp530
(dp531
g27
(dp532
g29
Vvary
p533
sg31
VO
p534
sg33
VVBZ
p535
sg35
I4
ssg10
I49
sg36
g4
sg37
(dp536
sg39
(dp537
sg41
I275
sg42
g21
sg43
g21
sg44
I49
sg45
Vvaries
p538
sg47
I49
sg48
I281
sbag0
(g23
g2
Ntp539
Rp540
(dp541
g27
(dp542
g29
Vgreatly
p543
sg31
VO
p544
sg33
VRB
p545
sg35
I5
ssg10
I50
sg36
g4
sg37
(dp546
sg39
(dp547
sg41
I282
sg42
g21
sg43
g21
sg44
I50
sg45
Vgreatly
p548
sg47
I50
sg48
I289
sbag0
(g23
g2
Ntp549
Rp550
(dp551
g27
(dp552
g29
Vdepend
p553
sg31
VO
p554
sg33
VVBG
p555
sg35
I6
ssg10
I51
sg36
g4
sg37
(dp556
sg39
(dp557
sg41
I290
sg42
g21
sg43
g21
sg44
I51
sg45
Vdepending
p558
sg47
I51
sg48
I299
sbag0
(g23
g2
Ntp559
Rp560
(dp561
g27
(dp562
g29
Von
p563
sg31
VO
p564
sg33
VIN
p565
sg35
I7
ssg10
I52
sg36
g4
sg37
(dp566
sg39
(dp567
sg41
I300
sg42
g21
sg43
g21
sg44
I52
sg45
Von
p568
sg47
I52
sg48
I302
sbag0
(g23
g2
Ntp569
Rp570
(dp571
g27
(dp572
g29
Vthe
p573
sg31
VO
p574
sg33
VDT
p575
sg35
I8
ssg10
I53
sg36
g4
sg37
(dp576
sg39
(dp577
sg41
I303
sg42
g21
sg43
g21
sg44
I53
sg45
Vthe
p578
sg47
I53
sg48
I306
sbag0
(g23
g2
Ntp579
Rp580
(dp581
g27
(dp582
g29
Vcountry
p583
sg31
VO
p584
sg33
VNN
p585
sg35
I9
ssg10
I54
sg36
g4
sg37
(dp586
sg39
(dp587
sg41
I307
sg42
g21
sg43
g21
sg44
I54
sg45
Vcountry
p588
sg47
I54
sg48
I314
sbag0
(g23
g2
Ntp589
Rp590
(dp591
g27
(dp592
g29
Vof
p593
sg31
VO
p594
sg33
VIN
p595
sg35
I10
ssg10
I55
sg36
g4
sg37
(dp596
sg39
(dp597
sg41
I315
sg42
g21
sg43
g21
sg44
I55
sg45
Vof
p598
sg47
I55
sg48
I317
sbag0
(g23
g2
Ntp599
Rp600
(dp601
g27
(dp602
g29
Vorigin
p603
sg31
VO
p604
sg33
VNN
p605
sg35
I11
ssg10
I56
sg36
g4
sg37
(dp606
sg39
(dp607
sg41
I318
sg42
g21
sg43
g21
sg44
I56
sg45
Vorigin
p608
sg47
I56
sg48
I324
sbag0
(g23
g2
Ntp609
Rp610
(dp611
g27
(dp612
g29
Vwith
p613
sg31
VO
p614
sg33
VIN
p615
sg35
I12
ssg10
I57
sg36
g4
sg37
(dp616
sg39
(dp617
sg41
I325
sg42
g21
sg43
g21
sg44
I57
sg45
Vwith
p618
sg47
I57
sg48
I329
sbag0
(g23
g2
Ntp619
Rp620
(dp621
g27
(dp622
g29
Vimmigrant
p623
sg31
VO
p624
sg33
VNNS
p625
sg35
I13
ssg10
I58
sg36
g4
sg37
(dp626
sg39
(dp627
sg41
I330
sg42
g21
sg43
g21
sg44
I58
sg45
Vimmigrants
p628
sg47
I58
sg48
I340
sbag0
(g23
g2
Ntp629
Rp630
(dp631
g27
(dp632
g29
Vfrom
p633
sg31
VO
p634
sg33
VIN
p635
sg35
I14
ssg10
I59
sg36
g4
sg37
(dp636
sg39
(dp637
sg41
I341
sg42
g21
sg43
g21
sg44
I59
sg45
Vfrom
p638
sg47
I59
sg48
I345
sbag0
(g23
g2
Ntp639
Rp640
(dp641
g27
(dp642
g29
Vsome
p643
sg31
VO
p644
sg33
VDT
p645
sg35
I15
ssg10
I60
sg36
g4
sg37
(dp646
sg39
(dp647
sg41
I346
sg42
g21
sg43
g21
sg44
I60
sg45
Vsome
p648
sg47
I60
sg48
I350
sbag0
(g23
g2
Ntp649
Rp650
(dp651
g27
(dp652
g29
Vregion
p653
sg31
VO
p654
sg33
VNNS
p655
sg35
I16
ssg10
I61
sg36
g4
sg37
(dp656
sg39
(dp657
sg41
I351
sg42
g21
sg43
g21
sg44
I61
sg45
Vregions
p658
sg47
I61
sg48
I358
sbag0
(g23
g2
Ntp659
Rp660
(dp661
g27
(dp662
g29
Vhave
p663
sg31
VO
p664
sg33
VVBG
p665
sg35
I17
ssg10
I62
sg36
g4
sg37
(dp666
sg39
(dp667
sg41
I359
sg42
g21
sg43
g21
sg44
I62
sg45
Vhaving
p668
sg47
I62
sg48
I365
sbag0
(g23
g2
Ntp669
Rp670
(dp671
g27
(dp672
g29
Vlower
p673
sg31
VO
p674
sg33
VJJR
p675
sg35
I18
ssg10
I63
sg36
g4
sg37
(dp676
sg39
(dp677
sg41
I366
sg42
g21
sg43
g21
sg44
I63
sg45
Vlower
p678
sg47
I63
sg48
I371
sbag0
(g23
g2
Ntp679
Rp680
(dp681
g27
(dp682
g29
Vcrime
p683
sg31
VO
p684
sg33
VNN
p685
sg35
I19
ssg10
I64
sg36
g4
sg37
(dp686
sg39
(dp687
sg41
I372
sg42
g21
sg43
g21
sg44
I64
sg45
Vcrime
p688
sg47
I64
sg48
I377
sbag0
(g23
g2
Ntp689
Rp690
(dp691
g27
(dp692
g29
Vrate
p693
sg31
VO
p694
sg33
VNNS
p695
sg35
I20
ssg10
I65
sg36
g4
sg37
(dp696
sg39
(dp697
sg41
I378
sg42
g21
sg43
g21
sg44
I65
sg45
Vrates
p698
sg47
I65
sg48
I383
sbag0
(g23
g2
Ntp699
Rp700
(dp701
g27
(dp702
g29
Vthan
p703
sg31
VO
p704
sg33
VIN
p705
sg35
I21
ssg10
I66
sg36
g4
sg37
(dp706
sg39
(dp707
sg41
I384
sg42
g21
sg43
g21
sg44
I66
sg45
Vthan
p708
sg47
I66
sg48
I388
sbag0
(g23
g2
Ntp709
Rp710
(dp711
g27
(dp712
g29
Vthe
p713
sg31
VO
p714
sg33
VDT
p715
sg35
I22
ssg10
I67
sg36
g4
sg37
(dp716
sg39
(dp717
sg41
I389
sg42
g21
sg43
g21
sg44
I67
sg45
Vthe
p718
sg47
I67
sg48
I392
sbag0
(g23
g2
Ntp719
Rp720
(dp721
g27
(dp722
g29
Vindigenous
p723
sg31
VO
p724
sg33
VJJ
p725
sg35
I23
ssg10
I68
sg36
g4
sg37
(dp726
sg39
(dp727
sg41
I393
sg42
g21
sg43
g21
sg44
I68
sg45
Vindigenous
p728
sg47
I68
sg48
I403
sbag0
(g23
g2
Ntp729
Rp730
(dp731
g27
(dp732
g29
Vpopulation
p733
sg31
VO
p734
sg33
VNN
p735
sg35
I24
ssg10
I69
sg36
g4
sg37
(dp736
sg39
(dp737
sg41
I404
sg42
g21
sg43
g21
sg44
I69
sg45
Vpopulation
p738
sg47
I69
sg48
I414
sbag0
(g23
g2
Ntp739
Rp740
(dp741
g27
(dp742
g29
V-lsb-
p743
sg31
VO
p744
sg33
V-LRB-
p745
sg35
I25
ssg10
I70
sg36
g4
sg37
(dp746
sg39
(dp747
sg41
I415
sg42
g21
sg43
g21
sg44
I70
sg45
V[
p748
sg47
I70
sg48
I416
sbag0
(g23
g2
Ntp749
Rp750
(dp751
g27
(dp752
g29
Vref
p753
sg31
VO
p754
sg33
VNN
p755
sg35
I26
ssg10
I71
sg36
g4
sg37
(dp756
sg39
(dp757
sg41
I416
sg42
g21
sg43
g21
sg44
I71
sg45
VREF
p758
sg47
I71
sg48
I419
sbag0
(g23
g2
Ntp759
Rp760
(dp761
g27
(dp762
g29
V-rsb-
p763
sg31
VO
p764
sg33
V-RRB-
p765
sg35
I27
ssg10
I72
sg36
g4
sg37
(dp766
sg39
(dp767
sg41
I419
sg42
g21
sg43
g21
sg44
I72
sg45
V]
p768
sg47
I72
sg48
I420
sbag0
(g23
g2
Ntp769
Rp770
(dp771
g27
(dp772
g29
V.
p773
sg31
VO
p774
sg33
V.
p775
sg35
I28
ssg10
I73
sg36
g4
sg37
(dp776
sg39
(dp777
sg41
I420
sg42
g21
sg43
g21
sg44
I73
sg45
V.
p778
sg47
I73
sg48
I421
sbag0
(g23
g2
Ntp779
Rp780
(dp781
g27
(dp782
g29
Va
p783
sg31
VO
p784
sg33
VDT
p785
sg35
I1
ssg10
I74
sg36
g4
sg37
(dp786
sg39
(dp787
sg41
I423
sg42
g21
sg43
g21
sg44
I74
sg45
VA
p788
sg47
I74
sg48
I424
sbag0
(g23
g2
Ntp789
Rp790
(dp791
g27
(dp792
g29
V``
p793
sg31
VO
p794
sg33
V``
p795
sg35
I2
ssg10
I75
sg36
g4
sg37
(dp796
sg39
(dp797
sg41
I425
sg42
g21
sg43
g21
sg44
I75
sg45
V"
p798
sg47
I75
sg48
I426
sbag0
(g23
g2
Ntp799
Rp800
(dp801
g27
(dp802
g29
Vnew
p803
sg31
VO
p804
sg33
VJJ
p805
sg35
I3
ssg10
I76
sg36
g4
sg37
(dp806
sg39
(dp807
sg41
I426
sg42
g21
sg43
g21
sg44
I76
sg45
Vnew
p808
sg47
I76
sg48
I429
sbag0
(g23
g2
Ntp809
Rp810
(dp811
g27
(dp812
g29
Vanti-immigrant
p813
sg31
VO
p814
sg33
VJJ
p815
sg35
I4
ssg10
I77
sg36
g4
sg37
(dp816
sg39
(dp817
sg41
I430
sg42
g21
sg43
g21
sg44
I77
sg45
Vanti-immigrant
p818
sg47
I77
sg48
I444
sbag0
(g23
g2
Ntp819
Rp820
(dp821
g27
(dp822
g29
V''
p823
sg31
VO
p824
sg33
V''
p825
sg35
I5
ssg10
I78
sg36
g4
sg37
(dp826
sg39
(dp827
sg41
I444
sg42
g21
sg43
g21
sg44
I78
sg45
g798
sg47
I78
sg48
I445
sbag0
(g23
g2
Ntp828
Rp829
(dp830
g27
(dp831
g29
Vmovement
p832
sg31
VO
p833
sg33
VNN
p834
sg35
I6
ssg10
I79
sg36
g4
sg37
(dp835
sg39
(dp836
sg41
I446
sg42
g21
sg43
g21
sg44
I79
sg45
Vmovement
p837
sg47
I79
sg48
I454
sbag0
(g23
g2
Ntp838
Rp839
(dp840
g27
(dp841
g29
Vhave
p842
sg31
VO
p843
sg33
VVBZ
p844
sg35
I7
ssg10
I80
sg36
g4
sg37
(dp845
sg39
(dp846
sg41
I455
sg42
g21
sg43
g21
sg44
I80
sg45
Vhas
p847
sg47
I80
sg48
I458
sbag0
(g23
g2
Ntp848
Rp849
(dp850
g27
(dp851
g29
Vbecome
p852
sg31
VO
p853
sg33
VVBN
p854
sg35
I8
ssg10
I81
sg36
g4
sg37
(dp855
sg39
(dp856
sg41
I459
sg42
g21
sg43
g21
sg44
I81
sg45
Vbecome
p857
sg47
I81
sg48
I465
sbag0
(g23
g2
Ntp858
Rp859
(dp860
g27
(dp861
g29
Vapparent
p862
sg31
VO
p863
sg33
VJJ
p864
sg35
I9
ssg10
I82
sg36
g4
sg37
(dp865
sg39
(dp866
sg41
I466
sg42
g21
sg43
g21
sg44
I82
sg45
Vapparent
p867
sg47
I82
sg48
I474
sbag0
(g23
g2
Ntp868
Rp869
(dp870
g27
(dp871
g29
Vin
p872
sg31
VO
p873
sg33
VIN
p874
sg35
I10
ssg10
I83
sg36
g4
sg37
(dp875
sg39
(dp876
sg41
I475
sg42
g21
sg43
g21
sg44
I83
sg45
Vin
p877
sg47
I83
sg48
I477
sbag0
(g23
g2
Ntp878
Rp879
(dp880
g27
(dp881
g29
Vsome
p882
sg31
VO
p883
sg33
VDT
p884
sg35
I11
ssg10
I84
sg36
g4
sg37
(dp885
sg39
(dp886
sg41
I478
sg42
g21
sg43
g21
sg44
I84
sg45
Vsome
p887
sg47
I84
sg48
I482
sbag0
(g23
g2
Ntp888
Rp889
(dp890
g27
(dp891
g29
Veuropean
p892
sg31
VMISC
p893
sg33
VJJ
p894
sg35
I12
ssg10
I85
sg36
g4
sg37
(dp895
sg39
(dp896
sg41
I483
sg42
g21
sg43
g21
sg44
I85
sg45
VEuropean
p897
sg47
I85
sg48
I491
sbag0
(g23
g2
Ntp898
Rp899
(dp900
g27
(dp901
g29
Vcountry
p902
sg31
VO
p903
sg33
VNNS
p904
sg35
I13
ssg10
I86
sg36
g4
sg37
(dp905
sg39
(dp906
sg41
I492
sg42
g21
sg43
g21
sg44
I86
sg45
Vcountries
p907
sg47
I86
sg48
I501
sbag0
(g23
g2
Ntp908
Rp909
(dp910
g27
(dp911
g29
V,
p912
sg31
VO
p913
sg33
V,
p914
sg35
I14
ssg10
I87
sg36
g4
sg37
(dp915
sg39
(dp916
sg41
I501
sg42
g21
sg43
g21
sg44
I87
sg45
V,
p917
sg47
I87
sg48
I502
sbag0
(g23
g2
Ntp918
Rp919
(dp920
g27
(dp921
g29
Vespecially
p922
sg31
VO
p923
sg33
VRB
p924
sg35
I15
ssg10
I88
sg36
g4
sg37
(dp925
sg39
(dp926
sg41
I503
sg42
g21
sg43
g21
sg44
I88
sg45
Vespecially
p927
sg47
I88
sg48
I513
sbag0
(g23
g2
Ntp928
Rp929
(dp930
g27
(dp931
g29
Vthe
p932
sg31
VO
p933
sg33
VDT
p934
sg35
I16
ssg10
I89
sg36
g4
sg37
(dp935
sg39
(dp936
sg41
I514
sg42
g21
sg43
g21
sg44
I89
sg45
Vthe
p937
sg47
I89
sg48
I517
sbag0
(g23
g2
Ntp938
Rp939
(dp940
g27
(dp941
g29
VNetherlands
p942
sg31
VLOCATION
p943
sg33
VNNP
p944
sg35
I17
ssg10
I90
sg36
g4
sg37
(dp945
sg39
(dp946
sg41
I518
sg42
g21
sg43
g21
sg44
I90
sg45
VNetherlands
p947
sg47
I90
sg48
I529
sbag0
(g23
g2
Ntp948
Rp949
(dp950
g27
(dp951
g29
V,
p952
sg31
VO
p953
sg33
V,
p954
sg35
I18
ssg10
I91
sg36
g4
sg37
(dp955
sg39
(dp956
sg41
I529
sg42
g21
sg43
g21
sg44
I91
sg45
V,
p957
sg47
I91
sg48
I530
sbag0
(g23
g2
Ntp958
Rp959
(dp960
g27
(dp961
g29
VScandinavia
p962
sg31
VLOCATION
p963
sg33
VNNP
p964
sg35
I19
ssg10
I92
sg36
g4
sg37
(dp965
sg39
(dp966
sg41
I531
sg42
g21
sg43
g21
sg44
I92
sg45
VScandinavia
p967
sg47
I92
sg48
I542
sbag0
(g23
g2
Ntp968
Rp969
(dp970
g27
(dp971
g29
V,
p972
sg31
VO
p973
sg33
V,
p974
sg35
I20
ssg10
I93
sg36
g4
sg37
(dp975
sg39
(dp976
sg41
I542
sg42
g21
sg43
g21
sg44
I93
sg45
V,
p977
sg47
I93
sg48
I543
sbag0
(g23
g2
Ntp978
Rp979
(dp980
g27
(dp981
g29
Vand
p982
sg31
VO
p983
sg33
VCC
p984
sg35
I21
ssg10
I94
sg36
g4
sg37
(dp985
sg39
(dp986
sg41
I544
sg42
g21
sg43
g21
sg44
I94
sg45
Vand
p987
sg47
I94
sg48
I547
sbag0
(g23
g2
Ntp988
Rp989
(dp990
g27
(dp991
g29
VSwitzerland
p992
sg31
VLOCATION
p993
sg33
VNNP
p994
sg35
I22
ssg10
I95
sg36
g4
sg37
(dp995
sg39
(dp996
sg41
I548
sg42
g21
sg43
g21
sg44
I95
sg45
VSwitzerland
p997
sg47
I95
sg48
I559
sbag0
(g23
g2
Ntp998
Rp999
(dp1000
g27
(dp1001
g29
V,
p1002
sg31
VO
p1003
sg33
V,
p1004
sg35
I23
ssg10
I96
sg36
g4
sg37
(dp1005
sg39
(dp1006
sg41
I559
sg42
g21
sg43
g21
sg44
I96
sg45
V,
p1007
sg47
I96
sg48
I560
sbag0
(g23
g2
Ntp1008
Rp1009
(dp1010
g27
(dp1011
g29
Vduring
p1012
sg31
VO
p1013
sg33
VIN
p1014
sg35
I24
ssg10
I97
sg36
g4
sg37
(dp1015
sg39
(dp1016
sg41
I561
sg42
g21
sg43
g21
sg44
I97
sg45
Vduring
p1017
sg47
I97
sg48
I567
sbag0
(g23
g2
Ntp1018
Rp1019
(dp1020
g27
(dp1021
g29
Vthe
p1022
sg31
VDATE
p1023
sg33
VDT
p1024
sg35
I25
ssg10
I98
sg36
g4
sg37
(dp1025
sg39
(dp1026
sg41
I568
sg42
g21
sg43
g21
sg44
I98
sg45
Vthe
p1027
sg47
I98
sg48
I571
sbag0
(g23
g2
Ntp1028
Rp1029
(dp1030
g27
(dp1031
g29
Vearly
p1032
sg31
VDATE
p1033
sg33
VJJ
p1034
sg35
I26
ssg10
I99
sg36
g4
sg37
(dp1035
sg39
(dp1036
sg41
I572
sg42
g21
sg43
g21
sg44
I99
sg45
Vearly
p1037
sg47
I99
sg48
I577
sbag0
(g23
g2
Ntp1038
Rp1039
(dp1040
g27
(dp1041
g29
V21st
p1042
sg31
VDATE
p1043
sg33
VJJ
p1044
sg35
I27
ssg10
I100
sg36
g4
sg37
(dp1045
sg39
(dp1046
sg41
I578
sg42
g21
sg43
g21
sg44
I100
sg45
V21st
p1047
sg47
I100
sg48
I582
sbag0
(g23
g2
Ntp1048
Rp1049
(dp1050
g27
(dp1051
g29
Vcentury
p1052
sg31
VDATE
p1053
sg33
VNN
p1054
sg35
I28
ssg10
I101
sg36
g4
sg37
(dp1055
sg39
(dp1056
sg41
I583
sg42
g21
sg43
g21
sg44
I101
sg45
Vcentury
p1057
sg47
I101
sg48
I590
sbag0
(g23
g2
Ntp1058
Rp1059
(dp1060
g27
(dp1061
g29
V.
p1062
sg31
VO
p1063
sg33
V.
p1064
sg35
I29
ssg10
I102
sg36
g4
sg37
(dp1065
sg39
(dp1066
sg41
I590
sg42
g21
sg43
g21
sg44
I102
sg45
V.
p1067
sg47
I102
sg48
I591
sbag0
(g23
g2
Ntp1068
Rp1069
(dp1070
g27
(dp1071
g29
Vthe
p1072
sg31
VO
p1073
sg33
VDT
p1074
sg35
I1
ssg10
I103
sg36
g4
sg37
(dp1075
sg39
(dp1076
sg41
I592
sg42
g21
sg43
g21
sg44
I103
sg45
VThe
p1077
sg47
I103
sg48
I595
sbag0
(g23
g2
Ntp1078
Rp1079
(dp1080
g27
(dp1081
g29
Vissue
p1082
sg31
VO
p1083
sg33
VNN
p1084
sg35
I2
ssg10
I104
sg36
g4
sg37
(dp1085
sg39
(dp1086
sg41
I596
sg42
g21
sg43
g21
sg44
I104
sg45
Vissue
p1087
sg47
I104
sg48
I601
sbag0
(g23
g2
Ntp1088
Rp1089
(dp1090
g27
(dp1091
g29
Vof
p1092
sg31
VO
p1093
sg33
VIN
p1094
sg35
I3
ssg10
I105
sg36
g4
sg37
(dp1095
sg39
(dp1096
sg41
I602
sg42
g21
sg43
g21
sg44
I105
sg45
Vof
p1097
sg47
I105
sg48
I604
sbag0
(g23
g2
Ntp1098
Rp1099
(dp1100
g27
(dp1101
g29
Vimmigrant
p1102
sg31
VO
p1103
sg33
VJJ
p1104
sg35
I4
ssg10
I106
sg36
g4
sg37
(dp1105
sg39
(dp1106
sg41
I605
sg42
g21
sg43
g21
sg44
I106
sg45
Vimmigrant
p1107
sg47
I106
sg48
I614
sbag0
(g23
g2
Ntp1108
Rp1109
(dp1110
g27
(dp1111
g29
Vcrime
p1112
sg31
VO
p1113
sg33
VNN
p1114
sg35
I5
ssg10
I107
sg36
g4
sg37
(dp1115
sg39
(dp1116
sg41
I615
sg42
g21
sg43
g21
sg44
I107
sg45
Vcrime
p1117
sg47
I107
sg48
I620
sbag0
(g23
g2
Ntp1118
Rp1119
(dp1120
g27
(dp1121
g29
Vplay
p1122
sg31
VO
p1123
sg33
VVBZ
p1124
sg35
I6
ssg10
I108
sg36
g4
sg37
(dp1125
sg39
(dp1126
sg41
I621
sg42
g21
sg43
g21
sg44
I108
sg45
Vplays
p1127
sg47
I108
sg48
I626
sbag0
(g23
g2
Ntp1128
Rp1129
(dp1130
g27
(dp1131
g29
Va
p1132
sg31
VO
p1133
sg33
VDT
p1134
sg35
I7
ssg10
I109
sg36
g4
sg37
(dp1135
sg39
(dp1136
sg41
I627
sg42
g21
sg43
g21
sg44
I109
sg45
Van
p1137
sg47
I109
sg48
I629
sbag0
(g23
g2
Ntp1138
Rp1139
(dp1140
g27
(dp1141
g29
Vimportant
p1142
sg31
VO
p1143
sg33
VJJ
p1144
sg35
I8
ssg10
I110
sg36
g4
sg37
(dp1145
sg39
(dp1146
sg41
I630
sg42
g21
sg43
g21
sg44
I110
sg45
Vimportant
p1147
sg47
I110
sg48
I639
sbag0
(g23
g2
Ntp1148
Rp1149
(dp1150
g27
(dp1151
g29
Vrole
p1152
sg31
VO
p1153
sg33
VNN
p1154
sg35
I9
ssg10
I111
sg36
g4
sg37
(dp1155
sg39
(dp1156
sg41
I640
sg42
g21
sg43
g21
sg44
I111
sg45
Vrole
p1157
sg47
I111
sg48
I644
sbag0
(g23
g2
Ntp1158
Rp1159
(dp1160
g27
(dp1161
g29
Vin
p1162
sg31
VO
p1163
sg33
VIN
p1164
sg35
I10
ssg10
I112
sg36
g4
sg37
(dp1165
sg39
(dp1166
sg41
I645
sg42
g21
sg43
g21
sg44
I112
sg45
Vin
p1167
sg47
I112
sg48
I647
sbag0
(g23
g2
Ntp1168
Rp1169
(dp1170
g27
(dp1171
g29
Vthe
p1172
sg31
VO
p1173
sg33
VDT
p1174
sg35
I11
ssg10
I113
sg36
g4
sg37
(dp1175
sg39
(dp1176
sg41
I648
sg42
g21
sg43
g21
sg44
I113
sg45
Vthe
p1177
sg47
I113
sg48
I651
sbag0
(g23
g2
Ntp1178
Rp1179
(dp1180
g27
(dp1181
g29
Vpolitical
p1182
sg31
VO
p1183
sg33
VJJ
p1184
sg35
I12
ssg10
I114
sg36
g4
sg37
(dp1185
sg39
(dp1186
sg41
I652
sg42
g21
sg43
g21
sg44
I114
sg45
Vpolitical
p1187
sg47
I114
sg48
I661
sbag0
(g23
g2
Ntp1188
Rp1189
(dp1190
g27
(dp1191
g29
Vdebate
p1192
sg31
VO
p1193
sg33
VNN
p1194
sg35
I13
ssg10
I115
sg36
g4
sg37
(dp1195
sg39
(dp1196
sg41
I662
sg42
g21
sg43
g21
sg44
I115
sg45
Vdebate
p1197
sg47
I115
sg48
I668
sbag0
(g23
g2
Ntp1198
Rp1199
(dp1200
g27
(dp1201
g29
Vin
p1202
sg31
VO
p1203
sg33
VIN
p1204
sg35
I14
ssg10
I116
sg36
g4
sg37
(dp1205
sg39
(dp1206
sg41
I669
sg42
g21
sg43
g21
sg44
I116
sg45
Vin
p1207
sg47
I116
sg48
I671
sbag0
(g23
g2
Ntp1208
Rp1209
(dp1210
g27
(dp1211
g29
Vthese
p1212
sg31
VO
p1213
sg33
VDT
p1214
sg35
I15
ssg10
I117
sg36
g4
sg37
(dp1215
sg39
(dp1216
sg41
I672
sg42
g21
sg43
g21
sg44
I117
sg45
Vthese
p1217
sg47
I117
sg48
I677
sbag0
(g23
g2
Ntp1218
Rp1219
(dp1220
g27
(dp1221
g29
Vcountry
p1222
sg31
VO
p1223
sg33
VNNS
p1224
sg35
I16
ssg10
I118
sg36
g4
sg37
(dp1225
sg39
(dp1226
sg41
I678
sg42
g21
sg43
g21
sg44
I118
sg45
Vcountries
p1227
sg47
I118
sg48
I687
sbag0
(g23
g2
Ntp1228
Rp1229
(dp1230
g27
(dp1231
g29
V-lsb-
p1232
sg31
VO
p1233
sg33
V-LRB-
p1234
sg35
I17
ssg10
I119
sg36
g4
sg37
(dp1235
sg39
(dp1236
sg41
I688
sg42
g21
sg43
g21
sg44
I119
sg45
V[
p1237
sg47
I119
sg48
I689
sbag0
(g23
g2
Ntp1238
Rp1239
(dp1240
g27
(dp1241
g29
Vref
p1242
sg31
VO
p1243
sg33
VNN
p1244
sg35
I18
ssg10
I120
sg36
g4
sg37
(dp1245
sg39
(dp1246
sg41
I689
sg42
g21
sg43
g21
sg44
I120
sg45
VREF
p1247
sg47
I120
sg48
I692
sbag0
(g23
g2
Ntp1248
Rp1249
(dp1250
g27
(dp1251
g29
V-rsb-
p1252
sg31
VO
p1253
sg33
V-RRB-
p1254
sg35
I19
ssg10
I121
sg36
g4
sg37
(dp1255
sg39
(dp1256
sg41
I692
sg42
g21
sg43
g21
sg44
I121
sg45
V]
p1257
sg47
I121
sg48
I693
sbag0
(g23
g2
Ntp1258
Rp1259
(dp1260
g27
(dp1261
g29
V.
p1262
sg31
VO
p1263
sg33
V.
p1264
sg35
I20
ssg10
I122
sg36
g4
sg37
(dp1265
sg39
(dp1266
sg41
I693
sg42
g21
sg43
g21
sg44
I122
sg45
V.
p1267
sg47
I122
sg48
I694
sbag0
(g23
g2
Ntp1268
Rp1269
(dp1270
g27
(dp1271
g29
Vimmigrant
p1272
sg31
VO
p1273
sg33
VNNS
p1274
sg35
I1
ssg10
I123
sg36
g4
sg37
(dp1275
sg39
(dp1276
sg41
I696
sg42
g21
sg43
g21
sg44
I123
sg45
VImmigrants
p1277
sg47
I123
sg48
I706
sbag0
(g23
g2
Ntp1278
Rp1279
(dp1280
g27
(dp1281
g29
Vbe
p1282
sg31
VO
p1283
sg33
VVBP
p1284
sg35
I2
ssg10
I124
sg36
g4
sg37
(dp1285
sg39
(dp1286
sg41
I707
sg42
g21
sg43
g21
sg44
I124
sg45
Vare
p1287
sg47
I124
sg48
I710
sbag0
(g23
g2
Ntp1288
Rp1289
(dp1290
g27
(dp1291
g29
Voverrepresent
p1292
sg31
VO
p1293
sg33
VVBN
p1294
sg35
I3
ssg10
I125
sg36
g4
sg37
(dp1295
sg39
(dp1296
sg41
I711
sg42
g21
sg43
g21
sg44
I125
sg45
Voverrepresented
p1297
sg47
I125
sg48
I726
sbag0
(g23
g2
Ntp1298
Rp1299
(dp1300
g27
(dp1301
g29
Vin
p1302
sg31
VO
p1303
sg33
VIN
p1304
sg35
I4
ssg10
I126
sg36
g4
sg37
(dp1305
sg39
(dp1306
sg41
I727
sg42
g21
sg43
g21
sg44
I126
sg45
Vin
p1307
sg47
I126
sg48
I729
sbag0
(g23
g2
Ntp1308
Rp1309
(dp1310
g27
(dp1311
g29
VSweden
p1312
sg31
VLOCATION
p1313
sg33
VNNP
p1314
sg35
I5
ssg10
I127
sg36
g4
sg37
(dp1315
sg39
(dp1316
sg41
I730
sg42
g21
sg43
g21
sg44
I127
sg45
VSweden
p1317
sg47
I127
sg48
I736
sbag0
(g23
g2
Ntp1318
Rp1319
(dp1320
g27
(dp1321
g29
V's
p1322
sg31
VO
p1323
sg33
VPOS
p1324
sg35
I6
ssg10
I128
sg36
g4
sg37
(dp1325
sg39
(dp1326
sg41
I736
sg42
g21
sg43
g21
sg44
I128
sg45
V's
p1327
sg47
I128
sg48
I738
sbag0
(g23
g2
Ntp1328
Rp1329
(dp1330
g27
(dp1331
g29
Vcrime
p1332
sg31
VO
p1333
sg33
VNN
p1334
sg35
I7
ssg10
I129
sg36
g4
sg37
(dp1335
sg39
(dp1336
sg41
I739
sg42
g21
sg43
g21
sg44
I129
sg45
Vcrime
p1337
sg47
I129
sg48
I744
sbag0
(g23
g2
Ntp1338
Rp1339
(dp1340
g27
(dp1341
g29
Vstatistics
p1342
sg31
VO
p1343
sg33
VNNS
p1344
sg35
I8
ssg10
I130
sg36
g4
sg37
(dp1345
sg39
(dp1346
sg41
I745
sg42
g21
sg43
g21
sg44
I130
sg45
Vstatistics
p1347
sg47
I130
sg48
I755
sbag0
(g23
g2
Ntp1348
Rp1349
(dp1350
g27
(dp1351
g29
V.
p1352
sg31
VO
p1353
sg33
V.
p1354
sg35
I9
ssg10
I131
sg36
g4
sg37
(dp1355
sg39
(dp1356
sg41
I755
sg42
g21
sg43
g21
sg44
I131
sg45
V.
p1357
sg47
I131
sg48
I756
sbag0
(g23
g2
Ntp1358
Rp1359
(dp1360
g27
(dp1361
g29
Vduring
p1362
sg31
VO
p1363
sg33
VIN
p1364
sg35
I1
ssg10
I132
sg36
g4
sg37
(dp1365
sg39
(dp1366
sg41
I757
sg42
g21
sg43
g21
sg44
I132
sg45
VDuring
p1367
sg47
I132
sg48
I763
sbag0
(g23
g2
Ntp1368
Rp1369
(dp1370
g27
(dp1371
g29
Vthe
p1372
sg31
VO
p1373
sg33
VDT
p1374
sg35
I2
ssg10
I133
sg36
g4
sg37
(dp1375
sg39
(dp1376
sg41
I764
sg42
g21
sg43
g21
sg44
I133
sg45
Vthe
p1377
sg47
I133
sg48
I767
sbag0
(g23
g2
Ntp1378
Rp1379
(dp1380
g27
(dp1381
g29
Vperiod
p1382
sg31
VO
p1383
sg33
VNN
p1384
sg35
I3
ssg10
I134
sg36
g4
sg37
(dp1385
sg39
(dp1386
sg41
I768
sg42
g21
sg43
g21
sg44
I134
sg45
Vperiod
p1387
sg47
I134
sg48
I774
sbag0
(g23
g2
Ntp1388
Rp1389
(dp1390
g27
(dp1391
g29
V1997-2001
p1392
sg31
VDURATION
p1393
sg33
VCD
p1394
sg35
I4
ssg10
I135
sg36
g4
sg37
(dp1395
sg39
(dp1396
sg41
I775
sg42
g21
sg43
g21
sg44
I135
sg45
V1997-2001
p1397
sg47
I135
sg48
I784
sbag0
(g23
g2
Ntp1398
Rp1399
(dp1400
g27
(dp1401
g29
V,
p1402
sg31
VO
p1403
sg33
V,
p1404
sg35
I5
ssg10
I136
sg36
g4
sg37
(dp1405
sg39
(dp1406
sg41
I784
sg42
g21
sg43
g21
sg44
I136
sg45
V,
p1407
sg47
I136
sg48
I785
sbag0
(g23
g2
Ntp1408
Rp1409
(dp1410
g27
(dp1411
g29
V25
p1412
sg31
VPERCENT
p1413
sg33
VCD
p1414
sg35
I6
ssg10
I137
sg36
g4
sg37
(dp1415
sg39
(dp1416
sg41
I786
sg42
g21
sg43
g21
sg44
I137
sg45
V25
p1417
sg47
I137
sg48
I788
sbag0
(g23
g2
Ntp1418
Rp1419
(dp1420
g27
(dp1421
g29
V%
p1422
sg31
VPERCENT
p1423
sg33
VNN
p1424
sg35
I7
ssg10
I138
sg36
g4
sg37
(dp1425
sg39
(dp1426
sg41
I788
sg42
g21
sg43
g21
sg44
I138
sg45
V%
p1427
sg47
I138
sg48
I789
sbag0
(g23
g2
Ntp1428
Rp1429
(dp1430
g27
(dp1431
g29
Vof
p1432
sg31
VO
p1433
sg33
VIN
p1434
sg35
I8
ssg10
I139
sg36
g4
sg37
(dp1435
sg39
(dp1436
sg41
I790
sg42
g21
sg43
g21
sg44
I139
sg45
Vof
p1437
sg47
I139
sg48
I792
sbag0
(g23
g2
Ntp1438
Rp1439
(dp1440
g27
(dp1441
g29
Vthe
p1442
sg31
VO
p1443
sg33
VDT
p1444
sg35
I9
ssg10
I140
sg36
g4
sg37
(dp1445
sg39
(dp1446
sg41
I793
sg42
g21
sg43
g21
sg44
I140
sg45
Vthe
p1447
sg47
I140
sg48
I796
sbag0
(g23
g2
Ntp1448
Rp1449
(dp1450
g27
(dp1451
g29
Valmost
p1452
sg31
VO
p1453
sg33
VRB
p1454
sg35
I10
ssg10
I141
sg36
g4
sg37
(dp1455
sg39
(dp1456
sg41
I797
sg42
g21
sg43
g21
sg44
I141
sg45
Valmost
p1457
sg47
I141
sg48
I803
sbag0
(g23
g2
Ntp1458
Rp1459
(dp1460
g27
(dp1461
g29
V1,520,000
p1462
sg31
VNUMBER
p1463
sg33
VCD
p1464
sg35
I11
ssg10
I142
sg36
g4
sg37
(dp1465
sg39
(dp1466
sg41
I804
sg42
g21
sg43
g21
sg44
I142
sg45
V1,520,000
p1467
sg47
I142
sg48
I813
sbag0
(g23
g2
Ntp1468
Rp1469
(dp1470
g27
(dp1471
g29
Voffence
p1472
sg31
VO
p1473
sg33
VNNS
p1474
sg35
I12
ssg10
I143
sg36
g4
sg37
(dp1475
sg39
(dp1476
sg41
I814
sg42
g21
sg43
g21
sg44
I143
sg45
Voffences
p1477
sg47
I143
sg48
I822
sbag0
(g23
g2
Ntp1478
Rp1479
(dp1480
g27
(dp1481
g29
Vbe
p1482
sg31
VO
p1483
sg33
VVBD
p1484
sg35
I13
ssg10
I144
sg36
g4
sg37
(dp1485
sg39
(dp1486
sg41
I823
sg42
g21
sg43
g21
sg44
I144
sg45
Vwere
p1487
sg47
I144
sg48
I827
sbag0
(g23
g2
Ntp1488
Rp1489
(dp1490
g27
(dp1491
g29
Vcommit
p1492
sg31
VO
p1493
sg33
VVBN
p1494
sg35
I14
ssg10
I145
sg36
g4
sg37
(dp1495
sg39
(dp1496
sg41
I828
sg42
g21
sg43
g21
sg44
I145
sg45
Vcommitted
p1497
sg47
I145
sg48
I837
sbag0
(g23
g2
Ntp1498
Rp1499
(dp1500
g27
(dp1501
g29
Vby
p1502
sg31
VO
p1503
sg33
VIN
p1504
sg35
I15
ssg10
I146
sg36
g4
sg37
(dp1505
sg39
(dp1506
sg41
I838
sg42
g21
sg43
g21
sg44
I146
sg45
Vby
p1507
sg47
I146
sg48
I840
sbag0
(g23
g2
Ntp1508
Rp1509
(dp1510
g27
(dp1511
g29
Vpeople
p1512
sg31
VO
p1513
sg33
VNNS
p1514
sg35
I16
ssg10
I147
sg36
g4
sg37
(dp1515
sg39
(dp1516
sg41
I841
sg42
g21
sg43
g21
sg44
I147
sg45
Vpeople
p1517
sg47
I147
sg48
I847
sbag0
(g23
g2
Ntp1518
Rp1519
(dp1520
g27
(dp1521
g29
Vbear
p1522
sg31
VO
p1523
sg33
VVBN
p1524
sg35
I17
ssg10
I148
sg36
g4
sg37
(dp1525
sg39
(dp1526
sg41
I848
sg42
g21
sg43
g21
sg44
I148
sg45
Vborn
p1527
sg47
I148
sg48
I852
sbag0
(g23
g2
Ntp1528
Rp1529
(dp1530
g27
(dp1531
g29
Vabroad
p1532
sg31
VO
p1533
sg33
VRB
p1534
sg35
I18
ssg10
I149
sg36
g4
sg37
(dp1535
sg39
(dp1536
sg41
I853
sg42
g21
sg43
g21
sg44
I149
sg45
Vabroad
p1537
sg47
I149
sg48
I859
sbag0
(g23
g2
Ntp1538
Rp1539
(dp1540
g27
(dp1541
g29
V,
p1542
sg31
VO
p1543
sg33
V,
p1544
sg35
I19
ssg10
I150
sg36
g4
sg37
(dp1545
sg39
(dp1546
sg41
I859
sg42
g21
sg43
g21
sg44
I150
sg45
V,
p1547
sg47
I150
sg48
I860
sbag0
(g23
g2
Ntp1548
Rp1549
(dp1550
g27
(dp1551
g29
Vwhile
p1552
sg31
VO
p1553
sg33
VIN
p1554
sg35
I20
ssg10
I151
sg36
g4
sg37
(dp1555
sg39
(dp1556
sg41
I861
sg42
g21
sg43
g21
sg44
I151
sg45
Vwhile
p1557
sg47
I151
sg48
I866
sbag0
(g23
g2
Ntp1558
Rp1559
(dp1560
g27
(dp1561
g29
Valmost
p1562
sg31
VO
p1563
sg33
VRB
p1564
sg35
I21
ssg10
I152
sg36
g4
sg37
(dp1565
sg39
(dp1566
sg41
I867
sg42
g21
sg43
g21
sg44
I152
sg45
Valmost
p1567
sg47
I152
sg48
I873
sbag0
(g23
g2
Ntp1568
Rp1569
(dp1570
g27
(dp1571
g29
V20
p1572
sg31
VPERCENT
p1573
sg33
VCD
p1574
sg35
I22
ssg10
I153
sg36
g4
sg37
(dp1575
sg39
(dp1576
sg41
I874
sg42
g21
sg43
g21
sg44
I153
sg45
V20
p1577
sg47
I153
sg48
I876
sbag0
(g23
g2
Ntp1578
Rp1579
(dp1580
g27
(dp1581
g29
V%
p1582
sg31
VPERCENT
p1583
sg33
VNN
p1584
sg35
I23
ssg10
I154
sg36
g4
sg37
(dp1585
sg39
(dp1586
sg41
I876
sg42
g21
sg43
g21
sg44
I154
sg45
V%
p1587
sg47
I154
sg48
I877
sbag0
(g23
g2
Ntp1588
Rp1589
(dp1590
g27
(dp1591
g29
Vbe
p1592
sg31
VO
p1593
sg33
VVBD
p1594
sg35
I24
ssg10
I155
sg36
g4
sg37
(dp1595
sg39
(dp1596
sg41
I878
sg42
g21
sg43
g21
sg44
I155
sg45
Vwere
p1597
sg47
I155
sg48
I882
sbag0
(g23
g2
Ntp1598
Rp1599
(dp1600
g27
(dp1601
g29
Vcommit
p1602
sg31
VO
p1603
sg33
VVBN
p1604
sg35
I25
ssg10
I156
sg36
g4
sg37
(dp1605
sg39
(dp1606
sg41
I883
sg42
g21
sg43
g21
sg44
I156
sg45
Vcommitted
p1607
sg47
I156
sg48
I892
sbag0
(g23
g2
Ntp1608
Rp1609
(dp1610
g27
(dp1611
g29
Vby
p1612
sg31
VO
p1613
sg33
VIN
p1614
sg35
I26
ssg10
I157
sg36
g4
sg37
(dp1615
sg39
(dp1616
sg41
I893
sg42
g21
sg43
g21
sg44
I157
sg45
Vby
p1617
sg47
I157
sg48
I895
sbag0
(g23
g2
Ntp1618
Rp1619
(dp1620
g27
(dp1621
g29
Vswedish-born
p1622
sg31
VMISC
p1623
sg33
VJJ
p1624
sg35
I27
ssg10
I158
sg36
g4
sg37
(dp1625
sg39
(dp1626
sg41
I896
sg42
g21
sg43
g21
sg44
I158
sg45
VSwedish-born
p1627
sg47
I158
sg48
I908
sbag0
(g23
g2
Ntp1628
Rp1629
(dp1630
g27
(dp1631
g29
Vpeople
p1632
sg31
VO
p1633
sg33
VNNS
p1634
sg35
I28
ssg10
I159
sg36
g4
sg37
(dp1635
sg39
(dp1636
sg41
I909
sg42
g21
sg43
g21
sg44
I159
sg45
Vpeople
p1637
sg47
I159
sg48
I915
sbag0
(g23
g2
Ntp1638
Rp1639
(dp1640
g27
(dp1641
g29
Vwith
p1642
sg31
VO
p1643
sg33
VIN
p1644
sg35
I29
ssg10
I160
sg36
g4
sg37
(dp1645
sg39
(dp1646
sg41
I916
sg42
g21
sg43
g21
sg44
I160
sg45
Vwith
p1647
sg47
I160
sg48
I920
sbag0
(g23
g2
Ntp1648
Rp1649
(dp1650
g27
(dp1651
g29
Va
p1652
sg31
VO
p1653
sg33
VDT
p1654
sg35
I30
ssg10
I161
sg36
g4
sg37
(dp1655
sg39
(dp1656
sg41
I921
sg42
g21
sg43
g21
sg44
I161
sg45
Va
p1657
sg47
I161
sg48
I922
sbag0
(g23
g2
Ntp1658
Rp1659
(dp1660
g27
(dp1661
g29
Vforeign
p1662
sg31
VO
p1663
sg33
VJJ
p1664
sg35
I31
ssg10
I162
sg36
g4
sg37
(dp1665
sg39
(dp1666
sg41
I923
sg42
g21
sg43
g21
sg44
I162
sg45
Vforeign
p1667
sg47
I162
sg48
I930
sbag0
(g23
g2
Ntp1668
Rp1669
(dp1670
g27
(dp1671
g29
Vbackground
p1672
sg31
VO
p1673
sg33
VNN
p1674
sg35
I32
ssg10
I163
sg36
g4
sg37
(dp1675
sg39
(dp1676
sg41
I931
sg42
g21
sg43
g21
sg44
I163
sg45
Vbackground
p1677
sg47
I163
sg48
I941
sbag0
(g23
g2
Ntp1678
Rp1679
(dp1680
g27
(dp1681
g29
V.
p1682
sg31
VO
p1683
sg33
V.
p1684
sg35
I33
ssg10
I164
sg36
g4
sg37
(dp1685
sg39
(dp1686
sg41
I941
sg42
g21
sg43
g21
sg44
I164
sg45
V.
p1687
sg47
I164
sg48
I942
sbag0
(g23
g2
Ntp1688
Rp1689
(dp1690
g27
(dp1691
g29
V-lsb-
p1692
sg31
VO
p1693
sg33
V-LRB-
p1694
sg35
I1
ssg10
I165
sg36
g4
sg37
(dp1695
sg39
(dp1696
sg41
I944
sg42
g21
sg43
g21
sg44
I165
sg45
V[
p1697
sg47
I165
sg48
I945
sbag0
(g23
g2
Ntp1698
Rp1699
(dp1700
g27
(dp1701
g29
Vref
p1702
sg31
VO
p1703
sg33
VNN
p1704
sg35
I2
ssg10
I166
sg36
g4
sg37
(dp1705
sg39
(dp1706
sg41
I945
sg42
g21
sg43
g21
sg44
I166
sg45
VREF
p1707
sg47
I166
sg48
I948
sbag0
(g23
g2
Ntp1708
Rp1709
(dp1710
g27
(dp1711
g29
V-rsb-
p1712
sg31
VO
p1713
sg33
V-RRB-
p1714
sg35
I3
ssg10
I167
sg36
g4
sg37
(dp1715
sg39
(dp1716
sg41
I948
sg42
g21
sg43
g21
sg44
I167
sg45
V]
p1717
sg47
I167
sg48
I949
sbag0
(g23
g2
Ntp1718
Rp1719
(dp1720
g27
(dp1721
g29
V.
p1722
sg31
VO
p1723
sg33
V.
p1724
sg35
I4
ssg10
I168
sg36
g4
sg37
(dp1725
sg39
(dp1726
sg41
I950
sg42
g21
sg43
g21
sg44
I168
sg45
V.
p1727
sg47
I168
sg48
I951
sbag0
(g23
g2
Ntp1728
Rp1729
(dp1730
g27
(dp1731
g29
Vin
p1732
sg31
VO
p1733
sg33
VIN
p1734
sg35
I1
ssg10
I169
sg36
g4
sg37
(dp1735
sg39
(dp1736
sg41
I953
sg42
g21
sg43
g21
sg44
I169
sg45
VIn
p1737
sg47
I169
sg48
I955
sbag0
(g23
g2
Ntp1738
Rp1739
(dp1740
g27
(dp1741
g29
VSwitzerland
p1742
sg31
VLOCATION
p1743
sg33
VNNP
p1744
sg35
I2
ssg10
I170
sg36
g4
sg37
(dp1745
sg39
(dp1746
sg41
I956
sg42
g21
sg43
g21
sg44
I170
sg45
VSwitzerland
p1747
sg47
I170
sg48
I967
sbag0
(g23
g2
Ntp1748
Rp1749
(dp1750
g27
(dp1751
g29
V,
p1752
sg31
VO
p1753
sg33
V,
p1754
sg35
I3
ssg10
I171
sg36
g4
sg37
(dp1755
sg39
(dp1756
sg41
I967
sg42
g21
sg43
g21
sg44
I171
sg45
V,
p1757
sg47
I171
sg48
I968
sbag0
(g23
g2
Ntp1758
Rp1759
(dp1760
g27
(dp1761
g29
V69.7
p1762
sg31
VPERCENT
p1763
sg33
VCD
p1764
sg35
I4
ssg10
I172
sg36
g4
sg37
(dp1765
sg39
(dp1766
sg41
I969
sg42
g21
sg43
g21
sg44
I172
sg45
V69.7
p1767
sg47
I172
sg48
I973
sbag0
(g23
g2
Ntp1768
Rp1769
(dp1770
g27
(dp1771
g29
V%
p1772
sg31
VPERCENT
p1773
sg33
VNN
p1774
sg35
I5
ssg10
I173
sg36
g4
sg37
(dp1775
sg39
(dp1776
sg41
I973
sg42
g21
sg43
g21
sg44
I173
sg45
V%
p1777
sg47
I173
sg48
I974
sbag0
(g23
g2
Ntp1778
Rp1779
(dp1780
g27
(dp1781
g29
Vof
p1782
sg31
VO
p1783
sg33
VIN
p1784
sg35
I6
ssg10
I174
sg36
g4
sg37
(dp1785
sg39
(dp1786
sg41
I975
sg42
g21
sg43
g21
sg44
I174
sg45
Vof
p1787
sg47
I174
sg48
I977
sbag0
(g23
g2
Ntp1788
Rp1789
(dp1790
g27
(dp1791
g29
Vprison
p1792
sg31
VO
p1793
sg33
VNN
p1794
sg35
I7
ssg10
I175
sg36
g4
sg37
(dp1795
sg39
(dp1796
sg41
I978
sg42
g21
sg43
g21
sg44
I175
sg45
Vprison
p1797
sg47
I175
sg48
I984
sbag0
(g23
g2
Ntp1798
Rp1799
(dp1800
g27
(dp1801
g29
Vpopulation
p1802
sg31
VO
p1803
sg33
VNN
p1804
sg35
I8
ssg10
I176
sg36
g4
sg37
(dp1805
sg39
(dp1806
sg41
I985
sg42
g21
sg43
g21
sg44
I176
sg45
Vpopulation
p1807
sg47
I176
sg48
I995
sbag0
(g23
g2
Ntp1808
Rp1809
(dp1810
g27
(dp1811
g29
Vhave
p1812
sg31
VO
p1813
sg33
VVBD
p1814
sg35
I9
ssg10
I177
sg36
g4
sg37
(dp1815
sg39
(dp1816
sg41
I996
sg42
g21
sg43
g21
sg44
I177
sg45
Vhad
p1817
sg47
I177
sg48
I999
sbag0
(g23
g2
Ntp1818
Rp1819
(dp1820
g27
(dp1821
g29
Vno
p1822
sg31
VO
p1823
sg33
VDT
p1824
sg35
I10
ssg10
I178
sg36
g4
sg37
(dp1825
sg39
(dp1826
sg41
I1000
sg42
g21
sg43
g21
sg44
I178
sg45
Vno
p1827
sg47
I178
sg48
I1002
sbag0
(g23
g2
Ntp1828
Rp1829
(dp1830
g27
(dp1831
g29
Vswiss
p1832
sg31
VMISC
p1833
sg33
VJJ
p1834
sg35
I11
ssg10
I179
sg36
g4
sg37
(dp1835
sg39
(dp1836
sg41
I1003
sg42
g21
sg43
g21
sg44
I179
sg45
VSwiss
p1837
sg47
I179
sg48
I1008
sbag0
(g23
g2
Ntp1838
Rp1839
(dp1840
g27
(dp1841
g29
Vcitizenship
p1842
sg31
VO
p1843
sg33
VNN
p1844
sg35
I12
ssg10
I180
sg36
g4
sg37
(dp1845
sg39
(dp1846
sg41
I1009
sg42
g21
sg43
g21
sg44
I180
sg45
Vcitizenship
p1847
sg47
I180
sg48
I1020
sbag0
(g23
g2
Ntp1848
Rp1849
(dp1850
g27
(dp1851
g29
V,
p1852
sg31
VO
p1853
sg33
V,
p1854
sg35
I13
ssg10
I181
sg36
g4
sg37
(dp1855
sg39
(dp1856
sg41
I1020
sg42
g21
sg43
g21
sg44
I181
sg45
V,
p1857
sg47
I181
sg48
I1021
sbag0
(g23
g2
Ntp1858
Rp1859
(dp1860
g27
(dp1861
g29
Vcompare
p1862
sg31
VO
p1863
sg33
VVBN
p1864
sg35
I14
ssg10
I182
sg36
g4
sg37
(dp1865
sg39
(dp1866
sg41
I1022
sg42
g21
sg43
g21
sg44
I182
sg45
Vcompared
p1867
sg47
I182
sg48
I1030
sbag0
(g23
g2
Ntp1868
Rp1869
(dp1870
g27
(dp1871
g29
Vto
p1872
sg31
VO
p1873
sg33
VTO
p1874
sg35
I15
ssg10
I183
sg36
g4
sg37
(dp1875
sg39
(dp1876
sg41
I1031
sg42
g21
sg43
g21
sg44
I183
sg45
Vto
p1877
sg47
I183
sg48
I1033
sbag0
(g23
g2
Ntp1878
Rp1879
(dp1880
g27
(dp1881
g29
V22.1
p1882
sg31
VPERCENT
p1883
sg33
VCD
p1884
sg35
I16
ssg10
I184
sg36
g4
sg37
(dp1885
sg39
(dp1886
sg41
I1034
sg42
g21
sg43
g21
sg44
I184
sg45
V22.1
p1887
sg47
I184
sg48
I1038
sbag0
(g23
g2
Ntp1888
Rp1889
(dp1890
g27
(dp1891
g29
V%
p1892
sg31
VPERCENT
p1893
sg33
VNN
p1894
sg35
I17
ssg10
I185
sg36
g4
sg37
(dp1895
sg39
(dp1896
sg41
I1038
sg42
g21
sg43
g21
sg44
I185
sg45
V%
p1897
sg47
I185
sg48
I1039
sbag0
(g23
g2
Ntp1898
Rp1899
(dp1900
g27
(dp1901
g29
Vof
p1902
sg31
VO
p1903
sg33
VIN
p1904
sg35
I18
ssg10
I186
sg36
g4
sg37
(dp1905
sg39
(dp1906
sg41
I1040
sg42
g21
sg43
g21
sg44
I186
sg45
Vof
p1907
sg47
I186
sg48
I1042
sbag0
(g23
g2
Ntp1908
Rp1909
(dp1910
g27
(dp1911
g29
Vtotal
p1912
sg31
VO
p1913
sg33
VJJ
p1914
sg35
I19
ssg10
I187
sg36
g4
sg37
(dp1915
sg39
(dp1916
sg41
I1043
sg42
g21
sg43
g21
sg44
I187
sg45
Vtotal
p1917
sg47
I187
sg48
I1048
sbag0
(g23
g2
Ntp1918
Rp1919
(dp1920
g27
(dp1921
g29
Vresident
p1922
sg31
VO
p1923
sg33
VJJ
p1924
sg35
I20
ssg10
I188
sg36
g4
sg37
(dp1925
sg39
(dp1926
sg41
I1049
sg42
g21
sg43
g21
sg44
I188
sg45
Vresident
p1927
sg47
I188
sg48
I1057
sbag0
(g23
g2
Ntp1928
Rp1929
(dp1930
g27
(dp1931
g29
Vpopulation
p1932
sg31
VO
p1933
sg33
VNN
p1934
sg35
I21
ssg10
I189
sg36
g4
sg37
(dp1935
sg39
(dp1936
sg41
I1058
sg42
g21
sg43
g21
sg44
I189
sg45
Vpopulation
p1937
sg47
I189
sg48
I1068
sbag0
(g23
g2
Ntp1938
Rp1939
(dp1940
g27
(dp1941
g29
V-lrb-
p1942
sg31
VO
p1943
sg33
V-LRB-
p1944
sg35
I22
ssg10
I190
sg36
g4
sg37
(dp1945
sg39
(dp1946
sg41
I1069
sg42
g21
sg43
g21
sg44
I190
sg45
V(
p1947
sg47
I190
sg48
I1070
sbag0
(g23
g2
Ntp1948
Rp1949
(dp1950
g27
(dp1951
g29
Vas
p1952
sg31
VO
p1953
sg33
VIN
p1954
sg35
I23
ssg10
I191
sg36
g4
sg37
(dp1955
sg39
(dp1956
sg41
I1070
sg42
g21
sg43
g21
sg44
I191
sg45
Vas
p1957
sg47
I191
sg48
I1072
sbag0
(g23
g2
Ntp1958
Rp1959
(dp1960
g27
(dp1961
g29
Vof
p1962
sg31
VO
p1963
sg33
VIN
p1964
sg35
I24
ssg10
I192
sg36
g4
sg37
(dp1965
sg39
(dp1966
sg41
I1073
sg42
g21
sg43
g21
sg44
I192
sg45
Vof
p1967
sg47
I192
sg48
I1075
sbag0
(g23
g2
Ntp1968
Rp1969
(dp1970
g27
(dp1971
g29
V2008
p1972
sg31
VDATE
p1973
sg33
VCD
p1974
sg35
I25
ssg10
I193
sg36
g4
sg37
(dp1975
sg39
(dp1976
sg41
I1076
sg42
g21
sg43
g21
sg44
I193
sg45
V2008
p1977
sg47
I193
sg48
I1080
sbag0
(g23
g2
Ntp1978
Rp1979
(dp1980
g27
(dp1981
g29
V-rrb-
p1982
sg31
VO
p1983
sg33
V-RRB-
p1984
sg35
I26
ssg10
I194
sg36
g4
sg37
(dp1985
sg39
(dp1986
sg41
I1080
sg42
g21
sg43
g21
sg44
I194
sg45
V)
p1987
sg47
I194
sg48
I1081
sbag0
(g23
g2
Ntp1988
Rp1989
(dp1990
g27
(dp1991
g29
V.
p1992
sg31
VO
p1993
sg33
V.
p1994
sg35
I27
ssg10
I195
sg36
g4
sg37
(dp1995
sg39
(dp1996
sg41
I1081
sg42
g21
sg43
g21
sg44
I195
sg45
V.
p1997
sg47
I195
sg48
I1082
sbag0
(g23
g2
Ntp1998
Rp1999
(dp2000
g27
(dp2001
g29
Vthe
p2002
sg31
VO
p2003
sg33
VDT
p2004
sg35
I1
ssg10
I196
sg36
g4
sg37
(dp2005
sg39
(dp2006
sg41
I1084
sg42
g21
sg43
g21
sg44
I196
sg45
VThe
p2007
sg47
I196
sg48
I1087
sbag0
(g23
g2
Ntp2008
Rp2009
(dp2010
g27
(dp2011
g29
Vfigure
p2012
sg31
VO
p2013
sg33
VNN
p2014
sg35
I2
ssg10
I197
sg36
g4
sg37
(dp2015
sg39
(dp2016
sg41
I1088
sg42
g21
sg43
g21
sg44
I197
sg45
Vfigure
p2017
sg47
I197
sg48
I1094
sbag0
(g23
g2
Ntp2018
Rp2019
(dp2020
g27
(dp2021
g29
Vof
p2022
sg31
VO
p2023
sg33
VIN
p2024
sg35
I3
ssg10
I198
sg36
g4
sg37
(dp2025
sg39
(dp2026
sg41
I1095
sg42
g21
sg43
g21
sg44
I198
sg45
Vof
p2027
sg47
I198
sg48
I1097
sbag0
(g23
g2
Ntp2028
Rp2029
(dp2030
g27
(dp2031
g29
Varrest
p2032
sg31
VO
p2033
sg33
VNNS
p2034
sg35
I4
ssg10
I199
sg36
g4
sg37
(dp2035
sg39
(dp2036
sg41
I1098
sg42
g21
sg43
g21
sg44
I199
sg45
Varrests
p2037
sg47
I199
sg48
I1105
sbag0
(g23
g2
Ntp2038
Rp2039
(dp2040
g27
(dp2041
g29
Vby
p2042
sg31
VO
p2043
sg33
VIN
p2044
sg35
I5
ssg10
I200
sg36
g4
sg37
(dp2045
sg39
(dp2046
sg41
I1106
sg42
g21
sg43
g21
sg44
I200
sg45
Vby
p2047
sg47
I200
sg48
I1108
sbag0
(g23
g2
Ntp2048
Rp2049
(dp2050
g27
(dp2051
g29
Vresidence
p2052
sg31
VO
p2053
sg33
VNN
p2054
sg35
I6
ssg10
I201
sg36
g4
sg37
(dp2055
sg39
(dp2056
sg41
I1109
sg42
g21
sg43
g21
sg44
I201
sg45
Vresidence
p2057
sg47
I201
sg48
I1118
sbag0
(g23
g2
Ntp2058
Rp2059
(dp2060
g27
(dp2061
g29
Vstatus
p2062
sg31
VO
p2063
sg33
VNN
p2064
sg35
I7
ssg10
I202
sg36
g4
sg37
(dp2065
sg39
(dp2066
sg41
I1119
sg42
g21
sg43
g21
sg44
I202
sg45
Vstatus
p2067
sg47
I202
sg48
I1125
sbag0
(g23
g2
Ntp2068
Rp2069
(dp2070
g27
(dp2071
g29
Vbe
p2072
sg31
VO
p2073
sg33
VVBZ
p2074
sg35
I8
ssg10
I203
sg36
g4
sg37
(dp2075
sg39
(dp2076
sg41
I1126
sg42
g21
sg43
g21
sg44
I203
sg45
Vis
p2077
sg47
I203
sg48
I1128
sbag0
(g23
g2
Ntp2078
Rp2079
(dp2080
g27
(dp2081
g29
Vnot
p2082
sg31
VO
p2083
sg33
VRB
p2084
sg35
I9
ssg10
I204
sg36
g4
sg37
(dp2085
sg39
(dp2086
sg41
I1129
sg42
g21
sg43
g21
sg44
I204
sg45
Vnot
p2087
sg47
I204
sg48
I1132
sbag0
(g23
g2
Ntp2088
Rp2089
(dp2090
g27
(dp2091
g29
Vusually
p2092
sg31
VO
p2093
sg33
VRB
p2094
sg35
I10
ssg10
I205
sg36
g4
sg37
(dp2095
sg39
(dp2096
sg41
I1133
sg42
g21
sg43
g21
sg44
I205
sg45
Vusually
p2097
sg47
I205
sg48
I1140
sbag0
(g23
g2
Ntp2098
Rp2099
(dp2100
g27
(dp2101
g29
Vmake
p2102
sg31
VO
p2103
sg33
VVBN
p2104
sg35
I11
ssg10
I206
sg36
g4
sg37
(dp2105
sg39
(dp2106
sg41
I1141
sg42
g21
sg43
g21
sg44
I206
sg45
Vmade
p2107
sg47
I206
sg48
I1145
sbag0
(g23
g2
Ntp2108
Rp2109
(dp2110
g27
(dp2111
g29
Vpublic
p2112
sg31
VO
p2113
sg33
VNN
p2114
sg35
I12
ssg10
I207
sg36
g4
sg37
(dp2115
sg39
(dp2116
sg41
I1146
sg42
g21
sg43
g21
sg44
I207
sg45
Vpublic
p2117
sg47
I207
sg48
I1152
sbag0
(g23
g2
Ntp2118
Rp2119
(dp2120
g27
(dp2121
g29
V.
p2122
sg31
VO
p2123
sg33
V.
p2124
sg35
I13
ssg10
I208
sg36
g4
sg37
(dp2125
sg39
(dp2126
sg41
I1152
sg42
g21
sg43
g21
sg44
I208
sg45
V.
p2127
sg47
I208
sg48
I1153
sbag0
(g23
g2
Ntp2128
Rp2129
(dp2130
g27
(dp2131
g29
Vas
p2132
sg31
VO
p2133
sg33
VIN
p2134
sg35
I1
ssg10
I209
sg36
g4
sg37
(dp2135
sg39
(dp2136
sg41
I1154
sg42
g21
sg43
g21
sg44
I209
sg45
VAs
p2137
sg47
I209
sg48
I1156
sbag0
(g23
g2
Ntp2138
Rp2139
(dp2140
g27
(dp2141
g29
Vin
p2142
sg31
VO
p2143
sg33
VIN
p2144
sg35
I2
ssg10
I210
sg36
g4
sg37
(dp2145
sg39
(dp2146
sg41
I1157
sg42
g21
sg43
g21
sg44
I210
sg45
Vin
p2147
sg47
I210
sg48
I1159
sbag0
(g23
g2
Ntp2148
Rp2149
(dp2150
g27
(dp2151
g29
V1997
p2152
sg31
VDATE
p2153
sg33
VCD
p2154
sg35
I3
ssg10
I211
sg36
g4
sg37
(dp2155
sg39
(dp2156
sg41
I1160
sg42
g21
sg43
g21
sg44
I211
sg45
V1997
p2157
sg47
I211
sg48
I1164
sbag0
(g23
g2
Ntp2158
Rp2159
(dp2160
g27
(dp2161
g29
Vthe
p2162
sg31
VO
p2163
sg33
VDT
p2164
sg35
I4
ssg10
I212
sg36
g4
sg37
(dp2165
sg39
(dp2166
sg41
I1165
sg42
g21
sg43
g21
sg44
I212
sg45
Vthe
p2167
sg47
I212
sg48
I1168
sbag0
(g23
g2
Ntp2168
Rp2169
(dp2170
g27
(dp2171
g29
Vconviction
p2172
sg31
VO
p2173
sg33
VNN
p2174
sg35
I5
ssg10
I213
sg36
g4
sg37
(dp2175
sg39
(dp2176
sg41
I1169
sg42
g21
sg43
g21
sg44
I213
sg45
Vconviction
p2177
sg47
I213
sg48
I1179
sbag0
(g23
g2
Ntp2178
Rp2179
(dp2180
g27
(dp2181
g29
Vrate
p2182
sg31
VO
p2183
sg33
VNN
p2184
sg35
I6
ssg10
I214
sg36
g4
sg37
(dp2185
sg39
(dp2186
sg41
I1180
sg42
g21
sg43
g21
sg44
I214
sg45
Vrate
p2187
sg47
I214
sg48
I1184
sbag0
(g23
g2
Ntp2188
Rp2189
(dp2190
g27
(dp2191
g29
Vof
p2192
sg31
VO
p2193
sg33
VIN
p2194
sg35
I7
ssg10
I215
sg36
g4
sg37
(dp2195
sg39
(dp2196
sg41
I1185
sg42
g21
sg43
g21
sg44
I215
sg45
Vof
p2197
sg47
I215
sg48
I1187
sbag0
(g23
g2
Ntp2198
Rp2199
(dp2200
g27
(dp2201
g29
Vswiss
p2202
sg31
VMISC
p2203
sg33
VJJ
p2204
sg35
I8
ssg10
I216
sg36
g4
sg37
(dp2205
sg39
(dp2206
sg41
I1188
sg42
g21
sg43
g21
sg44
I216
sg45
VSwiss
p2207
sg47
I216
sg48
I1193
sbag0
(g23
g2
Ntp2208
Rp2209
(dp2210
g27
(dp2211
g29
Vcitizen
p2212
sg31
VO
p2213
sg33
VNNS
p2214
sg35
I9
ssg10
I217
sg36
g4
sg37
(dp2215
sg39
(dp2216
sg41
I1194
sg42
g21
sg43
g21
sg44
I217
sg45
Vcitizens
p2217
sg47
I217
sg48
I1202
sbag0
(g23
g2
Ntp2218
Rp2219
(dp2220
g27
(dp2221
g29
Vfall
p2222
sg31
VO
p2223
sg33
VVBD
p2224
sg35
I10
ssg10
I218
sg36
g4
sg37
(dp2225
sg39
(dp2226
sg41
I1203
sg42
g21
sg43
g21
sg44
I218
sg45
Vfell
p2227
sg47
I218
sg48
I1207
sbag0
(g23
g2
Ntp2228
Rp2229
(dp2230
g27
(dp2231
g29
Vbelow
p2232
sg31
VO
p2233
sg33
VIN
p2234
sg35
I11
ssg10
I219
sg36
g4
sg37
(dp2235
sg39
(dp2236
sg41
I1208
sg42
g21
sg43
g21
sg44
I219
sg45
Vbelow
p2237
sg47
I219
sg48
I1213
sbag0
(g23
g2
Ntp2238
Rp2239
(dp2240
g27
(dp2241
g29
V50
p2242
sg31
VPERCENT
p2243
sg33
VCD
p2244
sg35
I12
ssg10
I220
sg36
g4
sg37
(dp2245
sg39
(dp2246
sg41
I1214
sg42
g21
sg43
g21
sg44
I220
sg45
V50
p2247
sg47
I220
sg48
I1216
sbag0
(g23
g2
Ntp2248
Rp2249
(dp2250
g27
(dp2251
g29
V%
p2252
sg31
VPERCENT
p2253
sg33
VNN
p2254
sg35
I13
ssg10
I221
sg36
g4
sg37
(dp2255
sg39
(dp2256
sg41
I1216
sg42
g21
sg43
g21
sg44
I221
sg45
V%
p2257
sg47
I221
sg48
I1217
sbag0
(g23
g2
Ntp2258
Rp2259
(dp2260
g27
(dp2261
g29
Vfor
p2262
sg31
VO
p2263
sg33
VIN
p2264
sg35
I14
ssg10
I222
sg36
g4
sg37
(dp2265
sg39
(dp2266
sg41
I1218
sg42
g21
sg43
g21
sg44
I222
sg45
Vfor
p2267
sg47
I222
sg48
I1221
sbag0
(g23
g2
Ntp2268
Rp2269
(dp2270
g27
(dp2271
g29
Vthe
p2272
sg31
VO
p2273
sg33
VDT
p2274
sg35
I15
ssg10
I223
sg36
g4
sg37
(dp2275
sg39
(dp2276
sg41
I1222
sg42
g21
sg43
g21
sg44
I223
sg45
Vthe
p2277
sg47
I223
sg48
I1225
sbag0
(g23
g2
Ntp2278
Rp2279
(dp2280
g27
(dp2281
g29
Vfirst
p2282
sg31
VORDINAL
p2283
sg33
VJJ
p2284
sg35
I16
ssg10
I224
sg36
g4
sg37
(dp2285
sg39
(dp2286
sg41
I1226
sg42
g21
sg43
g21
sg44
I224
sg45
Vfirst
p2287
sg47
I224
sg48
I1231
sbag0
(g23
g2
Ntp2288
Rp2289
(dp2290
g27
(dp2291
g29
Vtime
p2292
sg31
VO
p2293
sg33
VNN
p2294
sg35
I17
ssg10
I225
sg36
g4
sg37
(dp2295
sg39
(dp2296
sg41
I1232
sg42
g21
sg43
g21
sg44
I225
sg45
Vtime
p2297
sg47
I225
sg48
I1236
sbag0
(g23
g2
Ntp2298
Rp2299
(dp2300
g27
(dp2301
g29
V,
p2302
sg31
VO
p2303
sg33
V,
p2304
sg35
I18
ssg10
I226
sg36
g4
sg37
(dp2305
sg39
(dp2306
sg41
I1236
sg42
g21
sg43
g21
sg44
I226
sg45
V,
p2307
sg47
I226
sg48
I1237
sbag0
(g23
g2
Ntp2308
Rp2309
(dp2310
g27
(dp2311
g29
Va
p2312
sg31
VO
p2313
sg33
VDT
p2314
sg35
I19
ssg10
I227
sg36
g4
sg37
(dp2315
sg39
(dp2316
sg41
I1238
sg42
g21
sg43
g21
sg44
I227
sg45
Va
p2317
sg47
I227
sg48
I1239
sbag0
(g23
g2
Ntp2318
Rp2319
(dp2320
g27
(dp2321
g29
Vspecial
p2322
sg31
VO
p2323
sg33
VJJ
p2324
sg35
I20
ssg10
I228
sg36
g4
sg37
(dp2325
sg39
(dp2326
sg41
I1240
sg42
g21
sg43
g21
sg44
I228
sg45
Vspecial
p2327
sg47
I228
sg48
I1247
sbag0
(g23
g2
Ntp2328
Rp2329
(dp2330
g27
(dp2331
g29
Vreport
p2332
sg31
VO
p2333
sg33
VNN
p2334
sg35
I21
ssg10
I229
sg36
g4
sg37
(dp2335
sg39
(dp2336
sg41
I1248
sg42
g21
sg43
g21
sg44
I229
sg45
Vreport
p2337
sg47
I229
sg48
I1254
sbag0
(g23
g2
Ntp2338
Rp2339
(dp2340
g27
(dp2341
g29
Vbe
p2342
sg31
VO
p2343
sg33
VVBD
p2344
sg35
I22
ssg10
I230
sg36
g4
sg37
(dp2345
sg39
(dp2346
sg41
I1255
sg42
g21
sg43
g21
sg44
I230
sg45
Vwas
p2347
sg47
I230
sg48
I1258
sbag0
(g23
g2
Ntp2348
Rp2349
(dp2350
g27
(dp2351
g29
Vcompile
p2352
sg31
VO
p2353
sg33
VVBN
p2354
sg35
I23
ssg10
I231
sg36
g4
sg37
(dp2355
sg39
(dp2356
sg41
I1259
sg42
g21
sg43
g21
sg44
I231
sg45
Vcompiled
p2357
sg47
I231
sg48
I1267
sbag0
(g23
g2
Ntp2358
Rp2359
(dp2360
g27
(dp2361
g29
Vby
p2362
sg31
VO
p2363
sg33
VIN
p2364
sg35
I24
ssg10
I232
sg36
g4
sg37
(dp2365
sg39
(dp2366
sg41
I1268
sg42
g21
sg43
g21
sg44
I232
sg45
Vby
p2367
sg47
I232
sg48
I1270
sbag0
(g23
g2
Ntp2368
Rp2369
(dp2370
g27
(dp2371
g29
Vthe
p2372
sg31
VO
p2373
sg33
VDT
p2374
sg35
I25
ssg10
I233
sg36
g4
sg37
(dp2375
sg39
(dp2376
sg41
I1271
sg42
g21
sg43
g21
sg44
I233
sg45
Vthe
p2377
sg47
I233
sg48
I1274
sbag0
(g23
g2
Ntp2378
Rp2379
(dp2380
g27
(dp2381
g29
VFederal
p2382
sg31
VORGANIZATION
p2383
sg33
VNNP
p2384
sg35
I26
ssg10
I234
sg36
g4
sg37
(dp2385
sg39
(dp2386
sg41
I1275
sg42
g21
sg43
g21
sg44
I234
sg45
VFederal
p2387
sg47
I234
sg48
I1282
sbag0
(g23
g2
Ntp2388
Rp2389
(dp2390
g27
(dp2391
g29
VDepartment
p2392
sg31
VORGANIZATION
p2393
sg33
VNNP
p2394
sg35
I27
ssg10
I235
sg36
g4
sg37
(dp2395
sg39
(dp2396
sg41
I1283
sg42
g21
sg43
g21
sg44
I235
sg45
VDepartment
p2397
sg47
I235
sg48
I1293
sbag0
(g23
g2
Ntp2398
Rp2399
(dp2400
g27
(dp2401
g29
Vof
p2402
sg31
VORGANIZATION
p2403
sg33
VIN
p2404
sg35
I28
ssg10
I236
sg36
g4
sg37
(dp2405
sg39
(dp2406
sg41
I1294
sg42
g21
sg43
g21
sg44
I236
sg45
Vof
p2407
sg47
I236
sg48
I1296
sbag0
(g23
g2
Ntp2408
Rp2409
(dp2410
g27
(dp2411
g29
VJustice
p2412
sg31
VORGANIZATION
p2413
sg33
VNNP
p2414
sg35
I29
ssg10
I237
sg36
g4
sg37
(dp2415
sg39
(dp2416
sg41
I1297
sg42
g21
sg43
g21
sg44
I237
sg45
VJustice
p2417
sg47
I237
sg48
I1304
sbag0
(g23
g2
Ntp2418
Rp2419
(dp2420
g27
(dp2421
g29
Vand
p2422
sg31
VO
p2423
sg33
VCC
p2424
sg35
I30
ssg10
I238
sg36
g4
sg37
(dp2425
sg39
(dp2426
sg41
I1305
sg42
g21
sg43
g21
sg44
I238
sg45
Vand
p2427
sg47
I238
sg48
I1308
sbag0
(g23
g2
Ntp2428
Rp2429
(dp2430
g27
(dp2431
g29
VPolice
p2432
sg31
VO
p2433
sg33
VNNP
p2434
sg35
I31
ssg10
I239
sg36
g4
sg37
(dp2435
sg39
(dp2436
sg41
I1309
sg42
g21
sg43
g21
sg44
I239
sg45
VPolice
p2437
sg47
I239
sg48
I1315
sbag0
(g23
g2
Ntp2438
Rp2439
(dp2440
g27
(dp2441
g29
V-lrb-
p2442
sg31
VO
p2443
sg33
V-LRB-
p2444
sg35
I32
ssg10
I240
sg36
g4
sg37
(dp2445
sg39
(dp2446
sg41
I1316
sg42
g21
sg43
g21
sg44
I240
sg45
V(
p2447
sg47
I240
sg48
I1317
sbag0
(g23
g2
Ntp2448
Rp2449
(dp2450
g27
(dp2451
g29
Vpublish
p2452
sg31
VO
p2453
sg33
VVBN
p2454
sg35
I33
ssg10
I241
sg36
g4
sg37
(dp2455
sg39
(dp2456
sg41
I1317
sg42
g21
sg43
g21
sg44
I241
sg45
Vpublished
p2457
sg47
I241
sg48
I1326
sbag0
(g23
g2
Ntp2458
Rp2459
(dp2460
g27
(dp2461
g29
Vin
p2462
sg31
VO
p2463
sg33
VIN
p2464
sg35
I34
ssg10
I242
sg36
g4
sg37
(dp2465
sg39
(dp2466
sg41
I1327
sg42
g21
sg43
g21
sg44
I242
sg45
Vin
p2467
sg47
I242
sg48
I1329
sbag0
(g23
g2
Ntp2468
Rp2469
(dp2470
g27
(dp2471
g29
V2001
p2472
sg31
VDATE
p2473
sg33
VCD
p2474
sg35
I35
ssg10
I243
sg36
g4
sg37
(dp2475
sg39
(dp2476
sg41
I1330
sg42
g21
sg43
g21
sg44
I243
sg45
V2001
p2477
sg47
I243
sg48
I1334
sbag0
(g23
g2
Ntp2478
Rp2479
(dp2480
g27
(dp2481
g29
V-rrb-
p2482
sg31
VO
p2483
sg33
V-RRB-
p2484
sg35
I36
ssg10
I244
sg36
g4
sg37
(dp2485
sg39
(dp2486
sg41
I1334
sg42
g21
sg43
g21
sg44
I244
sg45
V)
p2487
sg47
I244
sg48
I1335
sbag0
(g23
g2
Ntp2488
Rp2489
(dp2490
g27
(dp2491
g29
Vwhich
p2492
sg31
VO
p2493
sg33
VWDT
p2494
sg35
I37
ssg10
I245
sg36
g4
sg37
(dp2495
sg39
(dp2496
sg41
I1336
sg42
g21
sg43
g21
sg44
I245
sg45
Vwhich
p2497
sg47
I245
sg48
I1341
sbag0
(g23
g2
Ntp2498
Rp2499
(dp2500
g27
(dp2501
g29
Vfor
p2502
sg31
VO
p2503
sg33
VIN
p2504
sg35
I38
ssg10
I246
sg36
g4
sg37
(dp2505
sg39
(dp2506
sg41
I1342
sg42
g21
sg43
g21
sg44
I246
sg45
Vfor
p2507
sg47
I246
sg48
I1345
sbag0
(g23
g2
Ntp2508
Rp2509
(dp2510
g27
(dp2511
g29
Vthe
p2512
sg31
VDATE
p2513
sg33
VDT
p2514
sg35
I39
ssg10
I247
sg36
g4
sg37
(dp2515
sg39
(dp2516
sg41
I1346
sg42
g21
sg43
g21
sg44
I247
sg45
Vthe
p2517
sg47
I247
sg48
I1349
sbag0
(g23
g2
Ntp2518
Rp2519
(dp2520
g27
(dp2521
g29
Vyear
p2522
sg31
VDATE
p2523
sg33
VNN
p2524
sg35
I40
ssg10
I248
sg36
g4
sg37
(dp2525
sg39
(dp2526
sg41
I1350
sg42
g21
sg43
g21
sg44
I248
sg45
Vyear
p2527
sg47
I248
sg48
I1354
sbag0
(g23
g2
Ntp2528
Rp2529
(dp2530
g27
(dp2531
g29
V1998
p2532
sg31
VDATE
p2533
sg33
VCD
p2534
sg35
I41
ssg10
I249
sg36
g4
sg37
(dp2535
sg39
(dp2536
sg41
I1355
sg42
g21
sg43
g21
sg44
I249
sg45
V1998
p2537
sg47
I249
sg48
I1359
sbag0
(g23
g2
Ntp2538
Rp2539
(dp2540
g27
(dp2541
g29
Vfind
p2542
sg31
VO
p2543
sg33
VVBD
p2544
sg35
I42
ssg10
I250
sg36
g4
sg37
(dp2545
sg39
(dp2546
sg41
I1360
sg42
g21
sg43
g21
sg44
I250
sg45
Vfound
p2547
sg47
I250
sg48
I1365
sbag0
(g23
g2
Ntp2548
Rp2549
(dp2550
g27
(dp2551
g29
Va
p2552
sg31
VO
p2553
sg33
VDT
p2554
sg35
I43
ssg10
I251
sg36
g4
sg37
(dp2555
sg39
(dp2556
sg41
I1366
sg42
g21
sg43
g21
sg44
I251
sg45
Van
p2557
sg47
I251
sg48
I1368
sbag0
(g23
g2
Ntp2558
Rp2559
(dp2560
g27
(dp2561
g29
Varrest
p2562
sg31
VO
p2563
sg33
VNN
p2564
sg35
I44
ssg10
I252
sg36
g4
sg37
(dp2565
sg39
(dp2566
sg41
I1369
sg42
g21
sg43
g21
sg44
I252
sg45
Varrest
p2567
sg47
I252
sg48
I1375
sbag0
(g23
g2
Ntp2568
Rp2569
(dp2570
g27
(dp2571
g29
Vrate
p2572
sg31
VO
p2573
sg33
VNN
p2574
sg35
I45
ssg10
I253
sg36
g4
sg37
(dp2575
sg39
(dp2576
sg41
I1376
sg42
g21
sg43
g21
sg44
I253
sg45
Vrate
p2577
sg47
I253
sg48
I1380
sbag0
(g23
g2
Ntp2578
Rp2579
(dp2580
g27
(dp2581
g29
Vper
p2582
sg31
VO
p2583
sg33
VIN
p2584
sg35
I46
ssg10
I254
sg36
g4
sg37
(dp2585
sg39
(dp2586
sg41
I1381
sg42
g21
sg43
g21
sg44
I254
sg45
Vper
p2587
sg47
I254
sg48
I1384
sbag0
(g23
g2
Ntp2588
Rp2589
(dp2590
g27
(dp2591
g29
V1000
p2592
sg31
VDATE
p2593
sg33
VCD
p2594
sg35
I47
ssg10
I255
sg36
g4
sg37
(dp2595
sg39
(dp2596
sg41
I1385
sg42
g21
sg43
g21
sg44
I255
sg45
V1000
p2597
sg47
I255
sg48
I1389
sbag0
(g23
g2
Ntp2598
Rp2599
(dp2600
g27
(dp2601
g29
Vadult
p2602
sg31
VO
p2603
sg33
VJJ
p2604
sg35
I48
ssg10
I256
sg36
g4
sg37
(dp2605
sg39
(dp2606
sg41
I1390
sg42
g21
sg43
g21
sg44
I256
sg45
Vadult
p2607
sg47
I256
sg48
I1395
sbag0
(g23
g2
Ntp2608
Rp2609
(dp2610
g27
(dp2611
g29
Vpopulation
p2612
sg31
VO
p2613
sg33
VNN
p2614
sg35
I49
ssg10
I257
sg36
g4
sg37
(dp2615
sg39
(dp2616
sg41
I1396
sg42
g21
sg43
g21
sg44
I257
sg45
Vpopulation
p2617
sg47
I257
sg48
I1406
sbag0
(g23
g2
Ntp2618
Rp2619
(dp2620
g27
(dp2621
g29
Vof
p2622
sg31
VO
p2623
sg33
VIN
p2624
sg35
I50
ssg10
I258
sg36
g4
sg37
(dp2625
sg39
(dp2626
sg41
I1407
sg42
g21
sg43
g21
sg44
I258
sg45
Vof
p2627
sg47
I258
sg48
I1409
sbag0
(g23
g2
Ntp2628
Rp2629
(dp2630
g27
(dp2631
g29
V2.3
p2632
sg31
VNUMBER
p2633
sg33
VCD
p2634
sg35
I51
ssg10
I259
sg36
g4
sg37
(dp2635
sg39
(dp2636
sg41
I1410
sg42
g21
sg43
g21
sg44
I259
sg45
V2.3
p2637
sg47
I259
sg48
I1413
sbag0
(g23
g2
Ntp2638
Rp2639
(dp2640
g27
(dp2641
g29
Vfor
p2642
sg31
VO
p2643
sg33
VIN
p2644
sg35
I52
ssg10
I260
sg36
g4
sg37
(dp2645
sg39
(dp2646
sg41
I1414
sg42
g21
sg43
g21
sg44
I260
sg45
Vfor
p2647
sg47
I260
sg48
I1417
sbag0
(g23
g2
Ntp2648
Rp2649
(dp2650
g27
(dp2651
g29
Vswiss
p2652
sg31
VMISC
p2653
sg33
VJJ
p2654
sg35
I53
ssg10
I261
sg36
g4
sg37
(dp2655
sg39
(dp2656
sg41
I1418
sg42
g21
sg43
g21
sg44
I261
sg45
VSwiss
p2657
sg47
I261
sg48
I1423
sbag0
(g23
g2
Ntp2658
Rp2659
(dp2660
g27
(dp2661
g29
Vcitizen
p2662
sg31
VO
p2663
sg33
VNNS
p2664
sg35
I54
ssg10
I262
sg36
g4
sg37
(dp2665
sg39
(dp2666
sg41
I1424
sg42
g21
sg43
g21
sg44
I262
sg45
Vcitizens
p2667
sg47
I262
sg48
I1432
sbag0
(g23
g2
Ntp2668
Rp2669
(dp2670
g27
(dp2671
g29
V,
p2672
sg31
VO
p2673
sg33
V,
p2674
sg35
I55
ssg10
I263
sg36
g4
sg37
(dp2675
sg39
(dp2676
sg41
I1432
sg42
g21
sg43
g21
sg44
I263
sg45
V,
p2677
sg47
I263
sg48
I1433
sbag0
(g23
g2
Ntp2678
Rp2679
(dp2680
g27
(dp2681
g29
V4.2
p2682
sg31
VNUMBER
p2683
sg33
VCD
p2684
sg35
I56
ssg10
I264
sg36
g4
sg37
(dp2685
sg39
(dp2686
sg41
I1434
sg42
g21
sg43
g21
sg44
I264
sg45
V4.2
p2687
sg47
I264
sg48
I1437
sbag0
(g23
g2
Ntp2688
Rp2689
(dp2690
g27
(dp2691
g29
Vfor
p2692
sg31
VO
p2693
sg33
VIN
p2694
sg35
I57
ssg10
I265
sg36
g4
sg37
(dp2695
sg39
(dp2696
sg41
I1438
sg42
g21
sg43
g21
sg44
I265
sg45
Vfor
p2697
sg47
I265
sg48
I1441
sbag0
(g23
g2
Ntp2698
Rp2699
(dp2700
g27
(dp2701
g29
Vlegally
p2702
sg31
VO
p2703
sg33
VRB
p2704
sg35
I58
ssg10
I266
sg36
g4
sg37
(dp2705
sg39
(dp2706
sg41
I1442
sg42
g21
sg43
g21
sg44
I266
sg45
Vlegally
p2707
sg47
I266
sg48
I1449
sbag0
(g23
g2
Ntp2708
Rp2709
(dp2710
g27
(dp2711
g29
Vresident
p2712
sg31
VO
p2713
sg33
VJJ
p2714
sg35
I59
ssg10
I267
sg36
g4
sg37
(dp2715
sg39
(dp2716
sg41
I1450
sg42
g21
sg43
g21
sg44
I267
sg45
Vresident
p2717
sg47
I267
sg48
I1458
sbag0
(g23
g2
Ntp2718
Rp2719
(dp2720
g27
(dp2721
g29
Valien
p2722
sg31
VO
p2723
sg33
VNNS
p2724
sg35
I60
ssg10
I268
sg36
g4
sg37
(dp2725
sg39
(dp2726
sg41
I1459
sg42
g21
sg43
g21
sg44
I268
sg45
Valiens
p2727
sg47
I268
sg48
I1465
sbag0
(g23
g2
Ntp2728
Rp2729
(dp2730
g27
(dp2731
g29
Vand
p2732
sg31
VO
p2733
sg33
VCC
p2734
sg35
I61
ssg10
I269
sg36
g4
sg37
(dp2735
sg39
(dp2736
sg41
I1466
sg42
g21
sg43
g21
sg44
I269
sg45
Vand
p2737
sg47
I269
sg48
I1469
sbag0
(g23
g2
Ntp2738
Rp2739
(dp2740
g27
(dp2741
g29
V32
p2742
sg31
VNUMBER
p2743
sg33
VCD
p2744
sg35
I62
ssg10
I270
sg36
g4
sg37
(dp2745
sg39
(dp2746
sg41
I1470
sg42
g21
sg43
g21
sg44
I270
sg45
V32
p2747
sg47
I270
sg48
I1472
sbag0
(g23
g2
Ntp2748
Rp2749
(dp2750
g27
(dp2751
g29
Vfor
p2752
sg31
VO
p2753
sg33
VIN
p2754
sg35
I63
ssg10
I271
sg36
g4
sg37
(dp2755
sg39
(dp2756
sg41
I1473
sg42
g21
sg43
g21
sg44
I271
sg45
Vfor
p2757
sg47
I271
sg48
I1476
sbag0
(g23
g2
Ntp2758
Rp2759
(dp2760
g27
(dp2761
g29
Vasylum
p2762
sg31
VO
p2763
sg33
VNN
p2764
sg35
I64
ssg10
I272
sg36
g4
sg37
(dp2765
sg39
(dp2766
sg41
I1477
sg42
g21
sg43
g21
sg44
I272
sg45
Vasylum
p2767
sg47
I272
sg48
I1483
sbag0
(g23
g2
Ntp2768
Rp2769
(dp2770
g27
(dp2771
g29
Vseeker
p2772
sg31
VO
p2773
sg33
VNNS
p2774
sg35
I65
ssg10
I273
sg36
g4
sg37
(dp2775
sg39
(dp2776
sg41
I1484
sg42
g21
sg43
g21
sg44
I273
sg45
Vseekers
p2777
sg47
I273
sg48
I1491
sbag0
(g23
g2
Ntp2778
Rp2779
(dp2780
g27
(dp2781
g29
V.
p2782
sg31
VO
p2783
sg33
V.
p2784
sg35
I66
ssg10
I274
sg36
g4
sg37
(dp2785
sg39
(dp2786
sg41
I1491
sg42
g21
sg43
g21
sg44
I274
sg45
V.
p2787
sg47
I274
sg48
I1492
sbag0
(g23
g2
Ntp2788
Rp2789
(dp2790
g27
(dp2791
g29
V21
p2792
sg31
VPERCENT
p2793
sg33
VCD
p2794
sg35
I1
ssg10
I275
sg36
g4
sg37
(dp2795
sg39
(dp2796
sg41
I1494
sg42
g21
sg43
g21
sg44
I275
sg45
V21
p2797
sg47
I275
sg48
I1496
sbag0
(g23
g2
Ntp2798
Rp2799
(dp2800
g27
(dp2801
g29
V%
p2802
sg31
VPERCENT
p2803
sg33
VNN
p2804
sg35
I2
ssg10
I276
sg36
g4
sg37
(dp2805
sg39
(dp2806
sg41
I1496
sg42
g21
sg43
g21
sg44
I276
sg45
V%
p2807
sg47
I276
sg48
I1497
sbag0
(g23
g2
Ntp2808
Rp2809
(dp2810
g27
(dp2811
g29
Vof
p2812
sg31
VO
p2813
sg33
VIN
p2814
sg35
I3
ssg10
I277
sg36
g4
sg37
(dp2815
sg39
(dp2816
sg41
I1498
sg42
g21
sg43
g21
sg44
I277
sg45
Vof
p2817
sg47
I277
sg48
I1500
sbag0
(g23
g2
Ntp2818
Rp2819
(dp2820
g27
(dp2821
g29
Varrest
p2822
sg31
VO
p2823
sg33
VNNS
p2824
sg35
I4
ssg10
I278
sg36
g4
sg37
(dp2825
sg39
(dp2826
sg41
I1501
sg42
g21
sg43
g21
sg44
I278
sg45
Varrests
p2827
sg47
I278
sg48
I1508
sbag0
(g23
g2
Ntp2828
Rp2829
(dp2830
g27
(dp2831
g29
Vmake
p2832
sg31
VO
p2833
sg33
VVBN
p2834
sg35
I5
ssg10
I279
sg36
g4
sg37
(dp2835
sg39
(dp2836
sg41
I1509
sg42
g21
sg43
g21
sg44
I279
sg45
Vmade
p2837
sg47
I279
sg48
I1513
sbag0
(g23
g2
Ntp2838
Rp2839
(dp2840
g27
(dp2841
g29
Vconcerned
p2842
sg31
VO
p2843
sg33
VJJ
p2844
sg35
I6
ssg10
I280
sg36
g4
sg37
(dp2845
sg39
(dp2846
sg41
I1514
sg42
g21
sg43
g21
sg44
I280
sg45
Vconcerned
p2847
sg47
I280
sg48
I1523
sbag0
(g23
g2
Ntp2848
Rp2849
(dp2850
g27
(dp2851
g29
Vindividual
p2852
sg31
VO
p2853
sg33
VNNS
p2854
sg35
I7
ssg10
I281
sg36
g4
sg37
(dp2855
sg39
(dp2856
sg41
I1524
sg42
g21
sg43
g21
sg44
I281
sg45
Vindividuals
p2857
sg47
I281
sg48
I1535
sbag0
(g23
g2
Ntp2858
Rp2859
(dp2860
g27
(dp2861
g29
Vwith
p2862
sg31
VO
p2863
sg33
VIN
p2864
sg35
I8
ssg10
I282
sg36
g4
sg37
(dp2865
sg39
(dp2866
sg41
I1536
sg42
g21
sg43
g21
sg44
I282
sg45
Vwith
p2867
sg47
I282
sg48
I1540
sbag0
(g23
g2
Ntp2868
Rp2869
(dp2870
g27
(dp2871
g29
Vno
p2872
sg31
VO
p2873
sg33
VDT
p2874
sg35
I9
ssg10
I283
sg36
g4
sg37
(dp2875
sg39
(dp2876
sg41
I1541
sg42
g21
sg43
g21
sg44
I283
sg45
Vno
p2877
sg47
I283
sg48
I1543
sbag0
(g23
g2
Ntp2878
Rp2879
(dp2880
g27
(dp2881
g29
Vresidence
p2882
sg31
VO
p2883
sg33
VNN
p2884
sg35
I10
ssg10
I284
sg36
g4
sg37
(dp2885
sg39
(dp2886
sg41
I1544
sg42
g21
sg43
g21
sg44
I284
sg45
Vresidence
p2887
sg47
I284
sg48
I1553
sbag0
(g23
g2
Ntp2888
Rp2889
(dp2890
g27
(dp2891
g29
Vstatus
p2892
sg31
VO
p2893
sg33
VNN
p2894
sg35
I11
ssg10
I285
sg36
g4
sg37
(dp2895
sg39
(dp2896
sg41
I1554
sg42
g21
sg43
g21
sg44
I285
sg45
Vstatus
p2897
sg47
I285
sg48
I1560
sbag0
(g23
g2
Ntp2898
Rp2899
(dp2900
g27
(dp2901
g29
V,
p2902
sg31
VO
p2903
sg33
V,
p2904
sg35
I12
ssg10
I286
sg36
g4
sg37
(dp2905
sg39
(dp2906
sg41
I1560
sg42
g21
sg43
g21
sg44
I286
sg45
V,
p2907
sg47
I286
sg48
I1561
sbag0
(g23
g2
Ntp2908
Rp2909
(dp2910
g27
(dp2911
g29
Vwho
p2912
sg31
VO
p2913
sg33
VWP
p2914
sg35
I13
ssg10
I287
sg36
g4
sg37
(dp2915
sg39
(dp2916
sg41
I1562
sg42
g21
sg43
g21
sg44
I287
sg45
Vwho
p2917
sg47
I287
sg48
I1565
sbag0
(g23
g2
Ntp2918
Rp2919
(dp2920
g27
(dp2921
g29
Vbe
p2922
sg31
VO
p2923
sg33
VVBD
p2924
sg35
I14
ssg10
I288
sg36
g4
sg37
(dp2925
sg39
(dp2926
sg41
I1566
sg42
g21
sg43
g21
sg44
I288
sg45
Vwere
p2927
sg47
I288
sg48
I1570
sbag0
(g23
g2
Ntp2928
Rp2929
(dp2930
g27
(dp2931
g29
Vthus
p2932
sg31
VO
p2933
sg33
VRB
p2934
sg35
I15
ssg10
I289
sg36
g4
sg37
(dp2935
sg39
(dp2936
sg41
I1571
sg42
g21
sg43
g21
sg44
I289
sg45
Vthus
p2937
sg47
I289
sg48
I1575
sbag0
(g23
g2
Ntp2938
Rp2939
(dp2940
g27
(dp2941
g29
Veither
p2942
sg31
VO
p2943
sg33
VCC
p2944
sg35
I16
ssg10
I290
sg36
g4
sg37
(dp2945
sg39
(dp2946
sg41
I1576
sg42
g21
sg43
g21
sg44
I290
sg45
Veither
p2947
sg47
I290
sg48
I1582
sbag0
(g23
g2
Ntp2948
Rp2949
(dp2950
g27
(dp2951
g29
Vsans
p2952
sg31
VO
p2953
sg33
VRB
p2954
sg35
I17
ssg10
I291
sg36
g4
sg37
(dp2955
sg39
(dp2956
sg41
I1583
sg42
g21
sg43
g21
sg44
I291
sg45
Vsans
p2957
sg47
I291
sg48
I1587
sbag0
(g23
g2
Ntp2958
Rp2959
(dp2960
g27
(dp2961
g29
Vpapier
p2962
sg31
VO
p2963
sg33
VNNS
p2964
sg35
I18
ssg10
I292
sg36
g4
sg37
(dp2965
sg39
(dp2966
sg41
I1588
sg42
g21
sg43
g21
sg44
I292
sg45
Vpapiers
p2967
sg47
I292
sg48
I1595
sbag0
(g23
g2
Ntp2968
Rp2969
(dp2970
g27
(dp2971
g29
Vor
p2972
sg31
VO
p2973
sg33
VCC
p2974
sg35
I19
ssg10
I293
sg36
g4
sg37
(dp2975
sg39
(dp2976
sg41
I1596
sg42
g21
sg43
g21
sg44
I293
sg45
Vor
p2977
sg47
I293
sg48
I1598
sbag0
(g23
g2
Ntp2978
Rp2979
(dp2980
g27
(dp2981
g29
V``
p2982
sg31
VO
p2983
sg33
V``
p2984
sg35
I20
ssg10
I294
sg36
g4
sg37
(dp2985
sg39
(dp2986
sg41
I1599
sg42
g21
sg43
g21
sg44
I294
sg45
g798
sg47
I294
sg48
I1600
sbag0
(g23
g2
Ntp2987
Rp2988
(dp2989
g27
(dp2990
g29
Vcrime
p2991
sg31
VO
p2992
sg33
VNN
p2993
sg35
I21
ssg10
I295
sg36
g4
sg37
(dp2994
sg39
(dp2995
sg41
I1600
sg42
g21
sg43
g21
sg44
I295
sg45
Vcrime
p2996
sg47
I295
sg48
I1605
sbag0
(g23
g2
Ntp2997
Rp2998
(dp2999
g27
(dp3000
g29
Vtourist
p3001
sg31
VO
p3002
sg33
VNNS
p3003
sg35
I22
ssg10
I296
sg36
g4
sg37
(dp3004
sg39
(dp3005
sg41
I1606
sg42
g21
sg43
g21
sg44
I296
sg45
Vtourists
p3006
sg47
I296
sg48
I1614
sbag0
(g23
g2
Ntp3007
Rp3008
(dp3009
g27
(dp3010
g29
V''
p3011
sg31
VO
p3012
sg33
V''
p3013
sg35
I23
ssg10
I297
sg36
g4
sg37
(dp3014
sg39
(dp3015
sg41
I1614
sg42
g21
sg43
g21
sg44
I297
sg45
g798
sg47
I297
sg48
I1615
sbag0
(g23
g2
Ntp3016
Rp3017
(dp3018
g27
(dp3019
g29
Vwithout
p3020
sg31
VO
p3021
sg33
VIN
p3022
sg35
I24
ssg10
I298
sg36
g4
sg37
(dp3023
sg39
(dp3024
sg41
I1616
sg42
g21
sg43
g21
sg44
I298
sg45
Vwithout
p3025
sg47
I298
sg48
I1623
sbag0
(g23
g2
Ntp3026
Rp3027
(dp3028
g27
(dp3029
g29
Vany
p3030
sg31
VO
p3031
sg33
VDT
p3032
sg35
I25
ssg10
I299
sg36
g4
sg37
(dp3033
sg39
(dp3034
sg41
I1624
sg42
g21
sg43
g21
sg44
I299
sg45
Vany
p3035
sg47
I299
sg48
I1627
sbag0
(g23
g2
Ntp3036
Rp3037
(dp3038
g27
(dp3039
g29
Vpermanent
p3040
sg31
VO
p3041
sg33
VJJ
p3042
sg35
I26
ssg10
I300
sg36
g4
sg37
(dp3043
sg39
(dp3044
sg41
I1628
sg42
g21
sg43
g21
sg44
I300
sg45
Vpermanent
p3045
sg47
I300
sg48
I1637
sbag0
(g23
g2
Ntp3046
Rp3047
(dp3048
g27
(dp3049
g29
Vresidence
p3050
sg31
VO
p3051
sg33
VNN
p3052
sg35
I27
ssg10
I301
sg36
g4
sg37
(dp3053
sg39
(dp3054
sg41
I1638
sg42
g21
sg43
g21
sg44
I301
sg45
Vresidence
p3055
sg47
I301
sg48
I1647
sbag0
(g23
g2
Ntp3056
Rp3057
(dp3058
g27
(dp3059
g29
Vin
p3060
sg31
VO
p3061
sg33
VIN
p3062
sg35
I28
ssg10
I302
sg36
g4
sg37
(dp3063
sg39
(dp3064
sg41
I1648
sg42
g21
sg43
g21
sg44
I302
sg45
Vin
p3065
sg47
I302
sg48
I1650
sbag0
(g23
g2
Ntp3066
Rp3067
(dp3068
g27
(dp3069
g29
VSwitzerland
p3070
sg31
VLOCATION
p3071
sg33
VNNP
p3072
sg35
I29
ssg10
I303
sg36
g4
sg37
(dp3073
sg39
(dp3074
sg41
I1651
sg42
g21
sg43
g21
sg44
I303
sg45
VSwitzerland
p3075
sg47
I303
sg48
I1662
sbag0
(g23
g2
Ntp3076
Rp3077
(dp3078
g27
(dp3079
g29
V-lsb-
p3080
sg31
VO
p3081
sg33
V-LRB-
p3082
sg35
I30
ssg10
I304
sg36
g4
sg37
(dp3083
sg39
(dp3084
sg41
I1663
sg42
g21
sg43
g21
sg44
I304
sg45
V[
p3085
sg47
I304
sg48
I1664
sbag0
(g23
g2
Ntp3086
Rp3087
(dp3088
g27
(dp3089
g29
VREF
p3090
sg31
VO
p3091
sg33
VNNP
p3092
sg35
I31
ssg10
I305
sg36
g4
sg37
(dp3093
sg39
(dp3094
sg41
I1664
sg42
g21
sg43
g21
sg44
I305
sg45
VREF
p3095
sg47
I305
sg48
I1667
sbag0
(g23
g2
Ntp3096
Rp3097
(dp3098
g27
(dp3099
g29
V-rsb-
p3100
sg31
VO
p3101
sg33
V-RRB-
p3102
sg35
I32
ssg10
I306
sg36
g4
sg37
(dp3103
sg39
(dp3104
sg41
I1667
sg42
g21
sg43
g21
sg44
I306
sg45
V]
p3105
sg47
I306
sg48
I1668
sbag0
(g23
g2
Ntp3106
Rp3107
(dp3108
g27
(dp3109
g29
V.
p3110
sg31
VO
p3111
sg33
V.
p3112
sg35
I33
ssg10
I307
sg36
g4
sg37
(dp3113
sg39
(dp3114
sg41
I1668
sg42
g21
sg43
g21
sg44
I307
sg45
V.
p3115
sg47
I307
sg48
I1669
sbag0
(g23
g2
Ntp3116
Rp3117
(dp3118
g27
(dp3119
g29
Vthe
p3120
sg31
VO
p3121
sg33
VDT
p3122
sg35
I1
ssg10
I308
sg36
g4
sg37
(dp3123
sg39
(dp3124
sg41
I1672
sg42
g21
sg43
g21
sg44
I308
sg45
VThe
p3125
sg47
I308
sg48
I1675
sbag0
(g23
g2
Ntp3126
Rp3127
(dp3128
g27
(dp3129
g29
Vterm
p3130
sg31
VO
p3131
sg33
VNN
p3132
sg35
I2
ssg10
I309
sg36
g4
sg37
(dp3133
sg39
(dp3134
sg41
I1676
sg42
g21
sg43
g21
sg44
I309
sg45
Vterm
p3135
sg47
I309
sg48
I1680
sbag0
(g23
g2
Ntp3136
Rp3137
(dp3138
g27
(dp3139
g29
V-lrb-
p3140
sg31
VO
p3141
sg33
V-LRB-
p3142
sg35
I3
ssg10
I310
sg36
g4
sg37
(dp3143
sg39
(dp3144
sg41
I1681
sg42
g21
sg43
g21
sg44
I310
sg45
V(
p3145
sg47
I310
sg48
I1682
sbag0
(g23
g2
Ntp3146
Rp3147
(dp3148
g27
(dp3149
g29
V``
p3150
sg31
VO
p3151
sg33
V``
p3152
sg35
I4
ssg10
I311
sg36
g4
sg37
(dp3153
sg39
(dp3154
sg41
I1682
sg42
g21
sg43
g21
sg44
I311
sg45
g798
sg47
I311
sg48
I1683
sbag0
(g23
g2
Ntp3155
Rp3156
(dp3157
g27
(dp3158
g29
Vforeigner
p3159
sg31
VO
p3160
sg33
VNN
p3161
sg35
I5
ssg10
I312
sg36
g4
sg37
(dp3162
sg39
(dp3163
sg41
I1683
sg42
g21
sg43
g21
sg44
I312
sg45
Vforeigner
p3164
sg47
I312
sg48
I1692
sbag0
(g23
g2
Ntp3165
Rp3166
(dp3167
g27
(dp3168
g29
Vcriminality
p3169
sg31
VO
p3170
sg33
VNN
p3171
sg35
I6
ssg10
I313
sg36
g4
sg37
(dp3172
sg39
(dp3173
sg41
I1693
sg42
g21
sg43
g21
sg44
I313
sg45
Vcriminality
p3174
sg47
I313
sg48
I1704
sbag0
(g23
g2
Ntp3175
Rp3176
(dp3177
g27
(dp3178
g29
V''
p3179
sg31
VO
p3180
sg33
V''
p3181
sg35
I7
ssg10
I314
sg36
g4
sg37
(dp3182
sg39
(dp3183
sg41
I1704
sg42
g21
sg43
g21
sg44
I314
sg45
g798
sg47
I314
sg48
I1705
sbag0
(g23
g2
Ntp3184
Rp3185
(dp3186
g27
(dp3187
g29
V-rrb-
p3188
sg31
VO
p3189
sg33
V-RRB-
p3190
sg35
I8
ssg10
I315
sg36
g4
sg37
(dp3191
sg39
(dp3192
sg41
I1705
sg42
g21
sg43
g21
sg44
I315
sg45
V)
p3193
sg47
I315
sg48
I1706
sbag0
(g23
g2
Ntp3194
Rp3195
(dp3196
g27
(dp3197
g29
Vsince
p3198
sg31
VO
p3199
sg33
VIN
p3200
sg35
I9
ssg10
I316
sg36
g4
sg37
(dp3201
sg39
(dp3202
sg41
I1707
sg42
g21
sg43
g21
sg44
I316
sg45
Vsince
p3203
sg47
I316
sg48
I1712
sbag0
(g23
g2
Ntp3204
Rp3205
(dp3206
g27
(dp3207
g29
Vthe
p3208
sg31
VDATE
p3209
sg33
VDT
p3210
sg35
I10
ssg10
I317
sg36
g4
sg37
(dp3211
sg39
(dp3212
sg41
I1713
sg42
g21
sg43
g21
sg44
I317
sg45
Vthe
p3213
sg47
I317
sg48
I1716
sbag0
(g23
g2
Ntp3214
Rp3215
(dp3216
g27
(dp3217
g29
V1990s
p3218
sg31
VDATE
p3219
sg33
VCD
p3220
sg35
I11
ssg10
I318
sg36
g4
sg37
(dp3221
sg39
(dp3222
sg41
I1717
sg42
g21
sg43
g21
sg44
I318
sg45
V1990s
p3223
sg47
I318
sg48
I1722
sbag0
(g23
g2
Ntp3224
Rp3225
(dp3226
g27
(dp3227
g29
Vhave
p3228
sg31
VO
p3229
sg33
VVBZ
p3230
sg35
I12
ssg10
I319
sg36
g4
sg37
(dp3231
sg39
(dp3232
sg41
I1723
sg42
g21
sg43
g21
sg44
I319
sg45
Vhas
p3233
sg47
I319
sg48
I1726
sbag0
(g23
g2
Ntp3234
Rp3235
(dp3236
g27
(dp3237
g29
Vbecome
p3238
sg31
VO
p3239
sg33
VVBN
p3240
sg35
I13
ssg10
I320
sg36
g4
sg37
(dp3241
sg39
(dp3242
sg41
I1727
sg42
g21
sg43
g21
sg44
I320
sg45
Vbecome
p3243
sg47
I320
sg48
I1733
sbag0
(g23
g2
Ntp3244
Rp3245
(dp3246
g27
(dp3247
g29
Va
p3248
sg31
VO
p3249
sg33
VDT
p3250
sg35
I14
ssg10
I321
sg36
g4
sg37
(dp3251
sg39
(dp3252
sg41
I1734
sg42
g21
sg43
g21
sg44
I321
sg45
Va
p3253
sg47
I321
sg48
I1735
sbag0
(g23
g2
Ntp3254
Rp3255
(dp3256
g27
(dp3257
g29
Vpolitically
p3258
sg31
VO
p3259
sg33
VRB
p3260
sg35
I15
ssg10
I322
sg36
g4
sg37
(dp3261
sg39
(dp3262
sg41
I1736
sg42
g21
sg43
g21
sg44
I322
sg45
Vpolitically
p3263
sg47
I322
sg48
I1747
sbag0
(g23
g2
Ntp3264
Rp3265
(dp3266
g27
(dp3267
g29
Vcharge
p3268
sg31
VO
p3269
sg33
VVBN
p3270
sg35
I16
ssg10
I323
sg36
g4
sg37
(dp3271
sg39
(dp3272
sg41
I1748
sg42
g21
sg43
g21
sg44
I323
sg45
Vcharged
p3273
sg47
I323
sg48
I1755
sbag0
(g23
g2
Ntp3274
Rp3275
(dp3276
g27
(dp3277
g29
Vterm
p3278
sg31
VO
p3279
sg33
VNN
p3280
sg35
I17
ssg10
I324
sg36
g4
sg37
(dp3281
sg39
(dp3282
sg41
I1756
sg42
g21
sg43
g21
sg44
I324
sg45
Vterm
p3283
sg47
I324
sg48
I1760
sbag0
(g23
g2
Ntp3284
Rp3285
(dp3286
g27
(dp3287
g29
V,
p3288
sg31
VO
p3289
sg33
V,
p3290
sg35
I18
ssg10
I325
sg36
g4
sg37
(dp3291
sg39
(dp3292
sg41
I1760
sg42
g21
sg43
g21
sg44
I325
sg45
V,
p3293
sg47
I325
sg48
I1761
sbag0
(g23
g2
Ntp3294
Rp3295
(dp3296
g27
(dp3297
g29
Vwith
p3298
sg31
VO
p3299
sg33
VIN
p3300
sg35
I19
ssg10
I326
sg36
g4
sg37
(dp3301
sg39
(dp3302
sg41
I1762
sg42
g21
sg43
g21
sg44
I326
sg45
Vwith
p3303
sg47
I326
sg48
I1766
sbag0
(g23
g2
Ntp3304
Rp3305
(dp3306
g27
(dp3307
g29
Vthe
p3308
sg31
VO
p3309
sg33
VDT
p3310
sg35
I20
ssg10
I327
sg36
g4
sg37
(dp3311
sg39
(dp3312
sg41
I1767
sg42
g21
sg43
g21
sg44
I327
sg45
Vthe
p3313
sg47
I327
sg48
I1770
sbag0
(g23
g2
Ntp3314
Rp3315
(dp3316
g27
(dp3317
g29
Vpopulist
p3318
sg31
VO
p3319
sg33
VJJ
p3320
sg35
I21
ssg10
I328
sg36
g4
sg37
(dp3321
sg39
(dp3322
sg41
I1771
sg42
g21
sg43
g21
sg44
I328
sg45
Vpopulist
p3323
sg47
I328
sg48
I1779
sbag0
(g23
g2
Ntp3324
Rp3325
(dp3326
g27
(dp3327
g29
V``
p3328
sg31
VO
p3329
sg33
V``
p3330
sg35
I22
ssg10
I329
sg36
g4
sg37
(dp3331
sg39
(dp3332
sg41
I1780
sg42
g21
sg43
g21
sg44
I329
sg45
g798
sg47
I329
sg48
I1781
sbag0
(g23
g2
Ntp3333
Rp3334
(dp3335
g27
(dp3336
g29
Vblack
p3337
sg31
VO
p3338
sg33
VJJ
p3339
sg35
I23
ssg10
I330
sg36
g4
sg37
(dp3340
sg39
(dp3341
sg41
I1781
sg42
g21
sg43
g21
sg44
I330
sg45
Vblack
p3342
sg47
I330
sg48
I1786
sbag0
(g23
g2
Ntp3343
Rp3344
(dp3345
g27
(dp3346
g29
Vsheep
p3347
sg31
VO
p3348
sg33
VNN
p3349
sg35
I24
ssg10
I331
sg36
g4
sg37
(dp3350
sg39
(dp3351
sg41
I1787
sg42
g21
sg43
g21
sg44
I331
sg45
Vsheep
p3352
sg47
I331
sg48
I1792
sbag0
(g23
g2
Ntp3353
Rp3354
(dp3355
g27
(dp3356
g29
V''
p3357
sg31
VO
p3358
sg33
V''
p3359
sg35
I25
ssg10
I332
sg36
g4
sg37
(dp3360
sg39
(dp3361
sg41
I1792
sg42
g21
sg43
g21
sg44
I332
sg45
g798
sg47
I332
sg48
I1793
sbag0
(g23
g2
Ntp3362
Rp3363
(dp3364
g27
(dp3365
g29
Vcampaign
p3366
sg31
VO
p3367
sg33
VNN
p3368
sg35
I26
ssg10
I333
sg36
g4
sg37
(dp3369
sg39
(dp3370
sg41
I1794
sg42
g21
sg43
g21
sg44
I333
sg45
Vcampaign
p3371
sg47
I333
sg48
I1802
sbag0
(g23
g2
Ntp3372
Rp3373
(dp3374
g27
(dp3375
g29
Vfor
p3376
sg31
VO
p3377
sg33
VIN
p3378
sg35
I27
ssg10
I334
sg36
g4
sg37
(dp3379
sg39
(dp3380
sg41
I1803
sg42
g21
sg43
g21
sg44
I334
sg45
Vfor
p3381
sg47
I334
sg48
I1806
sbag0
(g23
g2
Ntp3382
Rp3383
(dp3384
g27
(dp3385
g29
Vthe
p3386
sg31
VO
p3387
sg33
VDT
p3388
sg35
I28
ssg10
I335
sg36
g4
sg37
(dp3389
sg39
(dp3390
sg41
I1807
sg42
g21
sg43
g21
sg44
I335
sg45
Vthe
p3391
sg47
I335
sg48
I1810
sbag0
(g23
g2
Ntp3392
Rp3393
(dp3394
g27
(dp3395
g29
V``
p3396
sg31
VO
p3397
sg33
V``
p3398
sg35
I29
ssg10
I336
sg36
g4
sg37
(dp3399
sg39
(dp3400
sg41
I1811
sg42
g21
sg43
g21
sg44
I336
sg45
g798
sg47
I336
sg48
I1812
sbag0
(g23
g2
Ntp3401
Rp3402
(dp3403
g27
(dp3404
g29
Vinitiative
p3405
sg31
VO
p3406
sg33
VNN
p3407
sg35
I30
ssg10
I337
sg36
g4
sg37
(dp3408
sg39
(dp3409
sg41
I1812
sg42
g21
sg43
g21
sg44
I337
sg45
Vinitiative
p3410
sg47
I337
sg48
I1822
sbag0
(g23
g2
Ntp3411
Rp3412
(dp3413
g27
(dp3414
g29
Vfor
p3415
sg31
VO
p3416
sg33
VIN
p3417
sg35
I31
ssg10
I338
sg36
g4
sg37
(dp3418
sg39
(dp3419
sg41
I1823
sg42
g21
sg43
g21
sg44
I338
sg45
Vfor
p3420
sg47
I338
sg48
I1826
sbag0
(g23
g2
Ntp3421
Rp3422
(dp3423
g27
(dp3424
g29
Vthe
p3425
sg31
VO
p3426
sg33
VDT
p3427
sg35
I32
ssg10
I339
sg36
g4
sg37
(dp3428
sg39
(dp3429
sg41
I1827
sg42
g21
sg43
g21
sg44
I339
sg45
Vthe
p3430
sg47
I339
sg48
I1830
sbag0
(g23
g2
Ntp3431
Rp3432
(dp3433
g27
(dp3434
g29
Vextradition
p3435
sg31
VO
p3436
sg33
VNN
p3437
sg35
I33
ssg10
I340
sg36
g4
sg37
(dp3438
sg39
(dp3439
sg41
I1831
sg42
g21
sg43
g21
sg44
I340
sg45
Vextradition
p3440
sg47
I340
sg48
I1842
sbag0
(g23
g2
Ntp3441
Rp3442
(dp3443
g27
(dp3444
g29
Vof
p3445
sg31
VO
p3446
sg33
VIN
p3447
sg35
I34
ssg10
I341
sg36
g4
sg37
(dp3448
sg39
(dp3449
sg41
I1843
sg42
g21
sg43
g21
sg44
I341
sg45
Vof
p3450
sg47
I341
sg48
I1845
sbag0
(g23
g2
Ntp3451
Rp3452
(dp3453
g27
(dp3454
g29
Vcriminal
p3455
sg31
VO
p3456
sg33
VJJ
p3457
sg35
I35
ssg10
I342
sg36
g4
sg37
(dp3458
sg39
(dp3459
sg41
I1846
sg42
g21
sg43
g21
sg44
I342
sg45
Vcriminal
p3460
sg47
I342
sg48
I1854
sbag0
(g23
g2
Ntp3461
Rp3462
(dp3463
g27
(dp3464
g29
Vforeigner
p3465
sg31
VO
p3466
sg33
VNNS
p3467
sg35
I36
ssg10
I343
sg36
g4
sg37
(dp3468
sg39
(dp3469
sg41
I1855
sg42
g21
sg43
g21
sg44
I343
sg45
Vforeigners
p3470
sg47
I343
sg48
I1865
sbag0
(g23
g2
Ntp3471
Rp3472
(dp3473
g27
(dp3474
g29
V''
p3475
sg31
VO
p3476
sg33
V''
p3477
sg35
I37
ssg10
I344
sg36
g4
sg37
(dp3478
sg39
(dp3479
sg41
I1865
sg42
g21
sg43
g21
sg44
I344
sg45
g798
sg47
I344
sg48
I1866
sbag0
(g23
g2
Ntp3480
Rp3481
(dp3482
g27
(dp3483
g29
Vof
p3484
sg31
VO
p3485
sg33
VIN
p3486
sg35
I38
ssg10
I345
sg36
g4
sg37
(dp3487
sg39
(dp3488
sg41
I1867
sg42
g21
sg43
g21
sg44
I345
sg45
Vof
p3489
sg47
I345
sg48
I1869
sbag0
(g23
g2
Ntp3490
Rp3491
(dp3492
g27
(dp3493
g29
Vthe
p3494
sg31
VO
p3495
sg33
VDT
p3496
sg35
I39
ssg10
I346
sg36
g4
sg37
(dp3497
sg39
(dp3498
sg41
I1870
sg42
g21
sg43
g21
sg44
I346
sg45
Vthe
p3499
sg47
I346
sg48
I1873
sbag0
(g23
g2
Ntp3500
Rp3501
(dp3502
g27
(dp3503
g29
Vswiss
p3504
sg31
VORGANIZATION
p3505
sg33
VJJ
p3506
sg35
I40
ssg10
I347
sg36
g4
sg37
(dp3507
sg39
(dp3508
sg41
I1874
sg42
g21
sg43
g21
sg44
I347
sg45
VSwiss
p3509
sg47
I347
sg48
I1879
sbag0
(g23
g2
Ntp3510
Rp3511
(dp3512
g27
(dp3513
g29
Vpeople
p3514
sg31
VORGANIZATION
p3515
sg33
VNNS
p3516
sg35
I41
ssg10
I348
sg36
g4
sg37
(dp3517
sg39
(dp3518
sg41
I1880
sg42
g21
sg43
g21
sg44
I348
sg45
VPeople
p3519
sg47
I348
sg48
I1886
sbag0
(g23
g2
Ntp3520
Rp3521
(dp3522
g27
(dp3523
g29
V's
p3524
sg31
VORGANIZATION
p3525
sg33
VPOS
p3526
sg35
I42
ssg10
I349
sg36
g4
sg37
(dp3527
sg39
(dp3528
sg41
I1886
sg42
g21
sg43
g21
sg44
I349
sg45
V's
p3529
sg47
I349
sg48
I1888
sbag0
(g23
g2
Ntp3530
Rp3531
(dp3532
g27
(dp3533
g29
VParty
p3534
sg31
VORGANIZATION
p3535
sg33
VNNP
p3536
sg35
I43
ssg10
I350
sg36
g4
sg37
(dp3537
sg39
(dp3538
sg41
I1889
sg42
g21
sg43
g21
sg44
I350
sg45
VParty
p3539
sg47
I350
sg48
I1894
sbag0
(g23
g2
Ntp3540
Rp3541
(dp3542
g27
(dp3543
g29
Vmake
p3544
sg31
VO
p3545
sg33
VVBG
p3546
sg35
I44
ssg10
I351
sg36
g4
sg37
(dp3547
sg39
(dp3548
sg41
I1895
sg42
g21
sg43
g21
sg44
I351
sg45
Vmaking
p3549
sg47
I351
sg48
I1901
sbag0
(g23
g2
Ntp3550
Rp3551
(dp3552
g27
(dp3553
g29
Vinternational
p3554
sg31
VO
p3555
sg33
VJJ
p3556
sg35
I45
ssg10
I352
sg36
g4
sg37
(dp3557
sg39
(dp3558
sg41
I1902
sg42
g21
sg43
g21
sg44
I352
sg45
Vinternational
p3559
sg47
I352
sg48
I1915
sbag0
(g23
g2
Ntp3560
Rp3561
(dp3562
g27
(dp3563
g29
Vheadline
p3564
sg31
VO
p3565
sg33
VNNS
p3566
sg35
I46
ssg10
I353
sg36
g4
sg37
(dp3567
sg39
(dp3568
sg41
I1916
sg42
g21
sg43
g21
sg44
I353
sg45
Vheadlines
p3569
sg47
I353
sg48
I1925
sbag0
(g23
g2
Ntp3570
Rp3571
(dp3572
g27
(dp3573
g29
Vin
p3574
sg31
VO
p3575
sg33
VIN
p3576
sg35
I47
ssg10
I354
sg36
g4
sg37
(dp3577
sg39
(dp3578
sg41
I1921
sg42
g21
sg43
g21
sg44
I354
sg45
Vin
p3579
sg47
I354
sg48
I1923
sbag0
(g23
g2
Ntp3580
Rp3581
(dp3582
g27
(dp3583
g29
VSeptember
p3584
sg31
VDATE
p3585
sg33
VNNP
p3586
sg35
I48
ssg10
I355
sg36
g4
sg37
(dp3587
sg39
(dp3588
sg41
I1929
sg42
g21
sg43
g21
sg44
I355
sg45
VSeptember
p3589
sg47
I355
sg48
I1938
sbag0
(g23
g2
Ntp3590
Rp3591
(dp3592
g27
(dp3593
g29
V2007
p3594
sg31
VDATE
p3595
sg33
VCD
p3596
sg35
I49
ssg10
I356
sg36
g4
sg37
(dp3597
sg39
(dp3598
sg41
I1939
sg42
g21
sg43
g21
sg44
I356
sg45
V2007
p3599
sg47
I356
sg48
I1943
sbag0
(g23
g2
Ntp3600
Rp3601
(dp3602
g27
(dp3603
g29
V.
p3604
sg31
VO
p3605
sg33
V.
p3606
sg35
I50
ssg10
I357
sg36
g4
sg37
(dp3607
sg39
(dp3608
sg41
I1943
sg42
g21
sg43
g21
sg44
I357
sg45
V.
p3609
sg47
I357
sg48
I1944
sbag0
(g23
g2
Ntp3610
Rp3611
(dp3612
g27
(dp3613
g29
Vin
p3614
sg31
VO
p3615
sg33
VIN
p3616
sg35
I1
ssg10
I358
sg36
g4
sg37
(dp3617
sg39
(dp3618
sg41
I1947
sg42
g21
sg43
g21
sg44
I358
sg45
VIn
p3619
sg47
I358
sg48
I1949
sbag0
(g23
g2
Ntp3620
Rp3621
(dp3622
g27
(dp3623
g29
VApril
p3624
sg31
VDATE
p3625
sg33
VNNP
p3626
sg35
I2
ssg10
I359
sg36
g4
sg37
(dp3627
sg39
(dp3628
sg41
I1950
sg42
g21
sg43
g21
sg44
I359
sg45
VApril
p3629
sg47
I359
sg48
I1955
sbag0
(g23
g2
Ntp3630
Rp3631
(dp3632
g27
(dp3633
g29
V2010
p3634
sg31
VDATE
p3635
sg33
VCD
p3636
sg35
I3
ssg10
I360
sg36
g4
sg37
(dp3637
sg39
(dp3638
sg41
I1956
sg42
g21
sg43
g21
sg44
I360
sg45
V2010
p3639
sg47
I360
sg48
I1960
sbag0
(g23
g2
Ntp3640
Rp3641
(dp3642
g27
(dp3643
g29
V,
p3644
sg31
VO
p3645
sg33
V,
p3646
sg35
I4
ssg10
I361
sg36
g4
sg37
(dp3647
sg39
(dp3648
sg41
I1960
sg42
g21
sg43
g21
sg44
I361
sg45
V,
p3649
sg47
I361
sg48
I1961
sbag0
(g23
g2
Ntp3650
Rp3651
(dp3652
g27
(dp3653
g29
Vthe
p3654
sg31
VO
p3655
sg33
VDT
p3656
sg35
I5
ssg10
I362
sg36
g4
sg37
(dp3657
sg39
(dp3658
sg41
I1962
sg42
g21
sg43
g21
sg44
I362
sg45
Vthe
p3659
sg47
I362
sg48
I1965
sbag0
(g23
g2
Ntp3660
Rp3661
(dp3662
g27
(dp3663
g29
Vdirector
p3664
sg31
VO
p3665
sg33
VNN
p3666
sg35
I6
ssg10
I363
sg36
g4
sg37
(dp3667
sg39
(dp3668
sg41
I1966
sg42
g21
sg43
g21
sg44
I363
sg45
Vdirector
p3669
sg47
I363
sg48
I1974
sbag0
(g23
g2
Ntp3670
Rp3671
(dp3672
g27
(dp3673
g29
Vof
p3674
sg31
VO
p3675
sg33
VIN
p3676
sg35
I7
ssg10
I364
sg36
g4
sg37
(dp3677
sg39
(dp3678
sg41
I1975
sg42
g21
sg43
g21
sg44
I364
sg45
Vof
p3679
sg47
I364
sg48
I1977
sbag0
(g23
g2
Ntp3680
Rp3681
(dp3682
g27
(dp3683
g29
Vthe
p3684
sg31
VO
p3685
sg33
VDT
p3686
sg35
I8
ssg10
I365
sg36
g4
sg37
(dp3687
sg39
(dp3688
sg41
I1978
sg42
g21
sg43
g21
sg44
I365
sg45
Vthe
p3689
sg47
I365
sg48
I1981
sbag0
(g23
g2
Ntp3690
Rp3691
(dp3692
g27
(dp3693
g29
VFederal
p3694
sg31
VORGANIZATION
p3695
sg33
VNNP
p3696
sg35
I9
ssg10
I366
sg36
g4
sg37
(dp3697
sg39
(dp3698
sg41
I1982
sg42
g21
sg43
g21
sg44
I366
sg45
VFederal
p3699
sg47
I366
sg48
I1989
sbag0
(g23
g2
Ntp3700
Rp3701
(dp3702
g27
(dp3703
g29
VOffice
p3704
sg31
VORGANIZATION
p3705
sg33
VNNP
p3706
sg35
I10
ssg10
I367
sg36
g4
sg37
(dp3707
sg39
(dp3708
sg41
I1990
sg42
g21
sg43
g21
sg44
I367
sg45
VOffice
p3709
sg47
I367
sg48
I1996
sbag0
(g23
g2
Ntp3710
Rp3711
(dp3712
g27
(dp3713
g29
Vfor
p3714
sg31
VORGANIZATION
p3715
sg33
VIN
p3716
sg35
I11
ssg10
I368
sg36
g4
sg37
(dp3717
sg39
(dp3718
sg41
I1997
sg42
g21
sg43
g21
sg44
I368
sg45
Vfor
p3719
sg47
I368
sg48
I2000
sbag0
(g23
g2
Ntp3720
Rp3721
(dp3722
g27
(dp3723
g29
VMigration
p3724
sg31
VORGANIZATION
p3725
sg33
VNNP
p3726
sg35
I12
ssg10
I369
sg36
g4
sg37
(dp3727
sg39
(dp3728
sg41
I2001
sg42
g21
sg43
g21
sg44
I369
sg45
VMigration
p3729
sg47
I369
sg48
I2010
sbag0
(g23
g2
Ntp3730
Rp3731
(dp3732
g27
(dp3733
g29
V-lrb-
p3734
sg31
VO
p3735
sg33
V-LRB-
p3736
sg35
I13
ssg10
I370
sg36
g4
sg37
(dp3737
sg39
(dp3738
sg41
I2011
sg42
g21
sg43
g21
sg44
I370
sg45
V(
p3739
sg47
I370
sg48
I2012
sbag0
(g23
g2
Ntp3740
Rp3741
(dp3742
g27
(dp3743
g29
VBFM
p3744
sg31
VO
p3745
sg33
VNNP
p3746
sg35
I14
ssg10
I371
sg36
g4
sg37
(dp3747
sg39
(dp3748
sg41
I2012
sg42
g21
sg43
g21
sg44
I371
sg45
VBFM
p3749
sg47
I371
sg48
I2015
sbag0
(g23
g2
Ntp3750
Rp3751
(dp3752
g27
(dp3753
g29
V-rrb-
p3754
sg31
VO
p3755
sg33
V-RRB-
p3756
sg35
I15
ssg10
I372
sg36
g4
sg37
(dp3757
sg39
(dp3758
sg41
I2015
sg42
g21
sg43
g21
sg44
I372
sg45
V)
p3759
sg47
I372
sg48
I2016
sbag0
(g23
g2
Ntp3760
Rp3761
(dp3762
g27
(dp3763
g29
V,
p3764
sg31
VO
p3765
sg33
V,
p3766
sg35
I16
ssg10
I373
sg36
g4
sg37
(dp3767
sg39
(dp3768
sg41
I2016
sg42
g21
sg43
g21
sg44
I373
sg45
V,
p3769
sg47
I373
sg48
I2017
sbag0
(g23
g2
Ntp3770
Rp3771
(dp3772
g27
(dp3773
g29
VAlard
p3774
sg31
VPERSON
p3775
sg33
VNNP
p3776
sg35
I17
ssg10
I374
sg36
g4
sg37
(dp3777
sg39
(dp3778
sg41
I2018
sg42
g21
sg43
g21
sg44
I374
sg45
VAlard
p3779
sg47
I374
sg48
I2023
sbag0
(g23
g2
Ntp3780
Rp3781
(dp3782
g27
(dp3783
g29
Vdu
p3784
sg31
VPERSON
p3785
sg33
VNNP
p3786
sg35
I18
ssg10
I375
sg36
g4
sg37
(dp3787
sg39
(dp3788
sg41
I2024
sg42
g21
sg43
g21
sg44
I375
sg45
Vdu
p3789
sg47
I375
sg48
I2026
sbag0
(g23
g2
Ntp3790
Rp3791
(dp3792
g27
(dp3793
g29
VBois-Reymond
p3794
sg31
VPERSON
p3795
sg33
VNNP
p3796
sg35
I19
ssg10
I376
sg36
g4
sg37
(dp3797
sg39
(dp3798
sg41
I2027
sg42
g21
sg43
g21
sg44
I376
sg45
VBois-Reymond
p3799
sg47
I376
sg48
I2039
sbag0
(g23
g2
Ntp3800
Rp3801
(dp3802
g27
(dp3803
g29
V,
p3804
sg31
VO
p3805
sg33
V,
p3806
sg35
I20
ssg10
I377
sg36
g4
sg37
(dp3807
sg39
(dp3808
sg41
I2039
sg42
g21
sg43
g21
sg44
I377
sg45
V,
p3809
sg47
I377
sg48
I2040
sbag0
(g23
g2
Ntp3810
Rp3811
(dp3812
g27
(dp3813
g29
Vissue
p3814
sg31
VO
p3815
sg33
VVBD
p3816
sg35
I21
ssg10
I378
sg36
g4
sg37
(dp3817
sg39
(dp3818
sg41
I2041
sg42
g21
sg43
g21
sg44
I378
sg45
Vissued
p3819
sg47
I378
sg48
I2047
sbag0
(g23
g2
Ntp3820
Rp3821
(dp3822
g27
(dp3823
g29
Va
p3824
sg31
VO
p3825
sg33
VDT
p3826
sg35
I22
ssg10
I379
sg36
g4
sg37
(dp3827
sg39
(dp3828
sg41
I2048
sg42
g21
sg43
g21
sg44
I379
sg45
Va
p3829
sg47
I379
sg48
I2049
sbag0
(g23
g2
Ntp3830
Rp3831
(dp3832
g27
(dp3833
g29
Vstatement
p3834
sg31
VO
p3835
sg33
VNN
p3836
sg35
I23
ssg10
I380
sg36
g4
sg37
(dp3837
sg39
(dp3838
sg41
I2050
sg42
g21
sg43
g21
sg44
I380
sg45
Vstatement
p3839
sg47
I380
sg48
I2059
sbag0
(g23
g2
Ntp3840
Rp3841
(dp3842
g27
(dp3843
g29
Von
p3844
sg31
VO
p3845
sg33
VIN
p3846
sg35
I24
ssg10
I381
sg36
g4
sg37
(dp3847
sg39
(dp3848
sg41
I2060
sg42
g21
sg43
g21
sg44
I381
sg45
Von
p3849
sg47
I381
sg48
I2062
sbag0
(g23
g2
Ntp3850
Rp3851
(dp3852
g27
(dp3853
g29
Vthe
p3854
sg31
VO
p3855
sg33
VDT
p3856
sg35
I25
ssg10
I382
sg36
g4
sg37
(dp3857
sg39
(dp3858
sg41
I2063
sg42
g21
sg43
g21
sg44
I382
sg45
Vthe
p3859
sg47
I382
sg48
I2066
sbag0
(g23
g2
Ntp3860
Rp3861
(dp3862
g27
(dp3863
g29
Vlarge
p3864
sg31
VO
p3865
sg33
VJJ
p3866
sg35
I26
ssg10
I383
sg36
g4
sg37
(dp3867
sg39
(dp3868
sg41
I2067
sg42
g21
sg43
g21
sg44
I383
sg45
Vlarge
p3869
sg47
I383
sg48
I2072
sbag0
(g23
g2
Ntp3870
Rp3871
(dp3872
g27
(dp3873
g29
Vnumber
p3874
sg31
VO
p3875
sg33
VNN
p3876
sg35
I27
ssg10
I384
sg36
g4
sg37
(dp3877
sg39
(dp3878
sg41
I2073
sg42
g21
sg43
g21
sg44
I384
sg45
Vnumber
p3879
sg47
I384
sg48
I2079
sbag0
(g23
g2
Ntp3880
Rp3881
(dp3882
g27
(dp3883
g29
Vof
p3884
sg31
VO
p3885
sg33
VIN
p3886
sg35
I28
ssg10
I385
sg36
g4
sg37
(dp3887
sg39
(dp3888
sg41
I2080
sg42
g21
sg43
g21
sg44
I385
sg45
Vof
p3889
sg47
I385
sg48
I2082
sbag0
(g23
g2
Ntp3890
Rp3891
(dp3892
g27
(dp3893
g29
Vunfounded
p3894
sg31
VO
p3895
sg33
VJJ
p3896
sg35
I29
ssg10
I386
sg36
g4
sg37
(dp3897
sg39
(dp3898
sg41
I2083
sg42
g21
sg43
g21
sg44
I386
sg45
Vunfounded
p3899
sg47
I386
sg48
I2092
sbag0
(g23
g2
Ntp3900
Rp3901
(dp3902
g27
(dp3903
g29
Vrequest
p3904
sg31
VO
p3905
sg33
VNNS
p3906
sg35
I30
ssg10
I387
sg36
g4
sg37
(dp3907
sg39
(dp3908
sg41
I2093
sg42
g21
sg43
g21
sg44
I387
sg45
Vrequests
p3909
sg47
I387
sg48
I2101
sbag0
(g23
g2
Ntp3910
Rp3911
(dp3912
g27
(dp3913
g29
Vfor
p3914
sg31
VO
p3915
sg33
VIN
p3916
sg35
I31
ssg10
I388
sg36
g4
sg37
(dp3917
sg39
(dp3918
sg41
I2102
sg42
g21
sg43
g21
sg44
I388
sg45
Vfor
p3919
sg47
I388
sg48
I2105
sbag0
(g23
g2
Ntp3920
Rp3921
(dp3922
g27
(dp3923
g29
Vasylum
p3924
sg31
VO
p3925
sg33
VNN
p3926
sg35
I32
ssg10
I389
sg36
g4
sg37
(dp3927
sg39
(dp3928
sg41
I2106
sg42
g21
sg43
g21
sg44
I389
sg45
Vasylum
p3929
sg47
I389
sg48
I2112
sbag0
(g23
g2
Ntp3930
Rp3931
(dp3932
g27
(dp3933
g29
Vby
p3934
sg31
VO
p3935
sg33
VIN
p3936
sg35
I33
ssg10
I390
sg36
g4
sg37
(dp3937
sg39
(dp3938
sg41
I2113
sg42
g21
sg43
g21
sg44
I390
sg45
Vby
p3939
sg47
I390
sg48
I2115
sbag0
(g23
g2
Ntp3940
Rp3941
(dp3942
g27
(dp3943
g29
Vnational
p3944
sg31
VO
p3945
sg33
VNNS
p3946
sg35
I34
ssg10
I391
sg36
g4
sg37
(dp3947
sg39
(dp3948
sg41
I2116
sg42
g21
sg43
g21
sg44
I391
sg45
Vnationals
p3949
sg47
I391
sg48
I2125
sbag0
(g23
g2
Ntp3950
Rp3951
(dp3952
g27
(dp3953
g29
Vof
p3954
sg31
VO
p3955
sg33
VIN
p3956
sg35
I35
ssg10
I392
sg36
g4
sg37
(dp3957
sg39
(dp3958
sg41
I2126
sg42
g21
sg43
g21
sg44
I392
sg45
Vof
p3959
sg47
I392
sg48
I2128
sbag0
(g23
g2
Ntp3960
Rp3961
(dp3962
g27
(dp3963
g29
VNigeria
p3964
sg31
VLOCATION
p3965
sg33
VNNP
p3966
sg35
I36
ssg10
I393
sg36
g4
sg37
(dp3967
sg39
(dp3968
sg41
I2129
sg42
g21
sg43
g21
sg44
I393
sg45
VNigeria
p3969
sg47
I393
sg48
I2136
sbag0
(g23
g2
Ntp3970
Rp3971
(dp3972
g27
(dp3973
g29
Vin
p3974
sg31
VO
p3975
sg33
VIN
p3976
sg35
I37
ssg10
I394
sg36
g4
sg37
(dp3977
sg39
(dp3978
sg41
I2137
sg42
g21
sg43
g21
sg44
I394
sg45
Vin
p3979
sg47
I394
sg48
I2139
sbag0
(g23
g2
Ntp3980
Rp3981
(dp3982
g27
(dp3983
g29
Vparticular
p3984
sg31
VO
p3985
sg33
VJJ
p3986
sg35
I38
ssg10
I395
sg36
g4
sg37
(dp3987
sg39
(dp3988
sg41
I2140
sg42
g21
sg43
g21
sg44
I395
sg45
Vparticular
p3989
sg47
I395
sg48
I2150
sbag0
(g23
g2
Ntp3990
Rp3991
(dp3992
g27
(dp3993
g29
V.
p3994
sg31
VO
p3995
sg33
V.
p3996
sg35
I39
ssg10
I396
sg36
g4
sg37
(dp3997
sg39
(dp3998
sg41
I2150
sg42
g21
sg43
g21
sg44
I396
sg45
V.
p3999
sg47
I396
sg48
I2151
sbag0
(g23
g2
Ntp4000
Rp4001
(dp4002
g27
(dp4003
g29
VDu
p4004
sg31
VPERSON
p4005
sg33
VNNP
p4006
sg35
I1
ssg10
I397
sg36
g4
sg37
(dp4007
sg39
(dp4008
sg41
I2153
sg42
g21
sg43
g21
sg44
I397
sg45
VDu
p4009
sg47
I397
sg48
I2155
sbag0
(g23
g2
Ntp4010
Rp4011
(dp4012
g27
(dp4013
g29
VBois-Reymond
p4014
sg31
VPERSON
p4015
sg33
VNNP
p4016
sg35
I2
ssg10
I398
sg36
g4
sg37
(dp4017
sg39
(dp4018
sg41
I2156
sg42
g21
sg43
g21
sg44
I398
sg45
VBois-Reymond
p4019
sg47
I398
sg48
I2168
sbag0
(g23
g2
Ntp4020
Rp4021
(dp4022
g27
(dp4023
g29
Vsay
p4024
sg31
VO
p4025
sg33
VVBD
p4026
sg35
I3
ssg10
I399
sg36
g4
sg37
(dp4027
sg39
(dp4028
sg41
I2169
sg42
g21
sg43
g21
sg44
I399
sg45
Vsaid
p4029
sg47
I399
sg48
I2173
sbag0
(g23
g2
Ntp4030
Rp4031
(dp4032
g27
(dp4033
g29
Vthat
p4034
sg31
VO
p4035
sg33
VIN
p4036
sg35
I4
ssg10
I400
sg36
g4
sg37
(dp4037
sg39
(dp4038
sg41
I2174
sg42
g21
sg43
g21
sg44
I400
sg45
Vthat
p4039
sg47
I400
sg48
I2178
sbag0
(g23
g2
Ntp4040
Rp4041
(dp4042
g27
(dp4043
g29
V99.5
p4044
sg31
VPERCENT
p4045
sg33
VCD
p4046
sg35
I5
ssg10
I401
sg36
g4
sg37
(dp4047
sg39
(dp4048
sg41
I2179
sg42
g21
sg43
g21
sg44
I401
sg45
V99.5
p4049
sg47
I401
sg48
I2183
sbag0
(g23
g2
Ntp4050
Rp4051
(dp4052
g27
(dp4053
g29
V%
p4054
sg31
VPERCENT
p4055
sg33
VNN
p4056
sg35
I6
ssg10
I402
sg36
g4
sg37
(dp4057
sg39
(dp4058
sg41
I2183
sg42
g21
sg43
g21
sg44
I402
sg45
V%
p4059
sg47
I402
sg48
I2184
sbag0
(g23
g2
Ntp4060
Rp4061
(dp4062
g27
(dp4063
g29
Vof
p4064
sg31
VO
p4065
sg33
VIN
p4066
sg35
I7
ssg10
I403
sg36
g4
sg37
(dp4067
sg39
(dp4068
sg41
I2185
sg42
g21
sg43
g21
sg44
I403
sg45
Vof
p4069
sg47
I403
sg48
I2187
sbag0
(g23
g2
Ntp4070
Rp4071
(dp4072
g27
(dp4073
g29
Vasylum
p4074
sg31
VO
p4075
sg33
VNN
p4076
sg35
I8
ssg10
I404
sg36
g4
sg37
(dp4077
sg39
(dp4078
sg41
I2188
sg42
g21
sg43
g21
sg44
I404
sg45
Vasylum
p4079
sg47
I404
sg48
I2194
sbag0
(g23
g2
Ntp4080
Rp4081
(dp4082
g27
(dp4083
g29
Vseeker
p4084
sg31
VO
p4085
sg33
VNNS
p4086
sg35
I9
ssg10
I405
sg36
g4
sg37
(dp4087
sg39
(dp4088
sg41
I2195
sg42
g21
sg43
g21
sg44
I405
sg45
Vseekers
p4089
sg47
I405
sg48
I2202
sbag0
(g23
g2
Ntp4090
Rp4091
(dp4092
g27
(dp4093
g29
Vof
p4094
sg31
VO
p4095
sg33
VIN
p4096
sg35
I10
ssg10
I406
sg36
g4
sg37
(dp4097
sg39
(dp4098
sg41
I2203
sg42
g21
sg43
g21
sg44
I406
sg45
Vof
p4099
sg47
I406
sg48
I2205
sbag0
(g23
g2
Ntp4100
Rp4101
(dp4102
g27
(dp4103
g29
Vnigerian
p4104
sg31
VMISC
p4105
sg33
VJJ
p4106
sg35
I11
ssg10
I407
sg36
g4
sg37
(dp4107
sg39
(dp4108
sg41
I2206
sg42
g21
sg43
g21
sg44
I407
sg45
VNigerian
p4109
sg47
I407
sg48
I2214
sbag0
(g23
g2
Ntp4110
Rp4111
(dp4112
g27
(dp4113
g29
Vorigin
p4114
sg31
VO
p4115
sg33
VNN
p4116
sg35
I12
ssg10
I408
sg36
g4
sg37
(dp4117
sg39
(dp4118
sg41
I2215
sg42
g21
sg43
g21
sg44
I408
sg45
Vorigin
p4119
sg47
I408
sg48
I2221
sbag0
(g23
g2
Ntp4120
Rp4121
(dp4122
g27
(dp4123
g29
Vbe
p4124
sg31
VO
p4125
sg33
VVBD
p4126
sg35
I13
ssg10
I409
sg36
g4
sg37
(dp4127
sg39
(dp4128
sg41
I2222
sg42
g21
sg43
g21
sg44
I409
sg45
Vwere
p4129
sg47
I409
sg48
I2226
sbag0
(g23
g2
Ntp4130
Rp4131
(dp4132
g27
(dp4133
g29
Vabuse
p4134
sg31
VO
p4135
sg33
VVBG
p4136
sg35
I14
ssg10
I410
sg36
g4
sg37
(dp4137
sg39
(dp4138
sg41
I2227
sg42
g21
sg43
g21
sg44
I410
sg45
Vabusing
p4139
sg47
I410
sg48
I2234
sbag0
(g23
g2
Ntp4140
Rp4141
(dp4142
g27
(dp4143
g29
Vthe
p4144
sg31
VO
p4145
sg33
VDT
p4146
sg35
I15
ssg10
I411
sg36
g4
sg37
(dp4147
sg39
(dp4148
sg41
I2235
sg42
g21
sg43
g21
sg44
I411
sg45
Vthe
p4149
sg47
I411
sg48
I2238
sbag0
(g23
g2
Ntp4150
Rp4151
(dp4152
g27
(dp4153
g29
Vasylum
p4154
sg31
VO
p4155
sg33
VNN
p4156
sg35
I16
ssg10
I412
sg36
g4
sg37
(dp4157
sg39
(dp4158
sg41
I2239
sg42
g21
sg43
g21
sg44
I412
sg45
Vasylum
p4159
sg47
I412
sg48
I2245
sbag0
(g23
g2
Ntp4160
Rp4161
(dp4162
g27
(dp4163
g29
Vsystem
p4164
sg31
VO
p4165
sg33
VNN
p4166
sg35
I17
ssg10
I413
sg36
g4
sg37
(dp4167
sg39
(dp4168
sg41
I2246
sg42
g21
sg43
g21
sg44
I413
sg45
Vsystem
p4169
sg47
I413
sg48
I2252
sbag0
(g23
g2
Ntp4170
Rp4171
(dp4172
g27
(dp4173
g29
V,
p4174
sg31
VO
p4175
sg33
V,
p4176
sg35
I18
ssg10
I414
sg36
g4
sg37
(dp4177
sg39
(dp4178
sg41
I2252
sg42
g21
sg43
g21
sg44
I414
sg45
V,
p4179
sg47
I414
sg48
I2253
sbag0
(g23
g2
Ntp4180
Rp4181
(dp4182
g27
(dp4183
g29
Venter
p4184
sg31
VO
p4185
sg33
VVBG
p4186
sg35
I19
ssg10
I415
sg36
g4
sg37
(dp4187
sg39
(dp4188
sg41
I2254
sg42
g21
sg43
g21
sg44
I415
sg45
Ventering
p4189
sg47
I415
sg48
I2262
sbag0
(g23
g2
Ntp4190
Rp4191
(dp4192
g27
(dp4193
g29
VSwitzerland
p4194
sg31
VLOCATION
p4195
sg33
VNNP
p4196
sg35
I20
ssg10
I416
sg36
g4
sg37
(dp4197
sg39
(dp4198
sg41
I2263
sg42
g21
sg43
g21
sg44
I416
sg45
VSwitzerland
p4199
sg47
I416
sg48
I2274
sbag0
(g23
g2
Ntp4200
Rp4201
(dp4202
g27
(dp4203
g29
Vwith
p4204
sg31
VO
p4205
sg33
VIN
p4206
sg35
I21
ssg10
I417
sg36
g4
sg37
(dp4207
sg39
(dp4208
sg41
I2275
sg42
g21
sg43
g21
sg44
I417
sg45
Vwith
p4209
sg47
I417
sg48
I2279
sbag0
(g23
g2
Ntp4210
Rp4211
(dp4212
g27
(dp4213
g29
Vthe
p4214
sg31
VO
p4215
sg33
VDT
p4216
sg35
I22
ssg10
I418
sg36
g4
sg37
(dp4217
sg39
(dp4218
sg41
I2280
sg42
g21
sg43
g21
sg44
I418
sg45
Vthe
p4219
sg47
I418
sg48
I2283
sbag0
(g23
g2
Ntp4220
Rp4221
(dp4222
g27
(dp4223
g29
Vintention
p4224
sg31
VO
p4225
sg33
VNN
p4226
sg35
I23
ssg10
I419
sg36
g4
sg37
(dp4227
sg39
(dp4228
sg41
I2284
sg42
g21
sg43
g21
sg44
I419
sg45
Vintention
p4229
sg47
I419
sg48
I2293
sbag0
(g23
g2
Ntp4230
Rp4231
(dp4232
g27
(dp4233
g29
Vof
p4234
sg31
VO
p4235
sg33
VIN
p4236
sg35
I24
ssg10
I420
sg36
g4
sg37
(dp4237
sg39
(dp4238
sg41
I2294
sg42
g21
sg43
g21
sg44
I420
sg45
Vof
p4239
sg47
I420
sg48
I2296
sbag0
(g23
g2
Ntp4240
Rp4241
(dp4242
g27
(dp4243
g29
Vpursue
p4244
sg31
VO
p4245
sg33
VVBG
p4246
sg35
I25
ssg10
I421
sg36
g4
sg37
(dp4247
sg39
(dp4248
sg41
I2297
sg42
g21
sg43
g21
sg44
I421
sg45
Vpursuing
p4249
sg47
I421
sg48
I2305
sbag0
(g23
g2
Ntp4250
Rp4251
(dp4252
g27
(dp4253
g29
Vpetty
p4254
sg31
VO
p4255
sg33
VJJ
p4256
sg35
I26
ssg10
I422
sg36
g4
sg37
(dp4257
sg39
(dp4258
sg41
I2306
sg42
g21
sg43
g21
sg44
I422
sg45
Vpetty
p4259
sg47
I422
sg48
I2311
sbag0
(g23
g2
Ntp4260
Rp4261
(dp4262
g27
(dp4263
g29
Vcrime
p4264
sg31
VO
p4265
sg33
VNN
p4266
sg35
I27
ssg10
I423
sg36
g4
sg37
(dp4267
sg39
(dp4268
sg41
I2312
sg42
g21
sg43
g21
sg44
I423
sg45
Vcrime
p4269
sg47
I423
sg48
I2317
sbag0
(g23
g2
Ntp4270
Rp4271
(dp4272
g27
(dp4273
g29
Vand
p4274
sg31
VO
p4275
sg33
VCC
p4276
sg35
I28
ssg10
I424
sg36
g4
sg37
(dp4277
sg39
(dp4278
sg41
I2318
sg42
g21
sg43
g21
sg44
I424
sg45
Vand
p4279
sg47
I424
sg48
I2321
sbag0
(g23
g2
Ntp4280
Rp4281
(dp4282
g27
(dp4283
g29
Vdrug
p4284
sg31
VO
p4285
sg33
VNN
p4286
sg35
I29
ssg10
I425
sg36
g4
sg37
(dp4287
sg39
(dp4288
sg41
I2322
sg42
g21
sg43
g21
sg44
I425
sg45
Vdrug
p4289
sg47
I425
sg48
I2326
sbag0
(g23
g2
Ntp4290
Rp4291
(dp4292
g27
(dp4293
g29
Vdealing
p4294
sg31
VO
p4295
sg33
VNN
p4296
sg35
I30
ssg10
I426
sg36
g4
sg37
(dp4297
sg39
(dp4298
sg41
I2327
sg42
g21
sg43
g21
sg44
I426
sg45
Vdealing
p4299
sg47
I426
sg48
I2334
sbag0
(g23
g2
Ntp4300
Rp4301
(dp4302
g27
(dp4303
g29
V-lsb-
p4304
sg31
VO
p4305
sg33
V-LRB-
p4306
sg35
I31
ssg10
I427
sg36
g4
sg37
(dp4307
sg39
(dp4308
sg41
I2335
sg42
g21
sg43
g21
sg44
I427
sg45
V[
p4309
sg47
I427
sg48
I2336
sbag0
(g23
g2
Ntp4310
Rp4311
(dp4312
g27
(dp4313
g29
Vref
p4314
sg31
VO
p4315
sg33
VNN
p4316
sg35
I32
ssg10
I428
sg36
g4
sg37
(dp4317
sg39
(dp4318
sg41
I2336
sg42
g21
sg43
g21
sg44
I428
sg45
VREF
p4319
sg47
I428
sg48
I2339
sbag0
(g23
g2
Ntp4320
Rp4321
(dp4322
g27
(dp4323
g29
V-rsb-
p4324
sg31
VO
p4325
sg33
V-RRB-
p4326
sg35
I33
ssg10
I429
sg36
g4
sg37
(dp4327
sg39
(dp4328
sg41
I2339
sg42
g21
sg43
g21
sg44
I429
sg45
V]
p4329
sg47
I429
sg48
I2340
sbag0
(g23
g2
Ntp4330
Rp4331
(dp4332
g27
(dp4333
g29
V.
p4334
sg31
VO
p4335
sg33
V.
p4336
sg35
I34
ssg10
I430
sg36
g4
sg37
(dp4337
sg39
(dp4338
sg41
I2340
sg42
g21
sg43
g21
sg44
I430
sg45
V.
p4339
sg47
I430
sg48
I2341
sbag0
(g23
g2
Ntp4340
Rp4341
(dp4342
g27
(dp4343
g29
Vthe
p4344
sg31
VO
p4345
sg33
VDT
p4346
sg35
I1
ssg10
I431
sg36
g4
sg37
(dp4347
sg39
(dp4348
sg41
I2342
sg42
g21
sg43
g21
sg44
I431
sg45
VThe
p4349
sg47
I431
sg48
I2345
sbag0
(g23
g2
Ntp4350
Rp4351
(dp4352
g27
(dp4353
g29
Vnigerian
p4354
sg31
VMISC
p4355
sg33
VJJ
p4356
sg35
I2
ssg10
I432
sg36
g4
sg37
(dp4357
sg39
(dp4358
sg41
I2346
sg42
g21
sg43
g21
sg44
I432
sg45
VNigerian
p4359
sg47
I432
sg48
I2354
sbag0
(g23
g2
Ntp4360
Rp4361
(dp4362
g27
(dp4363
g29
Vambassador
p4364
sg31
VO
p4365
sg33
VNN
p4366
sg35
I3
ssg10
I433
sg36
g4
sg37
(dp4367
sg39
(dp4368
sg41
I2355
sg42
g21
sg43
g21
sg44
I433
sg45
Vambassador
p4369
sg47
I433
sg48
I2365
sbag0
(g23
g2
Ntp4370
Rp4371
(dp4372
g27
(dp4373
g29
Vto
p4374
sg31
VO
p4375
sg33
VTO
p4376
sg35
I4
ssg10
I434
sg36
g4
sg37
(dp4377
sg39
(dp4378
sg41
I2366
sg42
g21
sg43
g21
sg44
I434
sg45
Vto
p4379
sg47
I434
sg48
I2368
sbag0
(g23
g2
Ntp4380
Rp4381
(dp4382
g27
(dp4383
g29
VSwitzerland
p4384
sg31
VLOCATION
p4385
sg33
VNNP
p4386
sg35
I5
ssg10
I435
sg36
g4
sg37
(dp4387
sg39
(dp4388
sg41
I2369
sg42
g21
sg43
g21
sg44
I435
sg45
VSwitzerland
p4389
sg47
I435
sg48
I2380
sbag0
(g23
g2
Ntp4390
Rp4391
(dp4392
g27
(dp4393
g29
V,
p4394
sg31
VO
p4395
sg33
V,
p4396
sg35
I6
ssg10
I436
sg36
g4
sg37
(dp4397
sg39
(dp4398
sg41
I2380
sg42
g21
sg43
g21
sg44
I436
sg45
V,
p4399
sg47
I436
sg48
I2381
sbag0
(g23
g2
Ntp4400
Rp4401
(dp4402
g27
(dp4403
g29
VMartin
p4404
sg31
VPERSON
p4405
sg33
VNNP
p4406
sg35
I7
ssg10
I437
sg36
g4
sg37
(dp4407
sg39
(dp4408
sg41
I2382
sg42
g21
sg43
g21
sg44
I437
sg45
VMartin
p4409
sg47
I437
sg48
I2388
sbag0
(g23
g2
Ntp4410
Rp4411
(dp4412
g27
(dp4413
g29
VIhoeghian
p4414
sg31
VPERSON
p4415
sg33
VNNP
p4416
sg35
I8
ssg10
I438
sg36
g4
sg37
(dp4417
sg39
(dp4418
sg41
I2389
sg42
g21
sg43
g21
sg44
I438
sg45
VIhoeghian
p4419
sg47
I438
sg48
I2398
sbag0
(g23
g2
Ntp4420
Rp4421
(dp4422
g27
(dp4423
g29
VUhomoibhi
p4424
sg31
VPERSON
p4425
sg33
VNNP
p4426
sg35
I9
ssg10
I439
sg36
g4
sg37
(dp4427
sg39
(dp4428
sg41
I2399
sg42
g21
sg43
g21
sg44
I439
sg45
VUhomoibhi
p4429
sg47
I439
sg48
I2408
sbag0
(g23
g2
Ntp4430
Rp4431
(dp4432
g27
(dp4433
g29
V,
p4434
sg31
VO
p4435
sg33
V,
p4436
sg35
I10
ssg10
I440
sg36
g4
sg37
(dp4437
sg39
(dp4438
sg41
I2408
sg42
g21
sg43
g21
sg44
I440
sg45
V,
p4439
sg47
I440
sg48
I2409
sbag0
(g23
g2
Ntp4440
Rp4441
(dp4442
g27
(dp4443
g29
Vobject
p4444
sg31
VO
p4445
sg33
VVBD
p4446
sg35
I11
ssg10
I441
sg36
g4
sg37
(dp4447
sg39
(dp4448
sg41
I2410
sg42
g21
sg43
g21
sg44
I441
sg45
Vobjected
p4449
sg47
I441
sg48
I2418
sbag0
(g23
g2
Ntp4450
Rp4451
(dp4452
g27
(dp4453
g29
Vto
p4454
sg31
VO
p4455
sg33
VTO
p4456
sg35
I12
ssg10
I442
sg36
g4
sg37
(dp4457
sg39
(dp4458
sg41
I2419
sg42
g21
sg43
g21
sg44
I442
sg45
Vto
p4459
sg47
I442
sg48
I2421
sbag0
(g23
g2
Ntp4460
Rp4461
(dp4462
g27
(dp4463
g29
Vdu
p4464
sg31
VPERSON
p4465
sg33
VNNP
p4466
sg35
I13
ssg10
I443
sg36
g4
sg37
(dp4467
sg39
(dp4468
sg41
I2422
sg42
g21
sg43
g21
sg44
I443
sg45
Vdu
p4469
sg47
I443
sg48
I2424
sbag0
(g23
g2
Ntp4470
Rp4471
(dp4472
g27
(dp4473
g29
VBoi-Reymond
p4474
sg31
VPERSON
p4475
sg33
VNNP
p4476
sg35
I14
ssg10
I444
sg36
g4
sg37
(dp4477
sg39
(dp4478
sg41
I2425
sg42
g21
sg43
g21
sg44
I444
sg45
VBoi-Reymond
p4479
sg47
I444
sg48
I2436
sbag0
(g23
g2
Ntp4480
Rp4481
(dp4482
g27
(dp4483
g29
V's
p4484
sg31
VO
p4485
sg33
VPOS
p4486
sg35
I15
ssg10
I445
sg36
g4
sg37
(dp4487
sg39
(dp4488
sg41
I2436
sg42
g21
sg43
g21
sg44
I445
sg45
V's
p4489
sg47
I445
sg48
I2438
sbag0
(g23
g2
Ntp4490
Rp4491
(dp4492
g27
(dp4493
g29
Vstatement
p4494
sg31
VO
p4495
sg33
VNN
p4496
sg35
I16
ssg10
I446
sg36
g4
sg37
(dp4497
sg39
(dp4498
sg41
I2439
sg42
g21
sg43
g21
sg44
I446
sg45
Vstatement
p4499
sg47
I446
sg48
I2448
sbag0
(g23
g2
Ntp4500
Rp4501
(dp4502
g27
(dp4503
g29
Vas
p4504
sg31
VO
p4505
sg33
VIN
p4506
sg35
I17
ssg10
I447
sg36
g4
sg37
(dp4507
sg39
(dp4508
sg41
I2449
sg42
g21
sg43
g21
sg44
I447
sg45
Vas
p4509
sg47
I447
sg48
I2451
sbag0
(g23
g2
Ntp4510
Rp4511
(dp4512
g27
(dp4513
g29
Va
p4514
sg31
VO
p4515
sg33
VDT
p4516
sg35
I18
ssg10
I448
sg36
g4
sg37
(dp4517
sg39
(dp4518
sg41
I2452
sg42
g21
sg43
g21
sg44
I448
sg45
Van
p4519
sg47
I448
sg48
I2454
sbag0
(g23
g2
Ntp4520
Rp4521
(dp4522
g27
(dp4523
g29
Vundue
p4524
sg31
VO
p4525
sg33
VJJ
p4526
sg35
I19
ssg10
I449
sg36
g4
sg37
(dp4527
sg39
(dp4528
sg41
I2455
sg42
g21
sg43
g21
sg44
I449
sg45
Vundue
p4529
sg47
I449
sg48
I2460
sbag0
(g23
g2
Ntp4530
Rp4531
(dp4532
g27
(dp4533
g29
Vgeneralization
p4534
sg31
VO
p4535
sg33
VNN
p4536
sg35
I20
ssg10
I450
sg36
g4
sg37
(dp4537
sg39
(dp4538
sg41
I2461
sg42
g21
sg43
g21
sg44
I450
sg45
Vgeneralization
p4539
sg47
I450
sg48
I2475
sbag0
(g23
g2
Ntp4540
Rp4541
(dp4542
g27
(dp4543
g29
V-lsb-
p4544
sg31
VO
p4545
sg33
V-LRB-
p4546
sg35
I21
ssg10
I451
sg36
g4
sg37
(dp4547
sg39
(dp4548
sg41
I2476
sg42
g21
sg43
g21
sg44
I451
sg45
V[
p4549
sg47
I451
sg48
I2477
sbag0
(g23
g2
Ntp4550
Rp4551
(dp4552
g27
(dp4553
g29
Vref
p4554
sg31
VO
p4555
sg33
VNN
p4556
sg35
I22
ssg10
I452
sg36
g4
sg37
(dp4557
sg39
(dp4558
sg41
I2477
sg42
g21
sg43
g21
sg44
I452
sg45
VREF
p4559
sg47
I452
sg48
I2480
sbag0
(g23
g2
Ntp4560
Rp4561
(dp4562
g27
(dp4563
g29
V-rsb-
p4564
sg31
VO
p4565
sg33
V-RRB-
p4566
sg35
I23
ssg10
I453
sg36
g4
sg37
(dp4567
sg39
(dp4568
sg41
I2480
sg42
g21
sg43
g21
sg44
I453
sg45
V]
p4569
sg47
I453
sg48
I2481
sbag0
(g23
g2
Ntp4570
Rp4571
(dp4572
g27
(dp4573
g29
V.
p4574
sg31
VO
p4575
sg33
V.
p4576
sg35
I24
ssg10
I454
sg36
g4
sg37
(dp4577
sg39
(dp4578
sg41
I2481
sg42
g21
sg43
g21
sg44
I454
sg45
V.
p4579
sg47
I454
sg48
I2482
sbag0
(g23
g2
Ntp4580
Rp4581
(dp4582
g27
(dp4583
g29
Vit
p4584
sg31
VO
p4585
sg33
VPRP
p4586
sg35
I1
ssg10
I455
sg36
g4
sg37
(dp4587
sg39
(dp4588
sg41
I2484
sg42
g21
sg43
g21
sg44
I455
sg45
VIt
p4589
sg47
I455
sg48
I2486
sbag0
(g23
g2
Ntp4590
Rp4591
(dp4592
g27
(dp4593
g29
Vbe
p4594
sg31
VO
p4595
sg33
VVBD
p4596
sg35
I2
ssg10
I456
sg36
g4
sg37
(dp4597
sg39
(dp4598
sg41
I2487
sg42
g21
sg43
g21
sg44
I456
sg45
Vwas
p4599
sg47
I456
sg48
I2490
sbag0
(g23
g2
Ntp4600
Rp4601
(dp4602
g27
(dp4603
g29
Vreport
p4604
sg31
VO
p4605
sg33
VVBN
p4606
sg35
I3
ssg10
I457
sg36
g4
sg37
(dp4607
sg39
(dp4608
sg41
I2491
sg42
g21
sg43
g21
sg44
I457
sg45
Vreported
p4609
sg47
I457
sg48
I2499
sbag0
(g23
g2
Ntp4610
Rp4611
(dp4612
g27
(dp4613
g29
Vin
p4614
sg31
VO
p4615
sg33
VIN
p4616
sg35
I4
ssg10
I458
sg36
g4
sg37
(dp4617
sg39
(dp4618
sg41
I2500
sg42
g21
sg43
g21
sg44
I458
sg45
Vin
p4619
sg47
I458
sg48
I2502
sbag0
(g23
g2
Ntp4620
Rp4621
(dp4622
g27
(dp4623
g29
V2007
p4624
sg31
VDATE
p4625
sg33
VCD
p4626
sg35
I5
ssg10
I459
sg36
g4
sg37
(dp4627
sg39
(dp4628
sg41
I2503
sg42
g21
sg43
g21
sg44
I459
sg45
V2007
p4629
sg47
I459
sg48
I2507
sbag0
(g23
g2
Ntp4630
Rp4631
(dp4632
g27
(dp4633
g29
Vthat
p4634
sg31
VO
p4635
sg33
VWDT
p4636
sg35
I6
ssg10
I460
sg36
g4
sg37
(dp4637
sg39
(dp4638
sg41
I2508
sg42
g21
sg43
g21
sg44
I460
sg45
Vthat
p4639
sg47
I460
sg48
I2512
sbag0
(g23
g2
Ntp4640
Rp4641
(dp4642
g27
(dp4643
g29
Vmore
p4644
sg31
VO
p4645
sg33
VJJR
p4646
sg35
I7
ssg10
I461
sg36
g4
sg37
(dp4647
sg39
(dp4648
sg41
I2513
sg42
g21
sg43
g21
sg44
I461
sg45
Vmore
p4649
sg47
I461
sg48
I2517
sbag0
(g23
g2
Ntp4650
Rp4651
(dp4652
g27
(dp4653
g29
Vthan
p4654
sg31
VO
p4655
sg33
VIN
p4656
sg35
I8
ssg10
I462
sg36
g4
sg37
(dp4657
sg39
(dp4658
sg41
I2518
sg42
g21
sg43
g21
sg44
I462
sg45
Vthan
p4659
sg47
I462
sg48
I2522
sbag0
(g23
g2
Ntp4660
Rp4661
(dp4662
g27
(dp4663
g29
Vone-fifth
p4664
sg31
VORDINAL
p4665
sg33
VNN
p4666
sg35
I9
ssg10
I463
sg36
g4
sg37
(dp4667
sg39
(dp4668
sg41
I2523
sg42
g21
sg43
g21
sg44
I463
sg45
Vone-fifth
p4669
sg47
I463
sg48
I2532
sbag0
(g23
g2
Ntp4670
Rp4671
(dp4672
g27
(dp4673
g29
Vof
p4674
sg31
VO
p4675
sg33
VIN
p4676
sg35
I10
ssg10
I464
sg36
g4
sg37
(dp4677
sg39
(dp4678
sg41
I2533
sg42
g21
sg43
g21
sg44
I464
sg45
Vof
p4679
sg47
I464
sg48
I2535
sbag0
(g23
g2
Ntp4680
Rp4681
(dp4682
g27
(dp4683
g29
Vcrime
p4684
sg31
VO
p4685
sg33
VNN
p4686
sg35
I11
ssg10
I465
sg36
g4
sg37
(dp4687
sg39
(dp4688
sg41
I2536
sg42
g21
sg43
g21
sg44
I465
sg45
Vcrime
p4689
sg47
I465
sg48
I2541
sbag0
(g23
g2
Ntp4690
Rp4691
(dp4692
g27
(dp4693
g29
Vin
p4694
sg31
VO
p4695
sg33
VIN
p4696
sg35
I12
ssg10
I466
sg36
g4
sg37
(dp4697
sg39
(dp4698
sg41
I2542
sg42
g21
sg43
g21
sg44
I466
sg45
Vin
p4699
sg47
I466
sg48
I2544
sbag0
(g23
g2
Ntp4700
Rp4701
(dp4702
g27
(dp4703
g29
VLondon
p4704
sg31
VLOCATION
p4705
sg33
VNNP
p4706
sg35
I13
ssg10
I467
sg36
g4
sg37
(dp4707
sg39
(dp4708
sg41
I2545
sg42
g21
sg43
g21
sg44
I467
sg45
VLondon
p4709
sg47
I467
sg48
I2551
sbag0
(g23
g2
Ntp4710
Rp4711
(dp4712
g27
(dp4713
g29
Vbe
p4714
sg31
VO
p4715
sg33
VVBD
p4716
sg35
I14
ssg10
I468
sg36
g4
sg37
(dp4717
sg39
(dp4718
sg41
I2552
sg42
g21
sg43
g21
sg44
I468
sg45
Vwas
p4719
sg47
I468
sg48
I2555
sbag0
(g23
g2
Ntp4720
Rp4721
(dp4722
g27
(dp4723
g29
Vcommit
p4724
sg31
VO
p4725
sg33
VVBN
p4726
sg35
I15
ssg10
I469
sg36
g4
sg37
(dp4727
sg39
(dp4728
sg41
I2556
sg42
g21
sg43
g21
sg44
I469
sg45
Vcommitted
p4729
sg47
I469
sg48
I2565
sbag0
(g23
g2
Ntp4730
Rp4731
(dp4732
g27
(dp4733
g29
Vby
p4734
sg31
VO
p4735
sg33
VIN
p4736
sg35
I16
ssg10
I470
sg36
g4
sg37
(dp4737
sg39
(dp4738
sg41
I2566
sg42
g21
sg43
g21
sg44
I470
sg45
Vby
p4739
sg47
I470
sg48
I2568
sbag0
(g23
g2
Ntp4740
Rp4741
(dp4742
g27
(dp4743
g29
Vimmigrant
p4744
sg31
VO
p4745
sg33
VNNS
p4746
sg35
I17
ssg10
I471
sg36
g4
sg37
(dp4747
sg39
(dp4748
sg41
I2569
sg42
g21
sg43
g21
sg44
I471
sg45
Vimmigrants
p4749
sg47
I471
sg48
I2579
sbag0
(g23
g2
Ntp4750
Rp4751
(dp4752
g27
(dp4753
g29
V-lsb-
p4754
sg31
VO
p4755
sg33
V-LRB-
p4756
sg35
I18
ssg10
I472
sg36
g4
sg37
(dp4757
sg39
(dp4758
sg41
I2580
sg42
g21
sg43
g21
sg44
I472
sg45
V[
p4759
sg47
I472
sg48
I2581
sbag0
(g23
g2
Ntp4760
Rp4761
(dp4762
g27
(dp4763
g29
Vref
p4764
sg31
VO
p4765
sg33
VNN
p4766
sg35
I19
ssg10
I473
sg36
g4
sg37
(dp4767
sg39
(dp4768
sg41
I2581
sg42
g21
sg43
g21
sg44
I473
sg45
VREF
p4769
sg47
I473
sg48
I2584
sbag0
(g23
g2
Ntp4770
Rp4771
(dp4772
g27
(dp4773
g29
V-rsb-
p4774
sg31
VO
p4775
sg33
V-RRB-
p4776
sg35
I20
ssg10
I474
sg36
g4
sg37
(dp4777
sg39
(dp4778
sg41
I2584
sg42
g21
sg43
g21
sg44
I474
sg45
V]
p4779
sg47
I474
sg48
I2585
sbag0
(g23
g2
Ntp4780
Rp4781
(dp4782
g27
(dp4783
g29
V.
p4784
sg31
VO
p4785
sg33
V.
p4786
sg35
I21
ssg10
I475
sg36
g4
sg37
(dp4787
sg39
(dp4788
sg41
I2585
sg42
g21
sg43
g21
sg44
I475
sg45
V.
p4789
sg47
I475
sg48
I2586
sbag0
(g23
g2
Ntp4790
Rp4791
(dp4792
g27
(dp4793
g29
Va
p4794
sg31
VO
p4795
sg33
VDT
p4796
sg35
I1
ssg10
I476
sg36
g4
sg37
(dp4797
sg39
(dp4798
sg41
I2587
sg42
g21
sg43
g21
sg44
I476
sg45
VA
p4799
sg47
I476
sg48
I2588
sbag0
(g23
g2
Ntp4800
Rp4801
(dp4802
g27
(dp4803
g29
V2008
p4804
sg31
VDATE
p4805
sg33
VCD
p4806
sg35
I2
ssg10
I477
sg36
g4
sg37
(dp4807
sg39
(dp4808
sg41
I2589
sg42
g21
sg43
g21
sg44
I477
sg45
V2008
p4809
sg47
I477
sg48
I2593
sbag0
(g23
g2
Ntp4810
Rp4811
(dp4812
g27
(dp4813
g29
Vstudy
p4814
sg31
VO
p4815
sg33
VNN
p4816
sg35
I3
ssg10
I478
sg36
g4
sg37
(dp4817
sg39
(dp4818
sg41
I2594
sg42
g21
sg43
g21
sg44
I478
sg45
Vstudy
p4819
sg47
I478
sg48
I2599
sbag0
(g23
g2
Ntp4820
Rp4821
(dp4822
g27
(dp4823
g29
Vfind
p4824
sg31
VO
p4825
sg33
VVBD
p4826
sg35
I4
ssg10
I479
sg36
g4
sg37
(dp4827
sg39
(dp4828
sg41
I2600
sg42
g21
sg43
g21
sg44
I479
sg45
Vfound
p4829
sg47
I479
sg48
I2605
sbag0
(g23
g2
Ntp4830
Rp4831
(dp4832
g27
(dp4833
g29
Vthat
p4834
sg31
VO
p4835
sg33
VIN
p4836
sg35
I5
ssg10
I480
sg36
g4
sg37
(dp4837
sg39
(dp4838
sg41
I2606
sg42
g21
sg43
g21
sg44
I480
sg45
Vthat
p4839
sg47
I480
sg48
I2610
sbag0
(g23
g2
Ntp4840
Rp4841
(dp4842
g27
(dp4843
g29
Vthe
p4844
sg31
VO
p4845
sg33
VDT
p4846
sg35
I6
ssg10
I481
sg36
g4
sg37
(dp4847
sg39
(dp4848
sg41
I2611
sg42
g21
sg43
g21
sg44
I481
sg45
Vthe
p4849
sg47
I481
sg48
I2614
sbag0
(g23
g2
Ntp4850
Rp4851
(dp4852
g27
(dp4853
g29
Vcrime
p4854
sg31
VO
p4855
sg33
VNN
p4856
sg35
I7
ssg10
I482
sg36
g4
sg37
(dp4857
sg39
(dp4858
sg41
I2615
sg42
g21
sg43
g21
sg44
I482
sg45
Vcrime
p4859
sg47
I482
sg48
I2620
sbag0
(g23
g2
Ntp4860
Rp4861
(dp4862
g27
(dp4863
g29
Vrate
p4864
sg31
VO
p4865
sg33
VNN
p4866
sg35
I8
ssg10
I483
sg36
g4
sg37
(dp4867
sg39
(dp4868
sg41
I2621
sg42
g21
sg43
g21
sg44
I483
sg45
Vrate
p4869
sg47
I483
sg48
I2625
sbag0
(g23
g2
Ntp4870
Rp4871
(dp4872
g27
(dp4873
g29
Vof
p4874
sg31
VO
p4875
sg33
VIN
p4876
sg35
I9
ssg10
I484
sg36
g4
sg37
(dp4877
sg39
(dp4878
sg41
I2626
sg42
g21
sg43
g21
sg44
I484
sg45
Vof
p4879
sg47
I484
sg48
I2628
sbag0
(g23
g2
Ntp4880
Rp4881
(dp4882
g27
(dp4883
g29
Veastern
p4884
sg31
VMISC
p4885
sg33
VJJ
p4886
sg35
I10
ssg10
I485
sg36
g4
sg37
(dp4887
sg39
(dp4888
sg41
I2629
sg42
g21
sg43
g21
sg44
I485
sg45
VEastern
p4889
sg47
I485
sg48
I2636
sbag0
(g23
g2
Ntp4890
Rp4891
(dp4892
g27
(dp4893
g29
Veuropean
p4894
sg31
VMISC
p4895
sg33
VJJ
p4896
sg35
I11
ssg10
I486
sg36
g4
sg37
(dp4897
sg39
(dp4898
sg41
I2637
sg42
g21
sg43
g21
sg44
I486
sg45
VEuropean
p4899
sg47
I486
sg48
I2645
sbag0
(g23
g2
Ntp4900
Rp4901
(dp4902
g27
(dp4903
g29
Vimmigrant
p4904
sg31
VO
p4905
sg33
VNNS
p4906
sg35
I12
ssg10
I487
sg36
g4
sg37
(dp4907
sg39
(dp4908
sg41
I2646
sg42
g21
sg43
g21
sg44
I487
sg45
Vimmigrants
p4909
sg47
I487
sg48
I2656
sbag0
(g23
g2
Ntp4910
Rp4911
(dp4912
g27
(dp4913
g29
Vbe
p4914
sg31
VO
p4915
sg33
VVBD
p4916
sg35
I13
ssg10
I488
sg36
g4
sg37
(dp4917
sg39
(dp4918
sg41
I2657
sg42
g21
sg43
g21
sg44
I488
sg45
Vwas
p4919
sg47
I488
sg48
I2660
sbag0
(g23
g2
Ntp4920
Rp4921
(dp4922
g27
(dp4923
g29
Vthe
p4924
sg31
VO
p4925
sg33
VDT
p4926
sg35
I14
ssg10
I489
sg36
g4
sg37
(dp4927
sg39
(dp4928
sg41
I2661
sg42
g21
sg43
g21
sg44
I489
sg45
Vthe
p4929
sg47
I489
sg48
I2664
sbag0
(g23
g2
Ntp4930
Rp4931
(dp4932
g27
(dp4933
g29
Vsame
p4934
sg31
VO
p4935
sg33
VJJ
p4936
sg35
I15
ssg10
I490
sg36
g4
sg37
(dp4937
sg39
(dp4938
sg41
I2665
sg42
g21
sg43
g21
sg44
I490
sg45
Vsame
p4939
sg47
I490
sg48
I2669
sbag0
(g23
g2
Ntp4940
Rp4941
(dp4942
g27
(dp4943
g29
Vas
p4944
sg31
VO
p4945
sg33
VIN
p4946
sg35
I16
ssg10
I491
sg36
g4
sg37
(dp4947
sg39
(dp4948
sg41
I2670
sg42
g21
sg43
g21
sg44
I491
sg45
Vas
p4949
sg47
I491
sg48
I2672
sbag0
(g23
g2
Ntp4950
Rp4951
(dp4952
g27
(dp4953
g29
Vthat
p4954
sg31
VO
p4955
sg33
VDT
p4956
sg35
I17
ssg10
I492
sg36
g4
sg37
(dp4957
sg39
(dp4958
sg41
I2673
sg42
g21
sg43
g21
sg44
I492
sg45
Vthat
p4959
sg47
I492
sg48
I2677
sbag0
(g23
g2
Ntp4960
Rp4961
(dp4962
g27
(dp4963
g29
Vof
p4964
sg31
VO
p4965
sg33
VIN
p4966
sg35
I18
ssg10
I493
sg36
g4
sg37
(dp4967
sg39
(dp4968
sg41
I2678
sg42
g21
sg43
g21
sg44
I493
sg45
Vof
p4969
sg47
I493
sg48
I2680
sbag0
(g23
g2
Ntp4970
Rp4971
(dp4972
g27
(dp4973
g29
Vthe
p4974
sg31
VO
p4975
sg33
VDT
p4976
sg35
I19
ssg10
I494
sg36
g4
sg37
(dp4977
sg39
(dp4978
sg41
I2681
sg42
g21
sg43
g21
sg44
I494
sg45
Vthe
p4979
sg47
I494
sg48
I2684
sbag0
(g23
g2
Ntp4980
Rp4981
(dp4982
g27
(dp4983
g29
Vindigenous
p4984
sg31
VO
p4985
sg33
VJJ
p4986
sg35
I20
ssg10
I495
sg36
g4
sg37
(dp4987
sg39
(dp4988
sg41
I2685
sg42
g21
sg43
g21
sg44
I495
sg45
Vindigenous
p4989
sg47
I495
sg48
I2695
sbag0
(g23
g2
Ntp4990
Rp4991
(dp4992
g27
(dp4993
g29
Vpopulation
p4994
sg31
VO
p4995
sg33
VNN
p4996
sg35
I21
ssg10
I496
sg36
g4
sg37
(dp4997
sg39
(dp4998
sg41
I2696
sg42
g21
sg43
g21
sg44
I496
sg45
Vpopulation
p4999
sg47
I496
sg48
I2706
sbag0
(g23
g2
Ntp5000
Rp5001
(dp5002
g27
(dp5003
g29
V-lsb-
p5004
sg31
VO
p5005
sg33
V-LRB-
p5006
sg35
I22
ssg10
I497
sg36
g4
sg37
(dp5007
sg39
(dp5008
sg41
I2707
sg42
g21
sg43
g21
sg44
I497
sg45
V[
p5009
sg47
I497
sg48
I2708
sbag0
(g23
g2
Ntp5010
Rp5011
(dp5012
g27
(dp5013
g29
Vref
p5014
sg31
VO
p5015
sg33
VNN
p5016
sg35
I23
ssg10
I498
sg36
g4
sg37
(dp5017
sg39
(dp5018
sg41
I2708
sg42
g21
sg43
g21
sg44
I498
sg45
VREF
p5019
sg47
I498
sg48
I2711
sbag0
(g23
g2
Ntp5020
Rp5021
(dp5022
g27
(dp5023
g29
V-rsb-
p5024
sg31
VO
p5025
sg33
V-RRB-
p5026
sg35
I24
ssg10
I499
sg36
g4
sg37
(dp5027
sg39
(dp5028
sg41
I2711
sg42
g21
sg43
g21
sg44
I499
sg45
V]
p5029
sg47
I499
sg48
I2712
sbag0
(g23
g2
Ntp5030
Rp5031
(dp5032
g27
(dp5033
g29
V.
p5034
sg31
VO
p5035
sg33
V.
p5036
sg35
I25
ssg10
I500
sg36
g4
sg37
(dp5037
sg39
(dp5038
sg41
I2712
sg42
g21
sg43
g21
sg44
I500
sg45
V.
p5039
sg47
I500
sg48
I2713
sbag0
(g23
g2
Ntp5040
Rp5041
(dp5042
g27
(dp5043
g29
Vthe
p5044
sg31
VO
p5045
sg33
VDT
p5046
sg35
I1
ssg10
I501
sg36
g4
sg37
(dp5047
sg39
(dp5048
sg41
I2715
sg42
g21
sg43
g21
sg44
I501
sg45
VThe
p5049
sg47
I501
sg48
I2718
sbag0
(g23
g2
Ntp5050
Rp5051
(dp5052
g27
(dp5053
g29
Vhandbook
p5054
sg31
VO
p5055
sg33
VNN
p5056
sg35
I2
ssg10
I502
sg36
g4
sg37
(dp5057
sg39
(dp5058
sg41
I2719
sg42
g21
sg43
g21
sg44
I502
sg45
VHandbook
p5059
sg47
I502
sg48
I2727
sbag0
(g23
g2
Ntp5060
Rp5061
(dp5062
g27
(dp5063
g29
Vof
p5064
sg31
VO
p5065
sg33
VIN
p5066
sg35
I3
ssg10
I503
sg36
g4
sg37
(dp5067
sg39
(dp5068
sg41
I2728
sg42
g21
sg43
g21
sg44
I503
sg45
Vof
p5069
sg47
I503
sg48
I2730
sbag0
(g23
g2
Ntp5070
Rp5071
(dp5072
g27
(dp5073
g29
Vcrime
p5074
sg31
VO
p5075
sg33
VNN
p5076
sg35
I4
ssg10
I504
sg36
g4
sg37
(dp5077
sg39
(dp5078
sg41
I2731
sg42
g21
sg43
g21
sg44
I504
sg45
VCrime
p5079
sg47
I504
sg48
I2736
sbag0
(g23
g2
Ntp5080
Rp5081
(dp5082
g27
(dp5083
g29
Vcorrelate
p5084
sg31
VO
p5085
sg33
VVBZ
p5086
sg35
I5
ssg10
I505
sg36
g4
sg37
(dp5087
sg39
(dp5088
sg41
I2737
sg42
g21
sg43
g21
sg44
I505
sg45
VCorrelates
p5089
sg47
I505
sg48
I2747
sbag0
(g23
g2
Ntp5090
Rp5091
(dp5092
g27
(dp5093
g29
Vstate
p5094
sg31
VO
p5095
sg33
VNNS
p5096
sg35
I6
ssg10
I506
sg36
g4
sg37
(dp5097
sg39
(dp5098
sg41
I2748
sg42
g21
sg43
g21
sg44
I506
sg45
Vstates
p5099
sg47
I506
sg48
I2754
sbag0
(g23
g2
Ntp5100
Rp5101
(dp5102
g27
(dp5103
g29
Vthat
p5104
sg31
VO
p5105
sg33
VWDT
p5106
sg35
I7
ssg10
I507
sg36
g4
sg37
(dp5107
sg39
(dp5108
sg41
I2755
sg42
g21
sg43
g21
sg44
I507
sg45
Vthat
p5109
sg47
I507
sg48
I2759
sbag0
(g23
g2
Ntp5110
Rp5111
(dp5112
g27
(dp5113
g29
Vunlike
p5114
sg31
VO
p5115
sg33
VIN
p5116
sg35
I8
ssg10
I508
sg36
g4
sg37
(dp5117
sg39
(dp5118
sg41
I2760
sg42
g21
sg43
g21
sg44
I508
sg45
Vunlike
p5119
sg47
I508
sg48
I2766
sbag0
(g23
g2
Ntp5120
Rp5121
(dp5122
g27
(dp5123
g29
Vstudy
p5124
sg31
VO
p5125
sg33
VNNS
p5126
sg35
I9
ssg10
I509
sg36
g4
sg37
(dp5127
sg39
(dp5128
sg41
I2767
sg42
g21
sg43
g21
sg44
I509
sg45
Vstudies
p5129
sg47
I509
sg48
I2774
sbag0
(g23
g2
Ntp5130
Rp5131
(dp5132
g27
(dp5133
g29
Voutside
p5134
sg31
VO
p5135
sg33
VIN
p5136
sg35
I10
ssg10
I510
sg36
g4
sg37
(dp5137
sg39
(dp5138
sg41
I2775
sg42
g21
sg43
g21
sg44
I510
sg45
Voutside
p5139
sg47
I510
sg48
I2782
sbag0
(g23
g2
Ntp5140
Rp5141
(dp5142
g27
(dp5143
g29
Vthe
p5144
sg31
VO
p5145
sg33
VDT
p5146
sg35
I11
ssg10
I511
sg36
g4
sg37
(dp5147
sg39
(dp5148
sg41
I2783
sg42
g21
sg43
g21
sg44
I511
sg45
Vthe
p5149
sg47
I511
sg48
I2786
sbag0
(g23
g2
Ntp5150
Rp5151
(dp5152
g27
(dp5153
g29
VUS
p5154
sg31
VLOCATION
p5155
sg33
VNNP
p5156
sg35
I12
ssg10
I512
sg36
g4
sg37
(dp5157
sg39
(dp5158
sg41
I2787
sg42
g21
sg43
g21
sg44
I512
sg45
VUS
p5159
sg47
I512
sg48
I2789
sbag0
(g23
g2
Ntp5160
Rp5161
(dp5162
g27
(dp5163
g29
V,
p5164
sg31
VO
p5165
sg33
V,
p5166
sg35
I13
ssg10
I513
sg36
g4
sg37
(dp5167
sg39
(dp5168
sg41
I2789
sg42
g21
sg43
g21
sg44
I513
sg45
V,
p5169
sg47
I513
sg48
I2790
sbag0
(g23
g2
Ntp5170
Rp5171
(dp5172
g27
(dp5173
g29
Va
p5174
sg31
VO
p5175
sg33
VDT
p5176
sg35
I14
ssg10
I514
sg36
g4
sg37
(dp5177
sg39
(dp5178
sg41
I2791
sg42
g21
sg43
g21
sg44
I514
sg45
Va
p5179
sg47
I514
sg48
I2792
sbag0
(g23
g2
Ntp5180
Rp5181
(dp5182
g27
(dp5183
g29
Vmajority
p5184
sg31
VO
p5185
sg33
VNN
p5186
sg35
I15
ssg10
I515
sg36
g4
sg37
(dp5187
sg39
(dp5188
sg41
I2793
sg42
g21
sg43
g21
sg44
I515
sg45
Vmajority
p5189
sg47
I515
sg48
I2801
sbag0
(g23
g2
Ntp5190
Rp5191
(dp5192
g27
(dp5193
g29
Vof
p5194
sg31
VO
p5195
sg33
VIN
p5196
sg35
I16
ssg10
I516
sg36
g4
sg37
(dp5197
sg39
(dp5198
sg41
I2802
sg42
g21
sg43
g21
sg44
I516
sg45
Vof
p5199
sg47
I516
sg48
I2804
sbag0
(g23
g2
Ntp5200
Rp5201
(dp5202
g27
(dp5203
g29
Vstudy
p5204
sg31
VO
p5205
sg33
VNNS
p5206
sg35
I17
ssg10
I517
sg36
g4
sg37
(dp5207
sg39
(dp5208
sg41
I2805
sg42
g21
sg43
g21
sg44
I517
sg45
Vstudies
p5209
sg47
I517
sg48
I2812
sbag0
(g23
g2
Ntp5210
Rp5211
(dp5212
g27
(dp5213
g29
Vin
p5214
sg31
VO
p5215
sg33
VIN
p5216
sg35
I18
ssg10
I518
sg36
g4
sg37
(dp5217
sg39
(dp5218
sg41
I2813
sg42
g21
sg43
g21
sg44
I518
sg45
Vin
p5219
sg47
I518
sg48
I2815
sbag0
(g23
g2
Ntp5220
Rp5221
(dp5222
g27
(dp5223
g29
Vthe
p5224
sg31
VO
p5225
sg33
VDT
p5226
sg35
I19
ssg10
I519
sg36
g4
sg37
(dp5227
sg39
(dp5228
sg41
I2816
sg42
g21
sg43
g21
sg44
I519
sg45
Vthe
p5229
sg47
I519
sg48
I2819
sbag0
(g23
g2
Ntp5230
Rp5231
(dp5232
g27
(dp5233
g29
VUS
p5234
sg31
VLOCATION
p5235
sg33
VNNP
p5236
sg35
I20
ssg10
I520
sg36
g4
sg37
(dp5237
sg39
(dp5238
sg41
I2820
sg42
g21
sg43
g21
sg44
I520
sg45
VUS
p5239
sg47
I520
sg48
I2822
sbag0
(g23
g2
Ntp5240
Rp5241
(dp5242
g27
(dp5243
g29
Vhave
p5244
sg31
VO
p5245
sg33
VVBP
p5246
sg35
I21
ssg10
I521
sg36
g4
sg37
(dp5247
sg39
(dp5248
sg41
I2823
sg42
g21
sg43
g21
sg44
I521
sg45
Vhave
p5249
sg47
I521
sg48
I2827
sbag0
(g23
g2
Ntp5250
Rp5251
(dp5252
g27
(dp5253
g29
Vfind
p5254
sg31
VO
p5255
sg33
VVBN
p5256
sg35
I22
ssg10
I522
sg36
g4
sg37
(dp5257
sg39
(dp5258
sg41
I2828
sg42
g21
sg43
g21
sg44
I522
sg45
Vfound
p5259
sg47
I522
sg48
I2833
sbag0
(g23
g2
Ntp5260
Rp5261
(dp5262
g27
(dp5263
g29
Vlower
p5264
sg31
VO
p5265
sg33
VJJR
p5266
sg35
I23
ssg10
I523
sg36
g4
sg37
(dp5267
sg39
(dp5268
sg41
I2834
sg42
g21
sg43
g21
sg44
I523
sg45
Vlower
p5269
sg47
I523
sg48
I2839
sbag0
(g23
g2
Ntp5270
Rp5271
(dp5272
g27
(dp5273
g29
Vcrime
p5274
sg31
VO
p5275
sg33
VNN
p5276
sg35
I24
ssg10
I524
sg36
g4
sg37
(dp5277
sg39
(dp5278
sg41
I2840
sg42
g21
sg43
g21
sg44
I524
sg45
Vcrime
p5279
sg47
I524
sg48
I2845
sbag0
(g23
g2
Ntp5280
Rp5281
(dp5282
g27
(dp5283
g29
Vrate
p5284
sg31
VO
p5285
sg33
VNNS
p5286
sg35
I25
ssg10
I525
sg36
g4
sg37
(dp5287
sg39
(dp5288
sg41
I2846
sg42
g21
sg43
g21
sg44
I525
sg45
Vrates
p5289
sg47
I525
sg48
I2851
sbag0
(g23
g2
Ntp5290
Rp5291
(dp5292
g27
(dp5293
g29
Vamong
p5294
sg31
VO
p5295
sg33
VIN
p5296
sg35
I26
ssg10
I526
sg36
g4
sg37
(dp5297
sg39
(dp5298
sg41
I2852
sg42
g21
sg43
g21
sg44
I526
sg45
Vamong
p5299
sg47
I526
sg48
I2857
sbag0
(g23
g2
Ntp5300
Rp5301
(dp5302
g27
(dp5303
g29
Vimmigrant
p5304
sg31
VO
p5305
sg33
VNNS
p5306
sg35
I27
ssg10
I527
sg36
g4
sg37
(dp5307
sg39
(dp5308
sg41
I2858
sg42
g21
sg43
g21
sg44
I527
sg45
Vimmigrants
p5309
sg47
I527
sg48
I2868
sbag0
(g23
g2
Ntp5310
Rp5311
(dp5312
g27
(dp5313
g29
Vthan
p5314
sg31
VO
p5315
sg33
VIN
p5316
sg35
I28
ssg10
I528
sg36
g4
sg37
(dp5317
sg39
(dp5318
sg41
I2869
sg42
g21
sg43
g21
sg44
I528
sg45
Vthan
p5319
sg47
I528
sg48
I2873
sbag0
(g23
g2
Ntp5320
Rp5321
(dp5322
g27
(dp5323
g29
Vamong
p5324
sg31
VO
p5325
sg33
VIN
p5326
sg35
I29
ssg10
I529
sg36
g4
sg37
(dp5327
sg39
(dp5328
sg41
I2874
sg42
g21
sg43
g21
sg44
I529
sg45
Vamong
p5329
sg47
I529
sg48
I2879
sbag0
(g23
g2
Ntp5330
Rp5331
(dp5332
g27
(dp5333
g29
Vnon-immigrant
p5334
sg31
VO
p5335
sg33
VNNS
p5336
sg35
I30
ssg10
I530
sg36
g4
sg37
(dp5337
sg39
(dp5338
sg41
I2880
sg42
g21
sg43
g21
sg44
I530
sg45
Vnon-immigrants
p5339
sg47
I530
sg48
I2894
sbag0
(g23
g2
Ntp5340
Rp5341
(dp5342
g27
(dp5343
g29
V.
p5344
sg31
VO
p5345
sg33
V.
p5346
sg35
I31
ssg10
I531
sg36
g4
sg37
(dp5347
sg39
(dp5348
sg41
I2894
sg42
g21
sg43
g21
sg44
I531
sg45
V.
p5349
sg47
I531
sg48
I2895
sbag0
(g23
g2
Ntp5350
Rp5351
(dp5352
g27
(dp5353
g29
Vagain
p5354
sg31
VO
p5355
sg33
VRB
p5356
sg35
I1
ssg10
I532
sg36
g4
sg37
(dp5357
sg39
(dp5358
sg41
I2896
sg42
g21
sg43
g21
sg44
I532
sg45
VAgain
p5359
sg47
I532
sg48
I2901
sbag0
(g23
g2
Ntp5360
Rp5361
(dp5362
g27
(dp5363
g29
V,
p5364
sg31
VO
p5365
sg33
V,
p5366
sg35
I2
ssg10
I533
sg36
g4
sg37
(dp5367
sg39
(dp5368
sg41
I2901
sg42
g21
sg43
g21
sg44
I533
sg45
V,
p5369
sg47
I533
sg48
I2902
sbag0
(g23
g2
Ntp5370
Rp5371
(dp5372
g27
(dp5373
g29
Vthe
p5374
sg31
VO
p5375
sg33
VDT
p5376
sg35
I3
ssg10
I534
sg36
g4
sg37
(dp5377
sg39
(dp5378
sg41
I2903
sg42
g21
sg43
g21
sg44
I534
sg45
Vthe
p5379
sg47
I534
sg48
I2906
sbag0
(g23
g2
Ntp5380
Rp5381
(dp5382
g27
(dp5383
g29
Vcountry
p5384
sg31
VO
p5385
sg33
VNN
p5386
sg35
I4
ssg10
I535
sg36
g4
sg37
(dp5387
sg39
(dp5388
sg41
I2907
sg42
g21
sg43
g21
sg44
I535
sg45
Vcountry
p5389
sg47
I535
sg48
I2914
sbag0
(g23
g2
Ntp5390
Rp5391
(dp5392
g27
(dp5393
g29
Vof
p5394
sg31
VO
p5395
sg33
VIN
p5396
sg35
I5
ssg10
I536
sg36
g4
sg37
(dp5397
sg39
(dp5398
sg41
I2915
sg42
g21
sg43
g21
sg44
I536
sg45
Vof
p5399
sg47
I536
sg48
I2917
sbag0
(g23
g2
Ntp5400
Rp5401
(dp5402
g27
(dp5403
g29
Vorigin
p5404
sg31
VO
p5405
sg33
VNN
p5406
sg35
I6
ssg10
I537
sg36
g4
sg37
(dp5407
sg39
(dp5408
sg41
I2918
sg42
g21
sg43
g21
sg44
I537
sg45
Vorigin
p5409
sg47
I537
sg48
I2924
sbag0
(g23
g2
Ntp5410
Rp5411
(dp5412
g27
(dp5413
g29
Vmay
p5414
sg31
VO
p5415
sg33
VMD
p5416
sg35
I7
ssg10
I538
sg36
g4
sg37
(dp5417
sg39
(dp5418
sg41
I2925
sg42
g21
sg43
g21
sg44
I538
sg45
Vmay
p5419
sg47
I538
sg48
I2928
sbag0
(g23
g2
Ntp5420
Rp5421
(dp5422
g27
(dp5423
g29
Vbe
p5424
sg31
VO
p5425
sg33
VVB
p5426
sg35
I8
ssg10
I539
sg36
g4
sg37
(dp5427
sg39
(dp5428
sg41
I2929
sg42
g21
sg43
g21
sg44
I539
sg45
Vbe
p5429
sg47
I539
sg48
I2931
sbag0
(g23
g2
Ntp5430
Rp5431
(dp5432
g27
(dp5433
g29
Vmore
p5434
sg31
VO
p5435
sg33
VRBR
p5436
sg35
I9
ssg10
I540
sg36
g4
sg37
(dp5437
sg39
(dp5438
sg41
I2932
sg42
g21
sg43
g21
sg44
I540
sg45
Vmore
p5439
sg47
I540
sg48
I2936
sbag0
(g23
g2
Ntp5440
Rp5441
(dp5442
g27
(dp5443
g29
Vimportant
p5444
sg31
VO
p5445
sg33
VJJ
p5446
sg35
I10
ssg10
I541
sg36
g4
sg37
(dp5447
sg39
(dp5448
sg41
I2937
sg42
g21
sg43
g21
sg44
I541
sg45
Vimportant
p5449
sg47
I541
sg48
I2946
sbag0
(g23
g2
Ntp5450
Rp5451
(dp5452
g27
(dp5453
g29
Vthan
p5454
sg31
VO
p5455
sg33
VIN
p5456
sg35
I11
ssg10
I542
sg36
g4
sg37
(dp5457
sg39
(dp5458
sg41
I2947
sg42
g21
sg43
g21
sg44
I542
sg45
Vthan
p5459
sg47
I542
sg48
I2951
sbag0
(g23
g2
Ntp5460
Rp5461
(dp5462
g27
(dp5463
g29
Vimmigrant
p5464
sg31
VO
p5465
sg33
VJJ
p5466
sg35
I12
ssg10
I543
sg36
g4
sg37
(dp5467
sg39
(dp5468
sg41
I2952
sg42
g21
sg43
g21
sg44
I543
sg45
Vimmigrant
p5469
sg47
I543
sg48
I2961
sbag0
(g23
g2
Ntp5470
Rp5471
(dp5472
g27
(dp5473
g29
Vstatus
p5474
sg31
VO
p5475
sg33
VNN
p5476
sg35
I13
ssg10
I544
sg36
g4
sg37
(dp5477
sg39
(dp5478
sg41
I2962
sg42
g21
sg43
g21
sg44
I544
sg45
Vstatus
p5479
sg47
I544
sg48
I2968
sbag0
(g23
g2
Ntp5480
Rp5481
(dp5482
g27
(dp5483
g29
Vitself
p5484
sg31
VO
p5485
sg33
VPRP
p5486
sg35
I14
ssg10
I545
sg36
g4
sg37
(dp5487
sg39
(dp5488
sg41
I2969
sg42
g21
sg43
g21
sg44
I545
sg45
Vitself
p5489
sg47
I545
sg48
I2975
sbag0
(g23
g2
Ntp5490
Rp5491
(dp5492
g27
(dp5493
g29
V-lsb-
p5494
sg31
VO
p5495
sg33
V-LRB-
p5496
sg35
I15
ssg10
I546
sg36
g4
sg37
(dp5497
sg39
(dp5498
sg41
I2976
sg42
g21
sg43
g21
sg44
I546
sg45
V[
p5499
sg47
I546
sg48
I2977
sbag0
(g23
g2
Ntp5500
Rp5501
(dp5502
g27
(dp5503
g29
Vref
p5504
sg31
VO
p5505
sg33
VNN
p5506
sg35
I16
ssg10
I547
sg36
g4
sg37
(dp5507
sg39
(dp5508
sg41
I2977
sg42
g21
sg43
g21
sg44
I547
sg45
VREF
p5509
sg47
I547
sg48
I2980
sbag0
(g23
g2
Ntp5510
Rp5511
(dp5512
g27
(dp5513
g29
V-rsb-
p5514
sg31
VO
p5515
sg33
V-RRB-
p5516
sg35
I17
ssg10
I548
sg36
g4
sg37
(dp5517
sg39
(dp5518
sg41
I2980
sg42
g21
sg43
g21
sg44
I548
sg45
V]
p5519
sg47
I548
sg48
I2981
sbag0
(g23
g2
Ntp5520
Rp5521
(dp5522
g27
(dp5523
g29
V.
p5524
sg31
VO
p5525
sg33
V.
p5526
sg35
I18
ssg10
I549
sg36
g4
sg37
(dp5527
sg39
(dp5528
sg41
I2981
sg42
g21
sg43
g21
sg44
I549
sg45
V.
p5529
sg47
I549
sg48
I2982
sbag0
(g23
g2
Ntp5530
Rp5531
(dp5532
g27
(dp5533
g29
Vthe
p5534
sg31
VO
p5535
sg33
VDT
p5536
sg35
I1
ssg10
I550
sg36
g4
sg37
(dp5537
sg39
(dp5538
sg41
I2985
sg42
g21
sg43
g21
sg44
I550
sg45
VThe
p5539
sg47
I550
sg48
I2988
sbag0
(g23
g2
Ntp5540
Rp5541
(dp5542
g27
(dp5543
g29
VCenter
p5544
sg31
VORGANIZATION
p5545
sg33
VNNP
p5546
sg35
I2
ssg10
I551
sg36
g4
sg37
(dp5547
sg39
(dp5548
sg41
I2989
sg42
g21
sg43
g21
sg44
I551
sg45
VCenter
p5549
sg47
I551
sg48
I2995
sbag0
(g23
g2
Ntp5550
Rp5551
(dp5552
g27
(dp5553
g29
Vfor
p5554
sg31
VORGANIZATION
p5555
sg33
VIN
p5556
sg35
I3
ssg10
I552
sg36
g4
sg37
(dp5557
sg39
(dp5558
sg41
I2996
sg42
g21
sg43
g21
sg44
I552
sg45
Vfor
p5559
sg47
I552
sg48
I2999
sbag0
(g23
g2
Ntp5560
Rp5561
(dp5562
g27
(dp5563
g29
VImmigration
p5564
sg31
VORGANIZATION
p5565
sg33
VNNP
p5566
sg35
I4
ssg10
I553
sg36
g4
sg37
(dp5567
sg39
(dp5568
sg41
I3000
sg42
g21
sg43
g21
sg44
I553
sg45
VImmigration
p5569
sg47
I553
sg48
I3011
sbag0
(g23
g2
Ntp5570
Rp5571
(dp5572
g27
(dp5573
g29
Vstudy
p5574
sg31
VORGANIZATION
p5575
sg33
VNNS
p5576
sg35
I5
ssg10
I554
sg36
g4
sg37
(dp5577
sg39
(dp5578
sg41
I3012
sg42
g21
sg43
g21
sg44
I554
sg45
VStudies
p5579
sg47
I554
sg48
I3019
sbag0
(g23
g2
Ntp5580
Rp5581
(dp5582
g27
(dp5583
g29
Vin
p5584
sg31
VO
p5585
sg33
VIN
p5586
sg35
I6
ssg10
I555
sg36
g4
sg37
(dp5587
sg39
(dp5588
sg41
I3020
sg42
g21
sg43
g21
sg44
I555
sg45
Vin
p5589
sg47
I555
sg48
I3022
sbag0
(g23
g2
Ntp5590
Rp5591
(dp5592
g27
(dp5593
g29
Va
p5594
sg31
VO
p5595
sg33
VDT
p5596
sg35
I7
ssg10
I556
sg36
g4
sg37
(dp5597
sg39
(dp5598
sg41
I3023
sg42
g21
sg43
g21
sg44
I556
sg45
Va
p5599
sg47
I556
sg48
I3024
sbag0
(g23
g2
Ntp5600
Rp5601
(dp5602
g27
(dp5603
g29
V2009
p5604
sg31
VDATE
p5605
sg33
VCD
p5606
sg35
I8
ssg10
I557
sg36
g4
sg37
(dp5607
sg39
(dp5608
sg41
I3025
sg42
g21
sg43
g21
sg44
I557
sg45
V2009
p5609
sg47
I557
sg48
I3029
sbag0
(g23
g2
Ntp5610
Rp5611
(dp5612
g27
(dp5613
g29
Vreport
p5614
sg31
VO
p5615
sg33
VNN
p5616
sg35
I9
ssg10
I558
sg36
g4
sg37
(dp5617
sg39
(dp5618
sg41
I3030
sg42
g21
sg43
g21
sg44
I558
sg45
Vreport
p5619
sg47
I558
sg48
I3036
sbag0
(g23
g2
Ntp5620
Rp5621
(dp5622
g27
(dp5623
g29
Vargue
p5624
sg31
VO
p5625
sg33
VVBD
p5626
sg35
I10
ssg10
I559
sg36
g4
sg37
(dp5627
sg39
(dp5628
sg41
I3037
sg42
g21
sg43
g21
sg44
I559
sg45
Vargued
p5629
sg47
I559
sg48
I3043
sbag0
(g23
g2
Ntp5630
Rp5631
(dp5632
g27
(dp5633
g29
Vthat
p5634
sg31
VO
p5635
sg33
VIN
p5636
sg35
I11
ssg10
I560
sg36
g4
sg37
(dp5637
sg39
(dp5638
sg41
I3044
sg42
g21
sg43
g21
sg44
I560
sg45
Vthat
p5639
sg47
I560
sg48
I3048
sbag0
(g23
g2
Ntp5640
Rp5641
(dp5642
g27
(dp5643
g29
V``
p5644
sg31
VO
p5645
sg33
V``
p5646
sg35
I12
ssg10
I561
sg36
g4
sg37
(dp5647
sg39
(dp5648
sg41
I3049
sg42
g21
sg43
g21
sg44
I561
sg45
g798
sg47
I561
sg48
I3050
sbag0
(g23
g2
Ntp5649
Rp5650
(dp5651
g27
(dp5652
g29
Vnew
p5653
sg31
VO
p5654
sg33
VJJ
p5655
sg35
I13
ssg10
I562
sg36
g4
sg37
(dp5656
sg39
(dp5657
sg41
I3050
sg42
g21
sg43
g21
sg44
I562
sg45
VNew
p5658
sg47
I562
sg48
I3053
sbag0
(g23
g2
Ntp5659
Rp5660
(dp5661
g27
(dp5662
g29
Vgovernment
p5663
sg31
VO
p5664
sg33
VNN
p5665
sg35
I14
ssg10
I563
sg36
g4
sg37
(dp5666
sg39
(dp5667
sg41
I3054
sg42
g21
sg43
g21
sg44
I563
sg45
Vgovernment
p5668
sg47
I563
sg48
I3064
sbag0
(g23
g2
Ntp5669
Rp5670
(dp5671
g27
(dp5672
g29
Vdatum
p5673
sg31
VO
p5674
sg33
VNNS
p5675
sg35
I15
ssg10
I564
sg36
g4
sg37
(dp5676
sg39
(dp5677
sg41
I3065
sg42
g21
sg43
g21
sg44
I564
sg45
Vdata
p5678
sg47
I564
sg48
I3069
sbag0
(g23
g2
Ntp5679
Rp5680
(dp5681
g27
(dp5682
g29
Vindicate
p5683
sg31
VO
p5684
sg33
VVBP
p5685
sg35
I16
ssg10
I565
sg36
g4
sg37
(dp5686
sg39
(dp5687
sg41
I3070
sg42
g21
sg43
g21
sg44
I565
sg45
Vindicate
p5688
sg47
I565
sg48
I3078
sbag0
(g23
g2
Ntp5689
Rp5690
(dp5691
g27
(dp5692
g29
Vthat
p5693
sg31
VO
p5694
sg33
VIN
p5695
sg35
I17
ssg10
I566
sg36
g4
sg37
(dp5696
sg39
(dp5697
sg41
I3079
sg42
g21
sg43
g21
sg44
I566
sg45
Vthat
p5698
sg47
I566
sg48
I3083
sbag0
(g23
g2
Ntp5699
Rp5700
(dp5701
g27
(dp5702
g29
Vimmigrant
p5703
sg31
VO
p5704
sg33
VNNS
p5705
sg35
I18
ssg10
I567
sg36
g4
sg37
(dp5706
sg39
(dp5707
sg41
I3084
sg42
g21
sg43
g21
sg44
I567
sg45
Vimmigrants
p5708
sg47
I567
sg48
I3094
sbag0
(g23
g2
Ntp5709
Rp5710
(dp5711
g27
(dp5712
g29
Vhave
p5713
sg31
VO
p5714
sg33
VVBP
p5715
sg35
I19
ssg10
I568
sg36
g4
sg37
(dp5716
sg39
(dp5717
sg41
I3095
sg42
g21
sg43
g21
sg44
I568
sg45
Vhave
p5718
sg47
I568
sg48
I3099
sbag0
(g23
g2
Ntp5719
Rp5720
(dp5721
g27
(dp5722
g29
Vhigh
p5723
sg31
VO
p5724
sg33
VJJ
p5725
sg35
I20
ssg10
I569
sg36
g4
sg37
(dp5726
sg39
(dp5727
sg41
I3100
sg42
g21
sg43
g21
sg44
I569
sg45
Vhigh
p5728
sg47
I569
sg48
I3104
sbag0
(g23
g2
Ntp5729
Rp5730
(dp5731
g27
(dp5732
g29
Vrate
p5733
sg31
VO
p5734
sg33
VNNS
p5735
sg35
I21
ssg10
I570
sg36
g4
sg37
(dp5736
sg39
(dp5737
sg41
I3105
sg42
g21
sg43
g21
sg44
I570
sg45
Vrates
p5738
sg47
I570
sg48
I3110
sbag0
(g23
g2
Ntp5739
Rp5740
(dp5741
g27
(dp5742
g29
Vof
p5743
sg31
VO
p5744
sg33
VIN
p5745
sg35
I22
ssg10
I571
sg36
g4
sg37
(dp5746
sg39
(dp5747
sg41
I3111
sg42
g21
sg43
g21
sg44
I571
sg45
Vof
p5748
sg47
I571
sg48
I3113
sbag0
(g23
g2
Ntp5749
Rp5750
(dp5751
g27
(dp5752
g29
Vcriminality
p5753
sg31
VO
p5754
sg33
VNN
p5755
sg35
I23
ssg10
I572
sg36
g4
sg37
(dp5756
sg39
(dp5757
sg41
I3114
sg42
g21
sg43
g21
sg44
I572
sg45
Vcriminality
p5758
sg47
I572
sg48
I3125
sbag0
(g23
g2
Ntp5759
Rp5760
(dp5761
g27
(dp5762
g29
V,
p5763
sg31
VO
p5764
sg33
V,
p5765
sg35
I24
ssg10
I573
sg36
g4
sg37
(dp5766
sg39
(dp5767
sg41
I3125
sg42
g21
sg43
g21
sg44
I573
sg45
V,
p5768
sg47
I573
sg48
I3126
sbag0
(g23
g2
Ntp5769
Rp5770
(dp5771
g27
(dp5772
g29
Vwhile
p5773
sg31
VO
p5774
sg33
VIN
p5775
sg35
I25
ssg10
I574
sg36
g4
sg37
(dp5776
sg39
(dp5777
sg41
I3127
sg42
g21
sg43
g21
sg44
I574
sg45
Vwhile
p5778
sg47
I574
sg48
I3132
sbag0
(g23
g2
Ntp5779
Rp5780
(dp5781
g27
(dp5782
g29
Volder
p5783
sg31
VO
p5784
sg33
VJJR
p5785
sg35
I26
ssg10
I575
sg36
g4
sg37
(dp5786
sg39
(dp5787
sg41
I3133
sg42
g21
sg43
g21
sg44
I575
sg45
Volder
p5788
sg47
I575
sg48
I3138
sbag0
(g23
g2
Ntp5789
Rp5790
(dp5791
g27
(dp5792
g29
Vacademic
p5793
sg31
VO
p5794
sg33
VJJ
p5795
sg35
I27
ssg10
I576
sg36
g4
sg37
(dp5796
sg39
(dp5797
sg41
I3139
sg42
g21
sg43
g21
sg44
I576
sg45
Vacademic
p5798
sg47
I576
sg48
I3147
sbag0
(g23
g2
Ntp5799
Rp5800
(dp5801
g27
(dp5802
g29
Vresearch
p5803
sg31
VO
p5804
sg33
VNN
p5805
sg35
I28
ssg10
I577
sg36
g4
sg37
(dp5806
sg39
(dp5807
sg41
I3148
sg42
g21
sg43
g21
sg44
I577
sg45
Vresearch
p5808
sg47
I577
sg48
I3156
sbag0
(g23
g2
Ntp5809
Rp5810
(dp5811
g27
(dp5812
g29
Vfind
p5813
sg31
VO
p5814
sg33
VVBD
p5815
sg35
I29
ssg10
I578
sg36
g4
sg37
(dp5816
sg39
(dp5817
sg41
I3157
sg42
g21
sg43
g21
sg44
I578
sg45
Vfound
p5818
sg47
I578
sg48
I3162
sbag0
(g23
g2
Ntp5819
Rp5820
(dp5821
g27
(dp5822
g29
Vlow
p5823
sg31
VO
p5824
sg33
VJJ
p5825
sg35
I30
ssg10
I579
sg36
g4
sg37
(dp5826
sg39
(dp5827
sg41
I3163
sg42
g21
sg43
g21
sg44
I579
sg45
Vlow
p5828
sg47
I579
sg48
I3166
sbag0
(g23
g2
Ntp5829
Rp5830
(dp5831
g27
(dp5832
g29
Vrate
p5833
sg31
VO
p5834
sg33
VNNS
p5835
sg35
I31
ssg10
I580
sg36
g4
sg37
(dp5836
sg39
(dp5837
sg41
I3167
sg42
g21
sg43
g21
sg44
I580
sg45
Vrates
p5838
sg47
I580
sg48
I3172
sbag0
(g23
g2
Ntp5839
Rp5840
(dp5841
g27
(dp5842
g29
V.
p5843
sg31
VO
p5844
sg33
V.
p5845
sg35
I32
ssg10
I581
sg36
g4
sg37
(dp5846
sg39
(dp5847
sg41
I3172
sg42
g21
sg43
g21
sg44
I581
sg45
V.
p5848
sg47
I581
sg48
I3173
sbag0
(g23
g2
Ntp5849
Rp5850
(dp5851
g27
(dp5852
g29
Vthe
p5853
sg31
VO
p5854
sg33
VDT
p5855
sg35
I1
ssg10
I582
sg36
g4
sg37
(dp5856
sg39
(dp5857
sg41
I3174
sg42
g21
sg43
g21
sg44
I582
sg45
VThe
p5858
sg47
I582
sg48
I3177
sbag0
(g23
g2
Ntp5859
Rp5860
(dp5861
g27
(dp5862
g29
Voverall
p5863
sg31
VO
p5864
sg33
VJJ
p5865
sg35
I2
ssg10
I583
sg36
g4
sg37
(dp5866
sg39
(dp5867
sg41
I3178
sg42
g21
sg43
g21
sg44
I583
sg45
Voverall
p5868
sg47
I583
sg48
I3185
sbag0
(g23
g2
Ntp5869
Rp5870
(dp5871
g27
(dp5872
g29
Vpicture
p5873
sg31
VO
p5874
sg33
VNN
p5875
sg35
I3
ssg10
I584
sg36
g4
sg37
(dp5876
sg39
(dp5877
sg41
I3186
sg42
g21
sg43
g21
sg44
I584
sg45
Vpicture
p5878
sg47
I584
sg48
I3193
sbag0
(g23
g2
Ntp5879
Rp5880
(dp5881
g27
(dp5882
g29
Vof
p5883
sg31
VO
p5884
sg33
VIN
p5885
sg35
I4
ssg10
I585
sg36
g4
sg37
(dp5886
sg39
(dp5887
sg41
I3194
sg42
g21
sg43
g21
sg44
I585
sg45
Vof
p5888
sg47
I585
sg48
I3196
sbag0
(g23
g2
Ntp5889
Rp5890
(dp5891
g27
(dp5892
g29
Vimmigrant
p5893
sg31
VO
p5894
sg33
VNNS
p5895
sg35
I5
ssg10
I586
sg36
g4
sg37
(dp5896
sg39
(dp5897
sg41
I3197
sg42
g21
sg43
g21
sg44
I586
sg45
Vimmigrants
p5898
sg47
I586
sg48
I3207
sbag0
(g23
g2
Ntp5899
Rp5900
(dp5901
g27
(dp5902
g29
Vand
p5903
sg31
VO
p5904
sg33
VCC
p5905
sg35
I6
ssg10
I587
sg36
g4
sg37
(dp5906
sg39
(dp5907
sg41
I3208
sg42
g21
sg43
g21
sg44
I587
sg45
Vand
p5908
sg47
I587
sg48
I3211
sbag0
(g23
g2
Ntp5909
Rp5910
(dp5911
g27
(dp5912
g29
Vcrime
p5913
sg31
VO
p5914
sg33
VNN
p5915
sg35
I7
ssg10
I588
sg36
g4
sg37
(dp5916
sg39
(dp5917
sg41
I3212
sg42
g21
sg43
g21
sg44
I588
sg45
Vcrime
p5918
sg47
I588
sg48
I3217
sbag0
(g23
g2
Ntp5919
Rp5920
(dp5921
g27
(dp5922
g29
Vremain
p5923
sg31
VO
p5924
sg33
VVBZ
p5925
sg35
I8
ssg10
I589
sg36
g4
sg37
(dp5926
sg39
(dp5927
sg41
I3218
sg42
g21
sg43
g21
sg44
I589
sg45
Vremains
p5928
sg47
I589
sg48
I3225
sbag0
(g23
g2
Ntp5929
Rp5930
(dp5931
g27
(dp5932
g29
Vconfused
p5933
sg31
VO
p5934
sg33
VJJ
p5935
sg35
I9
ssg10
I590
sg36
g4
sg37
(dp5936
sg39
(dp5937
sg41
I3226
sg42
g21
sg43
g21
sg44
I590
sg45
Vconfused
p5938
sg47
I590
sg48
I3234
sbag0
(g23
g2
Ntp5939
Rp5940
(dp5941
g27
(dp5942
g29
Vdue
p5943
sg31
VO
p5944
sg33
VJJ
p5945
sg35
I10
ssg10
I591
sg36
g4
sg37
(dp5946
sg39
(dp5947
sg41
I3235
sg42
g21
sg43
g21
sg44
I591
sg45
Vdue
p5948
sg47
I591
sg48
I3238
sbag0
(g23
g2
Ntp5949
Rp5950
(dp5951
g27
(dp5952
g29
Vto
p5953
sg31
VO
p5954
sg33
VTO
p5955
sg35
I11
ssg10
I592
sg36
g4
sg37
(dp5956
sg39
(dp5957
sg41
I3239
sg42
g21
sg43
g21
sg44
I592
sg45
Vto
p5958
sg47
I592
sg48
I3241
sbag0
(g23
g2
Ntp5959
Rp5960
(dp5961
g27
(dp5962
g29
Va
p5963
sg31
VO
p5964
sg33
VDT
p5965
sg35
I12
ssg10
I593
sg36
g4
sg37
(dp5966
sg39
(dp5967
sg41
I3242
sg42
g21
sg43
g21
sg44
I593
sg45
Va
p5968
sg47
I593
sg48
I3243
sbag0
(g23
g2
Ntp5969
Rp5970
(dp5971
g27
(dp5972
g29
Vlack
p5973
sg31
VO
p5974
sg33
VNN
p5975
sg35
I13
ssg10
I594
sg36
g4
sg37
(dp5976
sg39
(dp5977
sg41
I3244
sg42
g21
sg43
g21
sg44
I594
sg45
Vlack
p5978
sg47
I594
sg48
I3248
sbag0
(g23
g2
Ntp5979
Rp5980
(dp5981
g27
(dp5982
g29
Vof
p5983
sg31
VO
p5984
sg33
VIN
p5985
sg35
I14
ssg10
I595
sg36
g4
sg37
(dp5986
sg39
(dp5987
sg41
I3249
sg42
g21
sg43
g21
sg44
I595
sg45
Vof
p5988
sg47
I595
sg48
I3251
sbag0
(g23
g2
Ntp5989
Rp5990
(dp5991
g27
(dp5992
g29
Vgood
p5993
sg31
VO
p5994
sg33
VJJ
p5995
sg35
I15
ssg10
I596
sg36
g4
sg37
(dp5996
sg39
(dp5997
sg41
I3252
sg42
g21
sg43
g21
sg44
I596
sg45
Vgood
p5998
sg47
I596
sg48
I3256
sbag0
(g23
g2
Ntp5999
Rp6000
(dp6001
g27
(dp6002
g29
Vdatum
p6003
sg31
VO
p6004
sg33
VNNS
p6005
sg35
I16
ssg10
I597
sg36
g4
sg37
(dp6006
sg39
(dp6007
sg41
I3257
sg42
g21
sg43
g21
sg44
I597
sg45
Vdata
p6008
sg47
I597
sg48
I3261
sbag0
(g23
g2
Ntp6009
Rp6010
(dp6011
g27
(dp6012
g29
Vand
p6013
sg31
VO
p6014
sg33
VCC
p6015
sg35
I17
ssg10
I598
sg36
g4
sg37
(dp6016
sg39
(dp6017
sg41
I3262
sg42
g21
sg43
g21
sg44
I598
sg45
Vand
p6018
sg47
I598
sg48
I3265
sbag0
(g23
g2
Ntp6019
Rp6020
(dp6021
g27
(dp6022
g29
Vcontrary
p6023
sg31
VO
p6024
sg33
VJJ
p6025
sg35
I18
ssg10
I599
sg36
g4
sg37
(dp6026
sg39
(dp6027
sg41
I3266
sg42
g21
sg43
g21
sg44
I599
sg45
Vcontrary
p6028
sg47
I599
sg48
I3274
sbag0
(g23
g2
Ntp6029
Rp6030
(dp6031
g27
(dp6032
g29
Vinformation
p6033
sg31
VO
p6034
sg33
VNN
p6035
sg35
I19
ssg10
I600
sg36
g4
sg37
(dp6036
sg39
(dp6037
sg41
I3275
sg42
g21
sg43
g21
sg44
I600
sg45
Vinformation
p6038
sg47
I600
sg48
I3286
sbag0
(g23
g2
Ntp6039
Rp6040
(dp6041
g27
(dp6042
g29
V.
p6043
sg31
VO
p6044
sg33
V.
p6045
sg35
I20
ssg10
I601
sg36
g4
sg37
(dp6046
sg39
(dp6047
sg41
I3286
sg42
g21
sg43
g21
sg44
I601
sg45
V.
p6048
sg47
I601
sg48
I3287
sbag0
(g23
g2
Ntp6049
Rp6050
(dp6051
g27
(dp6052
g29
V''
p6053
sg31
VO
p6054
sg33
V''
p6055
sg35
I21
ssg10
I602
sg36
g4
sg37
(dp6056
sg39
(dp6057
sg41
I3287
sg42
g21
sg43
g21
sg44
I602
sg45
g798
sg47
I602
sg48
I3288
sbag0
(g23
g2
Ntp6058
Rp6059
(dp6060
g27
(dp6061
g29
V-lsb-
p6062
sg31
VO
p6063
sg33
V-LRB-
p6064
sg35
I1
ssg10
I603
sg36
g4
sg37
(dp6065
sg39
(dp6066
sg41
I3288
sg42
g21
sg43
g21
sg44
I603
sg45
V[
p6067
sg47
I603
sg48
I3289
sbag0
(g23
g2
Ntp6068
Rp6069
(dp6070
g27
(dp6071
g29
Vref
p6072
sg31
VO
p6073
sg33
VNN
p6074
sg35
I2
ssg10
I604
sg36
g4
sg37
(dp6075
sg39
(dp6076
sg41
I3289
sg42
g21
sg43
g21
sg44
I604
sg45
VREF
p6077
sg47
I604
sg48
I3292
sbag0
(g23
g2
Ntp6078
Rp6079
(dp6080
g27
(dp6081
g29
V-rsb-
p6082
sg31
VO
p6083
sg33
V-RRB-
p6084
sg35
I3
ssg10
I605
sg36
g4
sg37
(dp6085
sg39
(dp6086
sg41
I3292
sg42
g21
sg43
g21
sg44
I605
sg45
V]
p6087
sg47
I605
sg48
I3293
sbag0
(g23
g2
Ntp6088
Rp6089
(dp6090
g27
(dp6091
g29
Vthis
p6092
sg31
VO
p6093
sg33
VDT
p6094
sg35
I4
ssg10
I606
sg36
g4
sg37
(dp6095
sg39
(dp6096
sg41
I3294
sg42
g21
sg43
g21
sg44
I606
sg45
VThis
p6097
sg47
I606
sg48
I3298
sbag0
(g23
g2
Ntp6098
Rp6099
(dp6100
g27
(dp6101
g29
Vview
p6102
sg31
VO
p6103
sg33
VNN
p6104
sg35
I5
ssg10
I607
sg36
g4
sg37
(dp6105
sg39
(dp6106
sg41
I3299
sg42
g21
sg43
g21
sg44
I607
sg45
Vview
p6107
sg47
I607
sg48
I3303
sbag0
(g23
g2
Ntp6108
Rp6109
(dp6110
g27
(dp6111
g29
Vbe
p6112
sg31
VO
p6113
sg33
VVBZ
p6114
sg35
I6
ssg10
I608
sg36
g4
sg37
(dp6115
sg39
(dp6116
sg41
I3304
sg42
g21
sg43
g21
sg44
I608
sg45
Vis
p6117
sg47
I608
sg48
I3306
sbag0
(g23
g2
Ntp6118
Rp6119
(dp6120
g27
(dp6121
g29
Vdispute
p6122
sg31
VO
p6123
sg33
VVBN
p6124
sg35
I7
ssg10
I609
sg36
g4
sg37
(dp6125
sg39
(dp6126
sg41
I3307
sg42
g21
sg43
g21
sg44
I609
sg45
Vdisputed
p6127
sg47
I609
sg48
I3315
sbag0
(g23
g2
Ntp6128
Rp6129
(dp6130
g27
(dp6131
g29
Vby
p6132
sg31
VO
p6133
sg33
VIN
p6134
sg35
I8
ssg10
I610
sg36
g4
sg37
(dp6135
sg39
(dp6136
sg41
I3316
sg42
g21
sg43
g21
sg44
I610
sg45
Vby
p6137
sg47
I610
sg48
I3318
sbag0
(g23
g2
Ntp6138
Rp6139
(dp6140
g27
(dp6141
g29
VTony
p6142
sg31
VPERSON
p6143
sg33
VNNP
p6144
sg35
I9
ssg10
I611
sg36
g4
sg37
(dp6145
sg39
(dp6146
sg41
I3319
sg42
g21
sg43
g21
sg44
I611
sg45
VTony
p6147
sg47
I611
sg48
I3323
sbag0
(g23
g2
Ntp6148
Rp6149
(dp6150
g27
(dp6151
g29
VWaters
p6152
sg31
VPERSON
p6153
sg33
VNNP
p6154
sg35
I10
ssg10
I612
sg36
g4
sg37
(dp6155
sg39
(dp6156
sg41
I3324
sg42
g21
sg43
g21
sg44
I612
sg45
VWaters
p6157
sg47
I612
sg48
I3330
sbag0
(g23
g2
Ntp6158
Rp6159
(dp6160
g27
(dp6161
g29
Vand
p6162
sg31
VO
p6163
sg33
VCC
p6164
sg35
I11
ssg10
I613
sg36
g4
sg37
(dp6165
sg39
(dp6166
sg41
I3331
sg42
g21
sg43
g21
sg44
I613
sg45
Vand
p6167
sg47
I613
sg48
I3334
sbag0
(g23
g2
Ntp6168
Rp6169
(dp6170
g27
(dp6171
g29
Vother
p6172
sg31
VO
p6173
sg33
VNNS
p6174
sg35
I12
ssg10
I614
sg36
g4
sg37
(dp6175
sg39
(dp6176
sg41
I3335
sg42
g21
sg43
g21
sg44
I614
sg45
Vothers
p6177
sg47
I614
sg48
I3341
sbag0
(g23
g2
Ntp6178
Rp6179
(dp6180
g27
(dp6181
g29
V-lsb-
p6182
sg31
VO
p6183
sg33
V-LRB-
p6184
sg35
I13
ssg10
I615
sg36
g4
sg37
(dp6185
sg39
(dp6186
sg41
I3342
sg42
g21
sg43
g21
sg44
I615
sg45
V[
p6187
sg47
I615
sg48
I3343
sbag0
(g23
g2
Ntp6188
Rp6189
(dp6190
g27
(dp6191
g29
Vref
p6192
sg31
VO
p6193
sg33
VNN
p6194
sg35
I14
ssg10
I616
sg36
g4
sg37
(dp6195
sg39
(dp6196
sg41
I3343
sg42
g21
sg43
g21
sg44
I616
sg45
VREF
p6197
sg47
I616
sg48
I3346
sbag0
(g23
g2
Ntp6198
Rp6199
(dp6200
g27
(dp6201
g29
V-rsb-
p6202
sg31
VO
p6203
sg33
V-RRB-
p6204
sg35
I15
ssg10
I617
sg36
g4
sg37
(dp6205
sg39
(dp6206
sg41
I3346
sg42
g21
sg43
g21
sg44
I617
sg45
V]
p6207
sg47
I617
sg48
I3347
sbag0
(g23
g2
Ntp6208
Rp6209
(dp6210
g27
(dp6211
g29
V.
p6212
sg31
VO
p6213
sg33
V.
p6214
sg35
I16
ssg10
I618
sg36
g4
sg37
(dp6215
sg39
(dp6216
sg41
I3347
sg42
g21
sg43
g21
sg44
I618
sg45
V.
p6217
sg47
I618
sg48
I3348
sbag0
(g23
g2
Ntp6218
Rp6219
(dp6220
g27
(dp6221
g29
Vwho
p6222
sg31
VO
p6223
sg33
VWP
p6224
sg35
I1
ssg10
I619
sg36
g4
sg37
(dp6225
sg39
(dp6226
sg41
I3349
sg42
g21
sg43
g21
sg44
I619
sg45
Vwho
p6227
sg47
I619
sg48
I3352
sbag0
(g23
g2
Ntp6228
Rp6229
(dp6230
g27
(dp6231
g29
Vpoint
p6232
sg31
VO
p6233
sg33
VVBP
p6234
sg35
I2
ssg10
I620
sg36
g4
sg37
(dp6235
sg39
(dp6236
sg41
I3353
sg42
g21
sg43
g21
sg44
I620
sg45
Vpoint
p6237
sg47
I620
sg48
I3358
sbag0
(g23
g2
Ntp6238
Rp6239
(dp6240
g27
(dp6241
g29
Vout
p6242
sg31
VO
p6243
sg33
VRP
p6244
sg35
I3
ssg10
I621
sg36
g4
sg37
(dp6245
sg39
(dp6246
sg41
I3359
sg42
g21
sg43
g21
sg44
I621
sg45
Vout
p6247
sg47
I621
sg48
I3362
sbag0
(g23
g2
Ntp6248
Rp6249
(dp6250
g27
(dp6251
g29
Vthat
p6252
sg31
VO
p6253
sg33
VIN
p6254
sg35
I4
ssg10
I622
sg36
g4
sg37
(dp6255
sg39
(dp6256
sg41
I3363
sg42
g21
sg43
g21
sg44
I622
sg45
Vthat
p6257
sg47
I622
sg48
I3367
sbag0
(g23
g2
Ntp6258
Rp6259
(dp6260
g27
(dp6261
g29
Vsome
p6262
sg31
VO
p6263
sg33
VDT
p6264
sg35
I5
ssg10
I623
sg36
g4
sg37
(dp6265
sg39
(dp6266
sg41
I3368
sg42
g21
sg43
g21
sg44
I623
sg45
Vsome
p6267
sg47
I623
sg48
I3372
sbag0
(g23
g2
Ntp6268
Rp6269
(dp6270
g27
(dp6271
g29
Vstudy
p6272
sg31
VO
p6273
sg33
VNNS
p6274
sg35
I6
ssg10
I624
sg36
g4
sg37
(dp6275
sg39
(dp6276
sg41
I3373
sg42
g21
sg43
g21
sg44
I624
sg45
Vstudies
p6277
sg47
I624
sg48
I3380
sbag0
(g23
g2
Ntp6278
Rp6279
(dp6280
g27
(dp6281
g29
Vshow
p6282
sg31
VO
p6283
sg33
VVBP
p6284
sg35
I7
ssg10
I625
sg36
g4
sg37
(dp6285
sg39
(dp6286
sg41
I3381
sg42
g21
sg43
g21
sg44
I625
sg45
Vshow
p6287
sg47
I625
sg48
I3385
sbag0
(g23
g2
Ntp6288
Rp6289
(dp6290
g27
(dp6291
g29
Vthat
p6292
sg31
VO
p6293
sg33
VIN
p6294
sg35
I8
ssg10
I626
sg36
g4
sg37
(dp6295
sg39
(dp6296
sg41
I3386
sg42
g21
sg43
g21
sg44
I626
sg45
Vthat
p6297
sg47
I626
sg48
I3390
sbag0
(g23
g2
Ntp6298
Rp6299
(dp6300
g27
(dp6301
g29
Vimmigrant
p6302
sg31
VO
p6303
sg33
VNNS
p6304
sg35
I9
ssg10
I627
sg36
g4
sg37
(dp6305
sg39
(dp6306
sg41
I3391
sg42
g21
sg43
g21
sg44
I627
sg45
Vimmigrants
p6307
sg47
I627
sg48
I3401
sbag0
(g23
g2
Ntp6308
Rp6309
(dp6310
g27
(dp6311
g29
Vin
p6312
sg31
VO
p6313
sg33
VIN
p6314
sg35
I10
ssg10
I628
sg36
g4
sg37
(dp6315
sg39
(dp6316
sg41
I3402
sg42
g21
sg43
g21
sg44
I628
sg45
Vin
p6317
sg47
I628
sg48
I3404
sbag0
(g23
g2
Ntp6318
Rp6319
(dp6320
g27
(dp6321
g29
Vthe
p6322
sg31
VO
p6323
sg33
VDT
p6324
sg35
I11
ssg10
I629
sg36
g4
sg37
(dp6325
sg39
(dp6326
sg41
I3405
sg42
g21
sg43
g21
sg44
I629
sg45
Vthe
p6327
sg47
I629
sg48
I3408
sbag0
(g23
g2
Ntp6328
Rp6329
(dp6330
g27
(dp6331
g29
VUnited
p6332
sg31
VLOCATION
p6333
sg33
VNNP
p6334
sg35
I12
ssg10
I630
sg36
g4
sg37
(dp6335
sg39
(dp6336
sg41
I3409
sg42
g21
sg43
g21
sg44
I630
sg45
VUnited
p6337
sg47
I630
sg48
I3415
sbag0
(g23
g2
Ntp6338
Rp6339
(dp6340
g27
(dp6341
g29
VStates
p6342
sg31
VLOCATION
p6343
sg33
VNNPS
p6344
sg35
I13
ssg10
I631
sg36
g4
sg37
(dp6345
sg39
(dp6346
sg41
I3416
sg42
g21
sg43
g21
sg44
I631
sg45
VStates
p6347
sg47
I631
sg48
I3422
sbag0
(g23
g2
Ntp6348
Rp6349
(dp6350
g27
(dp6351
g29
Vbe
p6352
sg31
VO
p6353
sg33
VVBP
p6354
sg35
I14
ssg10
I632
sg36
g4
sg37
(dp6355
sg39
(dp6356
sg41
I3423
sg42
g21
sg43
g21
sg44
I632
sg45
Vare
p6357
sg47
I632
sg48
I3426
sbag0
(g23
g2
Ntp6358
Rp6359
(dp6360
g27
(dp6361
g29
Voften
p6362
sg31
VO
p6363
sg33
VRB
p6364
sg35
I15
ssg10
I633
sg36
g4
sg37
(dp6365
sg39
(dp6366
sg41
I3427
sg42
g21
sg43
g21
sg44
I633
sg45
Voften
p6367
sg47
I633
sg48
I3432
sbag0
(g23
g2
Ntp6368
Rp6369
(dp6370
g27
(dp6371
g29
Vassociate
p6372
sg31
VO
p6373
sg33
VVBN
p6374
sg35
I16
ssg10
I634
sg36
g4
sg37
(dp6375
sg39
(dp6376
sg41
I3433
sg42
g21
sg43
g21
sg44
I634
sg45
Vassociated
p6377
sg47
I634
sg48
I3443
sbag0
(g23
g2
Ntp6378
Rp6379
(dp6380
g27
(dp6381
g29
Vwith
p6382
sg31
VO
p6383
sg33
VIN
p6384
sg35
I17
ssg10
I635
sg36
g4
sg37
(dp6385
sg39
(dp6386
sg41
I3444
sg42
g21
sg43
g21
sg44
I635
sg45
Vwith
p6387
sg47
I635
sg48
I3448
sbag0
(g23
g2
Ntp6388
Rp6389
(dp6390
g27
(dp6391
g29
Vlower
p6392
sg31
VO
p6393
sg33
VJJR
p6394
sg35
I18
ssg10
I636
sg36
g4
sg37
(dp6395
sg39
(dp6396
sg41
I3449
sg42
g21
sg43
g21
sg44
I636
sg45
Vlower
p6397
sg47
I636
sg48
I3454
sbag0
(g23
g2
Ntp6398
Rp6399
(dp6400
g27
(dp6401
g29
Vlevel
p6402
sg31
VO
p6403
sg33
VNNS
p6404
sg35
I19
ssg10
I637
sg36
g4
sg37
(dp6405
sg39
(dp6406
sg41
I3455
sg42
g21
sg43
g21
sg44
I637
sg45
Vlevels
p6407
sg47
I637
sg48
I3461
sbag0
(g23
g2
Ntp6408
Rp6409
(dp6410
g27
(dp6411
g29
Vof
p6412
sg31
VO
p6413
sg33
VIN
p6414
sg35
I20
ssg10
I638
sg36
g4
sg37
(dp6415
sg39
(dp6416
sg41
I3462
sg42
g21
sg43
g21
sg44
I638
sg45
Vof
p6417
sg47
I638
sg48
I3464
sbag0
(g23
g2
Ntp6418
Rp6419
(dp6420
g27
(dp6421
g29
Vcrime
p6422
sg31
VO
p6423
sg33
VNN
p6424
sg35
I21
ssg10
I639
sg36
g4
sg37
(dp6425
sg39
(dp6426
sg41
I3465
sg42
g21
sg43
g21
sg44
I639
sg45
Vcrime
p6427
sg47
I639
sg48
I3470
sbag0
(g23
g2
Ntp6428
Rp6429
(dp6430
g27
(dp6431
g29
Vthan
p6432
sg31
VO
p6433
sg33
VIN
p6434
sg35
I22
ssg10
I640
sg36
g4
sg37
(dp6435
sg39
(dp6436
sg41
I3471
sg42
g21
sg43
g21
sg44
I640
sg45
Vthan
p6437
sg47
I640
sg48
I3475
sbag0
(g23
g2
Ntp6438
Rp6439
(dp6440
g27
(dp6441
g29
Vnative
p6442
sg31
VO
p6443
sg33
VJJ
p6444
sg35
I23
ssg10
I641
sg36
g4
sg37
(dp6445
sg39
(dp6446
sg41
I3476
sg42
g21
sg43
g21
sg44
I641
sg45
Vnative
p6447
sg47
I641
sg48
I3482
sbag0
(g23
g2
Ntp6448
Rp6449
(dp6450
g27
(dp6451
g29
Vbear
p6452
sg31
VO
p6453
sg33
VVBN
p6454
sg35
I24
ssg10
I642
sg36
g4
sg37
(dp6455
sg39
(dp6456
sg41
I3483
sg42
g21
sg43
g21
sg44
I642
sg45
Vborn
p6457
sg47
I642
sg48
I3487
sbag0
(g23
g2
Ntp6458
Rp6459
(dp6460
g27
(dp6461
g29
V.
p6462
sg31
VO
p6463
sg33
V.
p6464
sg35
I25
ssg10
I643
sg36
g4
sg37
(dp6465
sg39
(dp6466
sg41
I3487
sg42
g21
sg43
g21
sg44
I643
sg45
V.
p6467
sg47
I643
sg48
I3488
sbasS'Document'
p6468
(lp6469
g4
asS'doc-features'
p6470
g14
sS'Sentence'
p6471
(lp6472
g0
(g23
g2
Ntp6473
Rp6474
(dp6475
g27
(dp6476
S'dep-parse'
p6477
S'not implemented!'
p6478
sg35
I0
sS'constituency-parse'
p6479
V(ROOT\u000a  (NP (. .)))
p6480
ssg10
I0
sg36
g4
sg37
(dp6481
sg39
(dp6482
S'tokens'
p6483
(lp6484
g25
assg41
I0
sg42
g6471
sg43
g6471
sg44
I0
sg45
V.
p6485
sg47
I1
sg48
I1
sbag0
(g23
g2
Ntp6486
Rp6487
(dp6488
g27
(dp6489
g6477
g6478
sg35
I1
sg6479
V(ROOT\u000a  (S\u000a    (NP\u000a      (NP (NNP Immigration))\u000a      (CC and)\u000a      (NP (NN crime)))\u000a    (VP (VBZ refers)\u000a      (PP (TO to)\u000a        (NP\u000a          (NP (VBN perceived)\u000a            (CC or)\u000a            (JJ actual) (NNS relationships))\u000a          (PP (IN between)\u000a            (NP (NN crime)\u000a              (CC and)\u000a              (NN immigration))))))\u000a    (. .)))
p6490
ssg10
I1
sg36
g4
sg37
(dp6491
sg39
(dp6492
g6483
(lp6493
g50
ag60
ag70
ag80
ag90
ag100
ag110
ag120
ag130
ag140
ag150
ag160
ag170
ag180
assg41
I3
sg42
g6471
sg43
g6471
sg44
I1
sg45
V\u000a\u000aImmigration and crime refers to perceived or actual relationships between crime and immigration.
p6494
sg47
I15
sg48
I99
sbag0
(g23
g2
Ntp6495
Rp6496
(dp6497
g27
(dp6498
g6477
g6478
sg35
I2
sg6479
V(ROOT\u000a  (SINV\u000a    (S\u000a      (S\u000a        (NP\u000a          (NP (DT The) (NN Handbook))\u000a          (PP (IN of)\u000a            (NP (NN Crime))))\u000a        (VP (VBZ Correlates)\u000a          (PRN (-LRB- -LRB-)\u000a            (NP-TMP (CD 2009))\u000a            (-RRB- -RRB-))))\u000a      (, ,)\u000a      (S\u000a        (NP\u000a          (NP (DT a) (NN review))\u000a          (PP (IN of)\u000a            (NP\u000a              (NP (NNS studies))\u000a              (PP (IN of)))))\u000a        (VP (VBZ correlates)\u000a          (PP (IN with)\u000a            (NP (NN crime))))))\u000a    (, ,)\u000a    (VP (VBZ states)\u000a      (SBAR (IN that)\u000a        (S\u000a          (NP\u000a            (NP (JJS most) (NNS studies))\u000a            (PP (IN on)\u000a              (NP (NNS immigrants))))\u000a          (VP (VBP have)\u000a            (VP (VBN found))))))\u000a    (NP\u000a      (NP (JJR higher) (NNS rates))\u000a      (PP (IN of)\u000a        (NP (NN crime))))\u000a    (. .)))
p6499
ssg10
I2
sg36
g4
sg37
(dp6500
sg39
(dp6501
g6483
(lp6502
g190
ag200
ag210
ag220
ag230
ag240
ag250
ag260
ag270
ag280
ag290
ag300
ag310
ag320
ag330
ag340
ag350
ag360
ag370
ag380
ag390
ag400
ag410
ag420
ag430
ag440
ag450
ag460
ag470
ag480
ag490
assg41
I101
sg42
g6471
sg43
g6471
sg44
I15
sg45
V\u000a\u000aThe Handbook of Crime Correlates (2009), a review of studies of correlates with crime, states that most studies on immigrants have found higher rates of crime.
p6503
sg47
I46
sg48
I260
sbag0
(g23
g2
Ntp6504
Rp6505
(dp6506
g27
(dp6507
g6477
g6478
sg35
I3
sg6479
V(ROOT\u000a  (S\u000a    (ADVP (RB However))\u000a    (, ,)\u000a    (NP (DT this))\u000a    (VP (VBZ varies)\u000a      (ADVP (RB greatly))\u000a      (PP (VBG depending)\u000a        (PP (IN on)\u000a          (S\u000a            (NP\u000a              (NP (DT the) (NN country))\u000a              (PP (IN of)\u000a                (NP\u000a                  (NP (NN origin))\u000a                  (PP (IN with)\u000a                    (NP\u000a                      (NP (NNS immigrants))\u000a                      (PP (IN from)\u000a                        (NP (DT some) (NNS regions))))))))\u000a            (VP (VBG having)\u000a              (NP (JJR lower) (NN crime) (NNS rates))\u000a              (PP (IN than)\u000a                (NP\u000a                  (NP (DT the) (JJ indigenous) (NN population))\u000a                  (PP (-LRB- -LSB-)\u000a                    (NP (NN REF) (-RRB- -RSB-))))))))))\u000a    (. .)))
p6508
ssg10
I3
sg36
g4
sg37
(dp6509
sg39
(dp6510
g6483
(lp6511
g500
ag510
ag520
ag530
ag540
ag550
ag560
ag570
ag580
ag590
ag600
ag610
ag620
ag630
ag640
ag650
ag660
ag670
ag680
ag690
ag700
ag710
ag720
ag730
ag740
ag750
ag760
ag770
assg41
I261
sg42
g6471
sg43
g6471
sg44
I46
sg45
V However, this varies greatly depending on the country of origin with immigrants from some regions having lower crime rates than the indigenous population [REF].
p6512
sg47
I74
sg48
I421
sbag0
(g23
g2
Ntp6513
Rp6514
(dp6515
g27
(dp6516
g6477
g6478
sg35
I4
sg6479
V(ROOT\u000a  (NP\u000a    (NP (DT A) (`` ``)\u000a      (ADJP (JJ new) (JJ anti-immigrant))\u000a      ('' '') (NN movement))\u000a    (VP (VBZ has)\u000a      (VP (VBN become)\u000a        (ADJP (JJ apparent))\u000a        (PP (IN in)\u000a          (NP (DT some)))))\u000a    (NP\u000a      (NP (JJ European) (NNS countries))\u000a      (, ,)\u000a      (NP (RB especially) (DT the) (NNP Netherlands))\u000a      (, ,)\u000a      (NP (NNP Scandinavia))\u000a      (, ,)\u000a      (CC and)\u000a      (NP (NNP Switzerland)))\u000a    (, ,)\u000a    (PP (IN during)\u000a      (NP (DT the) (JJ early) (JJ 21st) (NN century)))\u000a    (. .)))
p6517
ssg10
I4
sg36
g4
sg37
(dp6518
sg39
(dp6519
g6483
(lp6520
g780
ag790
ag800
ag810
ag820
ag829
ag839
ag849
ag859
ag869
ag879
ag889
ag899
ag909
ag919
ag929
ag939
ag949
ag959
ag969
ag979
ag989
ag999
ag1009
ag1019
ag1029
ag1039
ag1049
ag1059
assg41
I423
sg42
g6471
sg43
g6471
sg44
I74
sg45
V\u000a\u000aA "new anti-immigrant" movement has become apparent in some European countries, especially the Netherlands, Scandinavia, and Switzerland, during the early 21st century.
p6521
sg47
I103
sg48
I591
sbag0
(g23
g2
Ntp6522
Rp6523
(dp6524
g27
(dp6525
g6477
g6478
sg35
I5
sg6479
V(ROOT\u000a  (S\u000a    (NP\u000a      (NP (DT The) (NN issue))\u000a      (PP (IN of)\u000a        (NP (JJ immigrant) (NN crime))))\u000a    (VP (VBZ plays)\u000a      (NP\u000a        (NP (DT an) (JJ important) (NN role))\u000a        (PP (IN in)\u000a          (NP\u000a            (NP (DT the) (JJ political) (NN debate))\u000a            (PP (IN in)\u000a              (NP (DT these) (NNS countries) (-LRB- -LSB-) (NN REF) (-RRB- -RSB-)))))))\u000a    (. .)))
p6526
ssg10
I5
sg36
g4
sg37
(dp6527
sg39
(dp6528
g6483
(lp6529
g1069
ag1079
ag1089
ag1099
ag1109
ag1119
ag1129
ag1139
ag1149
ag1159
ag1169
ag1179
ag1189
ag1199
ag1209
ag1219
ag1229
ag1239
ag1249
ag1259
assg41
I592
sg42
g6471
sg43
g6471
sg44
I103
sg45
V The issue of immigrant crime plays an important role in the political debate in these countries [REF].
p6530
sg47
I123
sg48
I694
sbag0
(g23
g2
Ntp6531
Rp6532
(dp6533
g27
(dp6534
g6477
g6478
sg35
I6
sg6479
V(ROOT\u000a  (S\u000a    (NP (NNS Immigrants))\u000a    (VP (VBP are)\u000a      (VP (VBN overrepresented)\u000a        (PP (IN in)\u000a          (NP\u000a            (NP (NNP Sweden) (POS 's))\u000a            (NN crime) (NNS statistics)))))\u000a    (. .)))
p6535
ssg10
I6
sg36
g4
sg37
(dp6536
sg39
(dp6537
g6483
(lp6538
g1269
ag1279
ag1289
ag1299
ag1309
ag1319
ag1329
ag1339
ag1349
assg41
I696
sg42
g6471
sg43
g6471
sg44
I123
sg45
V\u000a\u000aImmigrants are overrepresented in Sweden's crime statistics.
p6539
sg47
I132
sg48
I756
sbag0
(g23
g2
Ntp6540
Rp6541
(dp6542
g27
(dp6543
g6477
g6478
sg35
I7
sg6479
V(ROOT\u000a  (S\u000a    (PP (IN During)\u000a      (NP (DT the) (NN period) (CD 1997-2001)))\u000a    (, ,)\u000a    (NP\u000a      (NP (CD 25) (NN %))\u000a      (PP (IN of)\u000a        (NP (DT the)\u000a          (QP (RB almost) (CD 1,520,000))\u000a          (NNS offences))))\u000a    (VP (VBD were)\u000a      (VP (VBN committed)\u000a        (PP (IN by)\u000a          (NP\u000a            (NP (NNS people))\u000a            (VP (VBN born)\u000a              (ADVP (RB abroad))\u000a              (, ,)\u000a              (SBAR (IN while)\u000a                (S\u000a                  (NP\u000a                    (QP (RB almost) (CD 20))\u000a                    (NN %))\u000a                  (VP (VBD were)\u000a                    (VP (VBN committed)\u000a                      (PP (IN by)\u000a                        (NP (JJ Swedish-born) (NNS people)))\u000a                      (PP (IN with)\u000a                        (NP (DT a) (JJ foreign) (NN background))))))))))))\u000a    (. .)))
p6544
ssg10
I7
sg36
g4
sg37
(dp6545
sg39
(dp6546
g6483
(lp6547
g1359
ag1369
ag1379
ag1389
ag1399
ag1409
ag1419
ag1429
ag1439
ag1449
ag1459
ag1469
ag1479
ag1489
ag1499
ag1509
ag1519
ag1529
ag1539
ag1549
ag1559
ag1569
ag1579
ag1589
ag1599
ag1609
ag1619
ag1629
ag1639
ag1649
ag1659
ag1669
ag1679
assg41
I757
sg42
g6471
sg43
g6471
sg44
I132
sg45
V During the period 1997-2001, 25% of the almost 1,520,000 offences were committed by people born abroad, while almost 20% were committed by Swedish-born people with a foreign background.
p6548
sg47
I165
sg48
I942
sbag0
(g23
g2
Ntp6549
Rp6550
(dp6551
g27
(dp6552
g6477
g6478
sg35
I8
sg6479
V(ROOT\u000a  (S\u000a    (NP (-LRB- -LSB-) (NN REF))\u000a    (VP (-RRB- -RSB-))\u000a    (. .)))
p6553
ssg10
I8
sg36
g4
sg37
(dp6554
sg39
(dp6555
g6483
(lp6556
g1689
ag1699
ag1709
ag1719
assg41
I944
sg42
g6471
sg43
g6471
sg44
I165
sg45
V \u000a[REF] .
p6557
sg47
I169
sg48
I951
sbag0
(g23
g2
Ntp6558
Rp6559
(dp6560
g27
(dp6561
g6477
g6478
sg35
I9
sg6479
V(ROOT\u000a  (S\u000a    (PP (IN In)\u000a      (NP (NNP Switzerland)))\u000a    (, ,)\u000a    (NP\u000a      (NP (CD 69.7) (NN %))\u000a      (PP (IN of)\u000a        (NP (NN prison) (NN population))))\u000a    (VP (VBD had)\u000a      (NP (DT no) (JJ Swiss) (NN citizenship))\u000a      (, ,)\u000a      (PP (VBN compared)\u000a        (PP (TO to)\u000a          (NP\u000a            (NP (CD 22.1) (NN %))\u000a            (PP (IN of)\u000a              (NP\u000a                (NP (JJ total) (JJ resident) (NN population))\u000a                (PRN (-LRB- -LRB-)\u000a                  (PP (IN as)\u000a                    (PP (IN of)\u000a                      (NP (CD 2008))))\u000a                  (-RRB- -RRB-))))))))\u000a    (. .)))
p6562
ssg10
I9
sg36
g4
sg37
(dp6563
sg39
(dp6564
g6483
(lp6565
g1729
ag1739
ag1749
ag1759
ag1769
ag1779
ag1789
ag1799
ag1809
ag1819
ag1829
ag1839
ag1849
ag1859
ag1869
ag1879
ag1889
ag1899
ag1909
ag1919
ag1929
ag1939
ag1949
ag1959
ag1969
ag1979
ag1989
assg41
I953
sg42
g6471
sg43
g6471
sg44
I169
sg45
V\u000a\u000aIn Switzerland, 69.7% of prison population had no Swiss citizenship, compared to 22.1% of total resident population (as of 2008).
p6566
sg47
I196
sg48
I1082
sbag0
(g23
g2
Ntp6567
Rp6568
(dp6569
g27
(dp6570
g6477
g6478
sg35
I10
sg6479
V(ROOT\u000a  (S\u000a    (NP\u000a      (NP (DT The) (NN figure))\u000a      (PP (IN of)\u000a        (NP\u000a          (NP (NNS arrests))\u000a          (PP (IN by)\u000a            (NP (NN residence) (NN status))))))\u000a    (VP (VBZ is) (RB not)\u000a      (VP\u000a        (ADVP (RB usually))\u000a        (VBN made)\u000a        (S\u000a          (ADJP (NN public)))))\u000a    (. .)))
p6571
ssg10
I10
sg36
g4
sg37
(dp6572
sg39
(dp6573
g6483
(lp6574
g1999
ag2009
ag2019
ag2029
ag2039
ag2049
ag2059
ag2069
ag2079
ag2089
ag2099
ag2109
ag2119
assg41
I1084
sg42
g6471
sg43
g6471
sg44
I196
sg45
V \u000aThe figure of arrests by residence status is not usually made public.
p6575
sg47
I209
sg48
I1153
sbag0
(g23
g2
Ntp6576
Rp6577
(dp6578
g27
(dp6579
g6477
g6478
sg35
I11
sg6479
V(X (IN As) (IN in) (CD 1997) (DT the) (NN conviction) (NN rate) (IN of) (JJ Swiss) (NNS citizens) (VBD fell) (IN below) (CD 50) (NN %) (IN for) (DT the) (JJ first) (NN time) (, ,) (DT a) (JJ special) (NN report) (VBD was) (VBN compiled) (IN by) (DT the) (NNP Federal) (NNP Department) (IN of) (NNP Justice)\u000a  (CC and)\u000a  (NNP Police) (-LRB- -LRB-) (VBN published) (IN in) (CD 2001) (-RRB- -RRB-) (WDT which) (IN for) (DT the) (NN year) (CD 1998) (VBD found) (DT an) (NN arrest) (NN rate) (IN per) (CD 1000) (JJ adult) (NN population) (IN of) (CD 2.3) (IN for) (JJ Swiss) (NNS citizens) (, ,) (CD 4.2) (IN for) (RB legally) (JJ resident) (NNS aliens)\u000a  (CC and)\u000a  (CD 32) (IN for) (NN asylum) (NNS seekers) (. .))
p6580
ssg10
I11
sg36
g4
sg37
(dp6581
sg39
(dp6582
g6483
(lp6583
g2129
ag2139
ag2149
ag2159
ag2169
ag2179
ag2189
ag2199
ag2209
ag2219
ag2229
ag2239
ag2249
ag2259
ag2269
ag2279
ag2289
ag2299
ag2309
ag2319
ag2329
ag2339
ag2349
ag2359
ag2369
ag2379
ag2389
ag2399
ag2409
ag2419
ag2429
ag2439
ag2449
ag2459
ag2469
ag2479
ag2489
ag2499
ag2509
ag2519
ag2529
ag2539
ag2549
ag2559
ag2569
ag2579
ag2589
ag2599
ag2609
ag2619
ag2629
ag2639
ag2649
ag2659
ag2669
ag2679
ag2689
ag2699
ag2709
ag2719
ag2729
ag2739
ag2749
ag2759
ag2769
ag2779
assg41
I1154
sg42
g6471
sg43
g6471
sg44
I209
sg45
V As in 1997 the conviction rate of Swiss citizens fell below 50% for the first time, a special report was compiled by the Federal Department of Justice and Police (published in 2001) which for the year 1998 found an arrest rate per 1000 adult population of 2.3 for Swiss citizens, 4.2 for legally resident aliens and 32 for asylum seekers.
p6584
sg47
I275
sg48
I1492
sbag0
(g23
g2
Ntp6585
Rp6586
(dp6587
g27
(dp6588
g6477
g6478
sg35
I12
sg6479
V(ROOT\u000a  (S\u000a    (NP\u000a      (NP (CD 21) (NN %))\u000a      (PP (IN of)\u000a        (NP (NNS arrests))))\u000a    (VP\u000a      (VP (VBN made)\u000a        (NP (JJ concerned) (NNS individuals))\u000a        (PP (IN with)\u000a          (NP\u000a            (NP (DT no) (NN residence) (NN status))\u000a            (, ,)\u000a            (SBAR\u000a              (WHNP (WP who))\u000a              (S\u000a                (VP (VBD were)\u000a                  (ADVP (RB thus)\u000a                    (CC either)\u000a                    (RB sans))\u000a                  (NP (NNS papiers))))))))\u000a      (CC or)\u000a      (VP\u000a        (NP (`` ``)\u000a          (NP (NN crime) (NNS tourists))\u000a          ('' '')\u000a          (PP (IN without)\u000a            (NP (DT any) (JJ permanent) (NN residence))))\u000a        (PP (IN in)\u000a          (NP (NNP Switzerland) (-LRB- -LSB-) (NNP REF) (-RRB- -RSB-)))))\u000a    (. .)))
p6589
ssg10
I12
sg36
g4
sg37
(dp6590
sg39
(dp6591
g6483
(lp6592
g2789
ag2799
ag2809
ag2819
ag2829
ag2839
ag2849
ag2859
ag2869
ag2879
ag2889
ag2899
ag2909
ag2919
ag2929
ag2939
ag2949
ag2959
ag2969
ag2979
ag2988
ag2998
ag3008
ag3017
ag3027
ag3037
ag3047
ag3057
ag3067
ag3077
ag3087
ag3097
ag3107
assg41
I1494
sg42
g6471
sg43
g6471
sg44
I275
sg45
V \u000a21% of arrests made concerned individuals with no residence status, who were thus either sans papiers or "crime tourists" without any permanent residence in Switzerland [REF].
p6593
sg47
I308
sg48
I1669
sbag0
(g23
g2
Ntp6594
Rp6595
(dp6596
g27
(dp6597
g6477
g6478
sg35
I13
sg6479
V(ROOT\u000a  (S\u000a    (NP\u000a      (NP\u000a        (NP (DT The) (NN term))\u000a        (PRN (-LRB- -LRB-) (`` ``)\u000a          (NP (NN foreigner) (NN criminality))\u000a          ('' '') (-RRB- -RRB-)))\u000a      (PP (IN since)\u000a        (NP (DT the) (CD 1990s))))\u000a    (VP (VBZ has)\u000a      (VP (VBN become)\u000a        (NP (DT a)\u000a          (ADJP (RB politically) (VBN charged))\u000a          (NN term)))\u000a      (, ,)\u000a      (PP (IN with)\u000a        (S\u000a          (NP\u000a            (NP (DT the) (JJ populist) (`` ``) (JJ black) (NN sheep) ('' '') (NN campaign))\u000a            (PP (IN for)\u000a              (NP\u000a                (NP (DT the) (`` ``) (NN initiative))\u000a                (PP (IN for)\u000a                  (NP\u000a                    (NP (DT the) (NN extradition))\u000a                    (PP (IN of)\u000a                      (NP\u000a                        (NP (JJ criminal) (NNS foreigners))\u000a                        ('' '')\u000a                        (PP (IN of)\u000a                          (NP\u000a                            (NP (DT the) (JJ Swiss) (NNS People) (POS 's))\u000a                            (NNP Party))))))))))\u000a          (VP (VBG making)\u000a            (NP (JJ international) (NNS headlines))\u000a            (PP (IN in)\u000a              (NP (NNP September) (CD 2007)))))))\u000a    (. .)))
p6598
ssg10
I13
sg36
g4
sg37
(dp6599
sg39
(dp6600
g6483
(lp6601
g3117
ag3127
ag3137
ag3147
ag3156
ag3166
ag3176
ag3185
ag3195
ag3205
ag3215
ag3225
ag3235
ag3245
ag3255
ag3265
ag3275
ag3285
ag3295
ag3305
ag3315
ag3325
ag3334
ag3344
ag3354
ag3363
ag3373
ag3383
ag3393
ag3402
ag3412
ag3422
ag3432
ag3442
ag3452
ag3462
ag3472
ag3481
ag3491
ag3501
ag3511
ag3521
ag3531
ag3541
ag3551
ag3561
ag3571
ag3581
ag3591
ag3601
assg41
I1672
sg42
g6471
sg43
g6471
sg44
I308
sg45
V \u000a\u000aThe term ("foreigner criminality") since the 1990s has become a politically charged term, with the populist "black sheep" campaign for the "initiative for the extradition of criminal foreigners" of the Swiss People's Party making international headlines in September 2007.
p6602
sg47
I358
sg48
I1944
sbag0
(g23
g2
Ntp6603
Rp6604
(dp6605
g27
(dp6606
g6477
g6478
sg35
I14
sg6479
V(ROOT\u000a  (S\u000a    (PP (IN In)\u000a      (NP (NNP April) (CD 2010)))\u000a    (, ,)\u000a    (NP\u000a      (NP (DT the) (NN director))\u000a      (PP (IN of)\u000a        (NP\u000a          (NP\u000a            (NP (DT the) (NNP Federal) (NNP Office))\u000a            (PP (IN for)\u000a              (NP (NNP Migration))))\u000a          (PRN (-LRB- -LRB-)\u000a            (NP (NNP BFM))\u000a            (-RRB- -RRB-))\u000a          (, ,)\u000a          (NP (NNP Alard) (NNP du) (NNP Bois-Reymond))\u000a          (, ,))))\u000a    (VP (VBD issued)\u000a      (NP (DT a) (NN statement))\u000a      (PP (IN on)\u000a        (NP\u000a          (NP (DT the) (JJ large) (NN number))\u000a          (PP (IN of)\u000a            (NP\u000a              (NP (JJ unfounded) (NNS requests))\u000a              (PP (IN for)\u000a                (NP (NN asylum)))))))\u000a      (PP (IN by)\u000a        (NP\u000a          (NP (NNS nationals))\u000a          (PP (IN of)\u000a            (NP (NNP Nigeria)))))\u000a      (PP (IN in)\u000a        (ADJP (JJ particular))))\u000a    (. .)))
p6607
ssg10
I14
sg36
g4
sg37
(dp6608
sg39
(dp6609
g6483
(lp6610
g3611
ag3621
ag3631
ag3641
ag3651
ag3661
ag3671
ag3681
ag3691
ag3701
ag3711
ag3721
ag3731
ag3741
ag3751
ag3761
ag3771
ag3781
ag3791
ag3801
ag3811
ag3821
ag3831
ag3841
ag3851
ag3861
ag3871
ag3881
ag3891
ag3901
ag3911
ag3921
ag3931
ag3941
ag3951
ag3961
ag3971
ag3981
ag3991
assg41
I1947
sg42
g6471
sg43
g6471
sg44
I358
sg45
V \u000a\u000aIn April 2010, the director of the Federal Office for Migration (BFM), Alard du Bois-Reymond, issued a statement on the large number of unfounded requests for asylum by nationals of Nigeria in particular.
p6611
sg47
I397
sg48
I2151
sbag0
(g23
g2
Ntp6612
Rp6613
(dp6614
g27
(dp6615
g6477
g6478
sg35
I15
sg6479
V(ROOT\u000a  (S\u000a    (NP (NNP Du) (NNP Bois-Reymond))\u000a    (VP (VBD said)\u000a      (SBAR (IN that)\u000a        (S\u000a          (NP\u000a            (NP (CD 99.5) (NN %))\u000a            (PP (IN of)\u000a              (NP\u000a                (NP (NN asylum) (NNS seekers))\u000a                (PP (IN of)\u000a                  (NP (JJ Nigerian) (NN origin))))))\u000a          (VP (VBD were)\u000a            (VP (VBG abusing)\u000a              (NP (DT the) (NN asylum) (NN system))))))\u000a      (, ,)\u000a      (S\u000a        (VP (VBG entering)\u000a          (NP\u000a            (NP (NNP Switzerland))\u000a            (PP (IN with)\u000a              (NP\u000a                (NP (DT the) (NN intention))\u000a                (PP (IN of)\u000a                  (S\u000a                    (VP (VBG pursuing)\u000a                      (NP\u000a                        (NP (JJ petty) (NN crime)\u000a                          (CC and)\u000a                          (NN drug) (NN dealing))\u000a                        (PP (-LRB- -LSB-)\u000a                          (NP (NN REF) (-RRB- -RSB-)))))))))))))\u000a    (. .)))
p6616
ssg10
I15
sg36
g4
sg37
(dp6617
sg39
(dp6618
g6483
(lp6619
g4001
ag4011
ag4021
ag4031
ag4041
ag4051
ag4061
ag4071
ag4081
ag4091
ag4101
ag4111
ag4121
ag4131
ag4141
ag4151
ag4161
ag4171
ag4181
ag4191
ag4201
ag4211
ag4221
ag4231
ag4241
ag4251
ag4261
ag4271
ag4281
ag4291
ag4301
ag4311
ag4321
ag4331
assg41
I2153
sg42
g6471
sg43
g6471
sg44
I397
sg45
V \u000aDu Bois-Reymond said that 99.5% of asylum seekers of Nigerian origin were abusing the asylum system, entering Switzerland with the intention of pursuing petty crime and drug dealing [REF].
p6620
sg47
I431
sg48
I2341
sbag0
(g23
g2
Ntp6621
Rp6622
(dp6623
g27
(dp6624
g6477
g6478
sg35
I16
sg6479
V(ROOT\u000a  (S\u000a    (NP\u000a      (NP\u000a        (NP (DT The) (JJ Nigerian) (NN ambassador))\u000a        (PP (TO to)\u000a          (NP (NNP Switzerland))))\u000a      (, ,)\u000a      (NP (NNP Martin) (NNP Ihoeghian) (NNP Uhomoibhi))\u000a      (, ,))\u000a    (VP (VBD objected)\u000a      (PP (TO to)\u000a        (NP\u000a          (NP (NNP du) (NNP Boi-Reymond) (POS 's))\u000a          (NN statement)))\u000a      (PP (IN as)\u000a        (NP\u000a          (NP (DT an) (JJ undue) (NN generalization))\u000a          (PP (-LRB- -LSB-)\u000a            (NP (NN REF) (-RRB- -RSB-))))))\u000a    (. .)))
p6625
ssg10
I16
sg36
g4
sg37
(dp6626
sg39
(dp6627
g6483
(lp6628
g4341
ag4351
ag4361
ag4371
ag4381
ag4391
ag4401
ag4411
ag4421
ag4431
ag4441
ag4451
ag4461
ag4471
ag4481
ag4491
ag4501
ag4511
ag4521
ag4531
ag4541
ag4551
ag4561
ag4571
assg41
I2342
sg42
g6471
sg43
g6471
sg44
I431
sg45
V\u000aThe Nigerian ambassador to Switzerland, Martin Ihoeghian Uhomoibhi, objected to du Boi-Reymond's statement as an undue generalization [REF].
p6629
sg47
I455
sg48
I2482
sbag0
(g23
g2
Ntp6630
Rp6631
(dp6632
g27
(dp6633
g6477
g6478
sg35
I17
sg6479
V(ROOT\u000a  (S\u000a    (NP (PRP It))\u000a    (VP (VBD was)\u000a      (VP (VBN reported)\u000a        (PP (IN in)\u000a          (NP\u000a            (NP (CD 2007))\u000a            (SBAR\u000a              (WHNP (WDT that))\u000a              (S\u000a                (NP\u000a                  (NP\u000a                    (QP (JJR more) (IN than) (NN one-fifth)))\u000a                  (PP (IN of)\u000a                    (NP\u000a                      (NP (NN crime))\u000a                      (PP (IN in)\u000a                        (NP (NNP London))))))\u000a                (VP (VBD was)\u000a                  (VP (VBN committed)\u000a                    (PP (IN by)\u000a                      (NP\u000a                        (NP (NNS immigrants))\u000a                        (PP (-LRB- -LSB-)\u000a                          (NP (NN REF) (-RRB- -RSB-)))))))))))))\u000a    (. .)))
p6634
ssg10
I17
sg36
g4
sg37
(dp6635
sg39
(dp6636
g6483
(lp6637
g4581
ag4591
ag4601
ag4611
ag4621
ag4631
ag4641
ag4651
ag4661
ag4671
ag4681
ag4691
ag4701
ag4711
ag4721
ag4731
ag4741
ag4751
ag4761
ag4771
ag4781
assg41
I2484
sg42
g6471
sg43
g6471
sg44
I455
sg45
V\u000a\u000aIt was reported in 2007 that more than one-fifth of crime in London was committed by immigrants [REF].
p6638
sg47
I476
sg48
I2586
sbag0
(g23
g2
Ntp6639
Rp6640
(dp6641
g27
(dp6642
g6477
g6478
sg35
I18
sg6479
V(ROOT\u000a  (S\u000a    (NP (DT A) (CD 2008) (NN study))\u000a    (VP (VBD found)\u000a      (SBAR (IN that)\u000a        (S\u000a          (NP\u000a            (NP (DT the) (NN crime) (NN rate))\u000a            (PP (IN of)\u000a              (NP (JJ Eastern) (JJ European) (NNS immigrants))))\u000a          (VP (VBD was)\u000a            (NP\u000a              (NP (DT the) (JJ same))\u000a              (PP (IN as)\u000a                (NP\u000a                  (NP (DT that))\u000a                  (PP (IN of)\u000a                    (NP\u000a                      (NP (DT the) (JJ indigenous) (NN population))\u000a                      (PP (-LRB- -LSB-)\u000a                        (NP (NN REF) (-RRB- -RSB-))))))))))))\u000a    (. .)))
p6643
ssg10
I18
sg36
g4
sg37
(dp6644
sg39
(dp6645
g6483
(lp6646
g4791
ag4801
ag4811
ag4821
ag4831
ag4841
ag4851
ag4861
ag4871
ag4881
ag4891
ag4901
ag4911
ag4921
ag4931
ag4941
ag4951
ag4961
ag4971
ag4981
ag4991
ag5001
ag5011
ag5021
ag5031
assg41
I2587
sg42
g6471
sg43
g6471
sg44
I476
sg45
V A 2008 study found that the crime rate of Eastern European immigrants was the same as that of the indigenous population [REF].
p6647
sg47
I501
sg48
I2713
sbag0
(g23
g2
Ntp6648
Rp6649
(dp6650
g27
(dp6651
g6477
g6478
sg35
I19
sg6479
V(ROOT\u000a  (S\u000a    (NP\u000a      (NP (DT The) (NN Handbook))\u000a      (PP (IN of)\u000a        (NP (NN Crime))))\u000a    (VP (VBZ Correlates)\u000a      (NP\u000a        (NP (NNS states))\u000a        (SBAR\u000a          (WHNP (WDT that))\u000a          (S\u000a            (PP (IN unlike)\u000a              (NP\u000a                (NP (NNS studies))\u000a                (PP (IN outside)\u000a                  (NP (DT the) (NNP US)))))\u000a            (, ,)\u000a            (NP\u000a              (NP (DT a) (NN majority))\u000a              (PP (IN of)\u000a                (NP\u000a                  (NP (NNS studies))\u000a                  (PP (IN in)\u000a                    (NP (DT the) (NNP US))))))\u000a            (VP (VBP have)\u000a              (VP (VBN found)\u000a                (NP\u000a                  (NP (JJR lower) (NN crime) (NNS rates))\u000a                  (PP (IN among)\u000a                    (NP (NNS immigrants))))\u000a                (PP (IN than)\u000a                  (PP (IN among)\u000a                    (NP (NNS non-immigrants))))))))))\u000a    (. .)))
p6652
ssg10
I19
sg36
g4
sg37
(dp6653
sg39
(dp6654
g6483
(lp6655
g5041
ag5051
ag5061
ag5071
ag5081
ag5091
ag5101
ag5111
ag5121
ag5131
ag5141
ag5151
ag5161
ag5171
ag5181
ag5191
ag5201
ag5211
ag5221
ag5231
ag5241
ag5251
ag5261
ag5271
ag5281
ag5291
ag5301
ag5311
ag5321
ag5331
ag5341
assg41
I2715
sg42
g6471
sg43
g6471
sg44
I501
sg45
V\u000a\u000aThe Handbook of Crime Correlates states that unlike studies outside the US, a majority of studies in the US have found lower crime rates among immigrants than among non-immigrants.
p6656
sg47
I532
sg48
I2895
sbag0
(g23
g2
Ntp6657
Rp6658
(dp6659
g27
(dp6660
g6477
g6478
sg35
I20
sg6479
V(ROOT\u000a  (S\u000a    (ADVP (RB Again))\u000a    (, ,)\u000a    (NP\u000a      (NP (DT the) (NN country))\u000a      (PP (IN of)\u000a        (NP (NN origin))))\u000a    (VP (MD may)\u000a      (VP (VB be)\u000a        (ADJP (RBR more) (JJ important)\u000a          (PP (IN than)\u000a            (NP\u000a              (NP (JJ immigrant) (NN status))\u000a              (SBAR\u000a                (S\u000a                  (NP (PRP itself))\u000a                  (VP (-LRB- -LSB-)\u000a                    (NP (NN REF) (-RRB- -RSB-))))))))))\u000a    (. .)))
p6661
ssg10
I20
sg36
g4
sg37
(dp6662
sg39
(dp6663
g6483
(lp6664
g5351
ag5361
ag5371
ag5381
ag5391
ag5401
ag5411
ag5421
ag5431
ag5441
ag5451
ag5461
ag5471
ag5481
ag5491
ag5501
ag5511
ag5521
assg41
I2896
sg42
g6471
sg43
g6471
sg44
I532
sg45
V Again, the country of origin may be more important than immigrant status itself [REF].
p6665
sg47
I550
sg48
I2982
sbag0
(g23
g2
Ntp6666
Rp6667
(dp6668
g27
(dp6669
g6477
g6478
sg35
I21
sg6479
V(ROOT\u000a  (S\u000a    (NP\u000a      (NP (DT The) (NNP Center))\u000a      (PP (IN for)\u000a        (NP\u000a          (NP (NNP Immigration) (NNS Studies))\u000a          (PP (IN in)\u000a            (NP (DT a) (CD 2009) (NN report))))))\u000a    (VP (VBD argued)\u000a      (SBAR (IN that) (`` ``)\u000a        (S\u000a          (NP (JJ New) (NN government) (NNS data))\u000a          (VP (VBP indicate)\u000a            (SBAR (IN that)\u000a              (S\u000a                (NP (NNS immigrants))\u000a                (VP (VBP have)\u000a                  (NP\u000a                    (NP (JJ high) (NNS rates))\u000a                    (PP (IN of)\u000a                      (NP (NN criminality))))\u000a                  (, ,)\u000a                  (SBAR (IN while)\u000a                    (S\u000a                      (NP\u000a                        (ADJP (JJR older) (JJ academic))\u000a                        (NN research))\u000a                      (VP (VBD found)\u000a                        (NP (JJ low) (NNS rates))))))))))))\u000a    (. .)))
p6670
ssg10
I21
sg36
g4
sg37
(dp6671
sg39
(dp6672
g6483
(lp6673
g5531
ag5541
ag5551
ag5561
ag5571
ag5581
ag5591
ag5601
ag5611
ag5621
ag5631
ag5641
ag5650
ag5660
ag5670
ag5680
ag5690
ag5700
ag5710
ag5720
ag5730
ag5740
ag5750
ag5760
ag5770
ag5780
ag5790
ag5800
ag5810
ag5820
ag5830
ag5840
assg41
I2985
sg42
g6471
sg43
g6471
sg44
I550
sg45
V \u000a\u000aThe Center for Immigration Studies in a 2009 report argued that "New government data indicate that immigrants have high rates of criminality, while older academic research found low rates.
p6674
sg47
I582
sg48
I3173
sbag0
(g23
g2
Ntp6675
Rp6676
(dp6677
g27
(dp6678
g6477
g6478
sg35
I22
sg6479
V(ROOT\u000a  (S\u000a    (NP\u000a      (NP (DT The) (JJ overall) (NN picture))\u000a      (PP (IN of)\u000a        (NP (NNS immigrants)\u000a          (CC and)\u000a          (NN crime))))\u000a    (VP (VBZ remains)\u000a      (NP\u000a        (ADJP\u000a          (ADJP\u000a            (ADJP (JJ confused) (JJ due))\u000a            (PP (TO to)\u000a              (NP\u000a                (NP (DT a) (NN lack))\u000a                (PP (IN of)\u000a                  (NP (JJ good) (NNS data))))))\u000a          (CC and)\u000a          (ADJP (JJ contrary)))\u000a        (NN information)))\u000a    (. .) ('' '')))
p6679
ssg10
I22
sg36
g4
sg37
(dp6680
sg39
(dp6681
g6483
(lp6682
g5850
ag5860
ag5870
ag5880
ag5890
ag5900
ag5910
ag5920
ag5930
ag5940
ag5950
ag5960
ag5970
ag5980
ag5990
ag6000
ag6010
ag6020
ag6030
ag6040
ag6050
assg41
I3174
sg42
g6471
sg43
g6471
sg44
I582
sg45
V The overall picture of immigrants and crime remains confused due to a lack of good data and contrary information."
p6683
sg47
I603
sg48
I3288
sbag0
(g23
g2
Ntp6684
Rp6685
(dp6686
g27
(dp6687
g6477
g6478
sg35
I23
sg6479
V(ROOT\u000a  (S\u000a    (NP\u000a      (NP (-LRB- -LSB-) (NN REF))\u000a      (PP (-RRB- -RSB-)\u000a        (NP (DT This) (NN view))))\u000a    (VP (VBZ is)\u000a      (VP (VBN disputed)\u000a        (PP (IN by)\u000a          (NP\u000a            (NP (NNP Tony) (NNP Waters))\u000a            (CC and)\u000a            (NP (NNS others))))\u000a        (PP (-LRB- -LSB-)\u000a          (NP (NN REF) (-RRB- -RSB-)))))\u000a    (. .)))
p6688
ssg10
I23
sg36
g4
sg37
(dp6689
sg39
(dp6690
g6483
(lp6691
g6059
ag6069
ag6079
ag6089
ag6099
ag6109
ag6119
ag6129
ag6139
ag6149
ag6159
ag6169
ag6179
ag6189
ag6199
ag6209
assg41
I3288
sg42
g6471
sg43
g6471
sg44
I603
sg45
V[REF] This view is disputed by Tony Waters and others [REF].
p6692
sg47
I619
sg48
I3348
sbag0
(g23
g2
Ntp6693
Rp6694
(dp6695
g27
(dp6696
g6477
g6478
sg35
I24
sg6479
V(ROOT\u000a  (SBARQ\u000a    (WHNP (WP who))\u000a    (SQ\u000a      (VP (VBP point)\u000a        (PRT (RP out))\u000a        (SBAR (IN that)\u000a          (S\u000a            (NP (DT some) (NNS studies))\u000a            (VP (VBP show)\u000a              (SBAR (IN that)\u000a                (S\u000a                  (NP\u000a                    (NP (NNS immigrants))\u000a                    (PP (IN in)\u000a                      (NP (DT the) (NNP United) (NNPS States))))\u000a                  (VP (VBP are)\u000a                    (ADVP (RB often))\u000a                    (VP (VBN associated)\u000a                      (PP (IN with)\u000a                        (NP\u000a                          (NP (JJR lower) (NNS levels))\u000a                          (PP (IN of)\u000a                            (NP (NN crime)))))\u000a                      (PP (IN than)\u000a                        (NP\u000a                          (NP (JJ native))\u000a                          (VP (VBN born)))))))))))))\u000a    (. .)))
p6697
ssg10
I24
sg36
g4
sg37
(dp6698
sg39
(dp6699
g6483
(lp6700
g6219
ag6229
ag6239
ag6249
ag6259
ag6269
ag6279
ag6289
ag6299
ag6309
ag6319
ag6329
ag6339
ag6349
ag6359
ag6369
ag6379
ag6389
ag6399
ag6409
ag6419
ag6429
ag6439
ag6449
ag6459
assg41
I3349
sg42
g6471
sg43
g6471
sg44
I619
sg45
V who point out that some studies show that immigrants in the United States are often associated with lower levels of crime than native born.
p6701
sg47
I644
sg48
I3488
sbassg37
(dp6702
sg39
(dp6703
sg47
I-1
sg6483
g22
sg42
g6468
sg36
Nsg27
(dp6704
sg44
I0
sg45
V.\u000a\u000aImmigration and crime refers to perceived or actual relationships between crime and immigration.\u000a\u000aThe Handbook of Crime Correlates (2009), a review of studies of correlates with crime, states that most studies on immigrants have found higher rates of crime. However, this varies greatly depending on the country of origin with immigrants from some regions having lower crime rates than the indigenous population [REF].\u000a\u000aA "new anti-immigrant" movement has become apparent in some European countries, especially the Netherlands, Scandinavia, and Switzerland, during the early 21st century. The issue of immigrant crime plays an important role in the political debate in these countries [REF].\u000a\u000aImmigrants are overrepresented in Sweden's crime statistics. During the period 1997-2001, 25% of the almost 1,520,000 offences were committed by people born abroad, while almost 20% were committed by Swedish-born people with a foreign background. \u000a[REF] .\u000a\u000aIn Switzerland, 69.7% of prison population had no Swiss citizenship, compared to 22.1% of total resident population (as of 2008). \u000aThe figure of arrests by residence status is not usually made public. As in 1997 the conviction rate of Swiss citizens fell below 50% for the first time, a special report was compiled by the Federal Department of Justice and Police (published in 2001) which for the year 1998 found an arrest rate per 1000 adult population of 2.3 for Swiss citizens, 4.2 for legally resident aliens and 32 for asylum seekers. \u000a21% of arrests made concerned individuals with no residence status, who were thus either sans papiers or "crime tourists" without any permanent residence in Switzerland [REF]. \u000a\u000aThe term ("foreigner criminality") since the 1990s has become a politically charged term, with the populist "black sheep" campaign for the "initiative for the extradition of criminal foreigners" of the Swiss People's Party making international headlines in September 2007. \u000a\u000aIn April 2010, the director of the Federal Office for Migration (BFM), Alard du Bois-Reymond, issued a statement on the large number of unfounded requests for asylum by nationals of Nigeria in particular. \u000aDu Bois-Reymond said that 99.5% of asylum seekers of Nigerian origin were abusing the asylum system, entering Switzerland with the intention of pursuing petty crime and drug dealing [REF].\u000aThe Nigerian ambassador to Switzerland, Martin Ihoeghian Uhomoibhi, objected to du Boi-Reymond's statement as an undue generalization [REF].\u000a\u000aIt was reported in 2007 that more than one-fifth of crime in London was committed by immigrants [REF]. A 2008 study found that the crime rate of Eastern European immigrants was the same as that of the indigenous population [REF].\u000a\u000aThe Handbook of Crime Correlates states that unlike studies outside the US, a majority of studies in the US have found lower crime rates among immigrants than among non-immigrants. Again, the country of origin may be more important than immigrant status itself [REF]. \u000a\u000aThe Center for Immigration Studies in a 2009 report argued that "New government data indicate that immigrants have high rates of criminality, while older academic research found low rates. The overall picture of immigrants and crime remains confused due to a lack of good data and contrary information."[REF] This view is disputed by Tony Waters and others [REF]. who point out that some studies show that immigrants in the United States are often associated with lower levels of crime than native born.
p6705
sS'sents'
p6706
g6472
sg43
g6468
sg41
I0
sS'id'
p6707
g16
sg48
I3488
sS'sentFeatures'
p6708
(lp6709
sb.