ccopy_reg
_reconstructor
p0
(cpygate.doc
Document
p1
c__builtin__
object
p2
Ntp3
Rp4
(dp5
S'src'
p6
VReverse discrimination is a term referring to discrimination against members of a dominant or majority group, including the city or state, or in favor of members of a minority or historically disadvantaged group. Groups may be defined in terms of race, gender, ethnicity, or other factors. This discrimination may seek to redress social inequalities where minority groups have been denied access to the same privileges of the majority group. In such cases it is intended to remove discrimination that minority groups may already face. Reverse discrimination may also be used to highlight the discrimination inherent in affirmative action programs. \u000a\u000aThe law in some countries, such as the UK, draws a distinction between Equality of Provision and Equality of Outcome, recognising that identical treatment may sometimes act to preserve inequality rather than eliminate it. Opponents of this distinction may label it as an example of positive discrimination.\u000a\u000aIn India, among the limited positions for higher education, 50 percent are reserved. Reserved category candidates can select a position from the Open 50 percent if he or she has good merit. This results in further reverse discrimination of Open/General/Non Reserved candidates. Further, since there are no economic criteria in classifying Reservation, poorer sections of reserved class often remain poor whereas the affluent section reap benefits for successive generations. Also, the poorer sections of Open/General Category become devoid of access to higher education for even slightly low merit on competitive exams. The difference in merit on entrance exams is often very wide between the reserved and unreserved classes. In India, the term is often used by citizens protesting against reservation and quotas [REF].\u000a\u000aUK law draws a distinction between Equality of Provision and Equality of Outcome, particularly in respect to disability rights. The Disability Discrimination Act 1995 and the Equality Act 2010 make it clear that treating two people identically may not be sufficient to guarantee that they have been treated equally in law if the task, physical environment or service does not offer them equality of outcome. The law provides for disabled people to request the provision of 'reasonable adjustments' to ensure that they are able to access employment, services and the built environment with the same potential as non-disabled people. \u000aIn November 2007, David Rosin, a former vice-president of the Royal College of Surgeons wrote in the magazine Hospital Doctor: \u201cIt is time that someone spoke up concerning the reverse discrimination with respect to merit awards\u201d and saying that "female and ethnic minority consultants are being given preferential treatment to meet artificial quotas" [REF].
p7
sS'string'
p8
S'Reverse discrimination is a term referring to discrimination against members of a dominant or majority group, including the city or state, or in favor of members of a minority or historically disadvantaged group. Groups may be defined in terms of race, gender, ethnicity, or other factors. This discrimination may seek to redress social inequalities where minority groups have been denied access to the same privileges of the majority group. In such cases it is intended to remove discrimination that minority groups may already face. Reverse discrimination may also be used to highlight the discrimination inherent in affirmative action programs. \n\nThe law in some countries, such as the UK, draws a distinction between Equality of Provision and Equality of Outcome, recognising that identical treatment may sometimes act to preserve inequality rather than eliminate it. Opponents of this distinction may label it as an example of positive discrimination.\n\nIn India, among the limited positions for higher education, 50 percent are reserved. Reserved category candidates can select a position from the Open 50 percent if he or she has good merit. This results in further reverse discrimination of Open/General/Non Reserved candidates. Further, since there are no economic criteria in classifying Reservation, poorer sections of reserved class often remain poor whereas the affluent section reap benefits for successive generations. Also, the poorer sections of Open/General Category become devoid of access to higher education for even slightly low merit on competitive exams. The difference in merit on entrance exams is often very wide between the reserved and unreserved classes. In India, the term is often used by citizens protesting against reservation and quotas [REF].\n\nUK law draws a distinction between Equality of Provision and Equality of Outcome, particularly in respect to disability rights. The Disability Discrimination Act 1995 and the Equality Act 2010 make it clear that treating two people identically may not be sufficient to guarantee that they have been treated equally in law if the task, physical environment or service does not offer them equality of outcome. The law provides for disabled people to request the provision of \'reasonable adjustments\' to ensure that they are able to access employment, services and the built environment with the same potential as non-disabled people. \nIn November 2007, David Rosin, a former vice-president of the Royal College of Surgeons wrote in the magazine Hospital Doctor: \xe2\x80\x9cIt is time that someone spoke up concerning the reverse discrimination with respect to merit awards\xe2\x80\x9d and saying that "female and ethnic minority consultants are being given preferential treatment to meet artificial quotas" [REF].'
p9
sS'idx'
p10
I0
sS'tknFeatures'
p11
(lp12
sS'docFeatures'
p13
(dp14
S'file_id'
p15
S'Reverse_discrimination'
p16
ssS'items'
p17
(dp18
S'raw'
p19
VReverse discrimination is a term referring to discrimination against members of a dominant or majority group, including the city or state, or in favor of members of a minority or historically disadvantaged group. Groups may be defined in terms of race, gender, ethnicity, or other factors. This discrimination may seek to redress social inequalities where minority groups have been denied access to the same privileges of the majority group. In such cases it is intended to remove discrimination that minority groups may already face. Reverse discrimination may also be used to highlight the discrimination inherent in affirmative action programs. \u000a\u000aThe law in some countries, such as the UK, draws a distinction between Equality of Provision and Equality of Outcome, recognising that identical treatment may sometimes act to preserve inequality rather than eliminate it. Opponents of this distinction may label it as an example of positive discrimination.\u000a\u000aIn India, among the limited positions for higher education, 50 percent are reserved. Reserved category candidates can select a position from the Open 50 percent if he or she has good merit. This results in further reverse discrimination of Open/General/Non Reserved candidates. Further, since there are no economic criteria in classifying Reservation, poorer sections of reserved class often remain poor whereas the affluent section reap benefits for successive generations. Also, the poorer sections of Open/General Category become devoid of access to higher education for even slightly low merit on competitive exams. The difference in merit on entrance exams is often very wide between the reserved and unreserved classes. In India, the term is often used by citizens protesting against reservation and quotas [REF].\u000a\u000aUK law draws a distinction between Equality of Provision and Equality of Outcome, particularly in respect to disability rights. The Disability Discrimination Act 1995 and the Equality Act 2010 make it clear that treating two people identically may not be sufficient to guarantee that they have been treated equally in law if the task, physical environment or service does not offer them equality of outcome. The law provides for disabled people to request the provision of 'reasonable adjustments' to ensure that they are able to access employment, services and the built environment with the same potential as non-disabled people. \u000aIn November 2007, David Rosin, a former vice-president of the Royal College of Surgeons wrote in the magazine Hospital Doctor: \u201cIt is time that someone spoke up concerning the reverse discrimination with respect to merit awards\u201d and saying that "female and ethnic minority consultants are being given preferential treatment to meet artificial quotas" [REF].
p20
sS'Token'
p21
(lp22
g0
(cpygate.annotation
Annotation
p23
g2
Ntp24
Rp25
(dp26
S'features'
p27
(dp28
S'lemma'
p29
Vreverse
p30
sS'ner'
p31
VO
p32
sS'pos'
p33
VJJ
p34
sS'index'
p35
I1
ssg10
I0
sS'doc'
p36
g4
sS'labels'
p37
(dp38
sS'relations'
p39
(dp40
sS'cStart'
p41
I0
sS'subType'
p42
g21
sS'annoType'
p43
g21
sS'tStart'
p44
I0
sS'text'
p45
VReverse
p46
sS'tEnd'
p47
I0
sS'cEnd'
p48
I7
sbag0
(g23
g2
Ntp49
Rp50
(dp51
g27
(dp52
g29
Vdiscrimination
p53
sg31
VO
p54
sg33
VNN
p55
sg35
I2
ssg10
I1
sg36
g4
sg37
(dp56
sg39
(dp57
sg41
I8
sg42
g21
sg43
g21
sg44
I1
sg45
Vdiscrimination
p58
sg47
I1
sg48
I22
sbag0
(g23
g2
Ntp59
Rp60
(dp61
g27
(dp62
g29
Vbe
p63
sg31
VO
p64
sg33
VVBZ
p65
sg35
I3
ssg10
I2
sg36
g4
sg37
(dp66
sg39
(dp67
sg41
I9
sg42
g21
sg43
g21
sg44
I2
sg45
Vis
p68
sg47
I2
sg48
I11
sbag0
(g23
g2
Ntp69
Rp70
(dp71
g27
(dp72
g29
Va
p73
sg31
VO
p74
sg33
VDT
p75
sg35
I4
ssg10
I3
sg36
g4
sg37
(dp76
sg39
(dp77
sg41
I17
sg42
g21
sg43
g21
sg44
I3
sg45
Va
p78
sg47
I3
sg48
I18
sbag0
(g23
g2
Ntp79
Rp80
(dp81
g27
(dp82
g29
Vterm
p83
sg31
VO
p84
sg33
VNN
p85
sg35
I5
ssg10
I4
sg36
g4
sg37
(dp86
sg39
(dp87
sg41
I28
sg42
g21
sg43
g21
sg44
I4
sg45
Vterm
p88
sg47
I4
sg48
I32
sbag0
(g23
g2
Ntp89
Rp90
(dp91
g27
(dp92
g29
Vrefer
p93
sg31
VO
p94
sg33
VVBG
p95
sg35
I6
ssg10
I5
sg36
g4
sg37
(dp96
sg39
(dp97
sg41
I33
sg42
g21
sg43
g21
sg44
I5
sg45
Vreferring
p98
sg47
I5
sg48
I42
sbag0
(g23
g2
Ntp99
Rp100
(dp101
g27
(dp102
g29
Vto
p103
sg31
VO
p104
sg33
VTO
p105
sg35
I7
ssg10
I6
sg36
g4
sg37
(dp106
sg39
(dp107
sg41
I43
sg42
g21
sg43
g21
sg44
I6
sg45
Vto
p108
sg47
I6
sg48
I45
sbag0
(g23
g2
Ntp109
Rp110
(dp111
g27
(dp112
g29
Vdiscrimination
p113
sg31
VO
p114
sg33
VNN
p115
sg35
I8
ssg10
I7
sg36
g4
sg37
(dp116
sg39
(dp117
sg41
I46
sg42
g21
sg43
g21
sg44
I7
sg45
Vdiscrimination
p118
sg47
I7
sg48
I60
sbag0
(g23
g2
Ntp119
Rp120
(dp121
g27
(dp122
g29
Vagainst
p123
sg31
VO
p124
sg33
VIN
p125
sg35
I9
ssg10
I8
sg36
g4
sg37
(dp126
sg39
(dp127
sg41
I61
sg42
g21
sg43
g21
sg44
I8
sg45
Vagainst
p128
sg47
I8
sg48
I68
sbag0
(g23
g2
Ntp129
Rp130
(dp131
g27
(dp132
g29
Vmember
p133
sg31
VO
p134
sg33
VNNS
p135
sg35
I10
ssg10
I9
sg36
g4
sg37
(dp136
sg39
(dp137
sg41
I69
sg42
g21
sg43
g21
sg44
I9
sg45
Vmembers
p138
sg47
I9
sg48
I76
sbag0
(g23
g2
Ntp139
Rp140
(dp141
g27
(dp142
g29
Vof
p143
sg31
VO
p144
sg33
VIN
p145
sg35
I11
ssg10
I10
sg36
g4
sg37
(dp146
sg39
(dp147
sg41
I77
sg42
g21
sg43
g21
sg44
I10
sg45
Vof
p148
sg47
I10
sg48
I79
sbag0
(g23
g2
Ntp149
Rp150
(dp151
g27
(dp152
g29
Va
p153
sg31
VO
p154
sg33
VDT
p155
sg35
I12
ssg10
I11
sg36
g4
sg37
(dp156
sg39
(dp157
sg41
I80
sg42
g21
sg43
g21
sg44
I11
sg45
Va
p158
sg47
I11
sg48
I81
sbag0
(g23
g2
Ntp159
Rp160
(dp161
g27
(dp162
g29
Vdominant
p163
sg31
VO
p164
sg33
VJJ
p165
sg35
I13
ssg10
I12
sg36
g4
sg37
(dp166
sg39
(dp167
sg41
I82
sg42
g21
sg43
g21
sg44
I12
sg45
Vdominant
p168
sg47
I12
sg48
I90
sbag0
(g23
g2
Ntp169
Rp170
(dp171
g27
(dp172
g29
Vor
p173
sg31
VO
p174
sg33
VCC
p175
sg35
I14
ssg10
I13
sg36
g4
sg37
(dp176
sg39
(dp177
sg41
I91
sg42
g21
sg43
g21
sg44
I13
sg45
Vor
p178
sg47
I13
sg48
I93
sbag0
(g23
g2
Ntp179
Rp180
(dp181
g27
(dp182
g29
Vmajority
p183
sg31
VO
p184
sg33
VNN
p185
sg35
I15
ssg10
I14
sg36
g4
sg37
(dp186
sg39
(dp187
sg41
I94
sg42
g21
sg43
g21
sg44
I14
sg45
Vmajority
p188
sg47
I14
sg48
I102
sbag0
(g23
g2
Ntp189
Rp190
(dp191
g27
(dp192
g29
Vgroup
p193
sg31
VO
p194
sg33
VNN
p195
sg35
I16
ssg10
I15
sg36
g4
sg37
(dp196
sg39
(dp197
sg41
I103
sg42
g21
sg43
g21
sg44
I15
sg45
Vgroup
p198
sg47
I15
sg48
I108
sbag0
(g23
g2
Ntp199
Rp200
(dp201
g27
(dp202
g29
V,
p203
sg31
VO
p204
sg33
V,
p205
sg35
I17
ssg10
I16
sg36
g4
sg37
(dp206
sg39
(dp207
sg41
I108
sg42
g21
sg43
g21
sg44
I16
sg45
V,
p208
sg47
I16
sg48
I109
sbag0
(g23
g2
Ntp209
Rp210
(dp211
g27
(dp212
g29
Vinclude
p213
sg31
VO
p214
sg33
VVBG
p215
sg35
I18
ssg10
I17
sg36
g4
sg37
(dp216
sg39
(dp217
sg41
I110
sg42
g21
sg43
g21
sg44
I17
sg45
Vincluding
p218
sg47
I17
sg48
I119
sbag0
(g23
g2
Ntp219
Rp220
(dp221
g27
(dp222
g29
Vthe
p223
sg31
VO
p224
sg33
VDT
p225
sg35
I19
ssg10
I18
sg36
g4
sg37
(dp226
sg39
(dp227
sg41
I120
sg42
g21
sg43
g21
sg44
I18
sg45
Vthe
p228
sg47
I18
sg48
I123
sbag0
(g23
g2
Ntp229
Rp230
(dp231
g27
(dp232
g29
Vcity
p233
sg31
VO
p234
sg33
VNN
p235
sg35
I20
ssg10
I19
sg36
g4
sg37
(dp236
sg39
(dp237
sg41
I124
sg42
g21
sg43
g21
sg44
I19
sg45
Vcity
p238
sg47
I19
sg48
I128
sbag0
(g23
g2
Ntp239
Rp240
(dp241
g27
(dp242
g29
Vor
p243
sg31
VO
p244
sg33
VCC
p245
sg35
I21
ssg10
I20
sg36
g4
sg37
(dp246
sg39
(dp247
sg41
I129
sg42
g21
sg43
g21
sg44
I20
sg45
Vor
p248
sg47
I20
sg48
I131
sbag0
(g23
g2
Ntp249
Rp250
(dp251
g27
(dp252
g29
Vstate
p253
sg31
VO
p254
sg33
VNN
p255
sg35
I22
ssg10
I21
sg36
g4
sg37
(dp256
sg39
(dp257
sg41
I132
sg42
g21
sg43
g21
sg44
I21
sg45
Vstate
p258
sg47
I21
sg48
I137
sbag0
(g23
g2
Ntp259
Rp260
(dp261
g27
(dp262
g29
V,
p263
sg31
VO
p264
sg33
V,
p265
sg35
I23
ssg10
I22
sg36
g4
sg37
(dp266
sg39
(dp267
sg41
I137
sg42
g21
sg43
g21
sg44
I22
sg45
V,
p268
sg47
I22
sg48
I138
sbag0
(g23
g2
Ntp269
Rp270
(dp271
g27
(dp272
g29
Vor
p273
sg31
VO
p274
sg33
VCC
p275
sg35
I24
ssg10
I23
sg36
g4
sg37
(dp276
sg39
(dp277
sg41
I139
sg42
g21
sg43
g21
sg44
I23
sg45
Vor
p278
sg47
I23
sg48
I141
sbag0
(g23
g2
Ntp279
Rp280
(dp281
g27
(dp282
g29
Vin
p283
sg31
VO
p284
sg33
VIN
p285
sg35
I25
ssg10
I24
sg36
g4
sg37
(dp286
sg39
(dp287
sg41
I142
sg42
g21
sg43
g21
sg44
I24
sg45
Vin
p288
sg47
I24
sg48
I144
sbag0
(g23
g2
Ntp289
Rp290
(dp291
g27
(dp292
g29
Vfavor
p293
sg31
VO
p294
sg33
VNN
p295
sg35
I26
ssg10
I25
sg36
g4
sg37
(dp296
sg39
(dp297
sg41
I145
sg42
g21
sg43
g21
sg44
I25
sg45
Vfavor
p298
sg47
I25
sg48
I150
sbag0
(g23
g2
Ntp299
Rp300
(dp301
g27
(dp302
g29
Vof
p303
sg31
VO
p304
sg33
VIN
p305
sg35
I27
ssg10
I26
sg36
g4
sg37
(dp306
sg39
(dp307
sg41
I151
sg42
g21
sg43
g21
sg44
I26
sg45
Vof
p308
sg47
I26
sg48
I153
sbag0
(g23
g2
Ntp309
Rp310
(dp311
g27
(dp312
g29
Vmember
p313
sg31
VO
p314
sg33
VNNS
p315
sg35
I28
ssg10
I27
sg36
g4
sg37
(dp316
sg39
(dp317
sg41
I154
sg42
g21
sg43
g21
sg44
I27
sg45
Vmembers
p318
sg47
I27
sg48
I161
sbag0
(g23
g2
Ntp319
Rp320
(dp321
g27
(dp322
g29
Vof
p323
sg31
VO
p324
sg33
VIN
p325
sg35
I29
ssg10
I28
sg36
g4
sg37
(dp326
sg39
(dp327
sg41
I162
sg42
g21
sg43
g21
sg44
I28
sg45
Vof
p328
sg47
I28
sg48
I164
sbag0
(g23
g2
Ntp329
Rp330
(dp331
g27
(dp332
g29
Va
p333
sg31
VO
p334
sg33
VDT
p335
sg35
I30
ssg10
I29
sg36
g4
sg37
(dp336
sg39
(dp337
sg41
I165
sg42
g21
sg43
g21
sg44
I29
sg45
Va
p338
sg47
I29
sg48
I166
sbag0
(g23
g2
Ntp339
Rp340
(dp341
g27
(dp342
g29
Vminority
p343
sg31
VO
p344
sg33
VNN
p345
sg35
I31
ssg10
I30
sg36
g4
sg37
(dp346
sg39
(dp347
sg41
I167
sg42
g21
sg43
g21
sg44
I30
sg45
Vminority
p348
sg47
I30
sg48
I175
sbag0
(g23
g2
Ntp349
Rp350
(dp351
g27
(dp352
g29
Vor
p353
sg31
VO
p354
sg33
VCC
p355
sg35
I32
ssg10
I31
sg36
g4
sg37
(dp356
sg39
(dp357
sg41
I170
sg42
g21
sg43
g21
sg44
I31
sg45
Vor
p358
sg47
I31
sg48
I172
sbag0
(g23
g2
Ntp359
Rp360
(dp361
g27
(dp362
g29
Vhistorically
p363
sg31
VO
p364
sg33
VRB
p365
sg35
I33
ssg10
I32
sg36
g4
sg37
(dp366
sg39
(dp367
sg41
I179
sg42
g21
sg43
g21
sg44
I32
sg45
Vhistorically
p368
sg47
I32
sg48
I191
sbag0
(g23
g2
Ntp369
Rp370
(dp371
g27
(dp372
g29
Vdisadvantaged
p373
sg31
VO
p374
sg33
VJJ
p375
sg35
I34
ssg10
I33
sg36
g4
sg37
(dp376
sg39
(dp377
sg41
I192
sg42
g21
sg43
g21
sg44
I33
sg45
Vdisadvantaged
p378
sg47
I33
sg48
I205
sbag0
(g23
g2
Ntp379
Rp380
(dp381
g27
(dp382
g29
Vgroup
p383
sg31
VO
p384
sg33
VNN
p385
sg35
I35
ssg10
I34
sg36
g4
sg37
(dp386
sg39
(dp387
sg41
I206
sg42
g21
sg43
g21
sg44
I34
sg45
Vgroup
p388
sg47
I34
sg48
I211
sbag0
(g23
g2
Ntp389
Rp390
(dp391
g27
(dp392
g29
V.
p393
sg31
VO
p394
sg33
V.
p395
sg35
I36
ssg10
I35
sg36
g4
sg37
(dp396
sg39
(dp397
sg41
I211
sg42
g21
sg43
g21
sg44
I35
sg45
V.
p398
sg47
I35
sg48
I212
sbag0
(g23
g2
Ntp399
Rp400
(dp401
g27
(dp402
g29
Vgroup
p403
sg31
VO
p404
sg33
VNNS
p405
sg35
I1
ssg10
I36
sg36
g4
sg37
(dp406
sg39
(dp407
sg41
I213
sg42
g21
sg43
g21
sg44
I36
sg45
VGroups
p408
sg47
I36
sg48
I219
sbag0
(g23
g2
Ntp409
Rp410
(dp411
g27
(dp412
g29
Vmay
p413
sg31
VO
p414
sg33
VMD
p415
sg35
I2
ssg10
I37
sg36
g4
sg37
(dp416
sg39
(dp417
sg41
I220
sg42
g21
sg43
g21
sg44
I37
sg45
Vmay
p418
sg47
I37
sg48
I223
sbag0
(g23
g2
Ntp419
Rp420
(dp421
g27
(dp422
g29
Vbe
p423
sg31
VO
p424
sg33
VVB
p425
sg35
I3
ssg10
I38
sg36
g4
sg37
(dp426
sg39
(dp427
sg41
I224
sg42
g21
sg43
g21
sg44
I38
sg45
Vbe
p428
sg47
I38
sg48
I226
sbag0
(g23
g2
Ntp429
Rp430
(dp431
g27
(dp432
g29
Vdefine
p433
sg31
VO
p434
sg33
VVBN
p435
sg35
I4
ssg10
I39
sg36
g4
sg37
(dp436
sg39
(dp437
sg41
I227
sg42
g21
sg43
g21
sg44
I39
sg45
Vdefined
p438
sg47
I39
sg48
I234
sbag0
(g23
g2
Ntp439
Rp440
(dp441
g27
(dp442
g29
Vin
p443
sg31
VO
p444
sg33
VIN
p445
sg35
I5
ssg10
I40
sg36
g4
sg37
(dp446
sg39
(dp447
sg41
I230
sg42
g21
sg43
g21
sg44
I40
sg45
Vin
p448
sg47
I40
sg48
I232
sbag0
(g23
g2
Ntp449
Rp450
(dp451
g27
(dp452
g29
Vterm
p453
sg31
VO
p454
sg33
VNNS
p455
sg35
I6
ssg10
I41
sg36
g4
sg37
(dp456
sg39
(dp457
sg41
I238
sg42
g21
sg43
g21
sg44
I41
sg45
Vterms
p458
sg47
I41
sg48
I243
sbag0
(g23
g2
Ntp459
Rp460
(dp461
g27
(dp462
g29
Vof
p463
sg31
VO
p464
sg33
VIN
p465
sg35
I7
ssg10
I42
sg36
g4
sg37
(dp466
sg39
(dp467
sg41
I244
sg42
g21
sg43
g21
sg44
I42
sg45
Vof
p468
sg47
I42
sg48
I246
sbag0
(g23
g2
Ntp469
Rp470
(dp471
g27
(dp472
g29
Vrace
p473
sg31
VO
p474
sg33
VNN
p475
sg35
I8
ssg10
I43
sg36
g4
sg37
(dp476
sg39
(dp477
sg41
I247
sg42
g21
sg43
g21
sg44
I43
sg45
Vrace
p478
sg47
I43
sg48
I251
sbag0
(g23
g2
Ntp479
Rp480
(dp481
g27
(dp482
g29
V,
p483
sg31
VO
p484
sg33
V,
p485
sg35
I9
ssg10
I44
sg36
g4
sg37
(dp486
sg39
(dp487
sg41
I251
sg42
g21
sg43
g21
sg44
I44
sg45
V,
p488
sg47
I44
sg48
I252
sbag0
(g23
g2
Ntp489
Rp490
(dp491
g27
(dp492
g29
Vgender
p493
sg31
VO
p494
sg33
VNN
p495
sg35
I10
ssg10
I45
sg36
g4
sg37
(dp496
sg39
(dp497
sg41
I253
sg42
g21
sg43
g21
sg44
I45
sg45
Vgender
p498
sg47
I45
sg48
I259
sbag0
(g23
g2
Ntp499
Rp500
(dp501
g27
(dp502
g29
V,
p503
sg31
VO
p504
sg33
V,
p505
sg35
I11
ssg10
I46
sg36
g4
sg37
(dp506
sg39
(dp507
sg41
I259
sg42
g21
sg43
g21
sg44
I46
sg45
V,
p508
sg47
I46
sg48
I260
sbag0
(g23
g2
Ntp509
Rp510
(dp511
g27
(dp512
g29
Vethnicity
p513
sg31
VO
p514
sg33
VNN
p515
sg35
I12
ssg10
I47
sg36
g4
sg37
(dp516
sg39
(dp517
sg41
I261
sg42
g21
sg43
g21
sg44
I47
sg45
Vethnicity
p518
sg47
I47
sg48
I270
sbag0
(g23
g2
Ntp519
Rp520
(dp521
g27
(dp522
g29
V,
p523
sg31
VO
p524
sg33
V,
p525
sg35
I13
ssg10
I48
sg36
g4
sg37
(dp526
sg39
(dp527
sg41
I270
sg42
g21
sg43
g21
sg44
I48
sg45
V,
p528
sg47
I48
sg48
I271
sbag0
(g23
g2
Ntp529
Rp530
(dp531
g27
(dp532
g29
Vor
p533
sg31
VO
p534
sg33
VCC
p535
sg35
I14
ssg10
I49
sg36
g4
sg37
(dp536
sg39
(dp537
sg41
I272
sg42
g21
sg43
g21
sg44
I49
sg45
Vor
p538
sg47
I49
sg48
I274
sbag0
(g23
g2
Ntp539
Rp540
(dp541
g27
(dp542
g29
Vother
p543
sg31
VO
p544
sg33
VJJ
p545
sg35
I15
ssg10
I50
sg36
g4
sg37
(dp546
sg39
(dp547
sg41
I275
sg42
g21
sg43
g21
sg44
I50
sg45
Vother
p548
sg47
I50
sg48
I280
sbag0
(g23
g2
Ntp549
Rp550
(dp551
g27
(dp552
g29
Vfactor
p553
sg31
VO
p554
sg33
VNNS
p555
sg35
I16
ssg10
I51
sg36
g4
sg37
(dp556
sg39
(dp557
sg41
I281
sg42
g21
sg43
g21
sg44
I51
sg45
Vfactors
p558
sg47
I51
sg48
I288
sbag0
(g23
g2
Ntp559
Rp560
(dp561
g27
(dp562
g29
V.
p563
sg31
VO
p564
sg33
V.
p565
sg35
I17
ssg10
I52
sg36
g4
sg37
(dp566
sg39
(dp567
sg41
I288
sg42
g21
sg43
g21
sg44
I52
sg45
V.
p568
sg47
I52
sg48
I289
sbag0
(g23
g2
Ntp569
Rp570
(dp571
g27
(dp572
g29
Vthis
p573
sg31
VO
p574
sg33
VDT
p575
sg35
I1
ssg10
I53
sg36
g4
sg37
(dp576
sg39
(dp577
sg41
I290
sg42
g21
sg43
g21
sg44
I53
sg45
VThis
p578
sg47
I53
sg48
I294
sbag0
(g23
g2
Ntp579
Rp580
(dp581
g27
(dp582
g29
Vdiscrimination
p583
sg31
VO
p584
sg33
VNN
p585
sg35
I2
ssg10
I54
sg36
g4
sg37
(dp586
sg39
(dp587
sg41
I295
sg42
g21
sg43
g21
sg44
I54
sg45
Vdiscrimination
p588
sg47
I54
sg48
I309
sbag0
(g23
g2
Ntp589
Rp590
(dp591
g27
(dp592
g29
Vmay
p593
sg31
VO
p594
sg33
VMD
p595
sg35
I3
ssg10
I55
sg36
g4
sg37
(dp596
sg39
(dp597
sg41
I310
sg42
g21
sg43
g21
sg44
I55
sg45
Vmay
p598
sg47
I55
sg48
I313
sbag0
(g23
g2
Ntp599
Rp600
(dp601
g27
(dp602
g29
Vseek
p603
sg31
VO
p604
sg33
VVB
p605
sg35
I4
ssg10
I56
sg36
g4
sg37
(dp606
sg39
(dp607
sg41
I314
sg42
g21
sg43
g21
sg44
I56
sg45
Vseek
p608
sg47
I56
sg48
I318
sbag0
(g23
g2
Ntp609
Rp610
(dp611
g27
(dp612
g29
Vto
p613
sg31
VO
p614
sg33
VTO
p615
sg35
I5
ssg10
I57
sg36
g4
sg37
(dp616
sg39
(dp617
sg41
I319
sg42
g21
sg43
g21
sg44
I57
sg45
Vto
p618
sg47
I57
sg48
I321
sbag0
(g23
g2
Ntp619
Rp620
(dp621
g27
(dp622
g29
Vredress
p623
sg31
VO
p624
sg33
VVB
p625
sg35
I6
ssg10
I58
sg36
g4
sg37
(dp626
sg39
(dp627
sg41
I322
sg42
g21
sg43
g21
sg44
I58
sg45
Vredress
p628
sg47
I58
sg48
I329
sbag0
(g23
g2
Ntp629
Rp630
(dp631
g27
(dp632
g29
Vsocial
p633
sg31
VO
p634
sg33
VJJ
p635
sg35
I7
ssg10
I59
sg36
g4
sg37
(dp636
sg39
(dp637
sg41
I330
sg42
g21
sg43
g21
sg44
I59
sg45
Vsocial
p638
sg47
I59
sg48
I336
sbag0
(g23
g2
Ntp639
Rp640
(dp641
g27
(dp642
g29
Vinequality
p643
sg31
VO
p644
sg33
VNNS
p645
sg35
I8
ssg10
I60
sg36
g4
sg37
(dp646
sg39
(dp647
sg41
I337
sg42
g21
sg43
g21
sg44
I60
sg45
Vinequalities
p648
sg47
I60
sg48
I349
sbag0
(g23
g2
Ntp649
Rp650
(dp651
g27
(dp652
g29
Vwhere
p653
sg31
VO
p654
sg33
VWRB
p655
sg35
I9
ssg10
I61
sg36
g4
sg37
(dp656
sg39
(dp657
sg41
I350
sg42
g21
sg43
g21
sg44
I61
sg45
Vwhere
p658
sg47
I61
sg48
I355
sbag0
(g23
g2
Ntp659
Rp660
(dp661
g27
(dp662
g29
Vminority
p663
sg31
VO
p664
sg33
VNN
p665
sg35
I10
ssg10
I62
sg36
g4
sg37
(dp666
sg39
(dp667
sg41
I356
sg42
g21
sg43
g21
sg44
I62
sg45
Vminority
p668
sg47
I62
sg48
I364
sbag0
(g23
g2
Ntp669
Rp670
(dp671
g27
(dp672
g29
Vgroup
p673
sg31
VO
p674
sg33
VNNS
p675
sg35
I11
ssg10
I63
sg36
g4
sg37
(dp676
sg39
(dp677
sg41
I365
sg42
g21
sg43
g21
sg44
I63
sg45
Vgroups
p678
sg47
I63
sg48
I371
sbag0
(g23
g2
Ntp679
Rp680
(dp681
g27
(dp682
g29
Vhave
p683
sg31
VO
p684
sg33
VVBP
p685
sg35
I12
ssg10
I64
sg36
g4
sg37
(dp686
sg39
(dp687
sg41
I372
sg42
g21
sg43
g21
sg44
I64
sg45
Vhave
p688
sg47
I64
sg48
I376
sbag0
(g23
g2
Ntp689
Rp690
(dp691
g27
(dp692
g29
Vbe
p693
sg31
VO
p694
sg33
VVBN
p695
sg35
I13
ssg10
I65
sg36
g4
sg37
(dp696
sg39
(dp697
sg41
I377
sg42
g21
sg43
g21
sg44
I65
sg45
Vbeen
p698
sg47
I65
sg48
I381
sbag0
(g23
g2
Ntp699
Rp700
(dp701
g27
(dp702
g29
Vdeny
p703
sg31
VO
p704
sg33
VVBN
p705
sg35
I14
ssg10
I66
sg36
g4
sg37
(dp706
sg39
(dp707
sg41
I382
sg42
g21
sg43
g21
sg44
I66
sg45
Vdenied
p708
sg47
I66
sg48
I388
sbag0
(g23
g2
Ntp709
Rp710
(dp711
g27
(dp712
g29
Vaccess
p713
sg31
VO
p714
sg33
VNN
p715
sg35
I15
ssg10
I67
sg36
g4
sg37
(dp716
sg39
(dp717
sg41
I389
sg42
g21
sg43
g21
sg44
I67
sg45
Vaccess
p718
sg47
I67
sg48
I395
sbag0
(g23
g2
Ntp719
Rp720
(dp721
g27
(dp722
g29
Vto
p723
sg31
VO
p724
sg33
VTO
p725
sg35
I16
ssg10
I68
sg36
g4
sg37
(dp726
sg39
(dp727
sg41
I396
sg42
g21
sg43
g21
sg44
I68
sg45
Vto
p728
sg47
I68
sg48
I398
sbag0
(g23
g2
Ntp729
Rp730
(dp731
g27
(dp732
g29
Vthe
p733
sg31
VO
p734
sg33
VDT
p735
sg35
I17
ssg10
I69
sg36
g4
sg37
(dp736
sg39
(dp737
sg41
I399
sg42
g21
sg43
g21
sg44
I69
sg45
Vthe
p738
sg47
I69
sg48
I402
sbag0
(g23
g2
Ntp739
Rp740
(dp741
g27
(dp742
g29
Vsame
p743
sg31
VO
p744
sg33
VJJ
p745
sg35
I18
ssg10
I70
sg36
g4
sg37
(dp746
sg39
(dp747
sg41
I403
sg42
g21
sg43
g21
sg44
I70
sg45
Vsame
p748
sg47
I70
sg48
I407
sbag0
(g23
g2
Ntp749
Rp750
(dp751
g27
(dp752
g29
Vprivilege
p753
sg31
VO
p754
sg33
VNNS
p755
sg35
I19
ssg10
I71
sg36
g4
sg37
(dp756
sg39
(dp757
sg41
I408
sg42
g21
sg43
g21
sg44
I71
sg45
Vprivileges
p758
sg47
I71
sg48
I418
sbag0
(g23
g2
Ntp759
Rp760
(dp761
g27
(dp762
g29
Vof
p763
sg31
VO
p764
sg33
VIN
p765
sg35
I20
ssg10
I72
sg36
g4
sg37
(dp766
sg39
(dp767
sg41
I419
sg42
g21
sg43
g21
sg44
I72
sg45
Vof
p768
sg47
I72
sg48
I421
sbag0
(g23
g2
Ntp769
Rp770
(dp771
g27
(dp772
g29
Vthe
p773
sg31
VO
p774
sg33
VDT
p775
sg35
I21
ssg10
I73
sg36
g4
sg37
(dp776
sg39
(dp777
sg41
I422
sg42
g21
sg43
g21
sg44
I73
sg45
Vthe
p778
sg47
I73
sg48
I425
sbag0
(g23
g2
Ntp779
Rp780
(dp781
g27
(dp782
g29
Vmajority
p783
sg31
VO
p784
sg33
VNN
p785
sg35
I22
ssg10
I74
sg36
g4
sg37
(dp786
sg39
(dp787
sg41
I426
sg42
g21
sg43
g21
sg44
I74
sg45
Vmajority
p788
sg47
I74
sg48
I434
sbag0
(g23
g2
Ntp789
Rp790
(dp791
g27
(dp792
g29
Vgroup
p793
sg31
VO
p794
sg33
VNN
p795
sg35
I23
ssg10
I75
sg36
g4
sg37
(dp796
sg39
(dp797
sg41
I435
sg42
g21
sg43
g21
sg44
I75
sg45
Vgroup
p798
sg47
I75
sg48
I440
sbag0
(g23
g2
Ntp799
Rp800
(dp801
g27
(dp802
g29
V.
p803
sg31
VO
p804
sg33
V.
p805
sg35
I24
ssg10
I76
sg36
g4
sg37
(dp806
sg39
(dp807
sg41
I440
sg42
g21
sg43
g21
sg44
I76
sg45
V.
p808
sg47
I76
sg48
I441
sbag0
(g23
g2
Ntp809
Rp810
(dp811
g27
(dp812
g29
Vin
p813
sg31
VO
p814
sg33
VIN
p815
sg35
I1
ssg10
I77
sg36
g4
sg37
(dp816
sg39
(dp817
sg41
I442
sg42
g21
sg43
g21
sg44
I77
sg45
VIn
p818
sg47
I77
sg48
I444
sbag0
(g23
g2
Ntp819
Rp820
(dp821
g27
(dp822
g29
Vsuch
p823
sg31
VO
p824
sg33
VJJ
p825
sg35
I2
ssg10
I78
sg36
g4
sg37
(dp826
sg39
(dp827
sg41
I445
sg42
g21
sg43
g21
sg44
I78
sg45
Vsuch
p828
sg47
I78
sg48
I449
sbag0
(g23
g2
Ntp829
Rp830
(dp831
g27
(dp832
g29
Vcase
p833
sg31
VO
p834
sg33
VNNS
p835
sg35
I3
ssg10
I79
sg36
g4
sg37
(dp836
sg39
(dp837
sg41
I450
sg42
g21
sg43
g21
sg44
I79
sg45
Vcases
p838
sg47
I79
sg48
I455
sbag0
(g23
g2
Ntp839
Rp840
(dp841
g27
(dp842
g29
Vit
p843
sg31
VO
p844
sg33
VPRP
p845
sg35
I4
ssg10
I80
sg36
g4
sg37
(dp846
sg39
(dp847
sg41
I456
sg42
g21
sg43
g21
sg44
I80
sg45
Vit
p848
sg47
I80
sg48
I458
sbag0
(g23
g2
Ntp849
Rp850
(dp851
g27
(dp852
g29
Vbe
p853
sg31
VO
p854
sg33
VVBZ
p855
sg35
I5
ssg10
I81
sg36
g4
sg37
(dp856
sg39
(dp857
sg41
I459
sg42
g21
sg43
g21
sg44
I81
sg45
Vis
p858
sg47
I81
sg48
I461
sbag0
(g23
g2
Ntp859
Rp860
(dp861
g27
(dp862
g29
Vintend
p863
sg31
VO
p864
sg33
VVBN
p865
sg35
I6
ssg10
I82
sg36
g4
sg37
(dp866
sg39
(dp867
sg41
I462
sg42
g21
sg43
g21
sg44
I82
sg45
Vintended
p868
sg47
I82
sg48
I470
sbag0
(g23
g2
Ntp869
Rp870
(dp871
g27
(dp872
g29
Vto
p873
sg31
VO
p874
sg33
VTO
p875
sg35
I7
ssg10
I83
sg36
g4
sg37
(dp876
sg39
(dp877
sg41
I471
sg42
g21
sg43
g21
sg44
I83
sg45
Vto
p878
sg47
I83
sg48
I473
sbag0
(g23
g2
Ntp879
Rp880
(dp881
g27
(dp882
g29
Vremove
p883
sg31
VO
p884
sg33
VVB
p885
sg35
I8
ssg10
I84
sg36
g4
sg37
(dp886
sg39
(dp887
sg41
I474
sg42
g21
sg43
g21
sg44
I84
sg45
Vremove
p888
sg47
I84
sg48
I480
sbag0
(g23
g2
Ntp889
Rp890
(dp891
g27
(dp892
g29
Vdiscrimination
p893
sg31
VO
p894
sg33
VNN
p895
sg35
I9
ssg10
I85
sg36
g4
sg37
(dp896
sg39
(dp897
sg41
I481
sg42
g21
sg43
g21
sg44
I85
sg45
Vdiscrimination
p898
sg47
I85
sg48
I495
sbag0
(g23
g2
Ntp899
Rp900
(dp901
g27
(dp902
g29
Vthat
p903
sg31
VO
p904
sg33
VIN
p905
sg35
I10
ssg10
I86
sg36
g4
sg37
(dp906
sg39
(dp907
sg41
I496
sg42
g21
sg43
g21
sg44
I86
sg45
Vthat
p908
sg47
I86
sg48
I500
sbag0
(g23
g2
Ntp909
Rp910
(dp911
g27
(dp912
g29
Vminority
p913
sg31
VO
p914
sg33
VNN
p915
sg35
I11
ssg10
I87
sg36
g4
sg37
(dp916
sg39
(dp917
sg41
I501
sg42
g21
sg43
g21
sg44
I87
sg45
Vminority
p918
sg47
I87
sg48
I509
sbag0
(g23
g2
Ntp919
Rp920
(dp921
g27
(dp922
g29
Vgroup
p923
sg31
VO
p924
sg33
VNNS
p925
sg35
I12
ssg10
I88
sg36
g4
sg37
(dp926
sg39
(dp927
sg41
I510
sg42
g21
sg43
g21
sg44
I88
sg45
Vgroups
p928
sg47
I88
sg48
I516
sbag0
(g23
g2
Ntp929
Rp930
(dp931
g27
(dp932
g29
Vmay
p933
sg31
VO
p934
sg33
VMD
p935
sg35
I13
ssg10
I89
sg36
g4
sg37
(dp936
sg39
(dp937
sg41
I517
sg42
g21
sg43
g21
sg44
I89
sg45
Vmay
p938
sg47
I89
sg48
I520
sbag0
(g23
g2
Ntp939
Rp940
(dp941
g27
(dp942
g29
Valready
p943
sg31
VO
p944
sg33
VRB
p945
sg35
I14
ssg10
I90
sg36
g4
sg37
(dp946
sg39
(dp947
sg41
I521
sg42
g21
sg43
g21
sg44
I90
sg45
Valready
p948
sg47
I90
sg48
I528
sbag0
(g23
g2
Ntp949
Rp950
(dp951
g27
(dp952
g29
Vface
p953
sg31
VO
p954
sg33
VVB
p955
sg35
I15
ssg10
I91
sg36
g4
sg37
(dp956
sg39
(dp957
sg41
I529
sg42
g21
sg43
g21
sg44
I91
sg45
Vface
p958
sg47
I91
sg48
I533
sbag0
(g23
g2
Ntp959
Rp960
(dp961
g27
(dp962
g29
V.
p963
sg31
VO
p964
sg33
V.
p965
sg35
I16
ssg10
I92
sg36
g4
sg37
(dp966
sg39
(dp967
sg41
I533
sg42
g21
sg43
g21
sg44
I92
sg45
V.
p968
sg47
I92
sg48
I534
sbag0
(g23
g2
Ntp969
Rp970
(dp971
g27
(dp972
g29
Vreverse
p973
sg31
VO
p974
sg33
VJJ
p975
sg35
I1
ssg10
I93
sg36
g4
sg37
(dp976
sg39
(dp977
sg41
I535
sg42
g21
sg43
g21
sg44
I93
sg45
VReverse
p978
sg47
I93
sg48
I542
sbag0
(g23
g2
Ntp979
Rp980
(dp981
g27
(dp982
g29
Vdiscrimination
p983
sg31
VO
p984
sg33
VNN
p985
sg35
I2
ssg10
I94
sg36
g4
sg37
(dp986
sg39
(dp987
sg41
I543
sg42
g21
sg43
g21
sg44
I94
sg45
Vdiscrimination
p988
sg47
I94
sg48
I557
sbag0
(g23
g2
Ntp989
Rp990
(dp991
g27
(dp992
g29
Vmay
p993
sg31
VO
p994
sg33
VMD
p995
sg35
I3
ssg10
I95
sg36
g4
sg37
(dp996
sg39
(dp997
sg41
I558
sg42
g21
sg43
g21
sg44
I95
sg45
Vmay
p998
sg47
I95
sg48
I561
sbag0
(g23
g2
Ntp999
Rp1000
(dp1001
g27
(dp1002
g29
Valso
p1003
sg31
VO
p1004
sg33
VRB
p1005
sg35
I4
ssg10
I96
sg36
g4
sg37
(dp1006
sg39
(dp1007
sg41
I562
sg42
g21
sg43
g21
sg44
I96
sg45
Valso
p1008
sg47
I96
sg48
I566
sbag0
(g23
g2
Ntp1009
Rp1010
(dp1011
g27
(dp1012
g29
Vbe
p1013
sg31
VO
p1014
sg33
VVB
p1015
sg35
I5
ssg10
I97
sg36
g4
sg37
(dp1016
sg39
(dp1017
sg41
I567
sg42
g21
sg43
g21
sg44
I97
sg45
Vbe
p1018
sg47
I97
sg48
I569
sbag0
(g23
g2
Ntp1019
Rp1020
(dp1021
g27
(dp1022
g29
Vuse
p1023
sg31
VO
p1024
sg33
VVBN
p1025
sg35
I6
ssg10
I98
sg36
g4
sg37
(dp1026
sg39
(dp1027
sg41
I570
sg42
g21
sg43
g21
sg44
I98
sg45
Vused
p1028
sg47
I98
sg48
I574
sbag0
(g23
g2
Ntp1029
Rp1030
(dp1031
g27
(dp1032
g29
Vto
p1033
sg31
VO
p1034
sg33
VTO
p1035
sg35
I7
ssg10
I99
sg36
g4
sg37
(dp1036
sg39
(dp1037
sg41
I575
sg42
g21
sg43
g21
sg44
I99
sg45
Vto
p1038
sg47
I99
sg48
I577
sbag0
(g23
g2
Ntp1039
Rp1040
(dp1041
g27
(dp1042
g29
Vhighlight
p1043
sg31
VO
p1044
sg33
VVB
p1045
sg35
I8
ssg10
I100
sg36
g4
sg37
(dp1046
sg39
(dp1047
sg41
I578
sg42
g21
sg43
g21
sg44
I100
sg45
Vhighlight
p1048
sg47
I100
sg48
I587
sbag0
(g23
g2
Ntp1049
Rp1050
(dp1051
g27
(dp1052
g29
Vthe
p1053
sg31
VO
p1054
sg33
VDT
p1055
sg35
I9
ssg10
I101
sg36
g4
sg37
(dp1056
sg39
(dp1057
sg41
I588
sg42
g21
sg43
g21
sg44
I101
sg45
Vthe
p1058
sg47
I101
sg48
I591
sbag0
(g23
g2
Ntp1059
Rp1060
(dp1061
g27
(dp1062
g29
Vdiscrimination
p1063
sg31
VO
p1064
sg33
VNN
p1065
sg35
I10
ssg10
I102
sg36
g4
sg37
(dp1066
sg39
(dp1067
sg41
I592
sg42
g21
sg43
g21
sg44
I102
sg45
Vdiscrimination
p1068
sg47
I102
sg48
I606
sbag0
(g23
g2
Ntp1069
Rp1070
(dp1071
g27
(dp1072
g29
Vinherent
p1073
sg31
VO
p1074
sg33
VJJ
p1075
sg35
I11
ssg10
I103
sg36
g4
sg37
(dp1076
sg39
(dp1077
sg41
I607
sg42
g21
sg43
g21
sg44
I103
sg45
Vinherent
p1078
sg47
I103
sg48
I615
sbag0
(g23
g2
Ntp1079
Rp1080
(dp1081
g27
(dp1082
g29
Vin
p1083
sg31
VO
p1084
sg33
VIN
p1085
sg35
I12
ssg10
I104
sg36
g4
sg37
(dp1086
sg39
(dp1087
sg41
I607
sg42
g21
sg43
g21
sg44
I104
sg45
Vin
p1088
sg47
I104
sg48
I609
sbag0
(g23
g2
Ntp1089
Rp1090
(dp1091
g27
(dp1092
g29
Vaffirmative
p1093
sg31
VO
p1094
sg33
VJJ
p1095
sg35
I13
ssg10
I105
sg36
g4
sg37
(dp1096
sg39
(dp1097
sg41
I619
sg42
g21
sg43
g21
sg44
I105
sg45
Vaffirmative
p1098
sg47
I105
sg48
I630
sbag0
(g23
g2
Ntp1099
Rp1100
(dp1101
g27
(dp1102
g29
Vaction
p1103
sg31
VO
p1104
sg33
VNN
p1105
sg35
I14
ssg10
I106
sg36
g4
sg37
(dp1106
sg39
(dp1107
sg41
I631
sg42
g21
sg43
g21
sg44
I106
sg45
Vaction
p1108
sg47
I106
sg48
I637
sbag0
(g23
g2
Ntp1109
Rp1110
(dp1111
g27
(dp1112
g29
Vprogram
p1113
sg31
VO
p1114
sg33
VNNS
p1115
sg35
I15
ssg10
I107
sg36
g4
sg37
(dp1116
sg39
(dp1117
sg41
I638
sg42
g21
sg43
g21
sg44
I107
sg45
Vprograms
p1118
sg47
I107
sg48
I646
sbag0
(g23
g2
Ntp1119
Rp1120
(dp1121
g27
(dp1122
g29
V.
p1123
sg31
VO
p1124
sg33
V.
p1125
sg35
I16
ssg10
I108
sg36
g4
sg37
(dp1126
sg39
(dp1127
sg41
I646
sg42
g21
sg43
g21
sg44
I108
sg45
V.
p1128
sg47
I108
sg48
I647
sbag0
(g23
g2
Ntp1129
Rp1130
(dp1131
g27
(dp1132
g29
Vthe
p1133
sg31
VO
p1134
sg33
VDT
p1135
sg35
I1
ssg10
I109
sg36
g4
sg37
(dp1136
sg39
(dp1137
sg41
I650
sg42
g21
sg43
g21
sg44
I109
sg45
VThe
p1138
sg47
I109
sg48
I653
sbag0
(g23
g2
Ntp1139
Rp1140
(dp1141
g27
(dp1142
g29
Vlaw
p1143
sg31
VO
p1144
sg33
VNN
p1145
sg35
I2
ssg10
I110
sg36
g4
sg37
(dp1146
sg39
(dp1147
sg41
I654
sg42
g21
sg43
g21
sg44
I110
sg45
Vlaw
p1148
sg47
I110
sg48
I657
sbag0
(g23
g2
Ntp1149
Rp1150
(dp1151
g27
(dp1152
g29
Vin
p1153
sg31
VO
p1154
sg33
VIN
p1155
sg35
I3
ssg10
I111
sg36
g4
sg37
(dp1156
sg39
(dp1157
sg41
I658
sg42
g21
sg43
g21
sg44
I111
sg45
Vin
p1158
sg47
I111
sg48
I660
sbag0
(g23
g2
Ntp1159
Rp1160
(dp1161
g27
(dp1162
g29
Vsome
p1163
sg31
VO
p1164
sg33
VDT
p1165
sg35
I4
ssg10
I112
sg36
g4
sg37
(dp1166
sg39
(dp1167
sg41
I661
sg42
g21
sg43
g21
sg44
I112
sg45
Vsome
p1168
sg47
I112
sg48
I665
sbag0
(g23
g2
Ntp1169
Rp1170
(dp1171
g27
(dp1172
g29
Vcountry
p1173
sg31
VO
p1174
sg33
VNNS
p1175
sg35
I5
ssg10
I113
sg36
g4
sg37
(dp1176
sg39
(dp1177
sg41
I666
sg42
g21
sg43
g21
sg44
I113
sg45
Vcountries
p1178
sg47
I113
sg48
I675
sbag0
(g23
g2
Ntp1179
Rp1180
(dp1181
g27
(dp1182
g29
V,
p1183
sg31
VO
p1184
sg33
V,
p1185
sg35
I6
ssg10
I114
sg36
g4
sg37
(dp1186
sg39
(dp1187
sg41
I675
sg42
g21
sg43
g21
sg44
I114
sg45
V,
p1188
sg47
I114
sg48
I676
sbag0
(g23
g2
Ntp1189
Rp1190
(dp1191
g27
(dp1192
g29
Vsuch
p1193
sg31
VO
p1194
sg33
VJJ
p1195
sg35
I7
ssg10
I115
sg36
g4
sg37
(dp1196
sg39
(dp1197
sg41
I677
sg42
g21
sg43
g21
sg44
I115
sg45
Vsuch
p1198
sg47
I115
sg48
I681
sbag0
(g23
g2
Ntp1199
Rp1200
(dp1201
g27
(dp1202
g29
Vas
p1203
sg31
VO
p1204
sg33
VIN
p1205
sg35
I8
ssg10
I116
sg36
g4
sg37
(dp1206
sg39
(dp1207
sg41
I682
sg42
g21
sg43
g21
sg44
I116
sg45
Vas
p1208
sg47
I116
sg48
I684
sbag0
(g23
g2
Ntp1209
Rp1210
(dp1211
g27
(dp1212
g29
Vthe
p1213
sg31
VO
p1214
sg33
VDT
p1215
sg35
I9
ssg10
I117
sg36
g4
sg37
(dp1216
sg39
(dp1217
sg41
I685
sg42
g21
sg43
g21
sg44
I117
sg45
Vthe
p1218
sg47
I117
sg48
I688
sbag0
(g23
g2
Ntp1219
Rp1220
(dp1221
g27
(dp1222
g29
VUK
p1223
sg31
VLOCATION
p1224
sg33
VNNP
p1225
sg35
I10
ssg10
I118
sg36
g4
sg37
(dp1226
sg39
(dp1227
sg41
I689
sg42
g21
sg43
g21
sg44
I118
sg45
VUK
p1228
sg47
I118
sg48
I691
sbag0
(g23
g2
Ntp1229
Rp1230
(dp1231
g27
(dp1232
g29
V,
p1233
sg31
VO
p1234
sg33
V,
p1235
sg35
I11
ssg10
I119
sg36
g4
sg37
(dp1236
sg39
(dp1237
sg41
I691
sg42
g21
sg43
g21
sg44
I119
sg45
V,
p1238
sg47
I119
sg48
I692
sbag0
(g23
g2
Ntp1239
Rp1240
(dp1241
g27
(dp1242
g29
Vdraw
p1243
sg31
VO
p1244
sg33
VVBZ
p1245
sg35
I12
ssg10
I120
sg36
g4
sg37
(dp1246
sg39
(dp1247
sg41
I693
sg42
g21
sg43
g21
sg44
I120
sg45
Vdraws
p1248
sg47
I120
sg48
I698
sbag0
(g23
g2
Ntp1249
Rp1250
(dp1251
g27
(dp1252
g29
Va
p1253
sg31
VO
p1254
sg33
VDT
p1255
sg35
I13
ssg10
I121
sg36
g4
sg37
(dp1256
sg39
(dp1257
sg41
I695
sg42
g21
sg43
g21
sg44
I121
sg45
Va
p1258
sg47
I121
sg48
I696
sbag0
(g23
g2
Ntp1259
Rp1260
(dp1261
g27
(dp1262
g29
Vdistinction
p1263
sg31
VO
p1264
sg33
VNN
p1265
sg35
I14
ssg10
I122
sg36
g4
sg37
(dp1266
sg39
(dp1267
sg41
I701
sg42
g21
sg43
g21
sg44
I122
sg45
Vdistinction
p1268
sg47
I122
sg48
I712
sbag0
(g23
g2
Ntp1269
Rp1270
(dp1271
g27
(dp1272
g29
Vbetween
p1273
sg31
VO
p1274
sg33
VIN
p1275
sg35
I15
ssg10
I123
sg36
g4
sg37
(dp1276
sg39
(dp1277
sg41
I713
sg42
g21
sg43
g21
sg44
I123
sg45
Vbetween
p1278
sg47
I123
sg48
I720
sbag0
(g23
g2
Ntp1279
Rp1280
(dp1281
g27
(dp1282
g29
VEquality
p1283
sg31
VORGANIZATION
p1284
sg33
VNNP
p1285
sg35
I16
ssg10
I124
sg36
g4
sg37
(dp1286
sg39
(dp1287
sg41
I721
sg42
g21
sg43
g21
sg44
I124
sg45
VEquality
p1288
sg47
I124
sg48
I729
sbag0
(g23
g2
Ntp1289
Rp1290
(dp1291
g27
(dp1292
g29
Vof
p1293
sg31
VORGANIZATION
p1294
sg33
VIN
p1295
sg35
I17
ssg10
I125
sg36
g4
sg37
(dp1296
sg39
(dp1297
sg41
I730
sg42
g21
sg43
g21
sg44
I125
sg45
Vof
p1298
sg47
I125
sg48
I732
sbag0
(g23
g2
Ntp1299
Rp1300
(dp1301
g27
(dp1302
g29
VProvision
p1303
sg31
VORGANIZATION
p1304
sg33
VNNP
p1305
sg35
I18
ssg10
I126
sg36
g4
sg37
(dp1306
sg39
(dp1307
sg41
I733
sg42
g21
sg43
g21
sg44
I126
sg45
VProvision
p1308
sg47
I126
sg48
I742
sbag0
(g23
g2
Ntp1309
Rp1310
(dp1311
g27
(dp1312
g29
Vand
p1313
sg31
VORGANIZATION
p1314
sg33
VCC
p1315
sg35
I19
ssg10
I127
sg36
g4
sg37
(dp1316
sg39
(dp1317
sg41
I743
sg42
g21
sg43
g21
sg44
I127
sg45
Vand
p1318
sg47
I127
sg48
I746
sbag0
(g23
g2
Ntp1319
Rp1320
(dp1321
g27
(dp1322
g29
VEquality
p1323
sg31
VORGANIZATION
p1324
sg33
VNNP
p1325
sg35
I20
ssg10
I128
sg36
g4
sg37
(dp1326
sg39
(dp1327
sg41
I747
sg42
g21
sg43
g21
sg44
I128
sg45
VEquality
p1328
sg47
I128
sg48
I755
sbag0
(g23
g2
Ntp1329
Rp1330
(dp1331
g27
(dp1332
g29
Vof
p1333
sg31
VORGANIZATION
p1334
sg33
VIN
p1335
sg35
I21
ssg10
I129
sg36
g4
sg37
(dp1336
sg39
(dp1337
sg41
I756
sg42
g21
sg43
g21
sg44
I129
sg45
Vof
p1338
sg47
I129
sg48
I758
sbag0
(g23
g2
Ntp1339
Rp1340
(dp1341
g27
(dp1342
g29
VOutcome
p1343
sg31
VORGANIZATION
p1344
sg33
VNNP
p1345
sg35
I22
ssg10
I130
sg36
g4
sg37
(dp1346
sg39
(dp1347
sg41
I759
sg42
g21
sg43
g21
sg44
I130
sg45
VOutcome
p1348
sg47
I130
sg48
I766
sbag0
(g23
g2
Ntp1349
Rp1350
(dp1351
g27
(dp1352
g29
V,
p1353
sg31
VO
p1354
sg33
V,
p1355
sg35
I23
ssg10
I131
sg36
g4
sg37
(dp1356
sg39
(dp1357
sg41
I766
sg42
g21
sg43
g21
sg44
I131
sg45
V,
p1358
sg47
I131
sg48
I767
sbag0
(g23
g2
Ntp1359
Rp1360
(dp1361
g27
(dp1362
g29
Vrecognise
p1363
sg31
VO
p1364
sg33
VVBG
p1365
sg35
I24
ssg10
I132
sg36
g4
sg37
(dp1366
sg39
(dp1367
sg41
I768
sg42
g21
sg43
g21
sg44
I132
sg45
Vrecognising
p1368
sg47
I132
sg48
I779
sbag0
(g23
g2
Ntp1369
Rp1370
(dp1371
g27
(dp1372
g29
Vthat
p1373
sg31
VO
p1374
sg33
VIN
p1375
sg35
I25
ssg10
I133
sg36
g4
sg37
(dp1376
sg39
(dp1377
sg41
I780
sg42
g21
sg43
g21
sg44
I133
sg45
Vthat
p1378
sg47
I133
sg48
I784
sbag0
(g23
g2
Ntp1379
Rp1380
(dp1381
g27
(dp1382
g29
Videntical
p1383
sg31
VO
p1384
sg33
VJJ
p1385
sg35
I26
ssg10
I134
sg36
g4
sg37
(dp1386
sg39
(dp1387
sg41
I785
sg42
g21
sg43
g21
sg44
I134
sg45
Videntical
p1388
sg47
I134
sg48
I794
sbag0
(g23
g2
Ntp1389
Rp1390
(dp1391
g27
(dp1392
g29
Vtreatment
p1393
sg31
VO
p1394
sg33
VNN
p1395
sg35
I27
ssg10
I135
sg36
g4
sg37
(dp1396
sg39
(dp1397
sg41
I795
sg42
g21
sg43
g21
sg44
I135
sg45
Vtreatment
p1398
sg47
I135
sg48
I804
sbag0
(g23
g2
Ntp1399
Rp1400
(dp1401
g27
(dp1402
g29
Vmay
p1403
sg31
VO
p1404
sg33
VMD
p1405
sg35
I28
ssg10
I136
sg36
g4
sg37
(dp1406
sg39
(dp1407
sg41
I805
sg42
g21
sg43
g21
sg44
I136
sg45
Vmay
p1408
sg47
I136
sg48
I808
sbag0
(g23
g2
Ntp1409
Rp1410
(dp1411
g27
(dp1412
g29
Vsometimes
p1413
sg31
VO
p1414
sg33
VRB
p1415
sg35
I29
ssg10
I137
sg36
g4
sg37
(dp1416
sg39
(dp1417
sg41
I809
sg42
g21
sg43
g21
sg44
I137
sg45
Vsometimes
p1418
sg47
I137
sg48
I818
sbag0
(g23
g2
Ntp1419
Rp1420
(dp1421
g27
(dp1422
g29
Vact
p1423
sg31
VO
p1424
sg33
VVB
p1425
sg35
I30
ssg10
I138
sg36
g4
sg37
(dp1426
sg39
(dp1427
sg41
I819
sg42
g21
sg43
g21
sg44
I138
sg45
Vact
p1428
sg47
I138
sg48
I822
sbag0
(g23
g2
Ntp1429
Rp1430
(dp1431
g27
(dp1432
g29
Vto
p1433
sg31
VO
p1434
sg33
VTO
p1435
sg35
I31
ssg10
I139
sg36
g4
sg37
(dp1436
sg39
(dp1437
sg41
I823
sg42
g21
sg43
g21
sg44
I139
sg45
Vto
p1438
sg47
I139
sg48
I825
sbag0
(g23
g2
Ntp1439
Rp1440
(dp1441
g27
(dp1442
g29
Vpreserve
p1443
sg31
VO
p1444
sg33
VVB
p1445
sg35
I32
ssg10
I140
sg36
g4
sg37
(dp1446
sg39
(dp1447
sg41
I826
sg42
g21
sg43
g21
sg44
I140
sg45
Vpreserve
p1448
sg47
I140
sg48
I834
sbag0
(g23
g2
Ntp1449
Rp1450
(dp1451
g27
(dp1452
g29
Vinequality
p1453
sg31
VO
p1454
sg33
VNN
p1455
sg35
I33
ssg10
I141
sg36
g4
sg37
(dp1456
sg39
(dp1457
sg41
I835
sg42
g21
sg43
g21
sg44
I141
sg45
Vinequality
p1458
sg47
I141
sg48
I845
sbag0
(g23
g2
Ntp1459
Rp1460
(dp1461
g27
(dp1462
g29
Vrather
p1463
sg31
VO
p1464
sg33
VRB
p1465
sg35
I34
ssg10
I142
sg36
g4
sg37
(dp1466
sg39
(dp1467
sg41
I846
sg42
g21
sg43
g21
sg44
I142
sg45
Vrather
p1468
sg47
I142
sg48
I852
sbag0
(g23
g2
Ntp1469
Rp1470
(dp1471
g27
(dp1472
g29
Vthan
p1473
sg31
VO
p1474
sg33
VIN
p1475
sg35
I35
ssg10
I143
sg36
g4
sg37
(dp1476
sg39
(dp1477
sg41
I853
sg42
g21
sg43
g21
sg44
I143
sg45
Vthan
p1478
sg47
I143
sg48
I857
sbag0
(g23
g2
Ntp1479
Rp1480
(dp1481
g27
(dp1482
g29
Veliminate
p1483
sg31
VO
p1484
sg33
VVB
p1485
sg35
I36
ssg10
I144
sg36
g4
sg37
(dp1486
sg39
(dp1487
sg41
I858
sg42
g21
sg43
g21
sg44
I144
sg45
Veliminate
p1488
sg47
I144
sg48
I867
sbag0
(g23
g2
Ntp1489
Rp1490
(dp1491
g27
(dp1492
g29
Vit
p1493
sg31
VO
p1494
sg33
VPRP
p1495
sg35
I37
ssg10
I145
sg36
g4
sg37
(dp1496
sg39
(dp1497
sg41
I868
sg42
g21
sg43
g21
sg44
I145
sg45
Vit
p1498
sg47
I145
sg48
I870
sbag0
(g23
g2
Ntp1499
Rp1500
(dp1501
g27
(dp1502
g29
V.
p1503
sg31
VO
p1504
sg33
V.
p1505
sg35
I38
ssg10
I146
sg36
g4
sg37
(dp1506
sg39
(dp1507
sg41
I870
sg42
g21
sg43
g21
sg44
I146
sg45
V.
p1508
sg47
I146
sg48
I871
sbag0
(g23
g2
Ntp1509
Rp1510
(dp1511
g27
(dp1512
g29
Vopponent
p1513
sg31
VO
p1514
sg33
VNNS
p1515
sg35
I1
ssg10
I147
sg36
g4
sg37
(dp1516
sg39
(dp1517
sg41
I872
sg42
g21
sg43
g21
sg44
I147
sg45
VOpponents
p1518
sg47
I147
sg48
I881
sbag0
(g23
g2
Ntp1519
Rp1520
(dp1521
g27
(dp1522
g29
Vof
p1523
sg31
VO
p1524
sg33
VIN
p1525
sg35
I2
ssg10
I148
sg36
g4
sg37
(dp1526
sg39
(dp1527
sg41
I882
sg42
g21
sg43
g21
sg44
I148
sg45
Vof
p1528
sg47
I148
sg48
I884
sbag0
(g23
g2
Ntp1529
Rp1530
(dp1531
g27
(dp1532
g29
Vthis
p1533
sg31
VO
p1534
sg33
VDT
p1535
sg35
I3
ssg10
I149
sg36
g4
sg37
(dp1536
sg39
(dp1537
sg41
I885
sg42
g21
sg43
g21
sg44
I149
sg45
Vthis
p1538
sg47
I149
sg48
I889
sbag0
(g23
g2
Ntp1539
Rp1540
(dp1541
g27
(dp1542
g29
Vdistinction
p1543
sg31
VO
p1544
sg33
VNN
p1545
sg35
I4
ssg10
I150
sg36
g4
sg37
(dp1546
sg39
(dp1547
sg41
I890
sg42
g21
sg43
g21
sg44
I150
sg45
Vdistinction
p1548
sg47
I150
sg48
I901
sbag0
(g23
g2
Ntp1549
Rp1550
(dp1551
g27
(dp1552
g29
Vmay
p1553
sg31
VO
p1554
sg33
VMD
p1555
sg35
I5
ssg10
I151
sg36
g4
sg37
(dp1556
sg39
(dp1557
sg41
I902
sg42
g21
sg43
g21
sg44
I151
sg45
Vmay
p1558
sg47
I151
sg48
I905
sbag0
(g23
g2
Ntp1559
Rp1560
(dp1561
g27
(dp1562
g29
Vlabel
p1563
sg31
VO
p1564
sg33
VVB
p1565
sg35
I6
ssg10
I152
sg36
g4
sg37
(dp1566
sg39
(dp1567
sg41
I906
sg42
g21
sg43
g21
sg44
I152
sg45
Vlabel
p1568
sg47
I152
sg48
I911
sbag0
(g23
g2
Ntp1569
Rp1570
(dp1571
g27
(dp1572
g29
Vit
p1573
sg31
VO
p1574
sg33
VPRP
p1575
sg35
I7
ssg10
I153
sg36
g4
sg37
(dp1576
sg39
(dp1577
sg41
I912
sg42
g21
sg43
g21
sg44
I153
sg45
Vit
p1578
sg47
I153
sg48
I914
sbag0
(g23
g2
Ntp1579
Rp1580
(dp1581
g27
(dp1582
g29
Vas
p1583
sg31
VO
p1584
sg33
VIN
p1585
sg35
I8
ssg10
I154
sg36
g4
sg37
(dp1586
sg39
(dp1587
sg41
I915
sg42
g21
sg43
g21
sg44
I154
sg45
Vas
p1588
sg47
I154
sg48
I917
sbag0
(g23
g2
Ntp1589
Rp1590
(dp1591
g27
(dp1592
g29
Va
p1593
sg31
VO
p1594
sg33
VDT
p1595
sg35
I9
ssg10
I155
sg36
g4
sg37
(dp1596
sg39
(dp1597
sg41
I918
sg42
g21
sg43
g21
sg44
I155
sg45
Van
p1598
sg47
I155
sg48
I920
sbag0
(g23
g2
Ntp1599
Rp1600
(dp1601
g27
(dp1602
g29
Vexample
p1603
sg31
VO
p1604
sg33
VNN
p1605
sg35
I10
ssg10
I156
sg36
g4
sg37
(dp1606
sg39
(dp1607
sg41
I921
sg42
g21
sg43
g21
sg44
I156
sg45
Vexample
p1608
sg47
I156
sg48
I928
sbag0
(g23
g2
Ntp1609
Rp1610
(dp1611
g27
(dp1612
g29
Vof
p1613
sg31
VO
p1614
sg33
VIN
p1615
sg35
I11
ssg10
I157
sg36
g4
sg37
(dp1616
sg39
(dp1617
sg41
I929
sg42
g21
sg43
g21
sg44
I157
sg45
Vof
p1618
sg47
I157
sg48
I931
sbag0
(g23
g2
Ntp1619
Rp1620
(dp1621
g27
(dp1622
g29
Vpositive
p1623
sg31
VO
p1624
sg33
VJJ
p1625
sg35
I12
ssg10
I158
sg36
g4
sg37
(dp1626
sg39
(dp1627
sg41
I932
sg42
g21
sg43
g21
sg44
I158
sg45
Vpositive
p1628
sg47
I158
sg48
I940
sbag0
(g23
g2
Ntp1629
Rp1630
(dp1631
g27
(dp1632
g29
Vdiscrimination
p1633
sg31
VO
p1634
sg33
VNN
p1635
sg35
I13
ssg10
I159
sg36
g4
sg37
(dp1636
sg39
(dp1637
sg41
I941
sg42
g21
sg43
g21
sg44
I159
sg45
Vdiscrimination
p1638
sg47
I159
sg48
I955
sbag0
(g23
g2
Ntp1639
Rp1640
(dp1641
g27
(dp1642
g29
V.
p1643
sg31
VO
p1644
sg33
V.
p1645
sg35
I14
ssg10
I160
sg36
g4
sg37
(dp1646
sg39
(dp1647
sg41
I955
sg42
g21
sg43
g21
sg44
I160
sg45
V.
p1648
sg47
I160
sg48
I956
sbag0
(g23
g2
Ntp1649
Rp1650
(dp1651
g27
(dp1652
g29
Vin
p1653
sg31
VO
p1654
sg33
VIN
p1655
sg35
I1
ssg10
I161
sg36
g4
sg37
(dp1656
sg39
(dp1657
sg41
I958
sg42
g21
sg43
g21
sg44
I161
sg45
VIn
p1658
sg47
I161
sg48
I960
sbag0
(g23
g2
Ntp1659
Rp1660
(dp1661
g27
(dp1662
g29
VIndia
p1663
sg31
VLOCATION
p1664
sg33
VNNP
p1665
sg35
I2
ssg10
I162
sg36
g4
sg37
(dp1666
sg39
(dp1667
sg41
I961
sg42
g21
sg43
g21
sg44
I162
sg45
VIndia
p1668
sg47
I162
sg48
I966
sbag0
(g23
g2
Ntp1669
Rp1670
(dp1671
g27
(dp1672
g29
V,
p1673
sg31
VO
p1674
sg33
V,
p1675
sg35
I3
ssg10
I163
sg36
g4
sg37
(dp1676
sg39
(dp1677
sg41
I966
sg42
g21
sg43
g21
sg44
I163
sg45
V,
p1678
sg47
I163
sg48
I967
sbag0
(g23
g2
Ntp1679
Rp1680
(dp1681
g27
(dp1682
g29
Vamong
p1683
sg31
VO
p1684
sg33
VIN
p1685
sg35
I4
ssg10
I164
sg36
g4
sg37
(dp1686
sg39
(dp1687
sg41
I968
sg42
g21
sg43
g21
sg44
I164
sg45
Vamong
p1688
sg47
I164
sg48
I973
sbag0
(g23
g2
Ntp1689
Rp1690
(dp1691
g27
(dp1692
g29
Vthe
p1693
sg31
VO
p1694
sg33
VDT
p1695
sg35
I5
ssg10
I165
sg36
g4
sg37
(dp1696
sg39
(dp1697
sg41
I974
sg42
g21
sg43
g21
sg44
I165
sg45
Vthe
p1698
sg47
I165
sg48
I977
sbag0
(g23
g2
Ntp1699
Rp1700
(dp1701
g27
(dp1702
g29
Vlimited
p1703
sg31
VO
p1704
sg33
VJJ
p1705
sg35
I6
ssg10
I166
sg36
g4
sg37
(dp1706
sg39
(dp1707
sg41
I978
sg42
g21
sg43
g21
sg44
I166
sg45
Vlimited
p1708
sg47
I166
sg48
I985
sbag0
(g23
g2
Ntp1709
Rp1710
(dp1711
g27
(dp1712
g29
Vposition
p1713
sg31
VO
p1714
sg33
VNNS
p1715
sg35
I7
ssg10
I167
sg36
g4
sg37
(dp1716
sg39
(dp1717
sg41
I986
sg42
g21
sg43
g21
sg44
I167
sg45
Vpositions
p1718
sg47
I167
sg48
I995
sbag0
(g23
g2
Ntp1719
Rp1720
(dp1721
g27
(dp1722
g29
Vfor
p1723
sg31
VO
p1724
sg33
VIN
p1725
sg35
I8
ssg10
I168
sg36
g4
sg37
(dp1726
sg39
(dp1727
sg41
I996
sg42
g21
sg43
g21
sg44
I168
sg45
Vfor
p1728
sg47
I168
sg48
I999
sbag0
(g23
g2
Ntp1729
Rp1730
(dp1731
g27
(dp1732
g29
Vhigher
p1733
sg31
VO
p1734
sg33
VJJR
p1735
sg35
I9
ssg10
I169
sg36
g4
sg37
(dp1736
sg39
(dp1737
sg41
I1000
sg42
g21
sg43
g21
sg44
I169
sg45
Vhigher
p1738
sg47
I169
sg48
I1006
sbag0
(g23
g2
Ntp1739
Rp1740
(dp1741
g27
(dp1742
g29
Veducation
p1743
sg31
VO
p1744
sg33
VNN
p1745
sg35
I10
ssg10
I170
sg36
g4
sg37
(dp1746
sg39
(dp1747
sg41
I1007
sg42
g21
sg43
g21
sg44
I170
sg45
Veducation
p1748
sg47
I170
sg48
I1016
sbag0
(g23
g2
Ntp1749
Rp1750
(dp1751
g27
(dp1752
g29
V,
p1753
sg31
VO
p1754
sg33
V,
p1755
sg35
I11
ssg10
I171
sg36
g4
sg37
(dp1756
sg39
(dp1757
sg41
I1016
sg42
g21
sg43
g21
sg44
I171
sg45
V,
p1758
sg47
I171
sg48
I1017
sbag0
(g23
g2
Ntp1759
Rp1760
(dp1761
g27
(dp1762
g29
V50
p1763
sg31
VPERCENT
p1764
sg33
VCD
p1765
sg35
I12
ssg10
I172
sg36
g4
sg37
(dp1766
sg39
(dp1767
sg41
I1018
sg42
g21
sg43
g21
sg44
I172
sg45
V50
p1768
sg47
I172
sg48
I1020
sbag0
(g23
g2
Ntp1769
Rp1770
(dp1771
g27
(dp1772
g29
Vpercent
p1773
sg31
VPERCENT
p1774
sg33
VNN
p1775
sg35
I13
ssg10
I173
sg36
g4
sg37
(dp1776
sg39
(dp1777
sg41
I1021
sg42
g21
sg43
g21
sg44
I173
sg45
Vpercent
p1778
sg47
I173
sg48
I1028
sbag0
(g23
g2
Ntp1779
Rp1780
(dp1781
g27
(dp1782
g29
Vbe
p1783
sg31
VO
p1784
sg33
VVBP
p1785
sg35
I14
ssg10
I174
sg36
g4
sg37
(dp1786
sg39
(dp1787
sg41
I1029
sg42
g21
sg43
g21
sg44
I174
sg45
Vare
p1788
sg47
I174
sg48
I1032
sbag0
(g23
g2
Ntp1789
Rp1790
(dp1791
g27
(dp1792
g29
Vreserve
p1793
sg31
VO
p1794
sg33
VVBN
p1795
sg35
I15
ssg10
I175
sg36
g4
sg37
(dp1796
sg39
(dp1797
sg41
I1033
sg42
g21
sg43
g21
sg44
I175
sg45
Vreserved
p1798
sg47
I175
sg48
I1041
sbag0
(g23
g2
Ntp1799
Rp1800
(dp1801
g27
(dp1802
g29
V.
p1803
sg31
VO
p1804
sg33
V.
p1805
sg35
I16
ssg10
I176
sg36
g4
sg37
(dp1806
sg39
(dp1807
sg41
I1041
sg42
g21
sg43
g21
sg44
I176
sg45
V.
p1808
sg47
I176
sg48
I1042
sbag0
(g23
g2
Ntp1809
Rp1810
(dp1811
g27
(dp1812
g29
Vreserve
p1813
sg31
VO
p1814
sg33
VVBN
p1815
sg35
I1
ssg10
I177
sg36
g4
sg37
(dp1816
sg39
(dp1817
sg41
I1043
sg42
g21
sg43
g21
sg44
I177
sg45
VReserved
p1818
sg47
I177
sg48
I1051
sbag0
(g23
g2
Ntp1819
Rp1820
(dp1821
g27
(dp1822
g29
Vcategory
p1823
sg31
VO
p1824
sg33
VNN
p1825
sg35
I2
ssg10
I178
sg36
g4
sg37
(dp1826
sg39
(dp1827
sg41
I1052
sg42
g21
sg43
g21
sg44
I178
sg45
Vcategory
p1828
sg47
I178
sg48
I1060
sbag0
(g23
g2
Ntp1829
Rp1830
(dp1831
g27
(dp1832
g29
Vcandidate
p1833
sg31
VO
p1834
sg33
VNNS
p1835
sg35
I3
ssg10
I179
sg36
g4
sg37
(dp1836
sg39
(dp1837
sg41
I1061
sg42
g21
sg43
g21
sg44
I179
sg45
Vcandidates
p1838
sg47
I179
sg48
I1071
sbag0
(g23
g2
Ntp1839
Rp1840
(dp1841
g27
(dp1842
g29
Vcan
p1843
sg31
VO
p1844
sg33
VMD
p1845
sg35
I4
ssg10
I180
sg36
g4
sg37
(dp1846
sg39
(dp1847
sg41
I1061
sg42
g21
sg43
g21
sg44
I180
sg45
Vcan
p1848
sg47
I180
sg48
I1064
sbag0
(g23
g2
Ntp1849
Rp1850
(dp1851
g27
(dp1852
g29
Vselect
p1853
sg31
VO
p1854
sg33
VVB
p1855
sg35
I5
ssg10
I181
sg36
g4
sg37
(dp1856
sg39
(dp1857
sg41
I1076
sg42
g21
sg43
g21
sg44
I181
sg45
Vselect
p1858
sg47
I181
sg48
I1082
sbag0
(g23
g2
Ntp1859
Rp1860
(dp1861
g27
(dp1862
g29
Va
p1863
sg31
VO
p1864
sg33
VDT
p1865
sg35
I6
ssg10
I182
sg36
g4
sg37
(dp1866
sg39
(dp1867
sg41
I1083
sg42
g21
sg43
g21
sg44
I182
sg45
Va
p1868
sg47
I182
sg48
I1084
sbag0
(g23
g2
Ntp1869
Rp1870
(dp1871
g27
(dp1872
g29
Vposition
p1873
sg31
VO
p1874
sg33
VNN
p1875
sg35
I7
ssg10
I183
sg36
g4
sg37
(dp1876
sg39
(dp1877
sg41
I1085
sg42
g21
sg43
g21
sg44
I183
sg45
Vposition
p1878
sg47
I183
sg48
I1093
sbag0
(g23
g2
Ntp1879
Rp1880
(dp1881
g27
(dp1882
g29
Vfrom
p1883
sg31
VO
p1884
sg33
VIN
p1885
sg35
I8
ssg10
I184
sg36
g4
sg37
(dp1886
sg39
(dp1887
sg41
I1094
sg42
g21
sg43
g21
sg44
I184
sg45
Vfrom
p1888
sg47
I184
sg48
I1098
sbag0
(g23
g2
Ntp1889
Rp1890
(dp1891
g27
(dp1892
g29
Vthe
p1893
sg31
VO
p1894
sg33
VDT
p1895
sg35
I9
ssg10
I185
sg36
g4
sg37
(dp1896
sg39
(dp1897
sg41
I1099
sg42
g21
sg43
g21
sg44
I185
sg45
Vthe
p1898
sg47
I185
sg48
I1102
sbag0
(g23
g2
Ntp1899
Rp1900
(dp1901
g27
(dp1902
g29
VOpen
p1903
sg31
VMISC
p1904
sg33
VNNP
p1905
sg35
I10
ssg10
I186
sg36
g4
sg37
(dp1906
sg39
(dp1907
sg41
I1103
sg42
g21
sg43
g21
sg44
I186
sg45
VOpen
p1908
sg47
I186
sg48
I1107
sbag0
(g23
g2
Ntp1909
Rp1910
(dp1911
g27
(dp1912
g29
V50
p1913
sg31
VPERCENT
p1914
sg33
VCD
p1915
sg35
I11
ssg10
I187
sg36
g4
sg37
(dp1916
sg39
(dp1917
sg41
I1108
sg42
g21
sg43
g21
sg44
I187
sg45
V50
p1918
sg47
I187
sg48
I1110
sbag0
(g23
g2
Ntp1919
Rp1920
(dp1921
g27
(dp1922
g29
Vpercent
p1923
sg31
VPERCENT
p1924
sg33
VNN
p1925
sg35
I12
ssg10
I188
sg36
g4
sg37
(dp1926
sg39
(dp1927
sg41
I1111
sg42
g21
sg43
g21
sg44
I188
sg45
Vpercent
p1928
sg47
I188
sg48
I1118
sbag0
(g23
g2
Ntp1929
Rp1930
(dp1931
g27
(dp1932
g29
Vif
p1933
sg31
VO
p1934
sg33
VIN
p1935
sg35
I13
ssg10
I189
sg36
g4
sg37
(dp1936
sg39
(dp1937
sg41
I1119
sg42
g21
sg43
g21
sg44
I189
sg45
Vif
p1938
sg47
I189
sg48
I1121
sbag0
(g23
g2
Ntp1939
Rp1940
(dp1941
g27
(dp1942
g29
Vhe
p1943
sg31
VO
p1944
sg33
VPRP
p1945
sg35
I14
ssg10
I190
sg36
g4
sg37
(dp1946
sg39
(dp1947
sg41
I1122
sg42
g21
sg43
g21
sg44
I190
sg45
Vhe
p1948
sg47
I190
sg48
I1124
sbag0
(g23
g2
Ntp1949
Rp1950
(dp1951
g27
(dp1952
g29
Vor
p1953
sg31
VO
p1954
sg33
VCC
p1955
sg35
I15
ssg10
I191
sg36
g4
sg37
(dp1956
sg39
(dp1957
sg41
I1125
sg42
g21
sg43
g21
sg44
I191
sg45
Vor
p1958
sg47
I191
sg48
I1127
sbag0
(g23
g2
Ntp1959
Rp1960
(dp1961
g27
(dp1962
g29
Vshe
p1963
sg31
VO
p1964
sg33
VPRP
p1965
sg35
I16
ssg10
I192
sg36
g4
sg37
(dp1966
sg39
(dp1967
sg41
I1128
sg42
g21
sg43
g21
sg44
I192
sg45
Vshe
p1968
sg47
I192
sg48
I1131
sbag0
(g23
g2
Ntp1969
Rp1970
(dp1971
g27
(dp1972
g29
Vhave
p1973
sg31
VO
p1974
sg33
VVBZ
p1975
sg35
I17
ssg10
I193
sg36
g4
sg37
(dp1976
sg39
(dp1977
sg41
I1132
sg42
g21
sg43
g21
sg44
I193
sg45
Vhas
p1978
sg47
I193
sg48
I1135
sbag0
(g23
g2
Ntp1979
Rp1980
(dp1981
g27
(dp1982
g29
Vgood
p1983
sg31
VO
p1984
sg33
VJJ
p1985
sg35
I18
ssg10
I194
sg36
g4
sg37
(dp1986
sg39
(dp1987
sg41
I1136
sg42
g21
sg43
g21
sg44
I194
sg45
Vgood
p1988
sg47
I194
sg48
I1140
sbag0
(g23
g2
Ntp1989
Rp1990
(dp1991
g27
(dp1992
g29
Vmerit
p1993
sg31
VO
p1994
sg33
VNN
p1995
sg35
I19
ssg10
I195
sg36
g4
sg37
(dp1996
sg39
(dp1997
sg41
I1141
sg42
g21
sg43
g21
sg44
I195
sg45
Vmerit
p1998
sg47
I195
sg48
I1146
sbag0
(g23
g2
Ntp1999
Rp2000
(dp2001
g27
(dp2002
g29
V.
p2003
sg31
VO
p2004
sg33
V.
p2005
sg35
I20
ssg10
I196
sg36
g4
sg37
(dp2006
sg39
(dp2007
sg41
I1146
sg42
g21
sg43
g21
sg44
I196
sg45
V.
p2008
sg47
I196
sg48
I1147
sbag0
(g23
g2
Ntp2009
Rp2010
(dp2011
g27
(dp2012
g29
Vthis
p2013
sg31
VO
p2014
sg33
VDT
p2015
sg35
I1
ssg10
I197
sg36
g4
sg37
(dp2016
sg39
(dp2017
sg41
I1148
sg42
g21
sg43
g21
sg44
I197
sg45
VThis
p2018
sg47
I197
sg48
I1152
sbag0
(g23
g2
Ntp2019
Rp2020
(dp2021
g27
(dp2022
g29
Vresult
p2023
sg31
VO
p2024
sg33
VVBZ
p2025
sg35
I2
ssg10
I198
sg36
g4
sg37
(dp2026
sg39
(dp2027
sg41
I1153
sg42
g21
sg43
g21
sg44
I198
sg45
Vresults
p2028
sg47
I198
sg48
I1160
sbag0
(g23
g2
Ntp2029
Rp2030
(dp2031
g27
(dp2032
g29
Vin
p2033
sg31
VO
p2034
sg33
VIN
p2035
sg35
I3
ssg10
I199
sg36
g4
sg37
(dp2036
sg39
(dp2037
sg41
I1161
sg42
g21
sg43
g21
sg44
I199
sg45
Vin
p2038
sg47
I199
sg48
I1163
sbag0
(g23
g2
Ntp2039
Rp2040
(dp2041
g27
(dp2042
g29
Vfurther
p2043
sg31
VO
p2044
sg33
VJJ
p2045
sg35
I4
ssg10
I200
sg36
g4
sg37
(dp2046
sg39
(dp2047
sg41
I1164
sg42
g21
sg43
g21
sg44
I200
sg45
Vfurther
p2048
sg47
I200
sg48
I1171
sbag0
(g23
g2
Ntp2049
Rp2050
(dp2051
g27
(dp2052
g29
Vreverse
p2053
sg31
VO
p2054
sg33
VJJ
p2055
sg35
I5
ssg10
I201
sg36
g4
sg37
(dp2056
sg39
(dp2057
sg41
I1172
sg42
g21
sg43
g21
sg44
I201
sg45
Vreverse
p2058
sg47
I201
sg48
I1179
sbag0
(g23
g2
Ntp2059
Rp2060
(dp2061
g27
(dp2062
g29
Vdiscrimination
p2063
sg31
VO
p2064
sg33
VNN
p2065
sg35
I6
ssg10
I202
sg36
g4
sg37
(dp2066
sg39
(dp2067
sg41
I1180
sg42
g21
sg43
g21
sg44
I202
sg45
Vdiscrimination
p2068
sg47
I202
sg48
I1194
sbag0
(g23
g2
Ntp2069
Rp2070
(dp2071
g27
(dp2072
g29
Vof
p2073
sg31
VO
p2074
sg33
VIN
p2075
sg35
I7
ssg10
I203
sg36
g4
sg37
(dp2076
sg39
(dp2077
sg41
I1195
sg42
g21
sg43
g21
sg44
I203
sg45
Vof
p2078
sg47
I203
sg48
I1197
sbag0
(g23
g2
Ntp2079
Rp2080
(dp2081
g27
(dp2082
g29
VOpen/General/Non
p2083
sg31
VO
p2084
sg33
VNNP
p2085
sg35
I8
ssg10
I204
sg36
g4
sg37
(dp2086
sg39
(dp2087
sg41
I1198
sg42
g21
sg43
g21
sg44
I204
sg45
VOpen/General/Non
p2088
sg47
I204
sg48
I1214
sbag0
(g23
g2
Ntp2089
Rp2090
(dp2091
g27
(dp2092
g29
VReserved
p2093
sg31
VO
p2094
sg33
VNNP
p2095
sg35
I9
ssg10
I205
sg36
g4
sg37
(dp2096
sg39
(dp2097
sg41
I1215
sg42
g21
sg43
g21
sg44
I205
sg45
VReserved
p2098
sg47
I205
sg48
I1223
sbag0
(g23
g2
Ntp2099
Rp2100
(dp2101
g27
(dp2102
g29
Vcandidate
p2103
sg31
VO
p2104
sg33
VNNS
p2105
sg35
I10
ssg10
I206
sg36
g4
sg37
(dp2106
sg39
(dp2107
sg41
I1224
sg42
g21
sg43
g21
sg44
I206
sg45
Vcandidates
p2108
sg47
I206
sg48
I1234
sbag0
(g23
g2
Ntp2109
Rp2110
(dp2111
g27
(dp2112
g29
V.
p2113
sg31
VO
p2114
sg33
V.
p2115
sg35
I11
ssg10
I207
sg36
g4
sg37
(dp2116
sg39
(dp2117
sg41
I1234
sg42
g21
sg43
g21
sg44
I207
sg45
V.
p2118
sg47
I207
sg48
I1235
sbag0
(g23
g2
Ntp2119
Rp2120
(dp2121
g27
(dp2122
g29
Vfurther
p2123
sg31
VO
p2124
sg33
VRB
p2125
sg35
I1
ssg10
I208
sg36
g4
sg37
(dp2126
sg39
(dp2127
sg41
I1236
sg42
g21
sg43
g21
sg44
I208
sg45
VFurther
p2128
sg47
I208
sg48
I1243
sbag0
(g23
g2
Ntp2129
Rp2130
(dp2131
g27
(dp2132
g29
V,
p2133
sg31
VO
p2134
sg33
V,
p2135
sg35
I2
ssg10
I209
sg36
g4
sg37
(dp2136
sg39
(dp2137
sg41
I1243
sg42
g21
sg43
g21
sg44
I209
sg45
V,
p2138
sg47
I209
sg48
I1244
sbag0
(g23
g2
Ntp2139
Rp2140
(dp2141
g27
(dp2142
g29
Vsince
p2143
sg31
VO
p2144
sg33
VIN
p2145
sg35
I3
ssg10
I210
sg36
g4
sg37
(dp2146
sg39
(dp2147
sg41
I1245
sg42
g21
sg43
g21
sg44
I210
sg45
Vsince
p2148
sg47
I210
sg48
I1250
sbag0
(g23
g2
Ntp2149
Rp2150
(dp2151
g27
(dp2152
g29
Vthere
p2153
sg31
VO
p2154
sg33
VEX
p2155
sg35
I4
ssg10
I211
sg36
g4
sg37
(dp2156
sg39
(dp2157
sg41
I1251
sg42
g21
sg43
g21
sg44
I211
sg45
Vthere
p2158
sg47
I211
sg48
I1256
sbag0
(g23
g2
Ntp2159
Rp2160
(dp2161
g27
(dp2162
g29
Vbe
p2163
sg31
VO
p2164
sg33
VVBP
p2165
sg35
I5
ssg10
I212
sg36
g4
sg37
(dp2166
sg39
(dp2167
sg41
I1257
sg42
g21
sg43
g21
sg44
I212
sg45
Vare
p2168
sg47
I212
sg48
I1260
sbag0
(g23
g2
Ntp2169
Rp2170
(dp2171
g27
(dp2172
g29
Vno
p2173
sg31
VO
p2174
sg33
VDT
p2175
sg35
I6
ssg10
I213
sg36
g4
sg37
(dp2176
sg39
(dp2177
sg41
I1261
sg42
g21
sg43
g21
sg44
I213
sg45
Vno
p2178
sg47
I213
sg48
I1263
sbag0
(g23
g2
Ntp2179
Rp2180
(dp2181
g27
(dp2182
g29
Veconomic
p2183
sg31
VO
p2184
sg33
VJJ
p2185
sg35
I7
ssg10
I214
sg36
g4
sg37
(dp2186
sg39
(dp2187
sg41
I1264
sg42
g21
sg43
g21
sg44
I214
sg45
Veconomic
p2188
sg47
I214
sg48
I1272
sbag0
(g23
g2
Ntp2189
Rp2190
(dp2191
g27
(dp2192
g29
Vcriterion
p2193
sg31
VO
p2194
sg33
VNNS
p2195
sg35
I8
ssg10
I215
sg36
g4
sg37
(dp2196
sg39
(dp2197
sg41
I1273
sg42
g21
sg43
g21
sg44
I215
sg45
Vcriteria
p2198
sg47
I215
sg48
I1281
sbag0
(g23
g2
Ntp2199
Rp2200
(dp2201
g27
(dp2202
g29
Vin
p2203
sg31
VO
p2204
sg33
VIN
p2205
sg35
I9
ssg10
I216
sg36
g4
sg37
(dp2206
sg39
(dp2207
sg41
I1282
sg42
g21
sg43
g21
sg44
I216
sg45
Vin
p2208
sg47
I216
sg48
I1284
sbag0
(g23
g2
Ntp2209
Rp2210
(dp2211
g27
(dp2212
g29
Vclassify
p2213
sg31
VO
p2214
sg33
VVBG
p2215
sg35
I10
ssg10
I217
sg36
g4
sg37
(dp2216
sg39
(dp2217
sg41
I1285
sg42
g21
sg43
g21
sg44
I217
sg45
Vclassifying
p2218
sg47
I217
sg48
I1296
sbag0
(g23
g2
Ntp2219
Rp2220
(dp2221
g27
(dp2222
g29
VReservation
p2223
sg31
VO
p2224
sg33
VNNP
p2225
sg35
I11
ssg10
I218
sg36
g4
sg37
(dp2226
sg39
(dp2227
sg41
I1297
sg42
g21
sg43
g21
sg44
I218
sg45
VReservation
p2228
sg47
I218
sg48
I1308
sbag0
(g23
g2
Ntp2229
Rp2230
(dp2231
g27
(dp2232
g29
V,
p2233
sg31
VO
p2234
sg33
V,
p2235
sg35
I12
ssg10
I219
sg36
g4
sg37
(dp2236
sg39
(dp2237
sg41
I1308
sg42
g21
sg43
g21
sg44
I219
sg45
V,
p2238
sg47
I219
sg48
I1309
sbag0
(g23
g2
Ntp2239
Rp2240
(dp2241
g27
(dp2242
g29
Vpoorer
p2243
sg31
VO
p2244
sg33
VJJR
p2245
sg35
I13
ssg10
I220
sg36
g4
sg37
(dp2246
sg39
(dp2247
sg41
I1310
sg42
g21
sg43
g21
sg44
I220
sg45
Vpoorer
p2248
sg47
I220
sg48
I1316
sbag0
(g23
g2
Ntp2249
Rp2250
(dp2251
g27
(dp2252
g29
Vsection
p2253
sg31
VO
p2254
sg33
VNNS
p2255
sg35
I14
ssg10
I221
sg36
g4
sg37
(dp2256
sg39
(dp2257
sg41
I1317
sg42
g21
sg43
g21
sg44
I221
sg45
Vsections
p2258
sg47
I221
sg48
I1325
sbag0
(g23
g2
Ntp2259
Rp2260
(dp2261
g27
(dp2262
g29
Vof
p2263
sg31
VO
p2264
sg33
VIN
p2265
sg35
I15
ssg10
I222
sg36
g4
sg37
(dp2266
sg39
(dp2267
sg41
I1326
sg42
g21
sg43
g21
sg44
I222
sg45
Vof
p2268
sg47
I222
sg48
I1328
sbag0
(g23
g2
Ntp2269
Rp2270
(dp2271
g27
(dp2272
g29
Vreserved
p2273
sg31
VO
p2274
sg33
VJJ
p2275
sg35
I16
ssg10
I223
sg36
g4
sg37
(dp2276
sg39
(dp2277
sg41
I1329
sg42
g21
sg43
g21
sg44
I223
sg45
Vreserved
p2278
sg47
I223
sg48
I1337
sbag0
(g23
g2
Ntp2279
Rp2280
(dp2281
g27
(dp2282
g29
Vclass
p2283
sg31
VO
p2284
sg33
VNN
p2285
sg35
I17
ssg10
I224
sg36
g4
sg37
(dp2286
sg39
(dp2287
sg41
I1338
sg42
g21
sg43
g21
sg44
I224
sg45
Vclass
p2288
sg47
I224
sg48
I1343
sbag0
(g23
g2
Ntp2289
Rp2290
(dp2291
g27
(dp2292
g29
Voften
p2293
sg31
VO
p2294
sg33
VRB
p2295
sg35
I18
ssg10
I225
sg36
g4
sg37
(dp2296
sg39
(dp2297
sg41
I1344
sg42
g21
sg43
g21
sg44
I225
sg45
Voften
p2298
sg47
I225
sg48
I1349
sbag0
(g23
g2
Ntp2299
Rp2300
(dp2301
g27
(dp2302
g29
Vremain
p2303
sg31
VO
p2304
sg33
VVBP
p2305
sg35
I19
ssg10
I226
sg36
g4
sg37
(dp2306
sg39
(dp2307
sg41
I1350
sg42
g21
sg43
g21
sg44
I226
sg45
Vremain
p2308
sg47
I226
sg48
I1356
sbag0
(g23
g2
Ntp2309
Rp2310
(dp2311
g27
(dp2312
g29
Vpoor
p2313
sg31
VO
p2314
sg33
VJJ
p2315
sg35
I20
ssg10
I227
sg36
g4
sg37
(dp2316
sg39
(dp2317
sg41
I1357
sg42
g21
sg43
g21
sg44
I227
sg45
Vpoor
p2318
sg47
I227
sg48
I1361
sbag0
(g23
g2
Ntp2319
Rp2320
(dp2321
g27
(dp2322
g29
Vwhereas
p2323
sg31
VO
p2324
sg33
VIN
p2325
sg35
I21
ssg10
I228
sg36
g4
sg37
(dp2326
sg39
(dp2327
sg41
I1362
sg42
g21
sg43
g21
sg44
I228
sg45
Vwhereas
p2328
sg47
I228
sg48
I1369
sbag0
(g23
g2
Ntp2329
Rp2330
(dp2331
g27
(dp2332
g29
Vthe
p2333
sg31
VO
p2334
sg33
VDT
p2335
sg35
I22
ssg10
I229
sg36
g4
sg37
(dp2336
sg39
(dp2337
sg41
I1370
sg42
g21
sg43
g21
sg44
I229
sg45
Vthe
p2338
sg47
I229
sg48
I1373
sbag0
(g23
g2
Ntp2339
Rp2340
(dp2341
g27
(dp2342
g29
Vaffluent
p2343
sg31
VO
p2344
sg33
VJJ
p2345
sg35
I23
ssg10
I230
sg36
g4
sg37
(dp2346
sg39
(dp2347
sg41
I1374
sg42
g21
sg43
g21
sg44
I230
sg45
Vaffluent
p2348
sg47
I230
sg48
I1382
sbag0
(g23
g2
Ntp2349
Rp2350
(dp2351
g27
(dp2352
g29
Vsection
p2353
sg31
VO
p2354
sg33
VNN
p2355
sg35
I24
ssg10
I231
sg36
g4
sg37
(dp2356
sg39
(dp2357
sg41
I1383
sg42
g21
sg43
g21
sg44
I231
sg45
Vsection
p2358
sg47
I231
sg48
I1390
sbag0
(g23
g2
Ntp2359
Rp2360
(dp2361
g27
(dp2362
g29
Vreap
p2363
sg31
VO
p2364
sg33
VVB
p2365
sg35
I25
ssg10
I232
sg36
g4
sg37
(dp2366
sg39
(dp2367
sg41
I1391
sg42
g21
sg43
g21
sg44
I232
sg45
Vreap
p2368
sg47
I232
sg48
I1395
sbag0
(g23
g2
Ntp2369
Rp2370
(dp2371
g27
(dp2372
g29
Vbenefit
p2373
sg31
VO
p2374
sg33
VNNS
p2375
sg35
I26
ssg10
I233
sg36
g4
sg37
(dp2376
sg39
(dp2377
sg41
I1396
sg42
g21
sg43
g21
sg44
I233
sg45
Vbenefits
p2378
sg47
I233
sg48
I1404
sbag0
(g23
g2
Ntp2379
Rp2380
(dp2381
g27
(dp2382
g29
Vfor
p2383
sg31
VO
p2384
sg33
VIN
p2385
sg35
I27
ssg10
I234
sg36
g4
sg37
(dp2386
sg39
(dp2387
sg41
I1405
sg42
g21
sg43
g21
sg44
I234
sg45
Vfor
p2388
sg47
I234
sg48
I1408
sbag0
(g23
g2
Ntp2389
Rp2390
(dp2391
g27
(dp2392
g29
Vsuccessive
p2393
sg31
VO
p2394
sg33
VJJ
p2395
sg35
I28
ssg10
I235
sg36
g4
sg37
(dp2396
sg39
(dp2397
sg41
I1409
sg42
g21
sg43
g21
sg44
I235
sg45
Vsuccessive
p2398
sg47
I235
sg48
I1419
sbag0
(g23
g2
Ntp2399
Rp2400
(dp2401
g27
(dp2402
g29
Vgeneration
p2403
sg31
VO
p2404
sg33
VNNS
p2405
sg35
I29
ssg10
I236
sg36
g4
sg37
(dp2406
sg39
(dp2407
sg41
I1420
sg42
g21
sg43
g21
sg44
I236
sg45
Vgenerations
p2408
sg47
I236
sg48
I1431
sbag0
(g23
g2
Ntp2409
Rp2410
(dp2411
g27
(dp2412
g29
V.
p2413
sg31
VO
p2414
sg33
V.
p2415
sg35
I30
ssg10
I237
sg36
g4
sg37
(dp2416
sg39
(dp2417
sg41
I1431
sg42
g21
sg43
g21
sg44
I237
sg45
V.
p2418
sg47
I237
sg48
I1432
sbag0
(g23
g2
Ntp2419
Rp2420
(dp2421
g27
(dp2422
g29
Valso
p2423
sg31
VO
p2424
sg33
VRB
p2425
sg35
I1
ssg10
I238
sg36
g4
sg37
(dp2426
sg39
(dp2427
sg41
I1433
sg42
g21
sg43
g21
sg44
I238
sg45
VAlso
p2428
sg47
I238
sg48
I1437
sbag0
(g23
g2
Ntp2429
Rp2430
(dp2431
g27
(dp2432
g29
V,
p2433
sg31
VO
p2434
sg33
V,
p2435
sg35
I2
ssg10
I239
sg36
g4
sg37
(dp2436
sg39
(dp2437
sg41
I1437
sg42
g21
sg43
g21
sg44
I239
sg45
V,
p2438
sg47
I239
sg48
I1438
sbag0
(g23
g2
Ntp2439
Rp2440
(dp2441
g27
(dp2442
g29
Vthe
p2443
sg31
VO
p2444
sg33
VDT
p2445
sg35
I3
ssg10
I240
sg36
g4
sg37
(dp2446
sg39
(dp2447
sg41
I1439
sg42
g21
sg43
g21
sg44
I240
sg45
Vthe
p2448
sg47
I240
sg48
I1442
sbag0
(g23
g2
Ntp2449
Rp2450
(dp2451
g27
(dp2452
g29
Vpoorer
p2453
sg31
VO
p2454
sg33
VJJR
p2455
sg35
I4
ssg10
I241
sg36
g4
sg37
(dp2456
sg39
(dp2457
sg41
I1443
sg42
g21
sg43
g21
sg44
I241
sg45
Vpoorer
p2458
sg47
I241
sg48
I1449
sbag0
(g23
g2
Ntp2459
Rp2460
(dp2461
g27
(dp2462
g29
Vsection
p2463
sg31
VO
p2464
sg33
VNNS
p2465
sg35
I5
ssg10
I242
sg36
g4
sg37
(dp2466
sg39
(dp2467
sg41
I1450
sg42
g21
sg43
g21
sg44
I242
sg45
Vsections
p2468
sg47
I242
sg48
I1458
sbag0
(g23
g2
Ntp2469
Rp2470
(dp2471
g27
(dp2472
g29
Vof
p2473
sg31
VO
p2474
sg33
VIN
p2475
sg35
I6
ssg10
I243
sg36
g4
sg37
(dp2476
sg39
(dp2477
sg41
I1459
sg42
g21
sg43
g21
sg44
I243
sg45
Vof
p2478
sg47
I243
sg48
I1461
sbag0
(g23
g2
Ntp2479
Rp2480
(dp2481
g27
(dp2482
g29
VOpen/General
p2483
sg31
VO
p2484
sg33
VNNP
p2485
sg35
I7
ssg10
I244
sg36
g4
sg37
(dp2486
sg39
(dp2487
sg41
I1462
sg42
g21
sg43
g21
sg44
I244
sg45
VOpen/General
p2488
sg47
I244
sg48
I1474
sbag0
(g23
g2
Ntp2489
Rp2490
(dp2491
g27
(dp2492
g29
VCategory
p2493
sg31
VO
p2494
sg33
VNNP
p2495
sg35
I8
ssg10
I245
sg36
g4
sg37
(dp2496
sg39
(dp2497
sg41
I1475
sg42
g21
sg43
g21
sg44
I245
sg45
VCategory
p2498
sg47
I245
sg48
I1483
sbag0
(g23
g2
Ntp2499
Rp2500
(dp2501
g27
(dp2502
g29
Vbecome
p2503
sg31
VO
p2504
sg33
VVB
p2505
sg35
I9
ssg10
I246
sg36
g4
sg37
(dp2506
sg39
(dp2507
sg41
I1484
sg42
g21
sg43
g21
sg44
I246
sg45
Vbecome
p2508
sg47
I246
sg48
I1490
sbag0
(g23
g2
Ntp2509
Rp2510
(dp2511
g27
(dp2512
g29
Vdevoid
p2513
sg31
VO
p2514
sg33
VJJ
p2515
sg35
I10
ssg10
I247
sg36
g4
sg37
(dp2516
sg39
(dp2517
sg41
I1491
sg42
g21
sg43
g21
sg44
I247
sg45
Vdevoid
p2518
sg47
I247
sg48
I1497
sbag0
(g23
g2
Ntp2519
Rp2520
(dp2521
g27
(dp2522
g29
Vof
p2523
sg31
VO
p2524
sg33
VIN
p2525
sg35
I11
ssg10
I248
sg36
g4
sg37
(dp2526
sg39
(dp2527
sg41
I1498
sg42
g21
sg43
g21
sg44
I248
sg45
Vof
p2528
sg47
I248
sg48
I1500
sbag0
(g23
g2
Ntp2529
Rp2530
(dp2531
g27
(dp2532
g29
Vaccess
p2533
sg31
VO
p2534
sg33
VNN
p2535
sg35
I12
ssg10
I249
sg36
g4
sg37
(dp2536
sg39
(dp2537
sg41
I1501
sg42
g21
sg43
g21
sg44
I249
sg45
Vaccess
p2538
sg47
I249
sg48
I1507
sbag0
(g23
g2
Ntp2539
Rp2540
(dp2541
g27
(dp2542
g29
Vto
p2543
sg31
VO
p2544
sg33
VTO
p2545
sg35
I13
ssg10
I250
sg36
g4
sg37
(dp2546
sg39
(dp2547
sg41
I1508
sg42
g21
sg43
g21
sg44
I250
sg45
Vto
p2548
sg47
I250
sg48
I1510
sbag0
(g23
g2
Ntp2549
Rp2550
(dp2551
g27
(dp2552
g29
Vhigher
p2553
sg31
VO
p2554
sg33
VJJR
p2555
sg35
I14
ssg10
I251
sg36
g4
sg37
(dp2556
sg39
(dp2557
sg41
I1511
sg42
g21
sg43
g21
sg44
I251
sg45
Vhigher
p2558
sg47
I251
sg48
I1517
sbag0
(g23
g2
Ntp2559
Rp2560
(dp2561
g27
(dp2562
g29
Veducation
p2563
sg31
VO
p2564
sg33
VNN
p2565
sg35
I15
ssg10
I252
sg36
g4
sg37
(dp2566
sg39
(dp2567
sg41
I1518
sg42
g21
sg43
g21
sg44
I252
sg45
Veducation
p2568
sg47
I252
sg48
I1527
sbag0
(g23
g2
Ntp2569
Rp2570
(dp2571
g27
(dp2572
g29
Vfor
p2573
sg31
VO
p2574
sg33
VIN
p2575
sg35
I16
ssg10
I253
sg36
g4
sg37
(dp2576
sg39
(dp2577
sg41
I1528
sg42
g21
sg43
g21
sg44
I253
sg45
Vfor
p2578
sg47
I253
sg48
I1531
sbag0
(g23
g2
Ntp2579
Rp2580
(dp2581
g27
(dp2582
g29
Veven
p2583
sg31
VO
p2584
sg33
VRB
p2585
sg35
I17
ssg10
I254
sg36
g4
sg37
(dp2586
sg39
(dp2587
sg41
I1532
sg42
g21
sg43
g21
sg44
I254
sg45
Veven
p2588
sg47
I254
sg48
I1536
sbag0
(g23
g2
Ntp2589
Rp2590
(dp2591
g27
(dp2592
g29
Vslightly
p2593
sg31
VO
p2594
sg33
VRB
p2595
sg35
I18
ssg10
I255
sg36
g4
sg37
(dp2596
sg39
(dp2597
sg41
I1537
sg42
g21
sg43
g21
sg44
I255
sg45
Vslightly
p2598
sg47
I255
sg48
I1545
sbag0
(g23
g2
Ntp2599
Rp2600
(dp2601
g27
(dp2602
g29
Vlow
p2603
sg31
VO
p2604
sg33
VJJ
p2605
sg35
I19
ssg10
I256
sg36
g4
sg37
(dp2606
sg39
(dp2607
sg41
I1546
sg42
g21
sg43
g21
sg44
I256
sg45
Vlow
p2608
sg47
I256
sg48
I1549
sbag0
(g23
g2
Ntp2609
Rp2610
(dp2611
g27
(dp2612
g29
Vmerit
p2613
sg31
VO
p2614
sg33
VNN
p2615
sg35
I20
ssg10
I257
sg36
g4
sg37
(dp2616
sg39
(dp2617
sg41
I1550
sg42
g21
sg43
g21
sg44
I257
sg45
Vmerit
p2618
sg47
I257
sg48
I1555
sbag0
(g23
g2
Ntp2619
Rp2620
(dp2621
g27
(dp2622
g29
Von
p2623
sg31
VO
p2624
sg33
VIN
p2625
sg35
I21
ssg10
I258
sg36
g4
sg37
(dp2626
sg39
(dp2627
sg41
I1556
sg42
g21
sg43
g21
sg44
I258
sg45
Von
p2628
sg47
I258
sg48
I1558
sbag0
(g23
g2
Ntp2629
Rp2630
(dp2631
g27
(dp2632
g29
Vcompetitive
p2633
sg31
VO
p2634
sg33
VJJ
p2635
sg35
I22
ssg10
I259
sg36
g4
sg37
(dp2636
sg39
(dp2637
sg41
I1559
sg42
g21
sg43
g21
sg44
I259
sg45
Vcompetitive
p2638
sg47
I259
sg48
I1570
sbag0
(g23
g2
Ntp2639
Rp2640
(dp2641
g27
(dp2642
g29
Vexam
p2643
sg31
VO
p2644
sg33
VNNS
p2645
sg35
I23
ssg10
I260
sg36
g4
sg37
(dp2646
sg39
(dp2647
sg41
I1571
sg42
g21
sg43
g21
sg44
I260
sg45
Vexams
p2648
sg47
I260
sg48
I1576
sbag0
(g23
g2
Ntp2649
Rp2650
(dp2651
g27
(dp2652
g29
V.
p2653
sg31
VO
p2654
sg33
V.
p2655
sg35
I24
ssg10
I261
sg36
g4
sg37
(dp2656
sg39
(dp2657
sg41
I1576
sg42
g21
sg43
g21
sg44
I261
sg45
V.
p2658
sg47
I261
sg48
I1577
sbag0
(g23
g2
Ntp2659
Rp2660
(dp2661
g27
(dp2662
g29
Vthe
p2663
sg31
VO
p2664
sg33
VDT
p2665
sg35
I1
ssg10
I262
sg36
g4
sg37
(dp2666
sg39
(dp2667
sg41
I1578
sg42
g21
sg43
g21
sg44
I262
sg45
VThe
p2668
sg47
I262
sg48
I1581
sbag0
(g23
g2
Ntp2669
Rp2670
(dp2671
g27
(dp2672
g29
Vdifference
p2673
sg31
VO
p2674
sg33
VNN
p2675
sg35
I2
ssg10
I263
sg36
g4
sg37
(dp2676
sg39
(dp2677
sg41
I1582
sg42
g21
sg43
g21
sg44
I263
sg45
Vdifference
p2678
sg47
I263
sg48
I1592
sbag0
(g23
g2
Ntp2679
Rp2680
(dp2681
g27
(dp2682
g29
Vin
p2683
sg31
VO
p2684
sg33
VIN
p2685
sg35
I3
ssg10
I264
sg36
g4
sg37
(dp2686
sg39
(dp2687
sg41
I1593
sg42
g21
sg43
g21
sg44
I264
sg45
Vin
p2688
sg47
I264
sg48
I1595
sbag0
(g23
g2
Ntp2689
Rp2690
(dp2691
g27
(dp2692
g29
Vmerit
p2693
sg31
VO
p2694
sg33
VNN
p2695
sg35
I4
ssg10
I265
sg36
g4
sg37
(dp2696
sg39
(dp2697
sg41
I1596
sg42
g21
sg43
g21
sg44
I265
sg45
Vmerit
p2698
sg47
I265
sg48
I1601
sbag0
(g23
g2
Ntp2699
Rp2700
(dp2701
g27
(dp2702
g29
Von
p2703
sg31
VO
p2704
sg33
VIN
p2705
sg35
I5
ssg10
I266
sg36
g4
sg37
(dp2706
sg39
(dp2707
sg41
I1602
sg42
g21
sg43
g21
sg44
I266
sg45
Von
p2708
sg47
I266
sg48
I1604
sbag0
(g23
g2
Ntp2709
Rp2710
(dp2711
g27
(dp2712
g29
Ventrance
p2713
sg31
VO
p2714
sg33
VNN
p2715
sg35
I6
ssg10
I267
sg36
g4
sg37
(dp2716
sg39
(dp2717
sg41
I1605
sg42
g21
sg43
g21
sg44
I267
sg45
Ventrance
p2718
sg47
I267
sg48
I1613
sbag0
(g23
g2
Ntp2719
Rp2720
(dp2721
g27
(dp2722
g29
Vexam
p2723
sg31
VO
p2724
sg33
VNNS
p2725
sg35
I7
ssg10
I268
sg36
g4
sg37
(dp2726
sg39
(dp2727
sg41
I1614
sg42
g21
sg43
g21
sg44
I268
sg45
Vexams
p2728
sg47
I268
sg48
I1619
sbag0
(g23
g2
Ntp2729
Rp2730
(dp2731
g27
(dp2732
g29
Vbe
p2733
sg31
VO
p2734
sg33
VVBZ
p2735
sg35
I8
ssg10
I269
sg36
g4
sg37
(dp2736
sg39
(dp2737
sg41
I1620
sg42
g21
sg43
g21
sg44
I269
sg45
Vis
p2738
sg47
I269
sg48
I1622
sbag0
(g23
g2
Ntp2739
Rp2740
(dp2741
g27
(dp2742
g29
Voften
p2743
sg31
VO
p2744
sg33
VRB
p2745
sg35
I9
ssg10
I270
sg36
g4
sg37
(dp2746
sg39
(dp2747
sg41
I1623
sg42
g21
sg43
g21
sg44
I270
sg45
Voften
p2748
sg47
I270
sg48
I1628
sbag0
(g23
g2
Ntp2749
Rp2750
(dp2751
g27
(dp2752
g29
Vvery
p2753
sg31
VO
p2754
sg33
VRB
p2755
sg35
I10
ssg10
I271
sg36
g4
sg37
(dp2756
sg39
(dp2757
sg41
I1629
sg42
g21
sg43
g21
sg44
I271
sg45
Vvery
p2758
sg47
I271
sg48
I1633
sbag0
(g23
g2
Ntp2759
Rp2760
(dp2761
g27
(dp2762
g29
Vwide
p2763
sg31
VO
p2764
sg33
VJJ
p2765
sg35
I11
ssg10
I272
sg36
g4
sg37
(dp2766
sg39
(dp2767
sg41
I1634
sg42
g21
sg43
g21
sg44
I272
sg45
Vwide
p2768
sg47
I272
sg48
I1638
sbag0
(g23
g2
Ntp2769
Rp2770
(dp2771
g27
(dp2772
g29
Vbetween
p2773
sg31
VO
p2774
sg33
VIN
p2775
sg35
I12
ssg10
I273
sg36
g4
sg37
(dp2776
sg39
(dp2777
sg41
I1639
sg42
g21
sg43
g21
sg44
I273
sg45
Vbetween
p2778
sg47
I273
sg48
I1646
sbag0
(g23
g2
Ntp2779
Rp2780
(dp2781
g27
(dp2782
g29
Vthe
p2783
sg31
VO
p2784
sg33
VDT
p2785
sg35
I13
ssg10
I274
sg36
g4
sg37
(dp2786
sg39
(dp2787
sg41
I1647
sg42
g21
sg43
g21
sg44
I274
sg45
Vthe
p2788
sg47
I274
sg48
I1650
sbag0
(g23
g2
Ntp2789
Rp2790
(dp2791
g27
(dp2792
g29
Vreserved
p2793
sg31
VO
p2794
sg33
VJJ
p2795
sg35
I14
ssg10
I275
sg36
g4
sg37
(dp2796
sg39
(dp2797
sg41
I1651
sg42
g21
sg43
g21
sg44
I275
sg45
Vreserved
p2798
sg47
I275
sg48
I1659
sbag0
(g23
g2
Ntp2799
Rp2800
(dp2801
g27
(dp2802
g29
Vand
p2803
sg31
VO
p2804
sg33
VCC
p2805
sg35
I15
ssg10
I276
sg36
g4
sg37
(dp2806
sg39
(dp2807
sg41
I1660
sg42
g21
sg43
g21
sg44
I276
sg45
Vand
p2808
sg47
I276
sg48
I1663
sbag0
(g23
g2
Ntp2809
Rp2810
(dp2811
g27
(dp2812
g29
Vunreserved
p2813
sg31
VO
p2814
sg33
VJJ
p2815
sg35
I16
ssg10
I277
sg36
g4
sg37
(dp2816
sg39
(dp2817
sg41
I1664
sg42
g21
sg43
g21
sg44
I277
sg45
Vunreserved
p2818
sg47
I277
sg48
I1674
sbag0
(g23
g2
Ntp2819
Rp2820
(dp2821
g27
(dp2822
g29
Vclass
p2823
sg31
VO
p2824
sg33
VNNS
p2825
sg35
I17
ssg10
I278
sg36
g4
sg37
(dp2826
sg39
(dp2827
sg41
I1675
sg42
g21
sg43
g21
sg44
I278
sg45
Vclasses
p2828
sg47
I278
sg48
I1682
sbag0
(g23
g2
Ntp2829
Rp2830
(dp2831
g27
(dp2832
g29
V.
p2833
sg31
VO
p2834
sg33
V.
p2835
sg35
I18
ssg10
I279
sg36
g4
sg37
(dp2836
sg39
(dp2837
sg41
I1682
sg42
g21
sg43
g21
sg44
I279
sg45
V.
p2838
sg47
I279
sg48
I1683
sbag0
(g23
g2
Ntp2839
Rp2840
(dp2841
g27
(dp2842
g29
Vin
p2843
sg31
VO
p2844
sg33
VIN
p2845
sg35
I1
ssg10
I280
sg36
g4
sg37
(dp2846
sg39
(dp2847
sg41
I1684
sg42
g21
sg43
g21
sg44
I280
sg45
VIn
p2848
sg47
I280
sg48
I1686
sbag0
(g23
g2
Ntp2849
Rp2850
(dp2851
g27
(dp2852
g29
VIndia
p2853
sg31
VLOCATION
p2854
sg33
VNNP
p2855
sg35
I2
ssg10
I281
sg36
g4
sg37
(dp2856
sg39
(dp2857
sg41
I1687
sg42
g21
sg43
g21
sg44
I281
sg45
VIndia
p2858
sg47
I281
sg48
I1692
sbag0
(g23
g2
Ntp2859
Rp2860
(dp2861
g27
(dp2862
g29
V,
p2863
sg31
VO
p2864
sg33
V,
p2865
sg35
I3
ssg10
I282
sg36
g4
sg37
(dp2866
sg39
(dp2867
sg41
I1692
sg42
g21
sg43
g21
sg44
I282
sg45
V,
p2868
sg47
I282
sg48
I1693
sbag0
(g23
g2
Ntp2869
Rp2870
(dp2871
g27
(dp2872
g29
Vthe
p2873
sg31
VO
p2874
sg33
VDT
p2875
sg35
I4
ssg10
I283
sg36
g4
sg37
(dp2876
sg39
(dp2877
sg41
I1694
sg42
g21
sg43
g21
sg44
I283
sg45
Vthe
p2878
sg47
I283
sg48
I1697
sbag0
(g23
g2
Ntp2879
Rp2880
(dp2881
g27
(dp2882
g29
Vterm
p2883
sg31
VO
p2884
sg33
VNN
p2885
sg35
I5
ssg10
I284
sg36
g4
sg37
(dp2886
sg39
(dp2887
sg41
I1698
sg42
g21
sg43
g21
sg44
I284
sg45
Vterm
p2888
sg47
I284
sg48
I1702
sbag0
(g23
g2
Ntp2889
Rp2890
(dp2891
g27
(dp2892
g29
Vbe
p2893
sg31
VO
p2894
sg33
VVBZ
p2895
sg35
I6
ssg10
I285
sg36
g4
sg37
(dp2896
sg39
(dp2897
sg41
I1703
sg42
g21
sg43
g21
sg44
I285
sg45
Vis
p2898
sg47
I285
sg48
I1705
sbag0
(g23
g2
Ntp2899
Rp2900
(dp2901
g27
(dp2902
g29
Voften
p2903
sg31
VO
p2904
sg33
VRB
p2905
sg35
I7
ssg10
I286
sg36
g4
sg37
(dp2906
sg39
(dp2907
sg41
I1706
sg42
g21
sg43
g21
sg44
I286
sg45
Voften
p2908
sg47
I286
sg48
I1711
sbag0
(g23
g2
Ntp2909
Rp2910
(dp2911
g27
(dp2912
g29
Vuse
p2913
sg31
VO
p2914
sg33
VVBN
p2915
sg35
I8
ssg10
I287
sg36
g4
sg37
(dp2916
sg39
(dp2917
sg41
I1712
sg42
g21
sg43
g21
sg44
I287
sg45
Vused
p2918
sg47
I287
sg48
I1716
sbag0
(g23
g2
Ntp2919
Rp2920
(dp2921
g27
(dp2922
g29
Vby
p2923
sg31
VO
p2924
sg33
VIN
p2925
sg35
I9
ssg10
I288
sg36
g4
sg37
(dp2926
sg39
(dp2927
sg41
I1717
sg42
g21
sg43
g21
sg44
I288
sg45
Vby
p2928
sg47
I288
sg48
I1719
sbag0
(g23
g2
Ntp2929
Rp2930
(dp2931
g27
(dp2932
g29
Vcitizen
p2933
sg31
VO
p2934
sg33
VNNS
p2935
sg35
I10
ssg10
I289
sg36
g4
sg37
(dp2936
sg39
(dp2937
sg41
I1720
sg42
g21
sg43
g21
sg44
I289
sg45
Vcitizens
p2938
sg47
I289
sg48
I1728
sbag0
(g23
g2
Ntp2939
Rp2940
(dp2941
g27
(dp2942
g29
Vprotest
p2943
sg31
VO
p2944
sg33
VVBG
p2945
sg35
I11
ssg10
I290
sg36
g4
sg37
(dp2946
sg39
(dp2947
sg41
I1729
sg42
g21
sg43
g21
sg44
I290
sg45
Vprotesting
p2948
sg47
I290
sg48
I1739
sbag0
(g23
g2
Ntp2949
Rp2950
(dp2951
g27
(dp2952
g29
Vagainst
p2953
sg31
VO
p2954
sg33
VIN
p2955
sg35
I12
ssg10
I291
sg36
g4
sg37
(dp2956
sg39
(dp2957
sg41
I1740
sg42
g21
sg43
g21
sg44
I291
sg45
Vagainst
p2958
sg47
I291
sg48
I1747
sbag0
(g23
g2
Ntp2959
Rp2960
(dp2961
g27
(dp2962
g29
Vreservation
p2963
sg31
VO
p2964
sg33
VNN
p2965
sg35
I13
ssg10
I292
sg36
g4
sg37
(dp2966
sg39
(dp2967
sg41
I1748
sg42
g21
sg43
g21
sg44
I292
sg45
Vreservation
p2968
sg47
I292
sg48
I1759
sbag0
(g23
g2
Ntp2969
Rp2970
(dp2971
g27
(dp2972
g29
Vand
p2973
sg31
VO
p2974
sg33
VCC
p2975
sg35
I14
ssg10
I293
sg36
g4
sg37
(dp2976
sg39
(dp2977
sg41
I1760
sg42
g21
sg43
g21
sg44
I293
sg45
Vand
p2978
sg47
I293
sg48
I1763
sbag0
(g23
g2
Ntp2979
Rp2980
(dp2981
g27
(dp2982
g29
Vquota
p2983
sg31
VO
p2984
sg33
VNNS
p2985
sg35
I15
ssg10
I294
sg36
g4
sg37
(dp2986
sg39
(dp2987
sg41
I1764
sg42
g21
sg43
g21
sg44
I294
sg45
Vquotas
p2988
sg47
I294
sg48
I1770
sbag0
(g23
g2
Ntp2989
Rp2990
(dp2991
g27
(dp2992
g29
V-lsb-
p2993
sg31
VO
p2994
sg33
V-LRB-
p2995
sg35
I16
ssg10
I295
sg36
g4
sg37
(dp2996
sg39
(dp2997
sg41
I1771
sg42
g21
sg43
g21
sg44
I295
sg45
V[
p2998
sg47
I295
sg48
I1772
sbag0
(g23
g2
Ntp2999
Rp3000
(dp3001
g27
(dp3002
g29
Vref
p3003
sg31
VO
p3004
sg33
VNN
p3005
sg35
I17
ssg10
I296
sg36
g4
sg37
(dp3006
sg39
(dp3007
sg41
I1772
sg42
g21
sg43
g21
sg44
I296
sg45
VREF
p3008
sg47
I296
sg48
I1775
sbag0
(g23
g2
Ntp3009
Rp3010
(dp3011
g27
(dp3012
g29
V-rsb-
p3013
sg31
VO
p3014
sg33
V-RRB-
p3015
sg35
I18
ssg10
I297
sg36
g4
sg37
(dp3016
sg39
(dp3017
sg41
I1775
sg42
g21
sg43
g21
sg44
I297
sg45
V]
p3018
sg47
I297
sg48
I1776
sbag0
(g23
g2
Ntp3019
Rp3020
(dp3021
g27
(dp3022
g29
V.
p3023
sg31
VO
p3024
sg33
V.
p3025
sg35
I19
ssg10
I298
sg36
g4
sg37
(dp3026
sg39
(dp3027
sg41
I1776
sg42
g21
sg43
g21
sg44
I298
sg45
V.
p3028
sg47
I298
sg48
I1777
sbag0
(g23
g2
Ntp3029
Rp3030
(dp3031
g27
(dp3032
g29
VUK
p3033
sg31
VLOCATION
p3034
sg33
VNNP
p3035
sg35
I1
ssg10
I299
sg36
g4
sg37
(dp3036
sg39
(dp3037
sg41
I1779
sg42
g21
sg43
g21
sg44
I299
sg45
VUK
p3038
sg47
I299
sg48
I1781
sbag0
(g23
g2
Ntp3039
Rp3040
(dp3041
g27
(dp3042
g29
Vlaw
p3043
sg31
VO
p3044
sg33
VNN
p3045
sg35
I2
ssg10
I300
sg36
g4
sg37
(dp3046
sg39
(dp3047
sg41
I1782
sg42
g21
sg43
g21
sg44
I300
sg45
Vlaw
p3048
sg47
I300
sg48
I1785
sbag0
(g23
g2
Ntp3049
Rp3050
(dp3051
g27
(dp3052
g29
Vdraw
p3053
sg31
VO
p3054
sg33
VVBZ
p3055
sg35
I3
ssg10
I301
sg36
g4
sg37
(dp3056
sg39
(dp3057
sg41
I1786
sg42
g21
sg43
g21
sg44
I301
sg45
Vdraws
p3058
sg47
I301
sg48
I1791
sbag0
(g23
g2
Ntp3059
Rp3060
(dp3061
g27
(dp3062
g29
Va
p3063
sg31
VO
p3064
sg33
VDT
p3065
sg35
I4
ssg10
I302
sg36
g4
sg37
(dp3066
sg39
(dp3067
sg41
I1788
sg42
g21
sg43
g21
sg44
I302
sg45
Va
p3068
sg47
I302
sg48
I1789
sbag0
(g23
g2
Ntp3069
Rp3070
(dp3071
g27
(dp3072
g29
Vdistinction
p3073
sg31
VO
p3074
sg33
VNN
p3075
sg35
I5
ssg10
I303
sg36
g4
sg37
(dp3076
sg39
(dp3077
sg41
I1794
sg42
g21
sg43
g21
sg44
I303
sg45
Vdistinction
p3078
sg47
I303
sg48
I1805
sbag0
(g23
g2
Ntp3079
Rp3080
(dp3081
g27
(dp3082
g29
Vbetween
p3083
sg31
VO
p3084
sg33
VIN
p3085
sg35
I6
ssg10
I304
sg36
g4
sg37
(dp3086
sg39
(dp3087
sg41
I1806
sg42
g21
sg43
g21
sg44
I304
sg45
Vbetween
p3088
sg47
I304
sg48
I1813
sbag0
(g23
g2
Ntp3089
Rp3090
(dp3091
g27
(dp3092
g29
VEquality
p3093
sg31
VORGANIZATION
p3094
sg33
VNNP
p3095
sg35
I7
ssg10
I305
sg36
g4
sg37
(dp3096
sg39
(dp3097
sg41
I1814
sg42
g21
sg43
g21
sg44
I305
sg45
VEquality
p3098
sg47
I305
sg48
I1822
sbag0
(g23
g2
Ntp3099
Rp3100
(dp3101
g27
(dp3102
g29
Vof
p3103
sg31
VORGANIZATION
p3104
sg33
VIN
p3105
sg35
I8
ssg10
I306
sg36
g4
sg37
(dp3106
sg39
(dp3107
sg41
I1823
sg42
g21
sg43
g21
sg44
I306
sg45
Vof
p3108
sg47
I306
sg48
I1825
sbag0
(g23
g2
Ntp3109
Rp3110
(dp3111
g27
(dp3112
g29
VProvision
p3113
sg31
VORGANIZATION
p3114
sg33
VNNP
p3115
sg35
I9
ssg10
I307
sg36
g4
sg37
(dp3116
sg39
(dp3117
sg41
I1826
sg42
g21
sg43
g21
sg44
I307
sg45
VProvision
p3118
sg47
I307
sg48
I1835
sbag0
(g23
g2
Ntp3119
Rp3120
(dp3121
g27
(dp3122
g29
Vand
p3123
sg31
VORGANIZATION
p3124
sg33
VCC
p3125
sg35
I10
ssg10
I308
sg36
g4
sg37
(dp3126
sg39
(dp3127
sg41
I1836
sg42
g21
sg43
g21
sg44
I308
sg45
Vand
p3128
sg47
I308
sg48
I1839
sbag0
(g23
g2
Ntp3129
Rp3130
(dp3131
g27
(dp3132
g29
VEquality
p3133
sg31
VORGANIZATION
p3134
sg33
VNNP
p3135
sg35
I11
ssg10
I309
sg36
g4
sg37
(dp3136
sg39
(dp3137
sg41
I1840
sg42
g21
sg43
g21
sg44
I309
sg45
VEquality
p3138
sg47
I309
sg48
I1848
sbag0
(g23
g2
Ntp3139
Rp3140
(dp3141
g27
(dp3142
g29
Vof
p3143
sg31
VORGANIZATION
p3144
sg33
VIN
p3145
sg35
I12
ssg10
I310
sg36
g4
sg37
(dp3146
sg39
(dp3147
sg41
I1849
sg42
g21
sg43
g21
sg44
I310
sg45
Vof
p3148
sg47
I310
sg48
I1851
sbag0
(g23
g2
Ntp3149
Rp3150
(dp3151
g27
(dp3152
g29
VOutcome
p3153
sg31
VORGANIZATION
p3154
sg33
VNNP
p3155
sg35
I13
ssg10
I311
sg36
g4
sg37
(dp3156
sg39
(dp3157
sg41
I1852
sg42
g21
sg43
g21
sg44
I311
sg45
VOutcome
p3158
sg47
I311
sg48
I1859
sbag0
(g23
g2
Ntp3159
Rp3160
(dp3161
g27
(dp3162
g29
V,
p3163
sg31
VO
p3164
sg33
V,
p3165
sg35
I14
ssg10
I312
sg36
g4
sg37
(dp3166
sg39
(dp3167
sg41
I1859
sg42
g21
sg43
g21
sg44
I312
sg45
V,
p3168
sg47
I312
sg48
I1860
sbag0
(g23
g2
Ntp3169
Rp3170
(dp3171
g27
(dp3172
g29
Vparticularly
p3173
sg31
VO
p3174
sg33
VRB
p3175
sg35
I15
ssg10
I313
sg36
g4
sg37
(dp3176
sg39
(dp3177
sg41
I1861
sg42
g21
sg43
g21
sg44
I313
sg45
Vparticularly
p3178
sg47
I313
sg48
I1873
sbag0
(g23
g2
Ntp3179
Rp3180
(dp3181
g27
(dp3182
g29
Vin
p3183
sg31
VO
p3184
sg33
VIN
p3185
sg35
I16
ssg10
I314
sg36
g4
sg37
(dp3186
sg39
(dp3187
sg41
I1874
sg42
g21
sg43
g21
sg44
I314
sg45
Vin
p3188
sg47
I314
sg48
I1876
sbag0
(g23
g2
Ntp3189
Rp3190
(dp3191
g27
(dp3192
g29
Vrespect
p3193
sg31
VO
p3194
sg33
VNN
p3195
sg35
I17
ssg10
I315
sg36
g4
sg37
(dp3196
sg39
(dp3197
sg41
I1877
sg42
g21
sg43
g21
sg44
I315
sg45
Vrespect
p3198
sg47
I315
sg48
I1884
sbag0
(g23
g2
Ntp3199
Rp3200
(dp3201
g27
(dp3202
g29
Vto
p3203
sg31
VO
p3204
sg33
VTO
p3205
sg35
I18
ssg10
I316
sg36
g4
sg37
(dp3206
sg39
(dp3207
sg41
I1885
sg42
g21
sg43
g21
sg44
I316
sg45
Vto
p3208
sg47
I316
sg48
I1887
sbag0
(g23
g2
Ntp3209
Rp3210
(dp3211
g27
(dp3212
g29
Vdisability
p3213
sg31
VO
p3214
sg33
VNN
p3215
sg35
I19
ssg10
I317
sg36
g4
sg37
(dp3216
sg39
(dp3217
sg41
I1888
sg42
g21
sg43
g21
sg44
I317
sg45
Vdisability
p3218
sg47
I317
sg48
I1898
sbag0
(g23
g2
Ntp3219
Rp3220
(dp3221
g27
(dp3222
g29
Vrights
p3223
sg31
VO
p3224
sg33
VNNS
p3225
sg35
I20
ssg10
I318
sg36
g4
sg37
(dp3226
sg39
(dp3227
sg41
I1899
sg42
g21
sg43
g21
sg44
I318
sg45
Vrights
p3228
sg47
I318
sg48
I1905
sbag0
(g23
g2
Ntp3229
Rp3230
(dp3231
g27
(dp3232
g29
V.
p3233
sg31
VO
p3234
sg33
V.
p3235
sg35
I21
ssg10
I319
sg36
g4
sg37
(dp3236
sg39
(dp3237
sg41
I1905
sg42
g21
sg43
g21
sg44
I319
sg45
V.
p3238
sg47
I319
sg48
I1906
sbag0
(g23
g2
Ntp3239
Rp3240
(dp3241
g27
(dp3242
g29
Vthe
p3243
sg31
VO
p3244
sg33
VDT
p3245
sg35
I1
ssg10
I320
sg36
g4
sg37
(dp3246
sg39
(dp3247
sg41
I1907
sg42
g21
sg43
g21
sg44
I320
sg45
VThe
p3248
sg47
I320
sg48
I1910
sbag0
(g23
g2
Ntp3249
Rp3250
(dp3251
g27
(dp3252
g29
VDisability
p3253
sg31
VO
p3254
sg33
VNNP
p3255
sg35
I2
ssg10
I321
sg36
g4
sg37
(dp3256
sg39
(dp3257
sg41
I1911
sg42
g21
sg43
g21
sg44
I321
sg45
VDisability
p3258
sg47
I321
sg48
I1921
sbag0
(g23
g2
Ntp3259
Rp3260
(dp3261
g27
(dp3262
g29
VDiscrimination
p3263
sg31
VO
p3264
sg33
VNNP
p3265
sg35
I3
ssg10
I322
sg36
g4
sg37
(dp3266
sg39
(dp3267
sg41
I1922
sg42
g21
sg43
g21
sg44
I322
sg45
VDiscrimination
p3268
sg47
I322
sg48
I1936
sbag0
(g23
g2
Ntp3269
Rp3270
(dp3271
g27
(dp3272
g29
VAct
p3273
sg31
VO
p3274
sg33
VNNP
p3275
sg35
I4
ssg10
I323
sg36
g4
sg37
(dp3276
sg39
(dp3277
sg41
I1937
sg42
g21
sg43
g21
sg44
I323
sg45
VAct
p3278
sg47
I323
sg48
I1940
sbag0
(g23
g2
Ntp3279
Rp3280
(dp3281
g27
(dp3282
g29
V1995
p3283
sg31
VDATE
p3284
sg33
VCD
p3285
sg35
I5
ssg10
I324
sg36
g4
sg37
(dp3286
sg39
(dp3287
sg41
I1941
sg42
g21
sg43
g21
sg44
I324
sg45
V1995
p3288
sg47
I324
sg48
I1945
sbag0
(g23
g2
Ntp3289
Rp3290
(dp3291
g27
(dp3292
g29
Vand
p3293
sg31
VO
p3294
sg33
VCC
p3295
sg35
I6
ssg10
I325
sg36
g4
sg37
(dp3296
sg39
(dp3297
sg41
I1946
sg42
g21
sg43
g21
sg44
I325
sg45
Vand
p3298
sg47
I325
sg48
I1949
sbag0
(g23
g2
Ntp3299
Rp3300
(dp3301
g27
(dp3302
g29
Vthe
p3303
sg31
VO
p3304
sg33
VDT
p3305
sg35
I7
ssg10
I326
sg36
g4
sg37
(dp3306
sg39
(dp3307
sg41
I1950
sg42
g21
sg43
g21
sg44
I326
sg45
Vthe
p3308
sg47
I326
sg48
I1953
sbag0
(g23
g2
Ntp3309
Rp3310
(dp3311
g27
(dp3312
g29
VEquality
p3313
sg31
VO
p3314
sg33
VNNP
p3315
sg35
I8
ssg10
I327
sg36
g4
sg37
(dp3316
sg39
(dp3317
sg41
I1954
sg42
g21
sg43
g21
sg44
I327
sg45
VEquality
p3318
sg47
I327
sg48
I1962
sbag0
(g23
g2
Ntp3319
Rp3320
(dp3321
g27
(dp3322
g29
VAct
p3323
sg31
VO
p3324
sg33
VNNP
p3325
sg35
I9
ssg10
I328
sg36
g4
sg37
(dp3326
sg39
(dp3327
sg41
I1963
sg42
g21
sg43
g21
sg44
I328
sg45
VAct
p3328
sg47
I328
sg48
I1966
sbag0
(g23
g2
Ntp3329
Rp3330
(dp3331
g27
(dp3332
g29
V2010
p3333
sg31
VDATE
p3334
sg33
VCD
p3335
sg35
I10
ssg10
I329
sg36
g4
sg37
(dp3336
sg39
(dp3337
sg41
I1967
sg42
g21
sg43
g21
sg44
I329
sg45
V2010
p3338
sg47
I329
sg48
I1971
sbag0
(g23
g2
Ntp3339
Rp3340
(dp3341
g27
(dp3342
g29
Vmake
p3343
sg31
VO
p3344
sg33
VVB
p3345
sg35
I11
ssg10
I330
sg36
g4
sg37
(dp3346
sg39
(dp3347
sg41
I1972
sg42
g21
sg43
g21
sg44
I330
sg45
Vmake
p3348
sg47
I330
sg48
I1976
sbag0
(g23
g2
Ntp3349
Rp3350
(dp3351
g27
(dp3352
g29
Vit
p3353
sg31
VO
p3354
sg33
VPRP
p3355
sg35
I12
ssg10
I331
sg36
g4
sg37
(dp3356
sg39
(dp3357
sg41
I1977
sg42
g21
sg43
g21
sg44
I331
sg45
Vit
p3358
sg47
I331
sg48
I1979
sbag0
(g23
g2
Ntp3359
Rp3360
(dp3361
g27
(dp3362
g29
Vclear
p3363
sg31
VO
p3364
sg33
VJJ
p3365
sg35
I13
ssg10
I332
sg36
g4
sg37
(dp3366
sg39
(dp3367
sg41
I1980
sg42
g21
sg43
g21
sg44
I332
sg45
Vclear
p3368
sg47
I332
sg48
I1985
sbag0
(g23
g2
Ntp3369
Rp3370
(dp3371
g27
(dp3372
g29
Vthat
p3373
sg31
VO
p3374
sg33
VIN
p3375
sg35
I14
ssg10
I333
sg36
g4
sg37
(dp3376
sg39
(dp3377
sg41
I1986
sg42
g21
sg43
g21
sg44
I333
sg45
Vthat
p3378
sg47
I333
sg48
I1990
sbag0
(g23
g2
Ntp3379
Rp3380
(dp3381
g27
(dp3382
g29
Vtreat
p3383
sg31
VO
p3384
sg33
VVBG
p3385
sg35
I15
ssg10
I334
sg36
g4
sg37
(dp3386
sg39
(dp3387
sg41
I1991
sg42
g21
sg43
g21
sg44
I334
sg45
Vtreating
p3388
sg47
I334
sg48
I1999
sbag0
(g23
g2
Ntp3389
Rp3390
(dp3391
g27
(dp3392
g29
Vtwo
p3393
sg31
VNUMBER
p3394
sg33
VCD
p3395
sg35
I16
ssg10
I335
sg36
g4
sg37
(dp3396
sg39
(dp3397
sg41
I2000
sg42
g21
sg43
g21
sg44
I335
sg45
Vtwo
p3398
sg47
I335
sg48
I2003
sbag0
(g23
g2
Ntp3399
Rp3400
(dp3401
g27
(dp3402
g29
Vpeople
p3403
sg31
VO
p3404
sg33
VNNS
p3405
sg35
I17
ssg10
I336
sg36
g4
sg37
(dp3406
sg39
(dp3407
sg41
I2004
sg42
g21
sg43
g21
sg44
I336
sg45
Vpeople
p3408
sg47
I336
sg48
I2010
sbag0
(g23
g2
Ntp3409
Rp3410
(dp3411
g27
(dp3412
g29
Videntically
p3413
sg31
VO
p3414
sg33
VRB
p3415
sg35
I18
ssg10
I337
sg36
g4
sg37
(dp3416
sg39
(dp3417
sg41
I2011
sg42
g21
sg43
g21
sg44
I337
sg45
Videntically
p3418
sg47
I337
sg48
I2022
sbag0
(g23
g2
Ntp3419
Rp3420
(dp3421
g27
(dp3422
g29
Vmay
p3423
sg31
VO
p3424
sg33
VMD
p3425
sg35
I19
ssg10
I338
sg36
g4
sg37
(dp3426
sg39
(dp3427
sg41
I2023
sg42
g21
sg43
g21
sg44
I338
sg45
Vmay
p3428
sg47
I338
sg48
I2026
sbag0
(g23
g2
Ntp3429
Rp3430
(dp3431
g27
(dp3432
g29
Vnot
p3433
sg31
VO
p3434
sg33
VRB
p3435
sg35
I20
ssg10
I339
sg36
g4
sg37
(dp3436
sg39
(dp3437
sg41
I2027
sg42
g21
sg43
g21
sg44
I339
sg45
Vnot
p3438
sg47
I339
sg48
I2030
sbag0
(g23
g2
Ntp3439
Rp3440
(dp3441
g27
(dp3442
g29
Vbe
p3443
sg31
VO
p3444
sg33
VVB
p3445
sg35
I21
ssg10
I340
sg36
g4
sg37
(dp3446
sg39
(dp3447
sg41
I2031
sg42
g21
sg43
g21
sg44
I340
sg45
Vbe
p3448
sg47
I340
sg48
I2033
sbag0
(g23
g2
Ntp3449
Rp3450
(dp3451
g27
(dp3452
g29
Vsufficient
p3453
sg31
VO
p3454
sg33
VJJ
p3455
sg35
I22
ssg10
I341
sg36
g4
sg37
(dp3456
sg39
(dp3457
sg41
I2034
sg42
g21
sg43
g21
sg44
I341
sg45
Vsufficient
p3458
sg47
I341
sg48
I2044
sbag0
(g23
g2
Ntp3459
Rp3460
(dp3461
g27
(dp3462
g29
Vto
p3463
sg31
VO
p3464
sg33
VTO
p3465
sg35
I23
ssg10
I342
sg36
g4
sg37
(dp3466
sg39
(dp3467
sg41
I2045
sg42
g21
sg43
g21
sg44
I342
sg45
Vto
p3468
sg47
I342
sg48
I2047
sbag0
(g23
g2
Ntp3469
Rp3470
(dp3471
g27
(dp3472
g29
Vguarantee
p3473
sg31
VO
p3474
sg33
VVB
p3475
sg35
I24
ssg10
I343
sg36
g4
sg37
(dp3476
sg39
(dp3477
sg41
I2048
sg42
g21
sg43
g21
sg44
I343
sg45
Vguarantee
p3478
sg47
I343
sg48
I2057
sbag0
(g23
g2
Ntp3479
Rp3480
(dp3481
g27
(dp3482
g29
Vthat
p3483
sg31
VO
p3484
sg33
VIN
p3485
sg35
I25
ssg10
I344
sg36
g4
sg37
(dp3486
sg39
(dp3487
sg41
I2058
sg42
g21
sg43
g21
sg44
I344
sg45
Vthat
p3488
sg47
I344
sg48
I2062
sbag0
(g23
g2
Ntp3489
Rp3490
(dp3491
g27
(dp3492
g29
Vthey
p3493
sg31
VO
p3494
sg33
VPRP
p3495
sg35
I26
ssg10
I345
sg36
g4
sg37
(dp3496
sg39
(dp3497
sg41
I2063
sg42
g21
sg43
g21
sg44
I345
sg45
Vthey
p3498
sg47
I345
sg48
I2067
sbag0
(g23
g2
Ntp3499
Rp3500
(dp3501
g27
(dp3502
g29
Vhave
p3503
sg31
VO
p3504
sg33
VVBP
p3505
sg35
I27
ssg10
I346
sg36
g4
sg37
(dp3506
sg39
(dp3507
sg41
I2068
sg42
g21
sg43
g21
sg44
I346
sg45
Vhave
p3508
sg47
I346
sg48
I2072
sbag0
(g23
g2
Ntp3509
Rp3510
(dp3511
g27
(dp3512
g29
Vbe
p3513
sg31
VO
p3514
sg33
VVBN
p3515
sg35
I28
ssg10
I347
sg36
g4
sg37
(dp3516
sg39
(dp3517
sg41
I2073
sg42
g21
sg43
g21
sg44
I347
sg45
Vbeen
p3518
sg47
I347
sg48
I2077
sbag0
(g23
g2
Ntp3519
Rp3520
(dp3521
g27
(dp3522
g29
Vtreat
p3523
sg31
VO
p3524
sg33
VVBN
p3525
sg35
I29
ssg10
I348
sg36
g4
sg37
(dp3526
sg39
(dp3527
sg41
I2078
sg42
g21
sg43
g21
sg44
I348
sg45
Vtreated
p3528
sg47
I348
sg48
I2085
sbag0
(g23
g2
Ntp3529
Rp3530
(dp3531
g27
(dp3532
g29
Vequally
p3533
sg31
VO
p3534
sg33
VRB
p3535
sg35
I30
ssg10
I349
sg36
g4
sg37
(dp3536
sg39
(dp3537
sg41
I2086
sg42
g21
sg43
g21
sg44
I349
sg45
Vequally
p3538
sg47
I349
sg48
I2093
sbag0
(g23
g2
Ntp3539
Rp3540
(dp3541
g27
(dp3542
g29
Vin
p3543
sg31
VO
p3544
sg33
VIN
p3545
sg35
I31
ssg10
I350
sg36
g4
sg37
(dp3546
sg39
(dp3547
sg41
I2094
sg42
g21
sg43
g21
sg44
I350
sg45
Vin
p3548
sg47
I350
sg48
I2096
sbag0
(g23
g2
Ntp3549
Rp3550
(dp3551
g27
(dp3552
g29
Vlaw
p3553
sg31
VO
p3554
sg33
VNN
p3555
sg35
I32
ssg10
I351
sg36
g4
sg37
(dp3556
sg39
(dp3557
sg41
I2097
sg42
g21
sg43
g21
sg44
I351
sg45
Vlaw
p3558
sg47
I351
sg48
I2100
sbag0
(g23
g2
Ntp3559
Rp3560
(dp3561
g27
(dp3562
g29
Vif
p3563
sg31
VO
p3564
sg33
VIN
p3565
sg35
I33
ssg10
I352
sg36
g4
sg37
(dp3566
sg39
(dp3567
sg41
I2101
sg42
g21
sg43
g21
sg44
I352
sg45
Vif
p3568
sg47
I352
sg48
I2103
sbag0
(g23
g2
Ntp3569
Rp3570
(dp3571
g27
(dp3572
g29
Vthe
p3573
sg31
VO
p3574
sg33
VDT
p3575
sg35
I34
ssg10
I353
sg36
g4
sg37
(dp3576
sg39
(dp3577
sg41
I2104
sg42
g21
sg43
g21
sg44
I353
sg45
Vthe
p3578
sg47
I353
sg48
I2107
sbag0
(g23
g2
Ntp3579
Rp3580
(dp3581
g27
(dp3582
g29
Vtask
p3583
sg31
VO
p3584
sg33
VNN
p3585
sg35
I35
ssg10
I354
sg36
g4
sg37
(dp3586
sg39
(dp3587
sg41
I2108
sg42
g21
sg43
g21
sg44
I354
sg45
Vtask
p3588
sg47
I354
sg48
I2112
sbag0
(g23
g2
Ntp3589
Rp3590
(dp3591
g27
(dp3592
g29
V,
p3593
sg31
VO
p3594
sg33
V,
p3595
sg35
I36
ssg10
I355
sg36
g4
sg37
(dp3596
sg39
(dp3597
sg41
I2112
sg42
g21
sg43
g21
sg44
I355
sg45
V,
p3598
sg47
I355
sg48
I2113
sbag0
(g23
g2
Ntp3599
Rp3600
(dp3601
g27
(dp3602
g29
Vphysical
p3603
sg31
VO
p3604
sg33
VJJ
p3605
sg35
I37
ssg10
I356
sg36
g4
sg37
(dp3606
sg39
(dp3607
sg41
I2114
sg42
g21
sg43
g21
sg44
I356
sg45
Vphysical
p3608
sg47
I356
sg48
I2122
sbag0
(g23
g2
Ntp3609
Rp3610
(dp3611
g27
(dp3612
g29
Venvironment
p3613
sg31
VO
p3614
sg33
VNN
p3615
sg35
I38
ssg10
I357
sg36
g4
sg37
(dp3616
sg39
(dp3617
sg41
I2123
sg42
g21
sg43
g21
sg44
I357
sg45
Venvironment
p3618
sg47
I357
sg48
I2134
sbag0
(g23
g2
Ntp3619
Rp3620
(dp3621
g27
(dp3622
g29
Vor
p3623
sg31
VO
p3624
sg33
VCC
p3625
sg35
I39
ssg10
I358
sg36
g4
sg37
(dp3626
sg39
(dp3627
sg41
I2135
sg42
g21
sg43
g21
sg44
I358
sg45
Vor
p3628
sg47
I358
sg48
I2137
sbag0
(g23
g2
Ntp3629
Rp3630
(dp3631
g27
(dp3632
g29
Vservice
p3633
sg31
VO
p3634
sg33
VNN
p3635
sg35
I40
ssg10
I359
sg36
g4
sg37
(dp3636
sg39
(dp3637
sg41
I2138
sg42
g21
sg43
g21
sg44
I359
sg45
Vservice
p3638
sg47
I359
sg48
I2145
sbag0
(g23
g2
Ntp3639
Rp3640
(dp3641
g27
(dp3642
g29
Vdo
p3643
sg31
VO
p3644
sg33
VVBZ
p3645
sg35
I41
ssg10
I360
sg36
g4
sg37
(dp3646
sg39
(dp3647
sg41
I2146
sg42
g21
sg43
g21
sg44
I360
sg45
Vdoes
p3648
sg47
I360
sg48
I2150
sbag0
(g23
g2
Ntp3649
Rp3650
(dp3651
g27
(dp3652
g29
Vnot
p3653
sg31
VO
p3654
sg33
VRB
p3655
sg35
I42
ssg10
I361
sg36
g4
sg37
(dp3656
sg39
(dp3657
sg41
I2151
sg42
g21
sg43
g21
sg44
I361
sg45
Vnot
p3658
sg47
I361
sg48
I2154
sbag0
(g23
g2
Ntp3659
Rp3660
(dp3661
g27
(dp3662
g29
Voffer
p3663
sg31
VO
p3664
sg33
VVB
p3665
sg35
I43
ssg10
I362
sg36
g4
sg37
(dp3666
sg39
(dp3667
sg41
I2155
sg42
g21
sg43
g21
sg44
I362
sg45
Voffer
p3668
sg47
I362
sg48
I2160
sbag0
(g23
g2
Ntp3669
Rp3670
(dp3671
g27
(dp3672
g29
Vthey
p3673
sg31
VO
p3674
sg33
VPRP
p3675
sg35
I44
ssg10
I363
sg36
g4
sg37
(dp3676
sg39
(dp3677
sg41
I2161
sg42
g21
sg43
g21
sg44
I363
sg45
Vthem
p3678
sg47
I363
sg48
I2165
sbag0
(g23
g2
Ntp3679
Rp3680
(dp3681
g27
(dp3682
g29
Vequality
p3683
sg31
VO
p3684
sg33
VNN
p3685
sg35
I45
ssg10
I364
sg36
g4
sg37
(dp3686
sg39
(dp3687
sg41
I2166
sg42
g21
sg43
g21
sg44
I364
sg45
Vequality
p3688
sg47
I364
sg48
I2174
sbag0
(g23
g2
Ntp3689
Rp3690
(dp3691
g27
(dp3692
g29
Vof
p3693
sg31
VO
p3694
sg33
VIN
p3695
sg35
I46
ssg10
I365
sg36
g4
sg37
(dp3696
sg39
(dp3697
sg41
I2175
sg42
g21
sg43
g21
sg44
I365
sg45
Vof
p3698
sg47
I365
sg48
I2177
sbag0
(g23
g2
Ntp3699
Rp3700
(dp3701
g27
(dp3702
g29
Voutcome
p3703
sg31
VO
p3704
sg33
VNN
p3705
sg35
I47
ssg10
I366
sg36
g4
sg37
(dp3706
sg39
(dp3707
sg41
I2178
sg42
g21
sg43
g21
sg44
I366
sg45
Voutcome
p3708
sg47
I366
sg48
I2185
sbag0
(g23
g2
Ntp3709
Rp3710
(dp3711
g27
(dp3712
g29
V.
p3713
sg31
VO
p3714
sg33
V.
p3715
sg35
I48
ssg10
I367
sg36
g4
sg37
(dp3716
sg39
(dp3717
sg41
I2185
sg42
g21
sg43
g21
sg44
I367
sg45
V.
p3718
sg47
I367
sg48
I2186
sbag0
(g23
g2
Ntp3719
Rp3720
(dp3721
g27
(dp3722
g29
Vthe
p3723
sg31
VO
p3724
sg33
VDT
p3725
sg35
I1
ssg10
I368
sg36
g4
sg37
(dp3726
sg39
(dp3727
sg41
I2187
sg42
g21
sg43
g21
sg44
I368
sg45
VThe
p3728
sg47
I368
sg48
I2190
sbag0
(g23
g2
Ntp3729
Rp3730
(dp3731
g27
(dp3732
g29
Vlaw
p3733
sg31
VO
p3734
sg33
VNN
p3735
sg35
I2
ssg10
I369
sg36
g4
sg37
(dp3736
sg39
(dp3737
sg41
I2191
sg42
g21
sg43
g21
sg44
I369
sg45
Vlaw
p3738
sg47
I369
sg48
I2194
sbag0
(g23
g2
Ntp3739
Rp3740
(dp3741
g27
(dp3742
g29
Vprovide
p3743
sg31
VO
p3744
sg33
VVBZ
p3745
sg35
I3
ssg10
I370
sg36
g4
sg37
(dp3746
sg39
(dp3747
sg41
I2195
sg42
g21
sg43
g21
sg44
I370
sg45
Vprovides
p3748
sg47
I370
sg48
I2203
sbag0
(g23
g2
Ntp3749
Rp3750
(dp3751
g27
(dp3752
g29
Vfor
p3753
sg31
VO
p3754
sg33
VIN
p3755
sg35
I4
ssg10
I371
sg36
g4
sg37
(dp3756
sg39
(dp3757
sg41
I2204
sg42
g21
sg43
g21
sg44
I371
sg45
Vfor
p3758
sg47
I371
sg48
I2207
sbag0
(g23
g2
Ntp3759
Rp3760
(dp3761
g27
(dp3762
g29
Vdisabled
p3763
sg31
VO
p3764
sg33
VJJ
p3765
sg35
I5
ssg10
I372
sg36
g4
sg37
(dp3766
sg39
(dp3767
sg41
I2208
sg42
g21
sg43
g21
sg44
I372
sg45
Vdisabled
p3768
sg47
I372
sg48
I2216
sbag0
(g23
g2
Ntp3769
Rp3770
(dp3771
g27
(dp3772
g29
Vpeople
p3773
sg31
VO
p3774
sg33
VNNS
p3775
sg35
I6
ssg10
I373
sg36
g4
sg37
(dp3776
sg39
(dp3777
sg41
I2217
sg42
g21
sg43
g21
sg44
I373
sg45
Vpeople
p3778
sg47
I373
sg48
I2223
sbag0
(g23
g2
Ntp3779
Rp3780
(dp3781
g27
(dp3782
g29
Vto
p3783
sg31
VO
p3784
sg33
VTO
p3785
sg35
I7
ssg10
I374
sg36
g4
sg37
(dp3786
sg39
(dp3787
sg41
I2224
sg42
g21
sg43
g21
sg44
I374
sg45
Vto
p3788
sg47
I374
sg48
I2226
sbag0
(g23
g2
Ntp3789
Rp3790
(dp3791
g27
(dp3792
g29
Vrequest
p3793
sg31
VO
p3794
sg33
VVB
p3795
sg35
I8
ssg10
I375
sg36
g4
sg37
(dp3796
sg39
(dp3797
sg41
I2227
sg42
g21
sg43
g21
sg44
I375
sg45
Vrequest
p3798
sg47
I375
sg48
I2234
sbag0
(g23
g2
Ntp3799
Rp3800
(dp3801
g27
(dp3802
g29
Vthe
p3803
sg31
VO
p3804
sg33
VDT
p3805
sg35
I9
ssg10
I376
sg36
g4
sg37
(dp3806
sg39
(dp3807
sg41
I2235
sg42
g21
sg43
g21
sg44
I376
sg45
Vthe
p3808
sg47
I376
sg48
I2238
sbag0
(g23
g2
Ntp3809
Rp3810
(dp3811
g27
(dp3812
g29
Vprovision
p3813
sg31
VO
p3814
sg33
VNN
p3815
sg35
I10
ssg10
I377
sg36
g4
sg37
(dp3816
sg39
(dp3817
sg41
I2239
sg42
g21
sg43
g21
sg44
I377
sg45
Vprovision
p3818
sg47
I377
sg48
I2248
sbag0
(g23
g2
Ntp3819
Rp3820
(dp3821
g27
(dp3822
g29
Vof
p3823
sg31
VO
p3824
sg33
VIN
p3825
sg35
I11
ssg10
I378
sg36
g4
sg37
(dp3826
sg39
(dp3827
sg41
I2249
sg42
g21
sg43
g21
sg44
I378
sg45
Vof
p3828
sg47
I378
sg48
I2251
sbag0
(g23
g2
Ntp3829
Rp3830
(dp3831
g27
(dp3832
g29
V`
p3833
sg31
VO
p3834
sg33
V``
p3835
sg35
I12
ssg10
I379
sg36
g4
sg37
(dp3836
sg39
(dp3837
sg41
I2252
sg42
g21
sg43
g21
sg44
I379
sg45
V'
p3838
sg47
I379
sg48
I2253
sbag0
(g23
g2
Ntp3839
Rp3840
(dp3841
g27
(dp3842
g29
Vreasonable
p3843
sg31
VO
p3844
sg33
VJJ
p3845
sg35
I13
ssg10
I380
sg36
g4
sg37
(dp3846
sg39
(dp3847
sg41
I2253
sg42
g21
sg43
g21
sg44
I380
sg45
Vreasonable
p3848
sg47
I380
sg48
I2263
sbag0
(g23
g2
Ntp3849
Rp3850
(dp3851
g27
(dp3852
g29
Vadjustment
p3853
sg31
VO
p3854
sg33
VNNS
p3855
sg35
I14
ssg10
I381
sg36
g4
sg37
(dp3856
sg39
(dp3857
sg41
I2264
sg42
g21
sg43
g21
sg44
I381
sg45
Vadjustments
p3858
sg47
I381
sg48
I2275
sbag0
(g23
g2
Ntp3859
Rp3860
(dp3861
g27
(dp3862
g29
V'
p3863
sg31
VO
p3864
sg33
VPOS
p3865
sg35
I15
ssg10
I382
sg36
g4
sg37
(dp3866
sg39
(dp3867
sg41
I2275
sg42
g21
sg43
g21
sg44
I382
sg45
V'
p3868
sg47
I382
sg48
I2276
sbag0
(g23
g2
Ntp3869
Rp3870
(dp3871
g27
(dp3872
g29
Vto
p3873
sg31
VO
p3874
sg33
VTO
p3875
sg35
I16
ssg10
I383
sg36
g4
sg37
(dp3876
sg39
(dp3877
sg41
I2277
sg42
g21
sg43
g21
sg44
I383
sg45
Vto
p3878
sg47
I383
sg48
I2279
sbag0
(g23
g2
Ntp3879
Rp3880
(dp3881
g27
(dp3882
g29
Vensure
p3883
sg31
VO
p3884
sg33
VVB
p3885
sg35
I17
ssg10
I384
sg36
g4
sg37
(dp3886
sg39
(dp3887
sg41
I2280
sg42
g21
sg43
g21
sg44
I384
sg45
Vensure
p3888
sg47
I384
sg48
I2286
sbag0
(g23
g2
Ntp3889
Rp3890
(dp3891
g27
(dp3892
g29
Vthat
p3893
sg31
VO
p3894
sg33
VIN
p3895
sg35
I18
ssg10
I385
sg36
g4
sg37
(dp3896
sg39
(dp3897
sg41
I2287
sg42
g21
sg43
g21
sg44
I385
sg45
Vthat
p3898
sg47
I385
sg48
I2291
sbag0
(g23
g2
Ntp3899
Rp3900
(dp3901
g27
(dp3902
g29
Vthey
p3903
sg31
VO
p3904
sg33
VPRP
p3905
sg35
I19
ssg10
I386
sg36
g4
sg37
(dp3906
sg39
(dp3907
sg41
I2292
sg42
g21
sg43
g21
sg44
I386
sg45
Vthey
p3908
sg47
I386
sg48
I2296
sbag0
(g23
g2
Ntp3909
Rp3910
(dp3911
g27
(dp3912
g29
Vbe
p3913
sg31
VO
p3914
sg33
VVBP
p3915
sg35
I20
ssg10
I387
sg36
g4
sg37
(dp3916
sg39
(dp3917
sg41
I2297
sg42
g21
sg43
g21
sg44
I387
sg45
Vare
p3918
sg47
I387
sg48
I2300
sbag0
(g23
g2
Ntp3919
Rp3920
(dp3921
g27
(dp3922
g29
Vable
p3923
sg31
VO
p3924
sg33
VJJ
p3925
sg35
I21
ssg10
I388
sg36
g4
sg37
(dp3926
sg39
(dp3927
sg41
I2301
sg42
g21
sg43
g21
sg44
I388
sg45
Vable
p3928
sg47
I388
sg48
I2305
sbag0
(g23
g2
Ntp3929
Rp3930
(dp3931
g27
(dp3932
g29
Vto
p3933
sg31
VO
p3934
sg33
VTO
p3935
sg35
I22
ssg10
I389
sg36
g4
sg37
(dp3936
sg39
(dp3937
sg41
I2306
sg42
g21
sg43
g21
sg44
I389
sg45
Vto
p3938
sg47
I389
sg48
I2308
sbag0
(g23
g2
Ntp3939
Rp3940
(dp3941
g27
(dp3942
g29
Vaccess
p3943
sg31
VO
p3944
sg33
VNN
p3945
sg35
I23
ssg10
I390
sg36
g4
sg37
(dp3946
sg39
(dp3947
sg41
I2309
sg42
g21
sg43
g21
sg44
I390
sg45
Vaccess
p3948
sg47
I390
sg48
I2315
sbag0
(g23
g2
Ntp3949
Rp3950
(dp3951
g27
(dp3952
g29
Vemployment
p3953
sg31
VO
p3954
sg33
VNN
p3955
sg35
I24
ssg10
I391
sg36
g4
sg37
(dp3956
sg39
(dp3957
sg41
I2316
sg42
g21
sg43
g21
sg44
I391
sg45
Vemployment
p3958
sg47
I391
sg48
I2326
sbag0
(g23
g2
Ntp3959
Rp3960
(dp3961
g27
(dp3962
g29
V,
p3963
sg31
VO
p3964
sg33
V,
p3965
sg35
I25
ssg10
I392
sg36
g4
sg37
(dp3966
sg39
(dp3967
sg41
I2326
sg42
g21
sg43
g21
sg44
I392
sg45
V,
p3968
sg47
I392
sg48
I2327
sbag0
(g23
g2
Ntp3969
Rp3970
(dp3971
g27
(dp3972
g29
Vservice
p3973
sg31
VO
p3974
sg33
VNNS
p3975
sg35
I26
ssg10
I393
sg36
g4
sg37
(dp3976
sg39
(dp3977
sg41
I2328
sg42
g21
sg43
g21
sg44
I393
sg45
Vservices
p3978
sg47
I393
sg48
I2336
sbag0
(g23
g2
Ntp3979
Rp3980
(dp3981
g27
(dp3982
g29
Vand
p3983
sg31
VO
p3984
sg33
VCC
p3985
sg35
I27
ssg10
I394
sg36
g4
sg37
(dp3986
sg39
(dp3987
sg41
I2337
sg42
g21
sg43
g21
sg44
I394
sg45
Vand
p3988
sg47
I394
sg48
I2340
sbag0
(g23
g2
Ntp3989
Rp3990
(dp3991
g27
(dp3992
g29
Vthe
p3993
sg31
VO
p3994
sg33
VDT
p3995
sg35
I28
ssg10
I395
sg36
g4
sg37
(dp3996
sg39
(dp3997
sg41
I2341
sg42
g21
sg43
g21
sg44
I395
sg45
Vthe
p3998
sg47
I395
sg48
I2344
sbag0
(g23
g2
Ntp3999
Rp4000
(dp4001
g27
(dp4002
g29
Vbuild
p4003
sg31
VO
p4004
sg33
VVBN
p4005
sg35
I29
ssg10
I396
sg36
g4
sg37
(dp4006
sg39
(dp4007
sg41
I2345
sg42
g21
sg43
g21
sg44
I396
sg45
Vbuilt
p4008
sg47
I396
sg48
I2350
sbag0
(g23
g2
Ntp4009
Rp4010
(dp4011
g27
(dp4012
g29
Venvironment
p4013
sg31
VO
p4014
sg33
VNN
p4015
sg35
I30
ssg10
I397
sg36
g4
sg37
(dp4016
sg39
(dp4017
sg41
I2351
sg42
g21
sg43
g21
sg44
I397
sg45
Venvironment
p4018
sg47
I397
sg48
I2362
sbag0
(g23
g2
Ntp4019
Rp4020
(dp4021
g27
(dp4022
g29
Vwith
p4023
sg31
VO
p4024
sg33
VIN
p4025
sg35
I31
ssg10
I398
sg36
g4
sg37
(dp4026
sg39
(dp4027
sg41
I2363
sg42
g21
sg43
g21
sg44
I398
sg45
Vwith
p4028
sg47
I398
sg48
I2367
sbag0
(g23
g2
Ntp4029
Rp4030
(dp4031
g27
(dp4032
g29
Vthe
p4033
sg31
VO
p4034
sg33
VDT
p4035
sg35
I32
ssg10
I399
sg36
g4
sg37
(dp4036
sg39
(dp4037
sg41
I2368
sg42
g21
sg43
g21
sg44
I399
sg45
Vthe
p4038
sg47
I399
sg48
I2371
sbag0
(g23
g2
Ntp4039
Rp4040
(dp4041
g27
(dp4042
g29
Vsame
p4043
sg31
VO
p4044
sg33
VJJ
p4045
sg35
I33
ssg10
I400
sg36
g4
sg37
(dp4046
sg39
(dp4047
sg41
I2372
sg42
g21
sg43
g21
sg44
I400
sg45
Vsame
p4048
sg47
I400
sg48
I2376
sbag0
(g23
g2
Ntp4049
Rp4050
(dp4051
g27
(dp4052
g29
Vpotential
p4053
sg31
VO
p4054
sg33
VNN
p4055
sg35
I34
ssg10
I401
sg36
g4
sg37
(dp4056
sg39
(dp4057
sg41
I2377
sg42
g21
sg43
g21
sg44
I401
sg45
Vpotential
p4058
sg47
I401
sg48
I2386
sbag0
(g23
g2
Ntp4059
Rp4060
(dp4061
g27
(dp4062
g29
Vas
p4063
sg31
VO
p4064
sg33
VIN
p4065
sg35
I35
ssg10
I402
sg36
g4
sg37
(dp4066
sg39
(dp4067
sg41
I2387
sg42
g21
sg43
g21
sg44
I402
sg45
Vas
p4068
sg47
I402
sg48
I2389
sbag0
(g23
g2
Ntp4069
Rp4070
(dp4071
g27
(dp4072
g29
Vnon-disabled
p4073
sg31
VO
p4074
sg33
VJJ
p4075
sg35
I36
ssg10
I403
sg36
g4
sg37
(dp4076
sg39
(dp4077
sg41
I2390
sg42
g21
sg43
g21
sg44
I403
sg45
Vnon-disabled
p4078
sg47
I403
sg48
I2402
sbag0
(g23
g2
Ntp4079
Rp4080
(dp4081
g27
(dp4082
g29
Vpeople
p4083
sg31
VO
p4084
sg33
VNNS
p4085
sg35
I37
ssg10
I404
sg36
g4
sg37
(dp4086
sg39
(dp4087
sg41
I2403
sg42
g21
sg43
g21
sg44
I404
sg45
Vpeople
p4088
sg47
I404
sg48
I2409
sbag0
(g23
g2
Ntp4089
Rp4090
(dp4091
g27
(dp4092
g29
V.
p4093
sg31
VO
p4094
sg33
V.
p4095
sg35
I38
ssg10
I405
sg36
g4
sg37
(dp4096
sg39
(dp4097
sg41
I2409
sg42
g21
sg43
g21
sg44
I405
sg45
V.
p4098
sg47
I405
sg48
I2410
sbag0
(g23
g2
Ntp4099
Rp4100
(dp4101
g27
(dp4102
g29
Vin
p4103
sg31
VO
p4104
sg33
VIN
p4105
sg35
I1
ssg10
I406
sg36
g4
sg37
(dp4106
sg39
(dp4107
sg41
I2412
sg42
g21
sg43
g21
sg44
I406
sg45
VIn
p4108
sg47
I406
sg48
I2414
sbag0
(g23
g2
Ntp4109
Rp4110
(dp4111
g27
(dp4112
g29
VNovember
p4113
sg31
VDATE
p4114
sg33
VNNP
p4115
sg35
I2
ssg10
I407
sg36
g4
sg37
(dp4116
sg39
(dp4117
sg41
I2415
sg42
g21
sg43
g21
sg44
I407
sg45
VNovember
p4118
sg47
I407
sg48
I2423
sbag0
(g23
g2
Ntp4119
Rp4120
(dp4121
g27
(dp4122
g29
V2007
p4123
sg31
VDATE
p4124
sg33
VCD
p4125
sg35
I3
ssg10
I408
sg36
g4
sg37
(dp4126
sg39
(dp4127
sg41
I2424
sg42
g21
sg43
g21
sg44
I408
sg45
V2007
p4128
sg47
I408
sg48
I2428
sbag0
(g23
g2
Ntp4129
Rp4130
(dp4131
g27
(dp4132
g29
V,
p4133
sg31
VO
p4134
sg33
V,
p4135
sg35
I4
ssg10
I409
sg36
g4
sg37
(dp4136
sg39
(dp4137
sg41
I2428
sg42
g21
sg43
g21
sg44
I409
sg45
V,
p4138
sg47
I409
sg48
I2429
sbag0
(g23
g2
Ntp4139
Rp4140
(dp4141
g27
(dp4142
g29
VDavid
p4143
sg31
VPERSON
p4144
sg33
VNNP
p4145
sg35
I5
ssg10
I410
sg36
g4
sg37
(dp4146
sg39
(dp4147
sg41
I2430
sg42
g21
sg43
g21
sg44
I410
sg45
VDavid
p4148
sg47
I410
sg48
I2435
sbag0
(g23
g2
Ntp4149
Rp4150
(dp4151
g27
(dp4152
g29
VRosin
p4153
sg31
VPERSON
p4154
sg33
VNNP
p4155
sg35
I6
ssg10
I411
sg36
g4
sg37
(dp4156
sg39
(dp4157
sg41
I2436
sg42
g21
sg43
g21
sg44
I411
sg45
VRosin
p4158
sg47
I411
sg48
I2441
sbag0
(g23
g2
Ntp4159
Rp4160
(dp4161
g27
(dp4162
g29
V,
p4163
sg31
VO
p4164
sg33
V,
p4165
sg35
I7
ssg10
I412
sg36
g4
sg37
(dp4166
sg39
(dp4167
sg41
I2441
sg42
g21
sg43
g21
sg44
I412
sg45
V,
p4168
sg47
I412
sg48
I2442
sbag0
(g23
g2
Ntp4169
Rp4170
(dp4171
g27
(dp4172
g29
Va
p4173
sg31
VO
p4174
sg33
VDT
p4175
sg35
I8
ssg10
I413
sg36
g4
sg37
(dp4176
sg39
(dp4177
sg41
I2443
sg42
g21
sg43
g21
sg44
I413
sg45
Va
p4178
sg47
I413
sg48
I2444
sbag0
(g23
g2
Ntp4179
Rp4180
(dp4181
g27
(dp4182
g29
Vformer
p4183
sg31
VO
p4184
sg33
VJJ
p4185
sg35
I9
ssg10
I414
sg36
g4
sg37
(dp4186
sg39
(dp4187
sg41
I2445
sg42
g21
sg43
g21
sg44
I414
sg45
Vformer
p4188
sg47
I414
sg48
I2451
sbag0
(g23
g2
Ntp4189
Rp4190
(dp4191
g27
(dp4192
g29
Vvice-president
p4193
sg31
VO
p4194
sg33
VNN
p4195
sg35
I10
ssg10
I415
sg36
g4
sg37
(dp4196
sg39
(dp4197
sg41
I2452
sg42
g21
sg43
g21
sg44
I415
sg45
Vvice-president
p4198
sg47
I415
sg48
I2466
sbag0
(g23
g2
Ntp4199
Rp4200
(dp4201
g27
(dp4202
g29
Vof
p4203
sg31
VO
p4204
sg33
VIN
p4205
sg35
I11
ssg10
I416
sg36
g4
sg37
(dp4206
sg39
(dp4207
sg41
I2467
sg42
g21
sg43
g21
sg44
I416
sg45
Vof
p4208
sg47
I416
sg48
I2469
sbag0
(g23
g2
Ntp4209
Rp4210
(dp4211
g27
(dp4212
g29
Vthe
p4213
sg31
VO
p4214
sg33
VDT
p4215
sg35
I12
ssg10
I417
sg36
g4
sg37
(dp4216
sg39
(dp4217
sg41
I2470
sg42
g21
sg43
g21
sg44
I417
sg45
Vthe
p4218
sg47
I417
sg48
I2473
sbag0
(g23
g2
Ntp4219
Rp4220
(dp4221
g27
(dp4222
g29
VRoyal
p4223
sg31
VORGANIZATION
p4224
sg33
VNNP
p4225
sg35
I13
ssg10
I418
sg36
g4
sg37
(dp4226
sg39
(dp4227
sg41
I2474
sg42
g21
sg43
g21
sg44
I418
sg45
VRoyal
p4228
sg47
I418
sg48
I2479
sbag0
(g23
g2
Ntp4229
Rp4230
(dp4231
g27
(dp4232
g29
VCollege
p4233
sg31
VORGANIZATION
p4234
sg33
VNNP
p4235
sg35
I14
ssg10
I419
sg36
g4
sg37
(dp4236
sg39
(dp4237
sg41
I2480
sg42
g21
sg43
g21
sg44
I419
sg45
VCollege
p4238
sg47
I419
sg48
I2487
sbag0
(g23
g2
Ntp4239
Rp4240
(dp4241
g27
(dp4242
g29
Vof
p4243
sg31
VORGANIZATION
p4244
sg33
VIN
p4245
sg35
I15
ssg10
I420
sg36
g4
sg37
(dp4246
sg39
(dp4247
sg41
I2488
sg42
g21
sg43
g21
sg44
I420
sg45
Vof
p4248
sg47
I420
sg48
I2490
sbag0
(g23
g2
Ntp4249
Rp4250
(dp4251
g27
(dp4252
g29
VSurgeons
p4253
sg31
VORGANIZATION
p4254
sg33
VNNPS
p4255
sg35
I16
ssg10
I421
sg36
g4
sg37
(dp4256
sg39
(dp4257
sg41
I2491
sg42
g21
sg43
g21
sg44
I421
sg45
VSurgeons
p4258
sg47
I421
sg48
I2499
sbag0
(g23
g2
Ntp4259
Rp4260
(dp4261
g27
(dp4262
g29
Vwrite
p4263
sg31
VO
p4264
sg33
VVBD
p4265
sg35
I17
ssg10
I422
sg36
g4
sg37
(dp4266
sg39
(dp4267
sg41
I2500
sg42
g21
sg43
g21
sg44
I422
sg45
Vwrote
p4268
sg47
I422
sg48
I2505
sbag0
(g23
g2
Ntp4269
Rp4270
(dp4271
g27
(dp4272
g29
Vin
p4273
sg31
VO
p4274
sg33
VIN
p4275
sg35
I18
ssg10
I423
sg36
g4
sg37
(dp4276
sg39
(dp4277
sg41
I2506
sg42
g21
sg43
g21
sg44
I423
sg45
Vin
p4278
sg47
I423
sg48
I2508
sbag0
(g23
g2
Ntp4279
Rp4280
(dp4281
g27
(dp4282
g29
Vthe
p4283
sg31
VO
p4284
sg33
VDT
p4285
sg35
I19
ssg10
I424
sg36
g4
sg37
(dp4286
sg39
(dp4287
sg41
I2509
sg42
g21
sg43
g21
sg44
I424
sg45
Vthe
p4288
sg47
I424
sg48
I2512
sbag0
(g23
g2
Ntp4289
Rp4290
(dp4291
g27
(dp4292
g29
Vmagazine
p4293
sg31
VO
p4294
sg33
VNN
p4295
sg35
I20
ssg10
I425
sg36
g4
sg37
(dp4296
sg39
(dp4297
sg41
I2513
sg42
g21
sg43
g21
sg44
I425
sg45
Vmagazine
p4298
sg47
I425
sg48
I2521
sbag0
(g23
g2
Ntp4299
Rp4300
(dp4301
g27
(dp4302
g29
VHospital
p4303
sg31
VO
p4304
sg33
VNNP
p4305
sg35
I21
ssg10
I426
sg36
g4
sg37
(dp4306
sg39
(dp4307
sg41
I2522
sg42
g21
sg43
g21
sg44
I426
sg45
VHospital
p4308
sg47
I426
sg48
I2530
sbag0
(g23
g2
Ntp4309
Rp4310
(dp4311
g27
(dp4312
g29
VDoctor
p4313
sg31
VO
p4314
sg33
VNNP
p4315
sg35
I22
ssg10
I427
sg36
g4
sg37
(dp4316
sg39
(dp4317
sg41
I2531
sg42
g21
sg43
g21
sg44
I427
sg45
VDoctor
p4318
sg47
I427
sg48
I2537
sbag0
(g23
g2
Ntp4319
Rp4320
(dp4321
g27
(dp4322
g29
V:
p4323
sg31
VO
p4324
sg33
V:
p4325
sg35
I23
ssg10
I428
sg36
g4
sg37
(dp4326
sg39
(dp4327
sg41
I2537
sg42
g21
sg43
g21
sg44
I428
sg45
V:
p4328
sg47
I428
sg48
I2538
sbag0
(g23
g2
Ntp4329
Rp4330
(dp4331
g27
(dp4332
g29
V``
p4333
sg31
VO
p4334
sg33
V``
p4335
sg35
I24
ssg10
I429
sg36
g4
sg37
(dp4336
sg39
(dp4337
sg41
I2539
sg42
g21
sg43
g21
sg44
I429
sg45
V\u201c
p4338
sg47
I429
sg48
I2540
sbag0
(g23
g2
Ntp4339
Rp4340
(dp4341
g27
(dp4342
g29
Vit
p4343
sg31
VO
p4344
sg33
VPRP
p4345
sg35
I25
ssg10
I430
sg36
g4
sg37
(dp4346
sg39
(dp4347
sg41
I2540
sg42
g21
sg43
g21
sg44
I430
sg45
VIt
p4348
sg47
I430
sg48
I2542
sbag0
(g23
g2
Ntp4349
Rp4350
(dp4351
g27
(dp4352
g29
Vbe
p4353
sg31
VO
p4354
sg33
VVBZ
p4355
sg35
I26
ssg10
I431
sg36
g4
sg37
(dp4356
sg39
(dp4357
sg41
I2543
sg42
g21
sg43
g21
sg44
I431
sg45
Vis
p4358
sg47
I431
sg48
I2545
sbag0
(g23
g2
Ntp4359
Rp4360
(dp4361
g27
(dp4362
g29
Vtime
p4363
sg31
VO
p4364
sg33
VNN
p4365
sg35
I27
ssg10
I432
sg36
g4
sg37
(dp4366
sg39
(dp4367
sg41
I2546
sg42
g21
sg43
g21
sg44
I432
sg45
Vtime
p4368
sg47
I432
sg48
I2550
sbag0
(g23
g2
Ntp4369
Rp4370
(dp4371
g27
(dp4372
g29
Vthat
p4373
sg31
VO
p4374
sg33
VIN
p4375
sg35
I28
ssg10
I433
sg36
g4
sg37
(dp4376
sg39
(dp4377
sg41
I2551
sg42
g21
sg43
g21
sg44
I433
sg45
Vthat
p4378
sg47
I433
sg48
I2555
sbag0
(g23
g2
Ntp4379
Rp4380
(dp4381
g27
(dp4382
g29
Vsomeone
p4383
sg31
VO
p4384
sg33
VNN
p4385
sg35
I29
ssg10
I434
sg36
g4
sg37
(dp4386
sg39
(dp4387
sg41
I2556
sg42
g21
sg43
g21
sg44
I434
sg45
Vsomeone
p4388
sg47
I434
sg48
I2563
sbag0
(g23
g2
Ntp4389
Rp4390
(dp4391
g27
(dp4392
g29
Vspeak
p4393
sg31
VO
p4394
sg33
VVBD
p4395
sg35
I30
ssg10
I435
sg36
g4
sg37
(dp4396
sg39
(dp4397
sg41
I2564
sg42
g21
sg43
g21
sg44
I435
sg45
Vspoke
p4398
sg47
I435
sg48
I2569
sbag0
(g23
g2
Ntp4399
Rp4400
(dp4401
g27
(dp4402
g29
Vup
p4403
sg31
VO
p4404
sg33
VRP
p4405
sg35
I31
ssg10
I436
sg36
g4
sg37
(dp4406
sg39
(dp4407
sg41
I2570
sg42
g21
sg43
g21
sg44
I436
sg45
Vup
p4408
sg47
I436
sg48
I2572
sbag0
(g23
g2
Ntp4409
Rp4410
(dp4411
g27
(dp4412
g29
Vconcern
p4413
sg31
VO
p4414
sg33
VVBG
p4415
sg35
I32
ssg10
I437
sg36
g4
sg37
(dp4416
sg39
(dp4417
sg41
I2573
sg42
g21
sg43
g21
sg44
I437
sg45
Vconcerning
p4418
sg47
I437
sg48
I2583
sbag0
(g23
g2
Ntp4419
Rp4420
(dp4421
g27
(dp4422
g29
Vthe
p4423
sg31
VO
p4424
sg33
VDT
p4425
sg35
I33
ssg10
I438
sg36
g4
sg37
(dp4426
sg39
(dp4427
sg41
I2584
sg42
g21
sg43
g21
sg44
I438
sg45
Vthe
p4428
sg47
I438
sg48
I2587
sbag0
(g23
g2
Ntp4429
Rp4430
(dp4431
g27
(dp4432
g29
Vreverse
p4433
sg31
VO
p4434
sg33
VJJ
p4435
sg35
I34
ssg10
I439
sg36
g4
sg37
(dp4436
sg39
(dp4437
sg41
I2588
sg42
g21
sg43
g21
sg44
I439
sg45
Vreverse
p4438
sg47
I439
sg48
I2595
sbag0
(g23
g2
Ntp4439
Rp4440
(dp4441
g27
(dp4442
g29
Vdiscrimination
p4443
sg31
VO
p4444
sg33
VNN
p4445
sg35
I35
ssg10
I440
sg36
g4
sg37
(dp4446
sg39
(dp4447
sg41
I2596
sg42
g21
sg43
g21
sg44
I440
sg45
Vdiscrimination
p4448
sg47
I440
sg48
I2610
sbag0
(g23
g2
Ntp4449
Rp4450
(dp4451
g27
(dp4452
g29
Vwith
p4453
sg31
VO
p4454
sg33
VIN
p4455
sg35
I36
ssg10
I441
sg36
g4
sg37
(dp4456
sg39
(dp4457
sg41
I2611
sg42
g21
sg43
g21
sg44
I441
sg45
Vwith
p4458
sg47
I441
sg48
I2615
sbag0
(g23
g2
Ntp4459
Rp4460
(dp4461
g27
(dp4462
g29
Vrespect
p4463
sg31
VO
p4464
sg33
VNN
p4465
sg35
I37
ssg10
I442
sg36
g4
sg37
(dp4466
sg39
(dp4467
sg41
I2616
sg42
g21
sg43
g21
sg44
I442
sg45
Vrespect
p4468
sg47
I442
sg48
I2623
sbag0
(g23
g2
Ntp4469
Rp4470
(dp4471
g27
(dp4472
g29
Vto
p4473
sg31
VO
p4474
sg33
VTO
p4475
sg35
I38
ssg10
I443
sg36
g4
sg37
(dp4476
sg39
(dp4477
sg41
I2624
sg42
g21
sg43
g21
sg44
I443
sg45
Vto
p4478
sg47
I443
sg48
I2626
sbag0
(g23
g2
Ntp4479
Rp4480
(dp4481
g27
(dp4482
g29
Vmerit
p4483
sg31
VO
p4484
sg33
VNN
p4485
sg35
I39
ssg10
I444
sg36
g4
sg37
(dp4486
sg39
(dp4487
sg41
I2627
sg42
g21
sg43
g21
sg44
I444
sg45
Vmerit
p4488
sg47
I444
sg48
I2632
sbag0
(g23
g2
Ntp4489
Rp4490
(dp4491
g27
(dp4492
g29
Vaward
p4493
sg31
VO
p4494
sg33
VNNS
p4495
sg35
I40
ssg10
I445
sg36
g4
sg37
(dp4496
sg39
(dp4497
sg41
I2633
sg42
g21
sg43
g21
sg44
I445
sg45
Vawards
p4498
sg47
I445
sg48
I2639
sbag0
(g23
g2
Ntp4499
Rp4500
(dp4501
g27
(dp4502
g29
V''
p4503
sg31
VO
p4504
sg33
V''
p4505
sg35
I41
ssg10
I446
sg36
g4
sg37
(dp4506
sg39
(dp4507
sg41
I2639
sg42
g21
sg43
g21
sg44
I446
sg45
V\u201d
p4508
sg47
I446
sg48
I2640
sbag0
(g23
g2
Ntp4509
Rp4510
(dp4511
g27
(dp4512
g29
Vand
p4513
sg31
VO
p4514
sg33
VCC
p4515
sg35
I42
ssg10
I447
sg36
g4
sg37
(dp4516
sg39
(dp4517
sg41
I2641
sg42
g21
sg43
g21
sg44
I447
sg45
Vand
p4518
sg47
I447
sg48
I2644
sbag0
(g23
g2
Ntp4519
Rp4520
(dp4521
g27
(dp4522
g29
Vsay
p4523
sg31
VO
p4524
sg33
VVBG
p4525
sg35
I43
ssg10
I448
sg36
g4
sg37
(dp4526
sg39
(dp4527
sg41
I2645
sg42
g21
sg43
g21
sg44
I448
sg45
Vsaying
p4528
sg47
I448
sg48
I2651
sbag0
(g23
g2
Ntp4529
Rp4530
(dp4531
g27
(dp4532
g29
Vthat
p4533
sg31
VO
p4534
sg33
VIN
p4535
sg35
I44
ssg10
I449
sg36
g4
sg37
(dp4536
sg39
(dp4537
sg41
I2652
sg42
g21
sg43
g21
sg44
I449
sg45
Vthat
p4538
sg47
I449
sg48
I2656
sbag0
(g23
g2
Ntp4539
Rp4540
(dp4541
g27
(dp4542
g29
V``
p4543
sg31
VO
p4544
sg33
V``
p4545
sg35
I45
ssg10
I450
sg36
g4
sg37
(dp4546
sg39
(dp4547
sg41
I2657
sg42
g21
sg43
g21
sg44
I450
sg45
V"
p4548
sg47
I450
sg48
I2658
sbag0
(g23
g2
Ntp4549
Rp4550
(dp4551
g27
(dp4552
g29
Vfemale
p4553
sg31
VO
p4554
sg33
VJJ
p4555
sg35
I46
ssg10
I451
sg36
g4
sg37
(dp4556
sg39
(dp4557
sg41
I2658
sg42
g21
sg43
g21
sg44
I451
sg45
Vfemale
p4558
sg47
I451
sg48
I2664
sbag0
(g23
g2
Ntp4559
Rp4560
(dp4561
g27
(dp4562
g29
Vand
p4563
sg31
VO
p4564
sg33
VCC
p4565
sg35
I47
ssg10
I452
sg36
g4
sg37
(dp4566
sg39
(dp4567
sg41
I2665
sg42
g21
sg43
g21
sg44
I452
sg45
Vand
p4568
sg47
I452
sg48
I2668
sbag0
(g23
g2
Ntp4569
Rp4570
(dp4571
g27
(dp4572
g29
Vethnic
p4573
sg31
VO
p4574
sg33
VJJ
p4575
sg35
I48
ssg10
I453
sg36
g4
sg37
(dp4576
sg39
(dp4577
sg41
I2669
sg42
g21
sg43
g21
sg44
I453
sg45
Vethnic
p4578
sg47
I453
sg48
I2675
sbag0
(g23
g2
Ntp4579
Rp4580
(dp4581
g27
(dp4582
g29
Vminority
p4583
sg31
VO
p4584
sg33
VNN
p4585
sg35
I49
ssg10
I454
sg36
g4
sg37
(dp4586
sg39
(dp4587
sg41
I2676
sg42
g21
sg43
g21
sg44
I454
sg45
Vminority
p4588
sg47
I454
sg48
I2684
sbag0
(g23
g2
Ntp4589
Rp4590
(dp4591
g27
(dp4592
g29
Vconsultant
p4593
sg31
VO
p4594
sg33
VNNS
p4595
sg35
I50
ssg10
I455
sg36
g4
sg37
(dp4596
sg39
(dp4597
sg41
I2685
sg42
g21
sg43
g21
sg44
I455
sg45
Vconsultants
p4598
sg47
I455
sg48
I2696
sbag0
(g23
g2
Ntp4599
Rp4600
(dp4601
g27
(dp4602
g29
Vbe
p4603
sg31
VO
p4604
sg33
VVBP
p4605
sg35
I51
ssg10
I456
sg36
g4
sg37
(dp4606
sg39
(dp4607
sg41
I2697
sg42
g21
sg43
g21
sg44
I456
sg45
Vare
p4608
sg47
I456
sg48
I2700
sbag0
(g23
g2
Ntp4609
Rp4610
(dp4611
g27
(dp4612
g29
Vbe
p4613
sg31
VO
p4614
sg33
VVBG
p4615
sg35
I52
ssg10
I457
sg36
g4
sg37
(dp4616
sg39
(dp4617
sg41
I2701
sg42
g21
sg43
g21
sg44
I457
sg45
Vbeing
p4618
sg47
I457
sg48
I2706
sbag0
(g23
g2
Ntp4619
Rp4620
(dp4621
g27
(dp4622
g29
Vgive
p4623
sg31
VO
p4624
sg33
VVBN
p4625
sg35
I53
ssg10
I458
sg36
g4
sg37
(dp4626
sg39
(dp4627
sg41
I2707
sg42
g21
sg43
g21
sg44
I458
sg45
Vgiven
p4628
sg47
I458
sg48
I2712
sbag0
(g23
g2
Ntp4629
Rp4630
(dp4631
g27
(dp4632
g29
Vpreferential
p4633
sg31
VO
p4634
sg33
VJJ
p4635
sg35
I54
ssg10
I459
sg36
g4
sg37
(dp4636
sg39
(dp4637
sg41
I2713
sg42
g21
sg43
g21
sg44
I459
sg45
Vpreferential
p4638
sg47
I459
sg48
I2725
sbag0
(g23
g2
Ntp4639
Rp4640
(dp4641
g27
(dp4642
g29
Vtreatment
p4643
sg31
VO
p4644
sg33
VNN
p4645
sg35
I55
ssg10
I460
sg36
g4
sg37
(dp4646
sg39
(dp4647
sg41
I2726
sg42
g21
sg43
g21
sg44
I460
sg45
Vtreatment
p4648
sg47
I460
sg48
I2735
sbag0
(g23
g2
Ntp4649
Rp4650
(dp4651
g27
(dp4652
g29
Vto
p4653
sg31
VO
p4654
sg33
VTO
p4655
sg35
I56
ssg10
I461
sg36
g4
sg37
(dp4656
sg39
(dp4657
sg41
I2736
sg42
g21
sg43
g21
sg44
I461
sg45
Vto
p4658
sg47
I461
sg48
I2738
sbag0
(g23
g2
Ntp4659
Rp4660
(dp4661
g27
(dp4662
g29
Vmeet
p4663
sg31
VO
p4664
sg33
VVB
p4665
sg35
I57
ssg10
I462
sg36
g4
sg37
(dp4666
sg39
(dp4667
sg41
I2739
sg42
g21
sg43
g21
sg44
I462
sg45
Vmeet
p4668
sg47
I462
sg48
I2743
sbag0
(g23
g2
Ntp4669
Rp4670
(dp4671
g27
(dp4672
g29
Vartificial
p4673
sg31
VO
p4674
sg33
VJJ
p4675
sg35
I58
ssg10
I463
sg36
g4
sg37
(dp4676
sg39
(dp4677
sg41
I2744
sg42
g21
sg43
g21
sg44
I463
sg45
Vartificial
p4678
sg47
I463
sg48
I2754
sbag0
(g23
g2
Ntp4679
Rp4680
(dp4681
g27
(dp4682
g29
Vquota
p4683
sg31
VO
p4684
sg33
VNNS
p4685
sg35
I59
ssg10
I464
sg36
g4
sg37
(dp4686
sg39
(dp4687
sg41
I2755
sg42
g21
sg43
g21
sg44
I464
sg45
Vquotas
p4688
sg47
I464
sg48
I2761
sbag0
(g23
g2
Ntp4689
Rp4690
(dp4691
g27
(dp4692
g29
V''
p4693
sg31
VO
p4694
sg33
V''
p4695
sg35
I60
ssg10
I465
sg36
g4
sg37
(dp4696
sg39
(dp4697
sg41
I2761
sg42
g21
sg43
g21
sg44
I465
sg45
g4548
sg47
I465
sg48
I2762
sbag0
(g23
g2
Ntp4698
Rp4699
(dp4700
g27
(dp4701
g29
V-lsb-
p4702
sg31
VO
p4703
sg33
V-LRB-
p4704
sg35
I61
ssg10
I466
sg36
g4
sg37
(dp4705
sg39
(dp4706
sg41
I2763
sg42
g21
sg43
g21
sg44
I466
sg45
V[
p4707
sg47
I466
sg48
I2764
sbag0
(g23
g2
Ntp4708
Rp4709
(dp4710
g27
(dp4711
g29
Vref
p4712
sg31
VO
p4713
sg33
VNN
p4714
sg35
I62
ssg10
I467
sg36
g4
sg37
(dp4715
sg39
(dp4716
sg41
I2764
sg42
g21
sg43
g21
sg44
I467
sg45
VREF
p4717
sg47
I467
sg48
I2767
sbag0
(g23
g2
Ntp4718
Rp4719
(dp4720
g27
(dp4721
g29
V-rsb-
p4722
sg31
VO
p4723
sg33
V-RRB-
p4724
sg35
I63
ssg10
I468
sg36
g4
sg37
(dp4725
sg39
(dp4726
sg41
I2767
sg42
g21
sg43
g21
sg44
I468
sg45
V]
p4727
sg47
I468
sg48
I2768
sbag0
(g23
g2
Ntp4728
Rp4729
(dp4730
g27
(dp4731
g29
V.
p4732
sg31
VO
p4733
sg33
V.
p4734
sg35
I64
ssg10
I469
sg36
g4
sg37
(dp4735
sg39
(dp4736
sg41
I2768
sg42
g21
sg43
g21
sg44
I469
sg45
V.
p4737
sg47
I469
sg48
I2769
sbasS'Document'
p4738
(lp4739
g4
asS'doc-features'
p4740
g14
sS'Sentence'
p4741
(lp4742
g0
(g23
g2
Ntp4743
Rp4744
(dp4745
g27
(dp4746
S'dep-parse'
p4747
S'not implemented!'
p4748
sg35
I0
sS'constituency-parse'
p4749
V(ROOT\u000a  (S\u000a    (NP (JJ Reverse) (NN discrimination))\u000a    (VP (VBZ is)\u000a      (NP\u000a        (NP (DT a) (NN term))\u000a        (VP (VBG referring)\u000a          (PP\u000a            (PP (TO to)\u000a              (NP\u000a                (NP (NN discrimination))\u000a                (PP (IN against)\u000a                  (NP\u000a                    (NP (NNS members))\u000a                    (PP (IN of)\u000a                      (NP (DT a) (JJ dominant)\u000a                        (CC or)\u000a                        (NN majority) (NN group)))))\u000a                (, ,)\u000a                (PP (VBG including)\u000a                  (NP\u000a                    (NP (DT the) (NN city))\u000a                    (CC or)\u000a                    (NP (NN state))))))\u000a            (, ,)\u000a            (CC or)\u000a            (PP (IN in)\u000a              (NP\u000a                (NP (NN favor))\u000a                (PP (IN of)\u000a                  (NP\u000a                    (NP (NNS members))\u000a                    (PP (IN of)\u000a                      (NP\u000a                        (NP (DT a) (NN minority))\u000a                        (CC or)\u000a                        (ADVP (RB historically))\u000a                        (NP (JJ disadvantaged) (NN group))))))))))))\u000a    (. .)))
p4750
ssg10
I0
sg36
g4
sg37
(dp4751
sg39
(dp4752
S'tokens'
p4753
(lp4754
g25
ag50
ag60
ag70
ag80
ag90
ag100
ag110
ag120
ag130
ag140
ag150
ag160
ag170
ag180
ag190
ag200
ag210
ag220
ag230
ag240
ag250
ag260
ag270
ag280
ag290
ag300
ag310
ag320
ag330
ag340
ag350
ag360
ag370
ag380
ag390
assg41
I0
sg42
g4741
sg43
g4741
sg44
I0
sg45
VReverse discrimination is a term referring to discrimination against members of a dominant or majority group, including the city or state, or in favor of members of a minority or historically disadvantaged group.
p4755
sg47
I36
sg48
I212
sbag0
(g23
g2
Ntp4756
Rp4757
(dp4758
g27
(dp4759
g4747
g4748
sg35
I1
sg4749
V(ROOT\u000a  (S\u000a    (NP (NNS Groups))\u000a    (VP (MD may)\u000a      (VP (VB be)\u000a        (VP (VBN defined)\u000a          (PP (IN in)\u000a            (NP\u000a              (NP (NNS terms))\u000a              (PP (IN of)\u000a                (NP\u000a                  (NP (NN race))\u000a                  (, ,)\u000a                  (NP (NN gender))\u000a                  (, ,)\u000a                  (NP (NN ethnicity))\u000a                  (, ,)\u000a                  (CC or)\u000a                  (NP (JJ other) (NNS factors)))))))))\u000a    (. .)))
p4760
ssg10
I1
sg36
g4
sg37
(dp4761
sg39
(dp4762
g4753
(lp4763
g400
ag410
ag420
ag430
ag440
ag450
ag460
ag470
ag480
ag490
ag500
ag510
ag520
ag530
ag540
ag550
ag560
assg41
I213
sg42
g4741
sg43
g4741
sg44
I36
sg45
V Groups may be defined in terms of race, gender, ethnicity, or other factors.
p4764
sg47
I53
sg48
I289
sbag0
(g23
g2
Ntp4765
Rp4766
(dp4767
g27
(dp4768
g4747
g4748
sg35
I2
sg4749
V(ROOT\u000a  (S\u000a    (NP (DT This) (NN discrimination))\u000a    (VP (MD may)\u000a      (VP (VB seek)\u000a        (S\u000a          (VP (TO to)\u000a            (VP (VB redress)\u000a              (NP (JJ social) (NNS inequalities))\u000a              (SBAR\u000a                (WHADVP (WRB where))\u000a                (S\u000a                  (NP (NN minority) (NNS groups))\u000a                  (VP (VBP have)\u000a                    (VP (VBN been)\u000a                      (VP (VBN denied)\u000a                        (NP (NN access))\u000a                        (PP (TO to)\u000a                          (NP\u000a                            (NP (DT the) (JJ same) (NNS privileges))\u000a                            (PP (IN of)\u000a                              (NP (DT the) (NN majority) (NN group)))))))))))))))\u000a    (. .)))
p4769
ssg10
I2
sg36
g4
sg37
(dp4770
sg39
(dp4771
g4753
(lp4772
g570
ag580
ag590
ag600
ag610
ag620
ag630
ag640
ag650
ag660
ag670
ag680
ag690
ag700
ag710
ag720
ag730
ag740
ag750
ag760
ag770
ag780
ag790
ag800
assg41
I290
sg42
g4741
sg43
g4741
sg44
I53
sg45
V This discrimination may seek to redress social inequalities where minority groups have been denied access to the same privileges of the majority group.
p4773
sg47
I77
sg48
I441
sbag0
(g23
g2
Ntp4774
Rp4775
(dp4776
g27
(dp4777
g4747
g4748
sg35
I3
sg4749
V(ROOT\u000a  (S\u000a    (PP (IN In)\u000a      (NP (JJ such) (NNS cases)))\u000a    (NP (PRP it))\u000a    (VP (VBZ is)\u000a      (VP (VBN intended)\u000a        (S\u000a          (VP (TO to)\u000a            (VP (VB remove)\u000a              (NP (NN discrimination))\u000a              (SBAR (IN that)\u000a                (S\u000a                  (NP (NN minority) (NNS groups))\u000a                  (VP (MD may)\u000a                    (ADVP (RB already))\u000a                    (VP (VB face))))))))))\u000a    (. .)))
p4778
ssg10
I3
sg36
g4
sg37
(dp4779
sg39
(dp4780
g4753
(lp4781
g810
ag820
ag830
ag840
ag850
ag860
ag870
ag880
ag890
ag900
ag910
ag920
ag930
ag940
ag950
ag960
assg41
I442
sg42
g4741
sg43
g4741
sg44
I77
sg45
V In such cases it is intended to remove discrimination that minority groups may already face.
p4782
sg47
I93
sg48
I534
sbag0
(g23
g2
Ntp4783
Rp4784
(dp4785
g27
(dp4786
g4747
g4748
sg35
I4
sg4749
V(ROOT\u000a  (S\u000a    (NP (JJ Reverse) (NN discrimination))\u000a    (VP (MD may)\u000a      (ADVP (RB also))\u000a      (VP (VB be)\u000a        (VP (VBN used)\u000a          (S\u000a            (VP (TO to)\u000a              (VP (VB highlight)\u000a                (S\u000a                  (NP (DT the) (NN discrimination))\u000a                  (ADJP (JJ inherent)\u000a                    (PP (IN in)\u000a                      (NP (JJ affirmative) (NN action) (NNS programs)))))))))))\u000a    (. .)))
p4787
ssg10
I4
sg36
g4
sg37
(dp4788
sg39
(dp4789
g4753
(lp4790
g970
ag980
ag990
ag1000
ag1010
ag1020
ag1030
ag1040
ag1050
ag1060
ag1070
ag1080
ag1090
ag1100
ag1110
ag1120
assg41
I535
sg42
g4741
sg43
g4741
sg44
I93
sg45
V Reverse discrimination may also be used to highlight the discrimination inherent in affirmative action programs.
p4791
sg47
I109
sg48
I647
sbag0
(g23
g2
Ntp4792
Rp4793
(dp4794
g27
(dp4795
g4747
g4748
sg35
I5
sg4749
V(ROOT\u000a  (S\u000a    (NP\u000a      (NP (DT The) (NN law))\u000a      (PP (IN in)\u000a        (NP (DT some) (NNS countries)))\u000a      (, ,)\u000a      (PP (JJ such) (IN as)\u000a        (NP (DT the) (NNP UK)))\u000a      (, ,))\u000a    (VP (VBZ draws)\u000a      (NP\u000a        (NP (DT a) (NN distinction))\u000a        (PP (IN between)\u000a          (NP\u000a            (NP (NNP Equality))\u000a            (PP (IN of)\u000a              (NP (NNP Provision)\u000a                (CC and)\u000a                (NNP Equality)))))\u000a        (PP (IN of)\u000a          (NP (NNP Outcome))))\u000a      (, ,)\u000a      (S\u000a        (VP (VBG recognising)\u000a          (SBAR (IN that)\u000a            (S\u000a              (NP (JJ identical) (NN treatment))\u000a              (VP (MD may)\u000a                (ADVP (RB sometimes))\u000a                (VP\u000a                  (VP (VB act)\u000a                    (S\u000a                      (VP (TO to)\u000a                        (VP (VB preserve)\u000a                          (NP (NN inequality))))))\u000a                  (CONJP (RB rather) (IN than))\u000a                  (VP (VB eliminate)\u000a                    (NP (PRP it))))))))))\u000a    (. .)))
p4796
ssg10
I5
sg36
g4
sg37
(dp4797
sg39
(dp4798
g4753
(lp4799
g1130
ag1140
ag1150
ag1160
ag1170
ag1180
ag1190
ag1200
ag1210
ag1220
ag1230
ag1240
ag1250
ag1260
ag1270
ag1280
ag1290
ag1300
ag1310
ag1320
ag1330
ag1340
ag1350
ag1360
ag1370
ag1380
ag1390
ag1400
ag1410
ag1420
ag1430
ag1440
ag1450
ag1460
ag1470
ag1480
ag1490
ag1500
assg41
I650
sg42
g4741
sg43
g4741
sg44
I109
sg45
V \u000a\u000aThe law in some countries, such as the UK, draws a distinction between Equality of Provision and Equality of Outcome, recognising that identical treatment may sometimes act to preserve inequality rather than eliminate it.
p4800
sg47
I147
sg48
I871
sbag0
(g23
g2
Ntp4801
Rp4802
(dp4803
g27
(dp4804
g4747
g4748
sg35
I6
sg4749
V(ROOT\u000a  (S\u000a    (NP\u000a      (NP (NNS Opponents))\u000a      (PP (IN of)\u000a        (NP (DT this) (NN distinction))))\u000a    (VP (MD may)\u000a      (VP (VB label)\u000a        (NP (PRP it))\u000a        (PP (IN as)\u000a          (NP\u000a            (NP (DT an) (NN example))\u000a            (PP (IN of)\u000a              (NP (JJ positive) (NN discrimination)))))))\u000a    (. .)))
p4805
ssg10
I6
sg36
g4
sg37
(dp4806
sg39
(dp4807
g4753
(lp4808
g1510
ag1520
ag1530
ag1540
ag1550
ag1560
ag1570
ag1580
ag1590
ag1600
ag1610
ag1620
ag1630
ag1640
assg41
I872
sg42
g4741
sg43
g4741
sg44
I147
sg45
V Opponents of this distinction may label it as an example of positive discrimination.
p4809
sg47
I161
sg48
I956
sbag0
(g23
g2
Ntp4810
Rp4811
(dp4812
g27
(dp4813
g4747
g4748
sg35
I7
sg4749
V(ROOT\u000a  (S\u000a    (PP (IN In)\u000a      (NP (NNP India)))\u000a    (, ,)\u000a    (PP (IN among)\u000a      (NP\u000a        (NP (DT the) (JJ limited) (NNS positions))\u000a        (PP (IN for)\u000a          (NP (JJR higher) (NN education)))))\u000a    (, ,)\u000a    (NP (CD 50) (NN percent))\u000a    (VP (VBP are)\u000a      (VP (VBN reserved)))\u000a    (. .)))
p4814
ssg10
I7
sg36
g4
sg37
(dp4815
sg39
(dp4816
g4753
(lp4817
g1650
ag1660
ag1670
ag1680
ag1690
ag1700
ag1710
ag1720
ag1730
ag1740
ag1750
ag1760
ag1770
ag1780
ag1790
ag1800
assg41
I958
sg42
g4741
sg43
g4741
sg44
I161
sg45
V\u000a\u000aIn India, among the limited positions for higher education, 50 percent are reserved.
p4818
sg47
I177
sg48
I1042
sbag0
(g23
g2
Ntp4819
Rp4820
(dp4821
g27
(dp4822
g4747
g4748
sg35
I8
sg4749
V(ROOT\u000a  (S\u000a    (NP (VBN Reserved) (NN category) (NNS candidates))\u000a    (VP (MD can)\u000a      (VP (VB select)\u000a        (NP (DT a) (NN position))\u000a        (PP (IN from)\u000a          (NP (DT the) (NNP Open) (CD 50) (NN percent)))\u000a        (SBAR (IN if)\u000a          (S\u000a            (NP (PRP he)\u000a              (CC or)\u000a              (PRP she))\u000a            (VP (VBZ has)\u000a              (NP (JJ good) (NN merit)))))))\u000a    (. .)))
p4823
ssg10
I8
sg36
g4
sg37
(dp4824
sg39
(dp4825
g4753
(lp4826
g1810
ag1820
ag1830
ag1840
ag1850
ag1860
ag1870
ag1880
ag1890
ag1900
ag1910
ag1920
ag1930
ag1940
ag1950
ag1960
ag1970
ag1980
ag1990
ag2000
assg41
I1043
sg42
g4741
sg43
g4741
sg44
I177
sg45
V Reserved category candidates can select a position from the Open 50 percent if he or she has good merit.
p4827
sg47
I197
sg48
I1147
sbag0
(g23
g2
Ntp4828
Rp4829
(dp4830
g27
(dp4831
g4747
g4748
sg35
I9
sg4749
V(ROOT\u000a  (S\u000a    (NP (DT This))\u000a    (VP (VBZ results)\u000a      (PP (IN in)\u000a        (NP\u000a          (NP (JJ further) (JJ reverse) (NN discrimination))\u000a          (PP (IN of)\u000a            (NP (NNP Open/General/Non) (NNP Reserved) (NNS candidates))))))\u000a    (. .)))
p4832
ssg10
I9
sg36
g4
sg37
(dp4833
sg39
(dp4834
g4753
(lp4835
g2010
ag2020
ag2030
ag2040
ag2050
ag2060
ag2070
ag2080
ag2090
ag2100
ag2110
assg41
I1148
sg42
g4741
sg43
g4741
sg44
I197
sg45
V This results in further reverse discrimination of Open/General/Non Reserved candidates.
p4836
sg47
I208
sg48
I1235
sbag0
(g23
g2
Ntp4837
Rp4838
(dp4839
g27
(dp4840
g4747
g4748
sg35
I10
sg4749
V(ROOT\u000a  (S\u000a    (ADVP (RB Further))\u000a    (, ,)\u000a    (SBAR (IN since)\u000a      (S\u000a        (NP (EX there))\u000a        (VP (VBP are)\u000a          (NP\u000a            (NP (DT no) (JJ economic) (NNS criteria))\u000a            (PP (IN in)\u000a              (S\u000a                (VP (VBG classifying)\u000a                  (NP (NNP Reservation)))))))))\u000a    (, ,)\u000a    (NP\u000a      (NP (JJR poorer) (NNS sections))\u000a      (PP (IN of)\u000a        (NP (JJ reserved) (NN class))))\u000a    (ADVP (RB often))\u000a    (VP (VBP remain)\u000a      (ADJP (JJ poor)\u000a        (SBAR (IN whereas)\u000a          (S\u000a            (NP (DT the) (JJ affluent) (NN section))\u000a            (VP (VB reap)\u000a              (NP (NNS benefits))\u000a              (PP (IN for)\u000a                (NP (JJ successive) (NNS generations))))))))\u000a    (. .)))
p4841
ssg10
I10
sg36
g4
sg37
(dp4842
sg39
(dp4843
g4753
(lp4844
g2120
ag2130
ag2140
ag2150
ag2160
ag2170
ag2180
ag2190
ag2200
ag2210
ag2220
ag2230
ag2240
ag2250
ag2260
ag2270
ag2280
ag2290
ag2300
ag2310
ag2320
ag2330
ag2340
ag2350
ag2360
ag2370
ag2380
ag2390
ag2400
ag2410
assg41
I1236
sg42
g4741
sg43
g4741
sg44
I208
sg45
V Further, since there are no economic criteria in classifying Reservation, poorer sections of reserved class often remain poor whereas the affluent section reap benefits for successive generations.
p4845
sg47
I238
sg48
I1432
sbag0
(g23
g2
Ntp4846
Rp4847
(dp4848
g27
(dp4849
g4747
g4748
sg35
I11
sg4749
V(ROOT\u000a  (S\u000a    (ADVP (RB Also))\u000a    (, ,)\u000a    (NP\u000a      (NP (DT the) (JJR poorer) (NNS sections))\u000a      (PP (IN of)\u000a        (NP (NNP Open/General) (NNP Category))))\u000a    (VP (VB become)\u000a      (ADJP (JJ devoid)\u000a        (PP (IN of)\u000a          (NP (NN access))))\u000a      (PP (TO to)\u000a        (NP\u000a          (NP (JJR higher) (NN education))\u000a          (PP (IN for)\u000a            (NP (RB even) (RB slightly) (JJ low) (NN merit)))))\u000a      (PP (IN on)\u000a        (NP (JJ competitive) (NNS exams))))\u000a    (. .)))
p4850
ssg10
I11
sg36
g4
sg37
(dp4851
sg39
(dp4852
g4753
(lp4853
g2420
ag2430
ag2440
ag2450
ag2460
ag2470
ag2480
ag2490
ag2500
ag2510
ag2520
ag2530
ag2540
ag2550
ag2560
ag2570
ag2580
ag2590
ag2600
ag2610
ag2620
ag2630
ag2640
ag2650
assg41
I1433
sg42
g4741
sg43
g4741
sg44
I238
sg45
V Also, the poorer sections of Open/General Category become devoid of access to higher education for even slightly low merit on competitive exams.
p4854
sg47
I262
sg48
I1577
sbag0
(g23
g2
Ntp4855
Rp4856
(dp4857
g27
(dp4858
g4747
g4748
sg35
I12
sg4749
V(ROOT\u000a  (S\u000a    (NP\u000a      (NP (DT The) (NN difference))\u000a      (PP (IN in)\u000a        (NP\u000a          (NP (NN merit))\u000a          (PP (IN on)\u000a            (NP (NN entrance) (NNS exams))))))\u000a    (VP (VBZ is)\u000a      (ADVP (RB often))\u000a      (ADJP (RB very) (JJ wide)\u000a        (PP (IN between)\u000a          (NP (DT the)\u000a            (ADJP (JJ reserved)\u000a              (CC and)\u000a              (JJ unreserved))\u000a            (NNS classes)))))\u000a    (. .)))
p4859
ssg10
I12
sg36
g4
sg37
(dp4860
sg39
(dp4861
g4753
(lp4862
g2660
ag2670
ag2680
ag2690
ag2700
ag2710
ag2720
ag2730
ag2740
ag2750
ag2760
ag2770
ag2780
ag2790
ag2800
ag2810
ag2820
ag2830
assg41
I1578
sg42
g4741
sg43
g4741
sg44
I262
sg45
V The difference in merit on entrance exams is often very wide between the reserved and unreserved classes.
p4863
sg47
I280
sg48
I1683
sbag0
(g23
g2
Ntp4864
Rp4865
(dp4866
g27
(dp4867
g4747
g4748
sg35
I13
sg4749
V(ROOT\u000a  (S\u000a    (PP (IN In)\u000a      (NP (NNP India)))\u000a    (, ,)\u000a    (NP (DT the) (NN term))\u000a    (VP (VBZ is)\u000a      (ADVP (RB often))\u000a      (VP (VBN used)\u000a        (PP (IN by)\u000a          (NP\u000a            (NP (NNS citizens))\u000a            (VP (VBG protesting)\u000a              (PP (IN against)\u000a                (NP (NN reservation)\u000a                  (CC and)\u000a                  (NNS quotas) (-LRB- -LSB-) (NN REF) (-RRB- -RSB-))))))))\u000a    (. .)))
p4868
ssg10
I13
sg36
g4
sg37
(dp4869
sg39
(dp4870
g4753
(lp4871
g2840
ag2850
ag2860
ag2870
ag2880
ag2890
ag2900
ag2910
ag2920
ag2930
ag2940
ag2950
ag2960
ag2970
ag2980
ag2990
ag3000
ag3010
ag3020
assg41
I1684
sg42
g4741
sg43
g4741
sg44
I280
sg45
V In India, the term is often used by citizens protesting against reservation and quotas [REF].
p4872
sg47
I299
sg48
I1777
sbag0
(g23
g2
Ntp4873
Rp4874
(dp4875
g27
(dp4876
g4747
g4748
sg35
I14
sg4749
V(ROOT\u000a  (S\u000a    (NP (NNP UK) (NN law))\u000a    (VP (VBZ draws)\u000a      (NP\u000a        (NP (DT a) (NN distinction))\u000a        (PP (IN between)\u000a          (NP\u000a            (NP (NNP Equality))\u000a            (PP (IN of)\u000a              (NP (NNP Provision)\u000a                (CC and)\u000a                (NNP Equality)))))\u000a        (PP (IN of)\u000a          (NP (NNP Outcome))))\u000a      (, ,)\u000a      (PP\u000a        (ADVP (RB particularly))\u000a        (IN in)\u000a        (NP\u000a          (NP (NN respect))\u000a          (PP (TO to)\u000a            (NP (NN disability) (NNS rights))))))\u000a    (. .)))
p4877
ssg10
I14
sg36
g4
sg37
(dp4878
sg39
(dp4879
g4753
(lp4880
g3030
ag3040
ag3050
ag3060
ag3070
ag3080
ag3090
ag3100
ag3110
ag3120
ag3130
ag3140
ag3150
ag3160
ag3170
ag3180
ag3190
ag3200
ag3210
ag3220
ag3230
assg41
I1779
sg42
g4741
sg43
g4741
sg44
I299
sg45
V\u000a\u000aUK law draws a distinction between Equality of Provision and Equality of Outcome, particularly in respect to disability rights.
p4881
sg47
I320
sg48
I1906
sbag0
(g23
g2
Ntp4882
Rp4883
(dp4884
g27
(dp4885
g4747
g4748
sg35
I15
sg4749
V(ROOT\u000a  (S\u000a    (NP\u000a      (NP (DT The) (NNP Disability) (NNP Discrimination) (NNP Act) (CD 1995))\u000a      (CC and)\u000a      (NP (DT the) (NNP Equality) (NNP Act) (CD 2010)))\u000a    (VP (VB make)\u000a      (S\u000a        (NP (PRP it))\u000a        (ADJP (JJ clear)))\u000a      (SBAR (IN that)\u000a        (S\u000a          (S\u000a            (VP (VBG treating)\u000a              (NP (CD two) (NNS people))))\u000a          (ADVP (RB identically))\u000a          (VP (MD may) (RB not)\u000a            (VP (VB be)\u000a              (ADJP (JJ sufficient)\u000a                (S\u000a                  (VP (TO to)\u000a                    (VP (VB guarantee)\u000a                      (SBAR (IN that)\u000a                        (S\u000a                          (NP (PRP they))\u000a                          (VP (VBP have)\u000a                            (VP (VBN been)\u000a                              (VP (VBN treated)\u000a                                (ADVP (RB equally))\u000a                                (PP (IN in)\u000a                                  (NP (NN law))))))))))))\u000a              (SBAR (IN if)\u000a                (S\u000a                  (NP\u000a                    (NP (DT the) (NN task))\u000a                    (, ,)\u000a                    (NP (JJ physical) (NN environment))\u000a                    (CC or)\u000a                    (NP (NN service)))\u000a                  (VP (VBZ does) (RB not)\u000a                    (VP (VB offer)\u000a                      (NP (PRP them))\u000a                      (NP\u000a                        (NP (NN equality))\u000a                        (PP (IN of)\u000a                          (NP (NN outcome)))))))))))))\u000a    (. .)))
p4886
ssg10
I15
sg36
g4
sg37
(dp4887
sg39
(dp4888
g4753
(lp4889
g3240
ag3250
ag3260
ag3270
ag3280
ag3290
ag3300
ag3310
ag3320
ag3330
ag3340
ag3350
ag3360
ag3370
ag3380
ag3390
ag3400
ag3410
ag3420
ag3430
ag3440
ag3450
ag3460
ag3470
ag3480
ag3490
ag3500
ag3510
ag3520
ag3530
ag3540
ag3550
ag3560
ag3570
ag3580
ag3590
ag3600
ag3610
ag3620
ag3630
ag3640
ag3650
ag3660
ag3670
ag3680
ag3690
ag3700
ag3710
assg41
I1907
sg42
g4741
sg43
g4741
sg44
I320
sg45
V The Disability Discrimination Act 1995 and the Equality Act 2010 make it clear that treating two people identically may not be sufficient to guarantee that they have been treated equally in law if the task, physical environment or service does not offer them equality of outcome.
p4890
sg47
I368
sg48
I2186
sbag0
(g23
g2
Ntp4891
Rp4892
(dp4893
g27
(dp4894
g4747
g4748
sg35
I16
sg4749
V(ROOT\u000a  (S\u000a    (NP (DT The) (NN law))\u000a    (VP (VBZ provides)\u000a      (PP (IN for)\u000a        (NP (JJ disabled) (NNS people)))\u000a      (S\u000a        (VP (TO to)\u000a          (VP (VB request)\u000a            (NP\u000a              (NP (DT the) (NN provision))\u000a              (PP (IN of) (`` `)\u000a                (NP\u000a                  (NP (JJ reasonable) (NNS adjustments) (POS '))\u000a                  (SBAR\u000a                    (S\u000a                      (VP (TO to)\u000a                        (VP (VB ensure)\u000a                          (SBAR (IN that)\u000a                            (S\u000a                              (NP (PRP they))\u000a                              (VP (VBP are)\u000a                                (ADJP (JJ able)\u000a                                  (PP (TO to)\u000a                                    (NP\u000a                                      (NP (NN access) (NN employment))\u000a                                      (, ,)\u000a                                      (NP (NNS services))\u000a                                      (CC and)\u000a                                      (NP\u000a                                        (NP (DT the)\u000a                                          (ADJP (VBN built))\u000a                                          (NN environment))\u000a                                        (PP (IN with)\u000a                                          (NP\u000a                                            (NP (DT the) (JJ same) (NN potential))\u000a                                            (PP (IN as)\u000a                                              (NP (JJ non-disabled) (NNS people)))))))))))))))))))))))\u000a    (. .)))
p4895
ssg10
I16
sg36
g4
sg37
(dp4896
sg39
(dp4897
g4753
(lp4898
g3720
ag3730
ag3740
ag3750
ag3760
ag3770
ag3780
ag3790
ag3800
ag3810
ag3820
ag3830
ag3840
ag3850
ag3860
ag3870
ag3880
ag3890
ag3900
ag3910
ag3920
ag3930
ag3940
ag3950
ag3960
ag3970
ag3980
ag3990
ag4000
ag4010
ag4020
ag4030
ag4040
ag4050
ag4060
ag4070
ag4080
ag4090
assg41
I2187
sg42
g4741
sg43
g4741
sg44
I368
sg45
V The law provides for disabled people to request the provision of 'reasonable adjustments' to ensure that they are able to access employment, services and the built environment with the same potential as non-disabled people.
p4899
sg47
I406
sg48
I2410
sbag0
(g23
g2
Ntp4900
Rp4901
(dp4902
g27
(dp4903
g4747
g4748
sg35
I17
sg4749
V(X (IN In) (NNP November) (CD 2007) (, ,) (NNP David) (NNP Rosin) (, ,) (DT a) (JJ former) (NN vice-president) (IN of) (DT the) (NNP Royal) (NNP College) (IN of) (NNPS Surgeons) (VBD wrote) (IN in) (DT the) (NN magazine) (NNP Hospital) (NNP Doctor) (: :) (`` ``) (PRP It) (VBZ is) (NN time) (IN that) (NN someone) (VBD spoke) (RP up) (VBG concerning) (DT the) (JJ reverse) (NN discrimination) (IN with) (NN respect) (TO to) (NN merit) (NNS awards) ('' '')\u000a  (CC and)\u000a  (VBG saying) (IN that) (`` ``) (JJ female)\u000a  (CC and)\u000a  (JJ ethnic) (NN minority) (NNS consultants) (VBP are) (VBG being) (VBN given) (JJ preferential) (NN treatment) (TO to) (VB meet) (JJ artificial) (NNS quotas) ('' '') (-LRB- -LSB-) (NN REF) (-RRB- -RSB-) (. .))
p4904
ssg10
I17
sg36
g4
sg37
(dp4905
sg39
(dp4906
g4753
(lp4907
g4100
ag4110
ag4120
ag4130
ag4140
ag4150
ag4160
ag4170
ag4180
ag4190
ag4200
ag4210
ag4220
ag4230
ag4240
ag4250
ag4260
ag4270
ag4280
ag4290
ag4300
ag4310
ag4320
ag4330
ag4340
ag4350
ag4360
ag4370
ag4380
ag4390
ag4400
ag4410
ag4420
ag4430
ag4440
ag4450
ag4460
ag4470
ag4480
ag4490
ag4500
ag4510
ag4520
ag4530
ag4540
ag4550
ag4560
ag4570
ag4580
ag4590
ag4600
ag4610
ag4620
ag4630
ag4640
ag4650
ag4660
ag4670
ag4680
ag4690
ag4699
ag4709
ag4719
ag4729
assg41
I2412
sg42
g4741
sg43
g4741
sg44
I406
sg45
V \u000aIn November 2007, David Rosin, a former vice-president of the Royal College of Surgeons wrote in the magazine Hospital Doctor: \u201cIt is time that someone spoke up concerning the reverse discrimination with respect to merit awards\u201d and saying that "female and ethnic minority consultants are being given preferential treatment to meet artificial quotas" [REF].
p4908
sg47
I470
sg48
I2769
sbassg37
(dp4909
sg39
(dp4910
sg47
I-1
sg4753
g22
sg42
g4738
sg36
Nsg27
(dp4911
sg44
I0
sg45
VReverse discrimination is a term referring to discrimination against members of a dominant or majority group, including the city or state, or in favor of members of a minority or historically disadvantaged group. Groups may be defined in terms of race, gender, ethnicity, or other factors. This discrimination may seek to redress social inequalities where minority groups have been denied access to the same privileges of the majority group. In such cases it is intended to remove discrimination that minority groups may already face. Reverse discrimination may also be used to highlight the discrimination inherent in affirmative action programs. \u000a\u000aThe law in some countries, such as the UK, draws a distinction between Equality of Provision and Equality of Outcome, recognising that identical treatment may sometimes act to preserve inequality rather than eliminate it. Opponents of this distinction may label it as an example of positive discrimination.\u000a\u000aIn India, among the limited positions for higher education, 50 percent are reserved. Reserved category candidates can select a position from the Open 50 percent if he or she has good merit. This results in further reverse discrimination of Open/General/Non Reserved candidates. Further, since there are no economic criteria in classifying Reservation, poorer sections of reserved class often remain poor whereas the affluent section reap benefits for successive generations. Also, the poorer sections of Open/General Category become devoid of access to higher education for even slightly low merit on competitive exams. The difference in merit on entrance exams is often very wide between the reserved and unreserved classes. In India, the term is often used by citizens protesting against reservation and quotas [REF].\u000a\u000aUK law draws a distinction between Equality of Provision and Equality of Outcome, particularly in respect to disability rights. The Disability Discrimination Act 1995 and the Equality Act 2010 make it clear that treating two people identically may not be sufficient to guarantee that they have been treated equally in law if the task, physical environment or service does not offer them equality of outcome. The law provides for disabled people to request the provision of 'reasonable adjustments' to ensure that they are able to access employment, services and the built environment with the same potential as non-disabled people. \u000aIn November 2007, David Rosin, a former vice-president of the Royal College of Surgeons wrote in the magazine Hospital Doctor: \u201cIt is time that someone spoke up concerning the reverse discrimination with respect to merit awards\u201d and saying that "female and ethnic minority consultants are being given preferential treatment to meet artificial quotas" [REF].
p4912
sS'sents'
p4913
g4742
sg43
g4738
sg41
I0
sS'id'
p4914
g16
sg48
I2769
sS'sentFeatures'
p4915
(lp4916
sb.