ccopy_reg
_reconstructor
p0
(cpygate.doc
Document
p1
c__builtin__
object
p2
Ntp3
Rp4
(dp5
S'src'
p6
VThe stability-instability paradox is an international relations theory regarding the effect of nuclear weapons and mutually assured destruction. It states that when two countries each have nuclear weapons, the probability of a direct war between them greatly decreases, but the probability of minor or indirect conflicts between them increases. This occurs because rational actors want to avoid nuclear wars, and thus they neither start major conflicts nor allow minor conflicts to escalate into major conflicts\u2014thus making it safe to engage in minor conflicts. For instance, during the Cold War the United States and the Soviet Union never engaged each other in warfare, but fought proxy wars in Korea, Vietnam, and Afghanistan and spent substantial amounts of money and manpower on gaining relative influence over the third world [REF]. \u000a\u000aMore recently this effect can be seen in the India-Pakistan relationship. \u000a\u000aThus, nuclear weapons have the potential to cause both stability and instability.
p7
sS'string'
p8
S'The stability-instability paradox is an international relations theory regarding the effect of nuclear weapons and mutually assured destruction. It states that when two countries each have nuclear weapons, the probability of a direct war between them greatly decreases, but the probability of minor or indirect conflicts between them increases. This occurs because rational actors want to avoid nuclear wars, and thus they neither start major conflicts nor allow minor conflicts to escalate into major conflicts\xe2\x80\x94thus making it safe to engage in minor conflicts. For instance, during the Cold War the United States and the Soviet Union never engaged each other in warfare, but fought proxy wars in Korea, Vietnam, and Afghanistan and spent substantial amounts of money and manpower on gaining relative influence over the third world [REF]. \n\nMore recently this effect can be seen in the India-Pakistan relationship. \n\nThus, nuclear weapons have the potential to cause both stability and instability.'
p9
sS'idx'
p10
I0
sS'tknFeatures'
p11
(lp12
sS'docFeatures'
p13
(dp14
S'file_id'
p15
S'Stability-instability_paradox'
p16
ssS'items'
p17
(dp18
S'raw'
p19
VThe stability-instability paradox is an international relations theory regarding the effect of nuclear weapons and mutually assured destruction. It states that when two countries each have nuclear weapons, the probability of a direct war between them greatly decreases, but the probability of minor or indirect conflicts between them increases. This occurs because rational actors want to avoid nuclear wars, and thus they neither start major conflicts nor allow minor conflicts to escalate into major conflicts\u2014thus making it safe to engage in minor conflicts. For instance, during the Cold War the United States and the Soviet Union never engaged each other in warfare, but fought proxy wars in Korea, Vietnam, and Afghanistan and spent substantial amounts of money and manpower on gaining relative influence over the third world [REF]. \u000a\u000aMore recently this effect can be seen in the India-Pakistan relationship. \u000a\u000aThus, nuclear weapons have the potential to cause both stability and instability.
p20
sS'Token'
p21
(lp22
g0
(cpygate.annotation
Annotation
p23
g2
Ntp24
Rp25
(dp26
S'features'
p27
(dp28
S'lemma'
p29
Vthe
p30
sS'ner'
p31
VO
p32
sS'pos'
p33
VDT
p34
sS'index'
p35
I1
ssg10
I0
sS'doc'
p36
g4
sS'labels'
p37
(dp38
sS'relations'
p39
(dp40
sS'cStart'
p41
I0
sS'subType'
p42
g21
sS'annoType'
p43
g21
sS'tStart'
p44
I0
sS'text'
p45
VThe
p46
sS'tEnd'
p47
I0
sS'cEnd'
p48
I3
sbag0
(g23
g2
Ntp49
Rp50
(dp51
g27
(dp52
g29
Vstability-instability
p53
sg31
VO
p54
sg33
VJJ
p55
sg35
I2
ssg10
I1
sg36
g4
sg37
(dp56
sg39
(dp57
sg41
I4
sg42
g21
sg43
g21
sg44
I1
sg45
Vstability-instability
p58
sg47
I1
sg48
I25
sbag0
(g23
g2
Ntp59
Rp60
(dp61
g27
(dp62
g29
Vparadox
p63
sg31
VO
p64
sg33
VNN
p65
sg35
I3
ssg10
I2
sg36
g4
sg37
(dp66
sg39
(dp67
sg41
I26
sg42
g21
sg43
g21
sg44
I2
sg45
Vparadox
p68
sg47
I2
sg48
I33
sbag0
(g23
g2
Ntp69
Rp70
(dp71
g27
(dp72
g29
Vbe
p73
sg31
VO
p74
sg33
VVBZ
p75
sg35
I4
ssg10
I3
sg36
g4
sg37
(dp76
sg39
(dp77
sg41
I34
sg42
g21
sg43
g21
sg44
I3
sg45
Vis
p78
sg47
I3
sg48
I36
sbag0
(g23
g2
Ntp79
Rp80
(dp81
g27
(dp82
g29
Va
p83
sg31
VO
p84
sg33
VDT
p85
sg35
I5
ssg10
I4
sg36
g4
sg37
(dp86
sg39
(dp87
sg41
I37
sg42
g21
sg43
g21
sg44
I4
sg45
Van
p88
sg47
I4
sg48
I39
sbag0
(g23
g2
Ntp89
Rp90
(dp91
g27
(dp92
g29
Vinternational
p93
sg31
VO
p94
sg33
VJJ
p95
sg35
I6
ssg10
I5
sg36
g4
sg37
(dp96
sg39
(dp97
sg41
I40
sg42
g21
sg43
g21
sg44
I5
sg45
Vinternational
p98
sg47
I5
sg48
I53
sbag0
(g23
g2
Ntp99
Rp100
(dp101
g27
(dp102
g29
Vrelation
p103
sg31
VO
p104
sg33
VNNS
p105
sg35
I7
ssg10
I6
sg36
g4
sg37
(dp106
sg39
(dp107
sg41
I54
sg42
g21
sg43
g21
sg44
I6
sg45
Vrelations
p108
sg47
I6
sg48
I63
sbag0
(g23
g2
Ntp109
Rp110
(dp111
g27
(dp112
g29
Vtheory
p113
sg31
VO
p114
sg33
VNN
p115
sg35
I8
ssg10
I7
sg36
g4
sg37
(dp116
sg39
(dp117
sg41
I64
sg42
g21
sg43
g21
sg44
I7
sg45
Vtheory
p118
sg47
I7
sg48
I70
sbag0
(g23
g2
Ntp119
Rp120
(dp121
g27
(dp122
g29
Vregard
p123
sg31
VO
p124
sg33
VVBG
p125
sg35
I9
ssg10
I8
sg36
g4
sg37
(dp126
sg39
(dp127
sg41
I71
sg42
g21
sg43
g21
sg44
I8
sg45
Vregarding
p128
sg47
I8
sg48
I80
sbag0
(g23
g2
Ntp129
Rp130
(dp131
g27
(dp132
g29
Vthe
p133
sg31
VO
p134
sg33
VDT
p135
sg35
I10
ssg10
I9
sg36
g4
sg37
(dp136
sg39
(dp137
sg41
I81
sg42
g21
sg43
g21
sg44
I9
sg45
Vthe
p138
sg47
I9
sg48
I84
sbag0
(g23
g2
Ntp139
Rp140
(dp141
g27
(dp142
g29
Veffect
p143
sg31
VO
p144
sg33
VNN
p145
sg35
I11
ssg10
I10
sg36
g4
sg37
(dp146
sg39
(dp147
sg41
I85
sg42
g21
sg43
g21
sg44
I10
sg45
Veffect
p148
sg47
I10
sg48
I91
sbag0
(g23
g2
Ntp149
Rp150
(dp151
g27
(dp152
g29
Vof
p153
sg31
VO
p154
sg33
VIN
p155
sg35
I12
ssg10
I11
sg36
g4
sg37
(dp156
sg39
(dp157
sg41
I92
sg42
g21
sg43
g21
sg44
I11
sg45
Vof
p158
sg47
I11
sg48
I94
sbag0
(g23
g2
Ntp159
Rp160
(dp161
g27
(dp162
g29
Vnuclear
p163
sg31
VO
p164
sg33
VJJ
p165
sg35
I13
ssg10
I12
sg36
g4
sg37
(dp166
sg39
(dp167
sg41
I95
sg42
g21
sg43
g21
sg44
I12
sg45
Vnuclear
p168
sg47
I12
sg48
I102
sbag0
(g23
g2
Ntp169
Rp170
(dp171
g27
(dp172
g29
Vweapon
p173
sg31
VO
p174
sg33
VNNS
p175
sg35
I14
ssg10
I13
sg36
g4
sg37
(dp176
sg39
(dp177
sg41
I103
sg42
g21
sg43
g21
sg44
I13
sg45
Vweapons
p178
sg47
I13
sg48
I110
sbag0
(g23
g2
Ntp179
Rp180
(dp181
g27
(dp182
g29
Vand
p183
sg31
VO
p184
sg33
VCC
p185
sg35
I15
ssg10
I14
sg36
g4
sg37
(dp186
sg39
(dp187
sg41
I111
sg42
g21
sg43
g21
sg44
I14
sg45
Vand
p188
sg47
I14
sg48
I114
sbag0
(g23
g2
Ntp189
Rp190
(dp191
g27
(dp192
g29
Vmutually
p193
sg31
VO
p194
sg33
VRB
p195
sg35
I16
ssg10
I15
sg36
g4
sg37
(dp196
sg39
(dp197
sg41
I115
sg42
g21
sg43
g21
sg44
I15
sg45
Vmutually
p198
sg47
I15
sg48
I123
sbag0
(g23
g2
Ntp199
Rp200
(dp201
g27
(dp202
g29
Vassure
p203
sg31
VO
p204
sg33
VVBN
p205
sg35
I17
ssg10
I16
sg36
g4
sg37
(dp206
sg39
(dp207
sg41
I124
sg42
g21
sg43
g21
sg44
I16
sg45
Vassured
p208
sg47
I16
sg48
I131
sbag0
(g23
g2
Ntp209
Rp210
(dp211
g27
(dp212
g29
Vdestruction
p213
sg31
VO
p214
sg33
VNN
p215
sg35
I18
ssg10
I17
sg36
g4
sg37
(dp216
sg39
(dp217
sg41
I132
sg42
g21
sg43
g21
sg44
I17
sg45
Vdestruction
p218
sg47
I17
sg48
I143
sbag0
(g23
g2
Ntp219
Rp220
(dp221
g27
(dp222
g29
V.
p223
sg31
VO
p224
sg33
V.
p225
sg35
I19
ssg10
I18
sg36
g4
sg37
(dp226
sg39
(dp227
sg41
I143
sg42
g21
sg43
g21
sg44
I18
sg45
V.
p228
sg47
I18
sg48
I144
sbag0
(g23
g2
Ntp229
Rp230
(dp231
g27
(dp232
g29
Vit
p233
sg31
VO
p234
sg33
VPRP
p235
sg35
I1
ssg10
I19
sg36
g4
sg37
(dp236
sg39
(dp237
sg41
I145
sg42
g21
sg43
g21
sg44
I19
sg45
VIt
p238
sg47
I19
sg48
I147
sbag0
(g23
g2
Ntp239
Rp240
(dp241
g27
(dp242
g29
Vstate
p243
sg31
VO
p244
sg33
VVBZ
p245
sg35
I2
ssg10
I20
sg36
g4
sg37
(dp246
sg39
(dp247
sg41
I148
sg42
g21
sg43
g21
sg44
I20
sg45
Vstates
p248
sg47
I20
sg48
I154
sbag0
(g23
g2
Ntp249
Rp250
(dp251
g27
(dp252
g29
Vthat
p253
sg31
VO
p254
sg33
VIN
p255
sg35
I3
ssg10
I21
sg36
g4
sg37
(dp256
sg39
(dp257
sg41
I155
sg42
g21
sg43
g21
sg44
I21
sg45
Vthat
p258
sg47
I21
sg48
I159
sbag0
(g23
g2
Ntp259
Rp260
(dp261
g27
(dp262
g29
Vwhen
p263
sg31
VO
p264
sg33
VWRB
p265
sg35
I4
ssg10
I22
sg36
g4
sg37
(dp266
sg39
(dp267
sg41
I160
sg42
g21
sg43
g21
sg44
I22
sg45
Vwhen
p268
sg47
I22
sg48
I164
sbag0
(g23
g2
Ntp269
Rp270
(dp271
g27
(dp272
g29
Vtwo
p273
sg31
VNUMBER
p274
sg33
VCD
p275
sg35
I5
ssg10
I23
sg36
g4
sg37
(dp276
sg39
(dp277
sg41
I165
sg42
g21
sg43
g21
sg44
I23
sg45
Vtwo
p278
sg47
I23
sg48
I168
sbag0
(g23
g2
Ntp279
Rp280
(dp281
g27
(dp282
g29
Vcountry
p283
sg31
VO
p284
sg33
VNNS
p285
sg35
I6
ssg10
I24
sg36
g4
sg37
(dp286
sg39
(dp287
sg41
I169
sg42
g21
sg43
g21
sg44
I24
sg45
Vcountries
p288
sg47
I24
sg48
I178
sbag0
(g23
g2
Ntp289
Rp290
(dp291
g27
(dp292
g29
Veach
p293
sg31
VO
p294
sg33
VDT
p295
sg35
I7
ssg10
I25
sg36
g4
sg37
(dp296
sg39
(dp297
sg41
I179
sg42
g21
sg43
g21
sg44
I25
sg45
Veach
p298
sg47
I25
sg48
I183
sbag0
(g23
g2
Ntp299
Rp300
(dp301
g27
(dp302
g29
Vhave
p303
sg31
VO
p304
sg33
VVBP
p305
sg35
I8
ssg10
I26
sg36
g4
sg37
(dp306
sg39
(dp307
sg41
I184
sg42
g21
sg43
g21
sg44
I26
sg45
Vhave
p308
sg47
I26
sg48
I188
sbag0
(g23
g2
Ntp309
Rp310
(dp311
g27
(dp312
g29
Vnuclear
p313
sg31
VO
p314
sg33
VJJ
p315
sg35
I9
ssg10
I27
sg36
g4
sg37
(dp316
sg39
(dp317
sg41
I189
sg42
g21
sg43
g21
sg44
I27
sg45
Vnuclear
p318
sg47
I27
sg48
I196
sbag0
(g23
g2
Ntp319
Rp320
(dp321
g27
(dp322
g29
Vweapon
p323
sg31
VO
p324
sg33
VNNS
p325
sg35
I10
ssg10
I28
sg36
g4
sg37
(dp326
sg39
(dp327
sg41
I197
sg42
g21
sg43
g21
sg44
I28
sg45
Vweapons
p328
sg47
I28
sg48
I204
sbag0
(g23
g2
Ntp329
Rp330
(dp331
g27
(dp332
g29
V,
p333
sg31
VO
p334
sg33
V,
p335
sg35
I11
ssg10
I29
sg36
g4
sg37
(dp336
sg39
(dp337
sg41
I204
sg42
g21
sg43
g21
sg44
I29
sg45
V,
p338
sg47
I29
sg48
I205
sbag0
(g23
g2
Ntp339
Rp340
(dp341
g27
(dp342
g29
Vthe
p343
sg31
VO
p344
sg33
VDT
p345
sg35
I12
ssg10
I30
sg36
g4
sg37
(dp346
sg39
(dp347
sg41
I206
sg42
g21
sg43
g21
sg44
I30
sg45
Vthe
p348
sg47
I30
sg48
I209
sbag0
(g23
g2
Ntp349
Rp350
(dp351
g27
(dp352
g29
Vprobability
p353
sg31
VO
p354
sg33
VNN
p355
sg35
I13
ssg10
I31
sg36
g4
sg37
(dp356
sg39
(dp357
sg41
I210
sg42
g21
sg43
g21
sg44
I31
sg45
Vprobability
p358
sg47
I31
sg48
I221
sbag0
(g23
g2
Ntp359
Rp360
(dp361
g27
(dp362
g29
Vof
p363
sg31
VO
p364
sg33
VIN
p365
sg35
I14
ssg10
I32
sg36
g4
sg37
(dp366
sg39
(dp367
sg41
I222
sg42
g21
sg43
g21
sg44
I32
sg45
Vof
p368
sg47
I32
sg48
I224
sbag0
(g23
g2
Ntp369
Rp370
(dp371
g27
(dp372
g29
Va
p373
sg31
VO
p374
sg33
VDT
p375
sg35
I15
ssg10
I33
sg36
g4
sg37
(dp376
sg39
(dp377
sg41
I225
sg42
g21
sg43
g21
sg44
I33
sg45
Va
p378
sg47
I33
sg48
I226
sbag0
(g23
g2
Ntp379
Rp380
(dp381
g27
(dp382
g29
Vdirect
p383
sg31
VO
p384
sg33
VJJ
p385
sg35
I16
ssg10
I34
sg36
g4
sg37
(dp386
sg39
(dp387
sg41
I227
sg42
g21
sg43
g21
sg44
I34
sg45
Vdirect
p388
sg47
I34
sg48
I233
sbag0
(g23
g2
Ntp389
Rp390
(dp391
g27
(dp392
g29
Vwar
p393
sg31
VO
p394
sg33
VNN
p395
sg35
I17
ssg10
I35
sg36
g4
sg37
(dp396
sg39
(dp397
sg41
I234
sg42
g21
sg43
g21
sg44
I35
sg45
Vwar
p398
sg47
I35
sg48
I237
sbag0
(g23
g2
Ntp399
Rp400
(dp401
g27
(dp402
g29
Vbetween
p403
sg31
VO
p404
sg33
VIN
p405
sg35
I18
ssg10
I36
sg36
g4
sg37
(dp406
sg39
(dp407
sg41
I238
sg42
g21
sg43
g21
sg44
I36
sg45
Vbetween
p408
sg47
I36
sg48
I245
sbag0
(g23
g2
Ntp409
Rp410
(dp411
g27
(dp412
g29
Vthey
p413
sg31
VO
p414
sg33
VPRP
p415
sg35
I19
ssg10
I37
sg36
g4
sg37
(dp416
sg39
(dp417
sg41
I246
sg42
g21
sg43
g21
sg44
I37
sg45
Vthem
p418
sg47
I37
sg48
I250
sbag0
(g23
g2
Ntp419
Rp420
(dp421
g27
(dp422
g29
Vgreatly
p423
sg31
VO
p424
sg33
VRB
p425
sg35
I20
ssg10
I38
sg36
g4
sg37
(dp426
sg39
(dp427
sg41
I251
sg42
g21
sg43
g21
sg44
I38
sg45
Vgreatly
p428
sg47
I38
sg48
I258
sbag0
(g23
g2
Ntp429
Rp430
(dp431
g27
(dp432
g29
Vdecrease
p433
sg31
VO
p434
sg33
VVBZ
p435
sg35
I21
ssg10
I39
sg36
g4
sg37
(dp436
sg39
(dp437
sg41
I259
sg42
g21
sg43
g21
sg44
I39
sg45
Vdecreases
p438
sg47
I39
sg48
I268
sbag0
(g23
g2
Ntp439
Rp440
(dp441
g27
(dp442
g29
V,
p443
sg31
VO
p444
sg33
V,
p445
sg35
I22
ssg10
I40
sg36
g4
sg37
(dp446
sg39
(dp447
sg41
I268
sg42
g21
sg43
g21
sg44
I40
sg45
V,
p448
sg47
I40
sg48
I269
sbag0
(g23
g2
Ntp449
Rp450
(dp451
g27
(dp452
g29
Vbut
p453
sg31
VO
p454
sg33
VCC
p455
sg35
I23
ssg10
I41
sg36
g4
sg37
(dp456
sg39
(dp457
sg41
I270
sg42
g21
sg43
g21
sg44
I41
sg45
Vbut
p458
sg47
I41
sg48
I273
sbag0
(g23
g2
Ntp459
Rp460
(dp461
g27
(dp462
g29
Vthe
p463
sg31
VO
p464
sg33
VDT
p465
sg35
I24
ssg10
I42
sg36
g4
sg37
(dp466
sg39
(dp467
sg41
I274
sg42
g21
sg43
g21
sg44
I42
sg45
Vthe
p468
sg47
I42
sg48
I277
sbag0
(g23
g2
Ntp469
Rp470
(dp471
g27
(dp472
g29
Vprobability
p473
sg31
VO
p474
sg33
VNN
p475
sg35
I25
ssg10
I43
sg36
g4
sg37
(dp476
sg39
(dp477
sg41
I278
sg42
g21
sg43
g21
sg44
I43
sg45
Vprobability
p478
sg47
I43
sg48
I289
sbag0
(g23
g2
Ntp479
Rp480
(dp481
g27
(dp482
g29
Vof
p483
sg31
VO
p484
sg33
VIN
p485
sg35
I26
ssg10
I44
sg36
g4
sg37
(dp486
sg39
(dp487
sg41
I290
sg42
g21
sg43
g21
sg44
I44
sg45
Vof
p488
sg47
I44
sg48
I292
sbag0
(g23
g2
Ntp489
Rp490
(dp491
g27
(dp492
g29
Vminor
p493
sg31
VO
p494
sg33
VJJ
p495
sg35
I27
ssg10
I45
sg36
g4
sg37
(dp496
sg39
(dp497
sg41
I293
sg42
g21
sg43
g21
sg44
I45
sg45
Vminor
p498
sg47
I45
sg48
I298
sbag0
(g23
g2
Ntp499
Rp500
(dp501
g27
(dp502
g29
Vor
p503
sg31
VO
p504
sg33
VCC
p505
sg35
I28
ssg10
I46
sg36
g4
sg37
(dp506
sg39
(dp507
sg41
I296
sg42
g21
sg43
g21
sg44
I46
sg45
Vor
p508
sg47
I46
sg48
I298
sbag0
(g23
g2
Ntp509
Rp510
(dp511
g27
(dp512
g29
Vindirect
p513
sg31
VO
p514
sg33
VJJ
p515
sg35
I29
ssg10
I47
sg36
g4
sg37
(dp516
sg39
(dp517
sg41
I302
sg42
g21
sg43
g21
sg44
I47
sg45
Vindirect
p518
sg47
I47
sg48
I310
sbag0
(g23
g2
Ntp519
Rp520
(dp521
g27
(dp522
g29
Vconflict
p523
sg31
VO
p524
sg33
VNNS
p525
sg35
I30
ssg10
I48
sg36
g4
sg37
(dp526
sg39
(dp527
sg41
I311
sg42
g21
sg43
g21
sg44
I48
sg45
Vconflicts
p528
sg47
I48
sg48
I320
sbag0
(g23
g2
Ntp529
Rp530
(dp531
g27
(dp532
g29
Vbetween
p533
sg31
VO
p534
sg33
VIN
p535
sg35
I31
ssg10
I49
sg36
g4
sg37
(dp536
sg39
(dp537
sg41
I321
sg42
g21
sg43
g21
sg44
I49
sg45
Vbetween
p538
sg47
I49
sg48
I328
sbag0
(g23
g2
Ntp539
Rp540
(dp541
g27
(dp542
g29
Vthey
p543
sg31
VO
p544
sg33
VPRP
p545
sg35
I32
ssg10
I50
sg36
g4
sg37
(dp546
sg39
(dp547
sg41
I329
sg42
g21
sg43
g21
sg44
I50
sg45
Vthem
p548
sg47
I50
sg48
I333
sbag0
(g23
g2
Ntp549
Rp550
(dp551
g27
(dp552
g29
Vincrease
p553
sg31
VO
p554
sg33
VVBZ
p555
sg35
I33
ssg10
I51
sg36
g4
sg37
(dp556
sg39
(dp557
sg41
I334
sg42
g21
sg43
g21
sg44
I51
sg45
Vincreases
p558
sg47
I51
sg48
I343
sbag0
(g23
g2
Ntp559
Rp560
(dp561
g27
(dp562
g29
V.
p563
sg31
VO
p564
sg33
V.
p565
sg35
I34
ssg10
I52
sg36
g4
sg37
(dp566
sg39
(dp567
sg41
I343
sg42
g21
sg43
g21
sg44
I52
sg45
V.
p568
sg47
I52
sg48
I344
sbag0
(g23
g2
Ntp569
Rp570
(dp571
g27
(dp572
g29
Vthis
p573
sg31
VO
p574
sg33
VDT
p575
sg35
I1
ssg10
I53
sg36
g4
sg37
(dp576
sg39
(dp577
sg41
I345
sg42
g21
sg43
g21
sg44
I53
sg45
VThis
p578
sg47
I53
sg48
I349
sbag0
(g23
g2
Ntp579
Rp580
(dp581
g27
(dp582
g29
Voccur
p583
sg31
VO
p584
sg33
VVBZ
p585
sg35
I2
ssg10
I54
sg36
g4
sg37
(dp586
sg39
(dp587
sg41
I350
sg42
g21
sg43
g21
sg44
I54
sg45
Voccurs
p588
sg47
I54
sg48
I356
sbag0
(g23
g2
Ntp589
Rp590
(dp591
g27
(dp592
g29
Vbecause
p593
sg31
VO
p594
sg33
VIN
p595
sg35
I3
ssg10
I55
sg36
g4
sg37
(dp596
sg39
(dp597
sg41
I357
sg42
g21
sg43
g21
sg44
I55
sg45
Vbecause
p598
sg47
I55
sg48
I364
sbag0
(g23
g2
Ntp599
Rp600
(dp601
g27
(dp602
g29
Vrational
p603
sg31
VO
p604
sg33
VJJ
p605
sg35
I4
ssg10
I56
sg36
g4
sg37
(dp606
sg39
(dp607
sg41
I365
sg42
g21
sg43
g21
sg44
I56
sg45
Vrational
p608
sg47
I56
sg48
I373
sbag0
(g23
g2
Ntp609
Rp610
(dp611
g27
(dp612
g29
Vactor
p613
sg31
VO
p614
sg33
VNNS
p615
sg35
I5
ssg10
I57
sg36
g4
sg37
(dp616
sg39
(dp617
sg41
I374
sg42
g21
sg43
g21
sg44
I57
sg45
Vactors
p618
sg47
I57
sg48
I380
sbag0
(g23
g2
Ntp619
Rp620
(dp621
g27
(dp622
g29
Vwant
p623
sg31
VO
p624
sg33
VVBP
p625
sg35
I6
ssg10
I58
sg36
g4
sg37
(dp626
sg39
(dp627
sg41
I381
sg42
g21
sg43
g21
sg44
I58
sg45
Vwant
p628
sg47
I58
sg48
I385
sbag0
(g23
g2
Ntp629
Rp630
(dp631
g27
(dp632
g29
Vto
p633
sg31
VO
p634
sg33
VTO
p635
sg35
I7
ssg10
I59
sg36
g4
sg37
(dp636
sg39
(dp637
sg41
I386
sg42
g21
sg43
g21
sg44
I59
sg45
Vto
p638
sg47
I59
sg48
I388
sbag0
(g23
g2
Ntp639
Rp640
(dp641
g27
(dp642
g29
Vavoid
p643
sg31
VO
p644
sg33
VVB
p645
sg35
I8
ssg10
I60
sg36
g4
sg37
(dp646
sg39
(dp647
sg41
I389
sg42
g21
sg43
g21
sg44
I60
sg45
Vavoid
p648
sg47
I60
sg48
I394
sbag0
(g23
g2
Ntp649
Rp650
(dp651
g27
(dp652
g29
Vnuclear
p653
sg31
VO
p654
sg33
VJJ
p655
sg35
I9
ssg10
I61
sg36
g4
sg37
(dp656
sg39
(dp657
sg41
I395
sg42
g21
sg43
g21
sg44
I61
sg45
Vnuclear
p658
sg47
I61
sg48
I402
sbag0
(g23
g2
Ntp659
Rp660
(dp661
g27
(dp662
g29
Vwar
p663
sg31
VO
p664
sg33
VNNS
p665
sg35
I10
ssg10
I62
sg36
g4
sg37
(dp666
sg39
(dp667
sg41
I403
sg42
g21
sg43
g21
sg44
I62
sg45
Vwars
p668
sg47
I62
sg48
I407
sbag0
(g23
g2
Ntp669
Rp670
(dp671
g27
(dp672
g29
V,
p673
sg31
VO
p674
sg33
V,
p675
sg35
I11
ssg10
I63
sg36
g4
sg37
(dp676
sg39
(dp677
sg41
I407
sg42
g21
sg43
g21
sg44
I63
sg45
V,
p678
sg47
I63
sg48
I408
sbag0
(g23
g2
Ntp679
Rp680
(dp681
g27
(dp682
g29
Vand
p683
sg31
VO
p684
sg33
VCC
p685
sg35
I12
ssg10
I64
sg36
g4
sg37
(dp686
sg39
(dp687
sg41
I409
sg42
g21
sg43
g21
sg44
I64
sg45
Vand
p688
sg47
I64
sg48
I412
sbag0
(g23
g2
Ntp689
Rp690
(dp691
g27
(dp692
g29
Vthus
p693
sg31
VO
p694
sg33
VRB
p695
sg35
I13
ssg10
I65
sg36
g4
sg37
(dp696
sg39
(dp697
sg41
I413
sg42
g21
sg43
g21
sg44
I65
sg45
Vthus
p698
sg47
I65
sg48
I417
sbag0
(g23
g2
Ntp699
Rp700
(dp701
g27
(dp702
g29
Vthey
p703
sg31
VO
p704
sg33
VPRP
p705
sg35
I14
ssg10
I66
sg36
g4
sg37
(dp706
sg39
(dp707
sg41
I418
sg42
g21
sg43
g21
sg44
I66
sg45
Vthey
p708
sg47
I66
sg48
I422
sbag0
(g23
g2
Ntp709
Rp710
(dp711
g27
(dp712
g29
Vneither
p713
sg31
VO
p714
sg33
VDT
p715
sg35
I15
ssg10
I67
sg36
g4
sg37
(dp716
sg39
(dp717
sg41
I423
sg42
g21
sg43
g21
sg44
I67
sg45
Vneither
p718
sg47
I67
sg48
I430
sbag0
(g23
g2
Ntp719
Rp720
(dp721
g27
(dp722
g29
Vstart
p723
sg31
VO
p724
sg33
VNN
p725
sg35
I16
ssg10
I68
sg36
g4
sg37
(dp726
sg39
(dp727
sg41
I431
sg42
g21
sg43
g21
sg44
I68
sg45
Vstart
p728
sg47
I68
sg48
I436
sbag0
(g23
g2
Ntp729
Rp730
(dp731
g27
(dp732
g29
Vmajor
p733
sg31
VO
p734
sg33
VJJ
p735
sg35
I17
ssg10
I69
sg36
g4
sg37
(dp736
sg39
(dp737
sg41
I437
sg42
g21
sg43
g21
sg44
I69
sg45
Vmajor
p738
sg47
I69
sg48
I442
sbag0
(g23
g2
Ntp739
Rp740
(dp741
g27
(dp742
g29
Vconflict
p743
sg31
VO
p744
sg33
VNNS
p745
sg35
I18
ssg10
I70
sg36
g4
sg37
(dp746
sg39
(dp747
sg41
I443
sg42
g21
sg43
g21
sg44
I70
sg45
Vconflicts
p748
sg47
I70
sg48
I452
sbag0
(g23
g2
Ntp749
Rp750
(dp751
g27
(dp752
g29
Vnor
p753
sg31
VO
p754
sg33
VCC
p755
sg35
I19
ssg10
I71
sg36
g4
sg37
(dp756
sg39
(dp757
sg41
I453
sg42
g21
sg43
g21
sg44
I71
sg45
Vnor
p758
sg47
I71
sg48
I456
sbag0
(g23
g2
Ntp759
Rp760
(dp761
g27
(dp762
g29
Vallow
p763
sg31
VO
p764
sg33
VVB
p765
sg35
I20
ssg10
I72
sg36
g4
sg37
(dp766
sg39
(dp767
sg41
I457
sg42
g21
sg43
g21
sg44
I72
sg45
Vallow
p768
sg47
I72
sg48
I462
sbag0
(g23
g2
Ntp769
Rp770
(dp771
g27
(dp772
g29
Vminor
p773
sg31
VO
p774
sg33
VJJ
p775
sg35
I21
ssg10
I73
sg36
g4
sg37
(dp776
sg39
(dp777
sg41
I463
sg42
g21
sg43
g21
sg44
I73
sg45
Vminor
p778
sg47
I73
sg48
I468
sbag0
(g23
g2
Ntp779
Rp780
(dp781
g27
(dp782
g29
Vconflict
p783
sg31
VO
p784
sg33
VNNS
p785
sg35
I22
ssg10
I74
sg36
g4
sg37
(dp786
sg39
(dp787
sg41
I469
sg42
g21
sg43
g21
sg44
I74
sg45
Vconflicts
p788
sg47
I74
sg48
I478
sbag0
(g23
g2
Ntp789
Rp790
(dp791
g27
(dp792
g29
Vto
p793
sg31
VO
p794
sg33
VTO
p795
sg35
I23
ssg10
I75
sg36
g4
sg37
(dp796
sg39
(dp797
sg41
I479
sg42
g21
sg43
g21
sg44
I75
sg45
Vto
p798
sg47
I75
sg48
I481
sbag0
(g23
g2
Ntp799
Rp800
(dp801
g27
(dp802
g29
Vescalate
p803
sg31
VO
p804
sg33
VVB
p805
sg35
I24
ssg10
I76
sg36
g4
sg37
(dp806
sg39
(dp807
sg41
I482
sg42
g21
sg43
g21
sg44
I76
sg45
Vescalate
p808
sg47
I76
sg48
I490
sbag0
(g23
g2
Ntp809
Rp810
(dp811
g27
(dp812
g29
Vinto
p813
sg31
VO
p814
sg33
VIN
p815
sg35
I25
ssg10
I77
sg36
g4
sg37
(dp816
sg39
(dp817
sg41
I491
sg42
g21
sg43
g21
sg44
I77
sg45
Vinto
p818
sg47
I77
sg48
I495
sbag0
(g23
g2
Ntp819
Rp820
(dp821
g27
(dp822
g29
Vmajor
p823
sg31
VO
p824
sg33
VJJ
p825
sg35
I26
ssg10
I78
sg36
g4
sg37
(dp826
sg39
(dp827
sg41
I496
sg42
g21
sg43
g21
sg44
I78
sg45
Vmajor
p828
sg47
I78
sg48
I501
sbag0
(g23
g2
Ntp829
Rp830
(dp831
g27
(dp832
g29
Vconflict
p833
sg31
VO
p834
sg33
VNNS
p835
sg35
I27
ssg10
I79
sg36
g4
sg37
(dp836
sg39
(dp837
sg41
I502
sg42
g21
sg43
g21
sg44
I79
sg45
Vconflicts
p838
sg47
I79
sg48
I511
sbag0
(g23
g2
Ntp839
Rp840
(dp841
g27
(dp842
g29
V--
p843
sg31
VO
p844
sg33
V:
p845
sg35
I28
ssg10
I80
sg36
g4
sg37
(dp846
sg39
(dp847
sg41
I511
sg42
g21
sg43
g21
sg44
I80
sg45
V\u2014
p848
sg47
I80
sg48
I512
sbag0
(g23
g2
Ntp849
Rp850
(dp851
g27
(dp852
g29
Vthus
p853
sg31
VO
p854
sg33
VRB
p855
sg35
I29
ssg10
I81
sg36
g4
sg37
(dp856
sg39
(dp857
sg41
I512
sg42
g21
sg43
g21
sg44
I81
sg45
Vthus
p858
sg47
I81
sg48
I516
sbag0
(g23
g2
Ntp859
Rp860
(dp861
g27
(dp862
g29
Vmake
p863
sg31
VO
p864
sg33
VVBG
p865
sg35
I30
ssg10
I82
sg36
g4
sg37
(dp866
sg39
(dp867
sg41
I517
sg42
g21
sg43
g21
sg44
I82
sg45
Vmaking
p868
sg47
I82
sg48
I523
sbag0
(g23
g2
Ntp869
Rp870
(dp871
g27
(dp872
g29
Vit
p873
sg31
VO
p874
sg33
VPRP
p875
sg35
I31
ssg10
I83
sg36
g4
sg37
(dp876
sg39
(dp877
sg41
I524
sg42
g21
sg43
g21
sg44
I83
sg45
Vit
p878
sg47
I83
sg48
I526
sbag0
(g23
g2
Ntp879
Rp880
(dp881
g27
(dp882
g29
Vsafe
p883
sg31
VO
p884
sg33
VJJ
p885
sg35
I32
ssg10
I84
sg36
g4
sg37
(dp886
sg39
(dp887
sg41
I527
sg42
g21
sg43
g21
sg44
I84
sg45
Vsafe
p888
sg47
I84
sg48
I531
sbag0
(g23
g2
Ntp889
Rp890
(dp891
g27
(dp892
g29
Vto
p893
sg31
VO
p894
sg33
VTO
p895
sg35
I33
ssg10
I85
sg36
g4
sg37
(dp896
sg39
(dp897
sg41
I532
sg42
g21
sg43
g21
sg44
I85
sg45
Vto
p898
sg47
I85
sg48
I534
sbag0
(g23
g2
Ntp899
Rp900
(dp901
g27
(dp902
g29
Vengage
p903
sg31
VO
p904
sg33
VVB
p905
sg35
I34
ssg10
I86
sg36
g4
sg37
(dp906
sg39
(dp907
sg41
I535
sg42
g21
sg43
g21
sg44
I86
sg45
Vengage
p908
sg47
I86
sg48
I541
sbag0
(g23
g2
Ntp909
Rp910
(dp911
g27
(dp912
g29
Vin
p913
sg31
VO
p914
sg33
VIN
p915
sg35
I35
ssg10
I87
sg36
g4
sg37
(dp916
sg39
(dp917
sg41
I542
sg42
g21
sg43
g21
sg44
I87
sg45
Vin
p918
sg47
I87
sg48
I544
sbag0
(g23
g2
Ntp919
Rp920
(dp921
g27
(dp922
g29
Vminor
p923
sg31
VO
p924
sg33
VJJ
p925
sg35
I36
ssg10
I88
sg36
g4
sg37
(dp926
sg39
(dp927
sg41
I545
sg42
g21
sg43
g21
sg44
I88
sg45
Vminor
p928
sg47
I88
sg48
I550
sbag0
(g23
g2
Ntp929
Rp930
(dp931
g27
(dp932
g29
Vconflict
p933
sg31
VO
p934
sg33
VNNS
p935
sg35
I37
ssg10
I89
sg36
g4
sg37
(dp936
sg39
(dp937
sg41
I551
sg42
g21
sg43
g21
sg44
I89
sg45
Vconflicts
p938
sg47
I89
sg48
I560
sbag0
(g23
g2
Ntp939
Rp940
(dp941
g27
(dp942
g29
V.
p943
sg31
VO
p944
sg33
V.
p945
sg35
I38
ssg10
I90
sg36
g4
sg37
(dp946
sg39
(dp947
sg41
I560
sg42
g21
sg43
g21
sg44
I90
sg45
V.
p948
sg47
I90
sg48
I561
sbag0
(g23
g2
Ntp949
Rp950
(dp951
g27
(dp952
g29
Vfor
p953
sg31
VO
p954
sg33
VIN
p955
sg35
I1
ssg10
I91
sg36
g4
sg37
(dp956
sg39
(dp957
sg41
I562
sg42
g21
sg43
g21
sg44
I91
sg45
VFor
p958
sg47
I91
sg48
I565
sbag0
(g23
g2
Ntp959
Rp960
(dp961
g27
(dp962
g29
Vinstance
p963
sg31
VO
p964
sg33
VNN
p965
sg35
I2
ssg10
I92
sg36
g4
sg37
(dp966
sg39
(dp967
sg41
I566
sg42
g21
sg43
g21
sg44
I92
sg45
Vinstance
p968
sg47
I92
sg48
I574
sbag0
(g23
g2
Ntp969
Rp970
(dp971
g27
(dp972
g29
V,
p973
sg31
VO
p974
sg33
V,
p975
sg35
I3
ssg10
I93
sg36
g4
sg37
(dp976
sg39
(dp977
sg41
I574
sg42
g21
sg43
g21
sg44
I93
sg45
V,
p978
sg47
I93
sg48
I575
sbag0
(g23
g2
Ntp979
Rp980
(dp981
g27
(dp982
g29
Vduring
p983
sg31
VO
p984
sg33
VIN
p985
sg35
I4
ssg10
I94
sg36
g4
sg37
(dp986
sg39
(dp987
sg41
I576
sg42
g21
sg43
g21
sg44
I94
sg45
Vduring
p988
sg47
I94
sg48
I582
sbag0
(g23
g2
Ntp989
Rp990
(dp991
g27
(dp992
g29
Vthe
p993
sg31
VO
p994
sg33
VDT
p995
sg35
I5
ssg10
I95
sg36
g4
sg37
(dp996
sg39
(dp997
sg41
I583
sg42
g21
sg43
g21
sg44
I95
sg45
Vthe
p998
sg47
I95
sg48
I586
sbag0
(g23
g2
Ntp999
Rp1000
(dp1001
g27
(dp1002
g29
VCold
p1003
sg31
VMISC
p1004
sg33
VNNP
p1005
sg35
I6
ssg10
I96
sg36
g4
sg37
(dp1006
sg39
(dp1007
sg41
I587
sg42
g21
sg43
g21
sg44
I96
sg45
VCold
p1008
sg47
I96
sg48
I591
sbag0
(g23
g2
Ntp1009
Rp1010
(dp1011
g27
(dp1012
g29
VWar
p1013
sg31
VMISC
p1014
sg33
VNNP
p1015
sg35
I7
ssg10
I97
sg36
g4
sg37
(dp1016
sg39
(dp1017
sg41
I592
sg42
g21
sg43
g21
sg44
I97
sg45
VWar
p1018
sg47
I97
sg48
I595
sbag0
(g23
g2
Ntp1019
Rp1020
(dp1021
g27
(dp1022
g29
Vthe
p1023
sg31
VO
p1024
sg33
VDT
p1025
sg35
I8
ssg10
I98
sg36
g4
sg37
(dp1026
sg39
(dp1027
sg41
I596
sg42
g21
sg43
g21
sg44
I98
sg45
Vthe
p1028
sg47
I98
sg48
I599
sbag0
(g23
g2
Ntp1029
Rp1030
(dp1031
g27
(dp1032
g29
VUnited
p1033
sg31
VLOCATION
p1034
sg33
VNNP
p1035
sg35
I9
ssg10
I99
sg36
g4
sg37
(dp1036
sg39
(dp1037
sg41
I600
sg42
g21
sg43
g21
sg44
I99
sg45
VUnited
p1038
sg47
I99
sg48
I606
sbag0
(g23
g2
Ntp1039
Rp1040
(dp1041
g27
(dp1042
g29
VStates
p1043
sg31
VLOCATION
p1044
sg33
VNNPS
p1045
sg35
I10
ssg10
I100
sg36
g4
sg37
(dp1046
sg39
(dp1047
sg41
I607
sg42
g21
sg43
g21
sg44
I100
sg45
VStates
p1048
sg47
I100
sg48
I613
sbag0
(g23
g2
Ntp1049
Rp1050
(dp1051
g27
(dp1052
g29
Vand
p1053
sg31
VO
p1054
sg33
VCC
p1055
sg35
I11
ssg10
I101
sg36
g4
sg37
(dp1056
sg39
(dp1057
sg41
I614
sg42
g21
sg43
g21
sg44
I101
sg45
Vand
p1058
sg47
I101
sg48
I617
sbag0
(g23
g2
Ntp1059
Rp1060
(dp1061
g27
(dp1062
g29
Vthe
p1063
sg31
VO
p1064
sg33
VDT
p1065
sg35
I12
ssg10
I102
sg36
g4
sg37
(dp1066
sg39
(dp1067
sg41
I618
sg42
g21
sg43
g21
sg44
I102
sg45
Vthe
p1068
sg47
I102
sg48
I621
sbag0
(g23
g2
Ntp1069
Rp1070
(dp1071
g27
(dp1072
g29
VSoviet
p1073
sg31
VLOCATION
p1074
sg33
VNNP
p1075
sg35
I13
ssg10
I103
sg36
g4
sg37
(dp1076
sg39
(dp1077
sg41
I622
sg42
g21
sg43
g21
sg44
I103
sg45
VSoviet
p1078
sg47
I103
sg48
I628
sbag0
(g23
g2
Ntp1079
Rp1080
(dp1081
g27
(dp1082
g29
VUnion
p1083
sg31
VLOCATION
p1084
sg33
VNNP
p1085
sg35
I14
ssg10
I104
sg36
g4
sg37
(dp1086
sg39
(dp1087
sg41
I629
sg42
g21
sg43
g21
sg44
I104
sg45
VUnion
p1088
sg47
I104
sg48
I634
sbag0
(g23
g2
Ntp1089
Rp1090
(dp1091
g27
(dp1092
g29
Vnever
p1093
sg31
VO
p1094
sg33
VRB
p1095
sg35
I15
ssg10
I105
sg36
g4
sg37
(dp1096
sg39
(dp1097
sg41
I635
sg42
g21
sg43
g21
sg44
I105
sg45
Vnever
p1098
sg47
I105
sg48
I640
sbag0
(g23
g2
Ntp1099
Rp1100
(dp1101
g27
(dp1102
g29
Vengage
p1103
sg31
VO
p1104
sg33
VVBD
p1105
sg35
I16
ssg10
I106
sg36
g4
sg37
(dp1106
sg39
(dp1107
sg41
I641
sg42
g21
sg43
g21
sg44
I106
sg45
Vengaged
p1108
sg47
I106
sg48
I648
sbag0
(g23
g2
Ntp1109
Rp1110
(dp1111
g27
(dp1112
g29
Veach
p1113
sg31
VO
p1114
sg33
VDT
p1115
sg35
I17
ssg10
I107
sg36
g4
sg37
(dp1116
sg39
(dp1117
sg41
I649
sg42
g21
sg43
g21
sg44
I107
sg45
Veach
p1118
sg47
I107
sg48
I653
sbag0
(g23
g2
Ntp1119
Rp1120
(dp1121
g27
(dp1122
g29
Vother
p1123
sg31
VO
p1124
sg33
VJJ
p1125
sg35
I18
ssg10
I108
sg36
g4
sg37
(dp1126
sg39
(dp1127
sg41
I654
sg42
g21
sg43
g21
sg44
I108
sg45
Vother
p1128
sg47
I108
sg48
I659
sbag0
(g23
g2
Ntp1129
Rp1130
(dp1131
g27
(dp1132
g29
Vin
p1133
sg31
VO
p1134
sg33
VIN
p1135
sg35
I19
ssg10
I109
sg36
g4
sg37
(dp1136
sg39
(dp1137
sg41
I660
sg42
g21
sg43
g21
sg44
I109
sg45
Vin
p1138
sg47
I109
sg48
I662
sbag0
(g23
g2
Ntp1139
Rp1140
(dp1141
g27
(dp1142
g29
Vwarfare
p1143
sg31
VO
p1144
sg33
VNN
p1145
sg35
I20
ssg10
I110
sg36
g4
sg37
(dp1146
sg39
(dp1147
sg41
I663
sg42
g21
sg43
g21
sg44
I110
sg45
Vwarfare
p1148
sg47
I110
sg48
I670
sbag0
(g23
g2
Ntp1149
Rp1150
(dp1151
g27
(dp1152
g29
V,
p1153
sg31
VO
p1154
sg33
V,
p1155
sg35
I21
ssg10
I111
sg36
g4
sg37
(dp1156
sg39
(dp1157
sg41
I670
sg42
g21
sg43
g21
sg44
I111
sg45
V,
p1158
sg47
I111
sg48
I671
sbag0
(g23
g2
Ntp1159
Rp1160
(dp1161
g27
(dp1162
g29
Vbut
p1163
sg31
VO
p1164
sg33
VCC
p1165
sg35
I22
ssg10
I112
sg36
g4
sg37
(dp1166
sg39
(dp1167
sg41
I672
sg42
g21
sg43
g21
sg44
I112
sg45
Vbut
p1168
sg47
I112
sg48
I675
sbag0
(g23
g2
Ntp1169
Rp1170
(dp1171
g27
(dp1172
g29
Vfight
p1173
sg31
VO
p1174
sg33
VVBD
p1175
sg35
I23
ssg10
I113
sg36
g4
sg37
(dp1176
sg39
(dp1177
sg41
I676
sg42
g21
sg43
g21
sg44
I113
sg45
Vfought
p1178
sg47
I113
sg48
I682
sbag0
(g23
g2
Ntp1179
Rp1180
(dp1181
g27
(dp1182
g29
Vproxy
p1183
sg31
VO
p1184
sg33
VNN
p1185
sg35
I24
ssg10
I114
sg36
g4
sg37
(dp1186
sg39
(dp1187
sg41
I683
sg42
g21
sg43
g21
sg44
I114
sg45
Vproxy
p1188
sg47
I114
sg48
I688
sbag0
(g23
g2
Ntp1189
Rp1190
(dp1191
g27
(dp1192
g29
Vwar
p1193
sg31
VO
p1194
sg33
VNNS
p1195
sg35
I25
ssg10
I115
sg36
g4
sg37
(dp1196
sg39
(dp1197
sg41
I689
sg42
g21
sg43
g21
sg44
I115
sg45
Vwars
p1198
sg47
I115
sg48
I693
sbag0
(g23
g2
Ntp1199
Rp1200
(dp1201
g27
(dp1202
g29
Vin
p1203
sg31
VO
p1204
sg33
VIN
p1205
sg35
I26
ssg10
I116
sg36
g4
sg37
(dp1206
sg39
(dp1207
sg41
I694
sg42
g21
sg43
g21
sg44
I116
sg45
Vin
p1208
sg47
I116
sg48
I696
sbag0
(g23
g2
Ntp1209
Rp1210
(dp1211
g27
(dp1212
g29
VKorea
p1213
sg31
VLOCATION
p1214
sg33
VNNP
p1215
sg35
I27
ssg10
I117
sg36
g4
sg37
(dp1216
sg39
(dp1217
sg41
I697
sg42
g21
sg43
g21
sg44
I117
sg45
VKorea
p1218
sg47
I117
sg48
I702
sbag0
(g23
g2
Ntp1219
Rp1220
(dp1221
g27
(dp1222
g29
V,
p1223
sg31
VO
p1224
sg33
V,
p1225
sg35
I28
ssg10
I118
sg36
g4
sg37
(dp1226
sg39
(dp1227
sg41
I702
sg42
g21
sg43
g21
sg44
I118
sg45
V,
p1228
sg47
I118
sg48
I703
sbag0
(g23
g2
Ntp1229
Rp1230
(dp1231
g27
(dp1232
g29
VVietnam
p1233
sg31
VLOCATION
p1234
sg33
VNNP
p1235
sg35
I29
ssg10
I119
sg36
g4
sg37
(dp1236
sg39
(dp1237
sg41
I704
sg42
g21
sg43
g21
sg44
I119
sg45
VVietnam
p1238
sg47
I119
sg48
I711
sbag0
(g23
g2
Ntp1239
Rp1240
(dp1241
g27
(dp1242
g29
V,
p1243
sg31
VO
p1244
sg33
V,
p1245
sg35
I30
ssg10
I120
sg36
g4
sg37
(dp1246
sg39
(dp1247
sg41
I711
sg42
g21
sg43
g21
sg44
I120
sg45
V,
p1248
sg47
I120
sg48
I712
sbag0
(g23
g2
Ntp1249
Rp1250
(dp1251
g27
(dp1252
g29
Vand
p1253
sg31
VO
p1254
sg33
VCC
p1255
sg35
I31
ssg10
I121
sg36
g4
sg37
(dp1256
sg39
(dp1257
sg41
I713
sg42
g21
sg43
g21
sg44
I121
sg45
Vand
p1258
sg47
I121
sg48
I716
sbag0
(g23
g2
Ntp1259
Rp1260
(dp1261
g27
(dp1262
g29
VAfghanistan
p1263
sg31
VLOCATION
p1264
sg33
VNNP
p1265
sg35
I32
ssg10
I122
sg36
g4
sg37
(dp1266
sg39
(dp1267
sg41
I717
sg42
g21
sg43
g21
sg44
I122
sg45
VAfghanistan
p1268
sg47
I122
sg48
I728
sbag0
(g23
g2
Ntp1269
Rp1270
(dp1271
g27
(dp1272
g29
Vand
p1273
sg31
VO
p1274
sg33
VCC
p1275
sg35
I33
ssg10
I123
sg36
g4
sg37
(dp1276
sg39
(dp1277
sg41
I729
sg42
g21
sg43
g21
sg44
I123
sg45
Vand
p1278
sg47
I123
sg48
I732
sbag0
(g23
g2
Ntp1279
Rp1280
(dp1281
g27
(dp1282
g29
Vspend
p1283
sg31
VO
p1284
sg33
VVBD
p1285
sg35
I34
ssg10
I124
sg36
g4
sg37
(dp1286
sg39
(dp1287
sg41
I733
sg42
g21
sg43
g21
sg44
I124
sg45
Vspent
p1288
sg47
I124
sg48
I738
sbag0
(g23
g2
Ntp1289
Rp1290
(dp1291
g27
(dp1292
g29
Vsubstantial
p1293
sg31
VO
p1294
sg33
VJJ
p1295
sg35
I35
ssg10
I125
sg36
g4
sg37
(dp1296
sg39
(dp1297
sg41
I739
sg42
g21
sg43
g21
sg44
I125
sg45
Vsubstantial
p1298
sg47
I125
sg48
I750
sbag0
(g23
g2
Ntp1299
Rp1300
(dp1301
g27
(dp1302
g29
Vamount
p1303
sg31
VO
p1304
sg33
VNNS
p1305
sg35
I36
ssg10
I126
sg36
g4
sg37
(dp1306
sg39
(dp1307
sg41
I751
sg42
g21
sg43
g21
sg44
I126
sg45
Vamounts
p1308
sg47
I126
sg48
I758
sbag0
(g23
g2
Ntp1309
Rp1310
(dp1311
g27
(dp1312
g29
Vof
p1313
sg31
VO
p1314
sg33
VIN
p1315
sg35
I37
ssg10
I127
sg36
g4
sg37
(dp1316
sg39
(dp1317
sg41
I759
sg42
g21
sg43
g21
sg44
I127
sg45
Vof
p1318
sg47
I127
sg48
I761
sbag0
(g23
g2
Ntp1319
Rp1320
(dp1321
g27
(dp1322
g29
Vmoney
p1323
sg31
VO
p1324
sg33
VNN
p1325
sg35
I38
ssg10
I128
sg36
g4
sg37
(dp1326
sg39
(dp1327
sg41
I762
sg42
g21
sg43
g21
sg44
I128
sg45
Vmoney
p1328
sg47
I128
sg48
I767
sbag0
(g23
g2
Ntp1329
Rp1330
(dp1331
g27
(dp1332
g29
Vand
p1333
sg31
VO
p1334
sg33
VCC
p1335
sg35
I39
ssg10
I129
sg36
g4
sg37
(dp1336
sg39
(dp1337
sg41
I768
sg42
g21
sg43
g21
sg44
I129
sg45
Vand
p1338
sg47
I129
sg48
I771
sbag0
(g23
g2
Ntp1339
Rp1340
(dp1341
g27
(dp1342
g29
Vmanpower
p1343
sg31
VO
p1344
sg33
VNN
p1345
sg35
I40
ssg10
I130
sg36
g4
sg37
(dp1346
sg39
(dp1347
sg41
I772
sg42
g21
sg43
g21
sg44
I130
sg45
Vmanpower
p1348
sg47
I130
sg48
I780
sbag0
(g23
g2
Ntp1349
Rp1350
(dp1351
g27
(dp1352
g29
Von
p1353
sg31
VO
p1354
sg33
VIN
p1355
sg35
I41
ssg10
I131
sg36
g4
sg37
(dp1356
sg39
(dp1357
sg41
I781
sg42
g21
sg43
g21
sg44
I131
sg45
Von
p1358
sg47
I131
sg48
I783
sbag0
(g23
g2
Ntp1359
Rp1360
(dp1361
g27
(dp1362
g29
Vgain
p1363
sg31
VO
p1364
sg33
VVBG
p1365
sg35
I42
ssg10
I132
sg36
g4
sg37
(dp1366
sg39
(dp1367
sg41
I784
sg42
g21
sg43
g21
sg44
I132
sg45
Vgaining
p1368
sg47
I132
sg48
I791
sbag0
(g23
g2
Ntp1369
Rp1370
(dp1371
g27
(dp1372
g29
Vrelative
p1373
sg31
VO
p1374
sg33
VJJ
p1375
sg35
I43
ssg10
I133
sg36
g4
sg37
(dp1376
sg39
(dp1377
sg41
I792
sg42
g21
sg43
g21
sg44
I133
sg45
Vrelative
p1378
sg47
I133
sg48
I800
sbag0
(g23
g2
Ntp1379
Rp1380
(dp1381
g27
(dp1382
g29
Vinfluence
p1383
sg31
VO
p1384
sg33
VNN
p1385
sg35
I44
ssg10
I134
sg36
g4
sg37
(dp1386
sg39
(dp1387
sg41
I801
sg42
g21
sg43
g21
sg44
I134
sg45
Vinfluence
p1388
sg47
I134
sg48
I810
sbag0
(g23
g2
Ntp1389
Rp1390
(dp1391
g27
(dp1392
g29
Vover
p1393
sg31
VO
p1394
sg33
VIN
p1395
sg35
I45
ssg10
I135
sg36
g4
sg37
(dp1396
sg39
(dp1397
sg41
I811
sg42
g21
sg43
g21
sg44
I135
sg45
Vover
p1398
sg47
I135
sg48
I815
sbag0
(g23
g2
Ntp1399
Rp1400
(dp1401
g27
(dp1402
g29
Vthe
p1403
sg31
VO
p1404
sg33
VDT
p1405
sg35
I46
ssg10
I136
sg36
g4
sg37
(dp1406
sg39
(dp1407
sg41
I816
sg42
g21
sg43
g21
sg44
I136
sg45
Vthe
p1408
sg47
I136
sg48
I819
sbag0
(g23
g2
Ntp1409
Rp1410
(dp1411
g27
(dp1412
g29
Vthird
p1413
sg31
VORDINAL
p1414
sg33
VJJ
p1415
sg35
I47
ssg10
I137
sg36
g4
sg37
(dp1416
sg39
(dp1417
sg41
I820
sg42
g21
sg43
g21
sg44
I137
sg45
Vthird
p1418
sg47
I137
sg48
I825
sbag0
(g23
g2
Ntp1419
Rp1420
(dp1421
g27
(dp1422
g29
Vworld
p1423
sg31
VO
p1424
sg33
VNN
p1425
sg35
I48
ssg10
I138
sg36
g4
sg37
(dp1426
sg39
(dp1427
sg41
I826
sg42
g21
sg43
g21
sg44
I138
sg45
Vworld
p1428
sg47
I138
sg48
I831
sbag0
(g23
g2
Ntp1429
Rp1430
(dp1431
g27
(dp1432
g29
V-lsb-
p1433
sg31
VO
p1434
sg33
V-LRB-
p1435
sg35
I49
ssg10
I139
sg36
g4
sg37
(dp1436
sg39
(dp1437
sg41
I832
sg42
g21
sg43
g21
sg44
I139
sg45
V[
p1438
sg47
I139
sg48
I833
sbag0
(g23
g2
Ntp1439
Rp1440
(dp1441
g27
(dp1442
g29
Vref
p1443
sg31
VO
p1444
sg33
VNN
p1445
sg35
I50
ssg10
I140
sg36
g4
sg37
(dp1446
sg39
(dp1447
sg41
I833
sg42
g21
sg43
g21
sg44
I140
sg45
VREF
p1448
sg47
I140
sg48
I836
sbag0
(g23
g2
Ntp1449
Rp1450
(dp1451
g27
(dp1452
g29
V-rsb-
p1453
sg31
VO
p1454
sg33
V-RRB-
p1455
sg35
I51
ssg10
I141
sg36
g4
sg37
(dp1456
sg39
(dp1457
sg41
I836
sg42
g21
sg43
g21
sg44
I141
sg45
V]
p1458
sg47
I141
sg48
I837
sbag0
(g23
g2
Ntp1459
Rp1460
(dp1461
g27
(dp1462
g29
V.
p1463
sg31
VO
p1464
sg33
V.
p1465
sg35
I52
ssg10
I142
sg36
g4
sg37
(dp1466
sg39
(dp1467
sg41
I837
sg42
g21
sg43
g21
sg44
I142
sg45
V.
p1468
sg47
I142
sg48
I838
sbag0
(g23
g2
Ntp1469
Rp1470
(dp1471
g27
(dp1472
g29
Vmore
p1473
sg31
VO
p1474
sg33
VRBR
p1475
sg35
I1
ssg10
I143
sg36
g4
sg37
(dp1476
sg39
(dp1477
sg41
I841
sg42
g21
sg43
g21
sg44
I143
sg45
VMore
p1478
sg47
I143
sg48
I845
sbag0
(g23
g2
Ntp1479
Rp1480
(dp1481
g27
(dp1482
g29
Vrecently
p1483
sg31
VDATE
p1484
sg33
VRB
p1485
sg35
I2
ssg10
I144
sg36
g4
sg37
(dp1486
sg39
(dp1487
sg41
I846
sg42
g21
sg43
g21
sg44
I144
sg45
Vrecently
p1488
sg47
I144
sg48
I854
sbag0
(g23
g2
Ntp1489
Rp1490
(dp1491
g27
(dp1492
g29
Vthis
p1493
sg31
VO
p1494
sg33
VDT
p1495
sg35
I3
ssg10
I145
sg36
g4
sg37
(dp1496
sg39
(dp1497
sg41
I855
sg42
g21
sg43
g21
sg44
I145
sg45
Vthis
p1498
sg47
I145
sg48
I859
sbag0
(g23
g2
Ntp1499
Rp1500
(dp1501
g27
(dp1502
g29
Veffect
p1503
sg31
VO
p1504
sg33
VNN
p1505
sg35
I4
ssg10
I146
sg36
g4
sg37
(dp1506
sg39
(dp1507
sg41
I860
sg42
g21
sg43
g21
sg44
I146
sg45
Veffect
p1508
sg47
I146
sg48
I866
sbag0
(g23
g2
Ntp1509
Rp1510
(dp1511
g27
(dp1512
g29
Vcan
p1513
sg31
VO
p1514
sg33
VMD
p1515
sg35
I5
ssg10
I147
sg36
g4
sg37
(dp1516
sg39
(dp1517
sg41
I867
sg42
g21
sg43
g21
sg44
I147
sg45
Vcan
p1518
sg47
I147
sg48
I870
sbag0
(g23
g2
Ntp1519
Rp1520
(dp1521
g27
(dp1522
g29
Vbe
p1523
sg31
VO
p1524
sg33
VVB
p1525
sg35
I6
ssg10
I148
sg36
g4
sg37
(dp1526
sg39
(dp1527
sg41
I871
sg42
g21
sg43
g21
sg44
I148
sg45
Vbe
p1528
sg47
I148
sg48
I873
sbag0
(g23
g2
Ntp1529
Rp1530
(dp1531
g27
(dp1532
g29
Vsee
p1533
sg31
VO
p1534
sg33
VVBN
p1535
sg35
I7
ssg10
I149
sg36
g4
sg37
(dp1536
sg39
(dp1537
sg41
I874
sg42
g21
sg43
g21
sg44
I149
sg45
Vseen
p1538
sg47
I149
sg48
I878
sbag0
(g23
g2
Ntp1539
Rp1540
(dp1541
g27
(dp1542
g29
Vin
p1543
sg31
VO
p1544
sg33
VIN
p1545
sg35
I8
ssg10
I150
sg36
g4
sg37
(dp1546
sg39
(dp1547
sg41
I879
sg42
g21
sg43
g21
sg44
I150
sg45
Vin
p1548
sg47
I150
sg48
I881
sbag0
(g23
g2
Ntp1549
Rp1550
(dp1551
g27
(dp1552
g29
Vthe
p1553
sg31
VO
p1554
sg33
VDT
p1555
sg35
I9
ssg10
I151
sg36
g4
sg37
(dp1556
sg39
(dp1557
sg41
I882
sg42
g21
sg43
g21
sg44
I151
sg45
Vthe
p1558
sg47
I151
sg48
I885
sbag0
(g23
g2
Ntp1559
Rp1560
(dp1561
g27
(dp1562
g29
VIndia-Pakistan
p1563
sg31
VLOCATION
p1564
sg33
VNNP
p1565
sg35
I10
ssg10
I152
sg36
g4
sg37
(dp1566
sg39
(dp1567
sg41
I886
sg42
g21
sg43
g21
sg44
I152
sg45
VIndia-Pakistan
p1568
sg47
I152
sg48
I900
sbag0
(g23
g2
Ntp1569
Rp1570
(dp1571
g27
(dp1572
g29
Vrelationship
p1573
sg31
VO
p1574
sg33
VNN
p1575
sg35
I11
ssg10
I153
sg36
g4
sg37
(dp1576
sg39
(dp1577
sg41
I901
sg42
g21
sg43
g21
sg44
I153
sg45
Vrelationship
p1578
sg47
I153
sg48
I913
sbag0
(g23
g2
Ntp1579
Rp1580
(dp1581
g27
(dp1582
g29
V.
p1583
sg31
VO
p1584
sg33
V.
p1585
sg35
I12
ssg10
I154
sg36
g4
sg37
(dp1586
sg39
(dp1587
sg41
I913
sg42
g21
sg43
g21
sg44
I154
sg45
V.
p1588
sg47
I154
sg48
I914
sbag0
(g23
g2
Ntp1589
Rp1590
(dp1591
g27
(dp1592
g29
Vthus
p1593
sg31
VO
p1594
sg33
VRB
p1595
sg35
I1
ssg10
I155
sg36
g4
sg37
(dp1596
sg39
(dp1597
sg41
I917
sg42
g21
sg43
g21
sg44
I155
sg45
VThus
p1598
sg47
I155
sg48
I921
sbag0
(g23
g2
Ntp1599
Rp1600
(dp1601
g27
(dp1602
g29
V,
p1603
sg31
VO
p1604
sg33
V,
p1605
sg35
I2
ssg10
I156
sg36
g4
sg37
(dp1606
sg39
(dp1607
sg41
I921
sg42
g21
sg43
g21
sg44
I156
sg45
V,
p1608
sg47
I156
sg48
I922
sbag0
(g23
g2
Ntp1609
Rp1610
(dp1611
g27
(dp1612
g29
Vnuclear
p1613
sg31
VO
p1614
sg33
VJJ
p1615
sg35
I3
ssg10
I157
sg36
g4
sg37
(dp1616
sg39
(dp1617
sg41
I923
sg42
g21
sg43
g21
sg44
I157
sg45
Vnuclear
p1618
sg47
I157
sg48
I930
sbag0
(g23
g2
Ntp1619
Rp1620
(dp1621
g27
(dp1622
g29
Vweapon
p1623
sg31
VO
p1624
sg33
VNNS
p1625
sg35
I4
ssg10
I158
sg36
g4
sg37
(dp1626
sg39
(dp1627
sg41
I931
sg42
g21
sg43
g21
sg44
I158
sg45
Vweapons
p1628
sg47
I158
sg48
I938
sbag0
(g23
g2
Ntp1629
Rp1630
(dp1631
g27
(dp1632
g29
Vhave
p1633
sg31
VO
p1634
sg33
VVBP
p1635
sg35
I5
ssg10
I159
sg36
g4
sg37
(dp1636
sg39
(dp1637
sg41
I939
sg42
g21
sg43
g21
sg44
I159
sg45
Vhave
p1638
sg47
I159
sg48
I943
sbag0
(g23
g2
Ntp1639
Rp1640
(dp1641
g27
(dp1642
g29
Vthe
p1643
sg31
VO
p1644
sg33
VDT
p1645
sg35
I6
ssg10
I160
sg36
g4
sg37
(dp1646
sg39
(dp1647
sg41
I944
sg42
g21
sg43
g21
sg44
I160
sg45
Vthe
p1648
sg47
I160
sg48
I947
sbag0
(g23
g2
Ntp1649
Rp1650
(dp1651
g27
(dp1652
g29
Vpotential
p1653
sg31
VO
p1654
sg33
VJJ
p1655
sg35
I7
ssg10
I161
sg36
g4
sg37
(dp1656
sg39
(dp1657
sg41
I948
sg42
g21
sg43
g21
sg44
I161
sg45
Vpotential
p1658
sg47
I161
sg48
I957
sbag0
(g23
g2
Ntp1659
Rp1660
(dp1661
g27
(dp1662
g29
Vto
p1663
sg31
VO
p1664
sg33
VTO
p1665
sg35
I8
ssg10
I162
sg36
g4
sg37
(dp1666
sg39
(dp1667
sg41
I958
sg42
g21
sg43
g21
sg44
I162
sg45
Vto
p1668
sg47
I162
sg48
I960
sbag0
(g23
g2
Ntp1669
Rp1670
(dp1671
g27
(dp1672
g29
Vcause
p1673
sg31
VO
p1674
sg33
VVB
p1675
sg35
I9
ssg10
I163
sg36
g4
sg37
(dp1676
sg39
(dp1677
sg41
I961
sg42
g21
sg43
g21
sg44
I163
sg45
Vcause
p1678
sg47
I163
sg48
I966
sbag0
(g23
g2
Ntp1679
Rp1680
(dp1681
g27
(dp1682
g29
Vboth
p1683
sg31
VO
p1684
sg33
VCC
p1685
sg35
I10
ssg10
I164
sg36
g4
sg37
(dp1686
sg39
(dp1687
sg41
I967
sg42
g21
sg43
g21
sg44
I164
sg45
Vboth
p1688
sg47
I164
sg48
I971
sbag0
(g23
g2
Ntp1689
Rp1690
(dp1691
g27
(dp1692
g29
Vstability
p1693
sg31
VO
p1694
sg33
VNN
p1695
sg35
I11
ssg10
I165
sg36
g4
sg37
(dp1696
sg39
(dp1697
sg41
I972
sg42
g21
sg43
g21
sg44
I165
sg45
Vstability
p1698
sg47
I165
sg48
I981
sbag0
(g23
g2
Ntp1699
Rp1700
(dp1701
g27
(dp1702
g29
Vand
p1703
sg31
VO
p1704
sg33
VCC
p1705
sg35
I12
ssg10
I166
sg36
g4
sg37
(dp1706
sg39
(dp1707
sg41
I982
sg42
g21
sg43
g21
sg44
I166
sg45
Vand
p1708
sg47
I166
sg48
I985
sbag0
(g23
g2
Ntp1709
Rp1710
(dp1711
g27
(dp1712
g29
Vinstability
p1713
sg31
VO
p1714
sg33
VNN
p1715
sg35
I13
ssg10
I167
sg36
g4
sg37
(dp1716
sg39
(dp1717
sg41
I986
sg42
g21
sg43
g21
sg44
I167
sg45
Vinstability
p1718
sg47
I167
sg48
I997
sbag0
(g23
g2
Ntp1719
Rp1720
(dp1721
g27
(dp1722
g29
V.
p1723
sg31
VO
p1724
sg33
V.
p1725
sg35
I14
ssg10
I168
sg36
g4
sg37
(dp1726
sg39
(dp1727
sg41
I997
sg42
g21
sg43
g21
sg44
I168
sg45
V.
p1728
sg47
I168
sg48
I998
sbasS'Document'
p1729
(lp1730
g4
asS'doc-features'
p1731
g14
sS'Sentence'
p1732
(lp1733
g0
(g23
g2
Ntp1734
Rp1735
(dp1736
g27
(dp1737
S'dep-parse'
p1738
S'not implemented!'
p1739
sg35
I0
sS'constituency-parse'
p1740
V(ROOT\u000a  (S\u000a    (NP (DT The) (JJ stability-instability) (NN paradox))\u000a    (VP (VBZ is)\u000a      (NP\u000a        (NP (DT an) (JJ international) (NNS relations) (NN theory))\u000a        (PP (VBG regarding)\u000a          (NP\u000a            (NP\u000a              (NP (DT the) (NN effect))\u000a              (PP (IN of)\u000a                (NP (JJ nuclear) (NNS weapons))))\u000a            (CC and)\u000a            (NP\u000a              (ADJP (RB mutually) (VBN assured))\u000a              (NN destruction))))))\u000a    (. .)))
p1741
ssg10
I0
sg36
g4
sg37
(dp1742
sg39
(dp1743
S'tokens'
p1744
(lp1745
g25
ag50
ag60
ag70
ag80
ag90
ag100
ag110
ag120
ag130
ag140
ag150
ag160
ag170
ag180
ag190
ag200
ag210
ag220
assg41
I0
sg42
g1732
sg43
g1732
sg44
I0
sg45
VThe stability-instability paradox is an international relations theory regarding the effect of nuclear weapons and mutually assured destruction.
p1746
sg47
I19
sg48
I144
sbag0
(g23
g2
Ntp1747
Rp1748
(dp1749
g27
(dp1750
g1738
g1739
sg35
I1
sg1740
V(ROOT\u000a  (S\u000a    (S\u000a      (NP (PRP It))\u000a      (VP (VBZ states)\u000a        (SBAR (IN that)\u000a          (S\u000a            (SBAR\u000a              (WHADVP (WRB when))\u000a              (S\u000a                (NP (CD two) (NNS countries))\u000a                (DT each)\u000a                (VP (VBP have)\u000a                  (NP (JJ nuclear) (NNS weapons)))))\u000a            (, ,)\u000a            (NP\u000a              (NP (DT the) (NN probability))\u000a              (PP (IN of)\u000a                (NP\u000a                  (NP (DT a) (JJ direct) (NN war))\u000a                  (PP (IN between)\u000a                    (NP (PRP them))))))\u000a            (ADVP (RB greatly))\u000a            (VP (VBZ decreases))))))\u000a    (, ,)\u000a    (CC but)\u000a    (S\u000a      (NP\u000a        (NP (DT the) (NN probability))\u000a        (PP (IN of)\u000a          (NP\u000a            (NP (JJ minor)\u000a              (CC or)\u000a              (JJ indirect) (NNS conflicts))\u000a            (PP (IN between)\u000a              (NP (PRP them))))))\u000a      (VP (VBZ increases)))\u000a    (. .)))
p1751
ssg10
I1
sg36
g4
sg37
(dp1752
sg39
(dp1753
g1744
(lp1754
g230
ag240
ag250
ag260
ag270
ag280
ag290
ag300
ag310
ag320
ag330
ag340
ag350
ag360
ag370
ag380
ag390
ag400
ag410
ag420
ag430
ag440
ag450
ag460
ag470
ag480
ag490
ag500
ag510
ag520
ag530
ag540
ag550
ag560
assg41
I145
sg42
g1732
sg43
g1732
sg44
I19
sg45
V It states that when two countries each have nuclear weapons, the probability of a direct war between them greatly decreases, but the probability of minor or indirect conflicts between them increases.
p1755
sg47
I53
sg48
I344
sbag0
(g23
g2
Ntp1756
Rp1757
(dp1758
g27
(dp1759
g1738
g1739
sg35
I2
sg1740
V(ROOT\u000a  (S\u000a    (NP (DT This))\u000a    (VP (VBZ occurs)\u000a      (SBAR (IN because)\u000a        (S\u000a          (NP (JJ rational) (NNS actors))\u000a          (VP\u000a            (VP (VBP want)\u000a              (S\u000a                (VP (TO to)\u000a                  (VP (VB avoid)\u000a                    (NP\u000a                      (NP (JJ nuclear) (NNS wars))\u000a                      (, ,)\u000a                      (CC and)\u000a                      (ADVP (RB thus))\u000a                      (NP\u000a                        (NP (PRP they))\u000a                        (NP (DT neither) (NN start) (JJ major) (NNS conflicts))))))))\u000a            (CC nor)\u000a            (VP (VB allow)\u000a              (NP (JJ minor) (NNS conflicts))\u000a              (S\u000a                (VP (TO to)\u000a                  (VP (VB escalate)\u000a                    (PP (IN into)\u000a                      (NP (JJ major) (NNS conflicts)))\u000a                    (: --)\u000a                    (S\u000a                      (ADVP (RB thus))\u000a                      (VP (VBG making)\u000a                        (S\u000a                          (NP (PRP it))\u000a                          (ADJP (JJ safe)\u000a                            (S\u000a                              (VP (TO to)\u000a                                (VP (VB engage)\u000a                                  (PP (IN in)\u000a                                    (NP (JJ minor) (NNS conflicts))))))))))))))))))\u000a    (. .)))
p1760
ssg10
I2
sg36
g4
sg37
(dp1761
sg39
(dp1762
g1744
(lp1763
g570
ag580
ag590
ag600
ag610
ag620
ag630
ag640
ag650
ag660
ag670
ag680
ag690
ag700
ag710
ag720
ag730
ag740
ag750
ag760
ag770
ag780
ag790
ag800
ag810
ag820
ag830
ag840
ag850
ag860
ag870
ag880
ag890
ag900
ag910
ag920
ag930
ag940
assg41
I345
sg42
g1732
sg43
g1732
sg44
I53
sg45
V This occurs because rational actors want to avoid nuclear wars, and thus they neither start major conflicts nor allow minor conflicts to escalate into major conflicts\u2014thus making it safe to engage in minor conflicts.
p1764
sg47
I91
sg48
I561
sbag0
(g23
g2
Ntp1765
Rp1766
(dp1767
g27
(dp1768
g1738
g1739
sg35
I3
sg1740
V(ROOT\u000a  (S\u000a    (PP (IN For)\u000a      (NP (NN instance)))\u000a    (, ,)\u000a    (PP (IN during)\u000a      (NP (DT the) (NNP Cold) (NNP War)))\u000a    (NP\u000a      (NP (DT the) (NNP United) (NNPS States))\u000a      (CC and)\u000a      (NP (DT the) (NNP Soviet) (NNP Union)))\u000a    (VP\u000a      (VP\u000a        (ADVP (RB never))\u000a        (VBD engaged)\u000a        (NP (DT each) (JJ other))\u000a        (PP (IN in)\u000a          (NP (NN warfare))))\u000a      (, ,)\u000a      (CC but)\u000a      (VP (VBD fought)\u000a        (NP (NN proxy) (NNS wars))\u000a        (PP (IN in)\u000a          (NP (NNP Korea) (, ,) (NNP Vietnam) (, ,)\u000a            (CC and)\u000a            (NNP Afghanistan))))\u000a      (CC and)\u000a      (VP (VBD spent)\u000a        (NP\u000a          (NP (JJ substantial) (NNS amounts))\u000a          (PP (IN of)\u000a            (NP (NN money)\u000a              (CC and)\u000a              (NN manpower))))\u000a        (PP (IN on)\u000a          (S\u000a            (VP (VBG gaining)\u000a              (NP (JJ relative) (NN influence))\u000a              (PP (IN over)\u000a                (NP\u000a                  (NP (DT the) (JJ third) (NN world))\u000a                  (PP (-LRB- -LSB-)\u000a                    (NP (NN REF) (-RRB- -RSB-))))))))))\u000a    (. .)))
p1769
ssg10
I3
sg36
g4
sg37
(dp1770
sg39
(dp1771
g1744
(lp1772
g950
ag960
ag970
ag980
ag990
ag1000
ag1010
ag1020
ag1030
ag1040
ag1050
ag1060
ag1070
ag1080
ag1090
ag1100
ag1110
ag1120
ag1130
ag1140
ag1150
ag1160
ag1170
ag1180
ag1190
ag1200
ag1210
ag1220
ag1230
ag1240
ag1250
ag1260
ag1270
ag1280
ag1290
ag1300
ag1310
ag1320
ag1330
ag1340
ag1350
ag1360
ag1370
ag1380
ag1390
ag1400
ag1410
ag1420
ag1430
ag1440
ag1450
ag1460
assg41
I562
sg42
g1732
sg43
g1732
sg44
I91
sg45
V For instance, during the Cold War the United States and the Soviet Union never engaged each other in warfare, but fought proxy wars in Korea, Vietnam, and Afghanistan and spent substantial amounts of money and manpower on gaining relative influence over the third world [REF].
p1773
sg47
I143
sg48
I838
sbag0
(g23
g2
Ntp1774
Rp1775
(dp1776
g27
(dp1777
g1738
g1739
sg35
I4
sg1740
V(ROOT\u000a  (S\u000a    (ADVP (RBR More) (RB recently))\u000a    (NP (DT this) (NN effect))\u000a    (VP (MD can)\u000a      (VP (VB be)\u000a        (VP (VBN seen)\u000a          (PP (IN in)\u000a            (NP (DT the) (NNP India-Pakistan) (NN relationship))))))\u000a    (. .)))
p1778
ssg10
I4
sg36
g4
sg37
(dp1779
sg39
(dp1780
g1744
(lp1781
g1470
ag1480
ag1490
ag1500
ag1510
ag1520
ag1530
ag1540
ag1550
ag1560
ag1570
ag1580
assg41
I841
sg42
g1732
sg43
g1732
sg44
I143
sg45
V \u000a\u000aMore recently this effect can be seen in the India-Pakistan relationship.
p1782
sg47
I155
sg48
I914
sbag0
(g23
g2
Ntp1783
Rp1784
(dp1785
g27
(dp1786
g1738
g1739
sg35
I5
sg1740
V(ROOT\u000a  (S\u000a    (ADVP (RB Thus))\u000a    (, ,)\u000a    (NP (JJ nuclear) (NNS weapons))\u000a    (VP (VBP have)\u000a      (NP (DT the) (JJ potential)\u000a        (S\u000a          (VP (TO to)\u000a            (VP (VB cause)\u000a              (PP (CC both)\u000a                (NP (NN stability)\u000a                  (CC and)\u000a                  (NN instability))))))))\u000a    (. .)))
p1787
ssg10
I5
sg36
g4
sg37
(dp1788
sg39
(dp1789
g1744
(lp1790
g1590
ag1600
ag1610
ag1620
ag1630
ag1640
ag1650
ag1660
ag1670
ag1680
ag1690
ag1700
ag1710
ag1720
assg41
I917
sg42
g1732
sg43
g1732
sg44
I155
sg45
V \u000a\u000aThus, nuclear weapons have the potential to cause both stability and instability.
p1791
sg47
I169
sg48
I998
sbassg37
(dp1792
sg39
(dp1793
sg47
I-1
sg1744
g22
sg42
g1729
sg36
Nsg27
(dp1794
sg44
I0
sg45
VThe stability-instability paradox is an international relations theory regarding the effect of nuclear weapons and mutually assured destruction. It states that when two countries each have nuclear weapons, the probability of a direct war between them greatly decreases, but the probability of minor or indirect conflicts between them increases. This occurs because rational actors want to avoid nuclear wars, and thus they neither start major conflicts nor allow minor conflicts to escalate into major conflicts\u2014thus making it safe to engage in minor conflicts. For instance, during the Cold War the United States and the Soviet Union never engaged each other in warfare, but fought proxy wars in Korea, Vietnam, and Afghanistan and spent substantial amounts of money and manpower on gaining relative influence over the third world [REF]. \u000a\u000aMore recently this effect can be seen in the India-Pakistan relationship. \u000a\u000aThus, nuclear weapons have the potential to cause both stability and instability.
p1795
sS'sents'
p1796
g1733
sg43
g1729
sg41
I0
sS'id'
p1797
g16
sg48
I998
sS'sentFeatures'
p1798
(lp1799
sb.