ccopy_reg
_reconstructor
p0
(cpygate.doc
Document
p1
c__builtin__
object
p2
Ntp3
Rp4
(dp5
S'src'
p6
VAn affirmative action bake sale is a campus protest event used by student groups to illustrate criticism of affirmative action policies, especially as they relate to college and graduate school admissions. According to one bake sale student leader, the goal of the technique is to "bring the issue of affirmative action down to everyday terms." [REF] . \u000a\u000aThe bake sales offer to sell cookies at different prices depending on the customer's race and sex, imitating the racial and sexual preference practices of affirmative action. One idea of such bake sales is to demonstrate analogies between price discrimination and affirmative action. A typical pricing structure charges $1.00 for White males, $.75 for White females, $.50 for Latino, Black, Asian, and Native American males and $.25 for Latino, Black, Asian, and Native American females. The bake sales' hosts do not support this kind of preferential treatment; rather, they argue that this preferential pricing is analogous to the preferential treatment created by affirmative action policies. \u000a\u000aThese bake sales have been organized at many schools across the U.S., sometimes annually. Affirmative action bake sales have also taken place at the University of Pretoria in South Africa, the latest (in 2008) having been forcibly broken up by campus security [REF].\u000a\u000aThe bake sales have met opposition, drawing crowds of students, sometimes facing opposition or restriction from campus administrations,[REF][REF][REF] often being accused of racism, and sometimes even being attacked [REF]. Additionally, some administrators have been accused of censorship and inappropriately advocating a political position [REF]. The 2007 documentary Indoctrinate U showed how some such censorship is often institutionalized into the university system. \u000a\u000aResponding to an affirmative action bake sale being attacked at the University of Washington, the school's Board of Regents President Jerry Grinstein presented the opinion of many opponents of these events when he described "the statements [..] in putting on a bake sale about affirmative action were tasteless, divisive and hurtful to many members of the university community."[REF] The student leader of a bake sale at UCLA addressed this issue of divisiveness, saying "we wanted to show how affirmative action is racial division, not racial reconciliation."[REF] Similarly, administrators at Bucknell University claimed that the bake sales violated the private university's discrimination policy [REF]. \u000a\u000aOther criticisms of the concept claim that these bake sales do not take into account ingrained social factors that favor whites. An opinion column in the Houston Chronicle after a similar sale took place at Texas A&M University held that "Actions like these reinforce the common misconception that affirmative action policies give academically unqualified minority students a get-into-college-free card, and they ignore historical discrimination that denied nonwhites opportunities to be successful at any price, no matter their talents or intelligence." The editorial also praised school officials for not shutting down the sale [REF]. \u000a\u000aAt the University of Illinois at Urbana\u2013Champaign, the Graduate and Professional Students of Color student organization responded to a bake sale held by the Students for Individual Liberty[REF] by holding a White Privilege popcorn giveaway where white males received a full bag of popcorn, while women and non-whites received 1/3 of a bag [REF].
p7
sS'string'
p8
S'An affirmative action bake sale is a campus protest event used by student groups to illustrate criticism of affirmative action policies, especially as they relate to college and graduate school admissions. According to one bake sale student leader, the goal of the technique is to "bring the issue of affirmative action down to everyday terms." [REF] . \n\nThe bake sales offer to sell cookies at different prices depending on the customer\'s race and sex, imitating the racial and sexual preference practices of affirmative action. One idea of such bake sales is to demonstrate analogies between price discrimination and affirmative action. A typical pricing structure charges $1.00 for White males, $.75 for White females, $.50 for Latino, Black, Asian, and Native American males and $.25 for Latino, Black, Asian, and Native American females. The bake sales\' hosts do not support this kind of preferential treatment; rather, they argue that this preferential pricing is analogous to the preferential treatment created by affirmative action policies. \n\nThese bake sales have been organized at many schools across the U.S., sometimes annually. Affirmative action bake sales have also taken place at the University of Pretoria in South Africa, the latest (in 2008) having been forcibly broken up by campus security [REF].\n\nThe bake sales have met opposition, drawing crowds of students, sometimes facing opposition or restriction from campus administrations,[REF][REF][REF] often being accused of racism, and sometimes even being attacked [REF]. Additionally, some administrators have been accused of censorship and inappropriately advocating a political position [REF]. The 2007 documentary Indoctrinate U showed how some such censorship is often institutionalized into the university system. \n\nResponding to an affirmative action bake sale being attacked at the University of Washington, the school\'s Board of Regents President Jerry Grinstein presented the opinion of many opponents of these events when he described "the statements [..] in putting on a bake sale about affirmative action were tasteless, divisive and hurtful to many members of the university community."[REF] The student leader of a bake sale at UCLA addressed this issue of divisiveness, saying "we wanted to show how affirmative action is racial division, not racial reconciliation."[REF] Similarly, administrators at Bucknell University claimed that the bake sales violated the private university\'s discrimination policy [REF]. \n\nOther criticisms of the concept claim that these bake sales do not take into account ingrained social factors that favor whites. An opinion column in the Houston Chronicle after a similar sale took place at Texas A&M University held that "Actions like these reinforce the common misconception that affirmative action policies give academically unqualified minority students a get-into-college-free card, and they ignore historical discrimination that denied nonwhites opportunities to be successful at any price, no matter their talents or intelligence." The editorial also praised school officials for not shutting down the sale [REF]. \n\nAt the University of Illinois at Urbana\xe2\x80\x93Champaign, the Graduate and Professional Students of Color student organization responded to a bake sale held by the Students for Individual Liberty[REF] by holding a White Privilege popcorn giveaway where white males received a full bag of popcorn, while women and non-whites received 1/3 of a bag [REF].'
p9
sS'idx'
p10
I0
sS'tknFeatures'
p11
(lp12
sS'docFeatures'
p13
(dp14
S'file_id'
p15
S'Affirmative_action_bake_sale'
p16
ssS'items'
p17
(dp18
S'raw'
p19
VAn affirmative action bake sale is a campus protest event used by student groups to illustrate criticism of affirmative action policies, especially as they relate to college and graduate school admissions. According to one bake sale student leader, the goal of the technique is to "bring the issue of affirmative action down to everyday terms." [REF] . \u000a\u000aThe bake sales offer to sell cookies at different prices depending on the customer's race and sex, imitating the racial and sexual preference practices of affirmative action. One idea of such bake sales is to demonstrate analogies between price discrimination and affirmative action. A typical pricing structure charges $1.00 for White males, $.75 for White females, $.50 for Latino, Black, Asian, and Native American males and $.25 for Latino, Black, Asian, and Native American females. The bake sales' hosts do not support this kind of preferential treatment; rather, they argue that this preferential pricing is analogous to the preferential treatment created by affirmative action policies. \u000a\u000aThese bake sales have been organized at many schools across the U.S., sometimes annually. Affirmative action bake sales have also taken place at the University of Pretoria in South Africa, the latest (in 2008) having been forcibly broken up by campus security [REF].\u000a\u000aThe bake sales have met opposition, drawing crowds of students, sometimes facing opposition or restriction from campus administrations,[REF][REF][REF] often being accused of racism, and sometimes even being attacked [REF]. Additionally, some administrators have been accused of censorship and inappropriately advocating a political position [REF]. The 2007 documentary Indoctrinate U showed how some such censorship is often institutionalized into the university system. \u000a\u000aResponding to an affirmative action bake sale being attacked at the University of Washington, the school's Board of Regents President Jerry Grinstein presented the opinion of many opponents of these events when he described "the statements [..] in putting on a bake sale about affirmative action were tasteless, divisive and hurtful to many members of the university community."[REF] The student leader of a bake sale at UCLA addressed this issue of divisiveness, saying "we wanted to show how affirmative action is racial division, not racial reconciliation."[REF] Similarly, administrators at Bucknell University claimed that the bake sales violated the private university's discrimination policy [REF]. \u000a\u000aOther criticisms of the concept claim that these bake sales do not take into account ingrained social factors that favor whites. An opinion column in the Houston Chronicle after a similar sale took place at Texas A&M University held that "Actions like these reinforce the common misconception that affirmative action policies give academically unqualified minority students a get-into-college-free card, and they ignore historical discrimination that denied nonwhites opportunities to be successful at any price, no matter their talents or intelligence." The editorial also praised school officials for not shutting down the sale [REF]. \u000a\u000aAt the University of Illinois at Urbana\u2013Champaign, the Graduate and Professional Students of Color student organization responded to a bake sale held by the Students for Individual Liberty[REF] by holding a White Privilege popcorn giveaway where white males received a full bag of popcorn, while women and non-whites received 1/3 of a bag [REF].
p20
sS'Token'
p21
(lp22
g0
(cpygate.annotation
Annotation
p23
g2
Ntp24
Rp25
(dp26
S'features'
p27
(dp28
S'lemma'
p29
Va
p30
sS'ner'
p31
VO
p32
sS'pos'
p33
VDT
p34
sS'index'
p35
I1
ssg10
I0
sS'doc'
p36
g4
sS'labels'
p37
(dp38
sS'relations'
p39
(dp40
sS'cStart'
p41
I0
sS'subType'
p42
g21
sS'annoType'
p43
g21
sS'tStart'
p44
I0
sS'text'
p45
VAn
p46
sS'tEnd'
p47
I0
sS'cEnd'
p48
I2
sbag0
(g23
g2
Ntp49
Rp50
(dp51
g27
(dp52
g29
Vaffirmative
p53
sg31
VO
p54
sg33
VJJ
p55
sg35
I2
ssg10
I1
sg36
g4
sg37
(dp56
sg39
(dp57
sg41
I3
sg42
g21
sg43
g21
sg44
I1
sg45
Vaffirmative
p58
sg47
I1
sg48
I14
sbag0
(g23
g2
Ntp59
Rp60
(dp61
g27
(dp62
g29
Vaction
p63
sg31
VO
p64
sg33
VNN
p65
sg35
I3
ssg10
I2
sg36
g4
sg37
(dp66
sg39
(dp67
sg41
I15
sg42
g21
sg43
g21
sg44
I2
sg45
Vaction
p68
sg47
I2
sg48
I21
sbag0
(g23
g2
Ntp69
Rp70
(dp71
g27
(dp72
g29
Vbake
p73
sg31
VO
p74
sg33
VVB
p75
sg35
I4
ssg10
I3
sg36
g4
sg37
(dp76
sg39
(dp77
sg41
I22
sg42
g21
sg43
g21
sg44
I3
sg45
Vbake
p78
sg47
I3
sg48
I26
sbag0
(g23
g2
Ntp79
Rp80
(dp81
g27
(dp82
g29
Vsale
p83
sg31
VO
p84
sg33
VNN
p85
sg35
I5
ssg10
I4
sg36
g4
sg37
(dp86
sg39
(dp87
sg41
I27
sg42
g21
sg43
g21
sg44
I4
sg45
Vsale
p88
sg47
I4
sg48
I31
sbag0
(g23
g2
Ntp89
Rp90
(dp91
g27
(dp92
g29
Vbe
p93
sg31
VO
p94
sg33
VVBZ
p95
sg35
I6
ssg10
I5
sg36
g4
sg37
(dp96
sg39
(dp97
sg41
I32
sg42
g21
sg43
g21
sg44
I5
sg45
Vis
p98
sg47
I5
sg48
I34
sbag0
(g23
g2
Ntp99
Rp100
(dp101
g27
(dp102
g29
Va
p103
sg31
VO
p104
sg33
VDT
p105
sg35
I7
ssg10
I6
sg36
g4
sg37
(dp106
sg39
(dp107
sg41
I35
sg42
g21
sg43
g21
sg44
I6
sg45
Va
p108
sg47
I6
sg48
I36
sbag0
(g23
g2
Ntp109
Rp110
(dp111
g27
(dp112
g29
Vcampus
p113
sg31
VO
p114
sg33
VNN
p115
sg35
I8
ssg10
I7
sg36
g4
sg37
(dp116
sg39
(dp117
sg41
I37
sg42
g21
sg43
g21
sg44
I7
sg45
Vcampus
p118
sg47
I7
sg48
I43
sbag0
(g23
g2
Ntp119
Rp120
(dp121
g27
(dp122
g29
Vprotest
p123
sg31
VO
p124
sg33
VNN
p125
sg35
I9
ssg10
I8
sg36
g4
sg37
(dp126
sg39
(dp127
sg41
I44
sg42
g21
sg43
g21
sg44
I8
sg45
Vprotest
p128
sg47
I8
sg48
I51
sbag0
(g23
g2
Ntp129
Rp130
(dp131
g27
(dp132
g29
Vevent
p133
sg31
VO
p134
sg33
VNN
p135
sg35
I10
ssg10
I9
sg36
g4
sg37
(dp136
sg39
(dp137
sg41
I52
sg42
g21
sg43
g21
sg44
I9
sg45
Vevent
p138
sg47
I9
sg48
I57
sbag0
(g23
g2
Ntp139
Rp140
(dp141
g27
(dp142
g29
Vuse
p143
sg31
VO
p144
sg33
VVBN
p145
sg35
I11
ssg10
I10
sg36
g4
sg37
(dp146
sg39
(dp147
sg41
I58
sg42
g21
sg43
g21
sg44
I10
sg45
Vused
p148
sg47
I10
sg48
I62
sbag0
(g23
g2
Ntp149
Rp150
(dp151
g27
(dp152
g29
Vby
p153
sg31
VO
p154
sg33
VIN
p155
sg35
I12
ssg10
I11
sg36
g4
sg37
(dp156
sg39
(dp157
sg41
I63
sg42
g21
sg43
g21
sg44
I11
sg45
Vby
p158
sg47
I11
sg48
I65
sbag0
(g23
g2
Ntp159
Rp160
(dp161
g27
(dp162
g29
Vstudent
p163
sg31
VO
p164
sg33
VNN
p165
sg35
I13
ssg10
I12
sg36
g4
sg37
(dp166
sg39
(dp167
sg41
I66
sg42
g21
sg43
g21
sg44
I12
sg45
Vstudent
p168
sg47
I12
sg48
I73
sbag0
(g23
g2
Ntp169
Rp170
(dp171
g27
(dp172
g29
Vgroup
p173
sg31
VO
p174
sg33
VNNS
p175
sg35
I14
ssg10
I13
sg36
g4
sg37
(dp176
sg39
(dp177
sg41
I74
sg42
g21
sg43
g21
sg44
I13
sg45
Vgroups
p178
sg47
I13
sg48
I80
sbag0
(g23
g2
Ntp179
Rp180
(dp181
g27
(dp182
g29
Vto
p183
sg31
VO
p184
sg33
VTO
p185
sg35
I15
ssg10
I14
sg36
g4
sg37
(dp186
sg39
(dp187
sg41
I81
sg42
g21
sg43
g21
sg44
I14
sg45
Vto
p188
sg47
I14
sg48
I83
sbag0
(g23
g2
Ntp189
Rp190
(dp191
g27
(dp192
g29
Villustrate
p193
sg31
VO
p194
sg33
VVB
p195
sg35
I16
ssg10
I15
sg36
g4
sg37
(dp196
sg39
(dp197
sg41
I84
sg42
g21
sg43
g21
sg44
I15
sg45
Villustrate
p198
sg47
I15
sg48
I94
sbag0
(g23
g2
Ntp199
Rp200
(dp201
g27
(dp202
g29
Vcriticism
p203
sg31
VO
p204
sg33
VNN
p205
sg35
I17
ssg10
I16
sg36
g4
sg37
(dp206
sg39
(dp207
sg41
I95
sg42
g21
sg43
g21
sg44
I16
sg45
Vcriticism
p208
sg47
I16
sg48
I104
sbag0
(g23
g2
Ntp209
Rp210
(dp211
g27
(dp212
g29
Vof
p213
sg31
VO
p214
sg33
VIN
p215
sg35
I18
ssg10
I17
sg36
g4
sg37
(dp216
sg39
(dp217
sg41
I105
sg42
g21
sg43
g21
sg44
I17
sg45
Vof
p218
sg47
I17
sg48
I107
sbag0
(g23
g2
Ntp219
Rp220
(dp221
g27
(dp222
g29
Vaffirmative
p223
sg31
VO
p224
sg33
VJJ
p225
sg35
I19
ssg10
I18
sg36
g4
sg37
(dp226
sg39
(dp227
sg41
I108
sg42
g21
sg43
g21
sg44
I18
sg45
Vaffirmative
p228
sg47
I18
sg48
I119
sbag0
(g23
g2
Ntp229
Rp230
(dp231
g27
(dp232
g29
Vaction
p233
sg31
VO
p234
sg33
VNN
p235
sg35
I20
ssg10
I19
sg36
g4
sg37
(dp236
sg39
(dp237
sg41
I120
sg42
g21
sg43
g21
sg44
I19
sg45
Vaction
p238
sg47
I19
sg48
I126
sbag0
(g23
g2
Ntp239
Rp240
(dp241
g27
(dp242
g29
Vpolicy
p243
sg31
VO
p244
sg33
VNNS
p245
sg35
I21
ssg10
I20
sg36
g4
sg37
(dp246
sg39
(dp247
sg41
I127
sg42
g21
sg43
g21
sg44
I20
sg45
Vpolicies
p248
sg47
I20
sg48
I135
sbag0
(g23
g2
Ntp249
Rp250
(dp251
g27
(dp252
g29
V,
p253
sg31
VO
p254
sg33
V,
p255
sg35
I22
ssg10
I21
sg36
g4
sg37
(dp256
sg39
(dp257
sg41
I135
sg42
g21
sg43
g21
sg44
I21
sg45
V,
p258
sg47
I21
sg48
I136
sbag0
(g23
g2
Ntp259
Rp260
(dp261
g27
(dp262
g29
Vespecially
p263
sg31
VO
p264
sg33
VRB
p265
sg35
I23
ssg10
I22
sg36
g4
sg37
(dp266
sg39
(dp267
sg41
I137
sg42
g21
sg43
g21
sg44
I22
sg45
Vespecially
p268
sg47
I22
sg48
I147
sbag0
(g23
g2
Ntp269
Rp270
(dp271
g27
(dp272
g29
Vas
p273
sg31
VO
p274
sg33
VIN
p275
sg35
I24
ssg10
I23
sg36
g4
sg37
(dp276
sg39
(dp277
sg41
I148
sg42
g21
sg43
g21
sg44
I23
sg45
Vas
p278
sg47
I23
sg48
I150
sbag0
(g23
g2
Ntp279
Rp280
(dp281
g27
(dp282
g29
Vthey
p283
sg31
VO
p284
sg33
VPRP
p285
sg35
I25
ssg10
I24
sg36
g4
sg37
(dp286
sg39
(dp287
sg41
I151
sg42
g21
sg43
g21
sg44
I24
sg45
Vthey
p288
sg47
I24
sg48
I155
sbag0
(g23
g2
Ntp289
Rp290
(dp291
g27
(dp292
g29
Vrelate
p293
sg31
VO
p294
sg33
VVBP
p295
sg35
I26
ssg10
I25
sg36
g4
sg37
(dp296
sg39
(dp297
sg41
I156
sg42
g21
sg43
g21
sg44
I25
sg45
Vrelate
p298
sg47
I25
sg48
I162
sbag0
(g23
g2
Ntp299
Rp300
(dp301
g27
(dp302
g29
Vto
p303
sg31
VO
p304
sg33
VTO
p305
sg35
I27
ssg10
I26
sg36
g4
sg37
(dp306
sg39
(dp307
sg41
I163
sg42
g21
sg43
g21
sg44
I26
sg45
Vto
p308
sg47
I26
sg48
I165
sbag0
(g23
g2
Ntp309
Rp310
(dp311
g27
(dp312
g29
Vcollege
p313
sg31
VO
p314
sg33
VNN
p315
sg35
I28
ssg10
I27
sg36
g4
sg37
(dp316
sg39
(dp317
sg41
I166
sg42
g21
sg43
g21
sg44
I27
sg45
Vcollege
p318
sg47
I27
sg48
I173
sbag0
(g23
g2
Ntp319
Rp320
(dp321
g27
(dp322
g29
Vand
p323
sg31
VO
p324
sg33
VCC
p325
sg35
I29
ssg10
I28
sg36
g4
sg37
(dp326
sg39
(dp327
sg41
I174
sg42
g21
sg43
g21
sg44
I28
sg45
Vand
p328
sg47
I28
sg48
I177
sbag0
(g23
g2
Ntp329
Rp330
(dp331
g27
(dp332
g29
Vgraduate
p333
sg31
VO
p334
sg33
VJJ
p335
sg35
I30
ssg10
I29
sg36
g4
sg37
(dp336
sg39
(dp337
sg41
I178
sg42
g21
sg43
g21
sg44
I29
sg45
Vgraduate
p338
sg47
I29
sg48
I186
sbag0
(g23
g2
Ntp339
Rp340
(dp341
g27
(dp342
g29
Vschool
p343
sg31
VO
p344
sg33
VNN
p345
sg35
I31
ssg10
I30
sg36
g4
sg37
(dp346
sg39
(dp347
sg41
I187
sg42
g21
sg43
g21
sg44
I30
sg45
Vschool
p348
sg47
I30
sg48
I193
sbag0
(g23
g2
Ntp349
Rp350
(dp351
g27
(dp352
g29
Vadmission
p353
sg31
VO
p354
sg33
VNNS
p355
sg35
I32
ssg10
I31
sg36
g4
sg37
(dp356
sg39
(dp357
sg41
I194
sg42
g21
sg43
g21
sg44
I31
sg45
Vadmissions
p358
sg47
I31
sg48
I204
sbag0
(g23
g2
Ntp359
Rp360
(dp361
g27
(dp362
g29
V.
p363
sg31
VO
p364
sg33
V.
p365
sg35
I33
ssg10
I32
sg36
g4
sg37
(dp366
sg39
(dp367
sg41
I204
sg42
g21
sg43
g21
sg44
I32
sg45
V.
p368
sg47
I32
sg48
I205
sbag0
(g23
g2
Ntp369
Rp370
(dp371
g27
(dp372
g29
Vaccord
p373
sg31
VO
p374
sg33
VVBG
p375
sg35
I1
ssg10
I33
sg36
g4
sg37
(dp376
sg39
(dp377
sg41
I206
sg42
g21
sg43
g21
sg44
I33
sg45
VAccording
p378
sg47
I33
sg48
I215
sbag0
(g23
g2
Ntp379
Rp380
(dp381
g27
(dp382
g29
Vto
p383
sg31
VO
p384
sg33
VTO
p385
sg35
I2
ssg10
I34
sg36
g4
sg37
(dp386
sg39
(dp387
sg41
I216
sg42
g21
sg43
g21
sg44
I34
sg45
Vto
p388
sg47
I34
sg48
I218
sbag0
(g23
g2
Ntp389
Rp390
(dp391
g27
(dp392
g29
Vone
p393
sg31
VNUMBER
p394
sg33
VCD
p395
sg35
I3
ssg10
I35
sg36
g4
sg37
(dp396
sg39
(dp397
sg41
I219
sg42
g21
sg43
g21
sg44
I35
sg45
Vone
p398
sg47
I35
sg48
I222
sbag0
(g23
g2
Ntp399
Rp400
(dp401
g27
(dp402
g29
Vbake
p403
sg31
VO
p404
sg33
VNN
p405
sg35
I4
ssg10
I36
sg36
g4
sg37
(dp406
sg39
(dp407
sg41
I223
sg42
g21
sg43
g21
sg44
I36
sg45
Vbake
p408
sg47
I36
sg48
I227
sbag0
(g23
g2
Ntp409
Rp410
(dp411
g27
(dp412
g29
Vsale
p413
sg31
VO
p414
sg33
VNN
p415
sg35
I5
ssg10
I37
sg36
g4
sg37
(dp416
sg39
(dp417
sg41
I228
sg42
g21
sg43
g21
sg44
I37
sg45
Vsale
p418
sg47
I37
sg48
I232
sbag0
(g23
g2
Ntp419
Rp420
(dp421
g27
(dp422
g29
Vstudent
p423
sg31
VO
p424
sg33
VNN
p425
sg35
I6
ssg10
I38
sg36
g4
sg37
(dp426
sg39
(dp427
sg41
I233
sg42
g21
sg43
g21
sg44
I38
sg45
Vstudent
p428
sg47
I38
sg48
I240
sbag0
(g23
g2
Ntp429
Rp430
(dp431
g27
(dp432
g29
Vleader
p433
sg31
VO
p434
sg33
VNN
p435
sg35
I7
ssg10
I39
sg36
g4
sg37
(dp436
sg39
(dp437
sg41
I241
sg42
g21
sg43
g21
sg44
I39
sg45
Vleader
p438
sg47
I39
sg48
I247
sbag0
(g23
g2
Ntp439
Rp440
(dp441
g27
(dp442
g29
V,
p443
sg31
VO
p444
sg33
V,
p445
sg35
I8
ssg10
I40
sg36
g4
sg37
(dp446
sg39
(dp447
sg41
I247
sg42
g21
sg43
g21
sg44
I40
sg45
V,
p448
sg47
I40
sg48
I248
sbag0
(g23
g2
Ntp449
Rp450
(dp451
g27
(dp452
g29
Vthe
p453
sg31
VO
p454
sg33
VDT
p455
sg35
I9
ssg10
I41
sg36
g4
sg37
(dp456
sg39
(dp457
sg41
I249
sg42
g21
sg43
g21
sg44
I41
sg45
Vthe
p458
sg47
I41
sg48
I252
sbag0
(g23
g2
Ntp459
Rp460
(dp461
g27
(dp462
g29
Vgoal
p463
sg31
VO
p464
sg33
VNN
p465
sg35
I10
ssg10
I42
sg36
g4
sg37
(dp466
sg39
(dp467
sg41
I253
sg42
g21
sg43
g21
sg44
I42
sg45
Vgoal
p468
sg47
I42
sg48
I257
sbag0
(g23
g2
Ntp469
Rp470
(dp471
g27
(dp472
g29
Vof
p473
sg31
VO
p474
sg33
VIN
p475
sg35
I11
ssg10
I43
sg36
g4
sg37
(dp476
sg39
(dp477
sg41
I258
sg42
g21
sg43
g21
sg44
I43
sg45
Vof
p478
sg47
I43
sg48
I260
sbag0
(g23
g2
Ntp479
Rp480
(dp481
g27
(dp482
g29
Vthe
p483
sg31
VO
p484
sg33
VDT
p485
sg35
I12
ssg10
I44
sg36
g4
sg37
(dp486
sg39
(dp487
sg41
I261
sg42
g21
sg43
g21
sg44
I44
sg45
Vthe
p488
sg47
I44
sg48
I264
sbag0
(g23
g2
Ntp489
Rp490
(dp491
g27
(dp492
g29
Vtechnique
p493
sg31
VO
p494
sg33
VNN
p495
sg35
I13
ssg10
I45
sg36
g4
sg37
(dp496
sg39
(dp497
sg41
I265
sg42
g21
sg43
g21
sg44
I45
sg45
Vtechnique
p498
sg47
I45
sg48
I274
sbag0
(g23
g2
Ntp499
Rp500
(dp501
g27
(dp502
g29
Vbe
p503
sg31
VO
p504
sg33
VVBZ
p505
sg35
I14
ssg10
I46
sg36
g4
sg37
(dp506
sg39
(dp507
sg41
I275
sg42
g21
sg43
g21
sg44
I46
sg45
Vis
p508
sg47
I46
sg48
I277
sbag0
(g23
g2
Ntp509
Rp510
(dp511
g27
(dp512
g29
Vto
p513
sg31
VO
p514
sg33
VTO
p515
sg35
I15
ssg10
I47
sg36
g4
sg37
(dp516
sg39
(dp517
sg41
I278
sg42
g21
sg43
g21
sg44
I47
sg45
Vto
p518
sg47
I47
sg48
I280
sbag0
(g23
g2
Ntp519
Rp520
(dp521
g27
(dp522
g29
V``
p523
sg31
VO
p524
sg33
V``
p525
sg35
I16
ssg10
I48
sg36
g4
sg37
(dp526
sg39
(dp527
sg41
I281
sg42
g21
sg43
g21
sg44
I48
sg45
V"
p528
sg47
I48
sg48
I282
sbag0
(g23
g2
Ntp529
Rp530
(dp531
g27
(dp532
g29
Vbring
p533
sg31
VO
p534
sg33
VVB
p535
sg35
I17
ssg10
I49
sg36
g4
sg37
(dp536
sg39
(dp537
sg41
I282
sg42
g21
sg43
g21
sg44
I49
sg45
Vbring
p538
sg47
I49
sg48
I287
sbag0
(g23
g2
Ntp539
Rp540
(dp541
g27
(dp542
g29
Vthe
p543
sg31
VO
p544
sg33
VDT
p545
sg35
I18
ssg10
I50
sg36
g4
sg37
(dp546
sg39
(dp547
sg41
I288
sg42
g21
sg43
g21
sg44
I50
sg45
Vthe
p548
sg47
I50
sg48
I291
sbag0
(g23
g2
Ntp549
Rp550
(dp551
g27
(dp552
g29
Vissue
p553
sg31
VO
p554
sg33
VNN
p555
sg35
I19
ssg10
I51
sg36
g4
sg37
(dp556
sg39
(dp557
sg41
I292
sg42
g21
sg43
g21
sg44
I51
sg45
Vissue
p558
sg47
I51
sg48
I297
sbag0
(g23
g2
Ntp559
Rp560
(dp561
g27
(dp562
g29
Vof
p563
sg31
VO
p564
sg33
VIN
p565
sg35
I20
ssg10
I52
sg36
g4
sg37
(dp566
sg39
(dp567
sg41
I298
sg42
g21
sg43
g21
sg44
I52
sg45
Vof
p568
sg47
I52
sg48
I300
sbag0
(g23
g2
Ntp569
Rp570
(dp571
g27
(dp572
g29
Vaffirmative
p573
sg31
VO
p574
sg33
VJJ
p575
sg35
I21
ssg10
I53
sg36
g4
sg37
(dp576
sg39
(dp577
sg41
I301
sg42
g21
sg43
g21
sg44
I53
sg45
Vaffirmative
p578
sg47
I53
sg48
I312
sbag0
(g23
g2
Ntp579
Rp580
(dp581
g27
(dp582
g29
Vaction
p583
sg31
VO
p584
sg33
VNN
p585
sg35
I22
ssg10
I54
sg36
g4
sg37
(dp586
sg39
(dp587
sg41
I313
sg42
g21
sg43
g21
sg44
I54
sg45
Vaction
p588
sg47
I54
sg48
I319
sbag0
(g23
g2
Ntp589
Rp590
(dp591
g27
(dp592
g29
Vdown
p593
sg31
VO
p594
sg33
VIN
p595
sg35
I23
ssg10
I55
sg36
g4
sg37
(dp596
sg39
(dp597
sg41
I320
sg42
g21
sg43
g21
sg44
I55
sg45
Vdown
p598
sg47
I55
sg48
I324
sbag0
(g23
g2
Ntp599
Rp600
(dp601
g27
(dp602
g29
Vto
p603
sg31
VO
p604
sg33
VTO
p605
sg35
I24
ssg10
I56
sg36
g4
sg37
(dp606
sg39
(dp607
sg41
I325
sg42
g21
sg43
g21
sg44
I56
sg45
Vto
p608
sg47
I56
sg48
I327
sbag0
(g23
g2
Ntp609
Rp610
(dp611
g27
(dp612
g29
Veveryday
p613
sg31
VO
p614
sg33
VJJ
p615
sg35
I25
ssg10
I57
sg36
g4
sg37
(dp616
sg39
(dp617
sg41
I328
sg42
g21
sg43
g21
sg44
I57
sg45
Veveryday
p618
sg47
I57
sg48
I336
sbag0
(g23
g2
Ntp619
Rp620
(dp621
g27
(dp622
g29
Vterm
p623
sg31
VO
p624
sg33
VNNS
p625
sg35
I26
ssg10
I58
sg36
g4
sg37
(dp626
sg39
(dp627
sg41
I337
sg42
g21
sg43
g21
sg44
I58
sg45
Vterms
p628
sg47
I58
sg48
I342
sbag0
(g23
g2
Ntp629
Rp630
(dp631
g27
(dp632
g29
V.
p633
sg31
VO
p634
sg33
V.
p635
sg35
I27
ssg10
I59
sg36
g4
sg37
(dp636
sg39
(dp637
sg41
I342
sg42
g21
sg43
g21
sg44
I59
sg45
V.
p638
sg47
I59
sg48
I343
sbag0
(g23
g2
Ntp639
Rp640
(dp641
g27
(dp642
g29
V''
p643
sg31
VO
p644
sg33
V''
p645
sg35
I28
ssg10
I60
sg36
g4
sg37
(dp646
sg39
(dp647
sg41
I343
sg42
g21
sg43
g21
sg44
I60
sg45
g528
sg47
I60
sg48
I344
sbag0
(g23
g2
Ntp648
Rp649
(dp650
g27
(dp651
g29
V-lsb-
p652
sg31
VO
p653
sg33
V-LRB-
p654
sg35
I1
ssg10
I61
sg36
g4
sg37
(dp655
sg39
(dp656
sg41
I345
sg42
g21
sg43
g21
sg44
I61
sg45
V[
p657
sg47
I61
sg48
I346
sbag0
(g23
g2
Ntp658
Rp659
(dp660
g27
(dp661
g29
Vref
p662
sg31
VO
p663
sg33
VNN
p664
sg35
I2
ssg10
I62
sg36
g4
sg37
(dp665
sg39
(dp666
sg41
I346
sg42
g21
sg43
g21
sg44
I62
sg45
VREF
p667
sg47
I62
sg48
I349
sbag0
(g23
g2
Ntp668
Rp669
(dp670
g27
(dp671
g29
V-rsb-
p672
sg31
VO
p673
sg33
V-RRB-
p674
sg35
I3
ssg10
I63
sg36
g4
sg37
(dp675
sg39
(dp676
sg41
I349
sg42
g21
sg43
g21
sg44
I63
sg45
V]
p677
sg47
I63
sg48
I350
sbag0
(g23
g2
Ntp678
Rp679
(dp680
g27
(dp681
g29
V.
p682
sg31
VO
p683
sg33
V.
p684
sg35
I4
ssg10
I64
sg36
g4
sg37
(dp685
sg39
(dp686
sg41
I351
sg42
g21
sg43
g21
sg44
I64
sg45
V.
p687
sg47
I64
sg48
I352
sbag0
(g23
g2
Ntp688
Rp689
(dp690
g27
(dp691
g29
Vthe
p692
sg31
VO
p693
sg33
VDT
p694
sg35
I1
ssg10
I65
sg36
g4
sg37
(dp695
sg39
(dp696
sg41
I355
sg42
g21
sg43
g21
sg44
I65
sg45
VThe
p697
sg47
I65
sg48
I358
sbag0
(g23
g2
Ntp698
Rp699
(dp700
g27
(dp701
g29
Vbake
p702
sg31
VO
p703
sg33
VJJ
p704
sg35
I2
ssg10
I66
sg36
g4
sg37
(dp705
sg39
(dp706
sg41
I359
sg42
g21
sg43
g21
sg44
I66
sg45
Vbake
p707
sg47
I66
sg48
I363
sbag0
(g23
g2
Ntp708
Rp709
(dp710
g27
(dp711
g29
Vsale
p712
sg31
VO
p713
sg33
VNNS
p714
sg35
I3
ssg10
I67
sg36
g4
sg37
(dp715
sg39
(dp716
sg41
I364
sg42
g21
sg43
g21
sg44
I67
sg45
Vsales
p717
sg47
I67
sg48
I369
sbag0
(g23
g2
Ntp718
Rp719
(dp720
g27
(dp721
g29
Voffer
p722
sg31
VO
p723
sg33
VVBP
p724
sg35
I4
ssg10
I68
sg36
g4
sg37
(dp725
sg39
(dp726
sg41
I370
sg42
g21
sg43
g21
sg44
I68
sg45
Voffer
p727
sg47
I68
sg48
I375
sbag0
(g23
g2
Ntp728
Rp729
(dp730
g27
(dp731
g29
Vto
p732
sg31
VO
p733
sg33
VTO
p734
sg35
I5
ssg10
I69
sg36
g4
sg37
(dp735
sg39
(dp736
sg41
I376
sg42
g21
sg43
g21
sg44
I69
sg45
Vto
p737
sg47
I69
sg48
I378
sbag0
(g23
g2
Ntp738
Rp739
(dp740
g27
(dp741
g29
Vsell
p742
sg31
VO
p743
sg33
VVB
p744
sg35
I6
ssg10
I70
sg36
g4
sg37
(dp745
sg39
(dp746
sg41
I379
sg42
g21
sg43
g21
sg44
I70
sg45
Vsell
p747
sg47
I70
sg48
I383
sbag0
(g23
g2
Ntp748
Rp749
(dp750
g27
(dp751
g29
Vcookie
p752
sg31
VO
p753
sg33
VNNS
p754
sg35
I7
ssg10
I71
sg36
g4
sg37
(dp755
sg39
(dp756
sg41
I384
sg42
g21
sg43
g21
sg44
I71
sg45
Vcookies
p757
sg47
I71
sg48
I391
sbag0
(g23
g2
Ntp758
Rp759
(dp760
g27
(dp761
g29
Vat
p762
sg31
VO
p763
sg33
VIN
p764
sg35
I8
ssg10
I72
sg36
g4
sg37
(dp765
sg39
(dp766
sg41
I392
sg42
g21
sg43
g21
sg44
I72
sg45
Vat
p767
sg47
I72
sg48
I394
sbag0
(g23
g2
Ntp768
Rp769
(dp770
g27
(dp771
g29
Vdifferent
p772
sg31
VO
p773
sg33
VJJ
p774
sg35
I9
ssg10
I73
sg36
g4
sg37
(dp775
sg39
(dp776
sg41
I395
sg42
g21
sg43
g21
sg44
I73
sg45
Vdifferent
p777
sg47
I73
sg48
I404
sbag0
(g23
g2
Ntp778
Rp779
(dp780
g27
(dp781
g29
Vprice
p782
sg31
VO
p783
sg33
VNNS
p784
sg35
I10
ssg10
I74
sg36
g4
sg37
(dp785
sg39
(dp786
sg41
I405
sg42
g21
sg43
g21
sg44
I74
sg45
Vprices
p787
sg47
I74
sg48
I411
sbag0
(g23
g2
Ntp788
Rp789
(dp790
g27
(dp791
g29
Vdepend
p792
sg31
VO
p793
sg33
VVBG
p794
sg35
I11
ssg10
I75
sg36
g4
sg37
(dp795
sg39
(dp796
sg41
I412
sg42
g21
sg43
g21
sg44
I75
sg45
Vdepending
p797
sg47
I75
sg48
I421
sbag0
(g23
g2
Ntp798
Rp799
(dp800
g27
(dp801
g29
Von
p802
sg31
VO
p803
sg33
VIN
p804
sg35
I12
ssg10
I76
sg36
g4
sg37
(dp805
sg39
(dp806
sg41
I422
sg42
g21
sg43
g21
sg44
I76
sg45
Von
p807
sg47
I76
sg48
I424
sbag0
(g23
g2
Ntp808
Rp809
(dp810
g27
(dp811
g29
Vthe
p812
sg31
VO
p813
sg33
VDT
p814
sg35
I13
ssg10
I77
sg36
g4
sg37
(dp815
sg39
(dp816
sg41
I425
sg42
g21
sg43
g21
sg44
I77
sg45
Vthe
p817
sg47
I77
sg48
I428
sbag0
(g23
g2
Ntp818
Rp819
(dp820
g27
(dp821
g29
Vcustomer
p822
sg31
VO
p823
sg33
VNN
p824
sg35
I14
ssg10
I78
sg36
g4
sg37
(dp825
sg39
(dp826
sg41
I429
sg42
g21
sg43
g21
sg44
I78
sg45
Vcustomer
p827
sg47
I78
sg48
I437
sbag0
(g23
g2
Ntp828
Rp829
(dp830
g27
(dp831
g29
V's
p832
sg31
VO
p833
sg33
VPOS
p834
sg35
I15
ssg10
I79
sg36
g4
sg37
(dp835
sg39
(dp836
sg41
I437
sg42
g21
sg43
g21
sg44
I79
sg45
V's
p837
sg47
I79
sg48
I439
sbag0
(g23
g2
Ntp838
Rp839
(dp840
g27
(dp841
g29
Vrace
p842
sg31
VO
p843
sg33
VNN
p844
sg35
I16
ssg10
I80
sg36
g4
sg37
(dp845
sg39
(dp846
sg41
I440
sg42
g21
sg43
g21
sg44
I80
sg45
Vrace
p847
sg47
I80
sg48
I444
sbag0
(g23
g2
Ntp848
Rp849
(dp850
g27
(dp851
g29
Vand
p852
sg31
VO
p853
sg33
VCC
p854
sg35
I17
ssg10
I81
sg36
g4
sg37
(dp855
sg39
(dp856
sg41
I445
sg42
g21
sg43
g21
sg44
I81
sg45
Vand
p857
sg47
I81
sg48
I448
sbag0
(g23
g2
Ntp858
Rp859
(dp860
g27
(dp861
g29
Vsex
p862
sg31
VO
p863
sg33
VNN
p864
sg35
I18
ssg10
I82
sg36
g4
sg37
(dp865
sg39
(dp866
sg41
I449
sg42
g21
sg43
g21
sg44
I82
sg45
Vsex
p867
sg47
I82
sg48
I452
sbag0
(g23
g2
Ntp868
Rp869
(dp870
g27
(dp871
g29
V,
p872
sg31
VO
p873
sg33
V,
p874
sg35
I19
ssg10
I83
sg36
g4
sg37
(dp875
sg39
(dp876
sg41
I452
sg42
g21
sg43
g21
sg44
I83
sg45
V,
p877
sg47
I83
sg48
I453
sbag0
(g23
g2
Ntp878
Rp879
(dp880
g27
(dp881
g29
Vimitate
p882
sg31
VO
p883
sg33
VVBG
p884
sg35
I20
ssg10
I84
sg36
g4
sg37
(dp885
sg39
(dp886
sg41
I454
sg42
g21
sg43
g21
sg44
I84
sg45
Vimitating
p887
sg47
I84
sg48
I463
sbag0
(g23
g2
Ntp888
Rp889
(dp890
g27
(dp891
g29
Vthe
p892
sg31
VO
p893
sg33
VDT
p894
sg35
I21
ssg10
I85
sg36
g4
sg37
(dp895
sg39
(dp896
sg41
I464
sg42
g21
sg43
g21
sg44
I85
sg45
Vthe
p897
sg47
I85
sg48
I467
sbag0
(g23
g2
Ntp898
Rp899
(dp900
g27
(dp901
g29
Vracial
p902
sg31
VO
p903
sg33
VJJ
p904
sg35
I22
ssg10
I86
sg36
g4
sg37
(dp905
sg39
(dp906
sg41
I468
sg42
g21
sg43
g21
sg44
I86
sg45
Vracial
p907
sg47
I86
sg48
I474
sbag0
(g23
g2
Ntp908
Rp909
(dp910
g27
(dp911
g29
Vand
p912
sg31
VO
p913
sg33
VCC
p914
sg35
I23
ssg10
I87
sg36
g4
sg37
(dp915
sg39
(dp916
sg41
I475
sg42
g21
sg43
g21
sg44
I87
sg45
Vand
p917
sg47
I87
sg48
I478
sbag0
(g23
g2
Ntp918
Rp919
(dp920
g27
(dp921
g29
Vsexual
p922
sg31
VO
p923
sg33
VJJ
p924
sg35
I24
ssg10
I88
sg36
g4
sg37
(dp925
sg39
(dp926
sg41
I479
sg42
g21
sg43
g21
sg44
I88
sg45
Vsexual
p927
sg47
I88
sg48
I485
sbag0
(g23
g2
Ntp928
Rp929
(dp930
g27
(dp931
g29
Vpreference
p932
sg31
VO
p933
sg33
VNN
p934
sg35
I25
ssg10
I89
sg36
g4
sg37
(dp935
sg39
(dp936
sg41
I486
sg42
g21
sg43
g21
sg44
I89
sg45
Vpreference
p937
sg47
I89
sg48
I496
sbag0
(g23
g2
Ntp938
Rp939
(dp940
g27
(dp941
g29
Vpractice
p942
sg31
VO
p943
sg33
VNNS
p944
sg35
I26
ssg10
I90
sg36
g4
sg37
(dp945
sg39
(dp946
sg41
I497
sg42
g21
sg43
g21
sg44
I90
sg45
Vpractices
p947
sg47
I90
sg48
I506
sbag0
(g23
g2
Ntp948
Rp949
(dp950
g27
(dp951
g29
Vof
p952
sg31
VO
p953
sg33
VIN
p954
sg35
I27
ssg10
I91
sg36
g4
sg37
(dp955
sg39
(dp956
sg41
I507
sg42
g21
sg43
g21
sg44
I91
sg45
Vof
p957
sg47
I91
sg48
I509
sbag0
(g23
g2
Ntp958
Rp959
(dp960
g27
(dp961
g29
Vaffirmative
p962
sg31
VO
p963
sg33
VJJ
p964
sg35
I28
ssg10
I92
sg36
g4
sg37
(dp965
sg39
(dp966
sg41
I510
sg42
g21
sg43
g21
sg44
I92
sg45
Vaffirmative
p967
sg47
I92
sg48
I521
sbag0
(g23
g2
Ntp968
Rp969
(dp970
g27
(dp971
g29
Vaction
p972
sg31
VO
p973
sg33
VNN
p974
sg35
I29
ssg10
I93
sg36
g4
sg37
(dp975
sg39
(dp976
sg41
I522
sg42
g21
sg43
g21
sg44
I93
sg45
Vaction
p977
sg47
I93
sg48
I528
sbag0
(g23
g2
Ntp978
Rp979
(dp980
g27
(dp981
g29
V.
p982
sg31
VO
p983
sg33
V.
p984
sg35
I30
ssg10
I94
sg36
g4
sg37
(dp985
sg39
(dp986
sg41
I528
sg42
g21
sg43
g21
sg44
I94
sg45
V.
p987
sg47
I94
sg48
I529
sbag0
(g23
g2
Ntp988
Rp989
(dp990
g27
(dp991
g29
Vone
p992
sg31
VNUMBER
p993
sg33
VCD
p994
sg35
I1
ssg10
I95
sg36
g4
sg37
(dp995
sg39
(dp996
sg41
I530
sg42
g21
sg43
g21
sg44
I95
sg45
VOne
p997
sg47
I95
sg48
I533
sbag0
(g23
g2
Ntp998
Rp999
(dp1000
g27
(dp1001
g29
Videa
p1002
sg31
VO
p1003
sg33
VNN
p1004
sg35
I2
ssg10
I96
sg36
g4
sg37
(dp1005
sg39
(dp1006
sg41
I534
sg42
g21
sg43
g21
sg44
I96
sg45
Videa
p1007
sg47
I96
sg48
I538
sbag0
(g23
g2
Ntp1008
Rp1009
(dp1010
g27
(dp1011
g29
Vof
p1012
sg31
VO
p1013
sg33
VIN
p1014
sg35
I3
ssg10
I97
sg36
g4
sg37
(dp1015
sg39
(dp1016
sg41
I539
sg42
g21
sg43
g21
sg44
I97
sg45
Vof
p1017
sg47
I97
sg48
I541
sbag0
(g23
g2
Ntp1018
Rp1019
(dp1020
g27
(dp1021
g29
Vsuch
p1022
sg31
VO
p1023
sg33
VJJ
p1024
sg35
I4
ssg10
I98
sg36
g4
sg37
(dp1025
sg39
(dp1026
sg41
I542
sg42
g21
sg43
g21
sg44
I98
sg45
Vsuch
p1027
sg47
I98
sg48
I546
sbag0
(g23
g2
Ntp1028
Rp1029
(dp1030
g27
(dp1031
g29
Vbake
p1032
sg31
VO
p1033
sg33
VJJ
p1034
sg35
I5
ssg10
I99
sg36
g4
sg37
(dp1035
sg39
(dp1036
sg41
I547
sg42
g21
sg43
g21
sg44
I99
sg45
Vbake
p1037
sg47
I99
sg48
I551
sbag0
(g23
g2
Ntp1038
Rp1039
(dp1040
g27
(dp1041
g29
Vsale
p1042
sg31
VO
p1043
sg33
VNNS
p1044
sg35
I6
ssg10
I100
sg36
g4
sg37
(dp1045
sg39
(dp1046
sg41
I552
sg42
g21
sg43
g21
sg44
I100
sg45
Vsales
p1047
sg47
I100
sg48
I557
sbag0
(g23
g2
Ntp1048
Rp1049
(dp1050
g27
(dp1051
g29
Vbe
p1052
sg31
VO
p1053
sg33
VVBZ
p1054
sg35
I7
ssg10
I101
sg36
g4
sg37
(dp1055
sg39
(dp1056
sg41
I558
sg42
g21
sg43
g21
sg44
I101
sg45
Vis
p1057
sg47
I101
sg48
I560
sbag0
(g23
g2
Ntp1058
Rp1059
(dp1060
g27
(dp1061
g29
Vto
p1062
sg31
VO
p1063
sg33
VTO
p1064
sg35
I8
ssg10
I102
sg36
g4
sg37
(dp1065
sg39
(dp1066
sg41
I561
sg42
g21
sg43
g21
sg44
I102
sg45
Vto
p1067
sg47
I102
sg48
I563
sbag0
(g23
g2
Ntp1068
Rp1069
(dp1070
g27
(dp1071
g29
Vdemonstrate
p1072
sg31
VO
p1073
sg33
VVB
p1074
sg35
I9
ssg10
I103
sg36
g4
sg37
(dp1075
sg39
(dp1076
sg41
I564
sg42
g21
sg43
g21
sg44
I103
sg45
Vdemonstrate
p1077
sg47
I103
sg48
I575
sbag0
(g23
g2
Ntp1078
Rp1079
(dp1080
g27
(dp1081
g29
Vanalogy
p1082
sg31
VO
p1083
sg33
VNNS
p1084
sg35
I10
ssg10
I104
sg36
g4
sg37
(dp1085
sg39
(dp1086
sg41
I576
sg42
g21
sg43
g21
sg44
I104
sg45
Vanalogies
p1087
sg47
I104
sg48
I585
sbag0
(g23
g2
Ntp1088
Rp1089
(dp1090
g27
(dp1091
g29
Vbetween
p1092
sg31
VO
p1093
sg33
VIN
p1094
sg35
I11
ssg10
I105
sg36
g4
sg37
(dp1095
sg39
(dp1096
sg41
I586
sg42
g21
sg43
g21
sg44
I105
sg45
Vbetween
p1097
sg47
I105
sg48
I593
sbag0
(g23
g2
Ntp1098
Rp1099
(dp1100
g27
(dp1101
g29
Vprice
p1102
sg31
VO
p1103
sg33
VNN
p1104
sg35
I12
ssg10
I106
sg36
g4
sg37
(dp1105
sg39
(dp1106
sg41
I594
sg42
g21
sg43
g21
sg44
I106
sg45
Vprice
p1107
sg47
I106
sg48
I599
sbag0
(g23
g2
Ntp1108
Rp1109
(dp1110
g27
(dp1111
g29
Vdiscrimination
p1112
sg31
VO
p1113
sg33
VNN
p1114
sg35
I13
ssg10
I107
sg36
g4
sg37
(dp1115
sg39
(dp1116
sg41
I600
sg42
g21
sg43
g21
sg44
I107
sg45
Vdiscrimination
p1117
sg47
I107
sg48
I614
sbag0
(g23
g2
Ntp1118
Rp1119
(dp1120
g27
(dp1121
g29
Vand
p1122
sg31
VO
p1123
sg33
VCC
p1124
sg35
I14
ssg10
I108
sg36
g4
sg37
(dp1125
sg39
(dp1126
sg41
I615
sg42
g21
sg43
g21
sg44
I108
sg45
Vand
p1127
sg47
I108
sg48
I618
sbag0
(g23
g2
Ntp1128
Rp1129
(dp1130
g27
(dp1131
g29
Vaffirmative
p1132
sg31
VO
p1133
sg33
VJJ
p1134
sg35
I15
ssg10
I109
sg36
g4
sg37
(dp1135
sg39
(dp1136
sg41
I619
sg42
g21
sg43
g21
sg44
I109
sg45
Vaffirmative
p1137
sg47
I109
sg48
I630
sbag0
(g23
g2
Ntp1138
Rp1139
(dp1140
g27
(dp1141
g29
Vaction
p1142
sg31
VO
p1143
sg33
VNN
p1144
sg35
I16
ssg10
I110
sg36
g4
sg37
(dp1145
sg39
(dp1146
sg41
I631
sg42
g21
sg43
g21
sg44
I110
sg45
Vaction
p1147
sg47
I110
sg48
I637
sbag0
(g23
g2
Ntp1148
Rp1149
(dp1150
g27
(dp1151
g29
V.
p1152
sg31
VO
p1153
sg33
V.
p1154
sg35
I17
ssg10
I111
sg36
g4
sg37
(dp1155
sg39
(dp1156
sg41
I637
sg42
g21
sg43
g21
sg44
I111
sg45
V.
p1157
sg47
I111
sg48
I638
sbag0
(g23
g2
Ntp1158
Rp1159
(dp1160
g27
(dp1161
g29
Va
p1162
sg31
VO
p1163
sg33
VDT
p1164
sg35
I1
ssg10
I112
sg36
g4
sg37
(dp1165
sg39
(dp1166
sg41
I639
sg42
g21
sg43
g21
sg44
I112
sg45
VA
p1167
sg47
I112
sg48
I640
sbag0
(g23
g2
Ntp1168
Rp1169
(dp1170
g27
(dp1171
g29
Vtypical
p1172
sg31
VO
p1173
sg33
VJJ
p1174
sg35
I2
ssg10
I113
sg36
g4
sg37
(dp1175
sg39
(dp1176
sg41
I641
sg42
g21
sg43
g21
sg44
I113
sg45
Vtypical
p1177
sg47
I113
sg48
I648
sbag0
(g23
g2
Ntp1178
Rp1179
(dp1180
g27
(dp1181
g29
Vpricing
p1182
sg31
VO
p1183
sg33
VNN
p1184
sg35
I3
ssg10
I114
sg36
g4
sg37
(dp1185
sg39
(dp1186
sg41
I649
sg42
g21
sg43
g21
sg44
I114
sg45
Vpricing
p1187
sg47
I114
sg48
I656
sbag0
(g23
g2
Ntp1188
Rp1189
(dp1190
g27
(dp1191
g29
Vstructure
p1192
sg31
VO
p1193
sg33
VNN
p1194
sg35
I4
ssg10
I115
sg36
g4
sg37
(dp1195
sg39
(dp1196
sg41
I657
sg42
g21
sg43
g21
sg44
I115
sg45
Vstructure
p1197
sg47
I115
sg48
I666
sbag0
(g23
g2
Ntp1198
Rp1199
(dp1200
g27
(dp1201
g29
Vcharge
p1202
sg31
VO
p1203
sg33
VVBZ
p1204
sg35
I5
ssg10
I116
sg36
g4
sg37
(dp1205
sg39
(dp1206
sg41
I667
sg42
g21
sg43
g21
sg44
I116
sg45
Vcharges
p1207
sg47
I116
sg48
I674
sbag0
(g23
g2
Ntp1208
Rp1209
(dp1210
g27
(dp1211
g29
V$
p1212
sg31
VMONEY
p1213
sg33
V$
p1214
sg35
I6
ssg10
I117
sg36
g4
sg37
(dp1215
sg39
(dp1216
sg41
I675
sg42
g21
sg43
g21
sg44
I117
sg45
V$
p1217
sg47
I117
sg48
I676
sbag0
(g23
g2
Ntp1218
Rp1219
(dp1220
g27
(dp1221
g29
V1.00
p1222
sg31
VMONEY
p1223
sg33
VCD
p1224
sg35
I7
ssg10
I118
sg36
g4
sg37
(dp1225
sg39
(dp1226
sg41
I676
sg42
g21
sg43
g21
sg44
I118
sg45
V1.00
p1227
sg47
I118
sg48
I680
sbag0
(g23
g2
Ntp1228
Rp1229
(dp1230
g27
(dp1231
g29
Vfor
p1232
sg31
VO
p1233
sg33
VIN
p1234
sg35
I8
ssg10
I119
sg36
g4
sg37
(dp1235
sg39
(dp1236
sg41
I681
sg42
g21
sg43
g21
sg44
I119
sg45
Vfor
p1237
sg47
I119
sg48
I684
sbag0
(g23
g2
Ntp1238
Rp1239
(dp1240
g27
(dp1241
g29
VWhite
p1242
sg31
VO
p1243
sg33
VNNP
p1244
sg35
I9
ssg10
I120
sg36
g4
sg37
(dp1245
sg39
(dp1246
sg41
I685
sg42
g21
sg43
g21
sg44
I120
sg45
VWhite
p1247
sg47
I120
sg48
I690
sbag0
(g23
g2
Ntp1248
Rp1249
(dp1250
g27
(dp1251
g29
Vmale
p1252
sg31
VO
p1253
sg33
VNNS
p1254
sg35
I10
ssg10
I121
sg36
g4
sg37
(dp1255
sg39
(dp1256
sg41
I691
sg42
g21
sg43
g21
sg44
I121
sg45
Vmales
p1257
sg47
I121
sg48
I696
sbag0
(g23
g2
Ntp1258
Rp1259
(dp1260
g27
(dp1261
g29
V,
p1262
sg31
VO
p1263
sg33
V,
p1264
sg35
I11
ssg10
I122
sg36
g4
sg37
(dp1265
sg39
(dp1266
sg41
I696
sg42
g21
sg43
g21
sg44
I122
sg45
V,
p1267
sg47
I122
sg48
I697
sbag0
(g23
g2
Ntp1268
Rp1269
(dp1270
g27
(dp1271
g29
V$
p1272
sg31
VMONEY
p1273
sg33
V$
p1274
sg35
I12
ssg10
I123
sg36
g4
sg37
(dp1275
sg39
(dp1276
sg41
I698
sg42
g21
sg43
g21
sg44
I123
sg45
V$
p1277
sg47
I123
sg48
I699
sbag0
(g23
g2
Ntp1278
Rp1279
(dp1280
g27
(dp1281
g29
V.75
p1282
sg31
VMONEY
p1283
sg33
VCD
p1284
sg35
I13
ssg10
I124
sg36
g4
sg37
(dp1285
sg39
(dp1286
sg41
I699
sg42
g21
sg43
g21
sg44
I124
sg45
V.75
p1287
sg47
I124
sg48
I702
sbag0
(g23
g2
Ntp1288
Rp1289
(dp1290
g27
(dp1291
g29
Vfor
p1292
sg31
VO
p1293
sg33
VIN
p1294
sg35
I14
ssg10
I125
sg36
g4
sg37
(dp1295
sg39
(dp1296
sg41
I703
sg42
g21
sg43
g21
sg44
I125
sg45
Vfor
p1297
sg47
I125
sg48
I706
sbag0
(g23
g2
Ntp1298
Rp1299
(dp1300
g27
(dp1301
g29
VWhite
p1302
sg31
VO
p1303
sg33
VNNP
p1304
sg35
I15
ssg10
I126
sg36
g4
sg37
(dp1305
sg39
(dp1306
sg41
I707
sg42
g21
sg43
g21
sg44
I126
sg45
VWhite
p1307
sg47
I126
sg48
I712
sbag0
(g23
g2
Ntp1308
Rp1309
(dp1310
g27
(dp1311
g29
Vfemale
p1312
sg31
VO
p1313
sg33
VNNS
p1314
sg35
I16
ssg10
I127
sg36
g4
sg37
(dp1315
sg39
(dp1316
sg41
I713
sg42
g21
sg43
g21
sg44
I127
sg45
Vfemales
p1317
sg47
I127
sg48
I720
sbag0
(g23
g2
Ntp1318
Rp1319
(dp1320
g27
(dp1321
g29
V,
p1322
sg31
VO
p1323
sg33
V,
p1324
sg35
I17
ssg10
I128
sg36
g4
sg37
(dp1325
sg39
(dp1326
sg41
I720
sg42
g21
sg43
g21
sg44
I128
sg45
V,
p1327
sg47
I128
sg48
I721
sbag0
(g23
g2
Ntp1328
Rp1329
(dp1330
g27
(dp1331
g29
V$
p1332
sg31
VMONEY
p1333
sg33
V$
p1334
sg35
I18
ssg10
I129
sg36
g4
sg37
(dp1335
sg39
(dp1336
sg41
I722
sg42
g21
sg43
g21
sg44
I129
sg45
V$
p1337
sg47
I129
sg48
I723
sbag0
(g23
g2
Ntp1338
Rp1339
(dp1340
g27
(dp1341
g29
V.50
p1342
sg31
VMONEY
p1343
sg33
VCD
p1344
sg35
I19
ssg10
I130
sg36
g4
sg37
(dp1345
sg39
(dp1346
sg41
I723
sg42
g21
sg43
g21
sg44
I130
sg45
V.50
p1347
sg47
I130
sg48
I726
sbag0
(g23
g2
Ntp1348
Rp1349
(dp1350
g27
(dp1351
g29
Vfor
p1352
sg31
VO
p1353
sg33
VIN
p1354
sg35
I20
ssg10
I131
sg36
g4
sg37
(dp1355
sg39
(dp1356
sg41
I727
sg42
g21
sg43
g21
sg44
I131
sg45
Vfor
p1357
sg47
I131
sg48
I730
sbag0
(g23
g2
Ntp1358
Rp1359
(dp1360
g27
(dp1361
g29
VLatino
p1362
sg31
VO
p1363
sg33
VNNP
p1364
sg35
I21
ssg10
I132
sg36
g4
sg37
(dp1365
sg39
(dp1366
sg41
I731
sg42
g21
sg43
g21
sg44
I132
sg45
VLatino
p1367
sg47
I132
sg48
I737
sbag0
(g23
g2
Ntp1368
Rp1369
(dp1370
g27
(dp1371
g29
V,
p1372
sg31
VO
p1373
sg33
V,
p1374
sg35
I22
ssg10
I133
sg36
g4
sg37
(dp1375
sg39
(dp1376
sg41
I737
sg42
g21
sg43
g21
sg44
I133
sg45
V,
p1377
sg47
I133
sg48
I738
sbag0
(g23
g2
Ntp1378
Rp1379
(dp1380
g27
(dp1381
g29
VBlack
p1382
sg31
VO
p1383
sg33
VNNP
p1384
sg35
I23
ssg10
I134
sg36
g4
sg37
(dp1385
sg39
(dp1386
sg41
I739
sg42
g21
sg43
g21
sg44
I134
sg45
VBlack
p1387
sg47
I134
sg48
I744
sbag0
(g23
g2
Ntp1388
Rp1389
(dp1390
g27
(dp1391
g29
V,
p1392
sg31
VO
p1393
sg33
V,
p1394
sg35
I24
ssg10
I135
sg36
g4
sg37
(dp1395
sg39
(dp1396
sg41
I744
sg42
g21
sg43
g21
sg44
I135
sg45
V,
p1397
sg47
I135
sg48
I745
sbag0
(g23
g2
Ntp1398
Rp1399
(dp1400
g27
(dp1401
g29
VAsian
p1402
sg31
VMISC
p1403
sg33
VNNP
p1404
sg35
I25
ssg10
I136
sg36
g4
sg37
(dp1405
sg39
(dp1406
sg41
I746
sg42
g21
sg43
g21
sg44
I136
sg45
VAsian
p1407
sg47
I136
sg48
I751
sbag0
(g23
g2
Ntp1408
Rp1409
(dp1410
g27
(dp1411
g29
V,
p1412
sg31
VO
p1413
sg33
V,
p1414
sg35
I26
ssg10
I137
sg36
g4
sg37
(dp1415
sg39
(dp1416
sg41
I751
sg42
g21
sg43
g21
sg44
I137
sg45
V,
p1417
sg47
I137
sg48
I752
sbag0
(g23
g2
Ntp1418
Rp1419
(dp1420
g27
(dp1421
g29
Vand
p1422
sg31
VO
p1423
sg33
VCC
p1424
sg35
I27
ssg10
I138
sg36
g4
sg37
(dp1425
sg39
(dp1426
sg41
I753
sg42
g21
sg43
g21
sg44
I138
sg45
Vand
p1427
sg47
I138
sg48
I756
sbag0
(g23
g2
Ntp1428
Rp1429
(dp1430
g27
(dp1431
g29
Vnative
p1432
sg31
VMISC
p1433
sg33
VJJ
p1434
sg35
I28
ssg10
I139
sg36
g4
sg37
(dp1435
sg39
(dp1436
sg41
I757
sg42
g21
sg43
g21
sg44
I139
sg45
VNative
p1437
sg47
I139
sg48
I763
sbag0
(g23
g2
Ntp1438
Rp1439
(dp1440
g27
(dp1441
g29
Vamerican
p1442
sg31
VMISC
p1443
sg33
VJJ
p1444
sg35
I29
ssg10
I140
sg36
g4
sg37
(dp1445
sg39
(dp1446
sg41
I764
sg42
g21
sg43
g21
sg44
I140
sg45
VAmerican
p1447
sg47
I140
sg48
I772
sbag0
(g23
g2
Ntp1448
Rp1449
(dp1450
g27
(dp1451
g29
Vmale
p1452
sg31
VO
p1453
sg33
VNNS
p1454
sg35
I30
ssg10
I141
sg36
g4
sg37
(dp1455
sg39
(dp1456
sg41
I773
sg42
g21
sg43
g21
sg44
I141
sg45
Vmales
p1457
sg47
I141
sg48
I778
sbag0
(g23
g2
Ntp1458
Rp1459
(dp1460
g27
(dp1461
g29
Vand
p1462
sg31
VO
p1463
sg33
VCC
p1464
sg35
I31
ssg10
I142
sg36
g4
sg37
(dp1465
sg39
(dp1466
sg41
I779
sg42
g21
sg43
g21
sg44
I142
sg45
Vand
p1467
sg47
I142
sg48
I782
sbag0
(g23
g2
Ntp1468
Rp1469
(dp1470
g27
(dp1471
g29
V$
p1472
sg31
VMONEY
p1473
sg33
V$
p1474
sg35
I32
ssg10
I143
sg36
g4
sg37
(dp1475
sg39
(dp1476
sg41
I783
sg42
g21
sg43
g21
sg44
I143
sg45
V$
p1477
sg47
I143
sg48
I784
sbag0
(g23
g2
Ntp1478
Rp1479
(dp1480
g27
(dp1481
g29
V.25
p1482
sg31
VMONEY
p1483
sg33
VCD
p1484
sg35
I33
ssg10
I144
sg36
g4
sg37
(dp1485
sg39
(dp1486
sg41
I784
sg42
g21
sg43
g21
sg44
I144
sg45
V.25
p1487
sg47
I144
sg48
I787
sbag0
(g23
g2
Ntp1488
Rp1489
(dp1490
g27
(dp1491
g29
Vfor
p1492
sg31
VO
p1493
sg33
VIN
p1494
sg35
I34
ssg10
I145
sg36
g4
sg37
(dp1495
sg39
(dp1496
sg41
I788
sg42
g21
sg43
g21
sg44
I145
sg45
Vfor
p1497
sg47
I145
sg48
I791
sbag0
(g23
g2
Ntp1498
Rp1499
(dp1500
g27
(dp1501
g29
VLatino
p1502
sg31
VO
p1503
sg33
VNNP
p1504
sg35
I35
ssg10
I146
sg36
g4
sg37
(dp1505
sg39
(dp1506
sg41
I792
sg42
g21
sg43
g21
sg44
I146
sg45
VLatino
p1507
sg47
I146
sg48
I798
sbag0
(g23
g2
Ntp1508
Rp1509
(dp1510
g27
(dp1511
g29
V,
p1512
sg31
VO
p1513
sg33
V,
p1514
sg35
I36
ssg10
I147
sg36
g4
sg37
(dp1515
sg39
(dp1516
sg41
I798
sg42
g21
sg43
g21
sg44
I147
sg45
V,
p1517
sg47
I147
sg48
I799
sbag0
(g23
g2
Ntp1518
Rp1519
(dp1520
g27
(dp1521
g29
VBlack
p1522
sg31
VO
p1523
sg33
VNNP
p1524
sg35
I37
ssg10
I148
sg36
g4
sg37
(dp1525
sg39
(dp1526
sg41
I800
sg42
g21
sg43
g21
sg44
I148
sg45
VBlack
p1527
sg47
I148
sg48
I805
sbag0
(g23
g2
Ntp1528
Rp1529
(dp1530
g27
(dp1531
g29
V,
p1532
sg31
VO
p1533
sg33
V,
p1534
sg35
I38
ssg10
I149
sg36
g4
sg37
(dp1535
sg39
(dp1536
sg41
I805
sg42
g21
sg43
g21
sg44
I149
sg45
V,
p1537
sg47
I149
sg48
I806
sbag0
(g23
g2
Ntp1538
Rp1539
(dp1540
g27
(dp1541
g29
VAsian
p1542
sg31
VMISC
p1543
sg33
VNNP
p1544
sg35
I39
ssg10
I150
sg36
g4
sg37
(dp1545
sg39
(dp1546
sg41
I807
sg42
g21
sg43
g21
sg44
I150
sg45
VAsian
p1547
sg47
I150
sg48
I812
sbag0
(g23
g2
Ntp1548
Rp1549
(dp1550
g27
(dp1551
g29
V,
p1552
sg31
VO
p1553
sg33
V,
p1554
sg35
I40
ssg10
I151
sg36
g4
sg37
(dp1555
sg39
(dp1556
sg41
I812
sg42
g21
sg43
g21
sg44
I151
sg45
V,
p1557
sg47
I151
sg48
I813
sbag0
(g23
g2
Ntp1558
Rp1559
(dp1560
g27
(dp1561
g29
Vand
p1562
sg31
VO
p1563
sg33
VCC
p1564
sg35
I41
ssg10
I152
sg36
g4
sg37
(dp1565
sg39
(dp1566
sg41
I814
sg42
g21
sg43
g21
sg44
I152
sg45
Vand
p1567
sg47
I152
sg48
I817
sbag0
(g23
g2
Ntp1568
Rp1569
(dp1570
g27
(dp1571
g29
Vnative
p1572
sg31
VMISC
p1573
sg33
VJJ
p1574
sg35
I42
ssg10
I153
sg36
g4
sg37
(dp1575
sg39
(dp1576
sg41
I818
sg42
g21
sg43
g21
sg44
I153
sg45
VNative
p1577
sg47
I153
sg48
I824
sbag0
(g23
g2
Ntp1578
Rp1579
(dp1580
g27
(dp1581
g29
Vamerican
p1582
sg31
VMISC
p1583
sg33
VJJ
p1584
sg35
I43
ssg10
I154
sg36
g4
sg37
(dp1585
sg39
(dp1586
sg41
I825
sg42
g21
sg43
g21
sg44
I154
sg45
VAmerican
p1587
sg47
I154
sg48
I833
sbag0
(g23
g2
Ntp1588
Rp1589
(dp1590
g27
(dp1591
g29
Vfemale
p1592
sg31
VO
p1593
sg33
VNNS
p1594
sg35
I44
ssg10
I155
sg36
g4
sg37
(dp1595
sg39
(dp1596
sg41
I834
sg42
g21
sg43
g21
sg44
I155
sg45
Vfemales
p1597
sg47
I155
sg48
I841
sbag0
(g23
g2
Ntp1598
Rp1599
(dp1600
g27
(dp1601
g29
V.
p1602
sg31
VO
p1603
sg33
V.
p1604
sg35
I45
ssg10
I156
sg36
g4
sg37
(dp1605
sg39
(dp1606
sg41
I841
sg42
g21
sg43
g21
sg44
I156
sg45
V.
p1607
sg47
I156
sg48
I842
sbag0
(g23
g2
Ntp1608
Rp1609
(dp1610
g27
(dp1611
g29
Vthe
p1612
sg31
VO
p1613
sg33
VDT
p1614
sg35
I1
ssg10
I157
sg36
g4
sg37
(dp1615
sg39
(dp1616
sg41
I843
sg42
g21
sg43
g21
sg44
I157
sg45
VThe
p1617
sg47
I157
sg48
I846
sbag0
(g23
g2
Ntp1618
Rp1619
(dp1620
g27
(dp1621
g29
Vbake
p1622
sg31
VO
p1623
sg33
VJJ
p1624
sg35
I2
ssg10
I158
sg36
g4
sg37
(dp1625
sg39
(dp1626
sg41
I847
sg42
g21
sg43
g21
sg44
I158
sg45
Vbake
p1627
sg47
I158
sg48
I851
sbag0
(g23
g2
Ntp1628
Rp1629
(dp1630
g27
(dp1631
g29
Vsale
p1632
sg31
VO
p1633
sg33
VNNS
p1634
sg35
I3
ssg10
I159
sg36
g4
sg37
(dp1635
sg39
(dp1636
sg41
I852
sg42
g21
sg43
g21
sg44
I159
sg45
Vsales
p1637
sg47
I159
sg48
I857
sbag0
(g23
g2
Ntp1638
Rp1639
(dp1640
g27
(dp1641
g29
V'
p1642
sg31
VO
p1643
sg33
VPOS
p1644
sg35
I4
ssg10
I160
sg36
g4
sg37
(dp1645
sg39
(dp1646
sg41
I857
sg42
g21
sg43
g21
sg44
I160
sg45
V'
p1647
sg47
I160
sg48
I858
sbag0
(g23
g2
Ntp1648
Rp1649
(dp1650
g27
(dp1651
g29
Vhost
p1652
sg31
VO
p1653
sg33
VNNS
p1654
sg35
I5
ssg10
I161
sg36
g4
sg37
(dp1655
sg39
(dp1656
sg41
I859
sg42
g21
sg43
g21
sg44
I161
sg45
Vhosts
p1657
sg47
I161
sg48
I864
sbag0
(g23
g2
Ntp1658
Rp1659
(dp1660
g27
(dp1661
g29
Vdo
p1662
sg31
VO
p1663
sg33
VVBP
p1664
sg35
I6
ssg10
I162
sg36
g4
sg37
(dp1665
sg39
(dp1666
sg41
I865
sg42
g21
sg43
g21
sg44
I162
sg45
Vdo
p1667
sg47
I162
sg48
I867
sbag0
(g23
g2
Ntp1668
Rp1669
(dp1670
g27
(dp1671
g29
Vnot
p1672
sg31
VO
p1673
sg33
VRB
p1674
sg35
I7
ssg10
I163
sg36
g4
sg37
(dp1675
sg39
(dp1676
sg41
I868
sg42
g21
sg43
g21
sg44
I163
sg45
Vnot
p1677
sg47
I163
sg48
I871
sbag0
(g23
g2
Ntp1678
Rp1679
(dp1680
g27
(dp1681
g29
Vsupport
p1682
sg31
VO
p1683
sg33
VVB
p1684
sg35
I8
ssg10
I164
sg36
g4
sg37
(dp1685
sg39
(dp1686
sg41
I872
sg42
g21
sg43
g21
sg44
I164
sg45
Vsupport
p1687
sg47
I164
sg48
I879
sbag0
(g23
g2
Ntp1688
Rp1689
(dp1690
g27
(dp1691
g29
Vthis
p1692
sg31
VO
p1693
sg33
VDT
p1694
sg35
I9
ssg10
I165
sg36
g4
sg37
(dp1695
sg39
(dp1696
sg41
I880
sg42
g21
sg43
g21
sg44
I165
sg45
Vthis
p1697
sg47
I165
sg48
I884
sbag0
(g23
g2
Ntp1698
Rp1699
(dp1700
g27
(dp1701
g29
Vkind
p1702
sg31
VO
p1703
sg33
VNN
p1704
sg35
I10
ssg10
I166
sg36
g4
sg37
(dp1705
sg39
(dp1706
sg41
I885
sg42
g21
sg43
g21
sg44
I166
sg45
Vkind
p1707
sg47
I166
sg48
I889
sbag0
(g23
g2
Ntp1708
Rp1709
(dp1710
g27
(dp1711
g29
Vof
p1712
sg31
VO
p1713
sg33
VIN
p1714
sg35
I11
ssg10
I167
sg36
g4
sg37
(dp1715
sg39
(dp1716
sg41
I890
sg42
g21
sg43
g21
sg44
I167
sg45
Vof
p1717
sg47
I167
sg48
I892
sbag0
(g23
g2
Ntp1718
Rp1719
(dp1720
g27
(dp1721
g29
Vpreferential
p1722
sg31
VO
p1723
sg33
VJJ
p1724
sg35
I12
ssg10
I168
sg36
g4
sg37
(dp1725
sg39
(dp1726
sg41
I893
sg42
g21
sg43
g21
sg44
I168
sg45
Vpreferential
p1727
sg47
I168
sg48
I905
sbag0
(g23
g2
Ntp1728
Rp1729
(dp1730
g27
(dp1731
g29
Vtreatment
p1732
sg31
VO
p1733
sg33
VNN
p1734
sg35
I13
ssg10
I169
sg36
g4
sg37
(dp1735
sg39
(dp1736
sg41
I906
sg42
g21
sg43
g21
sg44
I169
sg45
Vtreatment
p1737
sg47
I169
sg48
I915
sbag0
(g23
g2
Ntp1738
Rp1739
(dp1740
g27
(dp1741
g29
V;
p1742
sg31
VO
p1743
sg33
V:
p1744
sg35
I14
ssg10
I170
sg36
g4
sg37
(dp1745
sg39
(dp1746
sg41
I915
sg42
g21
sg43
g21
sg44
I170
sg45
V;
p1747
sg47
I170
sg48
I916
sbag0
(g23
g2
Ntp1748
Rp1749
(dp1750
g27
(dp1751
g29
Vrather
p1752
sg31
VO
p1753
sg33
VRB
p1754
sg35
I15
ssg10
I171
sg36
g4
sg37
(dp1755
sg39
(dp1756
sg41
I917
sg42
g21
sg43
g21
sg44
I171
sg45
Vrather
p1757
sg47
I171
sg48
I923
sbag0
(g23
g2
Ntp1758
Rp1759
(dp1760
g27
(dp1761
g29
V,
p1762
sg31
VO
p1763
sg33
V,
p1764
sg35
I16
ssg10
I172
sg36
g4
sg37
(dp1765
sg39
(dp1766
sg41
I923
sg42
g21
sg43
g21
sg44
I172
sg45
V,
p1767
sg47
I172
sg48
I924
sbag0
(g23
g2
Ntp1768
Rp1769
(dp1770
g27
(dp1771
g29
Vthey
p1772
sg31
VO
p1773
sg33
VPRP
p1774
sg35
I17
ssg10
I173
sg36
g4
sg37
(dp1775
sg39
(dp1776
sg41
I925
sg42
g21
sg43
g21
sg44
I173
sg45
Vthey
p1777
sg47
I173
sg48
I929
sbag0
(g23
g2
Ntp1778
Rp1779
(dp1780
g27
(dp1781
g29
Vargue
p1782
sg31
VO
p1783
sg33
VVBP
p1784
sg35
I18
ssg10
I174
sg36
g4
sg37
(dp1785
sg39
(dp1786
sg41
I930
sg42
g21
sg43
g21
sg44
I174
sg45
Vargue
p1787
sg47
I174
sg48
I935
sbag0
(g23
g2
Ntp1788
Rp1789
(dp1790
g27
(dp1791
g29
Vthat
p1792
sg31
VO
p1793
sg33
VIN
p1794
sg35
I19
ssg10
I175
sg36
g4
sg37
(dp1795
sg39
(dp1796
sg41
I936
sg42
g21
sg43
g21
sg44
I175
sg45
Vthat
p1797
sg47
I175
sg48
I940
sbag0
(g23
g2
Ntp1798
Rp1799
(dp1800
g27
(dp1801
g29
Vthis
p1802
sg31
VO
p1803
sg33
VDT
p1804
sg35
I20
ssg10
I176
sg36
g4
sg37
(dp1805
sg39
(dp1806
sg41
I941
sg42
g21
sg43
g21
sg44
I176
sg45
Vthis
p1807
sg47
I176
sg48
I945
sbag0
(g23
g2
Ntp1808
Rp1809
(dp1810
g27
(dp1811
g29
Vpreferential
p1812
sg31
VO
p1813
sg33
VJJ
p1814
sg35
I21
ssg10
I177
sg36
g4
sg37
(dp1815
sg39
(dp1816
sg41
I946
sg42
g21
sg43
g21
sg44
I177
sg45
Vpreferential
p1817
sg47
I177
sg48
I958
sbag0
(g23
g2
Ntp1818
Rp1819
(dp1820
g27
(dp1821
g29
Vpricing
p1822
sg31
VO
p1823
sg33
VNN
p1824
sg35
I22
ssg10
I178
sg36
g4
sg37
(dp1825
sg39
(dp1826
sg41
I959
sg42
g21
sg43
g21
sg44
I178
sg45
Vpricing
p1827
sg47
I178
sg48
I966
sbag0
(g23
g2
Ntp1828
Rp1829
(dp1830
g27
(dp1831
g29
Vbe
p1832
sg31
VO
p1833
sg33
VVBZ
p1834
sg35
I23
ssg10
I179
sg36
g4
sg37
(dp1835
sg39
(dp1836
sg41
I967
sg42
g21
sg43
g21
sg44
I179
sg45
Vis
p1837
sg47
I179
sg48
I969
sbag0
(g23
g2
Ntp1838
Rp1839
(dp1840
g27
(dp1841
g29
Vanalogous
p1842
sg31
VO
p1843
sg33
VJJ
p1844
sg35
I24
ssg10
I180
sg36
g4
sg37
(dp1845
sg39
(dp1846
sg41
I970
sg42
g21
sg43
g21
sg44
I180
sg45
Vanalogous
p1847
sg47
I180
sg48
I979
sbag0
(g23
g2
Ntp1848
Rp1849
(dp1850
g27
(dp1851
g29
Vto
p1852
sg31
VO
p1853
sg33
VTO
p1854
sg35
I25
ssg10
I181
sg36
g4
sg37
(dp1855
sg39
(dp1856
sg41
I980
sg42
g21
sg43
g21
sg44
I181
sg45
Vto
p1857
sg47
I181
sg48
I982
sbag0
(g23
g2
Ntp1858
Rp1859
(dp1860
g27
(dp1861
g29
Vthe
p1862
sg31
VO
p1863
sg33
VDT
p1864
sg35
I26
ssg10
I182
sg36
g4
sg37
(dp1865
sg39
(dp1866
sg41
I983
sg42
g21
sg43
g21
sg44
I182
sg45
Vthe
p1867
sg47
I182
sg48
I986
sbag0
(g23
g2
Ntp1868
Rp1869
(dp1870
g27
(dp1871
g29
Vpreferential
p1872
sg31
VO
p1873
sg33
VJJ
p1874
sg35
I27
ssg10
I183
sg36
g4
sg37
(dp1875
sg39
(dp1876
sg41
I987
sg42
g21
sg43
g21
sg44
I183
sg45
Vpreferential
p1877
sg47
I183
sg48
I999
sbag0
(g23
g2
Ntp1878
Rp1879
(dp1880
g27
(dp1881
g29
Vtreatment
p1882
sg31
VO
p1883
sg33
VNN
p1884
sg35
I28
ssg10
I184
sg36
g4
sg37
(dp1885
sg39
(dp1886
sg41
I1000
sg42
g21
sg43
g21
sg44
I184
sg45
Vtreatment
p1887
sg47
I184
sg48
I1009
sbag0
(g23
g2
Ntp1888
Rp1889
(dp1890
g27
(dp1891
g29
Vcreate
p1892
sg31
VO
p1893
sg33
VVBN
p1894
sg35
I29
ssg10
I185
sg36
g4
sg37
(dp1895
sg39
(dp1896
sg41
I1010
sg42
g21
sg43
g21
sg44
I185
sg45
Vcreated
p1897
sg47
I185
sg48
I1017
sbag0
(g23
g2
Ntp1898
Rp1899
(dp1900
g27
(dp1901
g29
Vby
p1902
sg31
VO
p1903
sg33
VIN
p1904
sg35
I30
ssg10
I186
sg36
g4
sg37
(dp1905
sg39
(dp1906
sg41
I1018
sg42
g21
sg43
g21
sg44
I186
sg45
Vby
p1907
sg47
I186
sg48
I1020
sbag0
(g23
g2
Ntp1908
Rp1909
(dp1910
g27
(dp1911
g29
Vaffirmative
p1912
sg31
VO
p1913
sg33
VJJ
p1914
sg35
I31
ssg10
I187
sg36
g4
sg37
(dp1915
sg39
(dp1916
sg41
I1021
sg42
g21
sg43
g21
sg44
I187
sg45
Vaffirmative
p1917
sg47
I187
sg48
I1032
sbag0
(g23
g2
Ntp1918
Rp1919
(dp1920
g27
(dp1921
g29
Vaction
p1922
sg31
VO
p1923
sg33
VNN
p1924
sg35
I32
ssg10
I188
sg36
g4
sg37
(dp1925
sg39
(dp1926
sg41
I1033
sg42
g21
sg43
g21
sg44
I188
sg45
Vaction
p1927
sg47
I188
sg48
I1039
sbag0
(g23
g2
Ntp1928
Rp1929
(dp1930
g27
(dp1931
g29
Vpolicy
p1932
sg31
VO
p1933
sg33
VNNS
p1934
sg35
I33
ssg10
I189
sg36
g4
sg37
(dp1935
sg39
(dp1936
sg41
I1040
sg42
g21
sg43
g21
sg44
I189
sg45
Vpolicies
p1937
sg47
I189
sg48
I1048
sbag0
(g23
g2
Ntp1938
Rp1939
(dp1940
g27
(dp1941
g29
V.
p1942
sg31
VO
p1943
sg33
V.
p1944
sg35
I34
ssg10
I190
sg36
g4
sg37
(dp1945
sg39
(dp1946
sg41
I1048
sg42
g21
sg43
g21
sg44
I190
sg45
V.
p1947
sg47
I190
sg48
I1049
sbag0
(g23
g2
Ntp1948
Rp1949
(dp1950
g27
(dp1951
g29
Vthese
p1952
sg31
VO
p1953
sg33
VDT
p1954
sg35
I1
ssg10
I191
sg36
g4
sg37
(dp1955
sg39
(dp1956
sg41
I1052
sg42
g21
sg43
g21
sg44
I191
sg45
VThese
p1957
sg47
I191
sg48
I1057
sbag0
(g23
g2
Ntp1958
Rp1959
(dp1960
g27
(dp1961
g29
Vbake
p1962
sg31
VO
p1963
sg33
VJJ
p1964
sg35
I2
ssg10
I192
sg36
g4
sg37
(dp1965
sg39
(dp1966
sg41
I1058
sg42
g21
sg43
g21
sg44
I192
sg45
Vbake
p1967
sg47
I192
sg48
I1062
sbag0
(g23
g2
Ntp1968
Rp1969
(dp1970
g27
(dp1971
g29
Vsale
p1972
sg31
VO
p1973
sg33
VNNS
p1974
sg35
I3
ssg10
I193
sg36
g4
sg37
(dp1975
sg39
(dp1976
sg41
I1063
sg42
g21
sg43
g21
sg44
I193
sg45
Vsales
p1977
sg47
I193
sg48
I1068
sbag0
(g23
g2
Ntp1978
Rp1979
(dp1980
g27
(dp1981
g29
Vhave
p1982
sg31
VO
p1983
sg33
VVBP
p1984
sg35
I4
ssg10
I194
sg36
g4
sg37
(dp1985
sg39
(dp1986
sg41
I1069
sg42
g21
sg43
g21
sg44
I194
sg45
Vhave
p1987
sg47
I194
sg48
I1073
sbag0
(g23
g2
Ntp1988
Rp1989
(dp1990
g27
(dp1991
g29
Vbe
p1992
sg31
VO
p1993
sg33
VVBN
p1994
sg35
I5
ssg10
I195
sg36
g4
sg37
(dp1995
sg39
(dp1996
sg41
I1074
sg42
g21
sg43
g21
sg44
I195
sg45
Vbeen
p1997
sg47
I195
sg48
I1078
sbag0
(g23
g2
Ntp1998
Rp1999
(dp2000
g27
(dp2001
g29
Vorganize
p2002
sg31
VO
p2003
sg33
VVBN
p2004
sg35
I6
ssg10
I196
sg36
g4
sg37
(dp2005
sg39
(dp2006
sg41
I1079
sg42
g21
sg43
g21
sg44
I196
sg45
Vorganized
p2007
sg47
I196
sg48
I1088
sbag0
(g23
g2
Ntp2008
Rp2009
(dp2010
g27
(dp2011
g29
Vat
p2012
sg31
VO
p2013
sg33
VIN
p2014
sg35
I7
ssg10
I197
sg36
g4
sg37
(dp2015
sg39
(dp2016
sg41
I1089
sg42
g21
sg43
g21
sg44
I197
sg45
Vat
p2017
sg47
I197
sg48
I1091
sbag0
(g23
g2
Ntp2018
Rp2019
(dp2020
g27
(dp2021
g29
Vmany
p2022
sg31
VO
p2023
sg33
VJJ
p2024
sg35
I8
ssg10
I198
sg36
g4
sg37
(dp2025
sg39
(dp2026
sg41
I1092
sg42
g21
sg43
g21
sg44
I198
sg45
Vmany
p2027
sg47
I198
sg48
I1096
sbag0
(g23
g2
Ntp2028
Rp2029
(dp2030
g27
(dp2031
g29
Vschool
p2032
sg31
VO
p2033
sg33
VNNS
p2034
sg35
I9
ssg10
I199
sg36
g4
sg37
(dp2035
sg39
(dp2036
sg41
I1097
sg42
g21
sg43
g21
sg44
I199
sg45
Vschools
p2037
sg47
I199
sg48
I1104
sbag0
(g23
g2
Ntp2038
Rp2039
(dp2040
g27
(dp2041
g29
Vacross
p2042
sg31
VO
p2043
sg33
VIN
p2044
sg35
I10
ssg10
I200
sg36
g4
sg37
(dp2045
sg39
(dp2046
sg41
I1105
sg42
g21
sg43
g21
sg44
I200
sg45
Vacross
p2047
sg47
I200
sg48
I1111
sbag0
(g23
g2
Ntp2048
Rp2049
(dp2050
g27
(dp2051
g29
Vthe
p2052
sg31
VO
p2053
sg33
VDT
p2054
sg35
I11
ssg10
I201
sg36
g4
sg37
(dp2055
sg39
(dp2056
sg41
I1112
sg42
g21
sg43
g21
sg44
I201
sg45
Vthe
p2057
sg47
I201
sg48
I1115
sbag0
(g23
g2
Ntp2058
Rp2059
(dp2060
g27
(dp2061
g29
VU.S.
p2062
sg31
VLOCATION
p2063
sg33
VNNP
p2064
sg35
I12
ssg10
I202
sg36
g4
sg37
(dp2065
sg39
(dp2066
sg41
I1116
sg42
g21
sg43
g21
sg44
I202
sg45
VU.S.
p2067
sg47
I202
sg48
I1120
sbag0
(g23
g2
Ntp2068
Rp2069
(dp2070
g27
(dp2071
g29
V,
p2072
sg31
VO
p2073
sg33
V,
p2074
sg35
I13
ssg10
I203
sg36
g4
sg37
(dp2075
sg39
(dp2076
sg41
I1120
sg42
g21
sg43
g21
sg44
I203
sg45
V,
p2077
sg47
I203
sg48
I1121
sbag0
(g23
g2
Ntp2078
Rp2079
(dp2080
g27
(dp2081
g29
Vsometimes
p2082
sg31
VO
p2083
sg33
VRB
p2084
sg35
I14
ssg10
I204
sg36
g4
sg37
(dp2085
sg39
(dp2086
sg41
I1122
sg42
g21
sg43
g21
sg44
I204
sg45
Vsometimes
p2087
sg47
I204
sg48
I1131
sbag0
(g23
g2
Ntp2088
Rp2089
(dp2090
g27
(dp2091
g29
Vannually
p2092
sg31
VSET
p2093
sg33
VRB
p2094
sg35
I15
ssg10
I205
sg36
g4
sg37
(dp2095
sg39
(dp2096
sg41
I1132
sg42
g21
sg43
g21
sg44
I205
sg45
Vannually
p2097
sg47
I205
sg48
I1140
sbag0
(g23
g2
Ntp2098
Rp2099
(dp2100
g27
(dp2101
g29
V.
p2102
sg31
VO
p2103
sg33
V.
p2104
sg35
I16
ssg10
I206
sg36
g4
sg37
(dp2105
sg39
(dp2106
sg41
I1140
sg42
g21
sg43
g21
sg44
I206
sg45
V.
p2107
sg47
I206
sg48
I1141
sbag0
(g23
g2
Ntp2108
Rp2109
(dp2110
g27
(dp2111
g29
Vaffirmative
p2112
sg31
VO
p2113
sg33
VJJ
p2114
sg35
I1
ssg10
I207
sg36
g4
sg37
(dp2115
sg39
(dp2116
sg41
I1142
sg42
g21
sg43
g21
sg44
I207
sg45
VAffirmative
p2117
sg47
I207
sg48
I1153
sbag0
(g23
g2
Ntp2118
Rp2119
(dp2120
g27
(dp2121
g29
Vaction
p2122
sg31
VO
p2123
sg33
VNN
p2124
sg35
I2
ssg10
I208
sg36
g4
sg37
(dp2125
sg39
(dp2126
sg41
I1154
sg42
g21
sg43
g21
sg44
I208
sg45
Vaction
p2127
sg47
I208
sg48
I1160
sbag0
(g23
g2
Ntp2128
Rp2129
(dp2130
g27
(dp2131
g29
Vbake
p2132
sg31
VO
p2133
sg33
VNN
p2134
sg35
I3
ssg10
I209
sg36
g4
sg37
(dp2135
sg39
(dp2136
sg41
I1161
sg42
g21
sg43
g21
sg44
I209
sg45
Vbake
p2137
sg47
I209
sg48
I1165
sbag0
(g23
g2
Ntp2138
Rp2139
(dp2140
g27
(dp2141
g29
Vsale
p2142
sg31
VO
p2143
sg33
VNNS
p2144
sg35
I4
ssg10
I210
sg36
g4
sg37
(dp2145
sg39
(dp2146
sg41
I1166
sg42
g21
sg43
g21
sg44
I210
sg45
Vsales
p2147
sg47
I210
sg48
I1171
sbag0
(g23
g2
Ntp2148
Rp2149
(dp2150
g27
(dp2151
g29
Vhave
p2152
sg31
VO
p2153
sg33
VVBP
p2154
sg35
I5
ssg10
I211
sg36
g4
sg37
(dp2155
sg39
(dp2156
sg41
I1172
sg42
g21
sg43
g21
sg44
I211
sg45
Vhave
p2157
sg47
I211
sg48
I1176
sbag0
(g23
g2
Ntp2158
Rp2159
(dp2160
g27
(dp2161
g29
Valso
p2162
sg31
VO
p2163
sg33
VRB
p2164
sg35
I6
ssg10
I212
sg36
g4
sg37
(dp2165
sg39
(dp2166
sg41
I1177
sg42
g21
sg43
g21
sg44
I212
sg45
Valso
p2167
sg47
I212
sg48
I1181
sbag0
(g23
g2
Ntp2168
Rp2169
(dp2170
g27
(dp2171
g29
Vtake
p2172
sg31
VO
p2173
sg33
VVBN
p2174
sg35
I7
ssg10
I213
sg36
g4
sg37
(dp2175
sg39
(dp2176
sg41
I1182
sg42
g21
sg43
g21
sg44
I213
sg45
Vtaken
p2177
sg47
I213
sg48
I1187
sbag0
(g23
g2
Ntp2178
Rp2179
(dp2180
g27
(dp2181
g29
Vplace
p2182
sg31
VO
p2183
sg33
VNN
p2184
sg35
I8
ssg10
I214
sg36
g4
sg37
(dp2185
sg39
(dp2186
sg41
I1188
sg42
g21
sg43
g21
sg44
I214
sg45
Vplace
p2187
sg47
I214
sg48
I1193
sbag0
(g23
g2
Ntp2188
Rp2189
(dp2190
g27
(dp2191
g29
Vat
p2192
sg31
VO
p2193
sg33
VIN
p2194
sg35
I9
ssg10
I215
sg36
g4
sg37
(dp2195
sg39
(dp2196
sg41
I1194
sg42
g21
sg43
g21
sg44
I215
sg45
Vat
p2197
sg47
I215
sg48
I1196
sbag0
(g23
g2
Ntp2198
Rp2199
(dp2200
g27
(dp2201
g29
Vthe
p2202
sg31
VO
p2203
sg33
VDT
p2204
sg35
I10
ssg10
I216
sg36
g4
sg37
(dp2205
sg39
(dp2206
sg41
I1197
sg42
g21
sg43
g21
sg44
I216
sg45
Vthe
p2207
sg47
I216
sg48
I1200
sbag0
(g23
g2
Ntp2208
Rp2209
(dp2210
g27
(dp2211
g29
VUniversity
p2212
sg31
VORGANIZATION
p2213
sg33
VNNP
p2214
sg35
I11
ssg10
I217
sg36
g4
sg37
(dp2215
sg39
(dp2216
sg41
I1201
sg42
g21
sg43
g21
sg44
I217
sg45
VUniversity
p2217
sg47
I217
sg48
I1211
sbag0
(g23
g2
Ntp2218
Rp2219
(dp2220
g27
(dp2221
g29
Vof
p2222
sg31
VORGANIZATION
p2223
sg33
VIN
p2224
sg35
I12
ssg10
I218
sg36
g4
sg37
(dp2225
sg39
(dp2226
sg41
I1212
sg42
g21
sg43
g21
sg44
I218
sg45
Vof
p2227
sg47
I218
sg48
I1214
sbag0
(g23
g2
Ntp2228
Rp2229
(dp2230
g27
(dp2231
g29
VPretoria
p2232
sg31
VORGANIZATION
p2233
sg33
VNNP
p2234
sg35
I13
ssg10
I219
sg36
g4
sg37
(dp2235
sg39
(dp2236
sg41
I1215
sg42
g21
sg43
g21
sg44
I219
sg45
VPretoria
p2237
sg47
I219
sg48
I1223
sbag0
(g23
g2
Ntp2238
Rp2239
(dp2240
g27
(dp2241
g29
Vin
p2242
sg31
VO
p2243
sg33
VIN
p2244
sg35
I14
ssg10
I220
sg36
g4
sg37
(dp2245
sg39
(dp2246
sg41
I1224
sg42
g21
sg43
g21
sg44
I220
sg45
Vin
p2247
sg47
I220
sg48
I1226
sbag0
(g23
g2
Ntp2248
Rp2249
(dp2250
g27
(dp2251
g29
VSouth
p2252
sg31
VLOCATION
p2253
sg33
VNNP
p2254
sg35
I15
ssg10
I221
sg36
g4
sg37
(dp2255
sg39
(dp2256
sg41
I1227
sg42
g21
sg43
g21
sg44
I221
sg45
VSouth
p2257
sg47
I221
sg48
I1232
sbag0
(g23
g2
Ntp2258
Rp2259
(dp2260
g27
(dp2261
g29
VAfrica
p2262
sg31
VLOCATION
p2263
sg33
VNNP
p2264
sg35
I16
ssg10
I222
sg36
g4
sg37
(dp2265
sg39
(dp2266
sg41
I1233
sg42
g21
sg43
g21
sg44
I222
sg45
VAfrica
p2267
sg47
I222
sg48
I1239
sbag0
(g23
g2
Ntp2268
Rp2269
(dp2270
g27
(dp2271
g29
V,
p2272
sg31
VO
p2273
sg33
V,
p2274
sg35
I17
ssg10
I223
sg36
g4
sg37
(dp2275
sg39
(dp2276
sg41
I1239
sg42
g21
sg43
g21
sg44
I223
sg45
V,
p2277
sg47
I223
sg48
I1240
sbag0
(g23
g2
Ntp2278
Rp2279
(dp2280
g27
(dp2281
g29
Vthe
p2282
sg31
VO
p2283
sg33
VDT
p2284
sg35
I18
ssg10
I224
sg36
g4
sg37
(dp2285
sg39
(dp2286
sg41
I1241
sg42
g21
sg43
g21
sg44
I224
sg45
Vthe
p2287
sg47
I224
sg48
I1244
sbag0
(g23
g2
Ntp2288
Rp2289
(dp2290
g27
(dp2291
g29
Vlatest
p2292
sg31
VO
p2293
sg33
VJJS
p2294
sg35
I19
ssg10
I225
sg36
g4
sg37
(dp2295
sg39
(dp2296
sg41
I1245
sg42
g21
sg43
g21
sg44
I225
sg45
Vlatest
p2297
sg47
I225
sg48
I1251
sbag0
(g23
g2
Ntp2298
Rp2299
(dp2300
g27
(dp2301
g29
V-lrb-
p2302
sg31
VO
p2303
sg33
V-LRB-
p2304
sg35
I20
ssg10
I226
sg36
g4
sg37
(dp2305
sg39
(dp2306
sg41
I1252
sg42
g21
sg43
g21
sg44
I226
sg45
V(
p2307
sg47
I226
sg48
I1253
sbag0
(g23
g2
Ntp2308
Rp2309
(dp2310
g27
(dp2311
g29
Vin
p2312
sg31
VO
p2313
sg33
VIN
p2314
sg35
I21
ssg10
I227
sg36
g4
sg37
(dp2315
sg39
(dp2316
sg41
I1253
sg42
g21
sg43
g21
sg44
I227
sg45
Vin
p2317
sg47
I227
sg48
I1255
sbag0
(g23
g2
Ntp2318
Rp2319
(dp2320
g27
(dp2321
g29
V2008
p2322
sg31
VDATE
p2323
sg33
VCD
p2324
sg35
I22
ssg10
I228
sg36
g4
sg37
(dp2325
sg39
(dp2326
sg41
I1256
sg42
g21
sg43
g21
sg44
I228
sg45
V2008
p2327
sg47
I228
sg48
I1260
sbag0
(g23
g2
Ntp2328
Rp2329
(dp2330
g27
(dp2331
g29
V-rrb-
p2332
sg31
VO
p2333
sg33
V-RRB-
p2334
sg35
I23
ssg10
I229
sg36
g4
sg37
(dp2335
sg39
(dp2336
sg41
I1260
sg42
g21
sg43
g21
sg44
I229
sg45
V)
p2337
sg47
I229
sg48
I1261
sbag0
(g23
g2
Ntp2338
Rp2339
(dp2340
g27
(dp2341
g29
Vhave
p2342
sg31
VO
p2343
sg33
VVBG
p2344
sg35
I24
ssg10
I230
sg36
g4
sg37
(dp2345
sg39
(dp2346
sg41
I1262
sg42
g21
sg43
g21
sg44
I230
sg45
Vhaving
p2347
sg47
I230
sg48
I1268
sbag0
(g23
g2
Ntp2348
Rp2349
(dp2350
g27
(dp2351
g29
Vbe
p2352
sg31
VO
p2353
sg33
VVBN
p2354
sg35
I25
ssg10
I231
sg36
g4
sg37
(dp2355
sg39
(dp2356
sg41
I1269
sg42
g21
sg43
g21
sg44
I231
sg45
Vbeen
p2357
sg47
I231
sg48
I1273
sbag0
(g23
g2
Ntp2358
Rp2359
(dp2360
g27
(dp2361
g29
Vforcibly
p2362
sg31
VO
p2363
sg33
VRB
p2364
sg35
I26
ssg10
I232
sg36
g4
sg37
(dp2365
sg39
(dp2366
sg41
I1274
sg42
g21
sg43
g21
sg44
I232
sg45
Vforcibly
p2367
sg47
I232
sg48
I1282
sbag0
(g23
g2
Ntp2368
Rp2369
(dp2370
g27
(dp2371
g29
Vbreak
p2372
sg31
VO
p2373
sg33
VVBN
p2374
sg35
I27
ssg10
I233
sg36
g4
sg37
(dp2375
sg39
(dp2376
sg41
I1283
sg42
g21
sg43
g21
sg44
I233
sg45
Vbroken
p2377
sg47
I233
sg48
I1289
sbag0
(g23
g2
Ntp2378
Rp2379
(dp2380
g27
(dp2381
g29
Vup
p2382
sg31
VO
p2383
sg33
VRP
p2384
sg35
I28
ssg10
I234
sg36
g4
sg37
(dp2385
sg39
(dp2386
sg41
I1290
sg42
g21
sg43
g21
sg44
I234
sg45
Vup
p2387
sg47
I234
sg48
I1292
sbag0
(g23
g2
Ntp2388
Rp2389
(dp2390
g27
(dp2391
g29
Vby
p2392
sg31
VO
p2393
sg33
VIN
p2394
sg35
I29
ssg10
I235
sg36
g4
sg37
(dp2395
sg39
(dp2396
sg41
I1293
sg42
g21
sg43
g21
sg44
I235
sg45
Vby
p2397
sg47
I235
sg48
I1295
sbag0
(g23
g2
Ntp2398
Rp2399
(dp2400
g27
(dp2401
g29
Vcampus
p2402
sg31
VO
p2403
sg33
VNN
p2404
sg35
I30
ssg10
I236
sg36
g4
sg37
(dp2405
sg39
(dp2406
sg41
I1296
sg42
g21
sg43
g21
sg44
I236
sg45
Vcampus
p2407
sg47
I236
sg48
I1302
sbag0
(g23
g2
Ntp2408
Rp2409
(dp2410
g27
(dp2411
g29
Vsecurity
p2412
sg31
VO
p2413
sg33
VNN
p2414
sg35
I31
ssg10
I237
sg36
g4
sg37
(dp2415
sg39
(dp2416
sg41
I1303
sg42
g21
sg43
g21
sg44
I237
sg45
Vsecurity
p2417
sg47
I237
sg48
I1311
sbag0
(g23
g2
Ntp2418
Rp2419
(dp2420
g27
(dp2421
g29
V-lsb-
p2422
sg31
VO
p2423
sg33
V-LRB-
p2424
sg35
I32
ssg10
I238
sg36
g4
sg37
(dp2425
sg39
(dp2426
sg41
I1312
sg42
g21
sg43
g21
sg44
I238
sg45
V[
p2427
sg47
I238
sg48
I1313
sbag0
(g23
g2
Ntp2428
Rp2429
(dp2430
g27
(dp2431
g29
Vref
p2432
sg31
VO
p2433
sg33
VNN
p2434
sg35
I33
ssg10
I239
sg36
g4
sg37
(dp2435
sg39
(dp2436
sg41
I1313
sg42
g21
sg43
g21
sg44
I239
sg45
VREF
p2437
sg47
I239
sg48
I1316
sbag0
(g23
g2
Ntp2438
Rp2439
(dp2440
g27
(dp2441
g29
V-rsb-
p2442
sg31
VO
p2443
sg33
V-RRB-
p2444
sg35
I34
ssg10
I240
sg36
g4
sg37
(dp2445
sg39
(dp2446
sg41
I1316
sg42
g21
sg43
g21
sg44
I240
sg45
V]
p2447
sg47
I240
sg48
I1317
sbag0
(g23
g2
Ntp2448
Rp2449
(dp2450
g27
(dp2451
g29
V.
p2452
sg31
VO
p2453
sg33
V.
p2454
sg35
I35
ssg10
I241
sg36
g4
sg37
(dp2455
sg39
(dp2456
sg41
I1317
sg42
g21
sg43
g21
sg44
I241
sg45
V.
p2457
sg47
I241
sg48
I1318
sbag0
(g23
g2
Ntp2458
Rp2459
(dp2460
g27
(dp2461
g29
Vthe
p2462
sg31
VO
p2463
sg33
VDT
p2464
sg35
I1
ssg10
I242
sg36
g4
sg37
(dp2465
sg39
(dp2466
sg41
I1320
sg42
g21
sg43
g21
sg44
I242
sg45
VThe
p2467
sg47
I242
sg48
I1323
sbag0
(g23
g2
Ntp2468
Rp2469
(dp2470
g27
(dp2471
g29
Vbake
p2472
sg31
VO
p2473
sg33
VJJ
p2474
sg35
I2
ssg10
I243
sg36
g4
sg37
(dp2475
sg39
(dp2476
sg41
I1324
sg42
g21
sg43
g21
sg44
I243
sg45
Vbake
p2477
sg47
I243
sg48
I1328
sbag0
(g23
g2
Ntp2478
Rp2479
(dp2480
g27
(dp2481
g29
Vsale
p2482
sg31
VO
p2483
sg33
VNNS
p2484
sg35
I3
ssg10
I244
sg36
g4
sg37
(dp2485
sg39
(dp2486
sg41
I1329
sg42
g21
sg43
g21
sg44
I244
sg45
Vsales
p2487
sg47
I244
sg48
I1334
sbag0
(g23
g2
Ntp2488
Rp2489
(dp2490
g27
(dp2491
g29
Vhave
p2492
sg31
VO
p2493
sg33
VVBP
p2494
sg35
I4
ssg10
I245
sg36
g4
sg37
(dp2495
sg39
(dp2496
sg41
I1335
sg42
g21
sg43
g21
sg44
I245
sg45
Vhave
p2497
sg47
I245
sg48
I1339
sbag0
(g23
g2
Ntp2498
Rp2499
(dp2500
g27
(dp2501
g29
Vmeet
p2502
sg31
VO
p2503
sg33
VVBN
p2504
sg35
I5
ssg10
I246
sg36
g4
sg37
(dp2505
sg39
(dp2506
sg41
I1340
sg42
g21
sg43
g21
sg44
I246
sg45
Vmet
p2507
sg47
I246
sg48
I1343
sbag0
(g23
g2
Ntp2508
Rp2509
(dp2510
g27
(dp2511
g29
Vopposition
p2512
sg31
VO
p2513
sg33
VNN
p2514
sg35
I6
ssg10
I247
sg36
g4
sg37
(dp2515
sg39
(dp2516
sg41
I1344
sg42
g21
sg43
g21
sg44
I247
sg45
Vopposition
p2517
sg47
I247
sg48
I1354
sbag0
(g23
g2
Ntp2518
Rp2519
(dp2520
g27
(dp2521
g29
V,
p2522
sg31
VO
p2523
sg33
V,
p2524
sg35
I7
ssg10
I248
sg36
g4
sg37
(dp2525
sg39
(dp2526
sg41
I1354
sg42
g21
sg43
g21
sg44
I248
sg45
V,
p2527
sg47
I248
sg48
I1355
sbag0
(g23
g2
Ntp2528
Rp2529
(dp2530
g27
(dp2531
g29
Vdraw
p2532
sg31
VO
p2533
sg33
VVBG
p2534
sg35
I8
ssg10
I249
sg36
g4
sg37
(dp2535
sg39
(dp2536
sg41
I1356
sg42
g21
sg43
g21
sg44
I249
sg45
Vdrawing
p2537
sg47
I249
sg48
I1363
sbag0
(g23
g2
Ntp2538
Rp2539
(dp2540
g27
(dp2541
g29
Vcrowd
p2542
sg31
VO
p2543
sg33
VNNS
p2544
sg35
I9
ssg10
I250
sg36
g4
sg37
(dp2545
sg39
(dp2546
sg41
I1364
sg42
g21
sg43
g21
sg44
I250
sg45
Vcrowds
p2547
sg47
I250
sg48
I1370
sbag0
(g23
g2
Ntp2548
Rp2549
(dp2550
g27
(dp2551
g29
Vof
p2552
sg31
VO
p2553
sg33
VIN
p2554
sg35
I10
ssg10
I251
sg36
g4
sg37
(dp2555
sg39
(dp2556
sg41
I1371
sg42
g21
sg43
g21
sg44
I251
sg45
Vof
p2557
sg47
I251
sg48
I1373
sbag0
(g23
g2
Ntp2558
Rp2559
(dp2560
g27
(dp2561
g29
Vstudent
p2562
sg31
VO
p2563
sg33
VNNS
p2564
sg35
I11
ssg10
I252
sg36
g4
sg37
(dp2565
sg39
(dp2566
sg41
I1374
sg42
g21
sg43
g21
sg44
I252
sg45
Vstudents
p2567
sg47
I252
sg48
I1382
sbag0
(g23
g2
Ntp2568
Rp2569
(dp2570
g27
(dp2571
g29
V,
p2572
sg31
VO
p2573
sg33
V,
p2574
sg35
I12
ssg10
I253
sg36
g4
sg37
(dp2575
sg39
(dp2576
sg41
I1382
sg42
g21
sg43
g21
sg44
I253
sg45
V,
p2577
sg47
I253
sg48
I1383
sbag0
(g23
g2
Ntp2578
Rp2579
(dp2580
g27
(dp2581
g29
Vsometimes
p2582
sg31
VO
p2583
sg33
VRB
p2584
sg35
I13
ssg10
I254
sg36
g4
sg37
(dp2585
sg39
(dp2586
sg41
I1384
sg42
g21
sg43
g21
sg44
I254
sg45
Vsometimes
p2587
sg47
I254
sg48
I1393
sbag0
(g23
g2
Ntp2588
Rp2589
(dp2590
g27
(dp2591
g29
Vface
p2592
sg31
VO
p2593
sg33
VVBG
p2594
sg35
I14
ssg10
I255
sg36
g4
sg37
(dp2595
sg39
(dp2596
sg41
I1394
sg42
g21
sg43
g21
sg44
I255
sg45
Vfacing
p2597
sg47
I255
sg48
I1400
sbag0
(g23
g2
Ntp2598
Rp2599
(dp2600
g27
(dp2601
g29
Vopposition
p2602
sg31
VO
p2603
sg33
VNN
p2604
sg35
I15
ssg10
I256
sg36
g4
sg37
(dp2605
sg39
(dp2606
sg41
I1401
sg42
g21
sg43
g21
sg44
I256
sg45
Vopposition
p2607
sg47
I256
sg48
I1411
sbag0
(g23
g2
Ntp2608
Rp2609
(dp2610
g27
(dp2611
g29
Vor
p2612
sg31
VO
p2613
sg33
VCC
p2614
sg35
I16
ssg10
I257
sg36
g4
sg37
(dp2615
sg39
(dp2616
sg41
I1412
sg42
g21
sg43
g21
sg44
I257
sg45
Vor
p2617
sg47
I257
sg48
I1414
sbag0
(g23
g2
Ntp2618
Rp2619
(dp2620
g27
(dp2621
g29
Vrestriction
p2622
sg31
VO
p2623
sg33
VNN
p2624
sg35
I17
ssg10
I258
sg36
g4
sg37
(dp2625
sg39
(dp2626
sg41
I1415
sg42
g21
sg43
g21
sg44
I258
sg45
Vrestriction
p2627
sg47
I258
sg48
I1426
sbag0
(g23
g2
Ntp2628
Rp2629
(dp2630
g27
(dp2631
g29
Vfrom
p2632
sg31
VO
p2633
sg33
VIN
p2634
sg35
I18
ssg10
I259
sg36
g4
sg37
(dp2635
sg39
(dp2636
sg41
I1427
sg42
g21
sg43
g21
sg44
I259
sg45
Vfrom
p2637
sg47
I259
sg48
I1431
sbag0
(g23
g2
Ntp2638
Rp2639
(dp2640
g27
(dp2641
g29
Vcampus
p2642
sg31
VO
p2643
sg33
VNN
p2644
sg35
I19
ssg10
I260
sg36
g4
sg37
(dp2645
sg39
(dp2646
sg41
I1432
sg42
g21
sg43
g21
sg44
I260
sg45
Vcampus
p2647
sg47
I260
sg48
I1438
sbag0
(g23
g2
Ntp2648
Rp2649
(dp2650
g27
(dp2651
g29
Vadministration
p2652
sg31
VO
p2653
sg33
VNNS
p2654
sg35
I20
ssg10
I261
sg36
g4
sg37
(dp2655
sg39
(dp2656
sg41
I1439
sg42
g21
sg43
g21
sg44
I261
sg45
Vadministrations
p2657
sg47
I261
sg48
I1454
sbag0
(g23
g2
Ntp2658
Rp2659
(dp2660
g27
(dp2661
g29
V,
p2662
sg31
VO
p2663
sg33
V,
p2664
sg35
I21
ssg10
I262
sg36
g4
sg37
(dp2665
sg39
(dp2666
sg41
I1454
sg42
g21
sg43
g21
sg44
I262
sg45
V,
p2667
sg47
I262
sg48
I1455
sbag0
(g23
g2
Ntp2668
Rp2669
(dp2670
g27
(dp2671
g29
V-lsb-
p2672
sg31
VO
p2673
sg33
V-LRB-
p2674
sg35
I22
ssg10
I263
sg36
g4
sg37
(dp2675
sg39
(dp2676
sg41
I1455
sg42
g21
sg43
g21
sg44
I263
sg45
V[
p2677
sg47
I263
sg48
I1456
sbag0
(g23
g2
Ntp2678
Rp2679
(dp2680
g27
(dp2681
g29
VREF
p2682
sg31
VO
p2683
sg33
VNNP
p2684
sg35
I23
ssg10
I264
sg36
g4
sg37
(dp2685
sg39
(dp2686
sg41
I1456
sg42
g21
sg43
g21
sg44
I264
sg45
VREF
p2687
sg47
I264
sg48
I1459
sbag0
(g23
g2
Ntp2688
Rp2689
(dp2690
g27
(dp2691
g29
V-rsb-
p2692
sg31
VO
p2693
sg33
V-RRB-
p2694
sg35
I24
ssg10
I265
sg36
g4
sg37
(dp2695
sg39
(dp2696
sg41
I1459
sg42
g21
sg43
g21
sg44
I265
sg45
V]
p2697
sg47
I265
sg48
I1460
sbag0
(g23
g2
Ntp2698
Rp2699
(dp2700
g27
(dp2701
g29
V-lsb-
p2702
sg31
VO
p2703
sg33
V-LRB-
p2704
sg35
I25
ssg10
I266
sg36
g4
sg37
(dp2705
sg39
(dp2706
sg41
I1460
sg42
g21
sg43
g21
sg44
I266
sg45
V[
p2707
sg47
I266
sg48
I1461
sbag0
(g23
g2
Ntp2708
Rp2709
(dp2710
g27
(dp2711
g29
Vref
p2712
sg31
VO
p2713
sg33
VNN
p2714
sg35
I26
ssg10
I267
sg36
g4
sg37
(dp2715
sg39
(dp2716
sg41
I1461
sg42
g21
sg43
g21
sg44
I267
sg45
VREF
p2717
sg47
I267
sg48
I1464
sbag0
(g23
g2
Ntp2718
Rp2719
(dp2720
g27
(dp2721
g29
V-rsb-
p2722
sg31
VO
p2723
sg33
V-RRB-
p2724
sg35
I27
ssg10
I268
sg36
g4
sg37
(dp2725
sg39
(dp2726
sg41
I1464
sg42
g21
sg43
g21
sg44
I268
sg45
V]
p2727
sg47
I268
sg48
I1465
sbag0
(g23
g2
Ntp2728
Rp2729
(dp2730
g27
(dp2731
g29
V-lsb-
p2732
sg31
VO
p2733
sg33
V-LRB-
p2734
sg35
I28
ssg10
I269
sg36
g4
sg37
(dp2735
sg39
(dp2736
sg41
I1465
sg42
g21
sg43
g21
sg44
I269
sg45
V[
p2737
sg47
I269
sg48
I1466
sbag0
(g23
g2
Ntp2738
Rp2739
(dp2740
g27
(dp2741
g29
Vref
p2742
sg31
VO
p2743
sg33
VNN
p2744
sg35
I29
ssg10
I270
sg36
g4
sg37
(dp2745
sg39
(dp2746
sg41
I1466
sg42
g21
sg43
g21
sg44
I270
sg45
VREF
p2747
sg47
I270
sg48
I1469
sbag0
(g23
g2
Ntp2748
Rp2749
(dp2750
g27
(dp2751
g29
V-rsb-
p2752
sg31
VO
p2753
sg33
V-RRB-
p2754
sg35
I30
ssg10
I271
sg36
g4
sg37
(dp2755
sg39
(dp2756
sg41
I1469
sg42
g21
sg43
g21
sg44
I271
sg45
V]
p2757
sg47
I271
sg48
I1470
sbag0
(g23
g2
Ntp2758
Rp2759
(dp2760
g27
(dp2761
g29
Voften
p2762
sg31
VO
p2763
sg33
VRB
p2764
sg35
I31
ssg10
I272
sg36
g4
sg37
(dp2765
sg39
(dp2766
sg41
I1471
sg42
g21
sg43
g21
sg44
I272
sg45
Voften
p2767
sg47
I272
sg48
I1476
sbag0
(g23
g2
Ntp2768
Rp2769
(dp2770
g27
(dp2771
g29
Vbe
p2772
sg31
VO
p2773
sg33
VVBG
p2774
sg35
I32
ssg10
I273
sg36
g4
sg37
(dp2775
sg39
(dp2776
sg41
I1477
sg42
g21
sg43
g21
sg44
I273
sg45
Vbeing
p2777
sg47
I273
sg48
I1482
sbag0
(g23
g2
Ntp2778
Rp2779
(dp2780
g27
(dp2781
g29
Vaccuse
p2782
sg31
VO
p2783
sg33
VVBN
p2784
sg35
I33
ssg10
I274
sg36
g4
sg37
(dp2785
sg39
(dp2786
sg41
I1483
sg42
g21
sg43
g21
sg44
I274
sg45
Vaccused
p2787
sg47
I274
sg48
I1490
sbag0
(g23
g2
Ntp2788
Rp2789
(dp2790
g27
(dp2791
g29
Vof
p2792
sg31
VO
p2793
sg33
VIN
p2794
sg35
I34
ssg10
I275
sg36
g4
sg37
(dp2795
sg39
(dp2796
sg41
I1491
sg42
g21
sg43
g21
sg44
I275
sg45
Vof
p2797
sg47
I275
sg48
I1493
sbag0
(g23
g2
Ntp2798
Rp2799
(dp2800
g27
(dp2801
g29
Vracism
p2802
sg31
VO
p2803
sg33
VNN
p2804
sg35
I35
ssg10
I276
sg36
g4
sg37
(dp2805
sg39
(dp2806
sg41
I1494
sg42
g21
sg43
g21
sg44
I276
sg45
Vracism
p2807
sg47
I276
sg48
I1500
sbag0
(g23
g2
Ntp2808
Rp2809
(dp2810
g27
(dp2811
g29
V,
p2812
sg31
VO
p2813
sg33
V,
p2814
sg35
I36
ssg10
I277
sg36
g4
sg37
(dp2815
sg39
(dp2816
sg41
I1500
sg42
g21
sg43
g21
sg44
I277
sg45
V,
p2817
sg47
I277
sg48
I1501
sbag0
(g23
g2
Ntp2818
Rp2819
(dp2820
g27
(dp2821
g29
Vand
p2822
sg31
VO
p2823
sg33
VCC
p2824
sg35
I37
ssg10
I278
sg36
g4
sg37
(dp2825
sg39
(dp2826
sg41
I1502
sg42
g21
sg43
g21
sg44
I278
sg45
Vand
p2827
sg47
I278
sg48
I1505
sbag0
(g23
g2
Ntp2828
Rp2829
(dp2830
g27
(dp2831
g29
Vsometimes
p2832
sg31
VO
p2833
sg33
VRB
p2834
sg35
I38
ssg10
I279
sg36
g4
sg37
(dp2835
sg39
(dp2836
sg41
I1506
sg42
g21
sg43
g21
sg44
I279
sg45
Vsometimes
p2837
sg47
I279
sg48
I1515
sbag0
(g23
g2
Ntp2838
Rp2839
(dp2840
g27
(dp2841
g29
Veven
p2842
sg31
VO
p2843
sg33
VRB
p2844
sg35
I39
ssg10
I280
sg36
g4
sg37
(dp2845
sg39
(dp2846
sg41
I1516
sg42
g21
sg43
g21
sg44
I280
sg45
Veven
p2847
sg47
I280
sg48
I1520
sbag0
(g23
g2
Ntp2848
Rp2849
(dp2850
g27
(dp2851
g29
Vbe
p2852
sg31
VO
p2853
sg33
VVBG
p2854
sg35
I40
ssg10
I281
sg36
g4
sg37
(dp2855
sg39
(dp2856
sg41
I1521
sg42
g21
sg43
g21
sg44
I281
sg45
Vbeing
p2857
sg47
I281
sg48
I1526
sbag0
(g23
g2
Ntp2858
Rp2859
(dp2860
g27
(dp2861
g29
Vattack
p2862
sg31
VO
p2863
sg33
VVBN
p2864
sg35
I41
ssg10
I282
sg36
g4
sg37
(dp2865
sg39
(dp2866
sg41
I1527
sg42
g21
sg43
g21
sg44
I282
sg45
Vattacked
p2867
sg47
I282
sg48
I1535
sbag0
(g23
g2
Ntp2868
Rp2869
(dp2870
g27
(dp2871
g29
V-lsb-
p2872
sg31
VO
p2873
sg33
V-LRB-
p2874
sg35
I42
ssg10
I283
sg36
g4
sg37
(dp2875
sg39
(dp2876
sg41
I1536
sg42
g21
sg43
g21
sg44
I283
sg45
V[
p2877
sg47
I283
sg48
I1537
sbag0
(g23
g2
Ntp2878
Rp2879
(dp2880
g27
(dp2881
g29
Vref
p2882
sg31
VO
p2883
sg33
VNN
p2884
sg35
I43
ssg10
I284
sg36
g4
sg37
(dp2885
sg39
(dp2886
sg41
I1537
sg42
g21
sg43
g21
sg44
I284
sg45
VREF
p2887
sg47
I284
sg48
I1540
sbag0
(g23
g2
Ntp2888
Rp2889
(dp2890
g27
(dp2891
g29
V-rsb-
p2892
sg31
VO
p2893
sg33
V-RRB-
p2894
sg35
I44
ssg10
I285
sg36
g4
sg37
(dp2895
sg39
(dp2896
sg41
I1540
sg42
g21
sg43
g21
sg44
I285
sg45
V]
p2897
sg47
I285
sg48
I1541
sbag0
(g23
g2
Ntp2898
Rp2899
(dp2900
g27
(dp2901
g29
V.
p2902
sg31
VO
p2903
sg33
V.
p2904
sg35
I45
ssg10
I286
sg36
g4
sg37
(dp2905
sg39
(dp2906
sg41
I1541
sg42
g21
sg43
g21
sg44
I286
sg45
V.
p2907
sg47
I286
sg48
I1542
sbag0
(g23
g2
Ntp2908
Rp2909
(dp2910
g27
(dp2911
g29
Vadditionally
p2912
sg31
VO
p2913
sg33
VRB
p2914
sg35
I1
ssg10
I287
sg36
g4
sg37
(dp2915
sg39
(dp2916
sg41
I1543
sg42
g21
sg43
g21
sg44
I287
sg45
VAdditionally
p2917
sg47
I287
sg48
I1555
sbag0
(g23
g2
Ntp2918
Rp2919
(dp2920
g27
(dp2921
g29
V,
p2922
sg31
VO
p2923
sg33
V,
p2924
sg35
I2
ssg10
I288
sg36
g4
sg37
(dp2925
sg39
(dp2926
sg41
I1555
sg42
g21
sg43
g21
sg44
I288
sg45
V,
p2927
sg47
I288
sg48
I1556
sbag0
(g23
g2
Ntp2928
Rp2929
(dp2930
g27
(dp2931
g29
Vsome
p2932
sg31
VO
p2933
sg33
VDT
p2934
sg35
I3
ssg10
I289
sg36
g4
sg37
(dp2935
sg39
(dp2936
sg41
I1557
sg42
g21
sg43
g21
sg44
I289
sg45
Vsome
p2937
sg47
I289
sg48
I1561
sbag0
(g23
g2
Ntp2938
Rp2939
(dp2940
g27
(dp2941
g29
Vadministrator
p2942
sg31
VO
p2943
sg33
VNNS
p2944
sg35
I4
ssg10
I290
sg36
g4
sg37
(dp2945
sg39
(dp2946
sg41
I1562
sg42
g21
sg43
g21
sg44
I290
sg45
Vadministrators
p2947
sg47
I290
sg48
I1576
sbag0
(g23
g2
Ntp2948
Rp2949
(dp2950
g27
(dp2951
g29
Vhave
p2952
sg31
VO
p2953
sg33
VVBP
p2954
sg35
I5
ssg10
I291
sg36
g4
sg37
(dp2955
sg39
(dp2956
sg41
I1577
sg42
g21
sg43
g21
sg44
I291
sg45
Vhave
p2957
sg47
I291
sg48
I1581
sbag0
(g23
g2
Ntp2958
Rp2959
(dp2960
g27
(dp2961
g29
Vbe
p2962
sg31
VO
p2963
sg33
VVBN
p2964
sg35
I6
ssg10
I292
sg36
g4
sg37
(dp2965
sg39
(dp2966
sg41
I1582
sg42
g21
sg43
g21
sg44
I292
sg45
Vbeen
p2967
sg47
I292
sg48
I1586
sbag0
(g23
g2
Ntp2968
Rp2969
(dp2970
g27
(dp2971
g29
Vaccuse
p2972
sg31
VO
p2973
sg33
VVBN
p2974
sg35
I7
ssg10
I293
sg36
g4
sg37
(dp2975
sg39
(dp2976
sg41
I1587
sg42
g21
sg43
g21
sg44
I293
sg45
Vaccused
p2977
sg47
I293
sg48
I1594
sbag0
(g23
g2
Ntp2978
Rp2979
(dp2980
g27
(dp2981
g29
Vof
p2982
sg31
VO
p2983
sg33
VIN
p2984
sg35
I8
ssg10
I294
sg36
g4
sg37
(dp2985
sg39
(dp2986
sg41
I1595
sg42
g21
sg43
g21
sg44
I294
sg45
Vof
p2987
sg47
I294
sg48
I1597
sbag0
(g23
g2
Ntp2988
Rp2989
(dp2990
g27
(dp2991
g29
Vcensorship
p2992
sg31
VO
p2993
sg33
VNN
p2994
sg35
I9
ssg10
I295
sg36
g4
sg37
(dp2995
sg39
(dp2996
sg41
I1598
sg42
g21
sg43
g21
sg44
I295
sg45
Vcensorship
p2997
sg47
I295
sg48
I1608
sbag0
(g23
g2
Ntp2998
Rp2999
(dp3000
g27
(dp3001
g29
Vand
p3002
sg31
VO
p3003
sg33
VCC
p3004
sg35
I10
ssg10
I296
sg36
g4
sg37
(dp3005
sg39
(dp3006
sg41
I1609
sg42
g21
sg43
g21
sg44
I296
sg45
Vand
p3007
sg47
I296
sg48
I1612
sbag0
(g23
g2
Ntp3008
Rp3009
(dp3010
g27
(dp3011
g29
Vinappropriately
p3012
sg31
VO
p3013
sg33
VRB
p3014
sg35
I11
ssg10
I297
sg36
g4
sg37
(dp3015
sg39
(dp3016
sg41
I1613
sg42
g21
sg43
g21
sg44
I297
sg45
Vinappropriately
p3017
sg47
I297
sg48
I1628
sbag0
(g23
g2
Ntp3018
Rp3019
(dp3020
g27
(dp3021
g29
Vadvocate
p3022
sg31
VO
p3023
sg33
VVBG
p3024
sg35
I12
ssg10
I298
sg36
g4
sg37
(dp3025
sg39
(dp3026
sg41
I1629
sg42
g21
sg43
g21
sg44
I298
sg45
Vadvocating
p3027
sg47
I298
sg48
I1639
sbag0
(g23
g2
Ntp3028
Rp3029
(dp3030
g27
(dp3031
g29
Va
p3032
sg31
VO
p3033
sg33
VDT
p3034
sg35
I13
ssg10
I299
sg36
g4
sg37
(dp3035
sg39
(dp3036
sg41
I1629
sg42
g21
sg43
g21
sg44
I299
sg45
Va
p3037
sg47
I299
sg48
I1630
sbag0
(g23
g2
Ntp3038
Rp3039
(dp3040
g27
(dp3041
g29
Vpolitical
p3042
sg31
VO
p3043
sg33
VJJ
p3044
sg35
I14
ssg10
I300
sg36
g4
sg37
(dp3045
sg39
(dp3046
sg41
I1642
sg42
g21
sg43
g21
sg44
I300
sg45
Vpolitical
p3047
sg47
I300
sg48
I1651
sbag0
(g23
g2
Ntp3048
Rp3049
(dp3050
g27
(dp3051
g29
Vposition
p3052
sg31
VO
p3053
sg33
VNN
p3054
sg35
I15
ssg10
I301
sg36
g4
sg37
(dp3055
sg39
(dp3056
sg41
I1652
sg42
g21
sg43
g21
sg44
I301
sg45
Vposition
p3057
sg47
I301
sg48
I1660
sbag0
(g23
g2
Ntp3058
Rp3059
(dp3060
g27
(dp3061
g29
V-lsb-
p3062
sg31
VO
p3063
sg33
V-LRB-
p3064
sg35
I16
ssg10
I302
sg36
g4
sg37
(dp3065
sg39
(dp3066
sg41
I1661
sg42
g21
sg43
g21
sg44
I302
sg45
V[
p3067
sg47
I302
sg48
I1662
sbag0
(g23
g2
Ntp3068
Rp3069
(dp3070
g27
(dp3071
g29
Vref
p3072
sg31
VO
p3073
sg33
VNN
p3074
sg35
I17
ssg10
I303
sg36
g4
sg37
(dp3075
sg39
(dp3076
sg41
I1662
sg42
g21
sg43
g21
sg44
I303
sg45
VREF
p3077
sg47
I303
sg48
I1665
sbag0
(g23
g2
Ntp3078
Rp3079
(dp3080
g27
(dp3081
g29
V-rsb-
p3082
sg31
VO
p3083
sg33
V-RRB-
p3084
sg35
I18
ssg10
I304
sg36
g4
sg37
(dp3085
sg39
(dp3086
sg41
I1665
sg42
g21
sg43
g21
sg44
I304
sg45
V]
p3087
sg47
I304
sg48
I1666
sbag0
(g23
g2
Ntp3088
Rp3089
(dp3090
g27
(dp3091
g29
V.
p3092
sg31
VO
p3093
sg33
V.
p3094
sg35
I19
ssg10
I305
sg36
g4
sg37
(dp3095
sg39
(dp3096
sg41
I1666
sg42
g21
sg43
g21
sg44
I305
sg45
V.
p3097
sg47
I305
sg48
I1667
sbag0
(g23
g2
Ntp3098
Rp3099
(dp3100
g27
(dp3101
g29
Vthe
p3102
sg31
VO
p3103
sg33
VDT
p3104
sg35
I1
ssg10
I306
sg36
g4
sg37
(dp3105
sg39
(dp3106
sg41
I1668
sg42
g21
sg43
g21
sg44
I306
sg45
VThe
p3107
sg47
I306
sg48
I1671
sbag0
(g23
g2
Ntp3108
Rp3109
(dp3110
g27
(dp3111
g29
V2007
p3112
sg31
VDATE
p3113
sg33
VCD
p3114
sg35
I2
ssg10
I307
sg36
g4
sg37
(dp3115
sg39
(dp3116
sg41
I1672
sg42
g21
sg43
g21
sg44
I307
sg45
V2007
p3117
sg47
I307
sg48
I1676
sbag0
(g23
g2
Ntp3118
Rp3119
(dp3120
g27
(dp3121
g29
Vdocumentary
p3122
sg31
VO
p3123
sg33
VNN
p3124
sg35
I3
ssg10
I308
sg36
g4
sg37
(dp3125
sg39
(dp3126
sg41
I1677
sg42
g21
sg43
g21
sg44
I308
sg45
Vdocumentary
p3127
sg47
I308
sg48
I1688
sbag0
(g23
g2
Ntp3128
Rp3129
(dp3130
g27
(dp3131
g29
Vindoctrinate
p3132
sg31
VO
p3133
sg33
VJJ
p3134
sg35
I4
ssg10
I309
sg36
g4
sg37
(dp3135
sg39
(dp3136
sg41
I1689
sg42
g21
sg43
g21
sg44
I309
sg45
VIndoctrinate
p3137
sg47
I309
sg48
I1701
sbag0
(g23
g2
Ntp3138
Rp3139
(dp3140
g27
(dp3141
g29
Vu
p3142
sg31
VO
p3143
sg33
VNN
p3144
sg35
I5
ssg10
I310
sg36
g4
sg37
(dp3145
sg39
(dp3146
sg41
I1702
sg42
g21
sg43
g21
sg44
I310
sg45
VU
p3147
sg47
I310
sg48
I1703
sbag0
(g23
g2
Ntp3148
Rp3149
(dp3150
g27
(dp3151
g29
Vshow
p3152
sg31
VO
p3153
sg33
VVBD
p3154
sg35
I6
ssg10
I311
sg36
g4
sg37
(dp3155
sg39
(dp3156
sg41
I1704
sg42
g21
sg43
g21
sg44
I311
sg45
Vshowed
p3157
sg47
I311
sg48
I1710
sbag0
(g23
g2
Ntp3158
Rp3159
(dp3160
g27
(dp3161
g29
Vhow
p3162
sg31
VO
p3163
sg33
VWRB
p3164
sg35
I7
ssg10
I312
sg36
g4
sg37
(dp3165
sg39
(dp3166
sg41
I1705
sg42
g21
sg43
g21
sg44
I312
sg45
Vhow
p3167
sg47
I312
sg48
I1708
sbag0
(g23
g2
Ntp3168
Rp3169
(dp3170
g27
(dp3171
g29
Vsome
p3172
sg31
VO
p3173
sg33
VDT
p3174
sg35
I8
ssg10
I313
sg36
g4
sg37
(dp3175
sg39
(dp3176
sg41
I1715
sg42
g21
sg43
g21
sg44
I313
sg45
Vsome
p3177
sg47
I313
sg48
I1719
sbag0
(g23
g2
Ntp3178
Rp3179
(dp3180
g27
(dp3181
g29
Vsuch
p3182
sg31
VO
p3183
sg33
VJJ
p3184
sg35
I9
ssg10
I314
sg36
g4
sg37
(dp3185
sg39
(dp3186
sg41
I1720
sg42
g21
sg43
g21
sg44
I314
sg45
Vsuch
p3187
sg47
I314
sg48
I1724
sbag0
(g23
g2
Ntp3188
Rp3189
(dp3190
g27
(dp3191
g29
Vcensorship
p3192
sg31
VO
p3193
sg33
VNN
p3194
sg35
I10
ssg10
I315
sg36
g4
sg37
(dp3195
sg39
(dp3196
sg41
I1725
sg42
g21
sg43
g21
sg44
I315
sg45
Vcensorship
p3197
sg47
I315
sg48
I1735
sbag0
(g23
g2
Ntp3198
Rp3199
(dp3200
g27
(dp3201
g29
Vbe
p3202
sg31
VO
p3203
sg33
VVBZ
p3204
sg35
I11
ssg10
I316
sg36
g4
sg37
(dp3205
sg39
(dp3206
sg41
I1736
sg42
g21
sg43
g21
sg44
I316
sg45
Vis
p3207
sg47
I316
sg48
I1738
sbag0
(g23
g2
Ntp3208
Rp3209
(dp3210
g27
(dp3211
g29
Voften
p3212
sg31
VO
p3213
sg33
VRB
p3214
sg35
I12
ssg10
I317
sg36
g4
sg37
(dp3215
sg39
(dp3216
sg41
I1739
sg42
g21
sg43
g21
sg44
I317
sg45
Voften
p3217
sg47
I317
sg48
I1744
sbag0
(g23
g2
Ntp3218
Rp3219
(dp3220
g27
(dp3221
g29
Vinstitutionalize
p3222
sg31
VO
p3223
sg33
VVBN
p3224
sg35
I13
ssg10
I318
sg36
g4
sg37
(dp3225
sg39
(dp3226
sg41
I1745
sg42
g21
sg43
g21
sg44
I318
sg45
Vinstitutionalized
p3227
sg47
I318
sg48
I1762
sbag0
(g23
g2
Ntp3228
Rp3229
(dp3230
g27
(dp3231
g29
Vinto
p3232
sg31
VO
p3233
sg33
VIN
p3234
sg35
I14
ssg10
I319
sg36
g4
sg37
(dp3235
sg39
(dp3236
sg41
I1763
sg42
g21
sg43
g21
sg44
I319
sg45
Vinto
p3237
sg47
I319
sg48
I1767
sbag0
(g23
g2
Ntp3238
Rp3239
(dp3240
g27
(dp3241
g29
Vthe
p3242
sg31
VO
p3243
sg33
VDT
p3244
sg35
I15
ssg10
I320
sg36
g4
sg37
(dp3245
sg39
(dp3246
sg41
I1768
sg42
g21
sg43
g21
sg44
I320
sg45
Vthe
p3247
sg47
I320
sg48
I1771
sbag0
(g23
g2
Ntp3248
Rp3249
(dp3250
g27
(dp3251
g29
Vuniversity
p3252
sg31
VO
p3253
sg33
VNN
p3254
sg35
I16
ssg10
I321
sg36
g4
sg37
(dp3255
sg39
(dp3256
sg41
I1772
sg42
g21
sg43
g21
sg44
I321
sg45
Vuniversity
p3257
sg47
I321
sg48
I1782
sbag0
(g23
g2
Ntp3258
Rp3259
(dp3260
g27
(dp3261
g29
Vsystem
p3262
sg31
VO
p3263
sg33
VNN
p3264
sg35
I17
ssg10
I322
sg36
g4
sg37
(dp3265
sg39
(dp3266
sg41
I1783
sg42
g21
sg43
g21
sg44
I322
sg45
Vsystem
p3267
sg47
I322
sg48
I1789
sbag0
(g23
g2
Ntp3268
Rp3269
(dp3270
g27
(dp3271
g29
V.
p3272
sg31
VO
p3273
sg33
V.
p3274
sg35
I18
ssg10
I323
sg36
g4
sg37
(dp3275
sg39
(dp3276
sg41
I1789
sg42
g21
sg43
g21
sg44
I323
sg45
V.
p3277
sg47
I323
sg48
I1790
sbag0
(g23
g2
Ntp3278
Rp3279
(dp3280
g27
(dp3281
g29
Vrespond
p3282
sg31
VO
p3283
sg33
VVBG
p3284
sg35
I1
ssg10
I324
sg36
g4
sg37
(dp3285
sg39
(dp3286
sg41
I1793
sg42
g21
sg43
g21
sg44
I324
sg45
VResponding
p3287
sg47
I324
sg48
I1803
sbag0
(g23
g2
Ntp3288
Rp3289
(dp3290
g27
(dp3291
g29
Vto
p3292
sg31
VO
p3293
sg33
VTO
p3294
sg35
I2
ssg10
I325
sg36
g4
sg37
(dp3295
sg39
(dp3296
sg41
I1804
sg42
g21
sg43
g21
sg44
I325
sg45
Vto
p3297
sg47
I325
sg48
I1806
sbag0
(g23
g2
Ntp3298
Rp3299
(dp3300
g27
(dp3301
g29
Va
p3302
sg31
VO
p3303
sg33
VDT
p3304
sg35
I3
ssg10
I326
sg36
g4
sg37
(dp3305
sg39
(dp3306
sg41
I1807
sg42
g21
sg43
g21
sg44
I326
sg45
Van
p3307
sg47
I326
sg48
I1809
sbag0
(g23
g2
Ntp3308
Rp3309
(dp3310
g27
(dp3311
g29
Vaffirmative
p3312
sg31
VO
p3313
sg33
VJJ
p3314
sg35
I4
ssg10
I327
sg36
g4
sg37
(dp3315
sg39
(dp3316
sg41
I1810
sg42
g21
sg43
g21
sg44
I327
sg45
Vaffirmative
p3317
sg47
I327
sg48
I1821
sbag0
(g23
g2
Ntp3318
Rp3319
(dp3320
g27
(dp3321
g29
Vaction
p3322
sg31
VO
p3323
sg33
VNN
p3324
sg35
I5
ssg10
I328
sg36
g4
sg37
(dp3325
sg39
(dp3326
sg41
I1822
sg42
g21
sg43
g21
sg44
I328
sg45
Vaction
p3327
sg47
I328
sg48
I1828
sbag0
(g23
g2
Ntp3328
Rp3329
(dp3330
g27
(dp3331
g29
Vbake
p3332
sg31
VO
p3333
sg33
VVB
p3334
sg35
I6
ssg10
I329
sg36
g4
sg37
(dp3335
sg39
(dp3336
sg41
I1829
sg42
g21
sg43
g21
sg44
I329
sg45
Vbake
p3337
sg47
I329
sg48
I1833
sbag0
(g23
g2
Ntp3338
Rp3339
(dp3340
g27
(dp3341
g29
Vsale
p3342
sg31
VO
p3343
sg33
VNN
p3344
sg35
I7
ssg10
I330
sg36
g4
sg37
(dp3345
sg39
(dp3346
sg41
I1834
sg42
g21
sg43
g21
sg44
I330
sg45
Vsale
p3347
sg47
I330
sg48
I1838
sbag0
(g23
g2
Ntp3348
Rp3349
(dp3350
g27
(dp3351
g29
Vbe
p3352
sg31
VO
p3353
sg33
VVBG
p3354
sg35
I8
ssg10
I331
sg36
g4
sg37
(dp3355
sg39
(dp3356
sg41
I1839
sg42
g21
sg43
g21
sg44
I331
sg45
Vbeing
p3357
sg47
I331
sg48
I1844
sbag0
(g23
g2
Ntp3358
Rp3359
(dp3360
g27
(dp3361
g29
Vattack
p3362
sg31
VO
p3363
sg33
VVBN
p3364
sg35
I9
ssg10
I332
sg36
g4
sg37
(dp3365
sg39
(dp3366
sg41
I1845
sg42
g21
sg43
g21
sg44
I332
sg45
Vattacked
p3367
sg47
I332
sg48
I1853
sbag0
(g23
g2
Ntp3368
Rp3369
(dp3370
g27
(dp3371
g29
Vat
p3372
sg31
VO
p3373
sg33
VIN
p3374
sg35
I10
ssg10
I333
sg36
g4
sg37
(dp3375
sg39
(dp3376
sg41
I1845
sg42
g21
sg43
g21
sg44
I333
sg45
Vat
p3377
sg47
I333
sg48
I1847
sbag0
(g23
g2
Ntp3378
Rp3379
(dp3380
g27
(dp3381
g29
Vthe
p3382
sg31
VO
p3383
sg33
VDT
p3384
sg35
I11
ssg10
I334
sg36
g4
sg37
(dp3385
sg39
(dp3386
sg41
I1857
sg42
g21
sg43
g21
sg44
I334
sg45
Vthe
p3387
sg47
I334
sg48
I1860
sbag0
(g23
g2
Ntp3388
Rp3389
(dp3390
g27
(dp3391
g29
VUniversity
p3392
sg31
VORGANIZATION
p3393
sg33
VNNP
p3394
sg35
I12
ssg10
I335
sg36
g4
sg37
(dp3395
sg39
(dp3396
sg41
I1861
sg42
g21
sg43
g21
sg44
I335
sg45
VUniversity
p3397
sg47
I335
sg48
I1871
sbag0
(g23
g2
Ntp3398
Rp3399
(dp3400
g27
(dp3401
g29
Vof
p3402
sg31
VORGANIZATION
p3403
sg33
VIN
p3404
sg35
I13
ssg10
I336
sg36
g4
sg37
(dp3405
sg39
(dp3406
sg41
I1872
sg42
g21
sg43
g21
sg44
I336
sg45
Vof
p3407
sg47
I336
sg48
I1874
sbag0
(g23
g2
Ntp3408
Rp3409
(dp3410
g27
(dp3411
g29
VWashington
p3412
sg31
VORGANIZATION
p3413
sg33
VNNP
p3414
sg35
I14
ssg10
I337
sg36
g4
sg37
(dp3415
sg39
(dp3416
sg41
I1875
sg42
g21
sg43
g21
sg44
I337
sg45
VWashington
p3417
sg47
I337
sg48
I1885
sbag0
(g23
g2
Ntp3418
Rp3419
(dp3420
g27
(dp3421
g29
V,
p3422
sg31
VO
p3423
sg33
V,
p3424
sg35
I15
ssg10
I338
sg36
g4
sg37
(dp3425
sg39
(dp3426
sg41
I1885
sg42
g21
sg43
g21
sg44
I338
sg45
V,
p3427
sg47
I338
sg48
I1886
sbag0
(g23
g2
Ntp3428
Rp3429
(dp3430
g27
(dp3431
g29
Vthe
p3432
sg31
VO
p3433
sg33
VDT
p3434
sg35
I16
ssg10
I339
sg36
g4
sg37
(dp3435
sg39
(dp3436
sg41
I1887
sg42
g21
sg43
g21
sg44
I339
sg45
Vthe
p3437
sg47
I339
sg48
I1890
sbag0
(g23
g2
Ntp3438
Rp3439
(dp3440
g27
(dp3441
g29
Vschool
p3442
sg31
VO
p3443
sg33
VNN
p3444
sg35
I17
ssg10
I340
sg36
g4
sg37
(dp3445
sg39
(dp3446
sg41
I1891
sg42
g21
sg43
g21
sg44
I340
sg45
Vschool
p3447
sg47
I340
sg48
I1897
sbag0
(g23
g2
Ntp3448
Rp3449
(dp3450
g27
(dp3451
g29
V's
p3452
sg31
VO
p3453
sg33
VPOS
p3454
sg35
I18
ssg10
I341
sg36
g4
sg37
(dp3455
sg39
(dp3456
sg41
I1897
sg42
g21
sg43
g21
sg44
I341
sg45
V's
p3457
sg47
I341
sg48
I1899
sbag0
(g23
g2
Ntp3458
Rp3459
(dp3460
g27
(dp3461
g29
VBoard
p3462
sg31
VORGANIZATION
p3463
sg33
VNNP
p3464
sg35
I19
ssg10
I342
sg36
g4
sg37
(dp3465
sg39
(dp3466
sg41
I1900
sg42
g21
sg43
g21
sg44
I342
sg45
VBoard
p3467
sg47
I342
sg48
I1905
sbag0
(g23
g2
Ntp3468
Rp3469
(dp3470
g27
(dp3471
g29
Vof
p3472
sg31
VORGANIZATION
p3473
sg33
VIN
p3474
sg35
I20
ssg10
I343
sg36
g4
sg37
(dp3475
sg39
(dp3476
sg41
I1906
sg42
g21
sg43
g21
sg44
I343
sg45
Vof
p3477
sg47
I343
sg48
I1908
sbag0
(g23
g2
Ntp3478
Rp3479
(dp3480
g27
(dp3481
g29
VRegents
p3482
sg31
VORGANIZATION
p3483
sg33
VNNP
p3484
sg35
I21
ssg10
I344
sg36
g4
sg37
(dp3485
sg39
(dp3486
sg41
I1909
sg42
g21
sg43
g21
sg44
I344
sg45
VRegents
p3487
sg47
I344
sg48
I1916
sbag0
(g23
g2
Ntp3488
Rp3489
(dp3490
g27
(dp3491
g29
VPresident
p3492
sg31
VO
p3493
sg33
VNNP
p3494
sg35
I22
ssg10
I345
sg36
g4
sg37
(dp3495
sg39
(dp3496
sg41
I1917
sg42
g21
sg43
g21
sg44
I345
sg45
VPresident
p3497
sg47
I345
sg48
I1926
sbag0
(g23
g2
Ntp3498
Rp3499
(dp3500
g27
(dp3501
g29
VJerry
p3502
sg31
VPERSON
p3503
sg33
VNNP
p3504
sg35
I23
ssg10
I346
sg36
g4
sg37
(dp3505
sg39
(dp3506
sg41
I1927
sg42
g21
sg43
g21
sg44
I346
sg45
VJerry
p3507
sg47
I346
sg48
I1932
sbag0
(g23
g2
Ntp3508
Rp3509
(dp3510
g27
(dp3511
g29
VGrinstein
p3512
sg31
VPERSON
p3513
sg33
VNNP
p3514
sg35
I24
ssg10
I347
sg36
g4
sg37
(dp3515
sg39
(dp3516
sg41
I1933
sg42
g21
sg43
g21
sg44
I347
sg45
VGrinstein
p3517
sg47
I347
sg48
I1942
sbag0
(g23
g2
Ntp3518
Rp3519
(dp3520
g27
(dp3521
g29
Vpresent
p3522
sg31
VO
p3523
sg33
VVBD
p3524
sg35
I25
ssg10
I348
sg36
g4
sg37
(dp3525
sg39
(dp3526
sg41
I1943
sg42
g21
sg43
g21
sg44
I348
sg45
Vpresented
p3527
sg47
I348
sg48
I1952
sbag0
(g23
g2
Ntp3528
Rp3529
(dp3530
g27
(dp3531
g29
Vthe
p3532
sg31
VO
p3533
sg33
VDT
p3534
sg35
I26
ssg10
I349
sg36
g4
sg37
(dp3535
sg39
(dp3536
sg41
I1953
sg42
g21
sg43
g21
sg44
I349
sg45
Vthe
p3537
sg47
I349
sg48
I1956
sbag0
(g23
g2
Ntp3538
Rp3539
(dp3540
g27
(dp3541
g29
Vopinion
p3542
sg31
VO
p3543
sg33
VNN
p3544
sg35
I27
ssg10
I350
sg36
g4
sg37
(dp3545
sg39
(dp3546
sg41
I1957
sg42
g21
sg43
g21
sg44
I350
sg45
Vopinion
p3547
sg47
I350
sg48
I1964
sbag0
(g23
g2
Ntp3548
Rp3549
(dp3550
g27
(dp3551
g29
Vof
p3552
sg31
VO
p3553
sg33
VIN
p3554
sg35
I28
ssg10
I351
sg36
g4
sg37
(dp3555
sg39
(dp3556
sg41
I1965
sg42
g21
sg43
g21
sg44
I351
sg45
Vof
p3557
sg47
I351
sg48
I1967
sbag0
(g23
g2
Ntp3558
Rp3559
(dp3560
g27
(dp3561
g29
Vmany
p3562
sg31
VO
p3563
sg33
VJJ
p3564
sg35
I29
ssg10
I352
sg36
g4
sg37
(dp3565
sg39
(dp3566
sg41
I1968
sg42
g21
sg43
g21
sg44
I352
sg45
Vmany
p3567
sg47
I352
sg48
I1972
sbag0
(g23
g2
Ntp3568
Rp3569
(dp3570
g27
(dp3571
g29
Vopponent
p3572
sg31
VO
p3573
sg33
VNNS
p3574
sg35
I30
ssg10
I353
sg36
g4
sg37
(dp3575
sg39
(dp3576
sg41
I1973
sg42
g21
sg43
g21
sg44
I353
sg45
Vopponents
p3577
sg47
I353
sg48
I1982
sbag0
(g23
g2
Ntp3578
Rp3579
(dp3580
g27
(dp3581
g29
Vof
p3582
sg31
VO
p3583
sg33
VIN
p3584
sg35
I31
ssg10
I354
sg36
g4
sg37
(dp3585
sg39
(dp3586
sg41
I1983
sg42
g21
sg43
g21
sg44
I354
sg45
Vof
p3587
sg47
I354
sg48
I1985
sbag0
(g23
g2
Ntp3588
Rp3589
(dp3590
g27
(dp3591
g29
Vthese
p3592
sg31
VO
p3593
sg33
VDT
p3594
sg35
I32
ssg10
I355
sg36
g4
sg37
(dp3595
sg39
(dp3596
sg41
I1986
sg42
g21
sg43
g21
sg44
I355
sg45
Vthese
p3597
sg47
I355
sg48
I1991
sbag0
(g23
g2
Ntp3598
Rp3599
(dp3600
g27
(dp3601
g29
Vevent
p3602
sg31
VO
p3603
sg33
VNNS
p3604
sg35
I33
ssg10
I356
sg36
g4
sg37
(dp3605
sg39
(dp3606
sg41
I1992
sg42
g21
sg43
g21
sg44
I356
sg45
Vevents
p3607
sg47
I356
sg48
I1998
sbag0
(g23
g2
Ntp3608
Rp3609
(dp3610
g27
(dp3611
g29
Vwhen
p3612
sg31
VO
p3613
sg33
VWRB
p3614
sg35
I34
ssg10
I357
sg36
g4
sg37
(dp3615
sg39
(dp3616
sg41
I1999
sg42
g21
sg43
g21
sg44
I357
sg45
Vwhen
p3617
sg47
I357
sg48
I2003
sbag0
(g23
g2
Ntp3618
Rp3619
(dp3620
g27
(dp3621
g29
Vhe
p3622
sg31
VO
p3623
sg33
VPRP
p3624
sg35
I35
ssg10
I358
sg36
g4
sg37
(dp3625
sg39
(dp3626
sg41
I2000
sg42
g21
sg43
g21
sg44
I358
sg45
Vhe
p3627
sg47
I358
sg48
I2002
sbag0
(g23
g2
Ntp3628
Rp3629
(dp3630
g27
(dp3631
g29
Vdescribe
p3632
sg31
VO
p3633
sg33
VVBD
p3634
sg35
I36
ssg10
I359
sg36
g4
sg37
(dp3635
sg39
(dp3636
sg41
I2007
sg42
g21
sg43
g21
sg44
I359
sg45
Vdescribed
p3637
sg47
I359
sg48
I2016
sbag0
(g23
g2
Ntp3638
Rp3639
(dp3640
g27
(dp3641
g29
V``
p3642
sg31
VO
p3643
sg33
V``
p3644
sg35
I37
ssg10
I360
sg36
g4
sg37
(dp3645
sg39
(dp3646
sg41
I2017
sg42
g21
sg43
g21
sg44
I360
sg45
g528
sg47
I360
sg48
I2018
sbag0
(g23
g2
Ntp3647
Rp3648
(dp3649
g27
(dp3650
g29
Vthe
p3651
sg31
VO
p3652
sg33
VDT
p3653
sg35
I38
ssg10
I361
sg36
g4
sg37
(dp3654
sg39
(dp3655
sg41
I2018
sg42
g21
sg43
g21
sg44
I361
sg45
Vthe
p3656
sg47
I361
sg48
I2021
sbag0
(g23
g2
Ntp3657
Rp3658
(dp3659
g27
(dp3660
g29
Vstatement
p3661
sg31
VO
p3662
sg33
VNNS
p3663
sg35
I39
ssg10
I362
sg36
g4
sg37
(dp3664
sg39
(dp3665
sg41
I2022
sg42
g21
sg43
g21
sg44
I362
sg45
Vstatements
p3666
sg47
I362
sg48
I2032
sbag0
(g23
g2
Ntp3667
Rp3668
(dp3669
g27
(dp3670
g29
V-lsb-
p3671
sg31
VO
p3672
sg33
V-LRB-
p3673
sg35
I40
ssg10
I363
sg36
g4
sg37
(dp3674
sg39
(dp3675
sg41
I2033
sg42
g21
sg43
g21
sg44
I363
sg45
V[
p3676
sg47
I363
sg48
I2034
sbag0
(g23
g2
Ntp3677
Rp3678
(dp3679
g27
(dp3680
g29
V.
p3681
sg31
VO
p3682
sg33
V.
p3683
sg35
I41
ssg10
I364
sg36
g4
sg37
(dp3684
sg39
(dp3685
sg41
I2034
sg42
g21
sg43
g21
sg44
I364
sg45
V.
p3686
sg47
I364
sg48
I2035
sbag0
(g23
g2
Ntp3687
Rp3688
(dp3689
g27
(dp3690
g29
V.
p3691
sg31
VO
p3692
sg33
V.
p3693
sg35
I1
ssg10
I365
sg36
g4
sg37
(dp3694
sg39
(dp3695
sg41
I2034
sg42
g21
sg43
g21
sg44
I365
sg45
V.
p3696
sg47
I365
sg48
I2035
sbag0
(g23
g2
Ntp3697
Rp3698
(dp3699
g27
(dp3700
g29
V-rsb-
p3701
sg31
VO
p3702
sg33
V-RRB-
p3703
sg35
I2
ssg10
I366
sg36
g4
sg37
(dp3704
sg39
(dp3705
sg41
I2036
sg42
g21
sg43
g21
sg44
I366
sg45
V]
p3706
sg47
I366
sg48
I2037
sbag0
(g23
g2
Ntp3707
Rp3708
(dp3709
g27
(dp3710
g29
Vin
p3711
sg31
VO
p3712
sg33
VIN
p3713
sg35
I1
ssg10
I367
sg36
g4
sg37
(dp3714
sg39
(dp3715
sg41
I2038
sg42
g21
sg43
g21
sg44
I367
sg45
Vin
p3716
sg47
I367
sg48
I2040
sbag0
(g23
g2
Ntp3717
Rp3718
(dp3719
g27
(dp3720
g29
Vput
p3721
sg31
VO
p3722
sg33
VVBG
p3723
sg35
I2
ssg10
I368
sg36
g4
sg37
(dp3724
sg39
(dp3725
sg41
I2041
sg42
g21
sg43
g21
sg44
I368
sg45
Vputting
p3726
sg47
I368
sg48
I2048
sbag0
(g23
g2
Ntp3727
Rp3728
(dp3729
g27
(dp3730
g29
Von
p3731
sg31
VO
p3732
sg33
VRP
p3733
sg35
I3
ssg10
I369
sg36
g4
sg37
(dp3734
sg39
(dp3735
sg41
I2049
sg42
g21
sg43
g21
sg44
I369
sg45
Von
p3736
sg47
I369
sg48
I2051
sbag0
(g23
g2
Ntp3737
Rp3738
(dp3739
g27
(dp3740
g29
Va
p3741
sg31
VO
p3742
sg33
VDT
p3743
sg35
I4
ssg10
I370
sg36
g4
sg37
(dp3744
sg39
(dp3745
sg41
I2052
sg42
g21
sg43
g21
sg44
I370
sg45
Va
p3746
sg47
I370
sg48
I2053
sbag0
(g23
g2
Ntp3747
Rp3748
(dp3749
g27
(dp3750
g29
Vbake
p3751
sg31
VO
p3752
sg33
VJJ
p3753
sg35
I5
ssg10
I371
sg36
g4
sg37
(dp3754
sg39
(dp3755
sg41
I2054
sg42
g21
sg43
g21
sg44
I371
sg45
Vbake
p3756
sg47
I371
sg48
I2058
sbag0
(g23
g2
Ntp3757
Rp3758
(dp3759
g27
(dp3760
g29
Vsale
p3761
sg31
VO
p3762
sg33
VNN
p3763
sg35
I6
ssg10
I372
sg36
g4
sg37
(dp3764
sg39
(dp3765
sg41
I2059
sg42
g21
sg43
g21
sg44
I372
sg45
Vsale
p3766
sg47
I372
sg48
I2063
sbag0
(g23
g2
Ntp3767
Rp3768
(dp3769
g27
(dp3770
g29
Vabout
p3771
sg31
VO
p3772
sg33
VIN
p3773
sg35
I7
ssg10
I373
sg36
g4
sg37
(dp3774
sg39
(dp3775
sg41
I2064
sg42
g21
sg43
g21
sg44
I373
sg45
Vabout
p3776
sg47
I373
sg48
I2069
sbag0
(g23
g2
Ntp3777
Rp3778
(dp3779
g27
(dp3780
g29
Vaffirmative
p3781
sg31
VO
p3782
sg33
VJJ
p3783
sg35
I8
ssg10
I374
sg36
g4
sg37
(dp3784
sg39
(dp3785
sg41
I2070
sg42
g21
sg43
g21
sg44
I374
sg45
Vaffirmative
p3786
sg47
I374
sg48
I2081
sbag0
(g23
g2
Ntp3787
Rp3788
(dp3789
g27
(dp3790
g29
Vaction
p3791
sg31
VO
p3792
sg33
VNN
p3793
sg35
I9
ssg10
I375
sg36
g4
sg37
(dp3794
sg39
(dp3795
sg41
I2082
sg42
g21
sg43
g21
sg44
I375
sg45
Vaction
p3796
sg47
I375
sg48
I2088
sbag0
(g23
g2
Ntp3797
Rp3798
(dp3799
g27
(dp3800
g29
Vbe
p3801
sg31
VO
p3802
sg33
VVBD
p3803
sg35
I10
ssg10
I376
sg36
g4
sg37
(dp3804
sg39
(dp3805
sg41
I2089
sg42
g21
sg43
g21
sg44
I376
sg45
Vwere
p3806
sg47
I376
sg48
I2093
sbag0
(g23
g2
Ntp3807
Rp3808
(dp3809
g27
(dp3810
g29
Vtasteless
p3811
sg31
VO
p3812
sg33
VJJ
p3813
sg35
I11
ssg10
I377
sg36
g4
sg37
(dp3814
sg39
(dp3815
sg41
I2094
sg42
g21
sg43
g21
sg44
I377
sg45
Vtasteless
p3816
sg47
I377
sg48
I2103
sbag0
(g23
g2
Ntp3817
Rp3818
(dp3819
g27
(dp3820
g29
V,
p3821
sg31
VO
p3822
sg33
V,
p3823
sg35
I12
ssg10
I378
sg36
g4
sg37
(dp3824
sg39
(dp3825
sg41
I2103
sg42
g21
sg43
g21
sg44
I378
sg45
V,
p3826
sg47
I378
sg48
I2104
sbag0
(g23
g2
Ntp3827
Rp3828
(dp3829
g27
(dp3830
g29
Vdivisive
p3831
sg31
VO
p3832
sg33
VJJ
p3833
sg35
I13
ssg10
I379
sg36
g4
sg37
(dp3834
sg39
(dp3835
sg41
I2105
sg42
g21
sg43
g21
sg44
I379
sg45
Vdivisive
p3836
sg47
I379
sg48
I2113
sbag0
(g23
g2
Ntp3837
Rp3838
(dp3839
g27
(dp3840
g29
Vand
p3841
sg31
VO
p3842
sg33
VCC
p3843
sg35
I14
ssg10
I380
sg36
g4
sg37
(dp3844
sg39
(dp3845
sg41
I2114
sg42
g21
sg43
g21
sg44
I380
sg45
Vand
p3846
sg47
I380
sg48
I2117
sbag0
(g23
g2
Ntp3847
Rp3848
(dp3849
g27
(dp3850
g29
Vhurtful
p3851
sg31
VO
p3852
sg33
VJJ
p3853
sg35
I15
ssg10
I381
sg36
g4
sg37
(dp3854
sg39
(dp3855
sg41
I2118
sg42
g21
sg43
g21
sg44
I381
sg45
Vhurtful
p3856
sg47
I381
sg48
I2125
sbag0
(g23
g2
Ntp3857
Rp3858
(dp3859
g27
(dp3860
g29
Vto
p3861
sg31
VO
p3862
sg33
VTO
p3863
sg35
I16
ssg10
I382
sg36
g4
sg37
(dp3864
sg39
(dp3865
sg41
I2126
sg42
g21
sg43
g21
sg44
I382
sg45
Vto
p3866
sg47
I382
sg48
I2128
sbag0
(g23
g2
Ntp3867
Rp3868
(dp3869
g27
(dp3870
g29
Vmany
p3871
sg31
VO
p3872
sg33
VJJ
p3873
sg35
I17
ssg10
I383
sg36
g4
sg37
(dp3874
sg39
(dp3875
sg41
I2129
sg42
g21
sg43
g21
sg44
I383
sg45
Vmany
p3876
sg47
I383
sg48
I2133
sbag0
(g23
g2
Ntp3877
Rp3878
(dp3879
g27
(dp3880
g29
Vmember
p3881
sg31
VO
p3882
sg33
VNNS
p3883
sg35
I18
ssg10
I384
sg36
g4
sg37
(dp3884
sg39
(dp3885
sg41
I2134
sg42
g21
sg43
g21
sg44
I384
sg45
Vmembers
p3886
sg47
I384
sg48
I2141
sbag0
(g23
g2
Ntp3887
Rp3888
(dp3889
g27
(dp3890
g29
Vof
p3891
sg31
VO
p3892
sg33
VIN
p3893
sg35
I19
ssg10
I385
sg36
g4
sg37
(dp3894
sg39
(dp3895
sg41
I2142
sg42
g21
sg43
g21
sg44
I385
sg45
Vof
p3896
sg47
I385
sg48
I2144
sbag0
(g23
g2
Ntp3897
Rp3898
(dp3899
g27
(dp3900
g29
Vthe
p3901
sg31
VO
p3902
sg33
VDT
p3903
sg35
I20
ssg10
I386
sg36
g4
sg37
(dp3904
sg39
(dp3905
sg41
I2145
sg42
g21
sg43
g21
sg44
I386
sg45
Vthe
p3906
sg47
I386
sg48
I2148
sbag0
(g23
g2
Ntp3907
Rp3908
(dp3909
g27
(dp3910
g29
Vuniversity
p3911
sg31
VO
p3912
sg33
VNN
p3913
sg35
I21
ssg10
I387
sg36
g4
sg37
(dp3914
sg39
(dp3915
sg41
I2149
sg42
g21
sg43
g21
sg44
I387
sg45
Vuniversity
p3916
sg47
I387
sg48
I2159
sbag0
(g23
g2
Ntp3917
Rp3918
(dp3919
g27
(dp3920
g29
Vcommunity
p3921
sg31
VO
p3922
sg33
VNN
p3923
sg35
I22
ssg10
I388
sg36
g4
sg37
(dp3924
sg39
(dp3925
sg41
I2160
sg42
g21
sg43
g21
sg44
I388
sg45
Vcommunity
p3926
sg47
I388
sg48
I2169
sbag0
(g23
g2
Ntp3927
Rp3928
(dp3929
g27
(dp3930
g29
V.
p3931
sg31
VO
p3932
sg33
V.
p3933
sg35
I23
ssg10
I389
sg36
g4
sg37
(dp3934
sg39
(dp3935
sg41
I2169
sg42
g21
sg43
g21
sg44
I389
sg45
V.
p3936
sg47
I389
sg48
I2170
sbag0
(g23
g2
Ntp3937
Rp3938
(dp3939
g27
(dp3940
g29
V''
p3941
sg31
VO
p3942
sg33
V''
p3943
sg35
I24
ssg10
I390
sg36
g4
sg37
(dp3944
sg39
(dp3945
sg41
I2170
sg42
g21
sg43
g21
sg44
I390
sg45
g528
sg47
I390
sg48
I2171
sbag0
(g23
g2
Ntp3946
Rp3947
(dp3948
g27
(dp3949
g29
V-lsb-
p3950
sg31
VO
p3951
sg33
V-LRB-
p3952
sg35
I1
ssg10
I391
sg36
g4
sg37
(dp3953
sg39
(dp3954
sg41
I2171
sg42
g21
sg43
g21
sg44
I391
sg45
V[
p3955
sg47
I391
sg48
I2172
sbag0
(g23
g2
Ntp3956
Rp3957
(dp3958
g27
(dp3959
g29
Vref
p3960
sg31
VO
p3961
sg33
VNN
p3962
sg35
I2
ssg10
I392
sg36
g4
sg37
(dp3963
sg39
(dp3964
sg41
I2172
sg42
g21
sg43
g21
sg44
I392
sg45
VREF
p3965
sg47
I392
sg48
I2175
sbag0
(g23
g2
Ntp3966
Rp3967
(dp3968
g27
(dp3969
g29
V-rsb-
p3970
sg31
VO
p3971
sg33
V-RRB-
p3972
sg35
I3
ssg10
I393
sg36
g4
sg37
(dp3973
sg39
(dp3974
sg41
I2175
sg42
g21
sg43
g21
sg44
I393
sg45
V]
p3975
sg47
I393
sg48
I2176
sbag0
(g23
g2
Ntp3976
Rp3977
(dp3978
g27
(dp3979
g29
Vthe
p3980
sg31
VO
p3981
sg33
VDT
p3982
sg35
I4
ssg10
I394
sg36
g4
sg37
(dp3983
sg39
(dp3984
sg41
I2177
sg42
g21
sg43
g21
sg44
I394
sg45
VThe
p3985
sg47
I394
sg48
I2180
sbag0
(g23
g2
Ntp3986
Rp3987
(dp3988
g27
(dp3989
g29
Vstudent
p3990
sg31
VO
p3991
sg33
VNN
p3992
sg35
I5
ssg10
I395
sg36
g4
sg37
(dp3993
sg39
(dp3994
sg41
I2181
sg42
g21
sg43
g21
sg44
I395
sg45
Vstudent
p3995
sg47
I395
sg48
I2188
sbag0
(g23
g2
Ntp3996
Rp3997
(dp3998
g27
(dp3999
g29
Vleader
p4000
sg31
VO
p4001
sg33
VNN
p4002
sg35
I6
ssg10
I396
sg36
g4
sg37
(dp4003
sg39
(dp4004
sg41
I2189
sg42
g21
sg43
g21
sg44
I396
sg45
Vleader
p4005
sg47
I396
sg48
I2195
sbag0
(g23
g2
Ntp4006
Rp4007
(dp4008
g27
(dp4009
g29
Vof
p4010
sg31
VO
p4011
sg33
VIN
p4012
sg35
I7
ssg10
I397
sg36
g4
sg37
(dp4013
sg39
(dp4014
sg41
I2196
sg42
g21
sg43
g21
sg44
I397
sg45
Vof
p4015
sg47
I397
sg48
I2198
sbag0
(g23
g2
Ntp4016
Rp4017
(dp4018
g27
(dp4019
g29
Va
p4020
sg31
VO
p4021
sg33
VDT
p4022
sg35
I8
ssg10
I398
sg36
g4
sg37
(dp4023
sg39
(dp4024
sg41
I2199
sg42
g21
sg43
g21
sg44
I398
sg45
Va
p4025
sg47
I398
sg48
I2200
sbag0
(g23
g2
Ntp4026
Rp4027
(dp4028
g27
(dp4029
g29
Vbake
p4030
sg31
VO
p4031
sg33
VJJ
p4032
sg35
I9
ssg10
I399
sg36
g4
sg37
(dp4033
sg39
(dp4034
sg41
I2201
sg42
g21
sg43
g21
sg44
I399
sg45
Vbake
p4035
sg47
I399
sg48
I2205
sbag0
(g23
g2
Ntp4036
Rp4037
(dp4038
g27
(dp4039
g29
Vsale
p4040
sg31
VO
p4041
sg33
VNN
p4042
sg35
I10
ssg10
I400
sg36
g4
sg37
(dp4043
sg39
(dp4044
sg41
I2206
sg42
g21
sg43
g21
sg44
I400
sg45
Vsale
p4045
sg47
I400
sg48
I2210
sbag0
(g23
g2
Ntp4046
Rp4047
(dp4048
g27
(dp4049
g29
Vat
p4050
sg31
VO
p4051
sg33
VIN
p4052
sg35
I11
ssg10
I401
sg36
g4
sg37
(dp4053
sg39
(dp4054
sg41
I2211
sg42
g21
sg43
g21
sg44
I401
sg45
Vat
p4055
sg47
I401
sg48
I2213
sbag0
(g23
g2
Ntp4056
Rp4057
(dp4058
g27
(dp4059
g29
VUCLA
p4060
sg31
VORGANIZATION
p4061
sg33
VNNP
p4062
sg35
I12
ssg10
I402
sg36
g4
sg37
(dp4063
sg39
(dp4064
sg41
I2214
sg42
g21
sg43
g21
sg44
I402
sg45
VUCLA
p4065
sg47
I402
sg48
I2218
sbag0
(g23
g2
Ntp4066
Rp4067
(dp4068
g27
(dp4069
g29
Vaddress
p4070
sg31
VO
p4071
sg33
VVBD
p4072
sg35
I13
ssg10
I403
sg36
g4
sg37
(dp4073
sg39
(dp4074
sg41
I2219
sg42
g21
sg43
g21
sg44
I403
sg45
Vaddressed
p4075
sg47
I403
sg48
I2228
sbag0
(g23
g2
Ntp4076
Rp4077
(dp4078
g27
(dp4079
g29
Vthis
p4080
sg31
VO
p4081
sg33
VDT
p4082
sg35
I14
ssg10
I404
sg36
g4
sg37
(dp4083
sg39
(dp4084
sg41
I2229
sg42
g21
sg43
g21
sg44
I404
sg45
Vthis
p4085
sg47
I404
sg48
I2233
sbag0
(g23
g2
Ntp4086
Rp4087
(dp4088
g27
(dp4089
g29
Vissue
p4090
sg31
VO
p4091
sg33
VNN
p4092
sg35
I15
ssg10
I405
sg36
g4
sg37
(dp4093
sg39
(dp4094
sg41
I2234
sg42
g21
sg43
g21
sg44
I405
sg45
Vissue
p4095
sg47
I405
sg48
I2239
sbag0
(g23
g2
Ntp4096
Rp4097
(dp4098
g27
(dp4099
g29
Vof
p4100
sg31
VO
p4101
sg33
VIN
p4102
sg35
I16
ssg10
I406
sg36
g4
sg37
(dp4103
sg39
(dp4104
sg41
I2240
sg42
g21
sg43
g21
sg44
I406
sg45
Vof
p4105
sg47
I406
sg48
I2242
sbag0
(g23
g2
Ntp4106
Rp4107
(dp4108
g27
(dp4109
g29
Vdivisiveness
p4110
sg31
VO
p4111
sg33
VNN
p4112
sg35
I17
ssg10
I407
sg36
g4
sg37
(dp4113
sg39
(dp4114
sg41
I2243
sg42
g21
sg43
g21
sg44
I407
sg45
Vdivisiveness
p4115
sg47
I407
sg48
I2255
sbag0
(g23
g2
Ntp4116
Rp4117
(dp4118
g27
(dp4119
g29
V,
p4120
sg31
VO
p4121
sg33
V,
p4122
sg35
I18
ssg10
I408
sg36
g4
sg37
(dp4123
sg39
(dp4124
sg41
I2255
sg42
g21
sg43
g21
sg44
I408
sg45
V,
p4125
sg47
I408
sg48
I2256
sbag0
(g23
g2
Ntp4126
Rp4127
(dp4128
g27
(dp4129
g29
Vsay
p4130
sg31
VO
p4131
sg33
VVBG
p4132
sg35
I19
ssg10
I409
sg36
g4
sg37
(dp4133
sg39
(dp4134
sg41
I2257
sg42
g21
sg43
g21
sg44
I409
sg45
Vsaying
p4135
sg47
I409
sg48
I2263
sbag0
(g23
g2
Ntp4136
Rp4137
(dp4138
g27
(dp4139
g29
V``
p4140
sg31
VO
p4141
sg33
V``
p4142
sg35
I20
ssg10
I410
sg36
g4
sg37
(dp4143
sg39
(dp4144
sg41
I2264
sg42
g21
sg43
g21
sg44
I410
sg45
g528
sg47
I410
sg48
I2265
sbag0
(g23
g2
Ntp4145
Rp4146
(dp4147
g27
(dp4148
g29
Vwe
p4149
sg31
VO
p4150
sg33
VPRP
p4151
sg35
I21
ssg10
I411
sg36
g4
sg37
(dp4152
sg39
(dp4153
sg41
I2265
sg42
g21
sg43
g21
sg44
I411
sg45
Vwe
p4154
sg47
I411
sg48
I2267
sbag0
(g23
g2
Ntp4155
Rp4156
(dp4157
g27
(dp4158
g29
Vwant
p4159
sg31
VO
p4160
sg33
VVBD
p4161
sg35
I22
ssg10
I412
sg36
g4
sg37
(dp4162
sg39
(dp4163
sg41
I2268
sg42
g21
sg43
g21
sg44
I412
sg45
Vwanted
p4164
sg47
I412
sg48
I2274
sbag0
(g23
g2
Ntp4165
Rp4166
(dp4167
g27
(dp4168
g29
Vto
p4169
sg31
VO
p4170
sg33
VTO
p4171
sg35
I23
ssg10
I413
sg36
g4
sg37
(dp4172
sg39
(dp4173
sg41
I2275
sg42
g21
sg43
g21
sg44
I413
sg45
Vto
p4174
sg47
I413
sg48
I2277
sbag0
(g23
g2
Ntp4175
Rp4176
(dp4177
g27
(dp4178
g29
Vshow
p4179
sg31
VO
p4180
sg33
VVB
p4181
sg35
I24
ssg10
I414
sg36
g4
sg37
(dp4182
sg39
(dp4183
sg41
I2278
sg42
g21
sg43
g21
sg44
I414
sg45
Vshow
p4184
sg47
I414
sg48
I2282
sbag0
(g23
g2
Ntp4185
Rp4186
(dp4187
g27
(dp4188
g29
Vhow
p4189
sg31
VO
p4190
sg33
VWRB
p4191
sg35
I25
ssg10
I415
sg36
g4
sg37
(dp4192
sg39
(dp4193
sg41
I2279
sg42
g21
sg43
g21
sg44
I415
sg45
Vhow
p4194
sg47
I415
sg48
I2282
sbag0
(g23
g2
Ntp4195
Rp4196
(dp4197
g27
(dp4198
g29
Vaffirmative
p4199
sg31
VO
p4200
sg33
VJJ
p4201
sg35
I26
ssg10
I416
sg36
g4
sg37
(dp4202
sg39
(dp4203
sg41
I2287
sg42
g21
sg43
g21
sg44
I416
sg45
Vaffirmative
p4204
sg47
I416
sg48
I2298
sbag0
(g23
g2
Ntp4205
Rp4206
(dp4207
g27
(dp4208
g29
Vaction
p4209
sg31
VO
p4210
sg33
VNN
p4211
sg35
I27
ssg10
I417
sg36
g4
sg37
(dp4212
sg39
(dp4213
sg41
I2299
sg42
g21
sg43
g21
sg44
I417
sg45
Vaction
p4214
sg47
I417
sg48
I2305
sbag0
(g23
g2
Ntp4215
Rp4216
(dp4217
g27
(dp4218
g29
Vbe
p4219
sg31
VO
p4220
sg33
VVBZ
p4221
sg35
I28
ssg10
I418
sg36
g4
sg37
(dp4222
sg39
(dp4223
sg41
I2306
sg42
g21
sg43
g21
sg44
I418
sg45
Vis
p4224
sg47
I418
sg48
I2308
sbag0
(g23
g2
Ntp4225
Rp4226
(dp4227
g27
(dp4228
g29
Vracial
p4229
sg31
VO
p4230
sg33
VJJ
p4231
sg35
I29
ssg10
I419
sg36
g4
sg37
(dp4232
sg39
(dp4233
sg41
I2309
sg42
g21
sg43
g21
sg44
I419
sg45
Vracial
p4234
sg47
I419
sg48
I2315
sbag0
(g23
g2
Ntp4235
Rp4236
(dp4237
g27
(dp4238
g29
Vdivision
p4239
sg31
VO
p4240
sg33
VNN
p4241
sg35
I30
ssg10
I420
sg36
g4
sg37
(dp4242
sg39
(dp4243
sg41
I2316
sg42
g21
sg43
g21
sg44
I420
sg45
Vdivision
p4244
sg47
I420
sg48
I2324
sbag0
(g23
g2
Ntp4245
Rp4246
(dp4247
g27
(dp4248
g29
V,
p4249
sg31
VO
p4250
sg33
V,
p4251
sg35
I31
ssg10
I421
sg36
g4
sg37
(dp4252
sg39
(dp4253
sg41
I2324
sg42
g21
sg43
g21
sg44
I421
sg45
V,
p4254
sg47
I421
sg48
I2325
sbag0
(g23
g2
Ntp4255
Rp4256
(dp4257
g27
(dp4258
g29
Vnot
p4259
sg31
VO
p4260
sg33
VRB
p4261
sg35
I32
ssg10
I422
sg36
g4
sg37
(dp4262
sg39
(dp4263
sg41
I2326
sg42
g21
sg43
g21
sg44
I422
sg45
Vnot
p4264
sg47
I422
sg48
I2329
sbag0
(g23
g2
Ntp4265
Rp4266
(dp4267
g27
(dp4268
g29
Vracial
p4269
sg31
VO
p4270
sg33
VJJ
p4271
sg35
I33
ssg10
I423
sg36
g4
sg37
(dp4272
sg39
(dp4273
sg41
I2330
sg42
g21
sg43
g21
sg44
I423
sg45
Vracial
p4274
sg47
I423
sg48
I2336
sbag0
(g23
g2
Ntp4275
Rp4276
(dp4277
g27
(dp4278
g29
Vreconciliation
p4279
sg31
VO
p4280
sg33
VNN
p4281
sg35
I34
ssg10
I424
sg36
g4
sg37
(dp4282
sg39
(dp4283
sg41
I2337
sg42
g21
sg43
g21
sg44
I424
sg45
Vreconciliation
p4284
sg47
I424
sg48
I2351
sbag0
(g23
g2
Ntp4285
Rp4286
(dp4287
g27
(dp4288
g29
V.
p4289
sg31
VO
p4290
sg33
V.
p4291
sg35
I35
ssg10
I425
sg36
g4
sg37
(dp4292
sg39
(dp4293
sg41
I2351
sg42
g21
sg43
g21
sg44
I425
sg45
V.
p4294
sg47
I425
sg48
I2352
sbag0
(g23
g2
Ntp4295
Rp4296
(dp4297
g27
(dp4298
g29
V''
p4299
sg31
VO
p4300
sg33
V''
p4301
sg35
I36
ssg10
I426
sg36
g4
sg37
(dp4302
sg39
(dp4303
sg41
I2352
sg42
g21
sg43
g21
sg44
I426
sg45
g528
sg47
I426
sg48
I2353
sbag0
(g23
g2
Ntp4304
Rp4305
(dp4306
g27
(dp4307
g29
V-lsb-
p4308
sg31
VO
p4309
sg33
V-LRB-
p4310
sg35
I1
ssg10
I427
sg36
g4
sg37
(dp4311
sg39
(dp4312
sg41
I2353
sg42
g21
sg43
g21
sg44
I427
sg45
V[
p4313
sg47
I427
sg48
I2354
sbag0
(g23
g2
Ntp4314
Rp4315
(dp4316
g27
(dp4317
g29
Vref
p4318
sg31
VO
p4319
sg33
VNN
p4320
sg35
I2
ssg10
I428
sg36
g4
sg37
(dp4321
sg39
(dp4322
sg41
I2354
sg42
g21
sg43
g21
sg44
I428
sg45
VREF
p4323
sg47
I428
sg48
I2357
sbag0
(g23
g2
Ntp4324
Rp4325
(dp4326
g27
(dp4327
g29
V-rsb-
p4328
sg31
VO
p4329
sg33
V-RRB-
p4330
sg35
I3
ssg10
I429
sg36
g4
sg37
(dp4331
sg39
(dp4332
sg41
I2357
sg42
g21
sg43
g21
sg44
I429
sg45
V]
p4333
sg47
I429
sg48
I2358
sbag0
(g23
g2
Ntp4334
Rp4335
(dp4336
g27
(dp4337
g29
Vsimilarly
p4338
sg31
VO
p4339
sg33
VRB
p4340
sg35
I4
ssg10
I430
sg36
g4
sg37
(dp4341
sg39
(dp4342
sg41
I2359
sg42
g21
sg43
g21
sg44
I430
sg45
VSimilarly
p4343
sg47
I430
sg48
I2368
sbag0
(g23
g2
Ntp4344
Rp4345
(dp4346
g27
(dp4347
g29
V,
p4348
sg31
VO
p4349
sg33
V,
p4350
sg35
I5
ssg10
I431
sg36
g4
sg37
(dp4351
sg39
(dp4352
sg41
I2368
sg42
g21
sg43
g21
sg44
I431
sg45
V,
p4353
sg47
I431
sg48
I2369
sbag0
(g23
g2
Ntp4354
Rp4355
(dp4356
g27
(dp4357
g29
Vadministrator
p4358
sg31
VO
p4359
sg33
VNNS
p4360
sg35
I6
ssg10
I432
sg36
g4
sg37
(dp4361
sg39
(dp4362
sg41
I2370
sg42
g21
sg43
g21
sg44
I432
sg45
Vadministrators
p4363
sg47
I432
sg48
I2384
sbag0
(g23
g2
Ntp4364
Rp4365
(dp4366
g27
(dp4367
g29
Vat
p4368
sg31
VO
p4369
sg33
VIN
p4370
sg35
I7
ssg10
I433
sg36
g4
sg37
(dp4371
sg39
(dp4372
sg41
I2379
sg42
g21
sg43
g21
sg44
I433
sg45
Vat
p4373
sg47
I433
sg48
I2381
sbag0
(g23
g2
Ntp4374
Rp4375
(dp4376
g27
(dp4377
g29
VBucknell
p4378
sg31
VORGANIZATION
p4379
sg33
VNNP
p4380
sg35
I8
ssg10
I434
sg36
g4
sg37
(dp4381
sg39
(dp4382
sg41
I2388
sg42
g21
sg43
g21
sg44
I434
sg45
VBucknell
p4383
sg47
I434
sg48
I2396
sbag0
(g23
g2
Ntp4384
Rp4385
(dp4386
g27
(dp4387
g29
VUniversity
p4388
sg31
VORGANIZATION
p4389
sg33
VNNP
p4390
sg35
I9
ssg10
I435
sg36
g4
sg37
(dp4391
sg39
(dp4392
sg41
I2397
sg42
g21
sg43
g21
sg44
I435
sg45
VUniversity
p4393
sg47
I435
sg48
I2407
sbag0
(g23
g2
Ntp4394
Rp4395
(dp4396
g27
(dp4397
g29
Vclaim
p4398
sg31
VO
p4399
sg33
VVBD
p4400
sg35
I10
ssg10
I436
sg36
g4
sg37
(dp4401
sg39
(dp4402
sg41
I2408
sg42
g21
sg43
g21
sg44
I436
sg45
Vclaimed
p4403
sg47
I436
sg48
I2415
sbag0
(g23
g2
Ntp4404
Rp4405
(dp4406
g27
(dp4407
g29
Vthat
p4408
sg31
VO
p4409
sg33
VIN
p4410
sg35
I11
ssg10
I437
sg36
g4
sg37
(dp4411
sg39
(dp4412
sg41
I2416
sg42
g21
sg43
g21
sg44
I437
sg45
Vthat
p4413
sg47
I437
sg48
I2420
sbag0
(g23
g2
Ntp4414
Rp4415
(dp4416
g27
(dp4417
g29
Vthe
p4418
sg31
VO
p4419
sg33
VDT
p4420
sg35
I12
ssg10
I438
sg36
g4
sg37
(dp4421
sg39
(dp4422
sg41
I2421
sg42
g21
sg43
g21
sg44
I438
sg45
Vthe
p4423
sg47
I438
sg48
I2424
sbag0
(g23
g2
Ntp4424
Rp4425
(dp4426
g27
(dp4427
g29
Vbake
p4428
sg31
VO
p4429
sg33
VNN
p4430
sg35
I13
ssg10
I439
sg36
g4
sg37
(dp4431
sg39
(dp4432
sg41
I2425
sg42
g21
sg43
g21
sg44
I439
sg45
Vbake
p4433
sg47
I439
sg48
I2429
sbag0
(g23
g2
Ntp4434
Rp4435
(dp4436
g27
(dp4437
g29
Vsale
p4438
sg31
VO
p4439
sg33
VNNS
p4440
sg35
I14
ssg10
I440
sg36
g4
sg37
(dp4441
sg39
(dp4442
sg41
I2430
sg42
g21
sg43
g21
sg44
I440
sg45
Vsales
p4443
sg47
I440
sg48
I2435
sbag0
(g23
g2
Ntp4444
Rp4445
(dp4446
g27
(dp4447
g29
Vviolate
p4448
sg31
VO
p4449
sg33
VVBD
p4450
sg35
I15
ssg10
I441
sg36
g4
sg37
(dp4451
sg39
(dp4452
sg41
I2436
sg42
g21
sg43
g21
sg44
I441
sg45
Vviolated
p4453
sg47
I441
sg48
I2444
sbag0
(g23
g2
Ntp4454
Rp4455
(dp4456
g27
(dp4457
g29
Vthe
p4458
sg31
VO
p4459
sg33
VDT
p4460
sg35
I16
ssg10
I442
sg36
g4
sg37
(dp4461
sg39
(dp4462
sg41
I2445
sg42
g21
sg43
g21
sg44
I442
sg45
Vthe
p4463
sg47
I442
sg48
I2448
sbag0
(g23
g2
Ntp4464
Rp4465
(dp4466
g27
(dp4467
g29
Vprivate
p4468
sg31
VO
p4469
sg33
VJJ
p4470
sg35
I17
ssg10
I443
sg36
g4
sg37
(dp4471
sg39
(dp4472
sg41
I2449
sg42
g21
sg43
g21
sg44
I443
sg45
Vprivate
p4473
sg47
I443
sg48
I2456
sbag0
(g23
g2
Ntp4474
Rp4475
(dp4476
g27
(dp4477
g29
Vuniversity
p4478
sg31
VO
p4479
sg33
VNN
p4480
sg35
I18
ssg10
I444
sg36
g4
sg37
(dp4481
sg39
(dp4482
sg41
I2457
sg42
g21
sg43
g21
sg44
I444
sg45
Vuniversity
p4483
sg47
I444
sg48
I2467
sbag0
(g23
g2
Ntp4484
Rp4485
(dp4486
g27
(dp4487
g29
V's
p4488
sg31
VO
p4489
sg33
VPOS
p4490
sg35
I19
ssg10
I445
sg36
g4
sg37
(dp4491
sg39
(dp4492
sg41
I2467
sg42
g21
sg43
g21
sg44
I445
sg45
V's
p4493
sg47
I445
sg48
I2469
sbag0
(g23
g2
Ntp4494
Rp4495
(dp4496
g27
(dp4497
g29
Vdiscrimination
p4498
sg31
VO
p4499
sg33
VNN
p4500
sg35
I20
ssg10
I446
sg36
g4
sg37
(dp4501
sg39
(dp4502
sg41
I2470
sg42
g21
sg43
g21
sg44
I446
sg45
Vdiscrimination
p4503
sg47
I446
sg48
I2484
sbag0
(g23
g2
Ntp4504
Rp4505
(dp4506
g27
(dp4507
g29
Vpolicy
p4508
sg31
VO
p4509
sg33
VNN
p4510
sg35
I21
ssg10
I447
sg36
g4
sg37
(dp4511
sg39
(dp4512
sg41
I2485
sg42
g21
sg43
g21
sg44
I447
sg45
Vpolicy
p4513
sg47
I447
sg48
I2491
sbag0
(g23
g2
Ntp4514
Rp4515
(dp4516
g27
(dp4517
g29
V-lsb-
p4518
sg31
VO
p4519
sg33
V-LRB-
p4520
sg35
I22
ssg10
I448
sg36
g4
sg37
(dp4521
sg39
(dp4522
sg41
I2492
sg42
g21
sg43
g21
sg44
I448
sg45
V[
p4523
sg47
I448
sg48
I2493
sbag0
(g23
g2
Ntp4524
Rp4525
(dp4526
g27
(dp4527
g29
Vref
p4528
sg31
VO
p4529
sg33
VNN
p4530
sg35
I23
ssg10
I449
sg36
g4
sg37
(dp4531
sg39
(dp4532
sg41
I2493
sg42
g21
sg43
g21
sg44
I449
sg45
VREF
p4533
sg47
I449
sg48
I2496
sbag0
(g23
g2
Ntp4534
Rp4535
(dp4536
g27
(dp4537
g29
V-rsb-
p4538
sg31
VO
p4539
sg33
V-RRB-
p4540
sg35
I24
ssg10
I450
sg36
g4
sg37
(dp4541
sg39
(dp4542
sg41
I2496
sg42
g21
sg43
g21
sg44
I450
sg45
V]
p4543
sg47
I450
sg48
I2497
sbag0
(g23
g2
Ntp4544
Rp4545
(dp4546
g27
(dp4547
g29
V.
p4548
sg31
VO
p4549
sg33
V.
p4550
sg35
I25
ssg10
I451
sg36
g4
sg37
(dp4551
sg39
(dp4552
sg41
I2497
sg42
g21
sg43
g21
sg44
I451
sg45
V.
p4553
sg47
I451
sg48
I2498
sbag0
(g23
g2
Ntp4554
Rp4555
(dp4556
g27
(dp4557
g29
Vother
p4558
sg31
VO
p4559
sg33
VJJ
p4560
sg35
I1
ssg10
I452
sg36
g4
sg37
(dp4561
sg39
(dp4562
sg41
I2501
sg42
g21
sg43
g21
sg44
I452
sg45
VOther
p4563
sg47
I452
sg48
I2506
sbag0
(g23
g2
Ntp4564
Rp4565
(dp4566
g27
(dp4567
g29
Vcriticism
p4568
sg31
VO
p4569
sg33
VNNS
p4570
sg35
I2
ssg10
I453
sg36
g4
sg37
(dp4571
sg39
(dp4572
sg41
I2507
sg42
g21
sg43
g21
sg44
I453
sg45
Vcriticisms
p4573
sg47
I453
sg48
I2517
sbag0
(g23
g2
Ntp4574
Rp4575
(dp4576
g27
(dp4577
g29
Vof
p4578
sg31
VO
p4579
sg33
VIN
p4580
sg35
I3
ssg10
I454
sg36
g4
sg37
(dp4581
sg39
(dp4582
sg41
I2518
sg42
g21
sg43
g21
sg44
I454
sg45
Vof
p4583
sg47
I454
sg48
I2520
sbag0
(g23
g2
Ntp4584
Rp4585
(dp4586
g27
(dp4587
g29
Vthe
p4588
sg31
VO
p4589
sg33
VDT
p4590
sg35
I4
ssg10
I455
sg36
g4
sg37
(dp4591
sg39
(dp4592
sg41
I2521
sg42
g21
sg43
g21
sg44
I455
sg45
Vthe
p4593
sg47
I455
sg48
I2524
sbag0
(g23
g2
Ntp4594
Rp4595
(dp4596
g27
(dp4597
g29
Vconcept
p4598
sg31
VO
p4599
sg33
VNN
p4600
sg35
I5
ssg10
I456
sg36
g4
sg37
(dp4601
sg39
(dp4602
sg41
I2525
sg42
g21
sg43
g21
sg44
I456
sg45
Vconcept
p4603
sg47
I456
sg48
I2532
sbag0
(g23
g2
Ntp4604
Rp4605
(dp4606
g27
(dp4607
g29
Vclaim
p4608
sg31
VO
p4609
sg33
VNN
p4610
sg35
I6
ssg10
I457
sg36
g4
sg37
(dp4611
sg39
(dp4612
sg41
I2533
sg42
g21
sg43
g21
sg44
I457
sg45
Vclaim
p4613
sg47
I457
sg48
I2538
sbag0
(g23
g2
Ntp4614
Rp4615
(dp4616
g27
(dp4617
g29
Vthat
p4618
sg31
VO
p4619
sg33
VIN
p4620
sg35
I7
ssg10
I458
sg36
g4
sg37
(dp4621
sg39
(dp4622
sg41
I2539
sg42
g21
sg43
g21
sg44
I458
sg45
Vthat
p4623
sg47
I458
sg48
I2543
sbag0
(g23
g2
Ntp4624
Rp4625
(dp4626
g27
(dp4627
g29
Vthese
p4628
sg31
VO
p4629
sg33
VDT
p4630
sg35
I8
ssg10
I459
sg36
g4
sg37
(dp4631
sg39
(dp4632
sg41
I2544
sg42
g21
sg43
g21
sg44
I459
sg45
Vthese
p4633
sg47
I459
sg48
I2549
sbag0
(g23
g2
Ntp4634
Rp4635
(dp4636
g27
(dp4637
g29
Vbake
p4638
sg31
VO
p4639
sg33
VJJ
p4640
sg35
I9
ssg10
I460
sg36
g4
sg37
(dp4641
sg39
(dp4642
sg41
I2550
sg42
g21
sg43
g21
sg44
I460
sg45
Vbake
p4643
sg47
I460
sg48
I2554
sbag0
(g23
g2
Ntp4644
Rp4645
(dp4646
g27
(dp4647
g29
Vsale
p4648
sg31
VO
p4649
sg33
VNNS
p4650
sg35
I10
ssg10
I461
sg36
g4
sg37
(dp4651
sg39
(dp4652
sg41
I2555
sg42
g21
sg43
g21
sg44
I461
sg45
Vsales
p4653
sg47
I461
sg48
I2560
sbag0
(g23
g2
Ntp4654
Rp4655
(dp4656
g27
(dp4657
g29
Vdo
p4658
sg31
VO
p4659
sg33
VVBP
p4660
sg35
I11
ssg10
I462
sg36
g4
sg37
(dp4661
sg39
(dp4662
sg41
I2561
sg42
g21
sg43
g21
sg44
I462
sg45
Vdo
p4663
sg47
I462
sg48
I2563
sbag0
(g23
g2
Ntp4664
Rp4665
(dp4666
g27
(dp4667
g29
Vnot
p4668
sg31
VO
p4669
sg33
VRB
p4670
sg35
I12
ssg10
I463
sg36
g4
sg37
(dp4671
sg39
(dp4672
sg41
I2564
sg42
g21
sg43
g21
sg44
I463
sg45
Vnot
p4673
sg47
I463
sg48
I2567
sbag0
(g23
g2
Ntp4674
Rp4675
(dp4676
g27
(dp4677
g29
Vtake
p4678
sg31
VO
p4679
sg33
VVB
p4680
sg35
I13
ssg10
I464
sg36
g4
sg37
(dp4681
sg39
(dp4682
sg41
I2568
sg42
g21
sg43
g21
sg44
I464
sg45
Vtake
p4683
sg47
I464
sg48
I2572
sbag0
(g23
g2
Ntp4684
Rp4685
(dp4686
g27
(dp4687
g29
Vinto
p4688
sg31
VO
p4689
sg33
VIN
p4690
sg35
I14
ssg10
I465
sg36
g4
sg37
(dp4691
sg39
(dp4692
sg41
I2573
sg42
g21
sg43
g21
sg44
I465
sg45
Vinto
p4693
sg47
I465
sg48
I2577
sbag0
(g23
g2
Ntp4694
Rp4695
(dp4696
g27
(dp4697
g29
Vaccount
p4698
sg31
VO
p4699
sg33
VNN
p4700
sg35
I15
ssg10
I466
sg36
g4
sg37
(dp4701
sg39
(dp4702
sg41
I2578
sg42
g21
sg43
g21
sg44
I466
sg45
Vaccount
p4703
sg47
I466
sg48
I2585
sbag0
(g23
g2
Ntp4704
Rp4705
(dp4706
g27
(dp4707
g29
Vingrain
p4708
sg31
VO
p4709
sg33
VVBN
p4710
sg35
I16
ssg10
I467
sg36
g4
sg37
(dp4711
sg39
(dp4712
sg41
I2586
sg42
g21
sg43
g21
sg44
I467
sg45
Vingrained
p4713
sg47
I467
sg48
I2595
sbag0
(g23
g2
Ntp4714
Rp4715
(dp4716
g27
(dp4717
g29
Vsocial
p4718
sg31
VO
p4719
sg33
VJJ
p4720
sg35
I17
ssg10
I468
sg36
g4
sg37
(dp4721
sg39
(dp4722
sg41
I2596
sg42
g21
sg43
g21
sg44
I468
sg45
Vsocial
p4723
sg47
I468
sg48
I2602
sbag0
(g23
g2
Ntp4724
Rp4725
(dp4726
g27
(dp4727
g29
Vfactor
p4728
sg31
VO
p4729
sg33
VNNS
p4730
sg35
I18
ssg10
I469
sg36
g4
sg37
(dp4731
sg39
(dp4732
sg41
I2603
sg42
g21
sg43
g21
sg44
I469
sg45
Vfactors
p4733
sg47
I469
sg48
I2610
sbag0
(g23
g2
Ntp4734
Rp4735
(dp4736
g27
(dp4737
g29
Vthat
p4738
sg31
VO
p4739
sg33
VWDT
p4740
sg35
I19
ssg10
I470
sg36
g4
sg37
(dp4741
sg39
(dp4742
sg41
I2611
sg42
g21
sg43
g21
sg44
I470
sg45
Vthat
p4743
sg47
I470
sg48
I2615
sbag0
(g23
g2
Ntp4744
Rp4745
(dp4746
g27
(dp4747
g29
Vfavor
p4748
sg31
VO
p4749
sg33
VVBP
p4750
sg35
I20
ssg10
I471
sg36
g4
sg37
(dp4751
sg39
(dp4752
sg41
I2616
sg42
g21
sg43
g21
sg44
I471
sg45
Vfavor
p4753
sg47
I471
sg48
I2621
sbag0
(g23
g2
Ntp4754
Rp4755
(dp4756
g27
(dp4757
g29
Vwhites
p4758
sg31
VO
p4759
sg33
VNNS
p4760
sg35
I21
ssg10
I472
sg36
g4
sg37
(dp4761
sg39
(dp4762
sg41
I2622
sg42
g21
sg43
g21
sg44
I472
sg45
Vwhites
p4763
sg47
I472
sg48
I2628
sbag0
(g23
g2
Ntp4764
Rp4765
(dp4766
g27
(dp4767
g29
V.
p4768
sg31
VO
p4769
sg33
V.
p4770
sg35
I22
ssg10
I473
sg36
g4
sg37
(dp4771
sg39
(dp4772
sg41
I2628
sg42
g21
sg43
g21
sg44
I473
sg45
V.
p4773
sg47
I473
sg48
I2629
sbag0
(g23
g2
Ntp4774
Rp4775
(dp4776
g27
(dp4777
g29
Va
p4778
sg31
VO
p4779
sg33
VDT
p4780
sg35
I1
ssg10
I474
sg36
g4
sg37
(dp4781
sg39
(dp4782
sg41
I2630
sg42
g21
sg43
g21
sg44
I474
sg45
VAn
p4783
sg47
I474
sg48
I2632
sbag0
(g23
g2
Ntp4784
Rp4785
(dp4786
g27
(dp4787
g29
Vopinion
p4788
sg31
VO
p4789
sg33
VNN
p4790
sg35
I2
ssg10
I475
sg36
g4
sg37
(dp4791
sg39
(dp4792
sg41
I2633
sg42
g21
sg43
g21
sg44
I475
sg45
Vopinion
p4793
sg47
I475
sg48
I2640
sbag0
(g23
g2
Ntp4794
Rp4795
(dp4796
g27
(dp4797
g29
Vcolumn
p4798
sg31
VO
p4799
sg33
VNN
p4800
sg35
I3
ssg10
I476
sg36
g4
sg37
(dp4801
sg39
(dp4802
sg41
I2641
sg42
g21
sg43
g21
sg44
I476
sg45
Vcolumn
p4803
sg47
I476
sg48
I2647
sbag0
(g23
g2
Ntp4804
Rp4805
(dp4806
g27
(dp4807
g29
Vin
p4808
sg31
VO
p4809
sg33
VIN
p4810
sg35
I4
ssg10
I477
sg36
g4
sg37
(dp4811
sg39
(dp4812
sg41
I2648
sg42
g21
sg43
g21
sg44
I477
sg45
Vin
p4813
sg47
I477
sg48
I2650
sbag0
(g23
g2
Ntp4814
Rp4815
(dp4816
g27
(dp4817
g29
Vthe
p4818
sg31
VO
p4819
sg33
VDT
p4820
sg35
I5
ssg10
I478
sg36
g4
sg37
(dp4821
sg39
(dp4822
sg41
I2651
sg42
g21
sg43
g21
sg44
I478
sg45
Vthe
p4823
sg47
I478
sg48
I2654
sbag0
(g23
g2
Ntp4824
Rp4825
(dp4826
g27
(dp4827
g29
VHouston
p4828
sg31
VORGANIZATION
p4829
sg33
VNNP
p4830
sg35
I6
ssg10
I479
sg36
g4
sg37
(dp4831
sg39
(dp4832
sg41
I2655
sg42
g21
sg43
g21
sg44
I479
sg45
VHouston
p4833
sg47
I479
sg48
I2662
sbag0
(g23
g2
Ntp4834
Rp4835
(dp4836
g27
(dp4837
g29
VChronicle
p4838
sg31
VORGANIZATION
p4839
sg33
VNNP
p4840
sg35
I7
ssg10
I480
sg36
g4
sg37
(dp4841
sg39
(dp4842
sg41
I2663
sg42
g21
sg43
g21
sg44
I480
sg45
VChronicle
p4843
sg47
I480
sg48
I2672
sbag0
(g23
g2
Ntp4844
Rp4845
(dp4846
g27
(dp4847
g29
Vafter
p4848
sg31
VO
p4849
sg33
VIN
p4850
sg35
I8
ssg10
I481
sg36
g4
sg37
(dp4851
sg39
(dp4852
sg41
I2673
sg42
g21
sg43
g21
sg44
I481
sg45
Vafter
p4853
sg47
I481
sg48
I2678
sbag0
(g23
g2
Ntp4854
Rp4855
(dp4856
g27
(dp4857
g29
Va
p4858
sg31
VO
p4859
sg33
VDT
p4860
sg35
I9
ssg10
I482
sg36
g4
sg37
(dp4861
sg39
(dp4862
sg41
I2673
sg42
g21
sg43
g21
sg44
I482
sg45
Va
p4863
sg47
I482
sg48
I2674
sbag0
(g23
g2
Ntp4864
Rp4865
(dp4866
g27
(dp4867
g29
Vsimilar
p4868
sg31
VO
p4869
sg33
VJJ
p4870
sg35
I10
ssg10
I483
sg36
g4
sg37
(dp4871
sg39
(dp4872
sg41
I2681
sg42
g21
sg43
g21
sg44
I483
sg45
Vsimilar
p4873
sg47
I483
sg48
I2688
sbag0
(g23
g2
Ntp4874
Rp4875
(dp4876
g27
(dp4877
g29
Vsale
p4878
sg31
VO
p4879
sg33
VNN
p4880
sg35
I11
ssg10
I484
sg36
g4
sg37
(dp4881
sg39
(dp4882
sg41
I2689
sg42
g21
sg43
g21
sg44
I484
sg45
Vsale
p4883
sg47
I484
sg48
I2693
sbag0
(g23
g2
Ntp4884
Rp4885
(dp4886
g27
(dp4887
g29
Vtake
p4888
sg31
VO
p4889
sg33
VVBD
p4890
sg35
I12
ssg10
I485
sg36
g4
sg37
(dp4891
sg39
(dp4892
sg41
I2694
sg42
g21
sg43
g21
sg44
I485
sg45
Vtook
p4893
sg47
I485
sg48
I2698
sbag0
(g23
g2
Ntp4894
Rp4895
(dp4896
g27
(dp4897
g29
Vplace
p4898
sg31
VO
p4899
sg33
VNN
p4900
sg35
I13
ssg10
I486
sg36
g4
sg37
(dp4901
sg39
(dp4902
sg41
I2699
sg42
g21
sg43
g21
sg44
I486
sg45
Vplace
p4903
sg47
I486
sg48
I2704
sbag0
(g23
g2
Ntp4904
Rp4905
(dp4906
g27
(dp4907
g29
Vat
p4908
sg31
VO
p4909
sg33
VIN
p4910
sg35
I14
ssg10
I487
sg36
g4
sg37
(dp4911
sg39
(dp4912
sg41
I2705
sg42
g21
sg43
g21
sg44
I487
sg45
Vat
p4913
sg47
I487
sg48
I2707
sbag0
(g23
g2
Ntp4914
Rp4915
(dp4916
g27
(dp4917
g29
VTexas
p4918
sg31
VORGANIZATION
p4919
sg33
VNNP
p4920
sg35
I15
ssg10
I488
sg36
g4
sg37
(dp4921
sg39
(dp4922
sg41
I2708
sg42
g21
sg43
g21
sg44
I488
sg45
VTexas
p4923
sg47
I488
sg48
I2713
sbag0
(g23
g2
Ntp4924
Rp4925
(dp4926
g27
(dp4927
g29
VA&M
p4928
sg31
VORGANIZATION
p4929
sg33
VNNP
p4930
sg35
I16
ssg10
I489
sg36
g4
sg37
(dp4931
sg39
(dp4932
sg41
I2714
sg42
g21
sg43
g21
sg44
I489
sg45
VA&M
p4933
sg47
I489
sg48
I2717
sbag0
(g23
g2
Ntp4934
Rp4935
(dp4936
g27
(dp4937
g29
VUniversity
p4938
sg31
VORGANIZATION
p4939
sg33
VNNP
p4940
sg35
I17
ssg10
I490
sg36
g4
sg37
(dp4941
sg39
(dp4942
sg41
I2718
sg42
g21
sg43
g21
sg44
I490
sg45
VUniversity
p4943
sg47
I490
sg48
I2728
sbag0
(g23
g2
Ntp4944
Rp4945
(dp4946
g27
(dp4947
g29
Vhold
p4948
sg31
VO
p4949
sg33
VVBD
p4950
sg35
I18
ssg10
I491
sg36
g4
sg37
(dp4951
sg39
(dp4952
sg41
I2729
sg42
g21
sg43
g21
sg44
I491
sg45
Vheld
p4953
sg47
I491
sg48
I2733
sbag0
(g23
g2
Ntp4954
Rp4955
(dp4956
g27
(dp4957
g29
Vthat
p4958
sg31
VO
p4959
sg33
VIN
p4960
sg35
I19
ssg10
I492
sg36
g4
sg37
(dp4961
sg39
(dp4962
sg41
I2734
sg42
g21
sg43
g21
sg44
I492
sg45
Vthat
p4963
sg47
I492
sg48
I2738
sbag0
(g23
g2
Ntp4964
Rp4965
(dp4966
g27
(dp4967
g29
V``
p4968
sg31
VO
p4969
sg33
V``
p4970
sg35
I20
ssg10
I493
sg36
g4
sg37
(dp4971
sg39
(dp4972
sg41
I2739
sg42
g21
sg43
g21
sg44
I493
sg45
g528
sg47
I493
sg48
I2740
sbag0
(g23
g2
Ntp4973
Rp4974
(dp4975
g27
(dp4976
g29
Vaction
p4977
sg31
VO
p4978
sg33
VNNS
p4979
sg35
I21
ssg10
I494
sg36
g4
sg37
(dp4980
sg39
(dp4981
sg41
I2740
sg42
g21
sg43
g21
sg44
I494
sg45
VActions
p4982
sg47
I494
sg48
I2747
sbag0
(g23
g2
Ntp4983
Rp4984
(dp4985
g27
(dp4986
g29
Vlike
p4987
sg31
VO
p4988
sg33
VIN
p4989
sg35
I22
ssg10
I495
sg36
g4
sg37
(dp4990
sg39
(dp4991
sg41
I2748
sg42
g21
sg43
g21
sg44
I495
sg45
Vlike
p4992
sg47
I495
sg48
I2752
sbag0
(g23
g2
Ntp4993
Rp4994
(dp4995
g27
(dp4996
g29
Vthese
p4997
sg31
VO
p4998
sg33
VDT
p4999
sg35
I23
ssg10
I496
sg36
g4
sg37
(dp5000
sg39
(dp5001
sg41
I2753
sg42
g21
sg43
g21
sg44
I496
sg45
Vthese
p5002
sg47
I496
sg48
I2758
sbag0
(g23
g2
Ntp5003
Rp5004
(dp5005
g27
(dp5006
g29
Vreinforce
p5007
sg31
VO
p5008
sg33
VVBP
p5009
sg35
I24
ssg10
I497
sg36
g4
sg37
(dp5010
sg39
(dp5011
sg41
I2759
sg42
g21
sg43
g21
sg44
I497
sg45
Vreinforce
p5012
sg47
I497
sg48
I2768
sbag0
(g23
g2
Ntp5013
Rp5014
(dp5015
g27
(dp5016
g29
Vthe
p5017
sg31
VO
p5018
sg33
VDT
p5019
sg35
I25
ssg10
I498
sg36
g4
sg37
(dp5020
sg39
(dp5021
sg41
I2769
sg42
g21
sg43
g21
sg44
I498
sg45
Vthe
p5022
sg47
I498
sg48
I2772
sbag0
(g23
g2
Ntp5023
Rp5024
(dp5025
g27
(dp5026
g29
Vcommon
p5027
sg31
VO
p5028
sg33
VJJ
p5029
sg35
I26
ssg10
I499
sg36
g4
sg37
(dp5030
sg39
(dp5031
sg41
I2773
sg42
g21
sg43
g21
sg44
I499
sg45
Vcommon
p5032
sg47
I499
sg48
I2779
sbag0
(g23
g2
Ntp5033
Rp5034
(dp5035
g27
(dp5036
g29
Vmisconception
p5037
sg31
VO
p5038
sg33
VNN
p5039
sg35
I27
ssg10
I500
sg36
g4
sg37
(dp5040
sg39
(dp5041
sg41
I2780
sg42
g21
sg43
g21
sg44
I500
sg45
Vmisconception
p5042
sg47
I500
sg48
I2793
sbag0
(g23
g2
Ntp5043
Rp5044
(dp5045
g27
(dp5046
g29
Vthat
p5047
sg31
VO
p5048
sg33
VWDT
p5049
sg35
I28
ssg10
I501
sg36
g4
sg37
(dp5050
sg39
(dp5051
sg41
I2794
sg42
g21
sg43
g21
sg44
I501
sg45
Vthat
p5052
sg47
I501
sg48
I2798
sbag0
(g23
g2
Ntp5053
Rp5054
(dp5055
g27
(dp5056
g29
Vaffirmative
p5057
sg31
VO
p5058
sg33
VJJ
p5059
sg35
I29
ssg10
I502
sg36
g4
sg37
(dp5060
sg39
(dp5061
sg41
I2799
sg42
g21
sg43
g21
sg44
I502
sg45
Vaffirmative
p5062
sg47
I502
sg48
I2810
sbag0
(g23
g2
Ntp5063
Rp5064
(dp5065
g27
(dp5066
g29
Vaction
p5067
sg31
VO
p5068
sg33
VNN
p5069
sg35
I30
ssg10
I503
sg36
g4
sg37
(dp5070
sg39
(dp5071
sg41
I2811
sg42
g21
sg43
g21
sg44
I503
sg45
Vaction
p5072
sg47
I503
sg48
I2817
sbag0
(g23
g2
Ntp5073
Rp5074
(dp5075
g27
(dp5076
g29
Vpolicy
p5077
sg31
VO
p5078
sg33
VNNS
p5079
sg35
I31
ssg10
I504
sg36
g4
sg37
(dp5080
sg39
(dp5081
sg41
I2818
sg42
g21
sg43
g21
sg44
I504
sg45
Vpolicies
p5082
sg47
I504
sg48
I2826
sbag0
(g23
g2
Ntp5083
Rp5084
(dp5085
g27
(dp5086
g29
Vgive
p5087
sg31
VO
p5088
sg33
VVBP
p5089
sg35
I32
ssg10
I505
sg36
g4
sg37
(dp5090
sg39
(dp5091
sg41
I2827
sg42
g21
sg43
g21
sg44
I505
sg45
Vgive
p5092
sg47
I505
sg48
I2831
sbag0
(g23
g2
Ntp5093
Rp5094
(dp5095
g27
(dp5096
g29
Vacademically
p5097
sg31
VO
p5098
sg33
VRB
p5099
sg35
I33
ssg10
I506
sg36
g4
sg37
(dp5100
sg39
(dp5101
sg41
I2832
sg42
g21
sg43
g21
sg44
I506
sg45
Vacademically
p5102
sg47
I506
sg48
I2844
sbag0
(g23
g2
Ntp5103
Rp5104
(dp5105
g27
(dp5106
g29
Vunqualified
p5107
sg31
VO
p5108
sg33
VJJ
p5109
sg35
I34
ssg10
I507
sg36
g4
sg37
(dp5110
sg39
(dp5111
sg41
I2845
sg42
g21
sg43
g21
sg44
I507
sg45
Vunqualified
p5112
sg47
I507
sg48
I2856
sbag0
(g23
g2
Ntp5113
Rp5114
(dp5115
g27
(dp5116
g29
Vminority
p5117
sg31
VO
p5118
sg33
VNN
p5119
sg35
I35
ssg10
I508
sg36
g4
sg37
(dp5120
sg39
(dp5121
sg41
I2857
sg42
g21
sg43
g21
sg44
I508
sg45
Vminority
p5122
sg47
I508
sg48
I2865
sbag0
(g23
g2
Ntp5123
Rp5124
(dp5125
g27
(dp5126
g29
Vstudent
p5127
sg31
VO
p5128
sg33
VNNS
p5129
sg35
I36
ssg10
I509
sg36
g4
sg37
(dp5130
sg39
(dp5131
sg41
I2866
sg42
g21
sg43
g21
sg44
I509
sg45
Vstudents
p5132
sg47
I509
sg48
I2874
sbag0
(g23
g2
Ntp5133
Rp5134
(dp5135
g27
(dp5136
g29
Va
p5137
sg31
VO
p5138
sg33
VDT
p5139
sg35
I37
ssg10
I510
sg36
g4
sg37
(dp5140
sg39
(dp5141
sg41
I2875
sg42
g21
sg43
g21
sg44
I510
sg45
Va
p5142
sg47
I510
sg48
I2876
sbag0
(g23
g2
Ntp5143
Rp5144
(dp5145
g27
(dp5146
g29
Vget-into-college-free
p5147
sg31
VO
p5148
sg33
VJJ
p5149
sg35
I38
ssg10
I511
sg36
g4
sg37
(dp5150
sg39
(dp5151
sg41
I2877
sg42
g21
sg43
g21
sg44
I511
sg45
Vget-into-college-free
p5152
sg47
I511
sg48
I2898
sbag0
(g23
g2
Ntp5153
Rp5154
(dp5155
g27
(dp5156
g29
Vcard
p5157
sg31
VO
p5158
sg33
VNN
p5159
sg35
I39
ssg10
I512
sg36
g4
sg37
(dp5160
sg39
(dp5161
sg41
I2899
sg42
g21
sg43
g21
sg44
I512
sg45
Vcard
p5162
sg47
I512
sg48
I2903
sbag0
(g23
g2
Ntp5163
Rp5164
(dp5165
g27
(dp5166
g29
V,
p5167
sg31
VO
p5168
sg33
V,
p5169
sg35
I40
ssg10
I513
sg36
g4
sg37
(dp5170
sg39
(dp5171
sg41
I2903
sg42
g21
sg43
g21
sg44
I513
sg45
V,
p5172
sg47
I513
sg48
I2904
sbag0
(g23
g2
Ntp5173
Rp5174
(dp5175
g27
(dp5176
g29
Vand
p5177
sg31
VO
p5178
sg33
VCC
p5179
sg35
I41
ssg10
I514
sg36
g4
sg37
(dp5180
sg39
(dp5181
sg41
I2905
sg42
g21
sg43
g21
sg44
I514
sg45
Vand
p5182
sg47
I514
sg48
I2908
sbag0
(g23
g2
Ntp5183
Rp5184
(dp5185
g27
(dp5186
g29
Vthey
p5187
sg31
VO
p5188
sg33
VPRP
p5189
sg35
I42
ssg10
I515
sg36
g4
sg37
(dp5190
sg39
(dp5191
sg41
I2909
sg42
g21
sg43
g21
sg44
I515
sg45
Vthey
p5192
sg47
I515
sg48
I2913
sbag0
(g23
g2
Ntp5193
Rp5194
(dp5195
g27
(dp5196
g29
Vignore
p5197
sg31
VO
p5198
sg33
VVBP
p5199
sg35
I43
ssg10
I516
sg36
g4
sg37
(dp5200
sg39
(dp5201
sg41
I2914
sg42
g21
sg43
g21
sg44
I516
sg45
Vignore
p5202
sg47
I516
sg48
I2920
sbag0
(g23
g2
Ntp5203
Rp5204
(dp5205
g27
(dp5206
g29
Vhistorical
p5207
sg31
VO
p5208
sg33
VJJ
p5209
sg35
I44
ssg10
I517
sg36
g4
sg37
(dp5210
sg39
(dp5211
sg41
I2921
sg42
g21
sg43
g21
sg44
I517
sg45
Vhistorical
p5212
sg47
I517
sg48
I2931
sbag0
(g23
g2
Ntp5213
Rp5214
(dp5215
g27
(dp5216
g29
Vdiscrimination
p5217
sg31
VO
p5218
sg33
VNN
p5219
sg35
I45
ssg10
I518
sg36
g4
sg37
(dp5220
sg39
(dp5221
sg41
I2932
sg42
g21
sg43
g21
sg44
I518
sg45
Vdiscrimination
p5222
sg47
I518
sg48
I2946
sbag0
(g23
g2
Ntp5223
Rp5224
(dp5225
g27
(dp5226
g29
Vthat
p5227
sg31
VO
p5228
sg33
VWDT
p5229
sg35
I46
ssg10
I519
sg36
g4
sg37
(dp5230
sg39
(dp5231
sg41
I2947
sg42
g21
sg43
g21
sg44
I519
sg45
Vthat
p5232
sg47
I519
sg48
I2951
sbag0
(g23
g2
Ntp5233
Rp5234
(dp5235
g27
(dp5236
g29
Vdeny
p5237
sg31
VO
p5238
sg33
VVBD
p5239
sg35
I47
ssg10
I520
sg36
g4
sg37
(dp5240
sg39
(dp5241
sg41
I2952
sg42
g21
sg43
g21
sg44
I520
sg45
Vdenied
p5242
sg47
I520
sg48
I2958
sbag0
(g23
g2
Ntp5243
Rp5244
(dp5245
g27
(dp5246
g29
Vnonwhite
p5247
sg31
VO
p5248
sg33
VNNS
p5249
sg35
I48
ssg10
I521
sg36
g4
sg37
(dp5250
sg39
(dp5251
sg41
I2959
sg42
g21
sg43
g21
sg44
I521
sg45
Vnonwhites
p5252
sg47
I521
sg48
I2968
sbag0
(g23
g2
Ntp5253
Rp5254
(dp5255
g27
(dp5256
g29
Vopportunity
p5257
sg31
VO
p5258
sg33
VNNS
p5259
sg35
I49
ssg10
I522
sg36
g4
sg37
(dp5260
sg39
(dp5261
sg41
I2969
sg42
g21
sg43
g21
sg44
I522
sg45
Vopportunities
p5262
sg47
I522
sg48
I2982
sbag0
(g23
g2
Ntp5263
Rp5264
(dp5265
g27
(dp5266
g29
Vto
p5267
sg31
VO
p5268
sg33
VTO
p5269
sg35
I50
ssg10
I523
sg36
g4
sg37
(dp5270
sg39
(dp5271
sg41
I2983
sg42
g21
sg43
g21
sg44
I523
sg45
Vto
p5272
sg47
I523
sg48
I2985
sbag0
(g23
g2
Ntp5273
Rp5274
(dp5275
g27
(dp5276
g29
Vbe
p5277
sg31
VO
p5278
sg33
VVB
p5279
sg35
I51
ssg10
I524
sg36
g4
sg37
(dp5280
sg39
(dp5281
sg41
I2986
sg42
g21
sg43
g21
sg44
I524
sg45
Vbe
p5282
sg47
I524
sg48
I2988
sbag0
(g23
g2
Ntp5283
Rp5284
(dp5285
g27
(dp5286
g29
Vsuccessful
p5287
sg31
VO
p5288
sg33
VJJ
p5289
sg35
I52
ssg10
I525
sg36
g4
sg37
(dp5290
sg39
(dp5291
sg41
I2989
sg42
g21
sg43
g21
sg44
I525
sg45
Vsuccessful
p5292
sg47
I525
sg48
I2999
sbag0
(g23
g2
Ntp5293
Rp5294
(dp5295
g27
(dp5296
g29
Vat
p5297
sg31
VO
p5298
sg33
VIN
p5299
sg35
I53
ssg10
I526
sg36
g4
sg37
(dp5300
sg39
(dp5301
sg41
I3000
sg42
g21
sg43
g21
sg44
I526
sg45
Vat
p5302
sg47
I526
sg48
I3002
sbag0
(g23
g2
Ntp5303
Rp5304
(dp5305
g27
(dp5306
g29
Vany
p5307
sg31
VO
p5308
sg33
VDT
p5309
sg35
I54
ssg10
I527
sg36
g4
sg37
(dp5310
sg39
(dp5311
sg41
I3003
sg42
g21
sg43
g21
sg44
I527
sg45
Vany
p5312
sg47
I527
sg48
I3006
sbag0
(g23
g2
Ntp5313
Rp5314
(dp5315
g27
(dp5316
g29
Vprice
p5317
sg31
VO
p5318
sg33
VNN
p5319
sg35
I55
ssg10
I528
sg36
g4
sg37
(dp5320
sg39
(dp5321
sg41
I3007
sg42
g21
sg43
g21
sg44
I528
sg45
Vprice
p5322
sg47
I528
sg48
I3012
sbag0
(g23
g2
Ntp5323
Rp5324
(dp5325
g27
(dp5326
g29
V,
p5327
sg31
VO
p5328
sg33
V,
p5329
sg35
I56
ssg10
I529
sg36
g4
sg37
(dp5330
sg39
(dp5331
sg41
I3012
sg42
g21
sg43
g21
sg44
I529
sg45
V,
p5332
sg47
I529
sg48
I3013
sbag0
(g23
g2
Ntp5333
Rp5334
(dp5335
g27
(dp5336
g29
Vno
p5337
sg31
VO
p5338
sg33
VDT
p5339
sg35
I57
ssg10
I530
sg36
g4
sg37
(dp5340
sg39
(dp5341
sg41
I3014
sg42
g21
sg43
g21
sg44
I530
sg45
Vno
p5342
sg47
I530
sg48
I3016
sbag0
(g23
g2
Ntp5343
Rp5344
(dp5345
g27
(dp5346
g29
Vmatter
p5347
sg31
VO
p5348
sg33
VNN
p5349
sg35
I58
ssg10
I531
sg36
g4
sg37
(dp5350
sg39
(dp5351
sg41
I3017
sg42
g21
sg43
g21
sg44
I531
sg45
Vmatter
p5352
sg47
I531
sg48
I3023
sbag0
(g23
g2
Ntp5353
Rp5354
(dp5355
g27
(dp5356
g29
Vthey
p5357
sg31
VO
p5358
sg33
VPRP$
p5359
sg35
I59
ssg10
I532
sg36
g4
sg37
(dp5360
sg39
(dp5361
sg41
I3024
sg42
g21
sg43
g21
sg44
I532
sg45
Vtheir
p5362
sg47
I532
sg48
I3029
sbag0
(g23
g2
Ntp5363
Rp5364
(dp5365
g27
(dp5366
g29
Vtalent
p5367
sg31
VO
p5368
sg33
VNNS
p5369
sg35
I60
ssg10
I533
sg36
g4
sg37
(dp5370
sg39
(dp5371
sg41
I3030
sg42
g21
sg43
g21
sg44
I533
sg45
Vtalents
p5372
sg47
I533
sg48
I3037
sbag0
(g23
g2
Ntp5373
Rp5374
(dp5375
g27
(dp5376
g29
Vor
p5377
sg31
VO
p5378
sg33
VCC
p5379
sg35
I61
ssg10
I534
sg36
g4
sg37
(dp5380
sg39
(dp5381
sg41
I3038
sg42
g21
sg43
g21
sg44
I534
sg45
Vor
p5382
sg47
I534
sg48
I3040
sbag0
(g23
g2
Ntp5383
Rp5384
(dp5385
g27
(dp5386
g29
Vintelligence
p5387
sg31
VO
p5388
sg33
VNN
p5389
sg35
I62
ssg10
I535
sg36
g4
sg37
(dp5390
sg39
(dp5391
sg41
I3041
sg42
g21
sg43
g21
sg44
I535
sg45
Vintelligence
p5392
sg47
I535
sg48
I3053
sbag0
(g23
g2
Ntp5393
Rp5394
(dp5395
g27
(dp5396
g29
V.
p5397
sg31
VO
p5398
sg33
V.
p5399
sg35
I63
ssg10
I536
sg36
g4
sg37
(dp5400
sg39
(dp5401
sg41
I3053
sg42
g21
sg43
g21
sg44
I536
sg45
V.
p5402
sg47
I536
sg48
I3054
sbag0
(g23
g2
Ntp5403
Rp5404
(dp5405
g27
(dp5406
g29
V''
p5407
sg31
VO
p5408
sg33
V''
p5409
sg35
I64
ssg10
I537
sg36
g4
sg37
(dp5410
sg39
(dp5411
sg41
I3054
sg42
g21
sg43
g21
sg44
I537
sg45
g528
sg47
I537
sg48
I3055
sbag0
(g23
g2
Ntp5412
Rp5413
(dp5414
g27
(dp5415
g29
Vthe
p5416
sg31
VO
p5417
sg33
VDT
p5418
sg35
I1
ssg10
I538
sg36
g4
sg37
(dp5419
sg39
(dp5420
sg41
I3056
sg42
g21
sg43
g21
sg44
I538
sg45
VThe
p5421
sg47
I538
sg48
I3059
sbag0
(g23
g2
Ntp5422
Rp5423
(dp5424
g27
(dp5425
g29
Veditorial
p5426
sg31
VO
p5427
sg33
VNN
p5428
sg35
I2
ssg10
I539
sg36
g4
sg37
(dp5429
sg39
(dp5430
sg41
I3060
sg42
g21
sg43
g21
sg44
I539
sg45
Veditorial
p5431
sg47
I539
sg48
I3069
sbag0
(g23
g2
Ntp5432
Rp5433
(dp5434
g27
(dp5435
g29
Valso
p5436
sg31
VO
p5437
sg33
VRB
p5438
sg35
I3
ssg10
I540
sg36
g4
sg37
(dp5439
sg39
(dp5440
sg41
I3070
sg42
g21
sg43
g21
sg44
I540
sg45
Valso
p5441
sg47
I540
sg48
I3074
sbag0
(g23
g2
Ntp5442
Rp5443
(dp5444
g27
(dp5445
g29
Vpraise
p5446
sg31
VO
p5447
sg33
VVBD
p5448
sg35
I4
ssg10
I541
sg36
g4
sg37
(dp5449
sg39
(dp5450
sg41
I3075
sg42
g21
sg43
g21
sg44
I541
sg45
Vpraised
p5451
sg47
I541
sg48
I3082
sbag0
(g23
g2
Ntp5452
Rp5453
(dp5454
g27
(dp5455
g29
Vschool
p5456
sg31
VO
p5457
sg33
VNN
p5458
sg35
I5
ssg10
I542
sg36
g4
sg37
(dp5459
sg39
(dp5460
sg41
I3083
sg42
g21
sg43
g21
sg44
I542
sg45
Vschool
p5461
sg47
I542
sg48
I3089
sbag0
(g23
g2
Ntp5462
Rp5463
(dp5464
g27
(dp5465
g29
Vofficial
p5466
sg31
VO
p5467
sg33
VNNS
p5468
sg35
I6
ssg10
I543
sg36
g4
sg37
(dp5469
sg39
(dp5470
sg41
I3090
sg42
g21
sg43
g21
sg44
I543
sg45
Vofficials
p5471
sg47
I543
sg48
I3099
sbag0
(g23
g2
Ntp5472
Rp5473
(dp5474
g27
(dp5475
g29
Vfor
p5476
sg31
VO
p5477
sg33
VIN
p5478
sg35
I7
ssg10
I544
sg36
g4
sg37
(dp5479
sg39
(dp5480
sg41
I3100
sg42
g21
sg43
g21
sg44
I544
sg45
Vfor
p5481
sg47
I544
sg48
I3103
sbag0
(g23
g2
Ntp5482
Rp5483
(dp5484
g27
(dp5485
g29
Vnot
p5486
sg31
VO
p5487
sg33
VRB
p5488
sg35
I8
ssg10
I545
sg36
g4
sg37
(dp5489
sg39
(dp5490
sg41
I3104
sg42
g21
sg43
g21
sg44
I545
sg45
Vnot
p5491
sg47
I545
sg48
I3107
sbag0
(g23
g2
Ntp5492
Rp5493
(dp5494
g27
(dp5495
g29
Vshut
p5496
sg31
VO
p5497
sg33
VVBG
p5498
sg35
I9
ssg10
I546
sg36
g4
sg37
(dp5499
sg39
(dp5500
sg41
I3108
sg42
g21
sg43
g21
sg44
I546
sg45
Vshutting
p5501
sg47
I546
sg48
I3116
sbag0
(g23
g2
Ntp5502
Rp5503
(dp5504
g27
(dp5505
g29
Vdown
p5506
sg31
VO
p5507
sg33
VRP
p5508
sg35
I10
ssg10
I547
sg36
g4
sg37
(dp5509
sg39
(dp5510
sg41
I3117
sg42
g21
sg43
g21
sg44
I547
sg45
Vdown
p5511
sg47
I547
sg48
I3121
sbag0
(g23
g2
Ntp5512
Rp5513
(dp5514
g27
(dp5515
g29
Vthe
p5516
sg31
VO
p5517
sg33
VDT
p5518
sg35
I11
ssg10
I548
sg36
g4
sg37
(dp5519
sg39
(dp5520
sg41
I3122
sg42
g21
sg43
g21
sg44
I548
sg45
Vthe
p5521
sg47
I548
sg48
I3125
sbag0
(g23
g2
Ntp5522
Rp5523
(dp5524
g27
(dp5525
g29
Vsale
p5526
sg31
VO
p5527
sg33
VNN
p5528
sg35
I12
ssg10
I549
sg36
g4
sg37
(dp5529
sg39
(dp5530
sg41
I3126
sg42
g21
sg43
g21
sg44
I549
sg45
Vsale
p5531
sg47
I549
sg48
I3130
sbag0
(g23
g2
Ntp5532
Rp5533
(dp5534
g27
(dp5535
g29
V-lsb-
p5536
sg31
VO
p5537
sg33
V-LRB-
p5538
sg35
I13
ssg10
I550
sg36
g4
sg37
(dp5539
sg39
(dp5540
sg41
I3131
sg42
g21
sg43
g21
sg44
I550
sg45
V[
p5541
sg47
I550
sg48
I3132
sbag0
(g23
g2
Ntp5542
Rp5543
(dp5544
g27
(dp5545
g29
Vref
p5546
sg31
VO
p5547
sg33
VNN
p5548
sg35
I14
ssg10
I551
sg36
g4
sg37
(dp5549
sg39
(dp5550
sg41
I3132
sg42
g21
sg43
g21
sg44
I551
sg45
VREF
p5551
sg47
I551
sg48
I3135
sbag0
(g23
g2
Ntp5552
Rp5553
(dp5554
g27
(dp5555
g29
V-rsb-
p5556
sg31
VO
p5557
sg33
V-RRB-
p5558
sg35
I15
ssg10
I552
sg36
g4
sg37
(dp5559
sg39
(dp5560
sg41
I3135
sg42
g21
sg43
g21
sg44
I552
sg45
V]
p5561
sg47
I552
sg48
I3136
sbag0
(g23
g2
Ntp5562
Rp5563
(dp5564
g27
(dp5565
g29
V.
p5566
sg31
VO
p5567
sg33
V.
p5568
sg35
I16
ssg10
I553
sg36
g4
sg37
(dp5569
sg39
(dp5570
sg41
I3136
sg42
g21
sg43
g21
sg44
I553
sg45
V.
p5571
sg47
I553
sg48
I3137
sbag0
(g23
g2
Ntp5572
Rp5573
(dp5574
g27
(dp5575
g29
Vat
p5576
sg31
VO
p5577
sg33
VIN
p5578
sg35
I1
ssg10
I554
sg36
g4
sg37
(dp5579
sg39
(dp5580
sg41
I3140
sg42
g21
sg43
g21
sg44
I554
sg45
VAt
p5581
sg47
I554
sg48
I3142
sbag0
(g23
g2
Ntp5582
Rp5583
(dp5584
g27
(dp5585
g29
Vthe
p5586
sg31
VO
p5587
sg33
VDT
p5588
sg35
I2
ssg10
I555
sg36
g4
sg37
(dp5589
sg39
(dp5590
sg41
I3143
sg42
g21
sg43
g21
sg44
I555
sg45
Vthe
p5591
sg47
I555
sg48
I3146
sbag0
(g23
g2
Ntp5592
Rp5593
(dp5594
g27
(dp5595
g29
VUniversity
p5596
sg31
VORGANIZATION
p5597
sg33
VNNP
p5598
sg35
I3
ssg10
I556
sg36
g4
sg37
(dp5599
sg39
(dp5600
sg41
I3147
sg42
g21
sg43
g21
sg44
I556
sg45
VUniversity
p5601
sg47
I556
sg48
I3157
sbag0
(g23
g2
Ntp5602
Rp5603
(dp5604
g27
(dp5605
g29
Vof
p5606
sg31
VORGANIZATION
p5607
sg33
VIN
p5608
sg35
I4
ssg10
I557
sg36
g4
sg37
(dp5609
sg39
(dp5610
sg41
I3158
sg42
g21
sg43
g21
sg44
I557
sg45
Vof
p5611
sg47
I557
sg48
I3160
sbag0
(g23
g2
Ntp5612
Rp5613
(dp5614
g27
(dp5615
g29
VIllinois
p5616
sg31
VORGANIZATION
p5617
sg33
VNNP
p5618
sg35
I5
ssg10
I558
sg36
g4
sg37
(dp5619
sg39
(dp5620
sg41
I3161
sg42
g21
sg43
g21
sg44
I558
sg45
VIllinois
p5621
sg47
I558
sg48
I3169
sbag0
(g23
g2
Ntp5622
Rp5623
(dp5624
g27
(dp5625
g29
Vat
p5626
sg31
VO
p5627
sg33
VIN
p5628
sg35
I6
ssg10
I559
sg36
g4
sg37
(dp5629
sg39
(dp5630
sg41
I3170
sg42
g21
sg43
g21
sg44
I559
sg45
Vat
p5631
sg47
I559
sg48
I3172
sbag0
(g23
g2
Ntp5632
Rp5633
(dp5634
g27
(dp5635
g29
VUrbana
p5636
sg31
VLOCATION
p5637
sg33
VNNP
p5638
sg35
I7
ssg10
I560
sg36
g4
sg37
(dp5639
sg39
(dp5640
sg41
I3173
sg42
g21
sg43
g21
sg44
I560
sg45
VUrbana
p5641
sg47
I560
sg48
I3179
sbag0
(g23
g2
Ntp5642
Rp5643
(dp5644
g27
(dp5645
g29
V--
p5646
sg31
VO
p5647
sg33
V:
p5648
sg35
I8
ssg10
I561
sg36
g4
sg37
(dp5649
sg39
(dp5650
sg41
I3179
sg42
g21
sg43
g21
sg44
I561
sg45
V\u2013
p5651
sg47
I561
sg48
I3180
sbag0
(g23
g2
Ntp5652
Rp5653
(dp5654
g27
(dp5655
g29
VChampaign
p5656
sg31
VLOCATION
p5657
sg33
VNNP
p5658
sg35
I9
ssg10
I562
sg36
g4
sg37
(dp5659
sg39
(dp5660
sg41
I3180
sg42
g21
sg43
g21
sg44
I562
sg45
VChampaign
p5661
sg47
I562
sg48
I3189
sbag0
(g23
g2
Ntp5662
Rp5663
(dp5664
g27
(dp5665
g29
V,
p5666
sg31
VO
p5667
sg33
V,
p5668
sg35
I10
ssg10
I563
sg36
g4
sg37
(dp5669
sg39
(dp5670
sg41
I3189
sg42
g21
sg43
g21
sg44
I563
sg45
V,
p5671
sg47
I563
sg48
I3190
sbag0
(g23
g2
Ntp5672
Rp5673
(dp5674
g27
(dp5675
g29
Vthe
p5676
sg31
VO
p5677
sg33
VDT
p5678
sg35
I11
ssg10
I564
sg36
g4
sg37
(dp5679
sg39
(dp5680
sg41
I3191
sg42
g21
sg43
g21
sg44
I564
sg45
Vthe
p5681
sg47
I564
sg48
I3194
sbag0
(g23
g2
Ntp5682
Rp5683
(dp5684
g27
(dp5685
g29
Vgraduate
p5686
sg31
VO
p5687
sg33
VNN
p5688
sg35
I12
ssg10
I565
sg36
g4
sg37
(dp5689
sg39
(dp5690
sg41
I3195
sg42
g21
sg43
g21
sg44
I565
sg45
VGraduate
p5691
sg47
I565
sg48
I3203
sbag0
(g23
g2
Ntp5692
Rp5693
(dp5694
g27
(dp5695
g29
Vand
p5696
sg31
VO
p5697
sg33
VCC
p5698
sg35
I13
ssg10
I566
sg36
g4
sg37
(dp5699
sg39
(dp5700
sg41
I3204
sg42
g21
sg43
g21
sg44
I566
sg45
Vand
p5701
sg47
I566
sg48
I3207
sbag0
(g23
g2
Ntp5702
Rp5703
(dp5704
g27
(dp5705
g29
Vprofessional
p5706
sg31
VO
p5707
sg33
VJJ
p5708
sg35
I14
ssg10
I567
sg36
g4
sg37
(dp5709
sg39
(dp5710
sg41
I3208
sg42
g21
sg43
g21
sg44
I567
sg45
VProfessional
p5711
sg47
I567
sg48
I3220
sbag0
(g23
g2
Ntp5712
Rp5713
(dp5714
g27
(dp5715
g29
Vstudent
p5716
sg31
VO
p5717
sg33
VNNS
p5718
sg35
I15
ssg10
I568
sg36
g4
sg37
(dp5719
sg39
(dp5720
sg41
I3221
sg42
g21
sg43
g21
sg44
I568
sg45
VStudents
p5721
sg47
I568
sg48
I3229
sbag0
(g23
g2
Ntp5722
Rp5723
(dp5724
g27
(dp5725
g29
Vof
p5726
sg31
VO
p5727
sg33
VIN
p5728
sg35
I16
ssg10
I569
sg36
g4
sg37
(dp5729
sg39
(dp5730
sg41
I3230
sg42
g21
sg43
g21
sg44
I569
sg45
Vof
p5731
sg47
I569
sg48
I3232
sbag0
(g23
g2
Ntp5732
Rp5733
(dp5734
g27
(dp5735
g29
VColor
p5736
sg31
VO
p5737
sg33
VNNP
p5738
sg35
I17
ssg10
I570
sg36
g4
sg37
(dp5739
sg39
(dp5740
sg41
I3233
sg42
g21
sg43
g21
sg44
I570
sg45
VColor
p5741
sg47
I570
sg48
I3238
sbag0
(g23
g2
Ntp5742
Rp5743
(dp5744
g27
(dp5745
g29
Vstudent
p5746
sg31
VO
p5747
sg33
VNN
p5748
sg35
I18
ssg10
I571
sg36
g4
sg37
(dp5749
sg39
(dp5750
sg41
I3239
sg42
g21
sg43
g21
sg44
I571
sg45
Vstudent
p5751
sg47
I571
sg48
I3246
sbag0
(g23
g2
Ntp5752
Rp5753
(dp5754
g27
(dp5755
g29
Vorganization
p5756
sg31
VO
p5757
sg33
VNN
p5758
sg35
I19
ssg10
I572
sg36
g4
sg37
(dp5759
sg39
(dp5760
sg41
I3247
sg42
g21
sg43
g21
sg44
I572
sg45
Vorganization
p5761
sg47
I572
sg48
I3259
sbag0
(g23
g2
Ntp5762
Rp5763
(dp5764
g27
(dp5765
g29
Vrespond
p5766
sg31
VO
p5767
sg33
VVBD
p5768
sg35
I20
ssg10
I573
sg36
g4
sg37
(dp5769
sg39
(dp5770
sg41
I3260
sg42
g21
sg43
g21
sg44
I573
sg45
Vresponded
p5771
sg47
I573
sg48
I3269
sbag0
(g23
g2
Ntp5772
Rp5773
(dp5774
g27
(dp5775
g29
Vto
p5776
sg31
VO
p5777
sg33
VTO
p5778
sg35
I21
ssg10
I574
sg36
g4
sg37
(dp5779
sg39
(dp5780
sg41
I3270
sg42
g21
sg43
g21
sg44
I574
sg45
Vto
p5781
sg47
I574
sg48
I3272
sbag0
(g23
g2
Ntp5782
Rp5783
(dp5784
g27
(dp5785
g29
Va
p5786
sg31
VO
p5787
sg33
VDT
p5788
sg35
I22
ssg10
I575
sg36
g4
sg37
(dp5789
sg39
(dp5790
sg41
I3273
sg42
g21
sg43
g21
sg44
I575
sg45
Va
p5791
sg47
I575
sg48
I3274
sbag0
(g23
g2
Ntp5792
Rp5793
(dp5794
g27
(dp5795
g29
Vbake
p5796
sg31
VO
p5797
sg33
VJJ
p5798
sg35
I23
ssg10
I576
sg36
g4
sg37
(dp5799
sg39
(dp5800
sg41
I3275
sg42
g21
sg43
g21
sg44
I576
sg45
Vbake
p5801
sg47
I576
sg48
I3279
sbag0
(g23
g2
Ntp5802
Rp5803
(dp5804
g27
(dp5805
g29
Vsale
p5806
sg31
VO
p5807
sg33
VNN
p5808
sg35
I24
ssg10
I577
sg36
g4
sg37
(dp5809
sg39
(dp5810
sg41
I3280
sg42
g21
sg43
g21
sg44
I577
sg45
Vsale
p5811
sg47
I577
sg48
I3284
sbag0
(g23
g2
Ntp5812
Rp5813
(dp5814
g27
(dp5815
g29
Vhold
p5816
sg31
VO
p5817
sg33
VVBN
p5818
sg35
I25
ssg10
I578
sg36
g4
sg37
(dp5819
sg39
(dp5820
sg41
I3285
sg42
g21
sg43
g21
sg44
I578
sg45
Vheld
p5821
sg47
I578
sg48
I3289
sbag0
(g23
g2
Ntp5822
Rp5823
(dp5824
g27
(dp5825
g29
Vby
p5826
sg31
VO
p5827
sg33
VIN
p5828
sg35
I26
ssg10
I579
sg36
g4
sg37
(dp5829
sg39
(dp5830
sg41
I3290
sg42
g21
sg43
g21
sg44
I579
sg45
Vby
p5831
sg47
I579
sg48
I3292
sbag0
(g23
g2
Ntp5832
Rp5833
(dp5834
g27
(dp5835
g29
Vthe
p5836
sg31
VO
p5837
sg33
VDT
p5838
sg35
I27
ssg10
I580
sg36
g4
sg37
(dp5839
sg39
(dp5840
sg41
I3293
sg42
g21
sg43
g21
sg44
I580
sg45
Vthe
p5841
sg47
I580
sg48
I3296
sbag0
(g23
g2
Ntp5842
Rp5843
(dp5844
g27
(dp5845
g29
Vstudent
p5846
sg31
VORGANIZATION
p5847
sg33
VNNS
p5848
sg35
I28
ssg10
I581
sg36
g4
sg37
(dp5849
sg39
(dp5850
sg41
I3297
sg42
g21
sg43
g21
sg44
I581
sg45
VStudents
p5851
sg47
I581
sg48
I3305
sbag0
(g23
g2
Ntp5852
Rp5853
(dp5854
g27
(dp5855
g29
Vfor
p5856
sg31
VORGANIZATION
p5857
sg33
VIN
p5858
sg35
I29
ssg10
I582
sg36
g4
sg37
(dp5859
sg39
(dp5860
sg41
I3306
sg42
g21
sg43
g21
sg44
I582
sg45
Vfor
p5861
sg47
I582
sg48
I3309
sbag0
(g23
g2
Ntp5862
Rp5863
(dp5864
g27
(dp5865
g29
Vindividual
p5866
sg31
VORGANIZATION
p5867
sg33
VJJ
p5868
sg35
I30
ssg10
I583
sg36
g4
sg37
(dp5869
sg39
(dp5870
sg41
I3310
sg42
g21
sg43
g21
sg44
I583
sg45
VIndividual
p5871
sg47
I583
sg48
I3320
sbag0
(g23
g2
Ntp5872
Rp5873
(dp5874
g27
(dp5875
g29
VLiberty
p5876
sg31
VORGANIZATION
p5877
sg33
VNNP
p5878
sg35
I31
ssg10
I584
sg36
g4
sg37
(dp5879
sg39
(dp5880
sg41
I3321
sg42
g21
sg43
g21
sg44
I584
sg45
VLiberty
p5881
sg47
I584
sg48
I3328
sbag0
(g23
g2
Ntp5882
Rp5883
(dp5884
g27
(dp5885
g29
V-lsb-
p5886
sg31
VO
p5887
sg33
V-LRB-
p5888
sg35
I32
ssg10
I585
sg36
g4
sg37
(dp5889
sg39
(dp5890
sg41
I3328
sg42
g21
sg43
g21
sg44
I585
sg45
V[
p5891
sg47
I585
sg48
I3329
sbag0
(g23
g2
Ntp5892
Rp5893
(dp5894
g27
(dp5895
g29
VREF
p5896
sg31
VO
p5897
sg33
VNNP
p5898
sg35
I33
ssg10
I586
sg36
g4
sg37
(dp5899
sg39
(dp5900
sg41
I3329
sg42
g21
sg43
g21
sg44
I586
sg45
VREF
p5901
sg47
I586
sg48
I3332
sbag0
(g23
g2
Ntp5902
Rp5903
(dp5904
g27
(dp5905
g29
V-rsb-
p5906
sg31
VO
p5907
sg33
V-RRB-
p5908
sg35
I34
ssg10
I587
sg36
g4
sg37
(dp5909
sg39
(dp5910
sg41
I3332
sg42
g21
sg43
g21
sg44
I587
sg45
V]
p5911
sg47
I587
sg48
I3333
sbag0
(g23
g2
Ntp5912
Rp5913
(dp5914
g27
(dp5915
g29
Vby
p5916
sg31
VO
p5917
sg33
VIN
p5918
sg35
I35
ssg10
I588
sg36
g4
sg37
(dp5919
sg39
(dp5920
sg41
I3334
sg42
g21
sg43
g21
sg44
I588
sg45
Vby
p5921
sg47
I588
sg48
I3336
sbag0
(g23
g2
Ntp5922
Rp5923
(dp5924
g27
(dp5925
g29
Vhold
p5926
sg31
VO
p5927
sg33
VVBG
p5928
sg35
I36
ssg10
I589
sg36
g4
sg37
(dp5929
sg39
(dp5930
sg41
I3337
sg42
g21
sg43
g21
sg44
I589
sg45
Vholding
p5931
sg47
I589
sg48
I3344
sbag0
(g23
g2
Ntp5932
Rp5933
(dp5934
g27
(dp5935
g29
Va
p5936
sg31
VO
p5937
sg33
VDT
p5938
sg35
I37
ssg10
I590
sg36
g4
sg37
(dp5939
sg39
(dp5940
sg41
I3345
sg42
g21
sg43
g21
sg44
I590
sg45
Va
p5941
sg47
I590
sg48
I3346
sbag0
(g23
g2
Ntp5942
Rp5943
(dp5944
g27
(dp5945
g29
VWhite
p5946
sg31
VLOCATION
p5947
sg33
VNNP
p5948
sg35
I38
ssg10
I591
sg36
g4
sg37
(dp5949
sg39
(dp5950
sg41
I3347
sg42
g21
sg43
g21
sg44
I591
sg45
VWhite
p5951
sg47
I591
sg48
I3352
sbag0
(g23
g2
Ntp5952
Rp5953
(dp5954
g27
(dp5955
g29
VPrivilege
p5956
sg31
VLOCATION
p5957
sg33
VNNP
p5958
sg35
I39
ssg10
I592
sg36
g4
sg37
(dp5959
sg39
(dp5960
sg41
I3353
sg42
g21
sg43
g21
sg44
I592
sg45
VPrivilege
p5961
sg47
I592
sg48
I3362
sbag0
(g23
g2
Ntp5962
Rp5963
(dp5964
g27
(dp5965
g29
Vpopcorn
p5966
sg31
VO
p5967
sg33
VNN
p5968
sg35
I40
ssg10
I593
sg36
g4
sg37
(dp5969
sg39
(dp5970
sg41
I3363
sg42
g21
sg43
g21
sg44
I593
sg45
Vpopcorn
p5971
sg47
I593
sg48
I3370
sbag0
(g23
g2
Ntp5972
Rp5973
(dp5974
g27
(dp5975
g29
Vgiveaway
p5976
sg31
VO
p5977
sg33
VNN
p5978
sg35
I41
ssg10
I594
sg36
g4
sg37
(dp5979
sg39
(dp5980
sg41
I3371
sg42
g21
sg43
g21
sg44
I594
sg45
Vgiveaway
p5981
sg47
I594
sg48
I3379
sbag0
(g23
g2
Ntp5982
Rp5983
(dp5984
g27
(dp5985
g29
Vwhere
p5986
sg31
VO
p5987
sg33
VWRB
p5988
sg35
I42
ssg10
I595
sg36
g4
sg37
(dp5989
sg39
(dp5990
sg41
I3380
sg42
g21
sg43
g21
sg44
I595
sg45
Vwhere
p5991
sg47
I595
sg48
I3385
sbag0
(g23
g2
Ntp5992
Rp5993
(dp5994
g27
(dp5995
g29
Vwhite
p5996
sg31
VO
p5997
sg33
VJJ
p5998
sg35
I43
ssg10
I596
sg36
g4
sg37
(dp5999
sg39
(dp6000
sg41
I3386
sg42
g21
sg43
g21
sg44
I596
sg45
Vwhite
p6001
sg47
I596
sg48
I3391
sbag0
(g23
g2
Ntp6002
Rp6003
(dp6004
g27
(dp6005
g29
Vmale
p6006
sg31
VO
p6007
sg33
VNNS
p6008
sg35
I44
ssg10
I597
sg36
g4
sg37
(dp6009
sg39
(dp6010
sg41
I3392
sg42
g21
sg43
g21
sg44
I597
sg45
Vmales
p6011
sg47
I597
sg48
I3397
sbag0
(g23
g2
Ntp6012
Rp6013
(dp6014
g27
(dp6015
g29
Vreceive
p6016
sg31
VO
p6017
sg33
VVBD
p6018
sg35
I45
ssg10
I598
sg36
g4
sg37
(dp6019
sg39
(dp6020
sg41
I3398
sg42
g21
sg43
g21
sg44
I598
sg45
Vreceived
p6021
sg47
I598
sg48
I3406
sbag0
(g23
g2
Ntp6022
Rp6023
(dp6024
g27
(dp6025
g29
Va
p6026
sg31
VO
p6027
sg33
VDT
p6028
sg35
I46
ssg10
I599
sg36
g4
sg37
(dp6029
sg39
(dp6030
sg41
I3407
sg42
g21
sg43
g21
sg44
I599
sg45
Va
p6031
sg47
I599
sg48
I3408
sbag0
(g23
g2
Ntp6032
Rp6033
(dp6034
g27
(dp6035
g29
Vfull
p6036
sg31
VO
p6037
sg33
VJJ
p6038
sg35
I47
ssg10
I600
sg36
g4
sg37
(dp6039
sg39
(dp6040
sg41
I3409
sg42
g21
sg43
g21
sg44
I600
sg45
Vfull
p6041
sg47
I600
sg48
I3413
sbag0
(g23
g2
Ntp6042
Rp6043
(dp6044
g27
(dp6045
g29
Vbag
p6046
sg31
VO
p6047
sg33
VNN
p6048
sg35
I48
ssg10
I601
sg36
g4
sg37
(dp6049
sg39
(dp6050
sg41
I3414
sg42
g21
sg43
g21
sg44
I601
sg45
Vbag
p6051
sg47
I601
sg48
I3417
sbag0
(g23
g2
Ntp6052
Rp6053
(dp6054
g27
(dp6055
g29
Vof
p6056
sg31
VO
p6057
sg33
VIN
p6058
sg35
I49
ssg10
I602
sg36
g4
sg37
(dp6059
sg39
(dp6060
sg41
I3418
sg42
g21
sg43
g21
sg44
I602
sg45
Vof
p6061
sg47
I602
sg48
I3420
sbag0
(g23
g2
Ntp6062
Rp6063
(dp6064
g27
(dp6065
g29
Vpopcorn
p6066
sg31
VO
p6067
sg33
VNN
p6068
sg35
I50
ssg10
I603
sg36
g4
sg37
(dp6069
sg39
(dp6070
sg41
I3421
sg42
g21
sg43
g21
sg44
I603
sg45
Vpopcorn
p6071
sg47
I603
sg48
I3428
sbag0
(g23
g2
Ntp6072
Rp6073
(dp6074
g27
(dp6075
g29
V,
p6076
sg31
VO
p6077
sg33
V,
p6078
sg35
I51
ssg10
I604
sg36
g4
sg37
(dp6079
sg39
(dp6080
sg41
I3428
sg42
g21
sg43
g21
sg44
I604
sg45
V,
p6081
sg47
I604
sg48
I3429
sbag0
(g23
g2
Ntp6082
Rp6083
(dp6084
g27
(dp6085
g29
Vwhile
p6086
sg31
VO
p6087
sg33
VIN
p6088
sg35
I52
ssg10
I605
sg36
g4
sg37
(dp6089
sg39
(dp6090
sg41
I3430
sg42
g21
sg43
g21
sg44
I605
sg45
Vwhile
p6091
sg47
I605
sg48
I3435
sbag0
(g23
g2
Ntp6092
Rp6093
(dp6094
g27
(dp6095
g29
Vwoman
p6096
sg31
VO
p6097
sg33
VNNS
p6098
sg35
I53
ssg10
I606
sg36
g4
sg37
(dp6099
sg39
(dp6100
sg41
I3436
sg42
g21
sg43
g21
sg44
I606
sg45
Vwomen
p6101
sg47
I606
sg48
I3441
sbag0
(g23
g2
Ntp6102
Rp6103
(dp6104
g27
(dp6105
g29
Vand
p6106
sg31
VO
p6107
sg33
VCC
p6108
sg35
I54
ssg10
I607
sg36
g4
sg37
(dp6109
sg39
(dp6110
sg41
I3442
sg42
g21
sg43
g21
sg44
I607
sg45
Vand
p6111
sg47
I607
sg48
I3445
sbag0
(g23
g2
Ntp6112
Rp6113
(dp6114
g27
(dp6115
g29
Vnon-whites
p6116
sg31
VO
p6117
sg33
VNNS
p6118
sg35
I55
ssg10
I608
sg36
g4
sg37
(dp6119
sg39
(dp6120
sg41
I3446
sg42
g21
sg43
g21
sg44
I608
sg45
Vnon-whites
p6121
sg47
I608
sg48
I3456
sbag0
(g23
g2
Ntp6122
Rp6123
(dp6124
g27
(dp6125
g29
Vreceive
p6126
sg31
VO
p6127
sg33
VVBD
p6128
sg35
I56
ssg10
I609
sg36
g4
sg37
(dp6129
sg39
(dp6130
sg41
I3457
sg42
g21
sg43
g21
sg44
I609
sg45
Vreceived
p6131
sg47
I609
sg48
I3465
sbag0
(g23
g2
Ntp6132
Rp6133
(dp6134
g27
(dp6135
g29
V1/3
p6136
sg31
VNUMBER
p6137
sg33
VCD
p6138
sg35
I57
ssg10
I610
sg36
g4
sg37
(dp6139
sg39
(dp6140
sg41
I3466
sg42
g21
sg43
g21
sg44
I610
sg45
V1/3
p6141
sg47
I610
sg48
I3469
sbag0
(g23
g2
Ntp6142
Rp6143
(dp6144
g27
(dp6145
g29
Vof
p6146
sg31
VO
p6147
sg33
VIN
p6148
sg35
I58
ssg10
I611
sg36
g4
sg37
(dp6149
sg39
(dp6150
sg41
I3470
sg42
g21
sg43
g21
sg44
I611
sg45
Vof
p6151
sg47
I611
sg48
I3472
sbag0
(g23
g2
Ntp6152
Rp6153
(dp6154
g27
(dp6155
g29
Va
p6156
sg31
VO
p6157
sg33
VDT
p6158
sg35
I59
ssg10
I612
sg36
g4
sg37
(dp6159
sg39
(dp6160
sg41
I3473
sg42
g21
sg43
g21
sg44
I612
sg45
Va
p6161
sg47
I612
sg48
I3474
sbag0
(g23
g2
Ntp6162
Rp6163
(dp6164
g27
(dp6165
g29
Vbag
p6166
sg31
VO
p6167
sg33
VNN
p6168
sg35
I60
ssg10
I613
sg36
g4
sg37
(dp6169
sg39
(dp6170
sg41
I3475
sg42
g21
sg43
g21
sg44
I613
sg45
Vbag
p6171
sg47
I613
sg48
I3478
sbag0
(g23
g2
Ntp6172
Rp6173
(dp6174
g27
(dp6175
g29
V-lsb-
p6176
sg31
VO
p6177
sg33
V-LRB-
p6178
sg35
I61
ssg10
I614
sg36
g4
sg37
(dp6179
sg39
(dp6180
sg41
I3479
sg42
g21
sg43
g21
sg44
I614
sg45
V[
p6181
sg47
I614
sg48
I3480
sbag0
(g23
g2
Ntp6182
Rp6183
(dp6184
g27
(dp6185
g29
Vref
p6186
sg31
VO
p6187
sg33
VNN
p6188
sg35
I62
ssg10
I615
sg36
g4
sg37
(dp6189
sg39
(dp6190
sg41
I3480
sg42
g21
sg43
g21
sg44
I615
sg45
VREF
p6191
sg47
I615
sg48
I3483
sbag0
(g23
g2
Ntp6192
Rp6193
(dp6194
g27
(dp6195
g29
V-rsb-
p6196
sg31
VO
p6197
sg33
V-RRB-
p6198
sg35
I63
ssg10
I616
sg36
g4
sg37
(dp6199
sg39
(dp6200
sg41
I3483
sg42
g21
sg43
g21
sg44
I616
sg45
V]
p6201
sg47
I616
sg48
I3484
sbag0
(g23
g2
Ntp6202
Rp6203
(dp6204
g27
(dp6205
g29
V.
p6206
sg31
VO
p6207
sg33
V.
p6208
sg35
I64
ssg10
I617
sg36
g4
sg37
(dp6209
sg39
(dp6210
sg41
I3484
sg42
g21
sg43
g21
sg44
I617
sg45
V.
p6211
sg47
I617
sg48
I3485
sbasS'Document'
p6212
(lp6213
g4
asS'doc-features'
p6214
g14
sS'Sentence'
p6215
(lp6216
g0
(g23
g2
Ntp6217
Rp6218
(dp6219
g27
(dp6220
S'dep-parse'
p6221
S'not implemented!'
p6222
sg35
I0
sS'constituency-parse'
p6223
V(ROOT\u000a  (S\u000a    (NP (DT An) (JJ affirmative) (NN action)\u000a      (S\u000a        (VP (VB bake)\u000a          (NP (NN sale)))))\u000a    (VP (VBZ is)\u000a      (NP\u000a        (NP (DT a) (NN campus) (NN protest) (NN event))\u000a        (VP (VBN used)\u000a          (PP (IN by)\u000a            (NP (NN student) (NNS groups)))\u000a          (S\u000a            (VP (TO to)\u000a              (VP (VB illustrate)\u000a                (NP\u000a                  (NP (NN criticism))\u000a                  (PP (IN of)\u000a                    (NP (JJ affirmative) (NN action) (NNS policies))))\u000a                (, ,)\u000a                (SBAR (RB especially) (IN as)\u000a                  (S\u000a                    (NP (PRP they))\u000a                    (VP (VBP relate)\u000a                      (PP (TO to)\u000a                        (NP (NN college)\u000a                          (CC and)\u000a                          (JJ graduate) (NN school) (NNS admissions))))))))))))\u000a    (. .)))
p6224
ssg10
I0
sg36
g4
sg37
(dp6225
sg39
(dp6226
S'tokens'
p6227
(lp6228
g25
ag50
ag60
ag70
ag80
ag90
ag100
ag110
ag120
ag130
ag140
ag150
ag160
ag170
ag180
ag190
ag200
ag210
ag220
ag230
ag240
ag250
ag260
ag270
ag280
ag290
ag300
ag310
ag320
ag330
ag340
ag350
ag360
assg41
I0
sg42
g6215
sg43
g6215
sg44
I0
sg45
VAn affirmative action bake sale is a campus protest event used by student groups to illustrate criticism of affirmative action policies, especially as they relate to college and graduate school admissions.
p6229
sg47
I33
sg48
I205
sbag0
(g23
g2
Ntp6230
Rp6231
(dp6232
g27
(dp6233
g6221
g6222
sg35
I1
sg6223
V(ROOT\u000a  (S\u000a    (PP (VBG According)\u000a      (PP (TO to)\u000a        (NP (CD one) (NN bake))))\u000a    (NP\u000a      (NP (NN sale) (NN student) (NN leader))\u000a      (, ,)\u000a      (NP\u000a        (NP (DT the) (NN goal))\u000a        (PP (IN of)\u000a          (NP (DT the) (NN technique)))))\u000a    (VP (VBZ is)\u000a      (S\u000a        (VP (TO to) (`` ``)\u000a          (VP (VB bring)\u000a            (NP\u000a              (NP (DT the) (NN issue))\u000a              (PP (IN of)\u000a                (NP (JJ affirmative) (NN action))))\u000a            (ADVP (IN down)\u000a              (PP (TO to)\u000a                (NP (JJ everyday) (NNS terms))))))))\u000a    (. .) ('' '')))
p6234
ssg10
I1
sg36
g4
sg37
(dp6235
sg39
(dp6236
g6227
(lp6237
g370
ag380
ag390
ag400
ag410
ag420
ag430
ag440
ag450
ag460
ag470
ag480
ag490
ag500
ag510
ag520
ag530
ag540
ag550
ag560
ag570
ag580
ag590
ag600
ag610
ag620
ag630
ag640
assg41
I206
sg42
g6215
sg43
g6215
sg44
I33
sg45
V According to one bake sale student leader, the goal of the technique is to "bring the issue of affirmative action down to everyday terms."
p6238
sg47
I61
sg48
I344
sbag0
(g23
g2
Ntp6239
Rp6240
(dp6241
g27
(dp6242
g6221
g6222
sg35
I2
sg6223
V(ROOT\u000a  (S\u000a    (NP (-LRB- -LSB-) (NN REF))\u000a    (VP (-RRB- -RSB-))\u000a    (. .)))
p6243
ssg10
I2
sg36
g4
sg37
(dp6244
sg39
(dp6245
g6227
(lp6246
g649
ag659
ag669
ag679
assg41
I345
sg42
g6215
sg43
g6215
sg44
I61
sg45
V [REF] .
p6247
sg47
I65
sg48
I352
sbag0
(g23
g2
Ntp6248
Rp6249
(dp6250
g27
(dp6251
g6221
g6222
sg35
I3
sg6223
V(ROOT\u000a  (S\u000a    (NP (DT The) (JJ bake) (NNS sales))\u000a    (VP (VBP offer)\u000a      (S\u000a        (VP (TO to)\u000a          (VP (VB sell)\u000a            (NP (NNS cookies))\u000a            (PP (IN at)\u000a              (NP (JJ different) (NNS prices)))\u000a            (PP (VBG depending)\u000a              (PP (IN on)\u000a                (NP\u000a                  (NP (DT the) (NN customer) (POS 's))\u000a                  (NX\u000a                    (NX (NN race))\u000a                    (CC and)\u000a                    (NX (NN sex))))))\u000a            (, ,)\u000a            (S\u000a              (VP (VBG imitating)\u000a                (NP\u000a                  (NP (DT the) (JJ racial)\u000a                    (CC and)\u000a                    (JJ sexual) (NN preference) (NNS practices))\u000a                  (PP (IN of)\u000a                    (NP (JJ affirmative) (NN action))))))))))\u000a    (. .)))
p6252
ssg10
I3
sg36
g4
sg37
(dp6253
sg39
(dp6254
g6227
(lp6255
g689
ag699
ag709
ag719
ag729
ag739
ag749
ag759
ag769
ag779
ag789
ag799
ag809
ag819
ag829
ag839
ag849
ag859
ag869
ag879
ag889
ag899
ag909
ag919
ag929
ag939
ag949
ag959
ag969
ag979
assg41
I355
sg42
g6215
sg43
g6215
sg44
I65
sg45
V \u000a\u000aThe bake sales offer to sell cookies at different prices depending on the customer's race and sex, imitating the racial and sexual preference practices of affirmative action.
p6256
sg47
I95
sg48
I529
sbag0
(g23
g2
Ntp6257
Rp6258
(dp6259
g27
(dp6260
g6221
g6222
sg35
I4
sg6223
V(ROOT\u000a  (S\u000a    (NP\u000a      (NP (CD One) (NN idea))\u000a      (PP (IN of)\u000a        (NP (JJ such) (JJ bake) (NNS sales))))\u000a    (VP (VBZ is)\u000a      (S\u000a        (VP (TO to)\u000a          (VP (VB demonstrate)\u000a            (NP\u000a              (NP (NNS analogies))\u000a              (PP (IN between)\u000a                (NP\u000a                  (NP (NN price) (NN discrimination))\u000a                  (CC and)\u000a                  (NP (JJ affirmative) (NN action)))))))))\u000a    (. .)))
p6261
ssg10
I4
sg36
g4
sg37
(dp6262
sg39
(dp6263
g6227
(lp6264
g989
ag999
ag1009
ag1019
ag1029
ag1039
ag1049
ag1059
ag1069
ag1079
ag1089
ag1099
ag1109
ag1119
ag1129
ag1139
ag1149
assg41
I530
sg42
g6215
sg43
g6215
sg44
I95
sg45
V One idea of such bake sales is to demonstrate analogies between price discrimination and affirmative action.
p6265
sg47
I112
sg48
I638
sbag0
(g23
g2
Ntp6266
Rp6267
(dp6268
g27
(dp6269
g6221
g6222
sg35
I5
sg6223
V(ROOT\u000a  (S\u000a    (NP (DT A) (JJ typical) (NN pricing) (NN structure))\u000a    (VP (VBZ charges)\u000a      (NP\u000a        (NP\u000a          (NP ($ $) (CD 1.00))\u000a          (PP (IN for)\u000a            (NP (NNP White) (NNS males))))\u000a        (, ,)\u000a        (NP\u000a          (NP ($ $) (CD .75))\u000a          (PP (IN for)\u000a            (NP (NNP White) (NNS females))))\u000a        (, ,)\u000a        (NP\u000a          (NP ($ $) (CD .50))\u000a          (PP (IN for)\u000a            (NP (NNP Latino) (, ,) (NNP Black) (, ,) (NNP Asian) (, ,))))\u000a        (CC and)\u000a        (NP\u000a          (NP (JJ Native) (JJ American) (NNS males))\u000a          (CC and)\u000a          (NP\u000a            (NP ($ $) (CD .25))\u000a            (PP (IN for)\u000a              (NP (NNP Latino) (, ,) (NNP Black) (, ,) (NNP Asian) (, ,))))\u000a          (CC and)\u000a          (NP (JJ Native) (JJ American) (NNS females)))))\u000a    (. .)))
p6270
ssg10
I5
sg36
g4
sg37
(dp6271
sg39
(dp6272
g6227
(lp6273
g1159
ag1169
ag1179
ag1189
ag1199
ag1209
ag1219
ag1229
ag1239
ag1249
ag1259
ag1269
ag1279
ag1289
ag1299
ag1309
ag1319
ag1329
ag1339
ag1349
ag1359
ag1369
ag1379
ag1389
ag1399
ag1409
ag1419
ag1429
ag1439
ag1449
ag1459
ag1469
ag1479
ag1489
ag1499
ag1509
ag1519
ag1529
ag1539
ag1549
ag1559
ag1569
ag1579
ag1589
ag1599
assg41
I639
sg42
g6215
sg43
g6215
sg44
I112
sg45
V A typical pricing structure charges $1.00 for White males, $.75 for White females, $.50 for Latino, Black, Asian, and Native American males and $.25 for Latino, Black, Asian, and Native American females.
p6274
sg47
I157
sg48
I842
sbag0
(g23
g2
Ntp6275
Rp6276
(dp6277
g27
(dp6278
g6221
g6222
sg35
I6
sg6223
V(ROOT\u000a  (S\u000a    (S\u000a      (NP\u000a        (NP (DT The) (JJ bake) (NNS sales) (POS '))\u000a        (NNS hosts))\u000a      (VP (VBP do) (RB not)\u000a        (VP (VB support)\u000a          (NP\u000a            (NP (DT this) (NN kind))\u000a            (PP (IN of)\u000a              (NP (JJ preferential) (NN treatment)))))))\u000a    (: ;)\u000a    (S\u000a      (ADVP (RB rather))\u000a      (, ,)\u000a      (NP (PRP they))\u000a      (VP (VBP argue)\u000a        (SBAR (IN that)\u000a          (S\u000a            (NP (DT this) (JJ preferential) (NN pricing))\u000a            (VP (VBZ is)\u000a              (ADJP (JJ analogous)\u000a                (PP (TO to)\u000a                  (NP\u000a                    (NP (DT the) (JJ preferential) (NN treatment))\u000a                    (VP (VBN created)\u000a                      (PP (IN by)\u000a                        (NP (JJ affirmative) (NN action) (NNS policies))))))))))))\u000a    (. .)))
p6279
ssg10
I6
sg36
g4
sg37
(dp6280
sg39
(dp6281
g6227
(lp6282
g1609
ag1619
ag1629
ag1639
ag1649
ag1659
ag1669
ag1679
ag1689
ag1699
ag1709
ag1719
ag1729
ag1739
ag1749
ag1759
ag1769
ag1779
ag1789
ag1799
ag1809
ag1819
ag1829
ag1839
ag1849
ag1859
ag1869
ag1879
ag1889
ag1899
ag1909
ag1919
ag1929
ag1939
assg41
I843
sg42
g6215
sg43
g6215
sg44
I157
sg45
V The bake sales' hosts do not support this kind of preferential treatment; rather, they argue that this preferential pricing is analogous to the preferential treatment created by affirmative action policies.
p6283
sg47
I191
sg48
I1049
sbag0
(g23
g2
Ntp6284
Rp6285
(dp6286
g27
(dp6287
g6221
g6222
sg35
I7
sg6223
V(ROOT\u000a  (S\u000a    (NP (DT These) (JJ bake) (NNS sales))\u000a    (VP (VBP have)\u000a      (VP (VBN been)\u000a        (VP (VBN organized)\u000a          (PP (IN at)\u000a            (NP\u000a              (NP (JJ many) (NNS schools))\u000a              (PP (IN across)\u000a                (NP (DT the) (NNP U.S.))))\u000a            (, ,)\u000a            (ADVP (RB sometimes)))\u000a          (ADVP (RB annually)))))\u000a    (. .)))
p6288
ssg10
I7
sg36
g4
sg37
(dp6289
sg39
(dp6290
g6227
(lp6291
g1949
ag1959
ag1969
ag1979
ag1989
ag1999
ag2009
ag2019
ag2029
ag2039
ag2049
ag2059
ag2069
ag2079
ag2089
ag2099
assg41
I1052
sg42
g6215
sg43
g6215
sg44
I191
sg45
V \u000a\u000aThese bake sales have been organized at many schools across the U.S., sometimes annually.
p6292
sg47
I207
sg48
I1141
sbag0
(g23
g2
Ntp6293
Rp6294
(dp6295
g27
(dp6296
g6221
g6222
sg35
I8
sg6223
V(ROOT\u000a  (S\u000a    (NP (JJ Affirmative) (NN action) (NN bake) (NNS sales))\u000a    (VP (VBP have)\u000a      (ADVP (RB also))\u000a      (VP (VBN taken)\u000a        (NP (NN place))\u000a        (PP (IN at)\u000a          (NP\u000a            (NP (DT the) (NNP University))\u000a            (PP (IN of)\u000a              (NP (NNP Pretoria)))))\u000a        (PP (IN in)\u000a          (NP\u000a            (NP (NNP South) (NNP Africa))\u000a            (, ,)\u000a            (NP (DT the) (JJS latest)\u000a              (PRN (-LRB- -LRB-)\u000a                (PP (IN in)\u000a                  (NP (CD 2008)))\u000a                (-RRB- -RRB-)))))\u000a        (S\u000a          (VP (VBG having)\u000a            (VP (VBN been)\u000a              (ADVP (RB forcibly))\u000a              (VP (VBN broken)\u000a                (PRT (RP up))\u000a                (PP (IN by)\u000a                  (NP (NN campus) (NN security) (-LRB- -LSB-) (NN REF) (-RRB- -RSB-)))))))))\u000a    (. .)))
p6297
ssg10
I8
sg36
g4
sg37
(dp6298
sg39
(dp6299
g6227
(lp6300
g2109
ag2119
ag2129
ag2139
ag2149
ag2159
ag2169
ag2179
ag2189
ag2199
ag2209
ag2219
ag2229
ag2239
ag2249
ag2259
ag2269
ag2279
ag2289
ag2299
ag2309
ag2319
ag2329
ag2339
ag2349
ag2359
ag2369
ag2379
ag2389
ag2399
ag2409
ag2419
ag2429
ag2439
ag2449
assg41
I1142
sg42
g6215
sg43
g6215
sg44
I207
sg45
V Affirmative action bake sales have also taken place at the University of Pretoria in South Africa, the latest (in 2008) having been forcibly broken up by campus security [REF].
p6301
sg47
I242
sg48
I1318
sbag0
(g23
g2
Ntp6302
Rp6303
(dp6304
g27
(dp6305
g6221
g6222
sg35
I9
sg6223
V(ROOT\u000a  (S\u000a    (NP (DT The) (JJ bake) (NNS sales))\u000a    (VP (VBP have)\u000a      (VP (VBN met)\u000a        (NP (NN opposition))\u000a        (, ,)\u000a        (S\u000a          (VP\u000a            (VP (VBG drawing)\u000a              (NP\u000a                (NP (NNS crowds))\u000a                (PP (IN of)\u000a                  (NP (NNS students)))))\u000a            (, ,)\u000a            (VP\u000a              (ADVP (RB sometimes))\u000a              (VBG facing)\u000a              (NP (NN opposition)\u000a                (CC or)\u000a                (NN restriction))\u000a              (PP (IN from)\u000a                (NP\u000a                  (NP (NN campus) (NNS administrations))\u000a                  (, ,)\u000a                  (NP (-LRB- -LSB-) (NNP REF))\u000a                  (-RRB- -RSB-)\u000a                  (NP (-LRB- -LSB-) (NN REF))\u000a                  (-RRB- -RSB-)\u000a                  (NP (-LRB- -LSB-) (NN REF)))))\u000a            (-RRB- -RSB-)\u000a            (VP\u000a              (ADVP (RB often))\u000a              (VBG being)\u000a              (VP (VBN accused)\u000a                (PP (IN of)\u000a                  (NP (NN racism)))))\u000a            (, ,)\u000a            (CC and)\u000a            (VP\u000a              (ADVP (RB sometimes) (RB even))\u000a              (VBG being)\u000a              (VP (VBN attacked)\u000a                (PP (-LRB- -LSB-)\u000a                  (NP (NN REF) (-RRB- -RSB-)))))))))\u000a    (. .)))
p6306
ssg10
I9
sg36
g4
sg37
(dp6307
sg39
(dp6308
g6227
(lp6309
g2459
ag2469
ag2479
ag2489
ag2499
ag2509
ag2519
ag2529
ag2539
ag2549
ag2559
ag2569
ag2579
ag2589
ag2599
ag2609
ag2619
ag2629
ag2639
ag2649
ag2659
ag2669
ag2679
ag2689
ag2699
ag2709
ag2719
ag2729
ag2739
ag2749
ag2759
ag2769
ag2779
ag2789
ag2799
ag2809
ag2819
ag2829
ag2839
ag2849
ag2859
ag2869
ag2879
ag2889
ag2899
assg41
I1320
sg42
g6215
sg43
g6215
sg44
I242
sg45
V\u000a\u000aThe bake sales have met opposition, drawing crowds of students, sometimes facing opposition or restriction from campus administrations,[REF][REF][REF] often being accused of racism, and sometimes even being attacked [REF].
p6310
sg47
I287
sg48
I1542
sbag0
(g23
g2
Ntp6311
Rp6312
(dp6313
g27
(dp6314
g6221
g6222
sg35
I10
sg6223
V(ROOT\u000a  (S\u000a    (ADVP (RB Additionally))\u000a    (, ,)\u000a    (NP (DT some) (NNS administrators))\u000a    (VP (VBP have)\u000a      (VP\u000a        (VP (VBN been)\u000a          (VP (VBN accused)\u000a            (PP (IN of)\u000a              (NP (NN censorship)))))\u000a        (CC and)\u000a        (VP\u000a          (ADVP (RB inappropriately))\u000a          (VBG advocating)\u000a          (NP\u000a            (NP (DT a) (JJ political) (NN position))\u000a            (PP (-LRB- -LSB-)\u000a              (NP (NN REF) (-RRB- -RSB-)))))))\u000a    (. .)))
p6315
ssg10
I10
sg36
g4
sg37
(dp6316
sg39
(dp6317
g6227
(lp6318
g2909
ag2919
ag2929
ag2939
ag2949
ag2959
ag2969
ag2979
ag2989
ag2999
ag3009
ag3019
ag3029
ag3039
ag3049
ag3059
ag3069
ag3079
ag3089
assg41
I1543
sg42
g6215
sg43
g6215
sg44
I287
sg45
V Additionally, some administrators have been accused of censorship and inappropriately advocating a political position [REF].
p6319
sg47
I306
sg48
I1667
sbag0
(g23
g2
Ntp6320
Rp6321
(dp6322
g27
(dp6323
g6221
g6222
sg35
I11
sg6223
V(ROOT\u000a  (S\u000a    (NP (DT The)\u000a      (ADJP\u000a        (NP (CD 2007) (NN documentary))\u000a        (JJ Indoctrinate))\u000a      (NN U))\u000a    (VP (VBD showed)\u000a      (SBAR\u000a        (WHADVP (WRB how))\u000a        (S\u000a          (NP (DT some) (JJ such) (NN censorship))\u000a          (VP (VBZ is)\u000a            (ADVP (RB often))\u000a            (VP (VBN institutionalized)\u000a              (PP (IN into)\u000a                (NP (DT the) (NN university) (NN system))))))))\u000a    (. .)))
p6324
ssg10
I11
sg36
g4
sg37
(dp6325
sg39
(dp6326
g6227
(lp6327
g3099
ag3109
ag3119
ag3129
ag3139
ag3149
ag3159
ag3169
ag3179
ag3189
ag3199
ag3209
ag3219
ag3229
ag3239
ag3249
ag3259
ag3269
assg41
I1668
sg42
g6215
sg43
g6215
sg44
I306
sg45
V The 2007 documentary Indoctrinate U showed how some such censorship is often institutionalized into the university system.
p6328
sg47
I324
sg48
I1790
sbag0
(g23
g2
Ntp6329
Rp6330
(dp6331
g27
(dp6332
g6221
g6222
sg35
I12
sg6223
V(ROOT\u000a  (S\u000a    (S\u000a      (VP (VBG Responding)\u000a        (PP (TO to)\u000a          (NP (DT an) (JJ affirmative) (NN action)))\u000a        (NP\u000a          (NP (VB bake) (NN sale))\u000a          (VP (VBG being)\u000a            (VP (VBN attacked)\u000a              (PP (IN at)\u000a                (NP\u000a                  (NP (DT the) (NNP University))\u000a                  (PP (IN of)\u000a                    (NP (NNP Washington))))))))))\u000a    (, ,)\u000a    (NP\u000a      (NP\u000a        (NP (DT the) (NN school) (POS 's))\u000a        (NNP Board))\u000a      (PP (IN of)\u000a        (NP (NNP Regents) (NNP President) (NNP Jerry) (NNP Grinstein))))\u000a    (VP (VBD presented)\u000a      (NP\u000a        (NP (DT the) (NN opinion))\u000a        (PP (IN of)\u000a          (NP\u000a            (NP (JJ many) (NNS opponents))\u000a            (PP (IN of)\u000a              (NP (DT these) (NNS events))))))\u000a      (SBAR\u000a        (WHADVP (WRB when))\u000a        (S\u000a          (NP (PRP he))\u000a          (VP (VBD described)\u000a            (S (`` ``)\u000a              (NP (DT the) (NNS statements))\u000a              (-LRB- -LSB-))))))\u000a    (. .)))
p6333
ssg10
I12
sg36
g4
sg37
(dp6334
sg39
(dp6335
g6227
(lp6336
g3279
ag3289
ag3299
ag3309
ag3319
ag3329
ag3339
ag3349
ag3359
ag3369
ag3379
ag3389
ag3399
ag3409
ag3419
ag3429
ag3439
ag3449
ag3459
ag3469
ag3479
ag3489
ag3499
ag3509
ag3519
ag3529
ag3539
ag3549
ag3559
ag3569
ag3579
ag3589
ag3599
ag3609
ag3619
ag3629
ag3639
ag3648
ag3658
ag3668
ag3678
assg41
I1793
sg42
g6215
sg43
g6215
sg44
I324
sg45
V \u000a\u000aResponding to an affirmative action bake sale being attacked at the University of Washington, the school's Board of Regents President Jerry Grinstein presented the opinion of many opponents of these events when he described "the statements [.
p6337
sg47
I365
sg48
I2035
sbag0
(g23
g2
Ntp6338
Rp6339
(dp6340
g27
(dp6341
g6221
g6222
sg35
I13
sg6223
V(ROOT\u000a  (NP (. .) (-RRB- -RSB-)))
p6342
ssg10
I13
sg36
g4
sg37
(dp6343
sg39
(dp6344
g6227
(lp6345
g3688
ag3698
assg41
I2034
sg42
g6215
sg43
g6215
sg44
I365
sg45
V.]
p6346
sg47
I367
sg48
I2037
sbag0
(g23
g2
Ntp6347
Rp6348
(dp6349
g27
(dp6350
g6221
g6222
sg35
I14
sg6223
V(ROOT\u000a  (S\u000a    (PP (IN in)\u000a      (S\u000a        (VP (VBG putting)\u000a          (PRT (RP on)))))\u000a    (NP\u000a      (NP (DT a) (JJ bake) (NN sale))\u000a      (PP (IN about)\u000a        (NP (JJ affirmative) (NN action))))\u000a    (VP (VBD were)\u000a      (ADJP (JJ tasteless) (, ,) (JJ divisive)\u000a        (CC and)\u000a        (JJ hurtful))\u000a      (PP (TO to)\u000a        (NP\u000a          (NP (JJ many) (NNS members))\u000a          (PP (IN of)\u000a            (NP (DT the) (NN university) (NN community))))))\u000a    (. .) ('' '')))
p6351
ssg10
I14
sg36
g4
sg37
(dp6352
sg39
(dp6353
g6227
(lp6354
g3708
ag3718
ag3728
ag3738
ag3748
ag3758
ag3768
ag3778
ag3788
ag3798
ag3808
ag3818
ag3828
ag3838
ag3848
ag3858
ag3868
ag3878
ag3888
ag3898
ag3908
ag3918
ag3928
ag3938
assg41
I2038
sg42
g6215
sg43
g6215
sg44
I367
sg45
V in putting on a bake sale about affirmative action were tasteless, divisive and hurtful to many members of the university community."
p6355
sg47
I391
sg48
I2171
sbag0
(g23
g2
Ntp6356
Rp6357
(dp6358
g27
(dp6359
g6221
g6222
sg35
I15
sg6223
V(ROOT\u000a  (S\u000a    (NP\u000a      (NP (-LRB- -LSB-) (NN REF))\u000a      (PP (-RRB- -RSB-)\u000a        (NP\u000a          (NP (DT The) (NN student) (NN leader))\u000a          (PP (IN of)\u000a            (NP\u000a              (NP (DT a) (JJ bake) (NN sale))\u000a              (PP (IN at)\u000a                (NP (NNP UCLA))))))))\u000a    (VP (VBD addressed)\u000a      (NP\u000a        (NP (DT this) (NN issue))\u000a        (PP (IN of)\u000a          (NP (NN divisiveness))))\u000a      (, ,)\u000a      (S\u000a        (VP (VBG saying)\u000a          (S (`` ``)\u000a            (NP (PRP we))\u000a            (VP (VBD wanted)\u000a              (S\u000a                (VP (TO to)\u000a                  (VP (VB show)\u000a                    (SBAR\u000a                      (WHADVP (WRB how))\u000a                      (S\u000a                        (NP (JJ affirmative) (NN action))\u000a                        (VP (VBZ is)\u000a                          (NP\u000a                            (NP (JJ racial) (NN division))\u000a                            (, ,) (RB not)\u000a                            (NP (JJ racial) (NN reconciliation))))))))))))))\u000a    (. .) ('' '')))
p6360
ssg10
I15
sg36
g4
sg37
(dp6361
sg39
(dp6362
g6227
(lp6363
g3947
ag3957
ag3967
ag3977
ag3987
ag3997
ag4007
ag4017
ag4027
ag4037
ag4047
ag4057
ag4067
ag4077
ag4087
ag4097
ag4107
ag4117
ag4127
ag4137
ag4146
ag4156
ag4166
ag4176
ag4186
ag4196
ag4206
ag4216
ag4226
ag4236
ag4246
ag4256
ag4266
ag4276
ag4286
ag4296
assg41
I2171
sg42
g6215
sg43
g6215
sg44
I391
sg45
V[REF] The student leader of a bake sale at UCLA addressed this issue of divisiveness, saying "we wanted to show how affirmative action is racial division, not racial reconciliation."
p6364
sg47
I427
sg48
I2353
sbag0
(g23
g2
Ntp6365
Rp6366
(dp6367
g27
(dp6368
g6221
g6222
sg35
I16
sg6223
V(ROOT\u000a  (S\u000a    (NP (-LRB- -LSB-) (NN REF))\u000a    (-RRB- -RSB-)\u000a    (ADVP (RB Similarly))\u000a    (, ,)\u000a    (NP\u000a      (NP (NNS administrators))\u000a      (PP (IN at)\u000a        (NP (NNP Bucknell) (NNP University))))\u000a    (VP (VBD claimed)\u000a      (SBAR (IN that)\u000a        (S\u000a          (NP (DT the) (NN bake) (NNS sales))\u000a          (VP (VBD violated)\u000a            (NP\u000a              (NP (DT the) (JJ private) (NN university) (POS 's))\u000a              (NN discrimination) (NN policy))\u000a            (PP (-LRB- -LSB-)\u000a              (NP (NN REF) (-RRB- -RSB-)))))))\u000a    (. .)))
p6369
ssg10
I16
sg36
g4
sg37
(dp6370
sg39
(dp6371
g6227
(lp6372
g4305
ag4315
ag4325
ag4335
ag4345
ag4355
ag4365
ag4375
ag4385
ag4395
ag4405
ag4415
ag4425
ag4435
ag4445
ag4455
ag4465
ag4475
ag4485
ag4495
ag4505
ag4515
ag4525
ag4535
ag4545
assg41
I2353
sg42
g6215
sg43
g6215
sg44
I427
sg45
V[REF] Similarly, administrators at Bucknell University claimed that the bake sales violated the private university's discrimination policy [REF].
p6373
sg47
I452
sg48
I2498
sbag0
(g23
g2
Ntp6374
Rp6375
(dp6376
g27
(dp6377
g6221
g6222
sg35
I17
sg6223
V(ROOT\u000a  (S\u000a    (NP\u000a      (NP (JJ Other) (NNS criticisms))\u000a      (PP (IN of)\u000a        (NP (DT the) (NN concept))))\u000a    (VP (NN claim)\u000a      (SBAR (IN that)\u000a        (S\u000a          (NP (DT these) (JJ bake) (NNS sales))\u000a          (VP (VBP do) (RB not)\u000a            (VP (VB take)\u000a              (PP (IN into)\u000a                (NP\u000a                  (NP (NN account))\u000a                  (VP (VBN ingrained)\u000a                    (NP\u000a                      (NP (JJ social) (NNS factors))\u000a                      (SBAR\u000a                        (WHNP (WDT that))\u000a                        (S\u000a                          (VP (VBP favor)\u000a                            (NP (NNS whites))))))))))))))\u000a    (. .)))
p6378
ssg10
I17
sg36
g4
sg37
(dp6379
sg39
(dp6380
g6227
(lp6381
g4555
ag4565
ag4575
ag4585
ag4595
ag4605
ag4615
ag4625
ag4635
ag4645
ag4655
ag4665
ag4675
ag4685
ag4695
ag4705
ag4715
ag4725
ag4735
ag4745
ag4755
ag4765
assg41
I2501
sg42
g6215
sg43
g6215
sg44
I452
sg45
V \u000a\u000aOther criticisms of the concept claim that these bake sales do not take into account ingrained social factors that favor whites.
p6382
sg47
I474
sg48
I2629
sbag0
(g23
g2
Ntp6383
Rp6384
(dp6385
g27
(dp6386
g6221
g6222
sg35
I18
sg6223
V(X (DT An) (NN opinion) (NN column) (IN in) (DT the) (NNP Houston) (NNP Chronicle) (IN after) (DT a) (JJ similar) (NN sale) (VBD took) (NN place) (IN at) (NNP Texas) (NNP A&M) (NNP University) (VBD held) (IN that) (`` ``) (NNS Actions) (IN like) (DT these) (VBP reinforce) (DT the) (JJ common) (NN misconception) (WDT that) (JJ affirmative) (NN action) (NNS policies) (VBP give) (RB academically) (JJ unqualified) (NN minority) (NNS students) (DT a) (JJ get-into-college-free) (NN card) (, ,)\u000a  (CC and)\u000a  (PRP they) (VBP ignore) (JJ historical) (NN discrimination) (WDT that) (VBD denied) (NNS nonwhites) (NNS opportunities) (TO to) (VB be) (JJ successful) (IN at) (DT any) (NN price) (, ,) (DT no) (NN matter) (PRP$ their) (NNS talents)\u000a  (CC or)\u000a  (NN intelligence) (. .) ('' ''))
p6387
ssg10
I18
sg36
g4
sg37
(dp6388
sg39
(dp6389
g6227
(lp6390
g4775
ag4785
ag4795
ag4805
ag4815
ag4825
ag4835
ag4845
ag4855
ag4865
ag4875
ag4885
ag4895
ag4905
ag4915
ag4925
ag4935
ag4945
ag4955
ag4965
ag4974
ag4984
ag4994
ag5004
ag5014
ag5024
ag5034
ag5044
ag5054
ag5064
ag5074
ag5084
ag5094
ag5104
ag5114
ag5124
ag5134
ag5144
ag5154
ag5164
ag5174
ag5184
ag5194
ag5204
ag5214
ag5224
ag5234
ag5244
ag5254
ag5264
ag5274
ag5284
ag5294
ag5304
ag5314
ag5324
ag5334
ag5344
ag5354
ag5364
ag5374
ag5384
ag5394
ag5404
assg41
I2630
sg42
g6215
sg43
g6215
sg44
I474
sg45
V An opinion column in the Houston Chronicle after a similar sale took place at Texas A&M University held that "Actions like these reinforce the common misconception that affirmative action policies give academically unqualified minority students a get-into-college-free card, and they ignore historical discrimination that denied nonwhites opportunities to be successful at any price, no matter their talents or intelligence."
p6391
sg47
I538
sg48
I3055
sbag0
(g23
g2
Ntp6392
Rp6393
(dp6394
g27
(dp6395
g6221
g6222
sg35
I19
sg6223
V(ROOT\u000a  (S\u000a    (NP (DT The) (NN editorial))\u000a    (ADVP (RB also))\u000a    (VP (VBD praised)\u000a      (NP (NN school) (NNS officials))\u000a      (PP (IN for)\u000a        (S (RB not)\u000a          (VP (VBG shutting)\u000a            (PRT (RP down))\u000a            (NP\u000a              (NP (DT the) (NN sale))\u000a              (PP (-LRB- -LSB-)\u000a                (NP (NN REF) (-RRB- -RSB-))))))))\u000a    (. .)))
p6396
ssg10
I19
sg36
g4
sg37
(dp6397
sg39
(dp6398
g6227
(lp6399
g5413
ag5423
ag5433
ag5443
ag5453
ag5463
ag5473
ag5483
ag5493
ag5503
ag5513
ag5523
ag5533
ag5543
ag5553
ag5563
assg41
I3056
sg42
g6215
sg43
g6215
sg44
I538
sg45
V The editorial also praised school officials for not shutting down the sale [REF].
p6400
sg47
I554
sg48
I3137
sbag0
(g23
g2
Ntp6401
Rp6402
(dp6403
g27
(dp6404
g6221
g6222
sg35
I20
sg6223
V(X (IN At) (DT the) (NNP University) (IN of) (NNP Illinois) (IN at) (NNP Urbana) (: --) (NNP Champaign) (, ,) (DT the) (NN Graduate)\u000a  (CC and)\u000a  (JJ Professional) (NNS Students) (IN of) (NNP Color) (NN student) (NN organization) (VBD responded) (TO to) (DT a) (JJ bake) (NN sale) (VBN held) (IN by) (DT the) (NNS Students) (IN for) (JJ Individual) (NNP Liberty) (-LRB- -LSB-) (NNP REF) (-RRB- -RSB-) (IN by) (VBG holding) (DT a) (NNP White) (NNP Privilege) (NN popcorn) (NN giveaway) (WRB where) (JJ white) (NNS males) (VBD received) (DT a) (JJ full) (NN bag) (IN of) (NN popcorn) (, ,) (IN while) (NNS women)\u000a  (CC and)\u000a  (NNS non-whites) (VBD received) (CD 1/3) (IN of) (DT a) (NN bag) (-LRB- -LSB-) (NN REF) (-RRB- -RSB-) (. .))
p6405
ssg10
I20
sg36
g4
sg37
(dp6406
sg39
(dp6407
g6227
(lp6408
g5573
ag5583
ag5593
ag5603
ag5613
ag5623
ag5633
ag5643
ag5653
ag5663
ag5673
ag5683
ag5693
ag5703
ag5713
ag5723
ag5733
ag5743
ag5753
ag5763
ag5773
ag5783
ag5793
ag5803
ag5813
ag5823
ag5833
ag5843
ag5853
ag5863
ag5873
ag5883
ag5893
ag5903
ag5913
ag5923
ag5933
ag5943
ag5953
ag5963
ag5973
ag5983
ag5993
ag6003
ag6013
ag6023
ag6033
ag6043
ag6053
ag6063
ag6073
ag6083
ag6093
ag6103
ag6113
ag6123
ag6133
ag6143
ag6153
ag6163
ag6173
ag6183
ag6193
ag6203
assg41
I3140
sg42
g6215
sg43
g6215
sg44
I554
sg45
V \u000a\u000aAt the University of Illinois at Urbana\u2013Champaign, the Graduate and Professional Students of Color student organization responded to a bake sale held by the Students for Individual Liberty[REF] by holding a White Privilege popcorn giveaway where white males received a full bag of popcorn, while women and non-whites received 1/3 of a bag [REF].
p6409
sg47
I618
sg48
I3485
sbassg37
(dp6410
sg39
(dp6411
sg47
I-1
sg6227
g22
sg42
g6212
sg36
Nsg27
(dp6412
sg44
I0
sg45
VAn affirmative action bake sale is a campus protest event used by student groups to illustrate criticism of affirmative action policies, especially as they relate to college and graduate school admissions. According to one bake sale student leader, the goal of the technique is to "bring the issue of affirmative action down to everyday terms." [REF] . \u000a\u000aThe bake sales offer to sell cookies at different prices depending on the customer's race and sex, imitating the racial and sexual preference practices of affirmative action. One idea of such bake sales is to demonstrate analogies between price discrimination and affirmative action. A typical pricing structure charges $1.00 for White males, $.75 for White females, $.50 for Latino, Black, Asian, and Native American males and $.25 for Latino, Black, Asian, and Native American females. The bake sales' hosts do not support this kind of preferential treatment; rather, they argue that this preferential pricing is analogous to the preferential treatment created by affirmative action policies. \u000a\u000aThese bake sales have been organized at many schools across the U.S., sometimes annually. Affirmative action bake sales have also taken place at the University of Pretoria in South Africa, the latest (in 2008) having been forcibly broken up by campus security [REF].\u000a\u000aThe bake sales have met opposition, drawing crowds of students, sometimes facing opposition or restriction from campus administrations,[REF][REF][REF] often being accused of racism, and sometimes even being attacked [REF]. Additionally, some administrators have been accused of censorship and inappropriately advocating a political position [REF]. The 2007 documentary Indoctrinate U showed how some such censorship is often institutionalized into the university system. \u000a\u000aResponding to an affirmative action bake sale being attacked at the University of Washington, the school's Board of Regents President Jerry Grinstein presented the opinion of many opponents of these events when he described "the statements [..] in putting on a bake sale about affirmative action were tasteless, divisive and hurtful to many members of the university community."[REF] The student leader of a bake sale at UCLA addressed this issue of divisiveness, saying "we wanted to show how affirmative action is racial division, not racial reconciliation."[REF] Similarly, administrators at Bucknell University claimed that the bake sales violated the private university's discrimination policy [REF]. \u000a\u000aOther criticisms of the concept claim that these bake sales do not take into account ingrained social factors that favor whites. An opinion column in the Houston Chronicle after a similar sale took place at Texas A&M University held that "Actions like these reinforce the common misconception that affirmative action policies give academically unqualified minority students a get-into-college-free card, and they ignore historical discrimination that denied nonwhites opportunities to be successful at any price, no matter their talents or intelligence." The editorial also praised school officials for not shutting down the sale [REF]. \u000a\u000aAt the University of Illinois at Urbana\u2013Champaign, the Graduate and Professional Students of Color student organization responded to a bake sale held by the Students for Individual Liberty[REF] by holding a White Privilege popcorn giveaway where white males received a full bag of popcorn, while women and non-whites received 1/3 of a bag [REF].
p6413
sS'sents'
p6414
g6216
sg43
g6212
sg41
I0
sS'id'
p6415
g16
sg48
I3485
sS'sentFeatures'
p6416
(lp6417
sb.