ccopy_reg
_reconstructor
p0
(cpygate.doc
Document
p1
c__builtin__
object
p2
Ntp3
Rp4
(dp5
S'src'
p6
VBoxing had first appeared in China in the 1920s, mainly in the port cities of Shanghai and Guangzhou, where foreign sailors were pitted against local fighters. The sport grew, unsupervised.\u000a\u000aIn 1953, at a big competition in the northern city of Tianjin, a boxer died after a bout. Sports authorities were unnerved, and in 1959, as China organized its first National Games, it dropped boxing from the lineup. Mao Zedong was driving the country further into isolation. Fan Hong, a scholar who specializes in China's athletic history, commented, "People believed that boxing was very brutal, very ruthless, and those were said to be the characteristics of capitalism. So it was banned." .\u000a\u000aWhen the Cultural Revolution occurred in China, in 1966, the Communist Party banned competitive sports. After the Cultural Revolution subsided, in 1969, China used Ping Pong matches to reconnect with the world. It was not until the late 1970s that Deng Xiaoping decided that competition might be as good for athletics as it was for the economy. In December 1979, Deng invited Muhammad Ali to the compound housing China's top leaders. The champion boxer hugged Deng. They sat and talked. Later, the word went out and Deng sent the message out that "If we want to win friends, if we want to win respect, we have to win medals".\u000a\u000aIn the 1980s, Chinese boxers began training again, after a fashion. Athletes had no bags or gloves. Sandbags were traditionally used instead. Liu Gang was one of the earliest recruits and is now China's biggest promoter.China first competed in boxing at the 1992 Summer Olympics, in Barcelona, where competitors were delighted to face off against Chinese opponents as China had been weak in that sport. The best that their coaches hoped for was that each fighter might stay on his feet a bit longer than the one before him.\u000a\u000aIt was until the 2004 Summer Olympics in Athens that Zou Shiming claimed China's first boxing medal. He eventually made it into the semifinals and won a bronze. This achievement was greeted with rapturous applause and Chinese reporters nicknamed him the Dark Horse at first because of his underdog status. Later, they tried the Knight of Lightning or the Fox or, sometimes, the Pirate, all celebrating his knack for snatching points and peeling away from his opponents' reach. That strategy was helping him win international matches. In Athens, Zou made it to the semifinals, eventually winning a bronze, China\u2019s first in boxing. It was another year before Zou won his first gold medal, at the 2005 World Amateur Boxing Championships, held in the western Chinese city of Mianyang. He was the nation's first amateur boxing champion, and China celebrated. \u000a\u000aChina's boxing performance improved dramatically at the 2008 Summer Olympics in Beijing. Zou Shiming won the gold medal in the Light Flyweight (-48 kg) event,[REF] and Zhang Xiaoping won the gold medal in the Light Heavyweight (81 kg) event [REF].
p7
sS'string'
p8
S'Boxing had first appeared in China in the 1920s, mainly in the port cities of Shanghai and Guangzhou, where foreign sailors were pitted against local fighters. The sport grew, unsupervised.\n\nIn 1953, at a big competition in the northern city of Tianjin, a boxer died after a bout. Sports authorities were unnerved, and in 1959, as China organized its first National Games, it dropped boxing from the lineup. Mao Zedong was driving the country further into isolation. Fan Hong, a scholar who specializes in China\'s athletic history, commented, "People believed that boxing was very brutal, very ruthless, and those were said to be the characteristics of capitalism. So it was banned." .\n\nWhen the Cultural Revolution occurred in China, in 1966, the Communist Party banned competitive sports. After the Cultural Revolution subsided, in 1969, China used Ping Pong matches to reconnect with the world. It was not until the late 1970s that Deng Xiaoping decided that competition might be as good for athletics as it was for the economy. In December 1979, Deng invited Muhammad Ali to the compound housing China\'s top leaders. The champion boxer hugged Deng. They sat and talked. Later, the word went out and Deng sent the message out that "If we want to win friends, if we want to win respect, we have to win medals".\n\nIn the 1980s, Chinese boxers began training again, after a fashion. Athletes had no bags or gloves. Sandbags were traditionally used instead. Liu Gang was one of the earliest recruits and is now China\'s biggest promoter.China first competed in boxing at the 1992 Summer Olympics, in Barcelona, where competitors were delighted to face off against Chinese opponents as China had been weak in that sport. The best that their coaches hoped for was that each fighter might stay on his feet a bit longer than the one before him.\n\nIt was until the 2004 Summer Olympics in Athens that Zou Shiming claimed China\'s first boxing medal. He eventually made it into the semifinals and won a bronze. This achievement was greeted with rapturous applause and Chinese reporters nicknamed him the Dark Horse at first because of his underdog status. Later, they tried the Knight of Lightning or the Fox or, sometimes, the Pirate, all celebrating his knack for snatching points and peeling away from his opponents\' reach. That strategy was helping him win international matches. In Athens, Zou made it to the semifinals, eventually winning a bronze, China\xe2\x80\x99s first in boxing. It was another year before Zou won his first gold medal, at the 2005 World Amateur Boxing Championships, held in the western Chinese city of Mianyang. He was the nation\'s first amateur boxing champion, and China celebrated. \n\nChina\'s boxing performance improved dramatically at the 2008 Summer Olympics in Beijing. Zou Shiming won the gold medal in the Light Flyweight (-48 kg) event,[REF] and Zhang Xiaoping won the gold medal in the Light Heavyweight (81 kg) event [REF].'
p9
sS'idx'
p10
I0
sS'tknFeatures'
p11
(lp12
sS'docFeatures'
p13
(dp14
S'file_id'
p15
S'Boxing_in_China'
p16
ssS'items'
p17
(dp18
S'raw'
p19
VBoxing had first appeared in China in the 1920s, mainly in the port cities of Shanghai and Guangzhou, where foreign sailors were pitted against local fighters. The sport grew, unsupervised.\u000a\u000aIn 1953, at a big competition in the northern city of Tianjin, a boxer died after a bout. Sports authorities were unnerved, and in 1959, as China organized its first National Games, it dropped boxing from the lineup. Mao Zedong was driving the country further into isolation. Fan Hong, a scholar who specializes in China's athletic history, commented, "People believed that boxing was very brutal, very ruthless, and those were said to be the characteristics of capitalism. So it was banned." .\u000a\u000aWhen the Cultural Revolution occurred in China, in 1966, the Communist Party banned competitive sports. After the Cultural Revolution subsided, in 1969, China used Ping Pong matches to reconnect with the world. It was not until the late 1970s that Deng Xiaoping decided that competition might be as good for athletics as it was for the economy. In December 1979, Deng invited Muhammad Ali to the compound housing China's top leaders. The champion boxer hugged Deng. They sat and talked. Later, the word went out and Deng sent the message out that "If we want to win friends, if we want to win respect, we have to win medals".\u000a\u000aIn the 1980s, Chinese boxers began training again, after a fashion. Athletes had no bags or gloves. Sandbags were traditionally used instead. Liu Gang was one of the earliest recruits and is now China's biggest promoter.China first competed in boxing at the 1992 Summer Olympics, in Barcelona, where competitors were delighted to face off against Chinese opponents as China had been weak in that sport. The best that their coaches hoped for was that each fighter might stay on his feet a bit longer than the one before him.\u000a\u000aIt was until the 2004 Summer Olympics in Athens that Zou Shiming claimed China's first boxing medal. He eventually made it into the semifinals and won a bronze. This achievement was greeted with rapturous applause and Chinese reporters nicknamed him the Dark Horse at first because of his underdog status. Later, they tried the Knight of Lightning or the Fox or, sometimes, the Pirate, all celebrating his knack for snatching points and peeling away from his opponents' reach. That strategy was helping him win international matches. In Athens, Zou made it to the semifinals, eventually winning a bronze, China\u2019s first in boxing. It was another year before Zou won his first gold medal, at the 2005 World Amateur Boxing Championships, held in the western Chinese city of Mianyang. He was the nation's first amateur boxing champion, and China celebrated. \u000a\u000aChina's boxing performance improved dramatically at the 2008 Summer Olympics in Beijing. Zou Shiming won the gold medal in the Light Flyweight (-48 kg) event,[REF] and Zhang Xiaoping won the gold medal in the Light Heavyweight (81 kg) event [REF].
p20
sS'Token'
p21
(lp22
g0
(cpygate.annotation
Annotation
p23
g2
Ntp24
Rp25
(dp26
S'features'
p27
(dp28
S'lemma'
p29
VBoxing
p30
sS'ner'
p31
VO
p32
sS'pos'
p33
VNNP
p34
sS'index'
p35
I1
ssg10
I0
sS'doc'
p36
g4
sS'labels'
p37
(dp38
sS'relations'
p39
(dp40
sS'cStart'
p41
I0
sS'subType'
p42
g21
sS'annoType'
p43
g21
sS'tStart'
p44
I0
sS'text'
p45
VBoxing
p46
sS'tEnd'
p47
I0
sS'cEnd'
p48
I6
sbag0
(g23
g2
Ntp49
Rp50
(dp51
g27
(dp52
g29
Vhave
p53
sg31
VO
p54
sg33
VVBD
p55
sg35
I2
ssg10
I1
sg36
g4
sg37
(dp56
sg39
(dp57
sg41
I7
sg42
g21
sg43
g21
sg44
I1
sg45
Vhad
p58
sg47
I1
sg48
I10
sbag0
(g23
g2
Ntp59
Rp60
(dp61
g27
(dp62
g29
Vfirst
p63
sg31
VORDINAL
p64
sg33
VJJ
p65
sg35
I3
ssg10
I2
sg36
g4
sg37
(dp66
sg39
(dp67
sg41
I11
sg42
g21
sg43
g21
sg44
I2
sg45
Vfirst
p68
sg47
I2
sg48
I16
sbag0
(g23
g2
Ntp69
Rp70
(dp71
g27
(dp72
g29
Vappear
p73
sg31
VO
p74
sg33
VVBD
p75
sg35
I4
ssg10
I3
sg36
g4
sg37
(dp76
sg39
(dp77
sg41
I17
sg42
g21
sg43
g21
sg44
I3
sg45
Vappeared
p78
sg47
I3
sg48
I25
sbag0
(g23
g2
Ntp79
Rp80
(dp81
g27
(dp82
g29
Vin
p83
sg31
VO
p84
sg33
VIN
p85
sg35
I5
ssg10
I4
sg36
g4
sg37
(dp86
sg39
(dp87
sg41
I26
sg42
g21
sg43
g21
sg44
I4
sg45
Vin
p88
sg47
I4
sg48
I28
sbag0
(g23
g2
Ntp89
Rp90
(dp91
g27
(dp92
g29
VChina
p93
sg31
VLOCATION
p94
sg33
VNNP
p95
sg35
I6
ssg10
I5
sg36
g4
sg37
(dp96
sg39
(dp97
sg41
I29
sg42
g21
sg43
g21
sg44
I5
sg45
VChina
p98
sg47
I5
sg48
I34
sbag0
(g23
g2
Ntp99
Rp100
(dp101
g27
(dp102
g29
Vin
p103
sg31
VO
p104
sg33
VIN
p105
sg35
I7
ssg10
I6
sg36
g4
sg37
(dp106
sg39
(dp107
sg41
I31
sg42
g21
sg43
g21
sg44
I6
sg45
Vin
p108
sg47
I6
sg48
I33
sbag0
(g23
g2
Ntp109
Rp110
(dp111
g27
(dp112
g29
Vthe
p113
sg31
VDATE
p114
sg33
VDT
p115
sg35
I8
ssg10
I7
sg36
g4
sg37
(dp116
sg39
(dp117
sg41
I38
sg42
g21
sg43
g21
sg44
I7
sg45
Vthe
p118
sg47
I7
sg48
I41
sbag0
(g23
g2
Ntp119
Rp120
(dp121
g27
(dp122
g29
V1920s
p123
sg31
VDATE
p124
sg33
VCD
p125
sg35
I9
ssg10
I8
sg36
g4
sg37
(dp126
sg39
(dp127
sg41
I42
sg42
g21
sg43
g21
sg44
I8
sg45
V1920s
p128
sg47
I8
sg48
I47
sbag0
(g23
g2
Ntp129
Rp130
(dp131
g27
(dp132
g29
V,
p133
sg31
VO
p134
sg33
V,
p135
sg35
I10
ssg10
I9
sg36
g4
sg37
(dp136
sg39
(dp137
sg41
I47
sg42
g21
sg43
g21
sg44
I9
sg45
V,
p138
sg47
I9
sg48
I48
sbag0
(g23
g2
Ntp139
Rp140
(dp141
g27
(dp142
g29
Vmainly
p143
sg31
VO
p144
sg33
VRB
p145
sg35
I11
ssg10
I10
sg36
g4
sg37
(dp146
sg39
(dp147
sg41
I49
sg42
g21
sg43
g21
sg44
I10
sg45
Vmainly
p148
sg47
I10
sg48
I55
sbag0
(g23
g2
Ntp149
Rp150
(dp151
g27
(dp152
g29
Vin
p153
sg31
VO
p154
sg33
VIN
p155
sg35
I12
ssg10
I11
sg36
g4
sg37
(dp156
sg39
(dp157
sg41
I51
sg42
g21
sg43
g21
sg44
I11
sg45
Vin
p158
sg47
I11
sg48
I53
sbag0
(g23
g2
Ntp159
Rp160
(dp161
g27
(dp162
g29
Vthe
p163
sg31
VO
p164
sg33
VDT
p165
sg35
I13
ssg10
I12
sg36
g4
sg37
(dp166
sg39
(dp167
sg41
I59
sg42
g21
sg43
g21
sg44
I12
sg45
Vthe
p168
sg47
I12
sg48
I62
sbag0
(g23
g2
Ntp169
Rp170
(dp171
g27
(dp172
g29
Vport
p173
sg31
VO
p174
sg33
VNN
p175
sg35
I14
ssg10
I13
sg36
g4
sg37
(dp176
sg39
(dp177
sg41
I63
sg42
g21
sg43
g21
sg44
I13
sg45
Vport
p178
sg47
I13
sg48
I67
sbag0
(g23
g2
Ntp179
Rp180
(dp181
g27
(dp182
g29
Vcity
p183
sg31
VO
p184
sg33
VNNS
p185
sg35
I15
ssg10
I14
sg36
g4
sg37
(dp186
sg39
(dp187
sg41
I68
sg42
g21
sg43
g21
sg44
I14
sg45
Vcities
p188
sg47
I14
sg48
I74
sbag0
(g23
g2
Ntp189
Rp190
(dp191
g27
(dp192
g29
Vof
p193
sg31
VO
p194
sg33
VIN
p195
sg35
I16
ssg10
I15
sg36
g4
sg37
(dp196
sg39
(dp197
sg41
I75
sg42
g21
sg43
g21
sg44
I15
sg45
Vof
p198
sg47
I15
sg48
I77
sbag0
(g23
g2
Ntp199
Rp200
(dp201
g27
(dp202
g29
VShanghai
p203
sg31
VLOCATION
p204
sg33
VNNP
p205
sg35
I17
ssg10
I16
sg36
g4
sg37
(dp206
sg39
(dp207
sg41
I78
sg42
g21
sg43
g21
sg44
I16
sg45
VShanghai
p208
sg47
I16
sg48
I86
sbag0
(g23
g2
Ntp209
Rp210
(dp211
g27
(dp212
g29
Vand
p213
sg31
VO
p214
sg33
VCC
p215
sg35
I18
ssg10
I17
sg36
g4
sg37
(dp216
sg39
(dp217
sg41
I87
sg42
g21
sg43
g21
sg44
I17
sg45
Vand
p218
sg47
I17
sg48
I90
sbag0
(g23
g2
Ntp219
Rp220
(dp221
g27
(dp222
g29
VGuangzhou
p223
sg31
VLOCATION
p224
sg33
VNNP
p225
sg35
I19
ssg10
I18
sg36
g4
sg37
(dp226
sg39
(dp227
sg41
I91
sg42
g21
sg43
g21
sg44
I18
sg45
VGuangzhou
p228
sg47
I18
sg48
I100
sbag0
(g23
g2
Ntp229
Rp230
(dp231
g27
(dp232
g29
V,
p233
sg31
VO
p234
sg33
V,
p235
sg35
I20
ssg10
I19
sg36
g4
sg37
(dp236
sg39
(dp237
sg41
I100
sg42
g21
sg43
g21
sg44
I19
sg45
V,
p238
sg47
I19
sg48
I101
sbag0
(g23
g2
Ntp239
Rp240
(dp241
g27
(dp242
g29
Vwhere
p243
sg31
VO
p244
sg33
VWRB
p245
sg35
I21
ssg10
I20
sg36
g4
sg37
(dp246
sg39
(dp247
sg41
I102
sg42
g21
sg43
g21
sg44
I20
sg45
Vwhere
p248
sg47
I20
sg48
I107
sbag0
(g23
g2
Ntp249
Rp250
(dp251
g27
(dp252
g29
Vforeign
p253
sg31
VO
p254
sg33
VJJ
p255
sg35
I22
ssg10
I21
sg36
g4
sg37
(dp256
sg39
(dp257
sg41
I108
sg42
g21
sg43
g21
sg44
I21
sg45
Vforeign
p258
sg47
I21
sg48
I115
sbag0
(g23
g2
Ntp259
Rp260
(dp261
g27
(dp262
g29
Vsailor
p263
sg31
VO
p264
sg33
VNNS
p265
sg35
I23
ssg10
I22
sg36
g4
sg37
(dp266
sg39
(dp267
sg41
I116
sg42
g21
sg43
g21
sg44
I22
sg45
Vsailors
p268
sg47
I22
sg48
I123
sbag0
(g23
g2
Ntp269
Rp270
(dp271
g27
(dp272
g29
Vbe
p273
sg31
VO
p274
sg33
VVBD
p275
sg35
I24
ssg10
I23
sg36
g4
sg37
(dp276
sg39
(dp277
sg41
I124
sg42
g21
sg43
g21
sg44
I23
sg45
Vwere
p278
sg47
I23
sg48
I128
sbag0
(g23
g2
Ntp279
Rp280
(dp281
g27
(dp282
g29
Vpit
p283
sg31
VO
p284
sg33
VVBN
p285
sg35
I25
ssg10
I24
sg36
g4
sg37
(dp286
sg39
(dp287
sg41
I129
sg42
g21
sg43
g21
sg44
I24
sg45
Vpitted
p288
sg47
I24
sg48
I135
sbag0
(g23
g2
Ntp289
Rp290
(dp291
g27
(dp292
g29
Vagainst
p293
sg31
VO
p294
sg33
VIN
p295
sg35
I26
ssg10
I25
sg36
g4
sg37
(dp296
sg39
(dp297
sg41
I136
sg42
g21
sg43
g21
sg44
I25
sg45
Vagainst
p298
sg47
I25
sg48
I143
sbag0
(g23
g2
Ntp299
Rp300
(dp301
g27
(dp302
g29
Vlocal
p303
sg31
VO
p304
sg33
VJJ
p305
sg35
I27
ssg10
I26
sg36
g4
sg37
(dp306
sg39
(dp307
sg41
I144
sg42
g21
sg43
g21
sg44
I26
sg45
Vlocal
p308
sg47
I26
sg48
I149
sbag0
(g23
g2
Ntp309
Rp310
(dp311
g27
(dp312
g29
Vfighter
p313
sg31
VO
p314
sg33
VNNS
p315
sg35
I28
ssg10
I27
sg36
g4
sg37
(dp316
sg39
(dp317
sg41
I150
sg42
g21
sg43
g21
sg44
I27
sg45
Vfighters
p318
sg47
I27
sg48
I158
sbag0
(g23
g2
Ntp319
Rp320
(dp321
g27
(dp322
g29
V.
p323
sg31
VO
p324
sg33
V.
p325
sg35
I29
ssg10
I28
sg36
g4
sg37
(dp326
sg39
(dp327
sg41
I158
sg42
g21
sg43
g21
sg44
I28
sg45
V.
p328
sg47
I28
sg48
I159
sbag0
(g23
g2
Ntp329
Rp330
(dp331
g27
(dp332
g29
Vthe
p333
sg31
VO
p334
sg33
VDT
p335
sg35
I1
ssg10
I29
sg36
g4
sg37
(dp336
sg39
(dp337
sg41
I160
sg42
g21
sg43
g21
sg44
I29
sg45
VThe
p338
sg47
I29
sg48
I163
sbag0
(g23
g2
Ntp339
Rp340
(dp341
g27
(dp342
g29
Vsport
p343
sg31
VO
p344
sg33
VNN
p345
sg35
I2
ssg10
I30
sg36
g4
sg37
(dp346
sg39
(dp347
sg41
I164
sg42
g21
sg43
g21
sg44
I30
sg45
Vsport
p348
sg47
I30
sg48
I169
sbag0
(g23
g2
Ntp349
Rp350
(dp351
g27
(dp352
g29
Vgrow
p353
sg31
VO
p354
sg33
VVBD
p355
sg35
I3
ssg10
I31
sg36
g4
sg37
(dp356
sg39
(dp357
sg41
I170
sg42
g21
sg43
g21
sg44
I31
sg45
Vgrew
p358
sg47
I31
sg48
I174
sbag0
(g23
g2
Ntp359
Rp360
(dp361
g27
(dp362
g29
V,
p363
sg31
VO
p364
sg33
V,
p365
sg35
I4
ssg10
I32
sg36
g4
sg37
(dp366
sg39
(dp367
sg41
I174
sg42
g21
sg43
g21
sg44
I32
sg45
V,
p368
sg47
I32
sg48
I175
sbag0
(g23
g2
Ntp369
Rp370
(dp371
g27
(dp372
g29
Vunsupervised
p373
sg31
VO
p374
sg33
VJJ
p375
sg35
I5
ssg10
I33
sg36
g4
sg37
(dp376
sg39
(dp377
sg41
I176
sg42
g21
sg43
g21
sg44
I33
sg45
Vunsupervised
p378
sg47
I33
sg48
I188
sbag0
(g23
g2
Ntp379
Rp380
(dp381
g27
(dp382
g29
V.
p383
sg31
VO
p384
sg33
V.
p385
sg35
I6
ssg10
I34
sg36
g4
sg37
(dp386
sg39
(dp387
sg41
I188
sg42
g21
sg43
g21
sg44
I34
sg45
V.
p388
sg47
I34
sg48
I189
sbag0
(g23
g2
Ntp389
Rp390
(dp391
g27
(dp392
g29
Vin
p393
sg31
VO
p394
sg33
VIN
p395
sg35
I1
ssg10
I35
sg36
g4
sg37
(dp396
sg39
(dp397
sg41
I191
sg42
g21
sg43
g21
sg44
I35
sg45
VIn
p398
sg47
I35
sg48
I193
sbag0
(g23
g2
Ntp399
Rp400
(dp401
g27
(dp402
g29
V1953
p403
sg31
VDATE
p404
sg33
VCD
p405
sg35
I2
ssg10
I36
sg36
g4
sg37
(dp406
sg39
(dp407
sg41
I194
sg42
g21
sg43
g21
sg44
I36
sg45
V1953
p408
sg47
I36
sg48
I198
sbag0
(g23
g2
Ntp409
Rp410
(dp411
g27
(dp412
g29
V,
p413
sg31
VO
p414
sg33
V,
p415
sg35
I3
ssg10
I37
sg36
g4
sg37
(dp416
sg39
(dp417
sg41
I198
sg42
g21
sg43
g21
sg44
I37
sg45
V,
p418
sg47
I37
sg48
I199
sbag0
(g23
g2
Ntp419
Rp420
(dp421
g27
(dp422
g29
Vat
p423
sg31
VO
p424
sg33
VIN
p425
sg35
I4
ssg10
I38
sg36
g4
sg37
(dp426
sg39
(dp427
sg41
I200
sg42
g21
sg43
g21
sg44
I38
sg45
Vat
p428
sg47
I38
sg48
I202
sbag0
(g23
g2
Ntp429
Rp430
(dp431
g27
(dp432
g29
Va
p433
sg31
VO
p434
sg33
VDT
p435
sg35
I5
ssg10
I39
sg36
g4
sg37
(dp436
sg39
(dp437
sg41
I200
sg42
g21
sg43
g21
sg44
I39
sg45
Va
p438
sg47
I39
sg48
I201
sbag0
(g23
g2
Ntp439
Rp440
(dp441
g27
(dp442
g29
Vbig
p443
sg31
VO
p444
sg33
VJJ
p445
sg35
I6
ssg10
I40
sg36
g4
sg37
(dp446
sg39
(dp447
sg41
I205
sg42
g21
sg43
g21
sg44
I40
sg45
Vbig
p448
sg47
I40
sg48
I208
sbag0
(g23
g2
Ntp449
Rp450
(dp451
g27
(dp452
g29
Vcompetition
p453
sg31
VO
p454
sg33
VNN
p455
sg35
I7
ssg10
I41
sg36
g4
sg37
(dp456
sg39
(dp457
sg41
I209
sg42
g21
sg43
g21
sg44
I41
sg45
Vcompetition
p458
sg47
I41
sg48
I220
sbag0
(g23
g2
Ntp459
Rp460
(dp461
g27
(dp462
g29
Vin
p463
sg31
VO
p464
sg33
VIN
p465
sg35
I8
ssg10
I42
sg36
g4
sg37
(dp466
sg39
(dp467
sg41
I221
sg42
g21
sg43
g21
sg44
I42
sg45
Vin
p468
sg47
I42
sg48
I223
sbag0
(g23
g2
Ntp469
Rp470
(dp471
g27
(dp472
g29
Vthe
p473
sg31
VO
p474
sg33
VDT
p475
sg35
I9
ssg10
I43
sg36
g4
sg37
(dp476
sg39
(dp477
sg41
I224
sg42
g21
sg43
g21
sg44
I43
sg45
Vthe
p478
sg47
I43
sg48
I227
sbag0
(g23
g2
Ntp479
Rp480
(dp481
g27
(dp482
g29
Vnorthern
p483
sg31
VO
p484
sg33
VJJ
p485
sg35
I10
ssg10
I44
sg36
g4
sg37
(dp486
sg39
(dp487
sg41
I228
sg42
g21
sg43
g21
sg44
I44
sg45
Vnorthern
p488
sg47
I44
sg48
I236
sbag0
(g23
g2
Ntp489
Rp490
(dp491
g27
(dp492
g29
Vcity
p493
sg31
VO
p494
sg33
VNN
p495
sg35
I11
ssg10
I45
sg36
g4
sg37
(dp496
sg39
(dp497
sg41
I237
sg42
g21
sg43
g21
sg44
I45
sg45
Vcity
p498
sg47
I45
sg48
I241
sbag0
(g23
g2
Ntp499
Rp500
(dp501
g27
(dp502
g29
Vof
p503
sg31
VO
p504
sg33
VIN
p505
sg35
I12
ssg10
I46
sg36
g4
sg37
(dp506
sg39
(dp507
sg41
I242
sg42
g21
sg43
g21
sg44
I46
sg45
Vof
p508
sg47
I46
sg48
I244
sbag0
(g23
g2
Ntp509
Rp510
(dp511
g27
(dp512
g29
VTianjin
p513
sg31
VLOCATION
p514
sg33
VNNP
p515
sg35
I13
ssg10
I47
sg36
g4
sg37
(dp516
sg39
(dp517
sg41
I245
sg42
g21
sg43
g21
sg44
I47
sg45
VTianjin
p518
sg47
I47
sg48
I252
sbag0
(g23
g2
Ntp519
Rp520
(dp521
g27
(dp522
g29
V,
p523
sg31
VO
p524
sg33
V,
p525
sg35
I14
ssg10
I48
sg36
g4
sg37
(dp526
sg39
(dp527
sg41
I252
sg42
g21
sg43
g21
sg44
I48
sg45
V,
p528
sg47
I48
sg48
I253
sbag0
(g23
g2
Ntp529
Rp530
(dp531
g27
(dp532
g29
Va
p533
sg31
VO
p534
sg33
VDT
p535
sg35
I15
ssg10
I49
sg36
g4
sg37
(dp536
sg39
(dp537
sg41
I254
sg42
g21
sg43
g21
sg44
I49
sg45
Va
p538
sg47
I49
sg48
I255
sbag0
(g23
g2
Ntp539
Rp540
(dp541
g27
(dp542
g29
Vboxer
p543
sg31
VO
p544
sg33
VNN
p545
sg35
I16
ssg10
I50
sg36
g4
sg37
(dp546
sg39
(dp547
sg41
I256
sg42
g21
sg43
g21
sg44
I50
sg45
Vboxer
p548
sg47
I50
sg48
I261
sbag0
(g23
g2
Ntp549
Rp550
(dp551
g27
(dp552
g29
Vdie
p553
sg31
VO
p554
sg33
VVBD
p555
sg35
I17
ssg10
I51
sg36
g4
sg37
(dp556
sg39
(dp557
sg41
I262
sg42
g21
sg43
g21
sg44
I51
sg45
Vdied
p558
sg47
I51
sg48
I266
sbag0
(g23
g2
Ntp559
Rp560
(dp561
g27
(dp562
g29
Vafter
p563
sg31
VO
p564
sg33
VIN
p565
sg35
I18
ssg10
I52
sg36
g4
sg37
(dp566
sg39
(dp567
sg41
I267
sg42
g21
sg43
g21
sg44
I52
sg45
Vafter
p568
sg47
I52
sg48
I272
sbag0
(g23
g2
Ntp569
Rp570
(dp571
g27
(dp572
g29
Va
p573
sg31
VO
p574
sg33
VDT
p575
sg35
I19
ssg10
I53
sg36
g4
sg37
(dp576
sg39
(dp577
sg41
I267
sg42
g21
sg43
g21
sg44
I53
sg45
Va
p578
sg47
I53
sg48
I268
sbag0
(g23
g2
Ntp579
Rp580
(dp581
g27
(dp582
g29
Vbout
p583
sg31
VO
p584
sg33
VNN
p585
sg35
I20
ssg10
I54
sg36
g4
sg37
(dp586
sg39
(dp587
sg41
I275
sg42
g21
sg43
g21
sg44
I54
sg45
Vbout
p588
sg47
I54
sg48
I279
sbag0
(g23
g2
Ntp589
Rp590
(dp591
g27
(dp592
g29
V.
p593
sg31
VO
p594
sg33
V.
p595
sg35
I21
ssg10
I55
sg36
g4
sg37
(dp596
sg39
(dp597
sg41
I279
sg42
g21
sg43
g21
sg44
I55
sg45
V.
p598
sg47
I55
sg48
I280
sbag0
(g23
g2
Ntp599
Rp600
(dp601
g27
(dp602
g29
VSports
p603
sg31
VO
p604
sg33
VNNP
p605
sg35
I1
ssg10
I56
sg36
g4
sg37
(dp606
sg39
(dp607
sg41
I281
sg42
g21
sg43
g21
sg44
I56
sg45
VSports
p608
sg47
I56
sg48
I287
sbag0
(g23
g2
Ntp609
Rp610
(dp611
g27
(dp612
g29
Vauthority
p613
sg31
VO
p614
sg33
VNNS
p615
sg35
I2
ssg10
I57
sg36
g4
sg37
(dp616
sg39
(dp617
sg41
I288
sg42
g21
sg43
g21
sg44
I57
sg45
Vauthorities
p618
sg47
I57
sg48
I299
sbag0
(g23
g2
Ntp619
Rp620
(dp621
g27
(dp622
g29
Vbe
p623
sg31
VO
p624
sg33
VVBD
p625
sg35
I3
ssg10
I58
sg36
g4
sg37
(dp626
sg39
(dp627
sg41
I300
sg42
g21
sg43
g21
sg44
I58
sg45
Vwere
p628
sg47
I58
sg48
I304
sbag0
(g23
g2
Ntp629
Rp630
(dp631
g27
(dp632
g29
Vunnerved
p633
sg31
VO
p634
sg33
VJJ
p635
sg35
I4
ssg10
I59
sg36
g4
sg37
(dp636
sg39
(dp637
sg41
I305
sg42
g21
sg43
g21
sg44
I59
sg45
Vunnerved
p638
sg47
I59
sg48
I313
sbag0
(g23
g2
Ntp639
Rp640
(dp641
g27
(dp642
g29
V,
p643
sg31
VO
p644
sg33
V,
p645
sg35
I5
ssg10
I60
sg36
g4
sg37
(dp646
sg39
(dp647
sg41
I313
sg42
g21
sg43
g21
sg44
I60
sg45
V,
p648
sg47
I60
sg48
I314
sbag0
(g23
g2
Ntp649
Rp650
(dp651
g27
(dp652
g29
Vand
p653
sg31
VO
p654
sg33
VCC
p655
sg35
I6
ssg10
I61
sg36
g4
sg37
(dp656
sg39
(dp657
sg41
I315
sg42
g21
sg43
g21
sg44
I61
sg45
Vand
p658
sg47
I61
sg48
I318
sbag0
(g23
g2
Ntp659
Rp660
(dp661
g27
(dp662
g29
Vin
p663
sg31
VO
p664
sg33
VIN
p665
sg35
I7
ssg10
I62
sg36
g4
sg37
(dp666
sg39
(dp667
sg41
I319
sg42
g21
sg43
g21
sg44
I62
sg45
Vin
p668
sg47
I62
sg48
I321
sbag0
(g23
g2
Ntp669
Rp670
(dp671
g27
(dp672
g29
V1959
p673
sg31
VDATE
p674
sg33
VCD
p675
sg35
I8
ssg10
I63
sg36
g4
sg37
(dp676
sg39
(dp677
sg41
I322
sg42
g21
sg43
g21
sg44
I63
sg45
V1959
p678
sg47
I63
sg48
I326
sbag0
(g23
g2
Ntp679
Rp680
(dp681
g27
(dp682
g29
V,
p683
sg31
VO
p684
sg33
V,
p685
sg35
I9
ssg10
I64
sg36
g4
sg37
(dp686
sg39
(dp687
sg41
I326
sg42
g21
sg43
g21
sg44
I64
sg45
V,
p688
sg47
I64
sg48
I327
sbag0
(g23
g2
Ntp689
Rp690
(dp691
g27
(dp692
g29
Vas
p693
sg31
VO
p694
sg33
VIN
p695
sg35
I10
ssg10
I65
sg36
g4
sg37
(dp696
sg39
(dp697
sg41
I328
sg42
g21
sg43
g21
sg44
I65
sg45
Vas
p698
sg47
I65
sg48
I330
sbag0
(g23
g2
Ntp699
Rp700
(dp701
g27
(dp702
g29
VChina
p703
sg31
VLOCATION
p704
sg33
VNNP
p705
sg35
I11
ssg10
I66
sg36
g4
sg37
(dp706
sg39
(dp707
sg41
I331
sg42
g21
sg43
g21
sg44
I66
sg45
VChina
p708
sg47
I66
sg48
I336
sbag0
(g23
g2
Ntp709
Rp710
(dp711
g27
(dp712
g29
Vorganize
p713
sg31
VO
p714
sg33
VVBD
p715
sg35
I12
ssg10
I67
sg36
g4
sg37
(dp716
sg39
(dp717
sg41
I337
sg42
g21
sg43
g21
sg44
I67
sg45
Vorganized
p718
sg47
I67
sg48
I346
sbag0
(g23
g2
Ntp719
Rp720
(dp721
g27
(dp722
g29
Vits
p723
sg31
VO
p724
sg33
VPRP$
p725
sg35
I13
ssg10
I68
sg36
g4
sg37
(dp726
sg39
(dp727
sg41
I347
sg42
g21
sg43
g21
sg44
I68
sg45
Vits
p728
sg47
I68
sg48
I350
sbag0
(g23
g2
Ntp729
Rp730
(dp731
g27
(dp732
g29
Vfirst
p733
sg31
VORDINAL
p734
sg33
VJJ
p735
sg35
I14
ssg10
I69
sg36
g4
sg37
(dp736
sg39
(dp737
sg41
I351
sg42
g21
sg43
g21
sg44
I69
sg45
Vfirst
p738
sg47
I69
sg48
I356
sbag0
(g23
g2
Ntp739
Rp740
(dp741
g27
(dp742
g29
VNational
p743
sg31
VO
p744
sg33
VNNP
p745
sg35
I15
ssg10
I70
sg36
g4
sg37
(dp746
sg39
(dp747
sg41
I357
sg42
g21
sg43
g21
sg44
I70
sg45
VNational
p748
sg47
I70
sg48
I365
sbag0
(g23
g2
Ntp749
Rp750
(dp751
g27
(dp752
g29
VGames
p753
sg31
VO
p754
sg33
VNNPS
p755
sg35
I16
ssg10
I71
sg36
g4
sg37
(dp756
sg39
(dp757
sg41
I366
sg42
g21
sg43
g21
sg44
I71
sg45
VGames
p758
sg47
I71
sg48
I371
sbag0
(g23
g2
Ntp759
Rp760
(dp761
g27
(dp762
g29
V,
p763
sg31
VO
p764
sg33
V,
p765
sg35
I17
ssg10
I72
sg36
g4
sg37
(dp766
sg39
(dp767
sg41
I371
sg42
g21
sg43
g21
sg44
I72
sg45
V,
p768
sg47
I72
sg48
I372
sbag0
(g23
g2
Ntp769
Rp770
(dp771
g27
(dp772
g29
Vit
p773
sg31
VO
p774
sg33
VPRP
p775
sg35
I18
ssg10
I73
sg36
g4
sg37
(dp776
sg39
(dp777
sg41
I373
sg42
g21
sg43
g21
sg44
I73
sg45
Vit
p778
sg47
I73
sg48
I375
sbag0
(g23
g2
Ntp779
Rp780
(dp781
g27
(dp782
g29
Vdrop
p783
sg31
VO
p784
sg33
VVBD
p785
sg35
I19
ssg10
I74
sg36
g4
sg37
(dp786
sg39
(dp787
sg41
I376
sg42
g21
sg43
g21
sg44
I74
sg45
Vdropped
p788
sg47
I74
sg48
I383
sbag0
(g23
g2
Ntp789
Rp790
(dp791
g27
(dp792
g29
Vboxing
p793
sg31
VO
p794
sg33
VNN
p795
sg35
I20
ssg10
I75
sg36
g4
sg37
(dp796
sg39
(dp797
sg41
I384
sg42
g21
sg43
g21
sg44
I75
sg45
Vboxing
p798
sg47
I75
sg48
I390
sbag0
(g23
g2
Ntp799
Rp800
(dp801
g27
(dp802
g29
Vfrom
p803
sg31
VO
p804
sg33
VIN
p805
sg35
I21
ssg10
I76
sg36
g4
sg37
(dp806
sg39
(dp807
sg41
I391
sg42
g21
sg43
g21
sg44
I76
sg45
Vfrom
p808
sg47
I76
sg48
I395
sbag0
(g23
g2
Ntp809
Rp810
(dp811
g27
(dp812
g29
Vthe
p813
sg31
VO
p814
sg33
VDT
p815
sg35
I22
ssg10
I77
sg36
g4
sg37
(dp816
sg39
(dp817
sg41
I396
sg42
g21
sg43
g21
sg44
I77
sg45
Vthe
p818
sg47
I77
sg48
I399
sbag0
(g23
g2
Ntp819
Rp820
(dp821
g27
(dp822
g29
Vlineup
p823
sg31
VO
p824
sg33
VNN
p825
sg35
I23
ssg10
I78
sg36
g4
sg37
(dp826
sg39
(dp827
sg41
I400
sg42
g21
sg43
g21
sg44
I78
sg45
Vlineup
p828
sg47
I78
sg48
I406
sbag0
(g23
g2
Ntp829
Rp830
(dp831
g27
(dp832
g29
V.
p833
sg31
VO
p834
sg33
V.
p835
sg35
I24
ssg10
I79
sg36
g4
sg37
(dp836
sg39
(dp837
sg41
I406
sg42
g21
sg43
g21
sg44
I79
sg45
V.
p838
sg47
I79
sg48
I407
sbag0
(g23
g2
Ntp839
Rp840
(dp841
g27
(dp842
g29
VMao
p843
sg31
VPERSON
p844
sg33
VNNP
p845
sg35
I1
ssg10
I80
sg36
g4
sg37
(dp846
sg39
(dp847
sg41
I408
sg42
g21
sg43
g21
sg44
I80
sg45
VMao
p848
sg47
I80
sg48
I411
sbag0
(g23
g2
Ntp849
Rp850
(dp851
g27
(dp852
g29
VZedong
p853
sg31
VPERSON
p854
sg33
VNNP
p855
sg35
I2
ssg10
I81
sg36
g4
sg37
(dp856
sg39
(dp857
sg41
I412
sg42
g21
sg43
g21
sg44
I81
sg45
VZedong
p858
sg47
I81
sg48
I418
sbag0
(g23
g2
Ntp859
Rp860
(dp861
g27
(dp862
g29
Vbe
p863
sg31
VO
p864
sg33
VVBD
p865
sg35
I3
ssg10
I82
sg36
g4
sg37
(dp866
sg39
(dp867
sg41
I419
sg42
g21
sg43
g21
sg44
I82
sg45
Vwas
p868
sg47
I82
sg48
I422
sbag0
(g23
g2
Ntp869
Rp870
(dp871
g27
(dp872
g29
Vdrive
p873
sg31
VO
p874
sg33
VVBG
p875
sg35
I4
ssg10
I83
sg36
g4
sg37
(dp876
sg39
(dp877
sg41
I423
sg42
g21
sg43
g21
sg44
I83
sg45
Vdriving
p878
sg47
I83
sg48
I430
sbag0
(g23
g2
Ntp879
Rp880
(dp881
g27
(dp882
g29
Vthe
p883
sg31
VO
p884
sg33
VDT
p885
sg35
I5
ssg10
I84
sg36
g4
sg37
(dp886
sg39
(dp887
sg41
I431
sg42
g21
sg43
g21
sg44
I84
sg45
Vthe
p888
sg47
I84
sg48
I434
sbag0
(g23
g2
Ntp889
Rp890
(dp891
g27
(dp892
g29
Vcountry
p893
sg31
VO
p894
sg33
VNN
p895
sg35
I6
ssg10
I85
sg36
g4
sg37
(dp896
sg39
(dp897
sg41
I435
sg42
g21
sg43
g21
sg44
I85
sg45
Vcountry
p898
sg47
I85
sg48
I442
sbag0
(g23
g2
Ntp899
Rp900
(dp901
g27
(dp902
g29
Vfurther
p903
sg31
VO
p904
sg33
VRBR
p905
sg35
I7
ssg10
I86
sg36
g4
sg37
(dp906
sg39
(dp907
sg41
I443
sg42
g21
sg43
g21
sg44
I86
sg45
Vfurther
p908
sg47
I86
sg48
I450
sbag0
(g23
g2
Ntp909
Rp910
(dp911
g27
(dp912
g29
Vinto
p913
sg31
VO
p914
sg33
VIN
p915
sg35
I8
ssg10
I87
sg36
g4
sg37
(dp916
sg39
(dp917
sg41
I451
sg42
g21
sg43
g21
sg44
I87
sg45
Vinto
p918
sg47
I87
sg48
I455
sbag0
(g23
g2
Ntp919
Rp920
(dp921
g27
(dp922
g29
Visolation
p923
sg31
VO
p924
sg33
VNN
p925
sg35
I9
ssg10
I88
sg36
g4
sg37
(dp926
sg39
(dp927
sg41
I456
sg42
g21
sg43
g21
sg44
I88
sg45
Visolation
p928
sg47
I88
sg48
I465
sbag0
(g23
g2
Ntp929
Rp930
(dp931
g27
(dp932
g29
V.
p933
sg31
VO
p934
sg33
V.
p935
sg35
I10
ssg10
I89
sg36
g4
sg37
(dp936
sg39
(dp937
sg41
I465
sg42
g21
sg43
g21
sg44
I89
sg45
V.
p938
sg47
I89
sg48
I466
sbag0
(g23
g2
Ntp939
Rp940
(dp941
g27
(dp942
g29
Vfan
p943
sg31
VPERSON
p944
sg33
VNN
p945
sg35
I1
ssg10
I90
sg36
g4
sg37
(dp946
sg39
(dp947
sg41
I467
sg42
g21
sg43
g21
sg44
I90
sg45
VFan
p948
sg47
I90
sg48
I470
sbag0
(g23
g2
Ntp949
Rp950
(dp951
g27
(dp952
g29
VHong
p953
sg31
VPERSON
p954
sg33
VNNP
p955
sg35
I2
ssg10
I91
sg36
g4
sg37
(dp956
sg39
(dp957
sg41
I471
sg42
g21
sg43
g21
sg44
I91
sg45
VHong
p958
sg47
I91
sg48
I475
sbag0
(g23
g2
Ntp959
Rp960
(dp961
g27
(dp962
g29
V,
p963
sg31
VO
p964
sg33
V,
p965
sg35
I3
ssg10
I92
sg36
g4
sg37
(dp966
sg39
(dp967
sg41
I475
sg42
g21
sg43
g21
sg44
I92
sg45
V,
p968
sg47
I92
sg48
I476
sbag0
(g23
g2
Ntp969
Rp970
(dp971
g27
(dp972
g29
Va
p973
sg31
VO
p974
sg33
VDT
p975
sg35
I4
ssg10
I93
sg36
g4
sg37
(dp976
sg39
(dp977
sg41
I477
sg42
g21
sg43
g21
sg44
I93
sg45
Va
p978
sg47
I93
sg48
I478
sbag0
(g23
g2
Ntp979
Rp980
(dp981
g27
(dp982
g29
Vscholar
p983
sg31
VO
p984
sg33
VNN
p985
sg35
I5
ssg10
I94
sg36
g4
sg37
(dp986
sg39
(dp987
sg41
I479
sg42
g21
sg43
g21
sg44
I94
sg45
Vscholar
p988
sg47
I94
sg48
I486
sbag0
(g23
g2
Ntp989
Rp990
(dp991
g27
(dp992
g29
Vwho
p993
sg31
VO
p994
sg33
VWP
p995
sg35
I6
ssg10
I95
sg36
g4
sg37
(dp996
sg39
(dp997
sg41
I487
sg42
g21
sg43
g21
sg44
I95
sg45
Vwho
p998
sg47
I95
sg48
I490
sbag0
(g23
g2
Ntp999
Rp1000
(dp1001
g27
(dp1002
g29
Vspecialize
p1003
sg31
VO
p1004
sg33
VVBZ
p1005
sg35
I7
ssg10
I96
sg36
g4
sg37
(dp1006
sg39
(dp1007
sg41
I491
sg42
g21
sg43
g21
sg44
I96
sg45
Vspecializes
p1008
sg47
I96
sg48
I502
sbag0
(g23
g2
Ntp1009
Rp1010
(dp1011
g27
(dp1012
g29
Vin
p1013
sg31
VO
p1014
sg33
VIN
p1015
sg35
I8
ssg10
I97
sg36
g4
sg37
(dp1016
sg39
(dp1017
sg41
I503
sg42
g21
sg43
g21
sg44
I97
sg45
Vin
p1018
sg47
I97
sg48
I505
sbag0
(g23
g2
Ntp1019
Rp1020
(dp1021
g27
(dp1022
g29
VChina
p1023
sg31
VLOCATION
p1024
sg33
VNNP
p1025
sg35
I9
ssg10
I98
sg36
g4
sg37
(dp1026
sg39
(dp1027
sg41
I506
sg42
g21
sg43
g21
sg44
I98
sg45
VChina
p1028
sg47
I98
sg48
I511
sbag0
(g23
g2
Ntp1029
Rp1030
(dp1031
g27
(dp1032
g29
V's
p1033
sg31
VO
p1034
sg33
VPOS
p1035
sg35
I10
ssg10
I99
sg36
g4
sg37
(dp1036
sg39
(dp1037
sg41
I511
sg42
g21
sg43
g21
sg44
I99
sg45
V's
p1038
sg47
I99
sg48
I513
sbag0
(g23
g2
Ntp1039
Rp1040
(dp1041
g27
(dp1042
g29
Vathletic
p1043
sg31
VO
p1044
sg33
VJJ
p1045
sg35
I11
ssg10
I100
sg36
g4
sg37
(dp1046
sg39
(dp1047
sg41
I514
sg42
g21
sg43
g21
sg44
I100
sg45
Vathletic
p1048
sg47
I100
sg48
I522
sbag0
(g23
g2
Ntp1049
Rp1050
(dp1051
g27
(dp1052
g29
Vhistory
p1053
sg31
VO
p1054
sg33
VNN
p1055
sg35
I12
ssg10
I101
sg36
g4
sg37
(dp1056
sg39
(dp1057
sg41
I523
sg42
g21
sg43
g21
sg44
I101
sg45
Vhistory
p1058
sg47
I101
sg48
I530
sbag0
(g23
g2
Ntp1059
Rp1060
(dp1061
g27
(dp1062
g29
V,
p1063
sg31
VO
p1064
sg33
V,
p1065
sg35
I13
ssg10
I102
sg36
g4
sg37
(dp1066
sg39
(dp1067
sg41
I530
sg42
g21
sg43
g21
sg44
I102
sg45
V,
p1068
sg47
I102
sg48
I531
sbag0
(g23
g2
Ntp1069
Rp1070
(dp1071
g27
(dp1072
g29
Vcomment
p1073
sg31
VO
p1074
sg33
VVBD
p1075
sg35
I14
ssg10
I103
sg36
g4
sg37
(dp1076
sg39
(dp1077
sg41
I532
sg42
g21
sg43
g21
sg44
I103
sg45
Vcommented
p1078
sg47
I103
sg48
I541
sbag0
(g23
g2
Ntp1079
Rp1080
(dp1081
g27
(dp1082
g29
V,
p1083
sg31
VO
p1084
sg33
V,
p1085
sg35
I15
ssg10
I104
sg36
g4
sg37
(dp1086
sg39
(dp1087
sg41
I541
sg42
g21
sg43
g21
sg44
I104
sg45
V,
p1088
sg47
I104
sg48
I542
sbag0
(g23
g2
Ntp1089
Rp1090
(dp1091
g27
(dp1092
g29
V``
p1093
sg31
VO
p1094
sg33
V``
p1095
sg35
I16
ssg10
I105
sg36
g4
sg37
(dp1096
sg39
(dp1097
sg41
I543
sg42
g21
sg43
g21
sg44
I105
sg45
V"
p1098
sg47
I105
sg48
I544
sbag0
(g23
g2
Ntp1099
Rp1100
(dp1101
g27
(dp1102
g29
Vpeople
p1103
sg31
VO
p1104
sg33
VNNS
p1105
sg35
I17
ssg10
I106
sg36
g4
sg37
(dp1106
sg39
(dp1107
sg41
I544
sg42
g21
sg43
g21
sg44
I106
sg45
VPeople
p1108
sg47
I106
sg48
I550
sbag0
(g23
g2
Ntp1109
Rp1110
(dp1111
g27
(dp1112
g29
Vbelieve
p1113
sg31
VO
p1114
sg33
VVBD
p1115
sg35
I18
ssg10
I107
sg36
g4
sg37
(dp1116
sg39
(dp1117
sg41
I551
sg42
g21
sg43
g21
sg44
I107
sg45
Vbelieved
p1118
sg47
I107
sg48
I559
sbag0
(g23
g2
Ntp1119
Rp1120
(dp1121
g27
(dp1122
g29
Vthat
p1123
sg31
VO
p1124
sg33
VIN
p1125
sg35
I19
ssg10
I108
sg36
g4
sg37
(dp1126
sg39
(dp1127
sg41
I560
sg42
g21
sg43
g21
sg44
I108
sg45
Vthat
p1128
sg47
I108
sg48
I564
sbag0
(g23
g2
Ntp1129
Rp1130
(dp1131
g27
(dp1132
g29
Vboxing
p1133
sg31
VO
p1134
sg33
VNN
p1135
sg35
I20
ssg10
I109
sg36
g4
sg37
(dp1136
sg39
(dp1137
sg41
I565
sg42
g21
sg43
g21
sg44
I109
sg45
Vboxing
p1138
sg47
I109
sg48
I571
sbag0
(g23
g2
Ntp1139
Rp1140
(dp1141
g27
(dp1142
g29
Vbe
p1143
sg31
VO
p1144
sg33
VVBD
p1145
sg35
I21
ssg10
I110
sg36
g4
sg37
(dp1146
sg39
(dp1147
sg41
I572
sg42
g21
sg43
g21
sg44
I110
sg45
Vwas
p1148
sg47
I110
sg48
I575
sbag0
(g23
g2
Ntp1149
Rp1150
(dp1151
g27
(dp1152
g29
Vvery
p1153
sg31
VO
p1154
sg33
VRB
p1155
sg35
I22
ssg10
I111
sg36
g4
sg37
(dp1156
sg39
(dp1157
sg41
I576
sg42
g21
sg43
g21
sg44
I111
sg45
Vvery
p1158
sg47
I111
sg48
I580
sbag0
(g23
g2
Ntp1159
Rp1160
(dp1161
g27
(dp1162
g29
Vbrutal
p1163
sg31
VO
p1164
sg33
VJJ
p1165
sg35
I23
ssg10
I112
sg36
g4
sg37
(dp1166
sg39
(dp1167
sg41
I581
sg42
g21
sg43
g21
sg44
I112
sg45
Vbrutal
p1168
sg47
I112
sg48
I587
sbag0
(g23
g2
Ntp1169
Rp1170
(dp1171
g27
(dp1172
g29
V,
p1173
sg31
VO
p1174
sg33
V,
p1175
sg35
I24
ssg10
I113
sg36
g4
sg37
(dp1176
sg39
(dp1177
sg41
I587
sg42
g21
sg43
g21
sg44
I113
sg45
V,
p1178
sg47
I113
sg48
I588
sbag0
(g23
g2
Ntp1179
Rp1180
(dp1181
g27
(dp1182
g29
Vvery
p1183
sg31
VO
p1184
sg33
VRB
p1185
sg35
I25
ssg10
I114
sg36
g4
sg37
(dp1186
sg39
(dp1187
sg41
I589
sg42
g21
sg43
g21
sg44
I114
sg45
Vvery
p1188
sg47
I114
sg48
I593
sbag0
(g23
g2
Ntp1189
Rp1190
(dp1191
g27
(dp1192
g29
Vruthless
p1193
sg31
VO
p1194
sg33
VJJ
p1195
sg35
I26
ssg10
I115
sg36
g4
sg37
(dp1196
sg39
(dp1197
sg41
I594
sg42
g21
sg43
g21
sg44
I115
sg45
Vruthless
p1198
sg47
I115
sg48
I602
sbag0
(g23
g2
Ntp1199
Rp1200
(dp1201
g27
(dp1202
g29
V,
p1203
sg31
VO
p1204
sg33
V,
p1205
sg35
I27
ssg10
I116
sg36
g4
sg37
(dp1206
sg39
(dp1207
sg41
I602
sg42
g21
sg43
g21
sg44
I116
sg45
V,
p1208
sg47
I116
sg48
I603
sbag0
(g23
g2
Ntp1209
Rp1210
(dp1211
g27
(dp1212
g29
Vand
p1213
sg31
VO
p1214
sg33
VCC
p1215
sg35
I28
ssg10
I117
sg36
g4
sg37
(dp1216
sg39
(dp1217
sg41
I604
sg42
g21
sg43
g21
sg44
I117
sg45
Vand
p1218
sg47
I117
sg48
I607
sbag0
(g23
g2
Ntp1219
Rp1220
(dp1221
g27
(dp1222
g29
Vthose
p1223
sg31
VO
p1224
sg33
VDT
p1225
sg35
I29
ssg10
I118
sg36
g4
sg37
(dp1226
sg39
(dp1227
sg41
I608
sg42
g21
sg43
g21
sg44
I118
sg45
Vthose
p1228
sg47
I118
sg48
I613
sbag0
(g23
g2
Ntp1229
Rp1230
(dp1231
g27
(dp1232
g29
Vbe
p1233
sg31
VO
p1234
sg33
VVBD
p1235
sg35
I30
ssg10
I119
sg36
g4
sg37
(dp1236
sg39
(dp1237
sg41
I614
sg42
g21
sg43
g21
sg44
I119
sg45
Vwere
p1238
sg47
I119
sg48
I618
sbag0
(g23
g2
Ntp1239
Rp1240
(dp1241
g27
(dp1242
g29
Vsay
p1243
sg31
VO
p1244
sg33
VVBN
p1245
sg35
I31
ssg10
I120
sg36
g4
sg37
(dp1246
sg39
(dp1247
sg41
I619
sg42
g21
sg43
g21
sg44
I120
sg45
Vsaid
p1248
sg47
I120
sg48
I623
sbag0
(g23
g2
Ntp1249
Rp1250
(dp1251
g27
(dp1252
g29
Vto
p1253
sg31
VO
p1254
sg33
VTO
p1255
sg35
I32
ssg10
I121
sg36
g4
sg37
(dp1256
sg39
(dp1257
sg41
I624
sg42
g21
sg43
g21
sg44
I121
sg45
Vto
p1258
sg47
I121
sg48
I626
sbag0
(g23
g2
Ntp1259
Rp1260
(dp1261
g27
(dp1262
g29
Vbe
p1263
sg31
VO
p1264
sg33
VVB
p1265
sg35
I33
ssg10
I122
sg36
g4
sg37
(dp1266
sg39
(dp1267
sg41
I627
sg42
g21
sg43
g21
sg44
I122
sg45
Vbe
p1268
sg47
I122
sg48
I629
sbag0
(g23
g2
Ntp1269
Rp1270
(dp1271
g27
(dp1272
g29
Vthe
p1273
sg31
VO
p1274
sg33
VDT
p1275
sg35
I34
ssg10
I123
sg36
g4
sg37
(dp1276
sg39
(dp1277
sg41
I630
sg42
g21
sg43
g21
sg44
I123
sg45
Vthe
p1278
sg47
I123
sg48
I633
sbag0
(g23
g2
Ntp1279
Rp1280
(dp1281
g27
(dp1282
g29
Vcharacteristic
p1283
sg31
VO
p1284
sg33
VNNS
p1285
sg35
I35
ssg10
I124
sg36
g4
sg37
(dp1286
sg39
(dp1287
sg41
I634
sg42
g21
sg43
g21
sg44
I124
sg45
Vcharacteristics
p1288
sg47
I124
sg48
I649
sbag0
(g23
g2
Ntp1289
Rp1290
(dp1291
g27
(dp1292
g29
Vof
p1293
sg31
VO
p1294
sg33
VIN
p1295
sg35
I36
ssg10
I125
sg36
g4
sg37
(dp1296
sg39
(dp1297
sg41
I650
sg42
g21
sg43
g21
sg44
I125
sg45
Vof
p1298
sg47
I125
sg48
I652
sbag0
(g23
g2
Ntp1299
Rp1300
(dp1301
g27
(dp1302
g29
Vcapitalism
p1303
sg31
VO
p1304
sg33
VNN
p1305
sg35
I37
ssg10
I126
sg36
g4
sg37
(dp1306
sg39
(dp1307
sg41
I653
sg42
g21
sg43
g21
sg44
I126
sg45
Vcapitalism
p1308
sg47
I126
sg48
I663
sbag0
(g23
g2
Ntp1309
Rp1310
(dp1311
g27
(dp1312
g29
V.
p1313
sg31
VO
p1314
sg33
V.
p1315
sg35
I38
ssg10
I127
sg36
g4
sg37
(dp1316
sg39
(dp1317
sg41
I663
sg42
g21
sg43
g21
sg44
I127
sg45
V.
p1318
sg47
I127
sg48
I664
sbag0
(g23
g2
Ntp1319
Rp1320
(dp1321
g27
(dp1322
g29
Vso
p1323
sg31
VO
p1324
sg33
VIN
p1325
sg35
I1
ssg10
I128
sg36
g4
sg37
(dp1326
sg39
(dp1327
sg41
I665
sg42
g21
sg43
g21
sg44
I128
sg45
VSo
p1328
sg47
I128
sg48
I667
sbag0
(g23
g2
Ntp1329
Rp1330
(dp1331
g27
(dp1332
g29
Vit
p1333
sg31
VO
p1334
sg33
VPRP
p1335
sg35
I2
ssg10
I129
sg36
g4
sg37
(dp1336
sg39
(dp1337
sg41
I668
sg42
g21
sg43
g21
sg44
I129
sg45
Vit
p1338
sg47
I129
sg48
I670
sbag0
(g23
g2
Ntp1339
Rp1340
(dp1341
g27
(dp1342
g29
Vbe
p1343
sg31
VO
p1344
sg33
VVBD
p1345
sg35
I3
ssg10
I130
sg36
g4
sg37
(dp1346
sg39
(dp1347
sg41
I671
sg42
g21
sg43
g21
sg44
I130
sg45
Vwas
p1348
sg47
I130
sg48
I674
sbag0
(g23
g2
Ntp1349
Rp1350
(dp1351
g27
(dp1352
g29
Vban
p1353
sg31
VO
p1354
sg33
VVBN
p1355
sg35
I4
ssg10
I131
sg36
g4
sg37
(dp1356
sg39
(dp1357
sg41
I675
sg42
g21
sg43
g21
sg44
I131
sg45
Vbanned
p1358
sg47
I131
sg48
I681
sbag0
(g23
g2
Ntp1359
Rp1360
(dp1361
g27
(dp1362
g29
V.
p1363
sg31
VO
p1364
sg33
V.
p1365
sg35
I5
ssg10
I132
sg36
g4
sg37
(dp1366
sg39
(dp1367
sg41
I681
sg42
g21
sg43
g21
sg44
I132
sg45
V.
p1368
sg47
I132
sg48
I682
sbag0
(g23
g2
Ntp1369
Rp1370
(dp1371
g27
(dp1372
g29
V''
p1373
sg31
VO
p1374
sg33
V''
p1375
sg35
I6
ssg10
I133
sg36
g4
sg37
(dp1376
sg39
(dp1377
sg41
I682
sg42
g21
sg43
g21
sg44
I133
sg45
g1098
sg47
I133
sg48
I683
sbag0
(g23
g2
Ntp1378
Rp1379
(dp1380
g27
(dp1381
g29
V.
p1382
sg31
VO
p1383
sg33
V.
p1384
sg35
I1
ssg10
I134
sg36
g4
sg37
(dp1385
sg39
(dp1386
sg41
I684
sg42
g21
sg43
g21
sg44
I134
sg45
V.
p1387
sg47
I134
sg48
I685
sbag0
(g23
g2
Ntp1388
Rp1389
(dp1390
g27
(dp1391
g29
Vwhen
p1392
sg31
VO
p1393
sg33
VWRB
p1394
sg35
I1
ssg10
I135
sg36
g4
sg37
(dp1395
sg39
(dp1396
sg41
I687
sg42
g21
sg43
g21
sg44
I135
sg45
VWhen
p1397
sg47
I135
sg48
I691
sbag0
(g23
g2
Ntp1398
Rp1399
(dp1400
g27
(dp1401
g29
Vthe
p1402
sg31
VO
p1403
sg33
VDT
p1404
sg35
I2
ssg10
I136
sg36
g4
sg37
(dp1405
sg39
(dp1406
sg41
I692
sg42
g21
sg43
g21
sg44
I136
sg45
Vthe
p1407
sg47
I136
sg48
I695
sbag0
(g23
g2
Ntp1408
Rp1409
(dp1410
g27
(dp1411
g29
VCultural
p1412
sg31
VMISC
p1413
sg33
VNNP
p1414
sg35
I3
ssg10
I137
sg36
g4
sg37
(dp1415
sg39
(dp1416
sg41
I696
sg42
g21
sg43
g21
sg44
I137
sg45
VCultural
p1417
sg47
I137
sg48
I704
sbag0
(g23
g2
Ntp1418
Rp1419
(dp1420
g27
(dp1421
g29
VRevolution
p1422
sg31
VMISC
p1423
sg33
VNNP
p1424
sg35
I4
ssg10
I138
sg36
g4
sg37
(dp1425
sg39
(dp1426
sg41
I705
sg42
g21
sg43
g21
sg44
I138
sg45
VRevolution
p1427
sg47
I138
sg48
I715
sbag0
(g23
g2
Ntp1428
Rp1429
(dp1430
g27
(dp1431
g29
Voccur
p1432
sg31
VO
p1433
sg33
VVBD
p1434
sg35
I5
ssg10
I139
sg36
g4
sg37
(dp1435
sg39
(dp1436
sg41
I716
sg42
g21
sg43
g21
sg44
I139
sg45
Voccurred
p1437
sg47
I139
sg48
I724
sbag0
(g23
g2
Ntp1438
Rp1439
(dp1440
g27
(dp1441
g29
Vin
p1442
sg31
VO
p1443
sg33
VIN
p1444
sg35
I6
ssg10
I140
sg36
g4
sg37
(dp1445
sg39
(dp1446
sg41
I725
sg42
g21
sg43
g21
sg44
I140
sg45
Vin
p1447
sg47
I140
sg48
I727
sbag0
(g23
g2
Ntp1448
Rp1449
(dp1450
g27
(dp1451
g29
VChina
p1452
sg31
VLOCATION
p1453
sg33
VNNP
p1454
sg35
I7
ssg10
I141
sg36
g4
sg37
(dp1455
sg39
(dp1456
sg41
I728
sg42
g21
sg43
g21
sg44
I141
sg45
VChina
p1457
sg47
I141
sg48
I733
sbag0
(g23
g2
Ntp1458
Rp1459
(dp1460
g27
(dp1461
g29
V,
p1462
sg31
VO
p1463
sg33
V,
p1464
sg35
I8
ssg10
I142
sg36
g4
sg37
(dp1465
sg39
(dp1466
sg41
I733
sg42
g21
sg43
g21
sg44
I142
sg45
V,
p1467
sg47
I142
sg48
I734
sbag0
(g23
g2
Ntp1468
Rp1469
(dp1470
g27
(dp1471
g29
Vin
p1472
sg31
VO
p1473
sg33
VIN
p1474
sg35
I9
ssg10
I143
sg36
g4
sg37
(dp1475
sg39
(dp1476
sg41
I735
sg42
g21
sg43
g21
sg44
I143
sg45
Vin
p1477
sg47
I143
sg48
I737
sbag0
(g23
g2
Ntp1478
Rp1479
(dp1480
g27
(dp1481
g29
V1966
p1482
sg31
VDATE
p1483
sg33
VCD
p1484
sg35
I10
ssg10
I144
sg36
g4
sg37
(dp1485
sg39
(dp1486
sg41
I738
sg42
g21
sg43
g21
sg44
I144
sg45
V1966
p1487
sg47
I144
sg48
I742
sbag0
(g23
g2
Ntp1488
Rp1489
(dp1490
g27
(dp1491
g29
V,
p1492
sg31
VO
p1493
sg33
V,
p1494
sg35
I11
ssg10
I145
sg36
g4
sg37
(dp1495
sg39
(dp1496
sg41
I742
sg42
g21
sg43
g21
sg44
I145
sg45
V,
p1497
sg47
I145
sg48
I743
sbag0
(g23
g2
Ntp1498
Rp1499
(dp1500
g27
(dp1501
g29
Vthe
p1502
sg31
VO
p1503
sg33
VDT
p1504
sg35
I12
ssg10
I146
sg36
g4
sg37
(dp1505
sg39
(dp1506
sg41
I744
sg42
g21
sg43
g21
sg44
I146
sg45
Vthe
p1507
sg47
I146
sg48
I747
sbag0
(g23
g2
Ntp1508
Rp1509
(dp1510
g27
(dp1511
g29
VCommunist
p1512
sg31
VORGANIZATION
p1513
sg33
VNNP
p1514
sg35
I13
ssg10
I147
sg36
g4
sg37
(dp1515
sg39
(dp1516
sg41
I748
sg42
g21
sg43
g21
sg44
I147
sg45
VCommunist
p1517
sg47
I147
sg48
I757
sbag0
(g23
g2
Ntp1518
Rp1519
(dp1520
g27
(dp1521
g29
VParty
p1522
sg31
VORGANIZATION
p1523
sg33
VNNP
p1524
sg35
I14
ssg10
I148
sg36
g4
sg37
(dp1525
sg39
(dp1526
sg41
I758
sg42
g21
sg43
g21
sg44
I148
sg45
VParty
p1527
sg47
I148
sg48
I763
sbag0
(g23
g2
Ntp1528
Rp1529
(dp1530
g27
(dp1531
g29
Vban
p1532
sg31
VO
p1533
sg33
VVBD
p1534
sg35
I15
ssg10
I149
sg36
g4
sg37
(dp1535
sg39
(dp1536
sg41
I764
sg42
g21
sg43
g21
sg44
I149
sg45
Vbanned
p1537
sg47
I149
sg48
I770
sbag0
(g23
g2
Ntp1538
Rp1539
(dp1540
g27
(dp1541
g29
Vcompetitive
p1542
sg31
VO
p1543
sg33
VJJ
p1544
sg35
I16
ssg10
I150
sg36
g4
sg37
(dp1545
sg39
(dp1546
sg41
I771
sg42
g21
sg43
g21
sg44
I150
sg45
Vcompetitive
p1547
sg47
I150
sg48
I782
sbag0
(g23
g2
Ntp1548
Rp1549
(dp1550
g27
(dp1551
g29
Vsport
p1552
sg31
VO
p1553
sg33
VNNS
p1554
sg35
I17
ssg10
I151
sg36
g4
sg37
(dp1555
sg39
(dp1556
sg41
I783
sg42
g21
sg43
g21
sg44
I151
sg45
Vsports
p1557
sg47
I151
sg48
I789
sbag0
(g23
g2
Ntp1558
Rp1559
(dp1560
g27
(dp1561
g29
V.
p1562
sg31
VO
p1563
sg33
V.
p1564
sg35
I18
ssg10
I152
sg36
g4
sg37
(dp1565
sg39
(dp1566
sg41
I789
sg42
g21
sg43
g21
sg44
I152
sg45
V.
p1567
sg47
I152
sg48
I790
sbag0
(g23
g2
Ntp1568
Rp1569
(dp1570
g27
(dp1571
g29
Vafter
p1572
sg31
VO
p1573
sg33
VIN
p1574
sg35
I1
ssg10
I153
sg36
g4
sg37
(dp1575
sg39
(dp1576
sg41
I791
sg42
g21
sg43
g21
sg44
I153
sg45
VAfter
p1577
sg47
I153
sg48
I796
sbag0
(g23
g2
Ntp1578
Rp1579
(dp1580
g27
(dp1581
g29
Vthe
p1582
sg31
VO
p1583
sg33
VDT
p1584
sg35
I2
ssg10
I154
sg36
g4
sg37
(dp1585
sg39
(dp1586
sg41
I797
sg42
g21
sg43
g21
sg44
I154
sg45
Vthe
p1587
sg47
I154
sg48
I800
sbag0
(g23
g2
Ntp1588
Rp1589
(dp1590
g27
(dp1591
g29
VCultural
p1592
sg31
VMISC
p1593
sg33
VNNP
p1594
sg35
I3
ssg10
I155
sg36
g4
sg37
(dp1595
sg39
(dp1596
sg41
I801
sg42
g21
sg43
g21
sg44
I155
sg45
VCultural
p1597
sg47
I155
sg48
I809
sbag0
(g23
g2
Ntp1598
Rp1599
(dp1600
g27
(dp1601
g29
VRevolution
p1602
sg31
VMISC
p1603
sg33
VNNP
p1604
sg35
I4
ssg10
I156
sg36
g4
sg37
(dp1605
sg39
(dp1606
sg41
I810
sg42
g21
sg43
g21
sg44
I156
sg45
VRevolution
p1607
sg47
I156
sg48
I820
sbag0
(g23
g2
Ntp1608
Rp1609
(dp1610
g27
(dp1611
g29
Vsubside
p1612
sg31
VO
p1613
sg33
VVBD
p1614
sg35
I5
ssg10
I157
sg36
g4
sg37
(dp1615
sg39
(dp1616
sg41
I821
sg42
g21
sg43
g21
sg44
I157
sg45
Vsubsided
p1617
sg47
I157
sg48
I829
sbag0
(g23
g2
Ntp1618
Rp1619
(dp1620
g27
(dp1621
g29
V,
p1622
sg31
VO
p1623
sg33
V,
p1624
sg35
I6
ssg10
I158
sg36
g4
sg37
(dp1625
sg39
(dp1626
sg41
I829
sg42
g21
sg43
g21
sg44
I158
sg45
V,
p1627
sg47
I158
sg48
I830
sbag0
(g23
g2
Ntp1628
Rp1629
(dp1630
g27
(dp1631
g29
Vin
p1632
sg31
VO
p1633
sg33
VIN
p1634
sg35
I7
ssg10
I159
sg36
g4
sg37
(dp1635
sg39
(dp1636
sg41
I831
sg42
g21
sg43
g21
sg44
I159
sg45
Vin
p1637
sg47
I159
sg48
I833
sbag0
(g23
g2
Ntp1638
Rp1639
(dp1640
g27
(dp1641
g29
V1969
p1642
sg31
VDATE
p1643
sg33
VCD
p1644
sg35
I8
ssg10
I160
sg36
g4
sg37
(dp1645
sg39
(dp1646
sg41
I834
sg42
g21
sg43
g21
sg44
I160
sg45
V1969
p1647
sg47
I160
sg48
I838
sbag0
(g23
g2
Ntp1648
Rp1649
(dp1650
g27
(dp1651
g29
V,
p1652
sg31
VO
p1653
sg33
V,
p1654
sg35
I9
ssg10
I161
sg36
g4
sg37
(dp1655
sg39
(dp1656
sg41
I838
sg42
g21
sg43
g21
sg44
I161
sg45
V,
p1657
sg47
I161
sg48
I839
sbag0
(g23
g2
Ntp1658
Rp1659
(dp1660
g27
(dp1661
g29
VChina
p1662
sg31
VLOCATION
p1663
sg33
VNNP
p1664
sg35
I10
ssg10
I162
sg36
g4
sg37
(dp1665
sg39
(dp1666
sg41
I840
sg42
g21
sg43
g21
sg44
I162
sg45
VChina
p1667
sg47
I162
sg48
I845
sbag0
(g23
g2
Ntp1668
Rp1669
(dp1670
g27
(dp1671
g29
Vuse
p1672
sg31
VO
p1673
sg33
VVBD
p1674
sg35
I11
ssg10
I163
sg36
g4
sg37
(dp1675
sg39
(dp1676
sg41
I846
sg42
g21
sg43
g21
sg44
I163
sg45
Vused
p1677
sg47
I163
sg48
I850
sbag0
(g23
g2
Ntp1678
Rp1679
(dp1680
g27
(dp1681
g29
Vping
p1682
sg31
VPERSON
p1683
sg33
VVB
p1684
sg35
I12
ssg10
I164
sg36
g4
sg37
(dp1685
sg39
(dp1686
sg41
I851
sg42
g21
sg43
g21
sg44
I164
sg45
VPing
p1687
sg47
I164
sg48
I855
sbag0
(g23
g2
Ntp1688
Rp1689
(dp1690
g27
(dp1691
g29
VPong
p1692
sg31
VPERSON
p1693
sg33
VNNP
p1694
sg35
I13
ssg10
I165
sg36
g4
sg37
(dp1695
sg39
(dp1696
sg41
I856
sg42
g21
sg43
g21
sg44
I165
sg45
VPong
p1697
sg47
I165
sg48
I860
sbag0
(g23
g2
Ntp1698
Rp1699
(dp1700
g27
(dp1701
g29
Vmatch
p1702
sg31
VO
p1703
sg33
VVBZ
p1704
sg35
I14
ssg10
I166
sg36
g4
sg37
(dp1705
sg39
(dp1706
sg41
I861
sg42
g21
sg43
g21
sg44
I166
sg45
Vmatches
p1707
sg47
I166
sg48
I868
sbag0
(g23
g2
Ntp1708
Rp1709
(dp1710
g27
(dp1711
g29
Vto
p1712
sg31
VO
p1713
sg33
VTO
p1714
sg35
I15
ssg10
I167
sg36
g4
sg37
(dp1715
sg39
(dp1716
sg41
I869
sg42
g21
sg43
g21
sg44
I167
sg45
Vto
p1717
sg47
I167
sg48
I871
sbag0
(g23
g2
Ntp1718
Rp1719
(dp1720
g27
(dp1721
g29
Vreconnect
p1722
sg31
VO
p1723
sg33
VVB
p1724
sg35
I16
ssg10
I168
sg36
g4
sg37
(dp1725
sg39
(dp1726
sg41
I872
sg42
g21
sg43
g21
sg44
I168
sg45
Vreconnect
p1727
sg47
I168
sg48
I881
sbag0
(g23
g2
Ntp1728
Rp1729
(dp1730
g27
(dp1731
g29
Vwith
p1732
sg31
VO
p1733
sg33
VIN
p1734
sg35
I17
ssg10
I169
sg36
g4
sg37
(dp1735
sg39
(dp1736
sg41
I882
sg42
g21
sg43
g21
sg44
I169
sg45
Vwith
p1737
sg47
I169
sg48
I886
sbag0
(g23
g2
Ntp1738
Rp1739
(dp1740
g27
(dp1741
g29
Vthe
p1742
sg31
VO
p1743
sg33
VDT
p1744
sg35
I18
ssg10
I170
sg36
g4
sg37
(dp1745
sg39
(dp1746
sg41
I887
sg42
g21
sg43
g21
sg44
I170
sg45
Vthe
p1747
sg47
I170
sg48
I890
sbag0
(g23
g2
Ntp1748
Rp1749
(dp1750
g27
(dp1751
g29
Vworld
p1752
sg31
VO
p1753
sg33
VNN
p1754
sg35
I19
ssg10
I171
sg36
g4
sg37
(dp1755
sg39
(dp1756
sg41
I891
sg42
g21
sg43
g21
sg44
I171
sg45
Vworld
p1757
sg47
I171
sg48
I896
sbag0
(g23
g2
Ntp1758
Rp1759
(dp1760
g27
(dp1761
g29
V.
p1762
sg31
VO
p1763
sg33
V.
p1764
sg35
I20
ssg10
I172
sg36
g4
sg37
(dp1765
sg39
(dp1766
sg41
I896
sg42
g21
sg43
g21
sg44
I172
sg45
V.
p1767
sg47
I172
sg48
I897
sbag0
(g23
g2
Ntp1768
Rp1769
(dp1770
g27
(dp1771
g29
Vit
p1772
sg31
VO
p1773
sg33
VPRP
p1774
sg35
I1
ssg10
I173
sg36
g4
sg37
(dp1775
sg39
(dp1776
sg41
I898
sg42
g21
sg43
g21
sg44
I173
sg45
VIt
p1777
sg47
I173
sg48
I900
sbag0
(g23
g2
Ntp1778
Rp1779
(dp1780
g27
(dp1781
g29
Vbe
p1782
sg31
VO
p1783
sg33
VVBD
p1784
sg35
I2
ssg10
I174
sg36
g4
sg37
(dp1785
sg39
(dp1786
sg41
I901
sg42
g21
sg43
g21
sg44
I174
sg45
Vwas
p1787
sg47
I174
sg48
I904
sbag0
(g23
g2
Ntp1788
Rp1789
(dp1790
g27
(dp1791
g29
Vnot
p1792
sg31
VO
p1793
sg33
VRB
p1794
sg35
I3
ssg10
I175
sg36
g4
sg37
(dp1795
sg39
(dp1796
sg41
I905
sg42
g21
sg43
g21
sg44
I175
sg45
Vnot
p1797
sg47
I175
sg48
I908
sbag0
(g23
g2
Ntp1798
Rp1799
(dp1800
g27
(dp1801
g29
Vuntil
p1802
sg31
VO
p1803
sg33
VIN
p1804
sg35
I4
ssg10
I176
sg36
g4
sg37
(dp1805
sg39
(dp1806
sg41
I909
sg42
g21
sg43
g21
sg44
I176
sg45
Vuntil
p1807
sg47
I176
sg48
I914
sbag0
(g23
g2
Ntp1808
Rp1809
(dp1810
g27
(dp1811
g29
Vthe
p1812
sg31
VO
p1813
sg33
VDT
p1814
sg35
I5
ssg10
I177
sg36
g4
sg37
(dp1815
sg39
(dp1816
sg41
I915
sg42
g21
sg43
g21
sg44
I177
sg45
Vthe
p1817
sg47
I177
sg48
I918
sbag0
(g23
g2
Ntp1818
Rp1819
(dp1820
g27
(dp1821
g29
Vlate
p1822
sg31
VO
p1823
sg33
VJJ
p1824
sg35
I6
ssg10
I178
sg36
g4
sg37
(dp1825
sg39
(dp1826
sg41
I919
sg42
g21
sg43
g21
sg44
I178
sg45
Vlate
p1827
sg47
I178
sg48
I923
sbag0
(g23
g2
Ntp1828
Rp1829
(dp1830
g27
(dp1831
g29
V1970
p1832
sg31
VDATE
p1833
sg33
VNNS
p1834
sg35
I7
ssg10
I179
sg36
g4
sg37
(dp1835
sg39
(dp1836
sg41
I924
sg42
g21
sg43
g21
sg44
I179
sg45
V1970s
p1837
sg47
I179
sg48
I929
sbag0
(g23
g2
Ntp1838
Rp1839
(dp1840
g27
(dp1841
g29
Vthat
p1842
sg31
VO
p1843
sg33
VWDT
p1844
sg35
I8
ssg10
I180
sg36
g4
sg37
(dp1845
sg39
(dp1846
sg41
I930
sg42
g21
sg43
g21
sg44
I180
sg45
Vthat
p1847
sg47
I180
sg48
I934
sbag0
(g23
g2
Ntp1848
Rp1849
(dp1850
g27
(dp1851
g29
VDeng
p1852
sg31
VPERSON
p1853
sg33
VNNP
p1854
sg35
I9
ssg10
I181
sg36
g4
sg37
(dp1855
sg39
(dp1856
sg41
I935
sg42
g21
sg43
g21
sg44
I181
sg45
VDeng
p1857
sg47
I181
sg48
I939
sbag0
(g23
g2
Ntp1858
Rp1859
(dp1860
g27
(dp1861
g29
VXiaoping
p1862
sg31
VPERSON
p1863
sg33
VNNP
p1864
sg35
I10
ssg10
I182
sg36
g4
sg37
(dp1865
sg39
(dp1866
sg41
I940
sg42
g21
sg43
g21
sg44
I182
sg45
VXiaoping
p1867
sg47
I182
sg48
I948
sbag0
(g23
g2
Ntp1868
Rp1869
(dp1870
g27
(dp1871
g29
Vdecide
p1872
sg31
VO
p1873
sg33
VVBD
p1874
sg35
I11
ssg10
I183
sg36
g4
sg37
(dp1875
sg39
(dp1876
sg41
I949
sg42
g21
sg43
g21
sg44
I183
sg45
Vdecided
p1877
sg47
I183
sg48
I956
sbag0
(g23
g2
Ntp1878
Rp1879
(dp1880
g27
(dp1881
g29
Vthat
p1882
sg31
VO
p1883
sg33
VIN
p1884
sg35
I12
ssg10
I184
sg36
g4
sg37
(dp1885
sg39
(dp1886
sg41
I957
sg42
g21
sg43
g21
sg44
I184
sg45
Vthat
p1887
sg47
I184
sg48
I961
sbag0
(g23
g2
Ntp1888
Rp1889
(dp1890
g27
(dp1891
g29
Vcompetition
p1892
sg31
VO
p1893
sg33
VNN
p1894
sg35
I13
ssg10
I185
sg36
g4
sg37
(dp1895
sg39
(dp1896
sg41
I962
sg42
g21
sg43
g21
sg44
I185
sg45
Vcompetition
p1897
sg47
I185
sg48
I973
sbag0
(g23
g2
Ntp1898
Rp1899
(dp1900
g27
(dp1901
g29
Vmight
p1902
sg31
VO
p1903
sg33
VMD
p1904
sg35
I14
ssg10
I186
sg36
g4
sg37
(dp1905
sg39
(dp1906
sg41
I974
sg42
g21
sg43
g21
sg44
I186
sg45
Vmight
p1907
sg47
I186
sg48
I979
sbag0
(g23
g2
Ntp1908
Rp1909
(dp1910
g27
(dp1911
g29
Vbe
p1912
sg31
VO
p1913
sg33
VVB
p1914
sg35
I15
ssg10
I187
sg36
g4
sg37
(dp1915
sg39
(dp1916
sg41
I980
sg42
g21
sg43
g21
sg44
I187
sg45
Vbe
p1917
sg47
I187
sg48
I982
sbag0
(g23
g2
Ntp1918
Rp1919
(dp1920
g27
(dp1921
g29
Vas
p1922
sg31
VO
p1923
sg33
VRB
p1924
sg35
I16
ssg10
I188
sg36
g4
sg37
(dp1925
sg39
(dp1926
sg41
I983
sg42
g21
sg43
g21
sg44
I188
sg45
Vas
p1927
sg47
I188
sg48
I985
sbag0
(g23
g2
Ntp1928
Rp1929
(dp1930
g27
(dp1931
g29
Vgood
p1932
sg31
VO
p1933
sg33
VJJ
p1934
sg35
I17
ssg10
I189
sg36
g4
sg37
(dp1935
sg39
(dp1936
sg41
I986
sg42
g21
sg43
g21
sg44
I189
sg45
Vgood
p1937
sg47
I189
sg48
I990
sbag0
(g23
g2
Ntp1938
Rp1939
(dp1940
g27
(dp1941
g29
Vfor
p1942
sg31
VO
p1943
sg33
VIN
p1944
sg35
I18
ssg10
I190
sg36
g4
sg37
(dp1945
sg39
(dp1946
sg41
I991
sg42
g21
sg43
g21
sg44
I190
sg45
Vfor
p1947
sg47
I190
sg48
I994
sbag0
(g23
g2
Ntp1948
Rp1949
(dp1950
g27
(dp1951
g29
Vathletics
p1952
sg31
VO
p1953
sg33
VNNS
p1954
sg35
I19
ssg10
I191
sg36
g4
sg37
(dp1955
sg39
(dp1956
sg41
I995
sg42
g21
sg43
g21
sg44
I191
sg45
Vathletics
p1957
sg47
I191
sg48
I1004
sbag0
(g23
g2
Ntp1958
Rp1959
(dp1960
g27
(dp1961
g29
Vas
p1962
sg31
VO
p1963
sg33
VIN
p1964
sg35
I20
ssg10
I192
sg36
g4
sg37
(dp1965
sg39
(dp1966
sg41
I1005
sg42
g21
sg43
g21
sg44
I192
sg45
Vas
p1967
sg47
I192
sg48
I1007
sbag0
(g23
g2
Ntp1968
Rp1969
(dp1970
g27
(dp1971
g29
Vit
p1972
sg31
VO
p1973
sg33
VPRP
p1974
sg35
I21
ssg10
I193
sg36
g4
sg37
(dp1975
sg39
(dp1976
sg41
I1008
sg42
g21
sg43
g21
sg44
I193
sg45
Vit
p1977
sg47
I193
sg48
I1010
sbag0
(g23
g2
Ntp1978
Rp1979
(dp1980
g27
(dp1981
g29
Vbe
p1982
sg31
VO
p1983
sg33
VVBD
p1984
sg35
I22
ssg10
I194
sg36
g4
sg37
(dp1985
sg39
(dp1986
sg41
I1011
sg42
g21
sg43
g21
sg44
I194
sg45
Vwas
p1987
sg47
I194
sg48
I1014
sbag0
(g23
g2
Ntp1988
Rp1989
(dp1990
g27
(dp1991
g29
Vfor
p1992
sg31
VO
p1993
sg33
VIN
p1994
sg35
I23
ssg10
I195
sg36
g4
sg37
(dp1995
sg39
(dp1996
sg41
I1015
sg42
g21
sg43
g21
sg44
I195
sg45
Vfor
p1997
sg47
I195
sg48
I1018
sbag0
(g23
g2
Ntp1998
Rp1999
(dp2000
g27
(dp2001
g29
Vthe
p2002
sg31
VO
p2003
sg33
VDT
p2004
sg35
I24
ssg10
I196
sg36
g4
sg37
(dp2005
sg39
(dp2006
sg41
I1019
sg42
g21
sg43
g21
sg44
I196
sg45
Vthe
p2007
sg47
I196
sg48
I1022
sbag0
(g23
g2
Ntp2008
Rp2009
(dp2010
g27
(dp2011
g29
Veconomy
p2012
sg31
VO
p2013
sg33
VNN
p2014
sg35
I25
ssg10
I197
sg36
g4
sg37
(dp2015
sg39
(dp2016
sg41
I1023
sg42
g21
sg43
g21
sg44
I197
sg45
Veconomy
p2017
sg47
I197
sg48
I1030
sbag0
(g23
g2
Ntp2018
Rp2019
(dp2020
g27
(dp2021
g29
V.
p2022
sg31
VO
p2023
sg33
V.
p2024
sg35
I26
ssg10
I198
sg36
g4
sg37
(dp2025
sg39
(dp2026
sg41
I1030
sg42
g21
sg43
g21
sg44
I198
sg45
V.
p2027
sg47
I198
sg48
I1031
sbag0
(g23
g2
Ntp2028
Rp2029
(dp2030
g27
(dp2031
g29
Vin
p2032
sg31
VO
p2033
sg33
VIN
p2034
sg35
I1
ssg10
I199
sg36
g4
sg37
(dp2035
sg39
(dp2036
sg41
I1032
sg42
g21
sg43
g21
sg44
I199
sg45
VIn
p2037
sg47
I199
sg48
I1034
sbag0
(g23
g2
Ntp2038
Rp2039
(dp2040
g27
(dp2041
g29
VDecember
p2042
sg31
VDATE
p2043
sg33
VNNP
p2044
sg35
I2
ssg10
I200
sg36
g4
sg37
(dp2045
sg39
(dp2046
sg41
I1035
sg42
g21
sg43
g21
sg44
I200
sg45
VDecember
p2047
sg47
I200
sg48
I1043
sbag0
(g23
g2
Ntp2048
Rp2049
(dp2050
g27
(dp2051
g29
V1979
p2052
sg31
VDATE
p2053
sg33
VCD
p2054
sg35
I3
ssg10
I201
sg36
g4
sg37
(dp2055
sg39
(dp2056
sg41
I1044
sg42
g21
sg43
g21
sg44
I201
sg45
V1979
p2057
sg47
I201
sg48
I1048
sbag0
(g23
g2
Ntp2058
Rp2059
(dp2060
g27
(dp2061
g29
V,
p2062
sg31
VO
p2063
sg33
V,
p2064
sg35
I4
ssg10
I202
sg36
g4
sg37
(dp2065
sg39
(dp2066
sg41
I1048
sg42
g21
sg43
g21
sg44
I202
sg45
V,
p2067
sg47
I202
sg48
I1049
sbag0
(g23
g2
Ntp2068
Rp2069
(dp2070
g27
(dp2071
g29
VDeng
p2072
sg31
VPERSON
p2073
sg33
VNNP
p2074
sg35
I5
ssg10
I203
sg36
g4
sg37
(dp2075
sg39
(dp2076
sg41
I1050
sg42
g21
sg43
g21
sg44
I203
sg45
VDeng
p2077
sg47
I203
sg48
I1054
sbag0
(g23
g2
Ntp2078
Rp2079
(dp2080
g27
(dp2081
g29
Vinvite
p2082
sg31
VO
p2083
sg33
VVBD
p2084
sg35
I6
ssg10
I204
sg36
g4
sg37
(dp2085
sg39
(dp2086
sg41
I1055
sg42
g21
sg43
g21
sg44
I204
sg45
Vinvited
p2087
sg47
I204
sg48
I1062
sbag0
(g23
g2
Ntp2088
Rp2089
(dp2090
g27
(dp2091
g29
VMuhammad
p2092
sg31
VPERSON
p2093
sg33
VNNP
p2094
sg35
I7
ssg10
I205
sg36
g4
sg37
(dp2095
sg39
(dp2096
sg41
I1063
sg42
g21
sg43
g21
sg44
I205
sg45
VMuhammad
p2097
sg47
I205
sg48
I1071
sbag0
(g23
g2
Ntp2098
Rp2099
(dp2100
g27
(dp2101
g29
VAli
p2102
sg31
VPERSON
p2103
sg33
VNNP
p2104
sg35
I8
ssg10
I206
sg36
g4
sg37
(dp2105
sg39
(dp2106
sg41
I1072
sg42
g21
sg43
g21
sg44
I206
sg45
VAli
p2107
sg47
I206
sg48
I1075
sbag0
(g23
g2
Ntp2108
Rp2109
(dp2110
g27
(dp2111
g29
Vto
p2112
sg31
VO
p2113
sg33
VTO
p2114
sg35
I9
ssg10
I207
sg36
g4
sg37
(dp2115
sg39
(dp2116
sg41
I1076
sg42
g21
sg43
g21
sg44
I207
sg45
Vto
p2117
sg47
I207
sg48
I1078
sbag0
(g23
g2
Ntp2118
Rp2119
(dp2120
g27
(dp2121
g29
Vthe
p2122
sg31
VO
p2123
sg33
VDT
p2124
sg35
I10
ssg10
I208
sg36
g4
sg37
(dp2125
sg39
(dp2126
sg41
I1079
sg42
g21
sg43
g21
sg44
I208
sg45
Vthe
p2127
sg47
I208
sg48
I1082
sbag0
(g23
g2
Ntp2128
Rp2129
(dp2130
g27
(dp2131
g29
Vcompound
p2132
sg31
VO
p2133
sg33
VNN
p2134
sg35
I11
ssg10
I209
sg36
g4
sg37
(dp2135
sg39
(dp2136
sg41
I1083
sg42
g21
sg43
g21
sg44
I209
sg45
Vcompound
p2137
sg47
I209
sg48
I1091
sbag0
(g23
g2
Ntp2138
Rp2139
(dp2140
g27
(dp2141
g29
Vhousing
p2142
sg31
VO
p2143
sg33
VNN
p2144
sg35
I12
ssg10
I210
sg36
g4
sg37
(dp2145
sg39
(dp2146
sg41
I1092
sg42
g21
sg43
g21
sg44
I210
sg45
Vhousing
p2147
sg47
I210
sg48
I1099
sbag0
(g23
g2
Ntp2148
Rp2149
(dp2150
g27
(dp2151
g29
VChina
p2152
sg31
VLOCATION
p2153
sg33
VNNP
p2154
sg35
I13
ssg10
I211
sg36
g4
sg37
(dp2155
sg39
(dp2156
sg41
I1100
sg42
g21
sg43
g21
sg44
I211
sg45
VChina
p2157
sg47
I211
sg48
I1105
sbag0
(g23
g2
Ntp2158
Rp2159
(dp2160
g27
(dp2161
g29
V's
p2162
sg31
VO
p2163
sg33
VPOS
p2164
sg35
I14
ssg10
I212
sg36
g4
sg37
(dp2165
sg39
(dp2166
sg41
I1105
sg42
g21
sg43
g21
sg44
I212
sg45
V's
p2167
sg47
I212
sg48
I1107
sbag0
(g23
g2
Ntp2168
Rp2169
(dp2170
g27
(dp2171
g29
Vtop
p2172
sg31
VO
p2173
sg33
VJJ
p2174
sg35
I15
ssg10
I213
sg36
g4
sg37
(dp2175
sg39
(dp2176
sg41
I1108
sg42
g21
sg43
g21
sg44
I213
sg45
Vtop
p2177
sg47
I213
sg48
I1111
sbag0
(g23
g2
Ntp2178
Rp2179
(dp2180
g27
(dp2181
g29
Vleader
p2182
sg31
VO
p2183
sg33
VNNS
p2184
sg35
I16
ssg10
I214
sg36
g4
sg37
(dp2185
sg39
(dp2186
sg41
I1112
sg42
g21
sg43
g21
sg44
I214
sg45
Vleaders
p2187
sg47
I214
sg48
I1119
sbag0
(g23
g2
Ntp2188
Rp2189
(dp2190
g27
(dp2191
g29
V.
p2192
sg31
VO
p2193
sg33
V.
p2194
sg35
I17
ssg10
I215
sg36
g4
sg37
(dp2195
sg39
(dp2196
sg41
I1119
sg42
g21
sg43
g21
sg44
I215
sg45
V.
p2197
sg47
I215
sg48
I1120
sbag0
(g23
g2
Ntp2198
Rp2199
(dp2200
g27
(dp2201
g29
Vthe
p2202
sg31
VO
p2203
sg33
VDT
p2204
sg35
I1
ssg10
I216
sg36
g4
sg37
(dp2205
sg39
(dp2206
sg41
I1121
sg42
g21
sg43
g21
sg44
I216
sg45
VThe
p2207
sg47
I216
sg48
I1124
sbag0
(g23
g2
Ntp2208
Rp2209
(dp2210
g27
(dp2211
g29
Vchampion
p2212
sg31
VO
p2213
sg33
VNN
p2214
sg35
I2
ssg10
I217
sg36
g4
sg37
(dp2215
sg39
(dp2216
sg41
I1125
sg42
g21
sg43
g21
sg44
I217
sg45
Vchampion
p2217
sg47
I217
sg48
I1133
sbag0
(g23
g2
Ntp2218
Rp2219
(dp2220
g27
(dp2221
g29
Vboxer
p2222
sg31
VO
p2223
sg33
VNN
p2224
sg35
I3
ssg10
I218
sg36
g4
sg37
(dp2225
sg39
(dp2226
sg41
I1134
sg42
g21
sg43
g21
sg44
I218
sg45
Vboxer
p2227
sg47
I218
sg48
I1139
sbag0
(g23
g2
Ntp2228
Rp2229
(dp2230
g27
(dp2231
g29
Vhug
p2232
sg31
VO
p2233
sg33
VVBD
p2234
sg35
I4
ssg10
I219
sg36
g4
sg37
(dp2235
sg39
(dp2236
sg41
I1140
sg42
g21
sg43
g21
sg44
I219
sg45
Vhugged
p2237
sg47
I219
sg48
I1146
sbag0
(g23
g2
Ntp2238
Rp2239
(dp2240
g27
(dp2241
g29
VDeng
p2242
sg31
VPERSON
p2243
sg33
VNNP
p2244
sg35
I5
ssg10
I220
sg36
g4
sg37
(dp2245
sg39
(dp2246
sg41
I1147
sg42
g21
sg43
g21
sg44
I220
sg45
VDeng
p2247
sg47
I220
sg48
I1151
sbag0
(g23
g2
Ntp2248
Rp2249
(dp2250
g27
(dp2251
g29
V.
p2252
sg31
VO
p2253
sg33
V.
p2254
sg35
I6
ssg10
I221
sg36
g4
sg37
(dp2255
sg39
(dp2256
sg41
I1151
sg42
g21
sg43
g21
sg44
I221
sg45
V.
p2257
sg47
I221
sg48
I1152
sbag0
(g23
g2
Ntp2258
Rp2259
(dp2260
g27
(dp2261
g29
Vthey
p2262
sg31
VO
p2263
sg33
VPRP
p2264
sg35
I1
ssg10
I222
sg36
g4
sg37
(dp2265
sg39
(dp2266
sg41
I1153
sg42
g21
sg43
g21
sg44
I222
sg45
VThey
p2267
sg47
I222
sg48
I1157
sbag0
(g23
g2
Ntp2268
Rp2269
(dp2270
g27
(dp2271
g29
Vsit
p2272
sg31
VO
p2273
sg33
VVBD
p2274
sg35
I2
ssg10
I223
sg36
g4
sg37
(dp2275
sg39
(dp2276
sg41
I1158
sg42
g21
sg43
g21
sg44
I223
sg45
Vsat
p2277
sg47
I223
sg48
I1161
sbag0
(g23
g2
Ntp2278
Rp2279
(dp2280
g27
(dp2281
g29
Vand
p2282
sg31
VO
p2283
sg33
VCC
p2284
sg35
I3
ssg10
I224
sg36
g4
sg37
(dp2285
sg39
(dp2286
sg41
I1162
sg42
g21
sg43
g21
sg44
I224
sg45
Vand
p2287
sg47
I224
sg48
I1165
sbag0
(g23
g2
Ntp2288
Rp2289
(dp2290
g27
(dp2291
g29
Vtalk
p2292
sg31
VO
p2293
sg33
VVBD
p2294
sg35
I4
ssg10
I225
sg36
g4
sg37
(dp2295
sg39
(dp2296
sg41
I1166
sg42
g21
sg43
g21
sg44
I225
sg45
Vtalked
p2297
sg47
I225
sg48
I1172
sbag0
(g23
g2
Ntp2298
Rp2299
(dp2300
g27
(dp2301
g29
V.
p2302
sg31
VO
p2303
sg33
V.
p2304
sg35
I5
ssg10
I226
sg36
g4
sg37
(dp2305
sg39
(dp2306
sg41
I1172
sg42
g21
sg43
g21
sg44
I226
sg45
V.
p2307
sg47
I226
sg48
I1173
sbag0
(g23
g2
Ntp2308
Rp2309
(dp2310
g27
(dp2311
g29
Vlater
p2312
sg31
VO
p2313
sg33
VRB
p2314
sg35
I1
ssg10
I227
sg36
g4
sg37
(dp2315
sg39
(dp2316
sg41
I1174
sg42
g21
sg43
g21
sg44
I227
sg45
VLater
p2317
sg47
I227
sg48
I1179
sbag0
(g23
g2
Ntp2318
Rp2319
(dp2320
g27
(dp2321
g29
V,
p2322
sg31
VO
p2323
sg33
V,
p2324
sg35
I2
ssg10
I228
sg36
g4
sg37
(dp2325
sg39
(dp2326
sg41
I1179
sg42
g21
sg43
g21
sg44
I228
sg45
V,
p2327
sg47
I228
sg48
I1180
sbag0
(g23
g2
Ntp2328
Rp2329
(dp2330
g27
(dp2331
g29
Vthe
p2332
sg31
VO
p2333
sg33
VDT
p2334
sg35
I3
ssg10
I229
sg36
g4
sg37
(dp2335
sg39
(dp2336
sg41
I1181
sg42
g21
sg43
g21
sg44
I229
sg45
Vthe
p2337
sg47
I229
sg48
I1184
sbag0
(g23
g2
Ntp2338
Rp2339
(dp2340
g27
(dp2341
g29
Vword
p2342
sg31
VO
p2343
sg33
VNN
p2344
sg35
I4
ssg10
I230
sg36
g4
sg37
(dp2345
sg39
(dp2346
sg41
I1185
sg42
g21
sg43
g21
sg44
I230
sg45
Vword
p2347
sg47
I230
sg48
I1189
sbag0
(g23
g2
Ntp2348
Rp2349
(dp2350
g27
(dp2351
g29
Vgo
p2352
sg31
VO
p2353
sg33
VVBD
p2354
sg35
I5
ssg10
I231
sg36
g4
sg37
(dp2355
sg39
(dp2356
sg41
I1190
sg42
g21
sg43
g21
sg44
I231
sg45
Vwent
p2357
sg47
I231
sg48
I1194
sbag0
(g23
g2
Ntp2358
Rp2359
(dp2360
g27
(dp2361
g29
Vout
p2362
sg31
VO
p2363
sg33
VRB
p2364
sg35
I6
ssg10
I232
sg36
g4
sg37
(dp2365
sg39
(dp2366
sg41
I1195
sg42
g21
sg43
g21
sg44
I232
sg45
Vout
p2367
sg47
I232
sg48
I1198
sbag0
(g23
g2
Ntp2368
Rp2369
(dp2370
g27
(dp2371
g29
Vand
p2372
sg31
VO
p2373
sg33
VCC
p2374
sg35
I7
ssg10
I233
sg36
g4
sg37
(dp2375
sg39
(dp2376
sg41
I1199
sg42
g21
sg43
g21
sg44
I233
sg45
Vand
p2377
sg47
I233
sg48
I1202
sbag0
(g23
g2
Ntp2378
Rp2379
(dp2380
g27
(dp2381
g29
VDeng
p2382
sg31
VPERSON
p2383
sg33
VNNP
p2384
sg35
I8
ssg10
I234
sg36
g4
sg37
(dp2385
sg39
(dp2386
sg41
I1203
sg42
g21
sg43
g21
sg44
I234
sg45
VDeng
p2387
sg47
I234
sg48
I1207
sbag0
(g23
g2
Ntp2388
Rp2389
(dp2390
g27
(dp2391
g29
Vsend
p2392
sg31
VO
p2393
sg33
VVBD
p2394
sg35
I9
ssg10
I235
sg36
g4
sg37
(dp2395
sg39
(dp2396
sg41
I1208
sg42
g21
sg43
g21
sg44
I235
sg45
Vsent
p2397
sg47
I235
sg48
I1212
sbag0
(g23
g2
Ntp2398
Rp2399
(dp2400
g27
(dp2401
g29
Vthe
p2402
sg31
VO
p2403
sg33
VDT
p2404
sg35
I10
ssg10
I236
sg36
g4
sg37
(dp2405
sg39
(dp2406
sg41
I1213
sg42
g21
sg43
g21
sg44
I236
sg45
Vthe
p2407
sg47
I236
sg48
I1216
sbag0
(g23
g2
Ntp2408
Rp2409
(dp2410
g27
(dp2411
g29
Vmessage
p2412
sg31
VO
p2413
sg33
VNN
p2414
sg35
I11
ssg10
I237
sg36
g4
sg37
(dp2415
sg39
(dp2416
sg41
I1217
sg42
g21
sg43
g21
sg44
I237
sg45
Vmessage
p2417
sg47
I237
sg48
I1224
sbag0
(g23
g2
Ntp2418
Rp2419
(dp2420
g27
(dp2421
g29
Vout
p2422
sg31
VO
p2423
sg33
VIN
p2424
sg35
I12
ssg10
I238
sg36
g4
sg37
(dp2425
sg39
(dp2426
sg41
I1225
sg42
g21
sg43
g21
sg44
I238
sg45
Vout
p2427
sg47
I238
sg48
I1228
sbag0
(g23
g2
Ntp2428
Rp2429
(dp2430
g27
(dp2431
g29
Vthat
p2432
sg31
VO
p2433
sg33
VIN
p2434
sg35
I13
ssg10
I239
sg36
g4
sg37
(dp2435
sg39
(dp2436
sg41
I1229
sg42
g21
sg43
g21
sg44
I239
sg45
Vthat
p2437
sg47
I239
sg48
I1233
sbag0
(g23
g2
Ntp2438
Rp2439
(dp2440
g27
(dp2441
g29
V``
p2442
sg31
VO
p2443
sg33
V``
p2444
sg35
I14
ssg10
I240
sg36
g4
sg37
(dp2445
sg39
(dp2446
sg41
I1234
sg42
g21
sg43
g21
sg44
I240
sg45
g1098
sg47
I240
sg48
I1235
sbag0
(g23
g2
Ntp2447
Rp2448
(dp2449
g27
(dp2450
g29
Vif
p2451
sg31
VO
p2452
sg33
VIN
p2453
sg35
I15
ssg10
I241
sg36
g4
sg37
(dp2454
sg39
(dp2455
sg41
I1235
sg42
g21
sg43
g21
sg44
I241
sg45
VIf
p2456
sg47
I241
sg48
I1237
sbag0
(g23
g2
Ntp2457
Rp2458
(dp2459
g27
(dp2460
g29
Vwe
p2461
sg31
VO
p2462
sg33
VPRP
p2463
sg35
I16
ssg10
I242
sg36
g4
sg37
(dp2464
sg39
(dp2465
sg41
I1238
sg42
g21
sg43
g21
sg44
I242
sg45
Vwe
p2466
sg47
I242
sg48
I1240
sbag0
(g23
g2
Ntp2467
Rp2468
(dp2469
g27
(dp2470
g29
Vwant
p2471
sg31
VO
p2472
sg33
VVBP
p2473
sg35
I17
ssg10
I243
sg36
g4
sg37
(dp2474
sg39
(dp2475
sg41
I1241
sg42
g21
sg43
g21
sg44
I243
sg45
Vwant
p2476
sg47
I243
sg48
I1245
sbag0
(g23
g2
Ntp2477
Rp2478
(dp2479
g27
(dp2480
g29
Vto
p2481
sg31
VO
p2482
sg33
VTO
p2483
sg35
I18
ssg10
I244
sg36
g4
sg37
(dp2484
sg39
(dp2485
sg41
I1246
sg42
g21
sg43
g21
sg44
I244
sg45
Vto
p2486
sg47
I244
sg48
I1248
sbag0
(g23
g2
Ntp2487
Rp2488
(dp2489
g27
(dp2490
g29
Vwin
p2491
sg31
VO
p2492
sg33
VVB
p2493
sg35
I19
ssg10
I245
sg36
g4
sg37
(dp2494
sg39
(dp2495
sg41
I1249
sg42
g21
sg43
g21
sg44
I245
sg45
Vwin
p2496
sg47
I245
sg48
I1252
sbag0
(g23
g2
Ntp2497
Rp2498
(dp2499
g27
(dp2500
g29
Vfriend
p2501
sg31
VO
p2502
sg33
VNNS
p2503
sg35
I20
ssg10
I246
sg36
g4
sg37
(dp2504
sg39
(dp2505
sg41
I1253
sg42
g21
sg43
g21
sg44
I246
sg45
Vfriends
p2506
sg47
I246
sg48
I1260
sbag0
(g23
g2
Ntp2507
Rp2508
(dp2509
g27
(dp2510
g29
V,
p2511
sg31
VO
p2512
sg33
V,
p2513
sg35
I21
ssg10
I247
sg36
g4
sg37
(dp2514
sg39
(dp2515
sg41
I1260
sg42
g21
sg43
g21
sg44
I247
sg45
V,
p2516
sg47
I247
sg48
I1261
sbag0
(g23
g2
Ntp2517
Rp2518
(dp2519
g27
(dp2520
g29
Vif
p2521
sg31
VO
p2522
sg33
VIN
p2523
sg35
I22
ssg10
I248
sg36
g4
sg37
(dp2524
sg39
(dp2525
sg41
I1262
sg42
g21
sg43
g21
sg44
I248
sg45
Vif
p2526
sg47
I248
sg48
I1264
sbag0
(g23
g2
Ntp2527
Rp2528
(dp2529
g27
(dp2530
g29
Vwe
p2531
sg31
VO
p2532
sg33
VPRP
p2533
sg35
I23
ssg10
I249
sg36
g4
sg37
(dp2534
sg39
(dp2535
sg41
I1265
sg42
g21
sg43
g21
sg44
I249
sg45
Vwe
p2536
sg47
I249
sg48
I1267
sbag0
(g23
g2
Ntp2537
Rp2538
(dp2539
g27
(dp2540
g29
Vwant
p2541
sg31
VO
p2542
sg33
VVBP
p2543
sg35
I24
ssg10
I250
sg36
g4
sg37
(dp2544
sg39
(dp2545
sg41
I1268
sg42
g21
sg43
g21
sg44
I250
sg45
Vwant
p2546
sg47
I250
sg48
I1272
sbag0
(g23
g2
Ntp2547
Rp2548
(dp2549
g27
(dp2550
g29
Vto
p2551
sg31
VO
p2552
sg33
VTO
p2553
sg35
I25
ssg10
I251
sg36
g4
sg37
(dp2554
sg39
(dp2555
sg41
I1273
sg42
g21
sg43
g21
sg44
I251
sg45
Vto
p2556
sg47
I251
sg48
I1275
sbag0
(g23
g2
Ntp2557
Rp2558
(dp2559
g27
(dp2560
g29
Vwin
p2561
sg31
VO
p2562
sg33
VVB
p2563
sg35
I26
ssg10
I252
sg36
g4
sg37
(dp2564
sg39
(dp2565
sg41
I1276
sg42
g21
sg43
g21
sg44
I252
sg45
Vwin
p2566
sg47
I252
sg48
I1279
sbag0
(g23
g2
Ntp2567
Rp2568
(dp2569
g27
(dp2570
g29
Vrespect
p2571
sg31
VO
p2572
sg33
VNN
p2573
sg35
I27
ssg10
I253
sg36
g4
sg37
(dp2574
sg39
(dp2575
sg41
I1280
sg42
g21
sg43
g21
sg44
I253
sg45
Vrespect
p2576
sg47
I253
sg48
I1287
sbag0
(g23
g2
Ntp2577
Rp2578
(dp2579
g27
(dp2580
g29
V,
p2581
sg31
VO
p2582
sg33
V,
p2583
sg35
I28
ssg10
I254
sg36
g4
sg37
(dp2584
sg39
(dp2585
sg41
I1287
sg42
g21
sg43
g21
sg44
I254
sg45
V,
p2586
sg47
I254
sg48
I1288
sbag0
(g23
g2
Ntp2587
Rp2588
(dp2589
g27
(dp2590
g29
Vwe
p2591
sg31
VO
p2592
sg33
VPRP
p2593
sg35
I29
ssg10
I255
sg36
g4
sg37
(dp2594
sg39
(dp2595
sg41
I1289
sg42
g21
sg43
g21
sg44
I255
sg45
Vwe
p2596
sg47
I255
sg48
I1291
sbag0
(g23
g2
Ntp2597
Rp2598
(dp2599
g27
(dp2600
g29
Vhave
p2601
sg31
VO
p2602
sg33
VVBP
p2603
sg35
I30
ssg10
I256
sg36
g4
sg37
(dp2604
sg39
(dp2605
sg41
I1292
sg42
g21
sg43
g21
sg44
I256
sg45
Vhave
p2606
sg47
I256
sg48
I1296
sbag0
(g23
g2
Ntp2607
Rp2608
(dp2609
g27
(dp2610
g29
Vto
p2611
sg31
VO
p2612
sg33
VTO
p2613
sg35
I31
ssg10
I257
sg36
g4
sg37
(dp2614
sg39
(dp2615
sg41
I1297
sg42
g21
sg43
g21
sg44
I257
sg45
Vto
p2616
sg47
I257
sg48
I1299
sbag0
(g23
g2
Ntp2617
Rp2618
(dp2619
g27
(dp2620
g29
Vwin
p2621
sg31
VO
p2622
sg33
VVB
p2623
sg35
I32
ssg10
I258
sg36
g4
sg37
(dp2624
sg39
(dp2625
sg41
I1300
sg42
g21
sg43
g21
sg44
I258
sg45
Vwin
p2626
sg47
I258
sg48
I1303
sbag0
(g23
g2
Ntp2627
Rp2628
(dp2629
g27
(dp2630
g29
Vmedal
p2631
sg31
VO
p2632
sg33
VNNS
p2633
sg35
I33
ssg10
I259
sg36
g4
sg37
(dp2634
sg39
(dp2635
sg41
I1304
sg42
g21
sg43
g21
sg44
I259
sg45
Vmedals
p2636
sg47
I259
sg48
I1310
sbag0
(g23
g2
Ntp2637
Rp2638
(dp2639
g27
(dp2640
g29
V''
p2641
sg31
VO
p2642
sg33
V''
p2643
sg35
I34
ssg10
I260
sg36
g4
sg37
(dp2644
sg39
(dp2645
sg41
I1310
sg42
g21
sg43
g21
sg44
I260
sg45
g1098
sg47
I260
sg48
I1311
sbag0
(g23
g2
Ntp2646
Rp2647
(dp2648
g27
(dp2649
g29
V.
p2650
sg31
VO
p2651
sg33
V.
p2652
sg35
I35
ssg10
I261
sg36
g4
sg37
(dp2653
sg39
(dp2654
sg41
I1311
sg42
g21
sg43
g21
sg44
I261
sg45
V.
p2655
sg47
I261
sg48
I1312
sbag0
(g23
g2
Ntp2656
Rp2657
(dp2658
g27
(dp2659
g29
Vin
p2660
sg31
VO
p2661
sg33
VIN
p2662
sg35
I1
ssg10
I262
sg36
g4
sg37
(dp2663
sg39
(dp2664
sg41
I1314
sg42
g21
sg43
g21
sg44
I262
sg45
VIn
p2665
sg47
I262
sg48
I1316
sbag0
(g23
g2
Ntp2666
Rp2667
(dp2668
g27
(dp2669
g29
Vthe
p2670
sg31
VDATE
p2671
sg33
VDT
p2672
sg35
I2
ssg10
I263
sg36
g4
sg37
(dp2673
sg39
(dp2674
sg41
I1317
sg42
g21
sg43
g21
sg44
I263
sg45
Vthe
p2675
sg47
I263
sg48
I1320
sbag0
(g23
g2
Ntp2676
Rp2677
(dp2678
g27
(dp2679
g29
V1980s
p2680
sg31
VDATE
p2681
sg33
VCD
p2682
sg35
I3
ssg10
I264
sg36
g4
sg37
(dp2683
sg39
(dp2684
sg41
I1321
sg42
g21
sg43
g21
sg44
I264
sg45
V1980s
p2685
sg47
I264
sg48
I1326
sbag0
(g23
g2
Ntp2686
Rp2687
(dp2688
g27
(dp2689
g29
V,
p2690
sg31
VO
p2691
sg33
V,
p2692
sg35
I4
ssg10
I265
sg36
g4
sg37
(dp2693
sg39
(dp2694
sg41
I1326
sg42
g21
sg43
g21
sg44
I265
sg45
V,
p2695
sg47
I265
sg48
I1327
sbag0
(g23
g2
Ntp2696
Rp2697
(dp2698
g27
(dp2699
g29
Vchinese
p2700
sg31
VMISC
p2701
sg33
VJJ
p2702
sg35
I5
ssg10
I266
sg36
g4
sg37
(dp2703
sg39
(dp2704
sg41
I1328
sg42
g21
sg43
g21
sg44
I266
sg45
VChinese
p2705
sg47
I266
sg48
I1335
sbag0
(g23
g2
Ntp2706
Rp2707
(dp2708
g27
(dp2709
g29
Vboxer
p2710
sg31
VO
p2711
sg33
VNNS
p2712
sg35
I6
ssg10
I267
sg36
g4
sg37
(dp2713
sg39
(dp2714
sg41
I1336
sg42
g21
sg43
g21
sg44
I267
sg45
Vboxers
p2715
sg47
I267
sg48
I1342
sbag0
(g23
g2
Ntp2716
Rp2717
(dp2718
g27
(dp2719
g29
Vbegin
p2720
sg31
VO
p2721
sg33
VVBD
p2722
sg35
I7
ssg10
I268
sg36
g4
sg37
(dp2723
sg39
(dp2724
sg41
I1343
sg42
g21
sg43
g21
sg44
I268
sg45
Vbegan
p2725
sg47
I268
sg48
I1348
sbag0
(g23
g2
Ntp2726
Rp2727
(dp2728
g27
(dp2729
g29
Vtrain
p2730
sg31
VO
p2731
sg33
VVBG
p2732
sg35
I8
ssg10
I269
sg36
g4
sg37
(dp2733
sg39
(dp2734
sg41
I1349
sg42
g21
sg43
g21
sg44
I269
sg45
Vtraining
p2735
sg47
I269
sg48
I1357
sbag0
(g23
g2
Ntp2736
Rp2737
(dp2738
g27
(dp2739
g29
Vagain
p2740
sg31
VO
p2741
sg33
VRB
p2742
sg35
I9
ssg10
I270
sg36
g4
sg37
(dp2743
sg39
(dp2744
sg41
I1358
sg42
g21
sg43
g21
sg44
I270
sg45
Vagain
p2745
sg47
I270
sg48
I1363
sbag0
(g23
g2
Ntp2746
Rp2747
(dp2748
g27
(dp2749
g29
V,
p2750
sg31
VO
p2751
sg33
V,
p2752
sg35
I10
ssg10
I271
sg36
g4
sg37
(dp2753
sg39
(dp2754
sg41
I1363
sg42
g21
sg43
g21
sg44
I271
sg45
V,
p2755
sg47
I271
sg48
I1364
sbag0
(g23
g2
Ntp2756
Rp2757
(dp2758
g27
(dp2759
g29
Vafter
p2760
sg31
VO
p2761
sg33
VIN
p2762
sg35
I11
ssg10
I272
sg36
g4
sg37
(dp2763
sg39
(dp2764
sg41
I1365
sg42
g21
sg43
g21
sg44
I272
sg45
Vafter
p2765
sg47
I272
sg48
I1370
sbag0
(g23
g2
Ntp2766
Rp2767
(dp2768
g27
(dp2769
g29
Va
p2770
sg31
VO
p2771
sg33
VDT
p2772
sg35
I12
ssg10
I273
sg36
g4
sg37
(dp2773
sg39
(dp2774
sg41
I1365
sg42
g21
sg43
g21
sg44
I273
sg45
Va
p2775
sg47
I273
sg48
I1366
sbag0
(g23
g2
Ntp2776
Rp2777
(dp2778
g27
(dp2779
g29
Vfashion
p2780
sg31
VO
p2781
sg33
VNN
p2782
sg35
I13
ssg10
I274
sg36
g4
sg37
(dp2783
sg39
(dp2784
sg41
I1373
sg42
g21
sg43
g21
sg44
I274
sg45
Vfashion
p2785
sg47
I274
sg48
I1380
sbag0
(g23
g2
Ntp2786
Rp2787
(dp2788
g27
(dp2789
g29
V.
p2790
sg31
VO
p2791
sg33
V.
p2792
sg35
I14
ssg10
I275
sg36
g4
sg37
(dp2793
sg39
(dp2794
sg41
I1380
sg42
g21
sg43
g21
sg44
I275
sg45
V.
p2795
sg47
I275
sg48
I1381
sbag0
(g23
g2
Ntp2796
Rp2797
(dp2798
g27
(dp2799
g29
Vathlete
p2800
sg31
VO
p2801
sg33
VNNS
p2802
sg35
I1
ssg10
I276
sg36
g4
sg37
(dp2803
sg39
(dp2804
sg41
I1382
sg42
g21
sg43
g21
sg44
I276
sg45
VAthletes
p2805
sg47
I276
sg48
I1390
sbag0
(g23
g2
Ntp2806
Rp2807
(dp2808
g27
(dp2809
g29
Vhave
p2810
sg31
VO
p2811
sg33
VVBD
p2812
sg35
I2
ssg10
I277
sg36
g4
sg37
(dp2813
sg39
(dp2814
sg41
I1391
sg42
g21
sg43
g21
sg44
I277
sg45
Vhad
p2815
sg47
I277
sg48
I1394
sbag0
(g23
g2
Ntp2816
Rp2817
(dp2818
g27
(dp2819
g29
Vno
p2820
sg31
VO
p2821
sg33
VDT
p2822
sg35
I3
ssg10
I278
sg36
g4
sg37
(dp2823
sg39
(dp2824
sg41
I1395
sg42
g21
sg43
g21
sg44
I278
sg45
Vno
p2825
sg47
I278
sg48
I1397
sbag0
(g23
g2
Ntp2826
Rp2827
(dp2828
g27
(dp2829
g29
Vbags
p2830
sg31
VO
p2831
sg33
VNN
p2832
sg35
I4
ssg10
I279
sg36
g4
sg37
(dp2833
sg39
(dp2834
sg41
I1398
sg42
g21
sg43
g21
sg44
I279
sg45
Vbags
p2835
sg47
I279
sg48
I1402
sbag0
(g23
g2
Ntp2836
Rp2837
(dp2838
g27
(dp2839
g29
Vor
p2840
sg31
VO
p2841
sg33
VCC
p2842
sg35
I5
ssg10
I280
sg36
g4
sg37
(dp2843
sg39
(dp2844
sg41
I1403
sg42
g21
sg43
g21
sg44
I280
sg45
Vor
p2845
sg47
I280
sg48
I1405
sbag0
(g23
g2
Ntp2846
Rp2847
(dp2848
g27
(dp2849
g29
Vglove
p2850
sg31
VO
p2851
sg33
VNNS
p2852
sg35
I6
ssg10
I281
sg36
g4
sg37
(dp2853
sg39
(dp2854
sg41
I1406
sg42
g21
sg43
g21
sg44
I281
sg45
Vgloves
p2855
sg47
I281
sg48
I1412
sbag0
(g23
g2
Ntp2856
Rp2857
(dp2858
g27
(dp2859
g29
V.
p2860
sg31
VO
p2861
sg33
V.
p2862
sg35
I7
ssg10
I282
sg36
g4
sg37
(dp2863
sg39
(dp2864
sg41
I1412
sg42
g21
sg43
g21
sg44
I282
sg45
V.
p2865
sg47
I282
sg48
I1413
sbag0
(g23
g2
Ntp2866
Rp2867
(dp2868
g27
(dp2869
g29
Vsandbag
p2870
sg31
VO
p2871
sg33
VNNS
p2872
sg35
I1
ssg10
I283
sg36
g4
sg37
(dp2873
sg39
(dp2874
sg41
I1414
sg42
g21
sg43
g21
sg44
I283
sg45
VSandbags
p2875
sg47
I283
sg48
I1422
sbag0
(g23
g2
Ntp2876
Rp2877
(dp2878
g27
(dp2879
g29
Vbe
p2880
sg31
VO
p2881
sg33
VVBD
p2882
sg35
I2
ssg10
I284
sg36
g4
sg37
(dp2883
sg39
(dp2884
sg41
I1423
sg42
g21
sg43
g21
sg44
I284
sg45
Vwere
p2885
sg47
I284
sg48
I1427
sbag0
(g23
g2
Ntp2886
Rp2887
(dp2888
g27
(dp2889
g29
Vtraditionally
p2890
sg31
VO
p2891
sg33
VRB
p2892
sg35
I3
ssg10
I285
sg36
g4
sg37
(dp2893
sg39
(dp2894
sg41
I1428
sg42
g21
sg43
g21
sg44
I285
sg45
Vtraditionally
p2895
sg47
I285
sg48
I1441
sbag0
(g23
g2
Ntp2896
Rp2897
(dp2898
g27
(dp2899
g29
Vuse
p2900
sg31
VO
p2901
sg33
VVBN
p2902
sg35
I4
ssg10
I286
sg36
g4
sg37
(dp2903
sg39
(dp2904
sg41
I1442
sg42
g21
sg43
g21
sg44
I286
sg45
Vused
p2905
sg47
I286
sg48
I1446
sbag0
(g23
g2
Ntp2906
Rp2907
(dp2908
g27
(dp2909
g29
Vinstead
p2910
sg31
VO
p2911
sg33
VRB
p2912
sg35
I5
ssg10
I287
sg36
g4
sg37
(dp2913
sg39
(dp2914
sg41
I1447
sg42
g21
sg43
g21
sg44
I287
sg45
Vinstead
p2915
sg47
I287
sg48
I1454
sbag0
(g23
g2
Ntp2916
Rp2917
(dp2918
g27
(dp2919
g29
V.
p2920
sg31
VO
p2921
sg33
V.
p2922
sg35
I6
ssg10
I288
sg36
g4
sg37
(dp2923
sg39
(dp2924
sg41
I1454
sg42
g21
sg43
g21
sg44
I288
sg45
V.
p2925
sg47
I288
sg48
I1455
sbag0
(g23
g2
Ntp2926
Rp2927
(dp2928
g27
(dp2929
g29
VLiu
p2930
sg31
VPERSON
p2931
sg33
VNNP
p2932
sg35
I1
ssg10
I289
sg36
g4
sg37
(dp2933
sg39
(dp2934
sg41
I1456
sg42
g21
sg43
g21
sg44
I289
sg45
VLiu
p2935
sg47
I289
sg48
I1459
sbag0
(g23
g2
Ntp2936
Rp2937
(dp2938
g27
(dp2939
g29
Vgang
p2940
sg31
VPERSON
p2941
sg33
VNN
p2942
sg35
I2
ssg10
I290
sg36
g4
sg37
(dp2943
sg39
(dp2944
sg41
I1460
sg42
g21
sg43
g21
sg44
I290
sg45
VGang
p2945
sg47
I290
sg48
I1464
sbag0
(g23
g2
Ntp2946
Rp2947
(dp2948
g27
(dp2949
g29
Vbe
p2950
sg31
VO
p2951
sg33
VVBD
p2952
sg35
I3
ssg10
I291
sg36
g4
sg37
(dp2953
sg39
(dp2954
sg41
I1465
sg42
g21
sg43
g21
sg44
I291
sg45
Vwas
p2955
sg47
I291
sg48
I1468
sbag0
(g23
g2
Ntp2956
Rp2957
(dp2958
g27
(dp2959
g29
Vone
p2960
sg31
VNUMBER
p2961
sg33
VCD
p2962
sg35
I4
ssg10
I292
sg36
g4
sg37
(dp2963
sg39
(dp2964
sg41
I1469
sg42
g21
sg43
g21
sg44
I292
sg45
Vone
p2965
sg47
I292
sg48
I1472
sbag0
(g23
g2
Ntp2966
Rp2967
(dp2968
g27
(dp2969
g29
Vof
p2970
sg31
VO
p2971
sg33
VIN
p2972
sg35
I5
ssg10
I293
sg36
g4
sg37
(dp2973
sg39
(dp2974
sg41
I1473
sg42
g21
sg43
g21
sg44
I293
sg45
Vof
p2975
sg47
I293
sg48
I1475
sbag0
(g23
g2
Ntp2976
Rp2977
(dp2978
g27
(dp2979
g29
Vthe
p2980
sg31
VO
p2981
sg33
VDT
p2982
sg35
I6
ssg10
I294
sg36
g4
sg37
(dp2983
sg39
(dp2984
sg41
I1476
sg42
g21
sg43
g21
sg44
I294
sg45
Vthe
p2985
sg47
I294
sg48
I1479
sbag0
(g23
g2
Ntp2986
Rp2987
(dp2988
g27
(dp2989
g29
Vearliest
p2990
sg31
VO
p2991
sg33
VJJS
p2992
sg35
I7
ssg10
I295
sg36
g4
sg37
(dp2993
sg39
(dp2994
sg41
I1480
sg42
g21
sg43
g21
sg44
I295
sg45
Vearliest
p2995
sg47
I295
sg48
I1488
sbag0
(g23
g2
Ntp2996
Rp2997
(dp2998
g27
(dp2999
g29
Vrecruit
p3000
sg31
VO
p3001
sg33
VNNS
p3002
sg35
I8
ssg10
I296
sg36
g4
sg37
(dp3003
sg39
(dp3004
sg41
I1489
sg42
g21
sg43
g21
sg44
I296
sg45
Vrecruits
p3005
sg47
I296
sg48
I1497
sbag0
(g23
g2
Ntp3006
Rp3007
(dp3008
g27
(dp3009
g29
Vand
p3010
sg31
VO
p3011
sg33
VCC
p3012
sg35
I9
ssg10
I297
sg36
g4
sg37
(dp3013
sg39
(dp3014
sg41
I1498
sg42
g21
sg43
g21
sg44
I297
sg45
Vand
p3015
sg47
I297
sg48
I1501
sbag0
(g23
g2
Ntp3016
Rp3017
(dp3018
g27
(dp3019
g29
Vbe
p3020
sg31
VO
p3021
sg33
VVBZ
p3022
sg35
I10
ssg10
I298
sg36
g4
sg37
(dp3023
sg39
(dp3024
sg41
I1502
sg42
g21
sg43
g21
sg44
I298
sg45
Vis
p3025
sg47
I298
sg48
I1504
sbag0
(g23
g2
Ntp3026
Rp3027
(dp3028
g27
(dp3029
g29
Vnow
p3030
sg31
VDATE
p3031
sg33
VRB
p3032
sg35
I11
ssg10
I299
sg36
g4
sg37
(dp3033
sg39
(dp3034
sg41
I1505
sg42
g21
sg43
g21
sg44
I299
sg45
Vnow
p3035
sg47
I299
sg48
I1508
sbag0
(g23
g2
Ntp3036
Rp3037
(dp3038
g27
(dp3039
g29
VChina
p3040
sg31
VLOCATION
p3041
sg33
VNNP
p3042
sg35
I12
ssg10
I300
sg36
g4
sg37
(dp3043
sg39
(dp3044
sg41
I1509
sg42
g21
sg43
g21
sg44
I300
sg45
VChina
p3045
sg47
I300
sg48
I1514
sbag0
(g23
g2
Ntp3046
Rp3047
(dp3048
g27
(dp3049
g29
V's
p3050
sg31
VO
p3051
sg33
VPOS
p3052
sg35
I13
ssg10
I301
sg36
g4
sg37
(dp3053
sg39
(dp3054
sg41
I1514
sg42
g21
sg43
g21
sg44
I301
sg45
V's
p3055
sg47
I301
sg48
I1516
sbag0
(g23
g2
Ntp3056
Rp3057
(dp3058
g27
(dp3059
g29
Vbiggest
p3060
sg31
VO
p3061
sg33
VJJS
p3062
sg35
I14
ssg10
I302
sg36
g4
sg37
(dp3063
sg39
(dp3064
sg41
I1517
sg42
g21
sg43
g21
sg44
I302
sg45
Vbiggest
p3065
sg47
I302
sg48
I1524
sbag0
(g23
g2
Ntp3066
Rp3067
(dp3068
g27
(dp3069
g29
Vpromoter.china
p3070
sg31
VO
p3071
sg33
VNN
p3072
sg35
I15
ssg10
I303
sg36
g4
sg37
(dp3073
sg39
(dp3074
sg41
I1525
sg42
g21
sg43
g21
sg44
I303
sg45
Vpromoter.China
p3075
sg47
I303
sg48
I1539
sbag0
(g23
g2
Ntp3076
Rp3077
(dp3078
g27
(dp3079
g29
Vfirst
p3080
sg31
VORDINAL
p3081
sg33
VRB
p3082
sg35
I16
ssg10
I304
sg36
g4
sg37
(dp3083
sg39
(dp3084
sg41
I1540
sg42
g21
sg43
g21
sg44
I304
sg45
Vfirst
p3085
sg47
I304
sg48
I1545
sbag0
(g23
g2
Ntp3086
Rp3087
(dp3088
g27
(dp3089
g29
Vcompete
p3090
sg31
VO
p3091
sg33
VVBD
p3092
sg35
I17
ssg10
I305
sg36
g4
sg37
(dp3093
sg39
(dp3094
sg41
I1546
sg42
g21
sg43
g21
sg44
I305
sg45
Vcompeted
p3095
sg47
I305
sg48
I1554
sbag0
(g23
g2
Ntp3096
Rp3097
(dp3098
g27
(dp3099
g29
Vin
p3100
sg31
VO
p3101
sg33
VIN
p3102
sg35
I18
ssg10
I306
sg36
g4
sg37
(dp3103
sg39
(dp3104
sg41
I1555
sg42
g21
sg43
g21
sg44
I306
sg45
Vin
p3105
sg47
I306
sg48
I1557
sbag0
(g23
g2
Ntp3106
Rp3107
(dp3108
g27
(dp3109
g29
Vboxing
p3110
sg31
VO
p3111
sg33
VNN
p3112
sg35
I19
ssg10
I307
sg36
g4
sg37
(dp3113
sg39
(dp3114
sg41
I1558
sg42
g21
sg43
g21
sg44
I307
sg45
Vboxing
p3115
sg47
I307
sg48
I1564
sbag0
(g23
g2
Ntp3116
Rp3117
(dp3118
g27
(dp3119
g29
Vat
p3120
sg31
VO
p3121
sg33
VIN
p3122
sg35
I20
ssg10
I308
sg36
g4
sg37
(dp3123
sg39
(dp3124
sg41
I1565
sg42
g21
sg43
g21
sg44
I308
sg45
Vat
p3125
sg47
I308
sg48
I1567
sbag0
(g23
g2
Ntp3126
Rp3127
(dp3128
g27
(dp3129
g29
Vthe
p3130
sg31
VDATE
p3131
sg33
VDT
p3132
sg35
I21
ssg10
I309
sg36
g4
sg37
(dp3133
sg39
(dp3134
sg41
I1568
sg42
g21
sg43
g21
sg44
I309
sg45
Vthe
p3135
sg47
I309
sg48
I1571
sbag0
(g23
g2
Ntp3136
Rp3137
(dp3138
g27
(dp3139
g29
V1992
p3140
sg31
VDATE
p3141
sg33
VCD
p3142
sg35
I22
ssg10
I310
sg36
g4
sg37
(dp3143
sg39
(dp3144
sg41
I1572
sg42
g21
sg43
g21
sg44
I310
sg45
V1992
p3145
sg47
I310
sg48
I1576
sbag0
(g23
g2
Ntp3146
Rp3147
(dp3148
g27
(dp3149
g29
Vsummer
p3150
sg31
VDATE
p3151
sg33
VNN
p3152
sg35
I23
ssg10
I311
sg36
g4
sg37
(dp3153
sg39
(dp3154
sg41
I1577
sg42
g21
sg43
g21
sg44
I311
sg45
VSummer
p3155
sg47
I311
sg48
I1583
sbag0
(g23
g2
Ntp3156
Rp3157
(dp3158
g27
(dp3159
g29
VOlympics
p3160
sg31
VO
p3161
sg33
VNNPS
p3162
sg35
I24
ssg10
I312
sg36
g4
sg37
(dp3163
sg39
(dp3164
sg41
I1584
sg42
g21
sg43
g21
sg44
I312
sg45
VOlympics
p3165
sg47
I312
sg48
I1592
sbag0
(g23
g2
Ntp3166
Rp3167
(dp3168
g27
(dp3169
g29
V,
p3170
sg31
VO
p3171
sg33
V,
p3172
sg35
I25
ssg10
I313
sg36
g4
sg37
(dp3173
sg39
(dp3174
sg41
I1592
sg42
g21
sg43
g21
sg44
I313
sg45
V,
p3175
sg47
I313
sg48
I1593
sbag0
(g23
g2
Ntp3176
Rp3177
(dp3178
g27
(dp3179
g29
Vin
p3180
sg31
VO
p3181
sg33
VIN
p3182
sg35
I26
ssg10
I314
sg36
g4
sg37
(dp3183
sg39
(dp3184
sg41
I1594
sg42
g21
sg43
g21
sg44
I314
sg45
Vin
p3185
sg47
I314
sg48
I1596
sbag0
(g23
g2
Ntp3186
Rp3187
(dp3188
g27
(dp3189
g29
VBarcelona
p3190
sg31
VLOCATION
p3191
sg33
VNNP
p3192
sg35
I27
ssg10
I315
sg36
g4
sg37
(dp3193
sg39
(dp3194
sg41
I1597
sg42
g21
sg43
g21
sg44
I315
sg45
VBarcelona
p3195
sg47
I315
sg48
I1606
sbag0
(g23
g2
Ntp3196
Rp3197
(dp3198
g27
(dp3199
g29
V,
p3200
sg31
VO
p3201
sg33
V,
p3202
sg35
I28
ssg10
I316
sg36
g4
sg37
(dp3203
sg39
(dp3204
sg41
I1606
sg42
g21
sg43
g21
sg44
I316
sg45
V,
p3205
sg47
I316
sg48
I1607
sbag0
(g23
g2
Ntp3206
Rp3207
(dp3208
g27
(dp3209
g29
Vwhere
p3210
sg31
VO
p3211
sg33
VWRB
p3212
sg35
I29
ssg10
I317
sg36
g4
sg37
(dp3213
sg39
(dp3214
sg41
I1608
sg42
g21
sg43
g21
sg44
I317
sg45
Vwhere
p3215
sg47
I317
sg48
I1613
sbag0
(g23
g2
Ntp3216
Rp3217
(dp3218
g27
(dp3219
g29
Vcompetitor
p3220
sg31
VO
p3221
sg33
VNNS
p3222
sg35
I30
ssg10
I318
sg36
g4
sg37
(dp3223
sg39
(dp3224
sg41
I1614
sg42
g21
sg43
g21
sg44
I318
sg45
Vcompetitors
p3225
sg47
I318
sg48
I1625
sbag0
(g23
g2
Ntp3226
Rp3227
(dp3228
g27
(dp3229
g29
Vbe
p3230
sg31
VO
p3231
sg33
VVBD
p3232
sg35
I31
ssg10
I319
sg36
g4
sg37
(dp3233
sg39
(dp3234
sg41
I1626
sg42
g21
sg43
g21
sg44
I319
sg45
Vwere
p3235
sg47
I319
sg48
I1630
sbag0
(g23
g2
Ntp3236
Rp3237
(dp3238
g27
(dp3239
g29
Vdelighted
p3240
sg31
VO
p3241
sg33
VJJ
p3242
sg35
I32
ssg10
I320
sg36
g4
sg37
(dp3243
sg39
(dp3244
sg41
I1631
sg42
g21
sg43
g21
sg44
I320
sg45
Vdelighted
p3245
sg47
I320
sg48
I1640
sbag0
(g23
g2
Ntp3246
Rp3247
(dp3248
g27
(dp3249
g29
Vto
p3250
sg31
VO
p3251
sg33
VTO
p3252
sg35
I33
ssg10
I321
sg36
g4
sg37
(dp3253
sg39
(dp3254
sg41
I1641
sg42
g21
sg43
g21
sg44
I321
sg45
Vto
p3255
sg47
I321
sg48
I1643
sbag0
(g23
g2
Ntp3256
Rp3257
(dp3258
g27
(dp3259
g29
Vface
p3260
sg31
VO
p3261
sg33
VVB
p3262
sg35
I34
ssg10
I322
sg36
g4
sg37
(dp3263
sg39
(dp3264
sg41
I1644
sg42
g21
sg43
g21
sg44
I322
sg45
Vface
p3265
sg47
I322
sg48
I1648
sbag0
(g23
g2
Ntp3266
Rp3267
(dp3268
g27
(dp3269
g29
Voff
p3270
sg31
VO
p3271
sg33
VRP
p3272
sg35
I35
ssg10
I323
sg36
g4
sg37
(dp3273
sg39
(dp3274
sg41
I1649
sg42
g21
sg43
g21
sg44
I323
sg45
Voff
p3275
sg47
I323
sg48
I1652
sbag0
(g23
g2
Ntp3276
Rp3277
(dp3278
g27
(dp3279
g29
Vagainst
p3280
sg31
VO
p3281
sg33
VIN
p3282
sg35
I36
ssg10
I324
sg36
g4
sg37
(dp3283
sg39
(dp3284
sg41
I1653
sg42
g21
sg43
g21
sg44
I324
sg45
Vagainst
p3285
sg47
I324
sg48
I1660
sbag0
(g23
g2
Ntp3286
Rp3287
(dp3288
g27
(dp3289
g29
Vchinese
p3290
sg31
VMISC
p3291
sg33
VJJ
p3292
sg35
I37
ssg10
I325
sg36
g4
sg37
(dp3293
sg39
(dp3294
sg41
I1661
sg42
g21
sg43
g21
sg44
I325
sg45
VChinese
p3295
sg47
I325
sg48
I1668
sbag0
(g23
g2
Ntp3296
Rp3297
(dp3298
g27
(dp3299
g29
Vopponent
p3300
sg31
VO
p3301
sg33
VNNS
p3302
sg35
I38
ssg10
I326
sg36
g4
sg37
(dp3303
sg39
(dp3304
sg41
I1669
sg42
g21
sg43
g21
sg44
I326
sg45
Vopponents
p3305
sg47
I326
sg48
I1678
sbag0
(g23
g2
Ntp3306
Rp3307
(dp3308
g27
(dp3309
g29
Vas
p3310
sg31
VO
p3311
sg33
VIN
p3312
sg35
I39
ssg10
I327
sg36
g4
sg37
(dp3313
sg39
(dp3314
sg41
I1679
sg42
g21
sg43
g21
sg44
I327
sg45
Vas
p3315
sg47
I327
sg48
I1681
sbag0
(g23
g2
Ntp3316
Rp3317
(dp3318
g27
(dp3319
g29
VChina
p3320
sg31
VLOCATION
p3321
sg33
VNNP
p3322
sg35
I40
ssg10
I328
sg36
g4
sg37
(dp3323
sg39
(dp3324
sg41
I1682
sg42
g21
sg43
g21
sg44
I328
sg45
VChina
p3325
sg47
I328
sg48
I1687
sbag0
(g23
g2
Ntp3326
Rp3327
(dp3328
g27
(dp3329
g29
Vhave
p3330
sg31
VO
p3331
sg33
VVBD
p3332
sg35
I41
ssg10
I329
sg36
g4
sg37
(dp3333
sg39
(dp3334
sg41
I1688
sg42
g21
sg43
g21
sg44
I329
sg45
Vhad
p3335
sg47
I329
sg48
I1691
sbag0
(g23
g2
Ntp3336
Rp3337
(dp3338
g27
(dp3339
g29
Vbe
p3340
sg31
VO
p3341
sg33
VVBN
p3342
sg35
I42
ssg10
I330
sg36
g4
sg37
(dp3343
sg39
(dp3344
sg41
I1692
sg42
g21
sg43
g21
sg44
I330
sg45
Vbeen
p3345
sg47
I330
sg48
I1696
sbag0
(g23
g2
Ntp3346
Rp3347
(dp3348
g27
(dp3349
g29
Vweak
p3350
sg31
VO
p3351
sg33
VJJ
p3352
sg35
I43
ssg10
I331
sg36
g4
sg37
(dp3353
sg39
(dp3354
sg41
I1697
sg42
g21
sg43
g21
sg44
I331
sg45
Vweak
p3355
sg47
I331
sg48
I1701
sbag0
(g23
g2
Ntp3356
Rp3357
(dp3358
g27
(dp3359
g29
Vin
p3360
sg31
VO
p3361
sg33
VIN
p3362
sg35
I44
ssg10
I332
sg36
g4
sg37
(dp3363
sg39
(dp3364
sg41
I1702
sg42
g21
sg43
g21
sg44
I332
sg45
Vin
p3365
sg47
I332
sg48
I1704
sbag0
(g23
g2
Ntp3366
Rp3367
(dp3368
g27
(dp3369
g29
Vthat
p3370
sg31
VO
p3371
sg33
VDT
p3372
sg35
I45
ssg10
I333
sg36
g4
sg37
(dp3373
sg39
(dp3374
sg41
I1705
sg42
g21
sg43
g21
sg44
I333
sg45
Vthat
p3375
sg47
I333
sg48
I1709
sbag0
(g23
g2
Ntp3376
Rp3377
(dp3378
g27
(dp3379
g29
Vsport
p3380
sg31
VO
p3381
sg33
VNN
p3382
sg35
I46
ssg10
I334
sg36
g4
sg37
(dp3383
sg39
(dp3384
sg41
I1710
sg42
g21
sg43
g21
sg44
I334
sg45
Vsport
p3385
sg47
I334
sg48
I1715
sbag0
(g23
g2
Ntp3386
Rp3387
(dp3388
g27
(dp3389
g29
V.
p3390
sg31
VO
p3391
sg33
V.
p3392
sg35
I47
ssg10
I335
sg36
g4
sg37
(dp3393
sg39
(dp3394
sg41
I1715
sg42
g21
sg43
g21
sg44
I335
sg45
V.
p3395
sg47
I335
sg48
I1716
sbag0
(g23
g2
Ntp3396
Rp3397
(dp3398
g27
(dp3399
g29
Vthe
p3400
sg31
VO
p3401
sg33
VDT
p3402
sg35
I1
ssg10
I336
sg36
g4
sg37
(dp3403
sg39
(dp3404
sg41
I1717
sg42
g21
sg43
g21
sg44
I336
sg45
VThe
p3405
sg47
I336
sg48
I1720
sbag0
(g23
g2
Ntp3406
Rp3407
(dp3408
g27
(dp3409
g29
Vbest
p3410
sg31
VO
p3411
sg33
VJJS
p3412
sg35
I2
ssg10
I337
sg36
g4
sg37
(dp3413
sg39
(dp3414
sg41
I1721
sg42
g21
sg43
g21
sg44
I337
sg45
Vbest
p3415
sg47
I337
sg48
I1725
sbag0
(g23
g2
Ntp3416
Rp3417
(dp3418
g27
(dp3419
g29
Vthat
p3420
sg31
VO
p3421
sg33
VIN
p3422
sg35
I3
ssg10
I338
sg36
g4
sg37
(dp3423
sg39
(dp3424
sg41
I1726
sg42
g21
sg43
g21
sg44
I338
sg45
Vthat
p3425
sg47
I338
sg48
I1730
sbag0
(g23
g2
Ntp3426
Rp3427
(dp3428
g27
(dp3429
g29
Vthey
p3430
sg31
VO
p3431
sg33
VPRP$
p3432
sg35
I4
ssg10
I339
sg36
g4
sg37
(dp3433
sg39
(dp3434
sg41
I1731
sg42
g21
sg43
g21
sg44
I339
sg45
Vtheir
p3435
sg47
I339
sg48
I1736
sbag0
(g23
g2
Ntp3436
Rp3437
(dp3438
g27
(dp3439
g29
Vcoach
p3440
sg31
VO
p3441
sg33
VNNS
p3442
sg35
I5
ssg10
I340
sg36
g4
sg37
(dp3443
sg39
(dp3444
sg41
I1737
sg42
g21
sg43
g21
sg44
I340
sg45
Vcoaches
p3445
sg47
I340
sg48
I1744
sbag0
(g23
g2
Ntp3446
Rp3447
(dp3448
g27
(dp3449
g29
Vhope
p3450
sg31
VO
p3451
sg33
VVBD
p3452
sg35
I6
ssg10
I341
sg36
g4
sg37
(dp3453
sg39
(dp3454
sg41
I1745
sg42
g21
sg43
g21
sg44
I341
sg45
Vhoped
p3455
sg47
I341
sg48
I1750
sbag0
(g23
g2
Ntp3456
Rp3457
(dp3458
g27
(dp3459
g29
Vfor
p3460
sg31
VO
p3461
sg33
VIN
p3462
sg35
I7
ssg10
I342
sg36
g4
sg37
(dp3463
sg39
(dp3464
sg41
I1751
sg42
g21
sg43
g21
sg44
I342
sg45
Vfor
p3465
sg47
I342
sg48
I1754
sbag0
(g23
g2
Ntp3466
Rp3467
(dp3468
g27
(dp3469
g29
Vbe
p3470
sg31
VO
p3471
sg33
VVBD
p3472
sg35
I8
ssg10
I343
sg36
g4
sg37
(dp3473
sg39
(dp3474
sg41
I1755
sg42
g21
sg43
g21
sg44
I343
sg45
Vwas
p3475
sg47
I343
sg48
I1758
sbag0
(g23
g2
Ntp3476
Rp3477
(dp3478
g27
(dp3479
g29
Vthat
p3480
sg31
VO
p3481
sg33
VIN
p3482
sg35
I9
ssg10
I344
sg36
g4
sg37
(dp3483
sg39
(dp3484
sg41
I1759
sg42
g21
sg43
g21
sg44
I344
sg45
Vthat
p3485
sg47
I344
sg48
I1763
sbag0
(g23
g2
Ntp3486
Rp3487
(dp3488
g27
(dp3489
g29
Veach
p3490
sg31
VO
p3491
sg33
VDT
p3492
sg35
I10
ssg10
I345
sg36
g4
sg37
(dp3493
sg39
(dp3494
sg41
I1764
sg42
g21
sg43
g21
sg44
I345
sg45
Veach
p3495
sg47
I345
sg48
I1768
sbag0
(g23
g2
Ntp3496
Rp3497
(dp3498
g27
(dp3499
g29
Vfighter
p3500
sg31
VO
p3501
sg33
VNN
p3502
sg35
I11
ssg10
I346
sg36
g4
sg37
(dp3503
sg39
(dp3504
sg41
I1769
sg42
g21
sg43
g21
sg44
I346
sg45
Vfighter
p3505
sg47
I346
sg48
I1776
sbag0
(g23
g2
Ntp3506
Rp3507
(dp3508
g27
(dp3509
g29
Vmight
p3510
sg31
VO
p3511
sg33
VMD
p3512
sg35
I12
ssg10
I347
sg36
g4
sg37
(dp3513
sg39
(dp3514
sg41
I1777
sg42
g21
sg43
g21
sg44
I347
sg45
Vmight
p3515
sg47
I347
sg48
I1782
sbag0
(g23
g2
Ntp3516
Rp3517
(dp3518
g27
(dp3519
g29
Vstay
p3520
sg31
VO
p3521
sg33
VVB
p3522
sg35
I13
ssg10
I348
sg36
g4
sg37
(dp3523
sg39
(dp3524
sg41
I1783
sg42
g21
sg43
g21
sg44
I348
sg45
Vstay
p3525
sg47
I348
sg48
I1787
sbag0
(g23
g2
Ntp3526
Rp3527
(dp3528
g27
(dp3529
g29
Von
p3530
sg31
VO
p3531
sg33
VIN
p3532
sg35
I14
ssg10
I349
sg36
g4
sg37
(dp3533
sg39
(dp3534
sg41
I1788
sg42
g21
sg43
g21
sg44
I349
sg45
Von
p3535
sg47
I349
sg48
I1790
sbag0
(g23
g2
Ntp3536
Rp3537
(dp3538
g27
(dp3539
g29
Vhe
p3540
sg31
VO
p3541
sg33
VPRP$
p3542
sg35
I15
ssg10
I350
sg36
g4
sg37
(dp3543
sg39
(dp3544
sg41
I1791
sg42
g21
sg43
g21
sg44
I350
sg45
Vhis
p3545
sg47
I350
sg48
I1794
sbag0
(g23
g2
Ntp3546
Rp3547
(dp3548
g27
(dp3549
g29
Vfoot
p3550
sg31
VO
p3551
sg33
VNNS
p3552
sg35
I16
ssg10
I351
sg36
g4
sg37
(dp3553
sg39
(dp3554
sg41
I1795
sg42
g21
sg43
g21
sg44
I351
sg45
Vfeet
p3555
sg47
I351
sg48
I1799
sbag0
(g23
g2
Ntp3556
Rp3557
(dp3558
g27
(dp3559
g29
Va
p3560
sg31
VO
p3561
sg33
VDT
p3562
sg35
I17
ssg10
I352
sg36
g4
sg37
(dp3563
sg39
(dp3564
sg41
I1800
sg42
g21
sg43
g21
sg44
I352
sg45
Va
p3565
sg47
I352
sg48
I1801
sbag0
(g23
g2
Ntp3566
Rp3567
(dp3568
g27
(dp3569
g29
Vbit
p3570
sg31
VO
p3571
sg33
VRB
p3572
sg35
I18
ssg10
I353
sg36
g4
sg37
(dp3573
sg39
(dp3574
sg41
I1802
sg42
g21
sg43
g21
sg44
I353
sg45
Vbit
p3575
sg47
I353
sg48
I1805
sbag0
(g23
g2
Ntp3576
Rp3577
(dp3578
g27
(dp3579
g29
Vlonger
p3580
sg31
VO
p3581
sg33
VJJR
p3582
sg35
I19
ssg10
I354
sg36
g4
sg37
(dp3583
sg39
(dp3584
sg41
I1806
sg42
g21
sg43
g21
sg44
I354
sg45
Vlonger
p3585
sg47
I354
sg48
I1812
sbag0
(g23
g2
Ntp3586
Rp3587
(dp3588
g27
(dp3589
g29
Vthan
p3590
sg31
VO
p3591
sg33
VIN
p3592
sg35
I20
ssg10
I355
sg36
g4
sg37
(dp3593
sg39
(dp3594
sg41
I1813
sg42
g21
sg43
g21
sg44
I355
sg45
Vthan
p3595
sg47
I355
sg48
I1817
sbag0
(g23
g2
Ntp3596
Rp3597
(dp3598
g27
(dp3599
g29
Vthe
p3600
sg31
VO
p3601
sg33
VDT
p3602
sg35
I21
ssg10
I356
sg36
g4
sg37
(dp3603
sg39
(dp3604
sg41
I1818
sg42
g21
sg43
g21
sg44
I356
sg45
Vthe
p3605
sg47
I356
sg48
I1821
sbag0
(g23
g2
Ntp3606
Rp3607
(dp3608
g27
(dp3609
g29
Vone
p3610
sg31
VNUMBER
p3611
sg33
VCD
p3612
sg35
I22
ssg10
I357
sg36
g4
sg37
(dp3613
sg39
(dp3614
sg41
I1822
sg42
g21
sg43
g21
sg44
I357
sg45
Vone
p3615
sg47
I357
sg48
I1825
sbag0
(g23
g2
Ntp3616
Rp3617
(dp3618
g27
(dp3619
g29
Vbefore
p3620
sg31
VO
p3621
sg33
VIN
p3622
sg35
I23
ssg10
I358
sg36
g4
sg37
(dp3623
sg39
(dp3624
sg41
I1826
sg42
g21
sg43
g21
sg44
I358
sg45
Vbefore
p3625
sg47
I358
sg48
I1832
sbag0
(g23
g2
Ntp3626
Rp3627
(dp3628
g27
(dp3629
g29
Vhe
p3630
sg31
VO
p3631
sg33
VPRP
p3632
sg35
I24
ssg10
I359
sg36
g4
sg37
(dp3633
sg39
(dp3634
sg41
I1833
sg42
g21
sg43
g21
sg44
I359
sg45
Vhim
p3635
sg47
I359
sg48
I1836
sbag0
(g23
g2
Ntp3636
Rp3637
(dp3638
g27
(dp3639
g29
V.
p3640
sg31
VO
p3641
sg33
V.
p3642
sg35
I25
ssg10
I360
sg36
g4
sg37
(dp3643
sg39
(dp3644
sg41
I1836
sg42
g21
sg43
g21
sg44
I360
sg45
V.
p3645
sg47
I360
sg48
I1837
sbag0
(g23
g2
Ntp3646
Rp3647
(dp3648
g27
(dp3649
g29
Vit
p3650
sg31
VO
p3651
sg33
VPRP
p3652
sg35
I1
ssg10
I361
sg36
g4
sg37
(dp3653
sg39
(dp3654
sg41
I1839
sg42
g21
sg43
g21
sg44
I361
sg45
VIt
p3655
sg47
I361
sg48
I1841
sbag0
(g23
g2
Ntp3656
Rp3657
(dp3658
g27
(dp3659
g29
Vbe
p3660
sg31
VO
p3661
sg33
VVBD
p3662
sg35
I2
ssg10
I362
sg36
g4
sg37
(dp3663
sg39
(dp3664
sg41
I1842
sg42
g21
sg43
g21
sg44
I362
sg45
Vwas
p3665
sg47
I362
sg48
I1845
sbag0
(g23
g2
Ntp3666
Rp3667
(dp3668
g27
(dp3669
g29
Vuntil
p3670
sg31
VO
p3671
sg33
VIN
p3672
sg35
I3
ssg10
I363
sg36
g4
sg37
(dp3673
sg39
(dp3674
sg41
I1846
sg42
g21
sg43
g21
sg44
I363
sg45
Vuntil
p3675
sg47
I363
sg48
I1851
sbag0
(g23
g2
Ntp3676
Rp3677
(dp3678
g27
(dp3679
g29
Vthe
p3680
sg31
VDATE
p3681
sg33
VDT
p3682
sg35
I4
ssg10
I364
sg36
g4
sg37
(dp3683
sg39
(dp3684
sg41
I1852
sg42
g21
sg43
g21
sg44
I364
sg45
Vthe
p3685
sg47
I364
sg48
I1855
sbag0
(g23
g2
Ntp3686
Rp3687
(dp3688
g27
(dp3689
g29
V2004
p3690
sg31
VDATE
p3691
sg33
VCD
p3692
sg35
I5
ssg10
I365
sg36
g4
sg37
(dp3693
sg39
(dp3694
sg41
I1856
sg42
g21
sg43
g21
sg44
I365
sg45
V2004
p3695
sg47
I365
sg48
I1860
sbag0
(g23
g2
Ntp3696
Rp3697
(dp3698
g27
(dp3699
g29
Vsummer
p3700
sg31
VDATE
p3701
sg33
VNN
p3702
sg35
I6
ssg10
I366
sg36
g4
sg37
(dp3703
sg39
(dp3704
sg41
I1861
sg42
g21
sg43
g21
sg44
I366
sg45
VSummer
p3705
sg47
I366
sg48
I1867
sbag0
(g23
g2
Ntp3706
Rp3707
(dp3708
g27
(dp3709
g29
VOlympics
p3710
sg31
VMISC
p3711
sg33
VNNPS
p3712
sg35
I7
ssg10
I367
sg36
g4
sg37
(dp3713
sg39
(dp3714
sg41
I1868
sg42
g21
sg43
g21
sg44
I367
sg45
VOlympics
p3715
sg47
I367
sg48
I1876
sbag0
(g23
g2
Ntp3716
Rp3717
(dp3718
g27
(dp3719
g29
Vin
p3720
sg31
VO
p3721
sg33
VIN
p3722
sg35
I8
ssg10
I368
sg36
g4
sg37
(dp3723
sg39
(dp3724
sg41
I1877
sg42
g21
sg43
g21
sg44
I368
sg45
Vin
p3725
sg47
I368
sg48
I1879
sbag0
(g23
g2
Ntp3726
Rp3727
(dp3728
g27
(dp3729
g29
VAthens
p3730
sg31
VLOCATION
p3731
sg33
VNNP
p3732
sg35
I9
ssg10
I369
sg36
g4
sg37
(dp3733
sg39
(dp3734
sg41
I1880
sg42
g21
sg43
g21
sg44
I369
sg45
VAthens
p3735
sg47
I369
sg48
I1886
sbag0
(g23
g2
Ntp3736
Rp3737
(dp3738
g27
(dp3739
g29
Vthat
p3740
sg31
VO
p3741
sg33
VWDT
p3742
sg35
I10
ssg10
I370
sg36
g4
sg37
(dp3743
sg39
(dp3744
sg41
I1887
sg42
g21
sg43
g21
sg44
I370
sg45
Vthat
p3745
sg47
I370
sg48
I1891
sbag0
(g23
g2
Ntp3746
Rp3747
(dp3748
g27
(dp3749
g29
VZou
p3750
sg31
VPERSON
p3751
sg33
VNNP
p3752
sg35
I11
ssg10
I371
sg36
g4
sg37
(dp3753
sg39
(dp3754
sg41
I1892
sg42
g21
sg43
g21
sg44
I371
sg45
VZou
p3755
sg47
I371
sg48
I1895
sbag0
(g23
g2
Ntp3756
Rp3757
(dp3758
g27
(dp3759
g29
VShiming
p3760
sg31
VPERSON
p3761
sg33
VNNP
p3762
sg35
I12
ssg10
I372
sg36
g4
sg37
(dp3763
sg39
(dp3764
sg41
I1896
sg42
g21
sg43
g21
sg44
I372
sg45
VShiming
p3765
sg47
I372
sg48
I1903
sbag0
(g23
g2
Ntp3766
Rp3767
(dp3768
g27
(dp3769
g29
Vclaim
p3770
sg31
VO
p3771
sg33
VVBD
p3772
sg35
I13
ssg10
I373
sg36
g4
sg37
(dp3773
sg39
(dp3774
sg41
I1904
sg42
g21
sg43
g21
sg44
I373
sg45
Vclaimed
p3775
sg47
I373
sg48
I1911
sbag0
(g23
g2
Ntp3776
Rp3777
(dp3778
g27
(dp3779
g29
VChina
p3780
sg31
VLOCATION
p3781
sg33
VNNP
p3782
sg35
I14
ssg10
I374
sg36
g4
sg37
(dp3783
sg39
(dp3784
sg41
I1912
sg42
g21
sg43
g21
sg44
I374
sg45
VChina
p3785
sg47
I374
sg48
I1917
sbag0
(g23
g2
Ntp3786
Rp3787
(dp3788
g27
(dp3789
g29
V's
p3790
sg31
VO
p3791
sg33
VPOS
p3792
sg35
I15
ssg10
I375
sg36
g4
sg37
(dp3793
sg39
(dp3794
sg41
I1917
sg42
g21
sg43
g21
sg44
I375
sg45
V's
p3795
sg47
I375
sg48
I1919
sbag0
(g23
g2
Ntp3796
Rp3797
(dp3798
g27
(dp3799
g29
Vfirst
p3800
sg31
VORDINAL
p3801
sg33
VJJ
p3802
sg35
I16
ssg10
I376
sg36
g4
sg37
(dp3803
sg39
(dp3804
sg41
I1920
sg42
g21
sg43
g21
sg44
I376
sg45
Vfirst
p3805
sg47
I376
sg48
I1925
sbag0
(g23
g2
Ntp3806
Rp3807
(dp3808
g27
(dp3809
g29
Vboxing
p3810
sg31
VO
p3811
sg33
VNN
p3812
sg35
I17
ssg10
I377
sg36
g4
sg37
(dp3813
sg39
(dp3814
sg41
I1926
sg42
g21
sg43
g21
sg44
I377
sg45
Vboxing
p3815
sg47
I377
sg48
I1932
sbag0
(g23
g2
Ntp3816
Rp3817
(dp3818
g27
(dp3819
g29
Vmedal
p3820
sg31
VO
p3821
sg33
VNN
p3822
sg35
I18
ssg10
I378
sg36
g4
sg37
(dp3823
sg39
(dp3824
sg41
I1933
sg42
g21
sg43
g21
sg44
I378
sg45
Vmedal
p3825
sg47
I378
sg48
I1938
sbag0
(g23
g2
Ntp3826
Rp3827
(dp3828
g27
(dp3829
g29
V.
p3830
sg31
VO
p3831
sg33
V.
p3832
sg35
I19
ssg10
I379
sg36
g4
sg37
(dp3833
sg39
(dp3834
sg41
I1938
sg42
g21
sg43
g21
sg44
I379
sg45
V.
p3835
sg47
I379
sg48
I1939
sbag0
(g23
g2
Ntp3836
Rp3837
(dp3838
g27
(dp3839
g29
Vhe
p3840
sg31
VO
p3841
sg33
VPRP
p3842
sg35
I1
ssg10
I380
sg36
g4
sg37
(dp3843
sg39
(dp3844
sg41
I1940
sg42
g21
sg43
g21
sg44
I380
sg45
VHe
p3845
sg47
I380
sg48
I1942
sbag0
(g23
g2
Ntp3846
Rp3847
(dp3848
g27
(dp3849
g29
Veventually
p3850
sg31
VO
p3851
sg33
VRB
p3852
sg35
I2
ssg10
I381
sg36
g4
sg37
(dp3853
sg39
(dp3854
sg41
I1943
sg42
g21
sg43
g21
sg44
I381
sg45
Veventually
p3855
sg47
I381
sg48
I1953
sbag0
(g23
g2
Ntp3856
Rp3857
(dp3858
g27
(dp3859
g29
Vmake
p3860
sg31
VO
p3861
sg33
VVBD
p3862
sg35
I3
ssg10
I382
sg36
g4
sg37
(dp3863
sg39
(dp3864
sg41
I1954
sg42
g21
sg43
g21
sg44
I382
sg45
Vmade
p3865
sg47
I382
sg48
I1958
sbag0
(g23
g2
Ntp3866
Rp3867
(dp3868
g27
(dp3869
g29
Vit
p3870
sg31
VO
p3871
sg33
VPRP
p3872
sg35
I4
ssg10
I383
sg36
g4
sg37
(dp3873
sg39
(dp3874
sg41
I1959
sg42
g21
sg43
g21
sg44
I383
sg45
Vit
p3875
sg47
I383
sg48
I1961
sbag0
(g23
g2
Ntp3876
Rp3877
(dp3878
g27
(dp3879
g29
Vinto
p3880
sg31
VO
p3881
sg33
VIN
p3882
sg35
I5
ssg10
I384
sg36
g4
sg37
(dp3883
sg39
(dp3884
sg41
I1962
sg42
g21
sg43
g21
sg44
I384
sg45
Vinto
p3885
sg47
I384
sg48
I1966
sbag0
(g23
g2
Ntp3886
Rp3887
(dp3888
g27
(dp3889
g29
Vthe
p3890
sg31
VO
p3891
sg33
VDT
p3892
sg35
I6
ssg10
I385
sg36
g4
sg37
(dp3893
sg39
(dp3894
sg41
I1967
sg42
g21
sg43
g21
sg44
I385
sg45
Vthe
p3895
sg47
I385
sg48
I1970
sbag0
(g23
g2
Ntp3896
Rp3897
(dp3898
g27
(dp3899
g29
Vsemifinal
p3900
sg31
VO
p3901
sg33
VNNS
p3902
sg35
I7
ssg10
I386
sg36
g4
sg37
(dp3903
sg39
(dp3904
sg41
I1971
sg42
g21
sg43
g21
sg44
I386
sg45
Vsemifinals
p3905
sg47
I386
sg48
I1981
sbag0
(g23
g2
Ntp3906
Rp3907
(dp3908
g27
(dp3909
g29
Vand
p3910
sg31
VO
p3911
sg33
VCC
p3912
sg35
I8
ssg10
I387
sg36
g4
sg37
(dp3913
sg39
(dp3914
sg41
I1982
sg42
g21
sg43
g21
sg44
I387
sg45
Vand
p3915
sg47
I387
sg48
I1985
sbag0
(g23
g2
Ntp3916
Rp3917
(dp3918
g27
(dp3919
g29
Vwin
p3920
sg31
VO
p3921
sg33
VVBD
p3922
sg35
I9
ssg10
I388
sg36
g4
sg37
(dp3923
sg39
(dp3924
sg41
I1986
sg42
g21
sg43
g21
sg44
I388
sg45
Vwon
p3925
sg47
I388
sg48
I1989
sbag0
(g23
g2
Ntp3926
Rp3927
(dp3928
g27
(dp3929
g29
Va
p3930
sg31
VO
p3931
sg33
VDT
p3932
sg35
I10
ssg10
I389
sg36
g4
sg37
(dp3933
sg39
(dp3934
sg41
I1990
sg42
g21
sg43
g21
sg44
I389
sg45
Va
p3935
sg47
I389
sg48
I1991
sbag0
(g23
g2
Ntp3936
Rp3937
(dp3938
g27
(dp3939
g29
Vbronze
p3940
sg31
VO
p3941
sg33
VNN
p3942
sg35
I11
ssg10
I390
sg36
g4
sg37
(dp3943
sg39
(dp3944
sg41
I1992
sg42
g21
sg43
g21
sg44
I390
sg45
Vbronze
p3945
sg47
I390
sg48
I1998
sbag0
(g23
g2
Ntp3946
Rp3947
(dp3948
g27
(dp3949
g29
V.
p3950
sg31
VO
p3951
sg33
V.
p3952
sg35
I12
ssg10
I391
sg36
g4
sg37
(dp3953
sg39
(dp3954
sg41
I1998
sg42
g21
sg43
g21
sg44
I391
sg45
V.
p3955
sg47
I391
sg48
I1999
sbag0
(g23
g2
Ntp3956
Rp3957
(dp3958
g27
(dp3959
g29
Vthis
p3960
sg31
VO
p3961
sg33
VDT
p3962
sg35
I1
ssg10
I392
sg36
g4
sg37
(dp3963
sg39
(dp3964
sg41
I2000
sg42
g21
sg43
g21
sg44
I392
sg45
VThis
p3965
sg47
I392
sg48
I2004
sbag0
(g23
g2
Ntp3966
Rp3967
(dp3968
g27
(dp3969
g29
Vachievement
p3970
sg31
VO
p3971
sg33
VNN
p3972
sg35
I2
ssg10
I393
sg36
g4
sg37
(dp3973
sg39
(dp3974
sg41
I2005
sg42
g21
sg43
g21
sg44
I393
sg45
Vachievement
p3975
sg47
I393
sg48
I2016
sbag0
(g23
g2
Ntp3976
Rp3977
(dp3978
g27
(dp3979
g29
Vbe
p3980
sg31
VO
p3981
sg33
VVBD
p3982
sg35
I3
ssg10
I394
sg36
g4
sg37
(dp3983
sg39
(dp3984
sg41
I2017
sg42
g21
sg43
g21
sg44
I394
sg45
Vwas
p3985
sg47
I394
sg48
I2020
sbag0
(g23
g2
Ntp3986
Rp3987
(dp3988
g27
(dp3989
g29
Vgreet
p3990
sg31
VO
p3991
sg33
VVBN
p3992
sg35
I4
ssg10
I395
sg36
g4
sg37
(dp3993
sg39
(dp3994
sg41
I2021
sg42
g21
sg43
g21
sg44
I395
sg45
Vgreeted
p3995
sg47
I395
sg48
I2028
sbag0
(g23
g2
Ntp3996
Rp3997
(dp3998
g27
(dp3999
g29
Vwith
p4000
sg31
VO
p4001
sg33
VIN
p4002
sg35
I5
ssg10
I396
sg36
g4
sg37
(dp4003
sg39
(dp4004
sg41
I2029
sg42
g21
sg43
g21
sg44
I396
sg45
Vwith
p4005
sg47
I396
sg48
I2033
sbag0
(g23
g2
Ntp4006
Rp4007
(dp4008
g27
(dp4009
g29
Vrapturous
p4010
sg31
VO
p4011
sg33
VJJ
p4012
sg35
I6
ssg10
I397
sg36
g4
sg37
(dp4013
sg39
(dp4014
sg41
I2034
sg42
g21
sg43
g21
sg44
I397
sg45
Vrapturous
p4015
sg47
I397
sg48
I2043
sbag0
(g23
g2
Ntp4016
Rp4017
(dp4018
g27
(dp4019
g29
Vapplause
p4020
sg31
VO
p4021
sg33
VNN
p4022
sg35
I7
ssg10
I398
sg36
g4
sg37
(dp4023
sg39
(dp4024
sg41
I2044
sg42
g21
sg43
g21
sg44
I398
sg45
Vapplause
p4025
sg47
I398
sg48
I2052
sbag0
(g23
g2
Ntp4026
Rp4027
(dp4028
g27
(dp4029
g29
Vand
p4030
sg31
VO
p4031
sg33
VCC
p4032
sg35
I8
ssg10
I399
sg36
g4
sg37
(dp4033
sg39
(dp4034
sg41
I2053
sg42
g21
sg43
g21
sg44
I399
sg45
Vand
p4035
sg47
I399
sg48
I2056
sbag0
(g23
g2
Ntp4036
Rp4037
(dp4038
g27
(dp4039
g29
Vchinese
p4040
sg31
VMISC
p4041
sg33
VJJ
p4042
sg35
I9
ssg10
I400
sg36
g4
sg37
(dp4043
sg39
(dp4044
sg41
I2057
sg42
g21
sg43
g21
sg44
I400
sg45
VChinese
p4045
sg47
I400
sg48
I2064
sbag0
(g23
g2
Ntp4046
Rp4047
(dp4048
g27
(dp4049
g29
Vreporter
p4050
sg31
VO
p4051
sg33
VNNS
p4052
sg35
I10
ssg10
I401
sg36
g4
sg37
(dp4053
sg39
(dp4054
sg41
I2065
sg42
g21
sg43
g21
sg44
I401
sg45
Vreporters
p4055
sg47
I401
sg48
I2074
sbag0
(g23
g2
Ntp4056
Rp4057
(dp4058
g27
(dp4059
g29
Vnickname
p4060
sg31
VO
p4061
sg33
VVBN
p4062
sg35
I11
ssg10
I402
sg36
g4
sg37
(dp4063
sg39
(dp4064
sg41
I2075
sg42
g21
sg43
g21
sg44
I402
sg45
Vnicknamed
p4065
sg47
I402
sg48
I2084
sbag0
(g23
g2
Ntp4066
Rp4067
(dp4068
g27
(dp4069
g29
Vhe
p4070
sg31
VO
p4071
sg33
VPRP
p4072
sg35
I12
ssg10
I403
sg36
g4
sg37
(dp4073
sg39
(dp4074
sg41
I2085
sg42
g21
sg43
g21
sg44
I403
sg45
Vhim
p4075
sg47
I403
sg48
I2088
sbag0
(g23
g2
Ntp4076
Rp4077
(dp4078
g27
(dp4079
g29
Vthe
p4080
sg31
VO
p4081
sg33
VDT
p4082
sg35
I13
ssg10
I404
sg36
g4
sg37
(dp4083
sg39
(dp4084
sg41
I2089
sg42
g21
sg43
g21
sg44
I404
sg45
Vthe
p4085
sg47
I404
sg48
I2092
sbag0
(g23
g2
Ntp4086
Rp4087
(dp4088
g27
(dp4089
g29
Vdark
p4090
sg31
VO
p4091
sg33
VJJ
p4092
sg35
I14
ssg10
I405
sg36
g4
sg37
(dp4093
sg39
(dp4094
sg41
I2093
sg42
g21
sg43
g21
sg44
I405
sg45
VDark
p4095
sg47
I405
sg48
I2097
sbag0
(g23
g2
Ntp4096
Rp4097
(dp4098
g27
(dp4099
g29
Vhorse
p4100
sg31
VO
p4101
sg33
VNN
p4102
sg35
I15
ssg10
I406
sg36
g4
sg37
(dp4103
sg39
(dp4104
sg41
I2098
sg42
g21
sg43
g21
sg44
I406
sg45
VHorse
p4105
sg47
I406
sg48
I2103
sbag0
(g23
g2
Ntp4106
Rp4107
(dp4108
g27
(dp4109
g29
Vat
p4110
sg31
VO
p4111
sg33
VIN
p4112
sg35
I16
ssg10
I407
sg36
g4
sg37
(dp4113
sg39
(dp4114
sg41
I2104
sg42
g21
sg43
g21
sg44
I407
sg45
Vat
p4115
sg47
I407
sg48
I2106
sbag0
(g23
g2
Ntp4116
Rp4117
(dp4118
g27
(dp4119
g29
Vfirst
p4120
sg31
VORDINAL
p4121
sg33
VJJ
p4122
sg35
I17
ssg10
I408
sg36
g4
sg37
(dp4123
sg39
(dp4124
sg41
I2107
sg42
g21
sg43
g21
sg44
I408
sg45
Vfirst
p4125
sg47
I408
sg48
I2112
sbag0
(g23
g2
Ntp4126
Rp4127
(dp4128
g27
(dp4129
g29
Vbecause
p4130
sg31
VO
p4131
sg33
VIN
p4132
sg35
I18
ssg10
I409
sg36
g4
sg37
(dp4133
sg39
(dp4134
sg41
I2113
sg42
g21
sg43
g21
sg44
I409
sg45
Vbecause
p4135
sg47
I409
sg48
I2120
sbag0
(g23
g2
Ntp4136
Rp4137
(dp4138
g27
(dp4139
g29
Vof
p4140
sg31
VO
p4141
sg33
VIN
p4142
sg35
I19
ssg10
I410
sg36
g4
sg37
(dp4143
sg39
(dp4144
sg41
I2121
sg42
g21
sg43
g21
sg44
I410
sg45
Vof
p4145
sg47
I410
sg48
I2123
sbag0
(g23
g2
Ntp4146
Rp4147
(dp4148
g27
(dp4149
g29
Vhe
p4150
sg31
VO
p4151
sg33
VPRP$
p4152
sg35
I20
ssg10
I411
sg36
g4
sg37
(dp4153
sg39
(dp4154
sg41
I2124
sg42
g21
sg43
g21
sg44
I411
sg45
Vhis
p4155
sg47
I411
sg48
I2127
sbag0
(g23
g2
Ntp4156
Rp4157
(dp4158
g27
(dp4159
g29
Vunderdog
p4160
sg31
VO
p4161
sg33
VNN
p4162
sg35
I21
ssg10
I412
sg36
g4
sg37
(dp4163
sg39
(dp4164
sg41
I2128
sg42
g21
sg43
g21
sg44
I412
sg45
Vunderdog
p4165
sg47
I412
sg48
I2136
sbag0
(g23
g2
Ntp4166
Rp4167
(dp4168
g27
(dp4169
g29
Vstatus
p4170
sg31
VO
p4171
sg33
VNN
p4172
sg35
I22
ssg10
I413
sg36
g4
sg37
(dp4173
sg39
(dp4174
sg41
I2137
sg42
g21
sg43
g21
sg44
I413
sg45
Vstatus
p4175
sg47
I413
sg48
I2143
sbag0
(g23
g2
Ntp4176
Rp4177
(dp4178
g27
(dp4179
g29
V.
p4180
sg31
VO
p4181
sg33
V.
p4182
sg35
I23
ssg10
I414
sg36
g4
sg37
(dp4183
sg39
(dp4184
sg41
I2143
sg42
g21
sg43
g21
sg44
I414
sg45
V.
p4185
sg47
I414
sg48
I2144
sbag0
(g23
g2
Ntp4186
Rp4187
(dp4188
g27
(dp4189
g29
Vlater
p4190
sg31
VO
p4191
sg33
VRB
p4192
sg35
I1
ssg10
I415
sg36
g4
sg37
(dp4193
sg39
(dp4194
sg41
I2145
sg42
g21
sg43
g21
sg44
I415
sg45
VLater
p4195
sg47
I415
sg48
I2150
sbag0
(g23
g2
Ntp4196
Rp4197
(dp4198
g27
(dp4199
g29
V,
p4200
sg31
VO
p4201
sg33
V,
p4202
sg35
I2
ssg10
I416
sg36
g4
sg37
(dp4203
sg39
(dp4204
sg41
I2150
sg42
g21
sg43
g21
sg44
I416
sg45
V,
p4205
sg47
I416
sg48
I2151
sbag0
(g23
g2
Ntp4206
Rp4207
(dp4208
g27
(dp4209
g29
Vthey
p4210
sg31
VO
p4211
sg33
VPRP
p4212
sg35
I3
ssg10
I417
sg36
g4
sg37
(dp4213
sg39
(dp4214
sg41
I2152
sg42
g21
sg43
g21
sg44
I417
sg45
Vthey
p4215
sg47
I417
sg48
I2156
sbag0
(g23
g2
Ntp4216
Rp4217
(dp4218
g27
(dp4219
g29
Vtry
p4220
sg31
VO
p4221
sg33
VVBD
p4222
sg35
I4
ssg10
I418
sg36
g4
sg37
(dp4223
sg39
(dp4224
sg41
I2157
sg42
g21
sg43
g21
sg44
I418
sg45
Vtried
p4225
sg47
I418
sg48
I2162
sbag0
(g23
g2
Ntp4226
Rp4227
(dp4228
g27
(dp4229
g29
Vthe
p4230
sg31
VO
p4231
sg33
VDT
p4232
sg35
I5
ssg10
I419
sg36
g4
sg37
(dp4233
sg39
(dp4234
sg41
I2163
sg42
g21
sg43
g21
sg44
I419
sg45
Vthe
p4235
sg47
I419
sg48
I2166
sbag0
(g23
g2
Ntp4236
Rp4237
(dp4238
g27
(dp4239
g29
VKnight
p4240
sg31
VO
p4241
sg33
VNNP
p4242
sg35
I6
ssg10
I420
sg36
g4
sg37
(dp4243
sg39
(dp4244
sg41
I2167
sg42
g21
sg43
g21
sg44
I420
sg45
VKnight
p4245
sg47
I420
sg48
I2173
sbag0
(g23
g2
Ntp4246
Rp4247
(dp4248
g27
(dp4249
g29
Vof
p4250
sg31
VO
p4251
sg33
VIN
p4252
sg35
I7
ssg10
I421
sg36
g4
sg37
(dp4253
sg39
(dp4254
sg41
I2174
sg42
g21
sg43
g21
sg44
I421
sg45
Vof
p4255
sg47
I421
sg48
I2176
sbag0
(g23
g2
Ntp4256
Rp4257
(dp4258
g27
(dp4259
g29
VLightning
p4260
sg31
VO
p4261
sg33
VNNP
p4262
sg35
I8
ssg10
I422
sg36
g4
sg37
(dp4263
sg39
(dp4264
sg41
I2177
sg42
g21
sg43
g21
sg44
I422
sg45
VLightning
p4265
sg47
I422
sg48
I2186
sbag0
(g23
g2
Ntp4266
Rp4267
(dp4268
g27
(dp4269
g29
Vor
p4270
sg31
VO
p4271
sg33
VCC
p4272
sg35
I9
ssg10
I423
sg36
g4
sg37
(dp4273
sg39
(dp4274
sg41
I2187
sg42
g21
sg43
g21
sg44
I423
sg45
Vor
p4275
sg47
I423
sg48
I2189
sbag0
(g23
g2
Ntp4276
Rp4277
(dp4278
g27
(dp4279
g29
Vthe
p4280
sg31
VO
p4281
sg33
VDT
p4282
sg35
I10
ssg10
I424
sg36
g4
sg37
(dp4283
sg39
(dp4284
sg41
I2190
sg42
g21
sg43
g21
sg44
I424
sg45
Vthe
p4285
sg47
I424
sg48
I2193
sbag0
(g23
g2
Ntp4286
Rp4287
(dp4288
g27
(dp4289
g29
VFox
p4290
sg31
VPERSON
p4291
sg33
VNNP
p4292
sg35
I11
ssg10
I425
sg36
g4
sg37
(dp4293
sg39
(dp4294
sg41
I2194
sg42
g21
sg43
g21
sg44
I425
sg45
VFox
p4295
sg47
I425
sg48
I2197
sbag0
(g23
g2
Ntp4296
Rp4297
(dp4298
g27
(dp4299
g29
Vor
p4300
sg31
VO
p4301
sg33
VCC
p4302
sg35
I12
ssg10
I426
sg36
g4
sg37
(dp4303
sg39
(dp4304
sg41
I2198
sg42
g21
sg43
g21
sg44
I426
sg45
Vor
p4305
sg47
I426
sg48
I2200
sbag0
(g23
g2
Ntp4306
Rp4307
(dp4308
g27
(dp4309
g29
V,
p4310
sg31
VO
p4311
sg33
V,
p4312
sg35
I13
ssg10
I427
sg36
g4
sg37
(dp4313
sg39
(dp4314
sg41
I2200
sg42
g21
sg43
g21
sg44
I427
sg45
V,
p4315
sg47
I427
sg48
I2201
sbag0
(g23
g2
Ntp4316
Rp4317
(dp4318
g27
(dp4319
g29
Vsometimes
p4320
sg31
VO
p4321
sg33
VRB
p4322
sg35
I14
ssg10
I428
sg36
g4
sg37
(dp4323
sg39
(dp4324
sg41
I2202
sg42
g21
sg43
g21
sg44
I428
sg45
Vsometimes
p4325
sg47
I428
sg48
I2211
sbag0
(g23
g2
Ntp4326
Rp4327
(dp4328
g27
(dp4329
g29
V,
p4330
sg31
VO
p4331
sg33
V,
p4332
sg35
I15
ssg10
I429
sg36
g4
sg37
(dp4333
sg39
(dp4334
sg41
I2211
sg42
g21
sg43
g21
sg44
I429
sg45
V,
p4335
sg47
I429
sg48
I2212
sbag0
(g23
g2
Ntp4336
Rp4337
(dp4338
g27
(dp4339
g29
Vthe
p4340
sg31
VO
p4341
sg33
VDT
p4342
sg35
I16
ssg10
I430
sg36
g4
sg37
(dp4343
sg39
(dp4344
sg41
I2213
sg42
g21
sg43
g21
sg44
I430
sg45
Vthe
p4345
sg47
I430
sg48
I2216
sbag0
(g23
g2
Ntp4346
Rp4347
(dp4348
g27
(dp4349
g29
VPirate
p4350
sg31
VO
p4351
sg33
VNNP
p4352
sg35
I17
ssg10
I431
sg36
g4
sg37
(dp4353
sg39
(dp4354
sg41
I2217
sg42
g21
sg43
g21
sg44
I431
sg45
VPirate
p4355
sg47
I431
sg48
I2223
sbag0
(g23
g2
Ntp4356
Rp4357
(dp4358
g27
(dp4359
g29
V,
p4360
sg31
VO
p4361
sg33
V,
p4362
sg35
I18
ssg10
I432
sg36
g4
sg37
(dp4363
sg39
(dp4364
sg41
I2223
sg42
g21
sg43
g21
sg44
I432
sg45
V,
p4365
sg47
I432
sg48
I2224
sbag0
(g23
g2
Ntp4366
Rp4367
(dp4368
g27
(dp4369
g29
Vall
p4370
sg31
VO
p4371
sg33
VDT
p4372
sg35
I19
ssg10
I433
sg36
g4
sg37
(dp4373
sg39
(dp4374
sg41
I2225
sg42
g21
sg43
g21
sg44
I433
sg45
Vall
p4375
sg47
I433
sg48
I2228
sbag0
(g23
g2
Ntp4376
Rp4377
(dp4378
g27
(dp4379
g29
Vcelebrate
p4380
sg31
VO
p4381
sg33
VVBG
p4382
sg35
I20
ssg10
I434
sg36
g4
sg37
(dp4383
sg39
(dp4384
sg41
I2229
sg42
g21
sg43
g21
sg44
I434
sg45
Vcelebrating
p4385
sg47
I434
sg48
I2240
sbag0
(g23
g2
Ntp4386
Rp4387
(dp4388
g27
(dp4389
g29
Vhe
p4390
sg31
VO
p4391
sg33
VPRP$
p4392
sg35
I21
ssg10
I435
sg36
g4
sg37
(dp4393
sg39
(dp4394
sg41
I2241
sg42
g21
sg43
g21
sg44
I435
sg45
Vhis
p4395
sg47
I435
sg48
I2244
sbag0
(g23
g2
Ntp4396
Rp4397
(dp4398
g27
(dp4399
g29
Vknack
p4400
sg31
VO
p4401
sg33
VNN
p4402
sg35
I22
ssg10
I436
sg36
g4
sg37
(dp4403
sg39
(dp4404
sg41
I2245
sg42
g21
sg43
g21
sg44
I436
sg45
Vknack
p4405
sg47
I436
sg48
I2250
sbag0
(g23
g2
Ntp4406
Rp4407
(dp4408
g27
(dp4409
g29
Vfor
p4410
sg31
VO
p4411
sg33
VIN
p4412
sg35
I23
ssg10
I437
sg36
g4
sg37
(dp4413
sg39
(dp4414
sg41
I2251
sg42
g21
sg43
g21
sg44
I437
sg45
Vfor
p4415
sg47
I437
sg48
I2254
sbag0
(g23
g2
Ntp4416
Rp4417
(dp4418
g27
(dp4419
g29
Vsnatch
p4420
sg31
VO
p4421
sg33
VVBG
p4422
sg35
I24
ssg10
I438
sg36
g4
sg37
(dp4423
sg39
(dp4424
sg41
I2255
sg42
g21
sg43
g21
sg44
I438
sg45
Vsnatching
p4425
sg47
I438
sg48
I2264
sbag0
(g23
g2
Ntp4426
Rp4427
(dp4428
g27
(dp4429
g29
Vpoint
p4430
sg31
VO
p4431
sg33
VNNS
p4432
sg35
I25
ssg10
I439
sg36
g4
sg37
(dp4433
sg39
(dp4434
sg41
I2265
sg42
g21
sg43
g21
sg44
I439
sg45
Vpoints
p4435
sg47
I439
sg48
I2271
sbag0
(g23
g2
Ntp4436
Rp4437
(dp4438
g27
(dp4439
g29
Vand
p4440
sg31
VO
p4441
sg33
VCC
p4442
sg35
I26
ssg10
I440
sg36
g4
sg37
(dp4443
sg39
(dp4444
sg41
I2272
sg42
g21
sg43
g21
sg44
I440
sg45
Vand
p4445
sg47
I440
sg48
I2275
sbag0
(g23
g2
Ntp4446
Rp4447
(dp4448
g27
(dp4449
g29
Vpeel
p4450
sg31
VO
p4451
sg33
VVBG
p4452
sg35
I27
ssg10
I441
sg36
g4
sg37
(dp4453
sg39
(dp4454
sg41
I2276
sg42
g21
sg43
g21
sg44
I441
sg45
Vpeeling
p4455
sg47
I441
sg48
I2283
sbag0
(g23
g2
Ntp4456
Rp4457
(dp4458
g27
(dp4459
g29
Vaway
p4460
sg31
VO
p4461
sg33
VRB
p4462
sg35
I28
ssg10
I442
sg36
g4
sg37
(dp4463
sg39
(dp4464
sg41
I2284
sg42
g21
sg43
g21
sg44
I442
sg45
Vaway
p4465
sg47
I442
sg48
I2288
sbag0
(g23
g2
Ntp4466
Rp4467
(dp4468
g27
(dp4469
g29
Vfrom
p4470
sg31
VO
p4471
sg33
VIN
p4472
sg35
I29
ssg10
I443
sg36
g4
sg37
(dp4473
sg39
(dp4474
sg41
I2289
sg42
g21
sg43
g21
sg44
I443
sg45
Vfrom
p4475
sg47
I443
sg48
I2293
sbag0
(g23
g2
Ntp4476
Rp4477
(dp4478
g27
(dp4479
g29
Vhe
p4480
sg31
VO
p4481
sg33
VPRP$
p4482
sg35
I30
ssg10
I444
sg36
g4
sg37
(dp4483
sg39
(dp4484
sg41
I2294
sg42
g21
sg43
g21
sg44
I444
sg45
Vhis
p4485
sg47
I444
sg48
I2297
sbag0
(g23
g2
Ntp4486
Rp4487
(dp4488
g27
(dp4489
g29
Vopponent
p4490
sg31
VO
p4491
sg33
VNNS
p4492
sg35
I31
ssg10
I445
sg36
g4
sg37
(dp4493
sg39
(dp4494
sg41
I2298
sg42
g21
sg43
g21
sg44
I445
sg45
Vopponents
p4495
sg47
I445
sg48
I2307
sbag0
(g23
g2
Ntp4496
Rp4497
(dp4498
g27
(dp4499
g29
V'
p4500
sg31
VO
p4501
sg33
VPOS
p4502
sg35
I32
ssg10
I446
sg36
g4
sg37
(dp4503
sg39
(dp4504
sg41
I2307
sg42
g21
sg43
g21
sg44
I446
sg45
V'
p4505
sg47
I446
sg48
I2308
sbag0
(g23
g2
Ntp4506
Rp4507
(dp4508
g27
(dp4509
g29
Vreach
p4510
sg31
VO
p4511
sg33
VNN
p4512
sg35
I33
ssg10
I447
sg36
g4
sg37
(dp4513
sg39
(dp4514
sg41
I2309
sg42
g21
sg43
g21
sg44
I447
sg45
Vreach
p4515
sg47
I447
sg48
I2314
sbag0
(g23
g2
Ntp4516
Rp4517
(dp4518
g27
(dp4519
g29
V.
p4520
sg31
VO
p4521
sg33
V.
p4522
sg35
I34
ssg10
I448
sg36
g4
sg37
(dp4523
sg39
(dp4524
sg41
I2314
sg42
g21
sg43
g21
sg44
I448
sg45
V.
p4525
sg47
I448
sg48
I2315
sbag0
(g23
g2
Ntp4526
Rp4527
(dp4528
g27
(dp4529
g29
Vthat
p4530
sg31
VO
p4531
sg33
VDT
p4532
sg35
I1
ssg10
I449
sg36
g4
sg37
(dp4533
sg39
(dp4534
sg41
I2316
sg42
g21
sg43
g21
sg44
I449
sg45
VThat
p4535
sg47
I449
sg48
I2320
sbag0
(g23
g2
Ntp4536
Rp4537
(dp4538
g27
(dp4539
g29
Vstrategy
p4540
sg31
VO
p4541
sg33
VNN
p4542
sg35
I2
ssg10
I450
sg36
g4
sg37
(dp4543
sg39
(dp4544
sg41
I2321
sg42
g21
sg43
g21
sg44
I450
sg45
Vstrategy
p4545
sg47
I450
sg48
I2329
sbag0
(g23
g2
Ntp4546
Rp4547
(dp4548
g27
(dp4549
g29
Vbe
p4550
sg31
VO
p4551
sg33
VVBD
p4552
sg35
I3
ssg10
I451
sg36
g4
sg37
(dp4553
sg39
(dp4554
sg41
I2330
sg42
g21
sg43
g21
sg44
I451
sg45
Vwas
p4555
sg47
I451
sg48
I2333
sbag0
(g23
g2
Ntp4556
Rp4557
(dp4558
g27
(dp4559
g29
Vhelp
p4560
sg31
VO
p4561
sg33
VVBG
p4562
sg35
I4
ssg10
I452
sg36
g4
sg37
(dp4563
sg39
(dp4564
sg41
I2334
sg42
g21
sg43
g21
sg44
I452
sg45
Vhelping
p4565
sg47
I452
sg48
I2341
sbag0
(g23
g2
Ntp4566
Rp4567
(dp4568
g27
(dp4569
g29
Vhe
p4570
sg31
VO
p4571
sg33
VPRP
p4572
sg35
I5
ssg10
I453
sg36
g4
sg37
(dp4573
sg39
(dp4574
sg41
I2342
sg42
g21
sg43
g21
sg44
I453
sg45
Vhim
p4575
sg47
I453
sg48
I2345
sbag0
(g23
g2
Ntp4576
Rp4577
(dp4578
g27
(dp4579
g29
Vwin
p4580
sg31
VO
p4581
sg33
VVB
p4582
sg35
I6
ssg10
I454
sg36
g4
sg37
(dp4583
sg39
(dp4584
sg41
I2346
sg42
g21
sg43
g21
sg44
I454
sg45
Vwin
p4585
sg47
I454
sg48
I2349
sbag0
(g23
g2
Ntp4586
Rp4587
(dp4588
g27
(dp4589
g29
Vinternational
p4590
sg31
VO
p4591
sg33
VJJ
p4592
sg35
I7
ssg10
I455
sg36
g4
sg37
(dp4593
sg39
(dp4594
sg41
I2350
sg42
g21
sg43
g21
sg44
I455
sg45
Vinternational
p4595
sg47
I455
sg48
I2363
sbag0
(g23
g2
Ntp4596
Rp4597
(dp4598
g27
(dp4599
g29
Vmatch
p4600
sg31
VO
p4601
sg33
VNNS
p4602
sg35
I8
ssg10
I456
sg36
g4
sg37
(dp4603
sg39
(dp4604
sg41
I2364
sg42
g21
sg43
g21
sg44
I456
sg45
Vmatches
p4605
sg47
I456
sg48
I2371
sbag0
(g23
g2
Ntp4606
Rp4607
(dp4608
g27
(dp4609
g29
V.
p4610
sg31
VO
p4611
sg33
V.
p4612
sg35
I9
ssg10
I457
sg36
g4
sg37
(dp4613
sg39
(dp4614
sg41
I2371
sg42
g21
sg43
g21
sg44
I457
sg45
V.
p4615
sg47
I457
sg48
I2372
sbag0
(g23
g2
Ntp4616
Rp4617
(dp4618
g27
(dp4619
g29
Vin
p4620
sg31
VO
p4621
sg33
VIN
p4622
sg35
I1
ssg10
I458
sg36
g4
sg37
(dp4623
sg39
(dp4624
sg41
I2373
sg42
g21
sg43
g21
sg44
I458
sg45
VIn
p4625
sg47
I458
sg48
I2375
sbag0
(g23
g2
Ntp4626
Rp4627
(dp4628
g27
(dp4629
g29
VAthens
p4630
sg31
VLOCATION
p4631
sg33
VNNP
p4632
sg35
I2
ssg10
I459
sg36
g4
sg37
(dp4633
sg39
(dp4634
sg41
I2376
sg42
g21
sg43
g21
sg44
I459
sg45
VAthens
p4635
sg47
I459
sg48
I2382
sbag0
(g23
g2
Ntp4636
Rp4637
(dp4638
g27
(dp4639
g29
V,
p4640
sg31
VO
p4641
sg33
V,
p4642
sg35
I3
ssg10
I460
sg36
g4
sg37
(dp4643
sg39
(dp4644
sg41
I2382
sg42
g21
sg43
g21
sg44
I460
sg45
V,
p4645
sg47
I460
sg48
I2383
sbag0
(g23
g2
Ntp4646
Rp4647
(dp4648
g27
(dp4649
g29
VZou
p4650
sg31
VPERSON
p4651
sg33
VNNP
p4652
sg35
I4
ssg10
I461
sg36
g4
sg37
(dp4653
sg39
(dp4654
sg41
I2384
sg42
g21
sg43
g21
sg44
I461
sg45
VZou
p4655
sg47
I461
sg48
I2387
sbag0
(g23
g2
Ntp4656
Rp4657
(dp4658
g27
(dp4659
g29
Vmake
p4660
sg31
VO
p4661
sg33
VVBD
p4662
sg35
I5
ssg10
I462
sg36
g4
sg37
(dp4663
sg39
(dp4664
sg41
I2388
sg42
g21
sg43
g21
sg44
I462
sg45
Vmade
p4665
sg47
I462
sg48
I2392
sbag0
(g23
g2
Ntp4666
Rp4667
(dp4668
g27
(dp4669
g29
Vit
p4670
sg31
VO
p4671
sg33
VPRP
p4672
sg35
I6
ssg10
I463
sg36
g4
sg37
(dp4673
sg39
(dp4674
sg41
I2393
sg42
g21
sg43
g21
sg44
I463
sg45
Vit
p4675
sg47
I463
sg48
I2395
sbag0
(g23
g2
Ntp4676
Rp4677
(dp4678
g27
(dp4679
g29
Vto
p4680
sg31
VO
p4681
sg33
VTO
p4682
sg35
I7
ssg10
I464
sg36
g4
sg37
(dp4683
sg39
(dp4684
sg41
I2396
sg42
g21
sg43
g21
sg44
I464
sg45
Vto
p4685
sg47
I464
sg48
I2398
sbag0
(g23
g2
Ntp4686
Rp4687
(dp4688
g27
(dp4689
g29
Vthe
p4690
sg31
VO
p4691
sg33
VDT
p4692
sg35
I8
ssg10
I465
sg36
g4
sg37
(dp4693
sg39
(dp4694
sg41
I2399
sg42
g21
sg43
g21
sg44
I465
sg45
Vthe
p4695
sg47
I465
sg48
I2402
sbag0
(g23
g2
Ntp4696
Rp4697
(dp4698
g27
(dp4699
g29
Vsemifinal
p4700
sg31
VO
p4701
sg33
VNNS
p4702
sg35
I9
ssg10
I466
sg36
g4
sg37
(dp4703
sg39
(dp4704
sg41
I2403
sg42
g21
sg43
g21
sg44
I466
sg45
Vsemifinals
p4705
sg47
I466
sg48
I2413
sbag0
(g23
g2
Ntp4706
Rp4707
(dp4708
g27
(dp4709
g29
V,
p4710
sg31
VO
p4711
sg33
V,
p4712
sg35
I10
ssg10
I467
sg36
g4
sg37
(dp4713
sg39
(dp4714
sg41
I2413
sg42
g21
sg43
g21
sg44
I467
sg45
V,
p4715
sg47
I467
sg48
I2414
sbag0
(g23
g2
Ntp4716
Rp4717
(dp4718
g27
(dp4719
g29
Veventually
p4720
sg31
VO
p4721
sg33
VRB
p4722
sg35
I11
ssg10
I468
sg36
g4
sg37
(dp4723
sg39
(dp4724
sg41
I2415
sg42
g21
sg43
g21
sg44
I468
sg45
Veventually
p4725
sg47
I468
sg48
I2425
sbag0
(g23
g2
Ntp4726
Rp4727
(dp4728
g27
(dp4729
g29
Vwin
p4730
sg31
VO
p4731
sg33
VVBG
p4732
sg35
I12
ssg10
I469
sg36
g4
sg37
(dp4733
sg39
(dp4734
sg41
I2426
sg42
g21
sg43
g21
sg44
I469
sg45
Vwinning
p4735
sg47
I469
sg48
I2433
sbag0
(g23
g2
Ntp4736
Rp4737
(dp4738
g27
(dp4739
g29
Va
p4740
sg31
VO
p4741
sg33
VDT
p4742
sg35
I13
ssg10
I470
sg36
g4
sg37
(dp4743
sg39
(dp4744
sg41
I2434
sg42
g21
sg43
g21
sg44
I470
sg45
Va
p4745
sg47
I470
sg48
I2435
sbag0
(g23
g2
Ntp4746
Rp4747
(dp4748
g27
(dp4749
g29
Vbronze
p4750
sg31
VO
p4751
sg33
VNN
p4752
sg35
I14
ssg10
I471
sg36
g4
sg37
(dp4753
sg39
(dp4754
sg41
I2436
sg42
g21
sg43
g21
sg44
I471
sg45
Vbronze
p4755
sg47
I471
sg48
I2442
sbag0
(g23
g2
Ntp4756
Rp4757
(dp4758
g27
(dp4759
g29
V,
p4760
sg31
VO
p4761
sg33
V,
p4762
sg35
I15
ssg10
I472
sg36
g4
sg37
(dp4763
sg39
(dp4764
sg41
I2442
sg42
g21
sg43
g21
sg44
I472
sg45
V,
p4765
sg47
I472
sg48
I2443
sbag0
(g23
g2
Ntp4766
Rp4767
(dp4768
g27
(dp4769
g29
VChina
p4770
sg31
VLOCATION
p4771
sg33
VNNP
p4772
sg35
I16
ssg10
I473
sg36
g4
sg37
(dp4773
sg39
(dp4774
sg41
I2444
sg42
g21
sg43
g21
sg44
I473
sg45
VChina
p4775
sg47
I473
sg48
I2449
sbag0
(g23
g2
Ntp4776
Rp4777
(dp4778
g27
(dp4779
g29
V's
p4780
sg31
VO
p4781
sg33
VPOS
p4782
sg35
I17
ssg10
I474
sg36
g4
sg37
(dp4783
sg39
(dp4784
sg41
I2449
sg42
g21
sg43
g21
sg44
I474
sg45
V\u2019s
p4785
sg47
I474
sg48
I2451
sbag0
(g23
g2
Ntp4786
Rp4787
(dp4788
g27
(dp4789
g29
Vfirst
p4790
sg31
VORDINAL
p4791
sg33
VJJ
p4792
sg35
I18
ssg10
I475
sg36
g4
sg37
(dp4793
sg39
(dp4794
sg41
I2452
sg42
g21
sg43
g21
sg44
I475
sg45
Vfirst
p4795
sg47
I475
sg48
I2457
sbag0
(g23
g2
Ntp4796
Rp4797
(dp4798
g27
(dp4799
g29
Vin
p4800
sg31
VO
p4801
sg33
VIN
p4802
sg35
I19
ssg10
I476
sg36
g4
sg37
(dp4803
sg39
(dp4804
sg41
I2458
sg42
g21
sg43
g21
sg44
I476
sg45
Vin
p4805
sg47
I476
sg48
I2460
sbag0
(g23
g2
Ntp4806
Rp4807
(dp4808
g27
(dp4809
g29
Vboxing
p4810
sg31
VO
p4811
sg33
VNN
p4812
sg35
I20
ssg10
I477
sg36
g4
sg37
(dp4813
sg39
(dp4814
sg41
I2461
sg42
g21
sg43
g21
sg44
I477
sg45
Vboxing
p4815
sg47
I477
sg48
I2467
sbag0
(g23
g2
Ntp4816
Rp4817
(dp4818
g27
(dp4819
g29
V.
p4820
sg31
VO
p4821
sg33
V.
p4822
sg35
I21
ssg10
I478
sg36
g4
sg37
(dp4823
sg39
(dp4824
sg41
I2467
sg42
g21
sg43
g21
sg44
I478
sg45
V.
p4825
sg47
I478
sg48
I2468
sbag0
(g23
g2
Ntp4826
Rp4827
(dp4828
g27
(dp4829
g29
Vit
p4830
sg31
VO
p4831
sg33
VPRP
p4832
sg35
I1
ssg10
I479
sg36
g4
sg37
(dp4833
sg39
(dp4834
sg41
I2469
sg42
g21
sg43
g21
sg44
I479
sg45
VIt
p4835
sg47
I479
sg48
I2471
sbag0
(g23
g2
Ntp4836
Rp4837
(dp4838
g27
(dp4839
g29
Vbe
p4840
sg31
VO
p4841
sg33
VVBD
p4842
sg35
I2
ssg10
I480
sg36
g4
sg37
(dp4843
sg39
(dp4844
sg41
I2472
sg42
g21
sg43
g21
sg44
I480
sg45
Vwas
p4845
sg47
I480
sg48
I2475
sbag0
(g23
g2
Ntp4846
Rp4847
(dp4848
g27
(dp4849
g29
Vanother
p4850
sg31
VDURATION
p4851
sg33
VDT
p4852
sg35
I3
ssg10
I481
sg36
g4
sg37
(dp4853
sg39
(dp4854
sg41
I2476
sg42
g21
sg43
g21
sg44
I481
sg45
Vanother
p4855
sg47
I481
sg48
I2483
sbag0
(g23
g2
Ntp4856
Rp4857
(dp4858
g27
(dp4859
g29
Vyear
p4860
sg31
VDURATION
p4861
sg33
VNN
p4862
sg35
I4
ssg10
I482
sg36
g4
sg37
(dp4863
sg39
(dp4864
sg41
I2484
sg42
g21
sg43
g21
sg44
I482
sg45
Vyear
p4865
sg47
I482
sg48
I2488
sbag0
(g23
g2
Ntp4866
Rp4867
(dp4868
g27
(dp4869
g29
Vbefore
p4870
sg31
VO
p4871
sg33
VIN
p4872
sg35
I5
ssg10
I483
sg36
g4
sg37
(dp4873
sg39
(dp4874
sg41
I2489
sg42
g21
sg43
g21
sg44
I483
sg45
Vbefore
p4875
sg47
I483
sg48
I2495
sbag0
(g23
g2
Ntp4876
Rp4877
(dp4878
g27
(dp4879
g29
VZou
p4880
sg31
VPERSON
p4881
sg33
VNNP
p4882
sg35
I6
ssg10
I484
sg36
g4
sg37
(dp4883
sg39
(dp4884
sg41
I2496
sg42
g21
sg43
g21
sg44
I484
sg45
VZou
p4885
sg47
I484
sg48
I2499
sbag0
(g23
g2
Ntp4886
Rp4887
(dp4888
g27
(dp4889
g29
Vwin
p4890
sg31
VO
p4891
sg33
VVBD
p4892
sg35
I7
ssg10
I485
sg36
g4
sg37
(dp4893
sg39
(dp4894
sg41
I2500
sg42
g21
sg43
g21
sg44
I485
sg45
Vwon
p4895
sg47
I485
sg48
I2503
sbag0
(g23
g2
Ntp4896
Rp4897
(dp4898
g27
(dp4899
g29
Vhe
p4900
sg31
VO
p4901
sg33
VPRP$
p4902
sg35
I8
ssg10
I486
sg36
g4
sg37
(dp4903
sg39
(dp4904
sg41
I2504
sg42
g21
sg43
g21
sg44
I486
sg45
Vhis
p4905
sg47
I486
sg48
I2507
sbag0
(g23
g2
Ntp4906
Rp4907
(dp4908
g27
(dp4909
g29
Vfirst
p4910
sg31
VORDINAL
p4911
sg33
VJJ
p4912
sg35
I9
ssg10
I487
sg36
g4
sg37
(dp4913
sg39
(dp4914
sg41
I2508
sg42
g21
sg43
g21
sg44
I487
sg45
Vfirst
p4915
sg47
I487
sg48
I2513
sbag0
(g23
g2
Ntp4916
Rp4917
(dp4918
g27
(dp4919
g29
Vgold
p4920
sg31
VO
p4921
sg33
VNN
p4922
sg35
I10
ssg10
I488
sg36
g4
sg37
(dp4923
sg39
(dp4924
sg41
I2514
sg42
g21
sg43
g21
sg44
I488
sg45
Vgold
p4925
sg47
I488
sg48
I2518
sbag0
(g23
g2
Ntp4926
Rp4927
(dp4928
g27
(dp4929
g29
Vmedal
p4930
sg31
VO
p4931
sg33
VNN
p4932
sg35
I11
ssg10
I489
sg36
g4
sg37
(dp4933
sg39
(dp4934
sg41
I2519
sg42
g21
sg43
g21
sg44
I489
sg45
Vmedal
p4935
sg47
I489
sg48
I2524
sbag0
(g23
g2
Ntp4936
Rp4937
(dp4938
g27
(dp4939
g29
V,
p4940
sg31
VO
p4941
sg33
V,
p4942
sg35
I12
ssg10
I490
sg36
g4
sg37
(dp4943
sg39
(dp4944
sg41
I2524
sg42
g21
sg43
g21
sg44
I490
sg45
V,
p4945
sg47
I490
sg48
I2525
sbag0
(g23
g2
Ntp4946
Rp4947
(dp4948
g27
(dp4949
g29
Vat
p4950
sg31
VO
p4951
sg33
VIN
p4952
sg35
I13
ssg10
I491
sg36
g4
sg37
(dp4953
sg39
(dp4954
sg41
I2526
sg42
g21
sg43
g21
sg44
I491
sg45
Vat
p4955
sg47
I491
sg48
I2528
sbag0
(g23
g2
Ntp4956
Rp4957
(dp4958
g27
(dp4959
g29
Vthe
p4960
sg31
VO
p4961
sg33
VDT
p4962
sg35
I14
ssg10
I492
sg36
g4
sg37
(dp4963
sg39
(dp4964
sg41
I2529
sg42
g21
sg43
g21
sg44
I492
sg45
Vthe
p4965
sg47
I492
sg48
I2532
sbag0
(g23
g2
Ntp4966
Rp4967
(dp4968
g27
(dp4969
g29
V2005
p4970
sg31
VDATE
p4971
sg33
VCD
p4972
sg35
I15
ssg10
I493
sg36
g4
sg37
(dp4973
sg39
(dp4974
sg41
I2533
sg42
g21
sg43
g21
sg44
I493
sg45
V2005
p4975
sg47
I493
sg48
I2537
sbag0
(g23
g2
Ntp4976
Rp4977
(dp4978
g27
(dp4979
g29
VWorld
p4980
sg31
VMISC
p4981
sg33
VNNP
p4982
sg35
I16
ssg10
I494
sg36
g4
sg37
(dp4983
sg39
(dp4984
sg41
I2538
sg42
g21
sg43
g21
sg44
I494
sg45
VWorld
p4985
sg47
I494
sg48
I2543
sbag0
(g23
g2
Ntp4986
Rp4987
(dp4988
g27
(dp4989
g29
Vamateur
p4990
sg31
VMISC
p4991
sg33
VJJ
p4992
sg35
I17
ssg10
I495
sg36
g4
sg37
(dp4993
sg39
(dp4994
sg41
I2544
sg42
g21
sg43
g21
sg44
I495
sg45
VAmateur
p4995
sg47
I495
sg48
I2551
sbag0
(g23
g2
Ntp4996
Rp4997
(dp4998
g27
(dp4999
g29
VBoxing
p5000
sg31
VMISC
p5001
sg33
VNNP
p5002
sg35
I18
ssg10
I496
sg36
g4
sg37
(dp5003
sg39
(dp5004
sg41
I2552
sg42
g21
sg43
g21
sg44
I496
sg45
VBoxing
p5005
sg47
I496
sg48
I2558
sbag0
(g23
g2
Ntp5006
Rp5007
(dp5008
g27
(dp5009
g29
VChampionships
p5010
sg31
VMISC
p5011
sg33
VNNP
p5012
sg35
I19
ssg10
I497
sg36
g4
sg37
(dp5013
sg39
(dp5014
sg41
I2559
sg42
g21
sg43
g21
sg44
I497
sg45
VChampionships
p5015
sg47
I497
sg48
I2572
sbag0
(g23
g2
Ntp5016
Rp5017
(dp5018
g27
(dp5019
g29
V,
p5020
sg31
VO
p5021
sg33
V,
p5022
sg35
I20
ssg10
I498
sg36
g4
sg37
(dp5023
sg39
(dp5024
sg41
I2572
sg42
g21
sg43
g21
sg44
I498
sg45
V,
p5025
sg47
I498
sg48
I2573
sbag0
(g23
g2
Ntp5026
Rp5027
(dp5028
g27
(dp5029
g29
Vhold
p5030
sg31
VO
p5031
sg33
VVBN
p5032
sg35
I21
ssg10
I499
sg36
g4
sg37
(dp5033
sg39
(dp5034
sg41
I2574
sg42
g21
sg43
g21
sg44
I499
sg45
Vheld
p5035
sg47
I499
sg48
I2578
sbag0
(g23
g2
Ntp5036
Rp5037
(dp5038
g27
(dp5039
g29
Vin
p5040
sg31
VO
p5041
sg33
VIN
p5042
sg35
I22
ssg10
I500
sg36
g4
sg37
(dp5043
sg39
(dp5044
sg41
I2579
sg42
g21
sg43
g21
sg44
I500
sg45
Vin
p5045
sg47
I500
sg48
I2581
sbag0
(g23
g2
Ntp5046
Rp5047
(dp5048
g27
(dp5049
g29
Vthe
p5050
sg31
VO
p5051
sg33
VDT
p5052
sg35
I23
ssg10
I501
sg36
g4
sg37
(dp5053
sg39
(dp5054
sg41
I2582
sg42
g21
sg43
g21
sg44
I501
sg45
Vthe
p5055
sg47
I501
sg48
I2585
sbag0
(g23
g2
Ntp5056
Rp5057
(dp5058
g27
(dp5059
g29
Vwestern
p5060
sg31
VO
p5061
sg33
VJJ
p5062
sg35
I24
ssg10
I502
sg36
g4
sg37
(dp5063
sg39
(dp5064
sg41
I2586
sg42
g21
sg43
g21
sg44
I502
sg45
Vwestern
p5065
sg47
I502
sg48
I2593
sbag0
(g23
g2
Ntp5066
Rp5067
(dp5068
g27
(dp5069
g29
Vchinese
p5070
sg31
VMISC
p5071
sg33
VJJ
p5072
sg35
I25
ssg10
I503
sg36
g4
sg37
(dp5073
sg39
(dp5074
sg41
I2594
sg42
g21
sg43
g21
sg44
I503
sg45
VChinese
p5075
sg47
I503
sg48
I2601
sbag0
(g23
g2
Ntp5076
Rp5077
(dp5078
g27
(dp5079
g29
Vcity
p5080
sg31
VO
p5081
sg33
VNN
p5082
sg35
I26
ssg10
I504
sg36
g4
sg37
(dp5083
sg39
(dp5084
sg41
I2602
sg42
g21
sg43
g21
sg44
I504
sg45
Vcity
p5085
sg47
I504
sg48
I2606
sbag0
(g23
g2
Ntp5086
Rp5087
(dp5088
g27
(dp5089
g29
Vof
p5090
sg31
VO
p5091
sg33
VIN
p5092
sg35
I27
ssg10
I505
sg36
g4
sg37
(dp5093
sg39
(dp5094
sg41
I2607
sg42
g21
sg43
g21
sg44
I505
sg45
Vof
p5095
sg47
I505
sg48
I2609
sbag0
(g23
g2
Ntp5096
Rp5097
(dp5098
g27
(dp5099
g29
VMianyang
p5100
sg31
VLOCATION
p5101
sg33
VNNP
p5102
sg35
I28
ssg10
I506
sg36
g4
sg37
(dp5103
sg39
(dp5104
sg41
I2610
sg42
g21
sg43
g21
sg44
I506
sg45
VMianyang
p5105
sg47
I506
sg48
I2618
sbag0
(g23
g2
Ntp5106
Rp5107
(dp5108
g27
(dp5109
g29
V.
p5110
sg31
VO
p5111
sg33
V.
p5112
sg35
I29
ssg10
I507
sg36
g4
sg37
(dp5113
sg39
(dp5114
sg41
I2618
sg42
g21
sg43
g21
sg44
I507
sg45
V.
p5115
sg47
I507
sg48
I2619
sbag0
(g23
g2
Ntp5116
Rp5117
(dp5118
g27
(dp5119
g29
Vhe
p5120
sg31
VO
p5121
sg33
VPRP
p5122
sg35
I1
ssg10
I508
sg36
g4
sg37
(dp5123
sg39
(dp5124
sg41
I2620
sg42
g21
sg43
g21
sg44
I508
sg45
VHe
p5125
sg47
I508
sg48
I2622
sbag0
(g23
g2
Ntp5126
Rp5127
(dp5128
g27
(dp5129
g29
Vbe
p5130
sg31
VO
p5131
sg33
VVBD
p5132
sg35
I2
ssg10
I509
sg36
g4
sg37
(dp5133
sg39
(dp5134
sg41
I2623
sg42
g21
sg43
g21
sg44
I509
sg45
Vwas
p5135
sg47
I509
sg48
I2626
sbag0
(g23
g2
Ntp5136
Rp5137
(dp5138
g27
(dp5139
g29
Vthe
p5140
sg31
VO
p5141
sg33
VDT
p5142
sg35
I3
ssg10
I510
sg36
g4
sg37
(dp5143
sg39
(dp5144
sg41
I2627
sg42
g21
sg43
g21
sg44
I510
sg45
Vthe
p5145
sg47
I510
sg48
I2630
sbag0
(g23
g2
Ntp5146
Rp5147
(dp5148
g27
(dp5149
g29
Vnation
p5150
sg31
VO
p5151
sg33
VNN
p5152
sg35
I4
ssg10
I511
sg36
g4
sg37
(dp5153
sg39
(dp5154
sg41
I2631
sg42
g21
sg43
g21
sg44
I511
sg45
Vnation
p5155
sg47
I511
sg48
I2637
sbag0
(g23
g2
Ntp5156
Rp5157
(dp5158
g27
(dp5159
g29
V's
p5160
sg31
VO
p5161
sg33
VPOS
p5162
sg35
I5
ssg10
I512
sg36
g4
sg37
(dp5163
sg39
(dp5164
sg41
I2637
sg42
g21
sg43
g21
sg44
I512
sg45
V's
p5165
sg47
I512
sg48
I2639
sbag0
(g23
g2
Ntp5166
Rp5167
(dp5168
g27
(dp5169
g29
Vfirst
p5170
sg31
VORDINAL
p5171
sg33
VJJ
p5172
sg35
I6
ssg10
I513
sg36
g4
sg37
(dp5173
sg39
(dp5174
sg41
I2640
sg42
g21
sg43
g21
sg44
I513
sg45
Vfirst
p5175
sg47
I513
sg48
I2645
sbag0
(g23
g2
Ntp5176
Rp5177
(dp5178
g27
(dp5179
g29
Vamateur
p5180
sg31
VO
p5181
sg33
VJJ
p5182
sg35
I7
ssg10
I514
sg36
g4
sg37
(dp5183
sg39
(dp5184
sg41
I2646
sg42
g21
sg43
g21
sg44
I514
sg45
Vamateur
p5185
sg47
I514
sg48
I2653
sbag0
(g23
g2
Ntp5186
Rp5187
(dp5188
g27
(dp5189
g29
Vboxing
p5190
sg31
VO
p5191
sg33
VNN
p5192
sg35
I8
ssg10
I515
sg36
g4
sg37
(dp5193
sg39
(dp5194
sg41
I2654
sg42
g21
sg43
g21
sg44
I515
sg45
Vboxing
p5195
sg47
I515
sg48
I2660
sbag0
(g23
g2
Ntp5196
Rp5197
(dp5198
g27
(dp5199
g29
Vchampion
p5200
sg31
VO
p5201
sg33
VNN
p5202
sg35
I9
ssg10
I516
sg36
g4
sg37
(dp5203
sg39
(dp5204
sg41
I2661
sg42
g21
sg43
g21
sg44
I516
sg45
Vchampion
p5205
sg47
I516
sg48
I2669
sbag0
(g23
g2
Ntp5206
Rp5207
(dp5208
g27
(dp5209
g29
V,
p5210
sg31
VO
p5211
sg33
V,
p5212
sg35
I10
ssg10
I517
sg36
g4
sg37
(dp5213
sg39
(dp5214
sg41
I2669
sg42
g21
sg43
g21
sg44
I517
sg45
V,
p5215
sg47
I517
sg48
I2670
sbag0
(g23
g2
Ntp5216
Rp5217
(dp5218
g27
(dp5219
g29
Vand
p5220
sg31
VO
p5221
sg33
VCC
p5222
sg35
I11
ssg10
I518
sg36
g4
sg37
(dp5223
sg39
(dp5224
sg41
I2671
sg42
g21
sg43
g21
sg44
I518
sg45
Vand
p5225
sg47
I518
sg48
I2674
sbag0
(g23
g2
Ntp5226
Rp5227
(dp5228
g27
(dp5229
g29
VChina
p5230
sg31
VLOCATION
p5231
sg33
VNNP
p5232
sg35
I12
ssg10
I519
sg36
g4
sg37
(dp5233
sg39
(dp5234
sg41
I2675
sg42
g21
sg43
g21
sg44
I519
sg45
VChina
p5235
sg47
I519
sg48
I2680
sbag0
(g23
g2
Ntp5236
Rp5237
(dp5238
g27
(dp5239
g29
Vcelebrate
p5240
sg31
VO
p5241
sg33
VVBD
p5242
sg35
I13
ssg10
I520
sg36
g4
sg37
(dp5243
sg39
(dp5244
sg41
I2681
sg42
g21
sg43
g21
sg44
I520
sg45
Vcelebrated
p5245
sg47
I520
sg48
I2691
sbag0
(g23
g2
Ntp5246
Rp5247
(dp5248
g27
(dp5249
g29
V.
p5250
sg31
VO
p5251
sg33
V.
p5252
sg35
I14
ssg10
I521
sg36
g4
sg37
(dp5253
sg39
(dp5254
sg41
I2691
sg42
g21
sg43
g21
sg44
I521
sg45
V.
p5255
sg47
I521
sg48
I2692
sbag0
(g23
g2
Ntp5256
Rp5257
(dp5258
g27
(dp5259
g29
VChina
p5260
sg31
VLOCATION
p5261
sg33
VNNP
p5262
sg35
I1
ssg10
I522
sg36
g4
sg37
(dp5263
sg39
(dp5264
sg41
I2695
sg42
g21
sg43
g21
sg44
I522
sg45
VChina
p5265
sg47
I522
sg48
I2700
sbag0
(g23
g2
Ntp5266
Rp5267
(dp5268
g27
(dp5269
g29
V's
p5270
sg31
VO
p5271
sg33
VPOS
p5272
sg35
I2
ssg10
I523
sg36
g4
sg37
(dp5273
sg39
(dp5274
sg41
I2700
sg42
g21
sg43
g21
sg44
I523
sg45
V's
p5275
sg47
I523
sg48
I2702
sbag0
(g23
g2
Ntp5276
Rp5277
(dp5278
g27
(dp5279
g29
Vboxing
p5280
sg31
VO
p5281
sg33
VNN
p5282
sg35
I3
ssg10
I524
sg36
g4
sg37
(dp5283
sg39
(dp5284
sg41
I2703
sg42
g21
sg43
g21
sg44
I524
sg45
Vboxing
p5285
sg47
I524
sg48
I2709
sbag0
(g23
g2
Ntp5286
Rp5287
(dp5288
g27
(dp5289
g29
Vperformance
p5290
sg31
VO
p5291
sg33
VNN
p5292
sg35
I4
ssg10
I525
sg36
g4
sg37
(dp5293
sg39
(dp5294
sg41
I2710
sg42
g21
sg43
g21
sg44
I525
sg45
Vperformance
p5295
sg47
I525
sg48
I2721
sbag0
(g23
g2
Ntp5296
Rp5297
(dp5298
g27
(dp5299
g29
Vimprove
p5300
sg31
VO
p5301
sg33
VVBD
p5302
sg35
I5
ssg10
I526
sg36
g4
sg37
(dp5303
sg39
(dp5304
sg41
I2722
sg42
g21
sg43
g21
sg44
I526
sg45
Vimproved
p5305
sg47
I526
sg48
I2730
sbag0
(g23
g2
Ntp5306
Rp5307
(dp5308
g27
(dp5309
g29
Vdramatically
p5310
sg31
VO
p5311
sg33
VRB
p5312
sg35
I6
ssg10
I527
sg36
g4
sg37
(dp5313
sg39
(dp5314
sg41
I2731
sg42
g21
sg43
g21
sg44
I527
sg45
Vdramatically
p5315
sg47
I527
sg48
I2743
sbag0
(g23
g2
Ntp5316
Rp5317
(dp5318
g27
(dp5319
g29
Vat
p5320
sg31
VO
p5321
sg33
VIN
p5322
sg35
I7
ssg10
I528
sg36
g4
sg37
(dp5323
sg39
(dp5324
sg41
I2735
sg42
g21
sg43
g21
sg44
I528
sg45
Vat
p5325
sg47
I528
sg48
I2737
sbag0
(g23
g2
Ntp5326
Rp5327
(dp5328
g27
(dp5329
g29
Vthe
p5330
sg31
VDATE
p5331
sg33
VDT
p5332
sg35
I8
ssg10
I529
sg36
g4
sg37
(dp5333
sg39
(dp5334
sg41
I2747
sg42
g21
sg43
g21
sg44
I529
sg45
Vthe
p5335
sg47
I529
sg48
I2750
sbag0
(g23
g2
Ntp5336
Rp5337
(dp5338
g27
(dp5339
g29
V2008
p5340
sg31
VDATE
p5341
sg33
VCD
p5342
sg35
I9
ssg10
I530
sg36
g4
sg37
(dp5343
sg39
(dp5344
sg41
I2751
sg42
g21
sg43
g21
sg44
I530
sg45
V2008
p5345
sg47
I530
sg48
I2755
sbag0
(g23
g2
Ntp5346
Rp5347
(dp5348
g27
(dp5349
g29
Vsummer
p5350
sg31
VDATE
p5351
sg33
VNN
p5352
sg35
I10
ssg10
I531
sg36
g4
sg37
(dp5353
sg39
(dp5354
sg41
I2756
sg42
g21
sg43
g21
sg44
I531
sg45
VSummer
p5355
sg47
I531
sg48
I2762
sbag0
(g23
g2
Ntp5356
Rp5357
(dp5358
g27
(dp5359
g29
VOlympics
p5360
sg31
VMISC
p5361
sg33
VNNPS
p5362
sg35
I11
ssg10
I532
sg36
g4
sg37
(dp5363
sg39
(dp5364
sg41
I2763
sg42
g21
sg43
g21
sg44
I532
sg45
VOlympics
p5365
sg47
I532
sg48
I2771
sbag0
(g23
g2
Ntp5366
Rp5367
(dp5368
g27
(dp5369
g29
Vin
p5370
sg31
VO
p5371
sg33
VIN
p5372
sg35
I12
ssg10
I533
sg36
g4
sg37
(dp5373
sg39
(dp5374
sg41
I2772
sg42
g21
sg43
g21
sg44
I533
sg45
Vin
p5375
sg47
I533
sg48
I2774
sbag0
(g23
g2
Ntp5376
Rp5377
(dp5378
g27
(dp5379
g29
VBeijing
p5380
sg31
VLOCATION
p5381
sg33
VNNP
p5382
sg35
I13
ssg10
I534
sg36
g4
sg37
(dp5383
sg39
(dp5384
sg41
I2775
sg42
g21
sg43
g21
sg44
I534
sg45
VBeijing
p5385
sg47
I534
sg48
I2782
sbag0
(g23
g2
Ntp5386
Rp5387
(dp5388
g27
(dp5389
g29
V.
p5390
sg31
VO
p5391
sg33
V.
p5392
sg35
I14
ssg10
I535
sg36
g4
sg37
(dp5393
sg39
(dp5394
sg41
I2782
sg42
g21
sg43
g21
sg44
I535
sg45
V.
p5395
sg47
I535
sg48
I2783
sbag0
(g23
g2
Ntp5396
Rp5397
(dp5398
g27
(dp5399
g29
VZou
p5400
sg31
VPERSON
p5401
sg33
VNNP
p5402
sg35
I1
ssg10
I536
sg36
g4
sg37
(dp5403
sg39
(dp5404
sg41
I2784
sg42
g21
sg43
g21
sg44
I536
sg45
VZou
p5405
sg47
I536
sg48
I2787
sbag0
(g23
g2
Ntp5406
Rp5407
(dp5408
g27
(dp5409
g29
VShiming
p5410
sg31
VPERSON
p5411
sg33
VNNP
p5412
sg35
I2
ssg10
I537
sg36
g4
sg37
(dp5413
sg39
(dp5414
sg41
I2788
sg42
g21
sg43
g21
sg44
I537
sg45
VShiming
p5415
sg47
I537
sg48
I2795
sbag0
(g23
g2
Ntp5416
Rp5417
(dp5418
g27
(dp5419
g29
Vwin
p5420
sg31
VO
p5421
sg33
VVBD
p5422
sg35
I3
ssg10
I538
sg36
g4
sg37
(dp5423
sg39
(dp5424
sg41
I2796
sg42
g21
sg43
g21
sg44
I538
sg45
Vwon
p5425
sg47
I538
sg48
I2799
sbag0
(g23
g2
Ntp5426
Rp5427
(dp5428
g27
(dp5429
g29
Vthe
p5430
sg31
VO
p5431
sg33
VDT
p5432
sg35
I4
ssg10
I539
sg36
g4
sg37
(dp5433
sg39
(dp5434
sg41
I2800
sg42
g21
sg43
g21
sg44
I539
sg45
Vthe
p5435
sg47
I539
sg48
I2803
sbag0
(g23
g2
Ntp5436
Rp5437
(dp5438
g27
(dp5439
g29
Vgold
p5440
sg31
VO
p5441
sg33
VNN
p5442
sg35
I5
ssg10
I540
sg36
g4
sg37
(dp5443
sg39
(dp5444
sg41
I2804
sg42
g21
sg43
g21
sg44
I540
sg45
Vgold
p5445
sg47
I540
sg48
I2808
sbag0
(g23
g2
Ntp5446
Rp5447
(dp5448
g27
(dp5449
g29
Vmedal
p5450
sg31
VO
p5451
sg33
VNN
p5452
sg35
I6
ssg10
I541
sg36
g4
sg37
(dp5453
sg39
(dp5454
sg41
I2809
sg42
g21
sg43
g21
sg44
I541
sg45
Vmedal
p5455
sg47
I541
sg48
I2814
sbag0
(g23
g2
Ntp5456
Rp5457
(dp5458
g27
(dp5459
g29
Vin
p5460
sg31
VO
p5461
sg33
VIN
p5462
sg35
I7
ssg10
I542
sg36
g4
sg37
(dp5463
sg39
(dp5464
sg41
I2815
sg42
g21
sg43
g21
sg44
I542
sg45
Vin
p5465
sg47
I542
sg48
I2817
sbag0
(g23
g2
Ntp5466
Rp5467
(dp5468
g27
(dp5469
g29
Vthe
p5470
sg31
VO
p5471
sg33
VDT
p5472
sg35
I8
ssg10
I543
sg36
g4
sg37
(dp5473
sg39
(dp5474
sg41
I2818
sg42
g21
sg43
g21
sg44
I543
sg45
Vthe
p5475
sg47
I543
sg48
I2821
sbag0
(g23
g2
Ntp5476
Rp5477
(dp5478
g27
(dp5479
g29
Vlight
p5480
sg31
VO
p5481
sg33
VJJ
p5482
sg35
I9
ssg10
I544
sg36
g4
sg37
(dp5483
sg39
(dp5484
sg41
I2822
sg42
g21
sg43
g21
sg44
I544
sg45
VLight
p5485
sg47
I544
sg48
I2827
sbag0
(g23
g2
Ntp5486
Rp5487
(dp5488
g27
(dp5489
g29
Vflyweight
p5490
sg31
VO
p5491
sg33
VNN
p5492
sg35
I10
ssg10
I545
sg36
g4
sg37
(dp5493
sg39
(dp5494
sg41
I2828
sg42
g21
sg43
g21
sg44
I545
sg45
VFlyweight
p5495
sg47
I545
sg48
I2837
sbag0
(g23
g2
Ntp5496
Rp5497
(dp5498
g27
(dp5499
g29
V-lrb-
p5500
sg31
VO
p5501
sg33
V-LRB-
p5502
sg35
I11
ssg10
I546
sg36
g4
sg37
(dp5503
sg39
(dp5504
sg41
I2838
sg42
g21
sg43
g21
sg44
I546
sg45
V(
p5505
sg47
I546
sg48
I2839
sbag0
(g23
g2
Ntp5506
Rp5507
(dp5508
g27
(dp5509
g29
V-48
p5510
sg31
VNUMBER
p5511
sg33
VCD
p5512
sg35
I12
ssg10
I547
sg36
g4
sg37
(dp5513
sg39
(dp5514
sg41
I2839
sg42
g21
sg43
g21
sg44
I547
sg45
V-48
p5515
sg47
I547
sg48
I2842
sbag0
(g23
g2
Ntp5516
Rp5517
(dp5518
g27
(dp5519
g29
Vkg
p5520
sg31
VO
p5521
sg33
VNN
p5522
sg35
I13
ssg10
I548
sg36
g4
sg37
(dp5523
sg39
(dp5524
sg41
I2843
sg42
g21
sg43
g21
sg44
I548
sg45
Vkg
p5525
sg47
I548
sg48
I2845
sbag0
(g23
g2
Ntp5526
Rp5527
(dp5528
g27
(dp5529
g29
V-rrb-
p5530
sg31
VO
p5531
sg33
V-RRB-
p5532
sg35
I14
ssg10
I549
sg36
g4
sg37
(dp5533
sg39
(dp5534
sg41
I2845
sg42
g21
sg43
g21
sg44
I549
sg45
V)
p5535
sg47
I549
sg48
I2846
sbag0
(g23
g2
Ntp5536
Rp5537
(dp5538
g27
(dp5539
g29
Vevent
p5540
sg31
VO
p5541
sg33
VNN
p5542
sg35
I15
ssg10
I550
sg36
g4
sg37
(dp5543
sg39
(dp5544
sg41
I2847
sg42
g21
sg43
g21
sg44
I550
sg45
Vevent
p5545
sg47
I550
sg48
I2852
sbag0
(g23
g2
Ntp5546
Rp5547
(dp5548
g27
(dp5549
g29
V,
p5550
sg31
VO
p5551
sg33
V,
p5552
sg35
I16
ssg10
I551
sg36
g4
sg37
(dp5553
sg39
(dp5554
sg41
I2852
sg42
g21
sg43
g21
sg44
I551
sg45
V,
p5555
sg47
I551
sg48
I2853
sbag0
(g23
g2
Ntp5556
Rp5557
(dp5558
g27
(dp5559
g29
V-lsb-
p5560
sg31
VO
p5561
sg33
V-LRB-
p5562
sg35
I17
ssg10
I552
sg36
g4
sg37
(dp5563
sg39
(dp5564
sg41
I2853
sg42
g21
sg43
g21
sg44
I552
sg45
V[
p5565
sg47
I552
sg48
I2854
sbag0
(g23
g2
Ntp5566
Rp5567
(dp5568
g27
(dp5569
g29
VREF
p5570
sg31
VO
p5571
sg33
VNNP
p5572
sg35
I18
ssg10
I553
sg36
g4
sg37
(dp5573
sg39
(dp5574
sg41
I2854
sg42
g21
sg43
g21
sg44
I553
sg45
VREF
p5575
sg47
I553
sg48
I2857
sbag0
(g23
g2
Ntp5576
Rp5577
(dp5578
g27
(dp5579
g29
V-rsb-
p5580
sg31
VO
p5581
sg33
V-RRB-
p5582
sg35
I19
ssg10
I554
sg36
g4
sg37
(dp5583
sg39
(dp5584
sg41
I2857
sg42
g21
sg43
g21
sg44
I554
sg45
V]
p5585
sg47
I554
sg48
I2858
sbag0
(g23
g2
Ntp5586
Rp5587
(dp5588
g27
(dp5589
g29
Vand
p5590
sg31
VO
p5591
sg33
VCC
p5592
sg35
I20
ssg10
I555
sg36
g4
sg37
(dp5593
sg39
(dp5594
sg41
I2859
sg42
g21
sg43
g21
sg44
I555
sg45
Vand
p5595
sg47
I555
sg48
I2862
sbag0
(g23
g2
Ntp5596
Rp5597
(dp5598
g27
(dp5599
g29
VZhang
p5600
sg31
VPERSON
p5601
sg33
VNNP
p5602
sg35
I21
ssg10
I556
sg36
g4
sg37
(dp5603
sg39
(dp5604
sg41
I2863
sg42
g21
sg43
g21
sg44
I556
sg45
VZhang
p5605
sg47
I556
sg48
I2868
sbag0
(g23
g2
Ntp5606
Rp5607
(dp5608
g27
(dp5609
g29
VXiaoping
p5610
sg31
VPERSON
p5611
sg33
VNNP
p5612
sg35
I22
ssg10
I557
sg36
g4
sg37
(dp5613
sg39
(dp5614
sg41
I2869
sg42
g21
sg43
g21
sg44
I557
sg45
VXiaoping
p5615
sg47
I557
sg48
I2877
sbag0
(g23
g2
Ntp5616
Rp5617
(dp5618
g27
(dp5619
g29
Vwin
p5620
sg31
VO
p5621
sg33
VVBD
p5622
sg35
I23
ssg10
I558
sg36
g4
sg37
(dp5623
sg39
(dp5624
sg41
I2878
sg42
g21
sg43
g21
sg44
I558
sg45
Vwon
p5625
sg47
I558
sg48
I2881
sbag0
(g23
g2
Ntp5626
Rp5627
(dp5628
g27
(dp5629
g29
Vthe
p5630
sg31
VO
p5631
sg33
VDT
p5632
sg35
I24
ssg10
I559
sg36
g4
sg37
(dp5633
sg39
(dp5634
sg41
I2882
sg42
g21
sg43
g21
sg44
I559
sg45
Vthe
p5635
sg47
I559
sg48
I2885
sbag0
(g23
g2
Ntp5636
Rp5637
(dp5638
g27
(dp5639
g29
Vgold
p5640
sg31
VO
p5641
sg33
VNN
p5642
sg35
I25
ssg10
I560
sg36
g4
sg37
(dp5643
sg39
(dp5644
sg41
I2886
sg42
g21
sg43
g21
sg44
I560
sg45
Vgold
p5645
sg47
I560
sg48
I2890
sbag0
(g23
g2
Ntp5646
Rp5647
(dp5648
g27
(dp5649
g29
Vmedal
p5650
sg31
VO
p5651
sg33
VNN
p5652
sg35
I26
ssg10
I561
sg36
g4
sg37
(dp5653
sg39
(dp5654
sg41
I2891
sg42
g21
sg43
g21
sg44
I561
sg45
Vmedal
p5655
sg47
I561
sg48
I2896
sbag0
(g23
g2
Ntp5656
Rp5657
(dp5658
g27
(dp5659
g29
Vin
p5660
sg31
VO
p5661
sg33
VIN
p5662
sg35
I27
ssg10
I562
sg36
g4
sg37
(dp5663
sg39
(dp5664
sg41
I2897
sg42
g21
sg43
g21
sg44
I562
sg45
Vin
p5665
sg47
I562
sg48
I2899
sbag0
(g23
g2
Ntp5666
Rp5667
(dp5668
g27
(dp5669
g29
Vthe
p5670
sg31
VO
p5671
sg33
VDT
p5672
sg35
I28
ssg10
I563
sg36
g4
sg37
(dp5673
sg39
(dp5674
sg41
I2900
sg42
g21
sg43
g21
sg44
I563
sg45
Vthe
p5675
sg47
I563
sg48
I2903
sbag0
(g23
g2
Ntp5676
Rp5677
(dp5678
g27
(dp5679
g29
Vlight
p5680
sg31
VO
p5681
sg33
VJJ
p5682
sg35
I29
ssg10
I564
sg36
g4
sg37
(dp5683
sg39
(dp5684
sg41
I2904
sg42
g21
sg43
g21
sg44
I564
sg45
VLight
p5685
sg47
I564
sg48
I2909
sbag0
(g23
g2
Ntp5686
Rp5687
(dp5688
g27
(dp5689
g29
Vheavyweight
p5690
sg31
VO
p5691
sg33
VNN
p5692
sg35
I30
ssg10
I565
sg36
g4
sg37
(dp5693
sg39
(dp5694
sg41
I2910
sg42
g21
sg43
g21
sg44
I565
sg45
VHeavyweight
p5695
sg47
I565
sg48
I2921
sbag0
(g23
g2
Ntp5696
Rp5697
(dp5698
g27
(dp5699
g29
V-lrb-
p5700
sg31
VO
p5701
sg33
V-LRB-
p5702
sg35
I31
ssg10
I566
sg36
g4
sg37
(dp5703
sg39
(dp5704
sg41
I2922
sg42
g21
sg43
g21
sg44
I566
sg45
V(
p5705
sg47
I566
sg48
I2923
sbag0
(g23
g2
Ntp5706
Rp5707
(dp5708
g27
(dp5709
g29
V81
p5710
sg31
VNUMBER
p5711
sg33
VCD
p5712
sg35
I32
ssg10
I567
sg36
g4
sg37
(dp5713
sg39
(dp5714
sg41
I2923
sg42
g21
sg43
g21
sg44
I567
sg45
V81
p5715
sg47
I567
sg48
I2925
sbag0
(g23
g2
Ntp5716
Rp5717
(dp5718
g27
(dp5719
g29
Vkg
p5720
sg31
VO
p5721
sg33
VNN
p5722
sg35
I33
ssg10
I568
sg36
g4
sg37
(dp5723
sg39
(dp5724
sg41
I2926
sg42
g21
sg43
g21
sg44
I568
sg45
Vkg
p5725
sg47
I568
sg48
I2928
sbag0
(g23
g2
Ntp5726
Rp5727
(dp5728
g27
(dp5729
g29
V-rrb-
p5730
sg31
VO
p5731
sg33
V-RRB-
p5732
sg35
I34
ssg10
I569
sg36
g4
sg37
(dp5733
sg39
(dp5734
sg41
I2928
sg42
g21
sg43
g21
sg44
I569
sg45
V)
p5735
sg47
I569
sg48
I2929
sbag0
(g23
g2
Ntp5736
Rp5737
(dp5738
g27
(dp5739
g29
Vevent
p5740
sg31
VO
p5741
sg33
VNN
p5742
sg35
I35
ssg10
I570
sg36
g4
sg37
(dp5743
sg39
(dp5744
sg41
I2930
sg42
g21
sg43
g21
sg44
I570
sg45
Vevent
p5745
sg47
I570
sg48
I2935
sbag0
(g23
g2
Ntp5746
Rp5747
(dp5748
g27
(dp5749
g29
V-lsb-
p5750
sg31
VO
p5751
sg33
V-LRB-
p5752
sg35
I36
ssg10
I571
sg36
g4
sg37
(dp5753
sg39
(dp5754
sg41
I2936
sg42
g21
sg43
g21
sg44
I571
sg45
V[
p5755
sg47
I571
sg48
I2937
sbag0
(g23
g2
Ntp5756
Rp5757
(dp5758
g27
(dp5759
g29
Vref
p5760
sg31
VO
p5761
sg33
VNN
p5762
sg35
I37
ssg10
I572
sg36
g4
sg37
(dp5763
sg39
(dp5764
sg41
I2937
sg42
g21
sg43
g21
sg44
I572
sg45
VREF
p5765
sg47
I572
sg48
I2940
sbag0
(g23
g2
Ntp5766
Rp5767
(dp5768
g27
(dp5769
g29
V-rsb-
p5770
sg31
VO
p5771
sg33
V-RRB-
p5772
sg35
I38
ssg10
I573
sg36
g4
sg37
(dp5773
sg39
(dp5774
sg41
I2940
sg42
g21
sg43
g21
sg44
I573
sg45
V]
p5775
sg47
I573
sg48
I2941
sbag0
(g23
g2
Ntp5776
Rp5777
(dp5778
g27
(dp5779
g29
V.
p5780
sg31
VO
p5781
sg33
V.
p5782
sg35
I39
ssg10
I574
sg36
g4
sg37
(dp5783
sg39
(dp5784
sg41
I2941
sg42
g21
sg43
g21
sg44
I574
sg45
V.
p5785
sg47
I574
sg48
I2942
sbasS'Document'
p5786
(lp5787
g4
asS'doc-features'
p5788
g14
sS'Sentence'
p5789
(lp5790
g0
(g23
g2
Ntp5791
Rp5792
(dp5793
g27
(dp5794
S'dep-parse'
p5795
S'not implemented!'
p5796
sg35
I0
sS'constituency-parse'
p5797
V(ROOT\u000a  (S\u000a    (NP (NNP Boxing))\u000a    (VP (VBD had)\u000a      (NP\u000a        (NP (JJ first))\u000a        (SBAR\u000a          (S\u000a            (VP (VBD appeared)\u000a              (PP (IN in)\u000a                (NP\u000a                  (NP (NNP China))\u000a                  (PP (IN in)\u000a                    (NP (DT the) (CD 1920s)))))\u000a              (, ,)\u000a              (ADVP (RB mainly))))))\u000a      (PP (IN in)\u000a        (NP\u000a          (NP (DT the) (NN port) (NNS cities))\u000a          (PP (IN of)\u000a            (NP (NNP Shanghai)\u000a              (CC and)\u000a              (NNP Guangzhou)))\u000a          (, ,)\u000a          (SBAR\u000a            (WHADVP (WRB where))\u000a            (S\u000a              (NP (JJ foreign) (NNS sailors))\u000a              (VP (VBD were)\u000a                (VP (VBN pitted)\u000a                  (PP (IN against)\u000a                    (NP (JJ local) (NNS fighters))))))))))\u000a    (. .)))
p5798
ssg10
I0
sg36
g4
sg37
(dp5799
sg39
(dp5800
S'tokens'
p5801
(lp5802
g25
ag50
ag60
ag70
ag80
ag90
ag100
ag110
ag120
ag130
ag140
ag150
ag160
ag170
ag180
ag190
ag200
ag210
ag220
ag230
ag240
ag250
ag260
ag270
ag280
ag290
ag300
ag310
ag320
assg41
I0
sg42
g5789
sg43
g5789
sg44
I0
sg45
VBoxing had first appeared in China in the 1920s, mainly in the port cities of Shanghai and Guangzhou, where foreign sailors were pitted against local fighters.
p5803
sg47
I29
sg48
I159
sbag0
(g23
g2
Ntp5804
Rp5805
(dp5806
g27
(dp5807
g5795
g5796
sg35
I1
sg5797
V(ROOT\u000a  (S\u000a    (S\u000a      (NP (DT The) (NN sport))\u000a      (VP (VBD grew)))\u000a    (, ,)\u000a    (FRAG\u000a      (ADJP (JJ unsupervised)))\u000a    (. .)))
p5808
ssg10
I1
sg36
g4
sg37
(dp5809
sg39
(dp5810
g5801
(lp5811
g330
ag340
ag350
ag360
ag370
ag380
assg41
I160
sg42
g5789
sg43
g5789
sg44
I29
sg45
V The sport grew, unsupervised.
p5812
sg47
I35
sg48
I189
sbag0
(g23
g2
Ntp5813
Rp5814
(dp5815
g27
(dp5816
g5795
g5796
sg35
I2
sg5797
V(ROOT\u000a  (S\u000a    (PP (IN In)\u000a      (NP (CD 1953)))\u000a    (, ,)\u000a    (PP (IN at)\u000a      (NP\u000a        (NP (DT a) (JJ big) (NN competition))\u000a        (PP (IN in)\u000a          (NP\u000a            (NP (DT the) (JJ northern) (NN city))\u000a            (PP (IN of)\u000a              (NP (NNP Tianjin)))))))\u000a    (, ,)\u000a    (NP (DT a) (NN boxer))\u000a    (VP (VBD died)\u000a      (PP (IN after)\u000a        (NP (DT a) (NN bout))))\u000a    (. .)))
p5817
ssg10
I2
sg36
g4
sg37
(dp5818
sg39
(dp5819
g5801
(lp5820
g390
ag400
ag410
ag420
ag430
ag440
ag450
ag460
ag470
ag480
ag490
ag500
ag510
ag520
ag530
ag540
ag550
ag560
ag570
ag580
ag590
assg41
I191
sg42
g5789
sg43
g5789
sg44
I35
sg45
V\u000a\u000aIn 1953, at a big competition in the northern city of Tianjin, a boxer died after a bout.
p5821
sg47
I56
sg48
I280
sbag0
(g23
g2
Ntp5822
Rp5823
(dp5824
g27
(dp5825
g5795
g5796
sg35
I3
sg5797
V(ROOT\u000a  (S\u000a    (S\u000a      (NP (NNP Sports) (NNS authorities))\u000a      (VP (VBD were)\u000a        (VP (JJ unnerved))))\u000a    (, ,)\u000a    (CC and)\u000a    (S\u000a      (PP (IN in)\u000a        (NP (CD 1959)))\u000a      (, ,)\u000a      (SBAR (IN as)\u000a        (S\u000a          (NP (NNP China))\u000a          (VP (VBD organized)\u000a            (NP (PRP$ its) (JJ first))\u000a            (S\u000a              (NP (NNP National) (NNPS Games))))))\u000a      (, ,)\u000a      (NP (PRP it))\u000a      (VP (VBD dropped)\u000a        (NP (NN boxing))\u000a        (PP (IN from)\u000a          (NP (DT the) (NN lineup)))))\u000a    (. .)))
p5826
ssg10
I3
sg36
g4
sg37
(dp5827
sg39
(dp5828
g5801
(lp5829
g600
ag610
ag620
ag630
ag640
ag650
ag660
ag670
ag680
ag690
ag700
ag710
ag720
ag730
ag740
ag750
ag760
ag770
ag780
ag790
ag800
ag810
ag820
ag830
assg41
I281
sg42
g5789
sg43
g5789
sg44
I56
sg45
V Sports authorities were unnerved, and in 1959, as China organized its first National Games, it dropped boxing from the lineup.
p5830
sg47
I80
sg48
I407
sbag0
(g23
g2
Ntp5831
Rp5832
(dp5833
g27
(dp5834
g5795
g5796
sg35
I4
sg5797
V(ROOT\u000a  (S\u000a    (NP (NNP Mao) (NNP Zedong))\u000a    (VP (VBD was)\u000a      (VP (VBG driving)\u000a        (PP\u000a          (ADVP\u000a            (NP (DT the) (NN country))\u000a            (RBR further))\u000a          (IN into)\u000a          (NP (NN isolation)))))\u000a    (. .)))
p5835
ssg10
I4
sg36
g4
sg37
(dp5836
sg39
(dp5837
g5801
(lp5838
g840
ag850
ag860
ag870
ag880
ag890
ag900
ag910
ag920
ag930
assg41
I408
sg42
g5789
sg43
g5789
sg44
I80
sg45
V Mao Zedong was driving the country further into isolation.
p5839
sg47
I90
sg48
I466
sbag0
(g23
g2
Ntp5840
Rp5841
(dp5842
g27
(dp5843
g5795
g5796
sg35
I5
sg5797
V(ROOT\u000a  (S\u000a    (NP\u000a      (NP (NN Fan) (NNP Hong))\u000a      (, ,)\u000a      (NP\u000a        (NP (DT a) (NN scholar))\u000a        (SBAR\u000a          (WHNP (WP who))\u000a          (S\u000a            (VP (VBZ specializes)\u000a              (PP (IN in)\u000a                (NP\u000a                  (NP (NNP China) (POS 's))\u000a                  (JJ athletic) (NN history)))))))\u000a      (, ,))\u000a    (VP (VBD commented) (, ,) (`` ``)\u000a      (S\u000a        (S\u000a          (NP (NNS People))\u000a          (VP (VBD believed)\u000a            (SBAR (IN that)\u000a              (S\u000a                (NP (NN boxing))\u000a                (VP (VBD was)\u000a                  (ADJP\u000a                    (ADJP (RB very) (JJ brutal))\u000a                    (, ,)\u000a                    (ADJP (RB very) (JJ ruthless))))))))\u000a        (, ,)\u000a        (CC and)\u000a        (S\u000a          (NP (DT those))\u000a          (VP (VBD were)\u000a            (VP (VBN said)\u000a              (S\u000a                (VP (TO to)\u000a                  (VP (VB be)\u000a                    (NP\u000a                      (NP (DT the) (NNS characteristics))\u000a                      (PP (IN of)\u000a                        (NP (NN capitalism))))))))))))\u000a    (. .)))
p5844
ssg10
I5
sg36
g4
sg37
(dp5845
sg39
(dp5846
g5801
(lp5847
g940
ag950
ag960
ag970
ag980
ag990
ag1000
ag1010
ag1020
ag1030
ag1040
ag1050
ag1060
ag1070
ag1080
ag1090
ag1100
ag1110
ag1120
ag1130
ag1140
ag1150
ag1160
ag1170
ag1180
ag1190
ag1200
ag1210
ag1220
ag1230
ag1240
ag1250
ag1260
ag1270
ag1280
ag1290
ag1300
ag1310
assg41
I467
sg42
g5789
sg43
g5789
sg44
I90
sg45
V Fan Hong, a scholar who specializes in China's athletic history, commented, "People believed that boxing was very brutal, very ruthless, and those were said to be the characteristics of capitalism.
p5848
sg47
I128
sg48
I664
sbag0
(g23
g2
Ntp5849
Rp5850
(dp5851
g27
(dp5852
g5795
g5796
sg35
I6
sg5797
V(ROOT\u000a  (S (IN So)\u000a    (NP (PRP it))\u000a    (VP (VBD was)\u000a      (VP (VBN banned)))\u000a    (. .) ('' '')))
p5853
ssg10
I6
sg36
g4
sg37
(dp5854
sg39
(dp5855
g5801
(lp5856
g1320
ag1330
ag1340
ag1350
ag1360
ag1370
assg41
I665
sg42
g5789
sg43
g5789
sg44
I128
sg45
V So it was banned."
p5857
sg47
I134
sg48
I683
sbag0
(g23
g2
Ntp5858
Rp5859
(dp5860
g27
(dp5861
g5795
g5796
sg35
I7
sg5797
V(ROOT\u000a  (NP (. .)))
p5862
ssg10
I7
sg36
g4
sg37
(dp5863
sg39
(dp5864
g5801
(lp5865
g1379
assg41
I684
sg42
g5789
sg43
g5789
sg44
I134
sg45
V .
p5866
sg47
I135
sg48
I685
sbag0
(g23
g2
Ntp5867
Rp5868
(dp5869
g27
(dp5870
g5795
g5796
sg35
I8
sg5797
V(ROOT\u000a  (S\u000a    (SBAR\u000a      (WHADVP (WRB When))\u000a      (S\u000a        (NP (DT the) (NNP Cultural) (NNP Revolution))\u000a        (VP (VBD occurred)\u000a          (PP (IN in)\u000a            (NP (NNP China)))\u000a          (, ,)\u000a          (PP (IN in)\u000a            (NP (CD 1966))))))\u000a    (, ,)\u000a    (NP (DT the) (NNP Communist) (NNP Party))\u000a    (VP (VBD banned)\u000a      (NP (JJ competitive) (NNS sports)))\u000a    (. .)))
p5871
ssg10
I8
sg36
g4
sg37
(dp5872
sg39
(dp5873
g5801
(lp5874
g1389
ag1399
ag1409
ag1419
ag1429
ag1439
ag1449
ag1459
ag1469
ag1479
ag1489
ag1499
ag1509
ag1519
ag1529
ag1539
ag1549
ag1559
assg41
I687
sg42
g5789
sg43
g5789
sg44
I135
sg45
V\u000a\u000aWhen the Cultural Revolution occurred in China, in 1966, the Communist Party banned competitive sports.
p5875
sg47
I153
sg48
I790
sbag0
(g23
g2
Ntp5876
Rp5877
(dp5878
g27
(dp5879
g5795
g5796
sg35
I9
sg5797
V(ROOT\u000a  (S\u000a    (SBAR (IN After)\u000a      (S\u000a        (NP (DT the) (NNP Cultural) (NNP Revolution))\u000a        (VP (VBD subsided))))\u000a    (, ,)\u000a    (PP (IN in)\u000a      (NP (CD 1969)))\u000a    (, ,)\u000a    (NP (NNP China))\u000a    (VP (VBD used)\u000a      (S\u000a        (VP (VB Ping)\u000a          (SBAR\u000a            (S\u000a              (NP (NNP Pong))\u000a              (VP (VBZ matches)\u000a                (S\u000a                  (VP (TO to)\u000a                    (VP (VB reconnect)\u000a                      (PP (IN with)\u000a                        (NP (DT the) (NN world))))))))))))\u000a    (. .)))
p5880
ssg10
I9
sg36
g4
sg37
(dp5881
sg39
(dp5882
g5801
(lp5883
g1569
ag1579
ag1589
ag1599
ag1609
ag1619
ag1629
ag1639
ag1649
ag1659
ag1669
ag1679
ag1689
ag1699
ag1709
ag1719
ag1729
ag1739
ag1749
ag1759
assg41
I791
sg42
g5789
sg43
g5789
sg44
I153
sg45
V After the Cultural Revolution subsided, in 1969, China used Ping Pong matches to reconnect with the world.
p5884
sg47
I173
sg48
I897
sbag0
(g23
g2
Ntp5885
Rp5886
(dp5887
g27
(dp5888
g5795
g5796
sg35
I10
sg5797
V(ROOT\u000a  (S\u000a    (NP (PRP It))\u000a    (VP (VBD was) (RB not)\u000a      (PP (IN until)\u000a        (NP\u000a          (NP (DT the) (JJ late) (NNS 1970s))\u000a          (SBAR\u000a            (WHNP (WDT that))\u000a            (S\u000a              (NP (NNP Deng) (NNP Xiaoping))\u000a              (VP (VBD decided)\u000a                (SBAR (IN that)\u000a                  (S\u000a                    (NP (NN competition))\u000a                    (VP (MD might)\u000a                      (VP (VB be)\u000a                        (ADJP (RB as) (JJ good)\u000a                          (PP (IN for)\u000a                            (NP (NNS athletics))))\u000a                        (SBAR (IN as)\u000a                          (S\u000a                            (NP (PRP it))\u000a                            (VP (VBD was)\u000a                              (PP (IN for)\u000a                                (NP (DT the) (NN economy))))))))))))))))\u000a    (. .)))
p5889
ssg10
I10
sg36
g4
sg37
(dp5890
sg39
(dp5891
g5801
(lp5892
g1769
ag1779
ag1789
ag1799
ag1809
ag1819
ag1829
ag1839
ag1849
ag1859
ag1869
ag1879
ag1889
ag1899
ag1909
ag1919
ag1929
ag1939
ag1949
ag1959
ag1969
ag1979
ag1989
ag1999
ag2009
ag2019
assg41
I898
sg42
g5789
sg43
g5789
sg44
I173
sg45
V It was not until the late 1970s that Deng Xiaoping decided that competition might be as good for athletics as it was for the economy.
p5893
sg47
I199
sg48
I1031
sbag0
(g23
g2
Ntp5894
Rp5895
(dp5896
g27
(dp5897
g5795
g5796
sg35
I11
sg5797
V(ROOT\u000a  (S\u000a    (PP (IN In)\u000a      (NP (NNP December) (CD 1979)))\u000a    (, ,)\u000a    (NP (NNP Deng))\u000a    (VP (VBD invited)\u000a      (NP (NNP Muhammad) (NNP Ali))\u000a      (PP (TO to)\u000a        (NP\u000a          (NP (DT the) (NN compound) (NN housing) (NNP China) (POS 's))\u000a          (JJ top) (NNS leaders))))\u000a    (. .)))
p5898
ssg10
I11
sg36
g4
sg37
(dp5899
sg39
(dp5900
g5801
(lp5901
g2029
ag2039
ag2049
ag2059
ag2069
ag2079
ag2089
ag2099
ag2109
ag2119
ag2129
ag2139
ag2149
ag2159
ag2169
ag2179
ag2189
assg41
I1032
sg42
g5789
sg43
g5789
sg44
I199
sg45
V In December 1979, Deng invited Muhammad Ali to the compound housing China's top leaders.
p5902
sg47
I216
sg48
I1120
sbag0
(g23
g2
Ntp5903
Rp5904
(dp5905
g27
(dp5906
g5795
g5796
sg35
I12
sg5797
V(ROOT\u000a  (S\u000a    (NP (DT The) (NN champion) (NN boxer))\u000a    (VP (VBD hugged)\u000a      (NP (NNP Deng)))\u000a    (. .)))
p5907
ssg10
I12
sg36
g4
sg37
(dp5908
sg39
(dp5909
g5801
(lp5910
g2199
ag2209
ag2219
ag2229
ag2239
ag2249
assg41
I1121
sg42
g5789
sg43
g5789
sg44
I216
sg45
V The champion boxer hugged Deng.
p5911
sg47
I222
sg48
I1152
sbag0
(g23
g2
Ntp5912
Rp5913
(dp5914
g27
(dp5915
g5795
g5796
sg35
I13
sg5797
V(ROOT\u000a  (S\u000a    (NP (PRP They))\u000a    (VP\u000a      (VP (VBD sat))\u000a      (CC and)\u000a      (VP (VBD talked)))\u000a    (. .)))
p5916
ssg10
I13
sg36
g4
sg37
(dp5917
sg39
(dp5918
g5801
(lp5919
g2259
ag2269
ag2279
ag2289
ag2299
assg41
I1153
sg42
g5789
sg43
g5789
sg44
I222
sg45
V They sat and talked.
p5920
sg47
I227
sg48
I1173
sbag0
(g23
g2
Ntp5921
Rp5922
(dp5923
g27
(dp5924
g5795
g5796
sg35
I14
sg5797
V(ROOT\u000a  (S\u000a    (ADVP (RB Later))\u000a    (, ,)\u000a    (S\u000a      (NP (DT the) (NN word))\u000a      (VP (VBD went)\u000a        (ADVP (RB out))))\u000a    (CC and)\u000a    (S\u000a      (NP (NNP Deng))\u000a      (VP (VBD sent)\u000a        (ADVP\u000a          (NP (DT the) (NN message))\u000a          (IN out))\u000a        (SBAR (IN that) (`` ``)\u000a          (S\u000a            (SBAR (IN If)\u000a              (S\u000a                (NP (PRP we))\u000a                (VP (VBP want)\u000a                  (S\u000a                    (VP (TO to)\u000a                      (VP (VB win)\u000a                        (NP (NNS friends)))))\u000a                  (, ,)\u000a                  (SBAR (IN if)\u000a                    (S\u000a                      (NP (PRP we))\u000a                      (VP (VBP want)\u000a                        (S\u000a                          (VP (TO to)\u000a                            (VP (VB win)\u000a                              (NP (NN respect)))))))))))\u000a            (, ,)\u000a            (NP (PRP we))\u000a            (VP (VBP have)\u000a              (S\u000a                (VP (TO to)\u000a                  (VP (VB win)\u000a                    (NP (NNS medals)))))))\u000a          ('' ''))))\u000a    (. .)))
p5925
ssg10
I14
sg36
g4
sg37
(dp5926
sg39
(dp5927
g5801
(lp5928
g2309
ag2319
ag2329
ag2339
ag2349
ag2359
ag2369
ag2379
ag2389
ag2399
ag2409
ag2419
ag2429
ag2439
ag2448
ag2458
ag2468
ag2478
ag2488
ag2498
ag2508
ag2518
ag2528
ag2538
ag2548
ag2558
ag2568
ag2578
ag2588
ag2598
ag2608
ag2618
ag2628
ag2638
ag2647
assg41
I1174
sg42
g5789
sg43
g5789
sg44
I227
sg45
V Later, the word went out and Deng sent the message out that "If we want to win friends, if we want to win respect, we have to win medals".
p5929
sg47
I262
sg48
I1312
sbag0
(g23
g2
Ntp5930
Rp5931
(dp5932
g27
(dp5933
g5795
g5796
sg35
I15
sg5797
V(ROOT\u000a  (S\u000a    (PP (IN In)\u000a      (NP (DT the) (CD 1980s)))\u000a    (, ,)\u000a    (NP (JJ Chinese) (NNS boxers))\u000a    (VP (VBD began)\u000a      (S\u000a        (VP (VBG training)\u000a          (ADVP (RB again))\u000a          (, ,)\u000a          (PP (IN after)\u000a            (NP (DT a) (NN fashion))))))\u000a    (. .)))
p5934
ssg10
I15
sg36
g4
sg37
(dp5935
sg39
(dp5936
g5801
(lp5937
g2657
ag2667
ag2677
ag2687
ag2697
ag2707
ag2717
ag2727
ag2737
ag2747
ag2757
ag2767
ag2777
ag2787
assg41
I1314
sg42
g5789
sg43
g5789
sg44
I262
sg45
V\u000a\u000aIn the 1980s, Chinese boxers began training again, after a fashion.
p5938
sg47
I276
sg48
I1381
sbag0
(g23
g2
Ntp5939
Rp5940
(dp5941
g27
(dp5942
g5795
g5796
sg35
I16
sg5797
V(ROOT\u000a  (S\u000a    (NP (NNS Athletes))\u000a    (VP (VBD had)\u000a      (NP\u000a        (NP (DT no) (NN bags))\u000a        (CC or)\u000a        (NP (NNS gloves))))\u000a    (. .)))
p5943
ssg10
I16
sg36
g4
sg37
(dp5944
sg39
(dp5945
g5801
(lp5946
g2797
ag2807
ag2817
ag2827
ag2837
ag2847
ag2857
assg41
I1382
sg42
g5789
sg43
g5789
sg44
I276
sg45
V Athletes had no bags or gloves.
p5947
sg47
I283
sg48
I1413
sbag0
(g23
g2
Ntp5948
Rp5949
(dp5950
g27
(dp5951
g5795
g5796
sg35
I17
sg5797
V(ROOT\u000a  (S\u000a    (NP (NNS Sandbags))\u000a    (VP (VBD were)\u000a      (ADVP (RB traditionally))\u000a      (VP (VBN used)\u000a        (ADVP (RB instead))))\u000a    (. .)))
p5952
ssg10
I17
sg36
g4
sg37
(dp5953
sg39
(dp5954
g5801
(lp5955
g2867
ag2877
ag2887
ag2897
ag2907
ag2917
assg41
I1414
sg42
g5789
sg43
g5789
sg44
I283
sg45
V Sandbags were traditionally used instead.
p5956
sg47
I289
sg48
I1455
sbag0
(g23
g2
Ntp5957
Rp5958
(dp5959
g27
(dp5960
g5795
g5796
sg35
I18
sg5797
V(ROOT\u000a  (S\u000a    (S\u000a      (NP (NNP Liu) (NN Gang))\u000a      (VP (VBD was)\u000a        (NP\u000a          (NP (CD one))\u000a          (PP (IN of)\u000a            (NP (DT the) (JJS earliest) (NNS recruits))))))\u000a    (CC and)\u000a    (S\u000a      (S\u000a        (VP (VBZ is)\u000a          (ADVP (RB now))\u000a          (NP\u000a            (NP (NNP China) (POS 's))\u000a            (JJS biggest) (NN promoter.China))))\u000a      (ADVP (RB first))\u000a      (VP (VBD competed)\u000a        (PP (IN in)\u000a          (NP\u000a            (NP (NN boxing))\u000a            (PP (IN at)\u000a              (NP (DT the) (CD 1992) (NN Summer)))))\u000a        (NP\u000a          (NP (NNPS Olympics))\u000a          (, ,)\u000a          (PP (IN in)\u000a            (NP\u000a              (NP (NNP Barcelona))\u000a              (, ,)\u000a              (SBAR\u000a                (WHADVP (WRB where))\u000a                (S\u000a                  (NP (NNS competitors))\u000a                  (VP (VBD were)\u000a                    (ADJP (JJ delighted)\u000a                      (S\u000a                        (VP (TO to)\u000a                          (VP (VB face)\u000a                            (PRT (RP off))\u000a                            (PP (IN against)\u000a                              (NP (JJ Chinese) (NNS opponents)))\u000a                            (SBAR (IN as)\u000a                              (S\u000a                                (NP (NNP China))\u000a                                (VP (VBD had)\u000a                                  (VP (VBN been)\u000a                                    (ADJP (JJ weak))\u000a                                    (PP (IN in)\u000a                                      (NP (DT that) (NN sport)))))))))))))))))))\u000a    (. .)))
p5961
ssg10
I18
sg36
g4
sg37
(dp5962
sg39
(dp5963
g5801
(lp5964
g2927
ag2937
ag2947
ag2957
ag2967
ag2977
ag2987
ag2997
ag3007
ag3017
ag3027
ag3037
ag3047
ag3057
ag3067
ag3077
ag3087
ag3097
ag3107
ag3117
ag3127
ag3137
ag3147
ag3157
ag3167
ag3177
ag3187
ag3197
ag3207
ag3217
ag3227
ag3237
ag3247
ag3257
ag3267
ag3277
ag3287
ag3297
ag3307
ag3317
ag3327
ag3337
ag3347
ag3357
ag3367
ag3377
ag3387
assg41
I1456
sg42
g5789
sg43
g5789
sg44
I289
sg45
V Liu Gang was one of the earliest recruits and is now China's biggest promoter.China first competed in boxing at the 1992 Summer Olympics, in Barcelona, where competitors were delighted to face off against Chinese opponents as China had been weak in that sport.
p5965
sg47
I336
sg48
I1716
sbag0
(g23
g2
Ntp5966
Rp5967
(dp5968
g27
(dp5969
g5795
g5796
sg35
I19
sg5797
V(ROOT\u000a  (S\u000a    (NP\u000a      (NP (DT The) (JJS best))\u000a      (SBAR (IN that)\u000a        (S\u000a          (NP (PRP$ their) (NNS coaches))\u000a          (VP (VBD hoped)\u000a            (PP (IN for))))))\u000a    (VP (VBD was)\u000a      (SBAR (IN that)\u000a        (S\u000a          (NP (DT each) (NN fighter))\u000a          (VP (MD might)\u000a            (VP (VB stay)\u000a              (PP (IN on)\u000a                (NP (PRP$ his) (NNS feet)))\u000a              (PP\u000a                (ADVP\u000a                  (NP (DT a) (RB bit))\u000a                  (JJR longer))\u000a                (IN than)\u000a                (NP (DT the) (CD one)))\u000a              (PP (IN before)\u000a                (NP (PRP him))))))))\u000a    (. .)))
p5970
ssg10
I19
sg36
g4
sg37
(dp5971
sg39
(dp5972
g5801
(lp5973
g3397
ag3407
ag3417
ag3427
ag3437
ag3447
ag3457
ag3467
ag3477
ag3487
ag3497
ag3507
ag3517
ag3527
ag3537
ag3547
ag3557
ag3567
ag3577
ag3587
ag3597
ag3607
ag3617
ag3627
ag3637
assg41
I1717
sg42
g5789
sg43
g5789
sg44
I336
sg45
V The best that their coaches hoped for was that each fighter might stay on his feet a bit longer than the one before him.
p5974
sg47
I361
sg48
I1837
sbag0
(g23
g2
Ntp5975
Rp5976
(dp5977
g27
(dp5978
g5795
g5796
sg35
I20
sg5797
V(ROOT\u000a  (S\u000a    (NP (PRP It))\u000a    (VP (VBD was)\u000a      (PP (IN until)\u000a        (NP (DT the) (CD 2004) (NN Summer)))\u000a      (NP\u000a        (NP (NNPS Olympics))\u000a        (PP (IN in)\u000a          (NP (NNP Athens)))\u000a        (SBAR\u000a          (WHNP (WDT that))\u000a          (S\u000a            (NP (NNP Zou) (NNP Shiming))\u000a            (VP (VBD claimed)\u000a              (NP\u000a                (NP (NNP China) (POS 's))\u000a                (JJ first) (NN boxing) (NN medal)))))))\u000a    (. .)))
p5979
ssg10
I20
sg36
g4
sg37
(dp5980
sg39
(dp5981
g5801
(lp5982
g3647
ag3657
ag3667
ag3677
ag3687
ag3697
ag3707
ag3717
ag3727
ag3737
ag3747
ag3757
ag3767
ag3777
ag3787
ag3797
ag3807
ag3817
ag3827
assg41
I1839
sg42
g5789
sg43
g5789
sg44
I361
sg45
V\u000a\u000aIt was until the 2004 Summer Olympics in Athens that Zou Shiming claimed China's first boxing medal.
p5983
sg47
I380
sg48
I1939
sbag0
(g23
g2
Ntp5984
Rp5985
(dp5986
g27
(dp5987
g5795
g5796
sg35
I21
sg5797
V(ROOT\u000a  (S\u000a    (NP (PRP He))\u000a    (ADVP (RB eventually))\u000a    (VP\u000a      (VP (VBD made)\u000a        (NP (PRP it))\u000a        (PP (IN into)\u000a          (NP (DT the) (NNS semifinals))))\u000a      (CC and)\u000a      (VP (VBD won)\u000a        (NP (DT a) (NN bronze))))\u000a    (. .)))
p5988
ssg10
I21
sg36
g4
sg37
(dp5989
sg39
(dp5990
g5801
(lp5991
g3837
ag3847
ag3857
ag3867
ag3877
ag3887
ag3897
ag3907
ag3917
ag3927
ag3937
ag3947
assg41
I1940
sg42
g5789
sg43
g5789
sg44
I380
sg45
V He eventually made it into the semifinals and won a bronze.
p5992
sg47
I392
sg48
I1999
sbag0
(g23
g2
Ntp5993
Rp5994
(dp5995
g27
(dp5996
g5795
g5796
sg35
I22
sg5797
V(ROOT\u000a  (S\u000a    (NP (DT This) (NN achievement))\u000a    (VP (VBD was)\u000a      (VP (VBN greeted)\u000a        (PP (IN with)\u000a          (NP\u000a            (NP (JJ rapturous) (NN applause)\u000a              (CC and)\u000a              (JJ Chinese) (NNS reporters))\u000a            (VP (VBN nicknamed)\u000a              (S\u000a                (NP (PRP him))\u000a                (NP\u000a                  (NP (DT the) (JJ Dark) (NN Horse))\u000a                  (PP (IN at)\u000a                    (NP\u000a                      (ADJP (JJ first)\u000a                        (PP (IN because)\u000a                          (PP (IN of)\u000a                            (NP (PRP$ his) (NN underdog)))))\u000a                      (NN status))))))))))\u000a    (. .)))
p5997
ssg10
I22
sg36
g4
sg37
(dp5998
sg39
(dp5999
g5801
(lp6000
g3957
ag3967
ag3977
ag3987
ag3997
ag4007
ag4017
ag4027
ag4037
ag4047
ag4057
ag4067
ag4077
ag4087
ag4097
ag4107
ag4117
ag4127
ag4137
ag4147
ag4157
ag4167
ag4177
assg41
I2000
sg42
g5789
sg43
g5789
sg44
I392
sg45
V This achievement was greeted with rapturous applause and Chinese reporters nicknamed him the Dark Horse at first because of his underdog status.
p6001
sg47
I415
sg48
I2144
sbag0
(g23
g2
Ntp6002
Rp6003
(dp6004
g27
(dp6005
g5795
g5796
sg35
I23
sg5797
V(ROOT\u000a  (S\u000a    (ADVP (RB Later))\u000a    (, ,)\u000a    (NP (PRP they))\u000a    (VP (VBD tried)\u000a      (NP\u000a        (NP\u000a          (NP (DT the) (NNP Knight))\u000a          (PP (IN of)\u000a            (NP\u000a              (NP (NNP Lightning))\u000a              (CC or)\u000a              (NP (DT the) (NNP Fox)))))\u000a        (CC or)\u000a        (PRN (, ,)\u000a          (ADVP (RB sometimes))\u000a          (, ,))\u000a        (NP (DT the) (NNP Pirate)))\u000a      (, ,)\u000a      (S\u000a        (ADVP (DT all))\u000a        (VP\u000a          (VP (VBG celebrating)\u000a            (NP (PRP$ his) (NN knack))\u000a            (PP (IN for)\u000a              (NP (VBG snatching) (NNS points))))\u000a          (CC and)\u000a          (VP (VBG peeling)\u000a            (ADVP (RB away))\u000a            (PP (IN from)\u000a              (NP\u000a                (NP (PRP$ his) (NNS opponents) (POS '))\u000a                (NN reach)))))))\u000a    (. .)))
p6006
ssg10
I23
sg36
g4
sg37
(dp6007
sg39
(dp6008
g5801
(lp6009
g4187
ag4197
ag4207
ag4217
ag4227
ag4237
ag4247
ag4257
ag4267
ag4277
ag4287
ag4297
ag4307
ag4317
ag4327
ag4337
ag4347
ag4357
ag4367
ag4377
ag4387
ag4397
ag4407
ag4417
ag4427
ag4437
ag4447
ag4457
ag4467
ag4477
ag4487
ag4497
ag4507
ag4517
assg41
I2145
sg42
g5789
sg43
g5789
sg44
I415
sg45
V Later, they tried the Knight of Lightning or the Fox or, sometimes, the Pirate, all celebrating his knack for snatching points and peeling away from his opponents' reach.
p6010
sg47
I449
sg48
I2315
sbag0
(g23
g2
Ntp6011
Rp6012
(dp6013
g27
(dp6014
g5795
g5796
sg35
I24
sg5797
V(ROOT\u000a  (S\u000a    (NP (DT That) (NN strategy))\u000a    (VP (VBD was)\u000a      (VP (VBG helping)\u000a        (S\u000a          (NP (PRP him))\u000a          (VP (VB win)\u000a            (NP (JJ international) (NNS matches))))))\u000a    (. .)))
p6015
ssg10
I24
sg36
g4
sg37
(dp6016
sg39
(dp6017
g5801
(lp6018
g4527
ag4537
ag4547
ag4557
ag4567
ag4577
ag4587
ag4597
ag4607
assg41
I2316
sg42
g5789
sg43
g5789
sg44
I449
sg45
V That strategy was helping him win international matches.
p6019
sg47
I458
sg48
I2372
sbag0
(g23
g2
Ntp6020
Rp6021
(dp6022
g27
(dp6023
g5795
g5796
sg35
I25
sg5797
V(ROOT\u000a  (S\u000a    (PP (IN In)\u000a      (NP (NNP Athens)))\u000a    (, ,)\u000a    (NP (NNP Zou))\u000a    (VP (VBD made)\u000a      (NP (PRP it))\u000a      (PP (TO to)\u000a        (NP (DT the) (NNS semifinals)))\u000a      (, ,)\u000a      (S\u000a        (ADVP (RB eventually))\u000a        (VP (VBG winning)\u000a          (NP\u000a            (NP (DT a) (NN bronze))\u000a            (, ,)\u000a            (NP\u000a              (NP\u000a                (NP (NNP China) (POS 's))\u000a                (JJ first))\u000a              (PP (IN in)\u000a                (NP (NN boxing))))))))\u000a    (. .)))
p6024
ssg10
I25
sg36
g4
sg37
(dp6025
sg39
(dp6026
g5801
(lp6027
g4617
ag4627
ag4637
ag4647
ag4657
ag4667
ag4677
ag4687
ag4697
ag4707
ag4717
ag4727
ag4737
ag4747
ag4757
ag4767
ag4777
ag4787
ag4797
ag4807
ag4817
assg41
I2373
sg42
g5789
sg43
g5789
sg44
I458
sg45
V In Athens, Zou made it to the semifinals, eventually winning a bronze, China\u2019s first in boxing.
p6028
sg47
I479
sg48
I2468
sbag0
(g23
g2
Ntp6029
Rp6030
(dp6031
g27
(dp6032
g5795
g5796
sg35
I26
sg5797
V(ROOT\u000a  (S\u000a    (NP (PRP It))\u000a    (VP (VBD was)\u000a      (NP (DT another) (NN year))\u000a      (SBAR (IN before)\u000a        (S\u000a          (NP (NNP Zou))\u000a          (VP (VBD won)\u000a            (NP (PRP$ his) (JJ first) (NN gold) (NN medal))\u000a            (, ,)\u000a            (PP (IN at)\u000a              (NP (DT the) (CD 2005) (NNP World) (JJ Amateur) (NNP Boxing) (NNP Championships)))\u000a            (, ,)\u000a            (S\u000a              (VP (VBN held)\u000a                (PP (IN in)\u000a                  (NP\u000a                    (NP (DT the) (JJ western) (JJ Chinese) (NN city))\u000a                    (PP (IN of)\u000a                      (NP (NNP Mianyang)))))))))))\u000a    (. .)))
p6033
ssg10
I26
sg36
g4
sg37
(dp6034
sg39
(dp6035
g5801
(lp6036
g4827
ag4837
ag4847
ag4857
ag4867
ag4877
ag4887
ag4897
ag4907
ag4917
ag4927
ag4937
ag4947
ag4957
ag4967
ag4977
ag4987
ag4997
ag5007
ag5017
ag5027
ag5037
ag5047
ag5057
ag5067
ag5077
ag5087
ag5097
ag5107
assg41
I2469
sg42
g5789
sg43
g5789
sg44
I479
sg45
V It was another year before Zou won his first gold medal, at the 2005 World Amateur Boxing Championships, held in the western Chinese city of Mianyang.
p6037
sg47
I508
sg48
I2619
sbag0
(g23
g2
Ntp6038
Rp6039
(dp6040
g27
(dp6041
g5795
g5796
sg35
I27
sg5797
V(ROOT\u000a  (S\u000a    (S\u000a      (NP (PRP He))\u000a      (VP (VBD was)\u000a        (NP\u000a          (NP (DT the) (NN nation) (POS 's))\u000a          (JJ first) (JJ amateur) (NN boxing) (NN champion))))\u000a    (, ,)\u000a    (CC and)\u000a    (S\u000a      (NP (NNP China))\u000a      (VP (VBD celebrated)))\u000a    (. .)))
p6042
ssg10
I27
sg36
g4
sg37
(dp6043
sg39
(dp6044
g5801
(lp6045
g5117
ag5127
ag5137
ag5147
ag5157
ag5167
ag5177
ag5187
ag5197
ag5207
ag5217
ag5227
ag5237
ag5247
assg41
I2620
sg42
g5789
sg43
g5789
sg44
I508
sg45
V He was the nation's first amateur boxing champion, and China celebrated.
p6046
sg47
I522
sg48
I2692
sbag0
(g23
g2
Ntp6047
Rp6048
(dp6049
g27
(dp6050
g5795
g5796
sg35
I28
sg5797
V(ROOT\u000a  (S\u000a    (NP\u000a      (NP (NNP China) (POS 's))\u000a      (NN boxing) (NN performance))\u000a    (VP (VBD improved)\u000a      (ADVP (RB dramatically))\u000a      (PP (IN at)\u000a        (NP\u000a          (NP\u000a            (NP (DT the) (CD 2008) (NN Summer))\u000a            (NNPS Olympics))\u000a          (PP (IN in)\u000a            (NP (NNP Beijing))))))\u000a    (. .)))
p6051
ssg10
I28
sg36
g4
sg37
(dp6052
sg39
(dp6053
g5801
(lp6054
g5257
ag5267
ag5277
ag5287
ag5297
ag5307
ag5317
ag5327
ag5337
ag5347
ag5357
ag5367
ag5377
ag5387
assg41
I2695
sg42
g5789
sg43
g5789
sg44
I522
sg45
V \u000a\u000aChina's boxing performance improved dramatically at the 2008 Summer Olympics in Beijing.
p6055
sg47
I536
sg48
I2783
sbag0
(g23
g2
Ntp6056
Rp6057
(dp6058
g27
(dp6059
g5795
g5796
sg35
I29
sg5797
V(ROOT\u000a  (S\u000a    (S\u000a      (NP (NNP Zou) (NNP Shiming))\u000a      (VP (VBD won)\u000a        (NP (DT the) (NN gold) (NN medal))\u000a        (PP (IN in)\u000a          (NP (DT the) (JJ Light) (NN Flyweight)\u000a            (PRN (-LRB- -LRB-)\u000a              (NP (CD -48) (NN kg))\u000a              (-RRB- -RRB-))\u000a            (NN event)))))\u000a    (, ,)\u000a    (NP (-LRB- -LSB-) (NNP REF) (-RRB- -RSB-)\u000a      (CC and)\u000a      (NNP Zhang) (NNP Xiaoping))\u000a    (VP (VBD won)\u000a      (NP (DT the) (NN gold) (NN medal))\u000a      (PP (IN in)\u000a        (NP (DT the) (JJ Light) (NN Heavyweight)\u000a          (PRN (-LRB- -LRB-)\u000a            (NP (CD 81) (NN kg))\u000a            (-RRB- -RRB-))\u000a          (NN event)))\u000a      (PP (-LRB- -LSB-)\u000a        (NP (NN REF) (-RRB- -RSB-))))\u000a    (. .)))
p6060
ssg10
I29
sg36
g4
sg37
(dp6061
sg39
(dp6062
g5801
(lp6063
g5397
ag5407
ag5417
ag5427
ag5437
ag5447
ag5457
ag5467
ag5477
ag5487
ag5497
ag5507
ag5517
ag5527
ag5537
ag5547
ag5557
ag5567
ag5577
ag5587
ag5597
ag5607
ag5617
ag5627
ag5637
ag5647
ag5657
ag5667
ag5677
ag5687
ag5697
ag5707
ag5717
ag5727
ag5737
ag5747
ag5757
ag5767
ag5777
assg41
I2784
sg42
g5789
sg43
g5789
sg44
I536
sg45
V Zou Shiming won the gold medal in the Light Flyweight (-48 kg) event,[REF] and Zhang Xiaoping won the gold medal in the Light Heavyweight (81 kg) event [REF].
p6064
sg47
I575
sg48
I2942
sbassg37
(dp6065
sg39
(dp6066
sg47
I-1
sg5801
g22
sg42
g5786
sg36
Nsg27
(dp6067
sg44
I0
sg45
VBoxing had first appeared in China in the 1920s, mainly in the port cities of Shanghai and Guangzhou, where foreign sailors were pitted against local fighters. The sport grew, unsupervised.\u000a\u000aIn 1953, at a big competition in the northern city of Tianjin, a boxer died after a bout. Sports authorities were unnerved, and in 1959, as China organized its first National Games, it dropped boxing from the lineup. Mao Zedong was driving the country further into isolation. Fan Hong, a scholar who specializes in China's athletic history, commented, "People believed that boxing was very brutal, very ruthless, and those were said to be the characteristics of capitalism. So it was banned." .\u000a\u000aWhen the Cultural Revolution occurred in China, in 1966, the Communist Party banned competitive sports. After the Cultural Revolution subsided, in 1969, China used Ping Pong matches to reconnect with the world. It was not until the late 1970s that Deng Xiaoping decided that competition might be as good for athletics as it was for the economy. In December 1979, Deng invited Muhammad Ali to the compound housing China's top leaders. The champion boxer hugged Deng. They sat and talked. Later, the word went out and Deng sent the message out that "If we want to win friends, if we want to win respect, we have to win medals".\u000a\u000aIn the 1980s, Chinese boxers began training again, after a fashion. Athletes had no bags or gloves. Sandbags were traditionally used instead. Liu Gang was one of the earliest recruits and is now China's biggest promoter.China first competed in boxing at the 1992 Summer Olympics, in Barcelona, where competitors were delighted to face off against Chinese opponents as China had been weak in that sport. The best that their coaches hoped for was that each fighter might stay on his feet a bit longer than the one before him.\u000a\u000aIt was until the 2004 Summer Olympics in Athens that Zou Shiming claimed China's first boxing medal. He eventually made it into the semifinals and won a bronze. This achievement was greeted with rapturous applause and Chinese reporters nicknamed him the Dark Horse at first because of his underdog status. Later, they tried the Knight of Lightning or the Fox or, sometimes, the Pirate, all celebrating his knack for snatching points and peeling away from his opponents' reach. That strategy was helping him win international matches. In Athens, Zou made it to the semifinals, eventually winning a bronze, China\u2019s first in boxing. It was another year before Zou won his first gold medal, at the 2005 World Amateur Boxing Championships, held in the western Chinese city of Mianyang. He was the nation's first amateur boxing champion, and China celebrated. \u000a\u000aChina's boxing performance improved dramatically at the 2008 Summer Olympics in Beijing. Zou Shiming won the gold medal in the Light Flyweight (-48 kg) event,[REF] and Zhang Xiaoping won the gold medal in the Light Heavyweight (81 kg) event [REF].
p6068
sS'sents'
p6069
g5790
sg43
g5786
sg41
I0
sS'id'
p6070
g16
sg48
I2942
sS'sentFeatures'
p6071
(lp6072
sb.