ccopy_reg
_reconstructor
p0
(cpygate.doc
Document
p1
c__builtin__
object
p2
Ntp3
Rp4
(dp5
S'src'
p6
VThe UNESCO Convention on the Protection and Promotion of the Diversity of Cultural Expressions is a UNESCO convention and treaty adopted by the UNESCO General Conference on 20 October 2005. "The Convention recognises the rights of Parties to take measures to protect and promote the diversity of cultural expressions, and impose obligations at both domestic and international levels on Parties."[REF] .\u000a\u000aThe convention is a legally-binding international agreement that ensures artists, cultural professionals, practitioners and citizens worldwide can create, produce, disseminate and enjoy a broad range of cultural goods, services and activities, including their own [REF]. It was adopted in response to "growing pressure exerted on countries to waive their right to enforce cultural policies and to put all aspects of the cultural sector on the table when negociating international trade agreements."[REF] "The international community signalled the urgency to implement an international law that would recognize:\u000a\u000aThe distinctive nature of cultural goods, services and activities as vehicles of identity, values and meaning;\u000aThat while cultural goods, services and activities have important economic value, they are not mere commodities or consumer goods that can only be regarded as objects of trade."[REF] . \u000a\u000aThe Convention\u2019s main objective is to provide a legally-binding international agreement that reaffirms the sovereign right of States to adopt cultural policies that support their cultural industries [REF]. Recognizing that the diversity of cultural expressions is a "rich asset for individuals and societies, the protection, promotion and maintenance of cultural diversity are an essential requirement for sustainable development for the benefit of present and future generations." [REF]. The Convention also defines on cultural industry and interculturality[REF] .\u000a\u000aSince the late 1980s, a growing number of countries were showing concern that "the proliferation of trade agreements promoting absolute market liberalization dramatically increased the threat to cultural industries. Countries wishing to retain their right to enforce cultural policies risked being marginalized and unable to maintain their position."[REF] . \u000a\u000aIn 2001, the UNESCO Universal Declaration on Cultural Diversity was adopted[REF] and May 21 was declared the World Day for Cultural Diversity for Dialogue and Development. \u000a\u000a2003 to 2005 marked the years where negotiations at UNESCO started took place to create an international agreement that aims to protect and promote the diversity of cultural expressions. \u000a\u000aOctober 20, 2005: UNESCO Convention on the Protection and Promotion of the Diversity of Cultural Expressions was adopted. \u000a\u000aMarch 18, 2007: The Convention enters into force and three months later, the 56 Member States that ratified it meet in Paris for the first Conference of the Parties to begin work on implementing the Convention. \u000a\u000aTo date, 117 Member States as well as the European Union have ratified the Convention [REF].\u000a\u000aTo reaffirm the sovereign right of States to adopt cultural policies while ensuring the free movement of ideas and works. \u000aTo recognize the distinct nature of cultural goods and services as vehicles of values, identity and meaning. \u000aTo define a new framework for international cultural cooperation, the keystone of the Convention \u000aTo create the conditions for cultures to flourish and freely interact in a mutually beneficial manner \u000aTo endevour to spport cooperation for sustainable development and poverty reduction\u000aTo ensure that civil society plays a major role in the implementation of the Convention [REF].
p7
sS'string'
p8
S'The UNESCO Convention on the Protection and Promotion of the Diversity of Cultural Expressions is a UNESCO convention and treaty adopted by the UNESCO General Conference on 20 October 2005. "The Convention recognises the rights of Parties to take measures to protect and promote the diversity of cultural expressions, and impose obligations at both domestic and international levels on Parties."[REF] .\n\nThe convention is a legally-binding international agreement that ensures artists, cultural professionals, practitioners and citizens worldwide can create, produce, disseminate and enjoy a broad range of cultural goods, services and activities, including their own [REF]. It was adopted in response to "growing pressure exerted on countries to waive their right to enforce cultural policies and to put all aspects of the cultural sector on the table when negociating international trade agreements."[REF] "The international community signalled the urgency to implement an international law that would recognize:\n\nThe distinctive nature of cultural goods, services and activities as vehicles of identity, values and meaning;\nThat while cultural goods, services and activities have important economic value, they are not mere commodities or consumer goods that can only be regarded as objects of trade."[REF] . \n\nThe Convention\xe2\x80\x99s main objective is to provide a legally-binding international agreement that reaffirms the sovereign right of States to adopt cultural policies that support their cultural industries [REF]. Recognizing that the diversity of cultural expressions is a "rich asset for individuals and societies, the protection, promotion and maintenance of cultural diversity are an essential requirement for sustainable development for the benefit of present and future generations." [REF]. The Convention also defines on cultural industry and interculturality[REF] .\n\nSince the late 1980s, a growing number of countries were showing concern that "the proliferation of trade agreements promoting absolute market liberalization dramatically increased the threat to cultural industries. Countries wishing to retain their right to enforce cultural policies risked being marginalized and unable to maintain their position."[REF] . \n\nIn 2001, the UNESCO Universal Declaration on Cultural Diversity was adopted[REF] and May 21 was declared the World Day for Cultural Diversity for Dialogue and Development. \n\n2003 to 2005 marked the years where negotiations at UNESCO started took place to create an international agreement that aims to protect and promote the diversity of cultural expressions. \n\nOctober 20, 2005: UNESCO Convention on the Protection and Promotion of the Diversity of Cultural Expressions was adopted. \n\nMarch 18, 2007: The Convention enters into force and three months later, the 56 Member States that ratified it meet in Paris for the first Conference of the Parties to begin work on implementing the Convention. \n\nTo date, 117 Member States as well as the European Union have ratified the Convention [REF].\n\nTo reaffirm the sovereign right of States to adopt cultural policies while ensuring the free movement of ideas and works. \nTo recognize the distinct nature of cultural goods and services as vehicles of values, identity and meaning. \nTo define a new framework for international cultural cooperation, the keystone of the Convention \nTo create the conditions for cultures to flourish and freely interact in a mutually beneficial manner \nTo endevour to spport cooperation for sustainable development and poverty reduction\nTo ensure that civil society plays a major role in the implementation of the Convention [REF].'
p9
sS'idx'
p10
I0
sS'tknFeatures'
p11
(lp12
sS'docFeatures'
p13
(dp14
S'file_id'
p15
S'Convention_on_the_Protection_and_Promotion_of_the_Diversity_of_Cultural_Expressions'
p16
ssS'items'
p17
(dp18
S'raw'
p19
VThe UNESCO Convention on the Protection and Promotion of the Diversity of Cultural Expressions is a UNESCO convention and treaty adopted by the UNESCO General Conference on 20 October 2005. "The Convention recognises the rights of Parties to take measures to protect and promote the diversity of cultural expressions, and impose obligations at both domestic and international levels on Parties."[REF] .\u000a\u000aThe convention is a legally-binding international agreement that ensures artists, cultural professionals, practitioners and citizens worldwide can create, produce, disseminate and enjoy a broad range of cultural goods, services and activities, including their own [REF]. It was adopted in response to "growing pressure exerted on countries to waive their right to enforce cultural policies and to put all aspects of the cultural sector on the table when negociating international trade agreements."[REF] "The international community signalled the urgency to implement an international law that would recognize:\u000a\u000aThe distinctive nature of cultural goods, services and activities as vehicles of identity, values and meaning;\u000aThat while cultural goods, services and activities have important economic value, they are not mere commodities or consumer goods that can only be regarded as objects of trade."[REF] . \u000a\u000aThe Convention\u2019s main objective is to provide a legally-binding international agreement that reaffirms the sovereign right of States to adopt cultural policies that support their cultural industries [REF]. Recognizing that the diversity of cultural expressions is a "rich asset for individuals and societies, the protection, promotion and maintenance of cultural diversity are an essential requirement for sustainable development for the benefit of present and future generations." [REF]. The Convention also defines on cultural industry and interculturality[REF] .\u000a\u000aSince the late 1980s, a growing number of countries were showing concern that "the proliferation of trade agreements promoting absolute market liberalization dramatically increased the threat to cultural industries. Countries wishing to retain their right to enforce cultural policies risked being marginalized and unable to maintain their position."[REF] . \u000a\u000aIn 2001, the UNESCO Universal Declaration on Cultural Diversity was adopted[REF] and May 21 was declared the World Day for Cultural Diversity for Dialogue and Development. \u000a\u000a2003 to 2005 marked the years where negotiations at UNESCO started took place to create an international agreement that aims to protect and promote the diversity of cultural expressions. \u000a\u000aOctober 20, 2005: UNESCO Convention on the Protection and Promotion of the Diversity of Cultural Expressions was adopted. \u000a\u000aMarch 18, 2007: The Convention enters into force and three months later, the 56 Member States that ratified it meet in Paris for the first Conference of the Parties to begin work on implementing the Convention. \u000a\u000aTo date, 117 Member States as well as the European Union have ratified the Convention [REF].\u000a\u000aTo reaffirm the sovereign right of States to adopt cultural policies while ensuring the free movement of ideas and works. \u000aTo recognize the distinct nature of cultural goods and services as vehicles of values, identity and meaning. \u000aTo define a new framework for international cultural cooperation, the keystone of the Convention \u000aTo create the conditions for cultures to flourish and freely interact in a mutually beneficial manner \u000aTo endevour to spport cooperation for sustainable development and poverty reduction\u000aTo ensure that civil society plays a major role in the implementation of the Convention [REF].
p20
sS'Token'
p21
(lp22
g0
(cpygate.annotation
Annotation
p23
g2
Ntp24
Rp25
(dp26
S'features'
p27
(dp28
S'lemma'
p29
Vthe
p30
sS'ner'
p31
VO
p32
sS'pos'
p33
VDT
p34
sS'index'
p35
I1
ssg10
I0
sS'doc'
p36
g4
sS'labels'
p37
(dp38
sS'relations'
p39
(dp40
sS'cStart'
p41
I0
sS'subType'
p42
g21
sS'annoType'
p43
g21
sS'tStart'
p44
I0
sS'text'
p45
VThe
p46
sS'tEnd'
p47
I0
sS'cEnd'
p48
I3
sbag0
(g23
g2
Ntp49
Rp50
(dp51
g27
(dp52
g29
VUNESCO
p53
sg31
VORGANIZATION
p54
sg33
VNNP
p55
sg35
I2
ssg10
I1
sg36
g4
sg37
(dp56
sg39
(dp57
sg41
I4
sg42
g21
sg43
g21
sg44
I1
sg45
VUNESCO
p58
sg47
I1
sg48
I10
sbag0
(g23
g2
Ntp59
Rp60
(dp61
g27
(dp62
g29
VConvention
p63
sg31
VO
p64
sg33
VNNP
p65
sg35
I3
ssg10
I2
sg36
g4
sg37
(dp66
sg39
(dp67
sg41
I11
sg42
g21
sg43
g21
sg44
I2
sg45
VConvention
p68
sg47
I2
sg48
I21
sbag0
(g23
g2
Ntp69
Rp70
(dp71
g27
(dp72
g29
Von
p73
sg31
VO
p74
sg33
VIN
p75
sg35
I4
ssg10
I3
sg36
g4
sg37
(dp76
sg39
(dp77
sg41
I12
sg42
g21
sg43
g21
sg44
I3
sg45
Von
p78
sg47
I3
sg48
I14
sbag0
(g23
g2
Ntp79
Rp80
(dp81
g27
(dp82
g29
Vthe
p83
sg31
VO
p84
sg33
VDT
p85
sg35
I5
ssg10
I4
sg36
g4
sg37
(dp86
sg39
(dp87
sg41
I25
sg42
g21
sg43
g21
sg44
I4
sg45
Vthe
p88
sg47
I4
sg48
I28
sbag0
(g23
g2
Ntp89
Rp90
(dp91
g27
(dp92
g29
Vprotection
p93
sg31
VO
p94
sg33
VNN
p95
sg35
I6
ssg10
I5
sg36
g4
sg37
(dp96
sg39
(dp97
sg41
I29
sg42
g21
sg43
g21
sg44
I5
sg45
VProtection
p98
sg47
I5
sg48
I39
sbag0
(g23
g2
Ntp99
Rp100
(dp101
g27
(dp102
g29
Vand
p103
sg31
VO
p104
sg33
VCC
p105
sg35
I7
ssg10
I6
sg36
g4
sg37
(dp106
sg39
(dp107
sg41
I40
sg42
g21
sg43
g21
sg44
I6
sg45
Vand
p108
sg47
I6
sg48
I43
sbag0
(g23
g2
Ntp109
Rp110
(dp111
g27
(dp112
g29
VPromotion
p113
sg31
VO
p114
sg33
VNNP
p115
sg35
I8
ssg10
I7
sg36
g4
sg37
(dp116
sg39
(dp117
sg41
I44
sg42
g21
sg43
g21
sg44
I7
sg45
VPromotion
p118
sg47
I7
sg48
I53
sbag0
(g23
g2
Ntp119
Rp120
(dp121
g27
(dp122
g29
Vof
p123
sg31
VO
p124
sg33
VIN
p125
sg35
I9
ssg10
I8
sg36
g4
sg37
(dp126
sg39
(dp127
sg41
I54
sg42
g21
sg43
g21
sg44
I8
sg45
Vof
p128
sg47
I8
sg48
I56
sbag0
(g23
g2
Ntp129
Rp130
(dp131
g27
(dp132
g29
Vthe
p133
sg31
VO
p134
sg33
VDT
p135
sg35
I10
ssg10
I9
sg36
g4
sg37
(dp136
sg39
(dp137
sg41
I57
sg42
g21
sg43
g21
sg44
I9
sg45
Vthe
p138
sg47
I9
sg48
I60
sbag0
(g23
g2
Ntp139
Rp140
(dp141
g27
(dp142
g29
Vdiversity
p143
sg31
VO
p144
sg33
VNN
p145
sg35
I11
ssg10
I10
sg36
g4
sg37
(dp146
sg39
(dp147
sg41
I61
sg42
g21
sg43
g21
sg44
I10
sg45
VDiversity
p148
sg47
I10
sg48
I70
sbag0
(g23
g2
Ntp149
Rp150
(dp151
g27
(dp152
g29
Vof
p153
sg31
VO
p154
sg33
VIN
p155
sg35
I12
ssg10
I11
sg36
g4
sg37
(dp156
sg39
(dp157
sg41
I71
sg42
g21
sg43
g21
sg44
I11
sg45
Vof
p158
sg47
I11
sg48
I73
sbag0
(g23
g2
Ntp159
Rp160
(dp161
g27
(dp162
g29
Vcultural
p163
sg31
VO
p164
sg33
VJJ
p165
sg35
I13
ssg10
I12
sg36
g4
sg37
(dp166
sg39
(dp167
sg41
I74
sg42
g21
sg43
g21
sg44
I12
sg45
VCultural
p168
sg47
I12
sg48
I82
sbag0
(g23
g2
Ntp169
Rp170
(dp171
g27
(dp172
g29
Vexpression
p173
sg31
VO
p174
sg33
VNNS
p175
sg35
I14
ssg10
I13
sg36
g4
sg37
(dp176
sg39
(dp177
sg41
I83
sg42
g21
sg43
g21
sg44
I13
sg45
VExpressions
p178
sg47
I13
sg48
I94
sbag0
(g23
g2
Ntp179
Rp180
(dp181
g27
(dp182
g29
Vbe
p183
sg31
VO
p184
sg33
VVBZ
p185
sg35
I15
ssg10
I14
sg36
g4
sg37
(dp186
sg39
(dp187
sg41
I95
sg42
g21
sg43
g21
sg44
I14
sg45
Vis
p188
sg47
I14
sg48
I97
sbag0
(g23
g2
Ntp189
Rp190
(dp191
g27
(dp192
g29
Va
p193
sg31
VO
p194
sg33
VDT
p195
sg35
I16
ssg10
I15
sg36
g4
sg37
(dp196
sg39
(dp197
sg41
I98
sg42
g21
sg43
g21
sg44
I15
sg45
Va
p198
sg47
I15
sg48
I99
sbag0
(g23
g2
Ntp199
Rp200
(dp201
g27
(dp202
g29
VUNESCO
p203
sg31
VORGANIZATION
p204
sg33
VNNP
p205
sg35
I17
ssg10
I16
sg36
g4
sg37
(dp206
sg39
(dp207
sg41
I100
sg42
g21
sg43
g21
sg44
I16
sg45
VUNESCO
p208
sg47
I16
sg48
I106
sbag0
(g23
g2
Ntp209
Rp210
(dp211
g27
(dp212
g29
Vconvention
p213
sg31
VO
p214
sg33
VNN
p215
sg35
I18
ssg10
I17
sg36
g4
sg37
(dp216
sg39
(dp217
sg41
I107
sg42
g21
sg43
g21
sg44
I17
sg45
Vconvention
p218
sg47
I17
sg48
I117
sbag0
(g23
g2
Ntp219
Rp220
(dp221
g27
(dp222
g29
Vand
p223
sg31
VO
p224
sg33
VCC
p225
sg35
I19
ssg10
I18
sg36
g4
sg37
(dp226
sg39
(dp227
sg41
I118
sg42
g21
sg43
g21
sg44
I18
sg45
Vand
p228
sg47
I18
sg48
I121
sbag0
(g23
g2
Ntp229
Rp230
(dp231
g27
(dp232
g29
Vtreaty
p233
sg31
VO
p234
sg33
VNN
p235
sg35
I20
ssg10
I19
sg36
g4
sg37
(dp236
sg39
(dp237
sg41
I122
sg42
g21
sg43
g21
sg44
I19
sg45
Vtreaty
p238
sg47
I19
sg48
I128
sbag0
(g23
g2
Ntp239
Rp240
(dp241
g27
(dp242
g29
Vadopt
p243
sg31
VO
p244
sg33
VVBN
p245
sg35
I21
ssg10
I20
sg36
g4
sg37
(dp246
sg39
(dp247
sg41
I129
sg42
g21
sg43
g21
sg44
I20
sg45
Vadopted
p248
sg47
I20
sg48
I136
sbag0
(g23
g2
Ntp249
Rp250
(dp251
g27
(dp252
g29
Vby
p253
sg31
VO
p254
sg33
VIN
p255
sg35
I22
ssg10
I21
sg36
g4
sg37
(dp256
sg39
(dp257
sg41
I137
sg42
g21
sg43
g21
sg44
I21
sg45
Vby
p258
sg47
I21
sg48
I139
sbag0
(g23
g2
Ntp259
Rp260
(dp261
g27
(dp262
g29
Vthe
p263
sg31
VO
p264
sg33
VDT
p265
sg35
I23
ssg10
I22
sg36
g4
sg37
(dp266
sg39
(dp267
sg41
I140
sg42
g21
sg43
g21
sg44
I22
sg45
Vthe
p268
sg47
I22
sg48
I143
sbag0
(g23
g2
Ntp269
Rp270
(dp271
g27
(dp272
g29
VUNESCO
p273
sg31
VORGANIZATION
p274
sg33
VNNP
p275
sg35
I24
ssg10
I23
sg36
g4
sg37
(dp276
sg39
(dp277
sg41
I144
sg42
g21
sg43
g21
sg44
I23
sg45
VUNESCO
p278
sg47
I23
sg48
I150
sbag0
(g23
g2
Ntp279
Rp280
(dp281
g27
(dp282
g29
VGeneral
p283
sg31
VO
p284
sg33
VNNP
p285
sg35
I25
ssg10
I24
sg36
g4
sg37
(dp286
sg39
(dp287
sg41
I151
sg42
g21
sg43
g21
sg44
I24
sg45
VGeneral
p288
sg47
I24
sg48
I158
sbag0
(g23
g2
Ntp289
Rp290
(dp291
g27
(dp292
g29
VConference
p293
sg31
VO
p294
sg33
VNNP
p295
sg35
I26
ssg10
I25
sg36
g4
sg37
(dp296
sg39
(dp297
sg41
I159
sg42
g21
sg43
g21
sg44
I25
sg45
VConference
p298
sg47
I25
sg48
I169
sbag0
(g23
g2
Ntp299
Rp300
(dp301
g27
(dp302
g29
Von
p303
sg31
VO
p304
sg33
VIN
p305
sg35
I27
ssg10
I26
sg36
g4
sg37
(dp306
sg39
(dp307
sg41
I160
sg42
g21
sg43
g21
sg44
I26
sg45
Von
p308
sg47
I26
sg48
I162
sbag0
(g23
g2
Ntp309
Rp310
(dp311
g27
(dp312
g29
V20
p313
sg31
VDATE
p314
sg33
VCD
p315
sg35
I28
ssg10
I27
sg36
g4
sg37
(dp316
sg39
(dp317
sg41
I173
sg42
g21
sg43
g21
sg44
I27
sg45
V20
p318
sg47
I27
sg48
I175
sbag0
(g23
g2
Ntp319
Rp320
(dp321
g27
(dp322
g29
VOctober
p323
sg31
VDATE
p324
sg33
VNNP
p325
sg35
I29
ssg10
I28
sg36
g4
sg37
(dp326
sg39
(dp327
sg41
I176
sg42
g21
sg43
g21
sg44
I28
sg45
VOctober
p328
sg47
I28
sg48
I183
sbag0
(g23
g2
Ntp329
Rp330
(dp331
g27
(dp332
g29
V2005
p333
sg31
VDATE
p334
sg33
VCD
p335
sg35
I30
ssg10
I29
sg36
g4
sg37
(dp336
sg39
(dp337
sg41
I184
sg42
g21
sg43
g21
sg44
I29
sg45
V2005
p338
sg47
I29
sg48
I188
sbag0
(g23
g2
Ntp339
Rp340
(dp341
g27
(dp342
g29
V.
p343
sg31
VO
p344
sg33
V.
p345
sg35
I31
ssg10
I30
sg36
g4
sg37
(dp346
sg39
(dp347
sg41
I188
sg42
g21
sg43
g21
sg44
I30
sg45
V.
p348
sg47
I30
sg48
I189
sbag0
(g23
g2
Ntp349
Rp350
(dp351
g27
(dp352
g29
V``
p353
sg31
VO
p354
sg33
V``
p355
sg35
I1
ssg10
I31
sg36
g4
sg37
(dp356
sg39
(dp357
sg41
I190
sg42
g21
sg43
g21
sg44
I31
sg45
V"
p358
sg47
I31
sg48
I191
sbag0
(g23
g2
Ntp359
Rp360
(dp361
g27
(dp362
g29
Vthe
p363
sg31
VO
p364
sg33
VDT
p365
sg35
I2
ssg10
I32
sg36
g4
sg37
(dp366
sg39
(dp367
sg41
I191
sg42
g21
sg43
g21
sg44
I32
sg45
VThe
p368
sg47
I32
sg48
I194
sbag0
(g23
g2
Ntp369
Rp370
(dp371
g27
(dp372
g29
VConvention
p373
sg31
VMISC
p374
sg33
VNNP
p375
sg35
I3
ssg10
I33
sg36
g4
sg37
(dp376
sg39
(dp377
sg41
I195
sg42
g21
sg43
g21
sg44
I33
sg45
VConvention
p378
sg47
I33
sg48
I205
sbag0
(g23
g2
Ntp379
Rp380
(dp381
g27
(dp382
g29
Vrecognise
p383
sg31
VO
p384
sg33
VVBZ
p385
sg35
I4
ssg10
I34
sg36
g4
sg37
(dp386
sg39
(dp387
sg41
I206
sg42
g21
sg43
g21
sg44
I34
sg45
Vrecognises
p388
sg47
I34
sg48
I216
sbag0
(g23
g2
Ntp389
Rp390
(dp391
g27
(dp392
g29
Vthe
p393
sg31
VO
p394
sg33
VDT
p395
sg35
I5
ssg10
I35
sg36
g4
sg37
(dp396
sg39
(dp397
sg41
I217
sg42
g21
sg43
g21
sg44
I35
sg45
Vthe
p398
sg47
I35
sg48
I220
sbag0
(g23
g2
Ntp399
Rp400
(dp401
g27
(dp402
g29
Vrights
p403
sg31
VO
p404
sg33
VNNS
p405
sg35
I6
ssg10
I36
sg36
g4
sg37
(dp406
sg39
(dp407
sg41
I221
sg42
g21
sg43
g21
sg44
I36
sg45
Vrights
p408
sg47
I36
sg48
I227
sbag0
(g23
g2
Ntp409
Rp410
(dp411
g27
(dp412
g29
Vof
p413
sg31
VO
p414
sg33
VIN
p415
sg35
I7
ssg10
I37
sg36
g4
sg37
(dp416
sg39
(dp417
sg41
I228
sg42
g21
sg43
g21
sg44
I37
sg45
Vof
p418
sg47
I37
sg48
I230
sbag0
(g23
g2
Ntp419
Rp420
(dp421
g27
(dp422
g29
Vparty
p423
sg31
VO
p424
sg33
VNNS
p425
sg35
I8
ssg10
I38
sg36
g4
sg37
(dp426
sg39
(dp427
sg41
I231
sg42
g21
sg43
g21
sg44
I38
sg45
VParties
p428
sg47
I38
sg48
I238
sbag0
(g23
g2
Ntp429
Rp430
(dp431
g27
(dp432
g29
Vto
p433
sg31
VO
p434
sg33
VTO
p435
sg35
I9
ssg10
I39
sg36
g4
sg37
(dp436
sg39
(dp437
sg41
I239
sg42
g21
sg43
g21
sg44
I39
sg45
Vto
p438
sg47
I39
sg48
I241
sbag0
(g23
g2
Ntp439
Rp440
(dp441
g27
(dp442
g29
Vtake
p443
sg31
VO
p444
sg33
VVB
p445
sg35
I10
ssg10
I40
sg36
g4
sg37
(dp446
sg39
(dp447
sg41
I242
sg42
g21
sg43
g21
sg44
I40
sg45
Vtake
p448
sg47
I40
sg48
I246
sbag0
(g23
g2
Ntp449
Rp450
(dp451
g27
(dp452
g29
Vmeasure
p453
sg31
VO
p454
sg33
VNNS
p455
sg35
I11
ssg10
I41
sg36
g4
sg37
(dp456
sg39
(dp457
sg41
I247
sg42
g21
sg43
g21
sg44
I41
sg45
Vmeasures
p458
sg47
I41
sg48
I255
sbag0
(g23
g2
Ntp459
Rp460
(dp461
g27
(dp462
g29
Vto
p463
sg31
VO
p464
sg33
VTO
p465
sg35
I12
ssg10
I42
sg36
g4
sg37
(dp466
sg39
(dp467
sg41
I256
sg42
g21
sg43
g21
sg44
I42
sg45
Vto
p468
sg47
I42
sg48
I258
sbag0
(g23
g2
Ntp469
Rp470
(dp471
g27
(dp472
g29
Vprotect
p473
sg31
VO
p474
sg33
VVB
p475
sg35
I13
ssg10
I43
sg36
g4
sg37
(dp476
sg39
(dp477
sg41
I259
sg42
g21
sg43
g21
sg44
I43
sg45
Vprotect
p478
sg47
I43
sg48
I266
sbag0
(g23
g2
Ntp479
Rp480
(dp481
g27
(dp482
g29
Vand
p483
sg31
VO
p484
sg33
VCC
p485
sg35
I14
ssg10
I44
sg36
g4
sg37
(dp486
sg39
(dp487
sg41
I267
sg42
g21
sg43
g21
sg44
I44
sg45
Vand
p488
sg47
I44
sg48
I270
sbag0
(g23
g2
Ntp489
Rp490
(dp491
g27
(dp492
g29
Vpromote
p493
sg31
VO
p494
sg33
VVB
p495
sg35
I15
ssg10
I45
sg36
g4
sg37
(dp496
sg39
(dp497
sg41
I271
sg42
g21
sg43
g21
sg44
I45
sg45
Vpromote
p498
sg47
I45
sg48
I278
sbag0
(g23
g2
Ntp499
Rp500
(dp501
g27
(dp502
g29
Vthe
p503
sg31
VO
p504
sg33
VDT
p505
sg35
I16
ssg10
I46
sg36
g4
sg37
(dp506
sg39
(dp507
sg41
I279
sg42
g21
sg43
g21
sg44
I46
sg45
Vthe
p508
sg47
I46
sg48
I282
sbag0
(g23
g2
Ntp509
Rp510
(dp511
g27
(dp512
g29
Vdiversity
p513
sg31
VO
p514
sg33
VNN
p515
sg35
I17
ssg10
I47
sg36
g4
sg37
(dp516
sg39
(dp517
sg41
I283
sg42
g21
sg43
g21
sg44
I47
sg45
Vdiversity
p518
sg47
I47
sg48
I292
sbag0
(g23
g2
Ntp519
Rp520
(dp521
g27
(dp522
g29
Vof
p523
sg31
VO
p524
sg33
VIN
p525
sg35
I18
ssg10
I48
sg36
g4
sg37
(dp526
sg39
(dp527
sg41
I293
sg42
g21
sg43
g21
sg44
I48
sg45
Vof
p528
sg47
I48
sg48
I295
sbag0
(g23
g2
Ntp529
Rp530
(dp531
g27
(dp532
g29
Vcultural
p533
sg31
VO
p534
sg33
VJJ
p535
sg35
I19
ssg10
I49
sg36
g4
sg37
(dp536
sg39
(dp537
sg41
I296
sg42
g21
sg43
g21
sg44
I49
sg45
Vcultural
p538
sg47
I49
sg48
I304
sbag0
(g23
g2
Ntp539
Rp540
(dp541
g27
(dp542
g29
Vexpression
p543
sg31
VO
p544
sg33
VNNS
p545
sg35
I20
ssg10
I50
sg36
g4
sg37
(dp546
sg39
(dp547
sg41
I305
sg42
g21
sg43
g21
sg44
I50
sg45
Vexpressions
p548
sg47
I50
sg48
I316
sbag0
(g23
g2
Ntp549
Rp550
(dp551
g27
(dp552
g29
V,
p553
sg31
VO
p554
sg33
V,
p555
sg35
I21
ssg10
I51
sg36
g4
sg37
(dp556
sg39
(dp557
sg41
I316
sg42
g21
sg43
g21
sg44
I51
sg45
V,
p558
sg47
I51
sg48
I317
sbag0
(g23
g2
Ntp559
Rp560
(dp561
g27
(dp562
g29
Vand
p563
sg31
VO
p564
sg33
VCC
p565
sg35
I22
ssg10
I52
sg36
g4
sg37
(dp566
sg39
(dp567
sg41
I318
sg42
g21
sg43
g21
sg44
I52
sg45
Vand
p568
sg47
I52
sg48
I321
sbag0
(g23
g2
Ntp569
Rp570
(dp571
g27
(dp572
g29
Vimpose
p573
sg31
VO
p574
sg33
VVB
p575
sg35
I23
ssg10
I53
sg36
g4
sg37
(dp576
sg39
(dp577
sg41
I322
sg42
g21
sg43
g21
sg44
I53
sg45
Vimpose
p578
sg47
I53
sg48
I328
sbag0
(g23
g2
Ntp579
Rp580
(dp581
g27
(dp582
g29
Vobligation
p583
sg31
VO
p584
sg33
VNNS
p585
sg35
I24
ssg10
I54
sg36
g4
sg37
(dp586
sg39
(dp587
sg41
I329
sg42
g21
sg43
g21
sg44
I54
sg45
Vobligations
p588
sg47
I54
sg48
I340
sbag0
(g23
g2
Ntp589
Rp590
(dp591
g27
(dp592
g29
Vat
p593
sg31
VO
p594
sg33
VIN
p595
sg35
I25
ssg10
I55
sg36
g4
sg37
(dp596
sg39
(dp597
sg41
I334
sg42
g21
sg43
g21
sg44
I55
sg45
Vat
p598
sg47
I55
sg48
I336
sbag0
(g23
g2
Ntp599
Rp600
(dp601
g27
(dp602
g29
Vboth
p603
sg31
VO
p604
sg33
VDT
p605
sg35
I26
ssg10
I56
sg36
g4
sg37
(dp606
sg39
(dp607
sg41
I344
sg42
g21
sg43
g21
sg44
I56
sg45
Vboth
p608
sg47
I56
sg48
I348
sbag0
(g23
g2
Ntp609
Rp610
(dp611
g27
(dp612
g29
Vdomestic
p613
sg31
VO
p614
sg33
VJJ
p615
sg35
I27
ssg10
I57
sg36
g4
sg37
(dp616
sg39
(dp617
sg41
I349
sg42
g21
sg43
g21
sg44
I57
sg45
Vdomestic
p618
sg47
I57
sg48
I357
sbag0
(g23
g2
Ntp619
Rp620
(dp621
g27
(dp622
g29
Vand
p623
sg31
VO
p624
sg33
VCC
p625
sg35
I28
ssg10
I58
sg36
g4
sg37
(dp626
sg39
(dp627
sg41
I358
sg42
g21
sg43
g21
sg44
I58
sg45
Vand
p628
sg47
I58
sg48
I361
sbag0
(g23
g2
Ntp629
Rp630
(dp631
g27
(dp632
g29
Vinternational
p633
sg31
VO
p634
sg33
VJJ
p635
sg35
I29
ssg10
I59
sg36
g4
sg37
(dp636
sg39
(dp637
sg41
I362
sg42
g21
sg43
g21
sg44
I59
sg45
Vinternational
p638
sg47
I59
sg48
I375
sbag0
(g23
g2
Ntp639
Rp640
(dp641
g27
(dp642
g29
Vlevel
p643
sg31
VO
p644
sg33
VNNS
p645
sg35
I30
ssg10
I60
sg36
g4
sg37
(dp646
sg39
(dp647
sg41
I376
sg42
g21
sg43
g21
sg44
I60
sg45
Vlevels
p648
sg47
I60
sg48
I382
sbag0
(g23
g2
Ntp649
Rp650
(dp651
g27
(dp652
g29
Von
p653
sg31
VO
p654
sg33
VIN
p655
sg35
I31
ssg10
I61
sg36
g4
sg37
(dp656
sg39
(dp657
sg41
I383
sg42
g21
sg43
g21
sg44
I61
sg45
Von
p658
sg47
I61
sg48
I385
sbag0
(g23
g2
Ntp659
Rp660
(dp661
g27
(dp662
g29
Vparty
p663
sg31
VO
p664
sg33
VNNS
p665
sg35
I32
ssg10
I62
sg36
g4
sg37
(dp666
sg39
(dp667
sg41
I386
sg42
g21
sg43
g21
sg44
I62
sg45
VParties
p668
sg47
I62
sg48
I393
sbag0
(g23
g2
Ntp669
Rp670
(dp671
g27
(dp672
g29
V.
p673
sg31
VO
p674
sg33
V.
p675
sg35
I33
ssg10
I63
sg36
g4
sg37
(dp676
sg39
(dp677
sg41
I393
sg42
g21
sg43
g21
sg44
I63
sg45
V.
p678
sg47
I63
sg48
I394
sbag0
(g23
g2
Ntp679
Rp680
(dp681
g27
(dp682
g29
V''
p683
sg31
VO
p684
sg33
V''
p685
sg35
I34
ssg10
I64
sg36
g4
sg37
(dp686
sg39
(dp687
sg41
I394
sg42
g21
sg43
g21
sg44
I64
sg45
g358
sg47
I64
sg48
I395
sbag0
(g23
g2
Ntp688
Rp689
(dp690
g27
(dp691
g29
V-lsb-
p692
sg31
VO
p693
sg33
V-LRB-
p694
sg35
I1
ssg10
I65
sg36
g4
sg37
(dp695
sg39
(dp696
sg41
I395
sg42
g21
sg43
g21
sg44
I65
sg45
V[
p697
sg47
I65
sg48
I396
sbag0
(g23
g2
Ntp698
Rp699
(dp700
g27
(dp701
g29
Vref
p702
sg31
VO
p703
sg33
VNN
p704
sg35
I2
ssg10
I66
sg36
g4
sg37
(dp705
sg39
(dp706
sg41
I396
sg42
g21
sg43
g21
sg44
I66
sg45
VREF
p707
sg47
I66
sg48
I399
sbag0
(g23
g2
Ntp708
Rp709
(dp710
g27
(dp711
g29
V-rsb-
p712
sg31
VO
p713
sg33
V-RRB-
p714
sg35
I3
ssg10
I67
sg36
g4
sg37
(dp715
sg39
(dp716
sg41
I399
sg42
g21
sg43
g21
sg44
I67
sg45
V]
p717
sg47
I67
sg48
I400
sbag0
(g23
g2
Ntp718
Rp719
(dp720
g27
(dp721
g29
V.
p722
sg31
VO
p723
sg33
V.
p724
sg35
I4
ssg10
I68
sg36
g4
sg37
(dp725
sg39
(dp726
sg41
I401
sg42
g21
sg43
g21
sg44
I68
sg45
V.
p727
sg47
I68
sg48
I402
sbag0
(g23
g2
Ntp728
Rp729
(dp730
g27
(dp731
g29
Vthe
p732
sg31
VO
p733
sg33
VDT
p734
sg35
I1
ssg10
I69
sg36
g4
sg37
(dp735
sg39
(dp736
sg41
I404
sg42
g21
sg43
g21
sg44
I69
sg45
VThe
p737
sg47
I69
sg48
I407
sbag0
(g23
g2
Ntp738
Rp739
(dp740
g27
(dp741
g29
Vconvention
p742
sg31
VO
p743
sg33
VNN
p744
sg35
I2
ssg10
I70
sg36
g4
sg37
(dp745
sg39
(dp746
sg41
I408
sg42
g21
sg43
g21
sg44
I70
sg45
Vconvention
p747
sg47
I70
sg48
I418
sbag0
(g23
g2
Ntp748
Rp749
(dp750
g27
(dp751
g29
Vbe
p752
sg31
VO
p753
sg33
VVBZ
p754
sg35
I3
ssg10
I71
sg36
g4
sg37
(dp755
sg39
(dp756
sg41
I419
sg42
g21
sg43
g21
sg44
I71
sg45
Vis
p757
sg47
I71
sg48
I421
sbag0
(g23
g2
Ntp758
Rp759
(dp760
g27
(dp761
g29
Va
p762
sg31
VO
p763
sg33
VDT
p764
sg35
I4
ssg10
I72
sg36
g4
sg37
(dp765
sg39
(dp766
sg41
I422
sg42
g21
sg43
g21
sg44
I72
sg45
Va
p767
sg47
I72
sg48
I423
sbag0
(g23
g2
Ntp768
Rp769
(dp770
g27
(dp771
g29
Vlegally-binding
p772
sg31
VO
p773
sg33
VJJ
p774
sg35
I5
ssg10
I73
sg36
g4
sg37
(dp775
sg39
(dp776
sg41
I424
sg42
g21
sg43
g21
sg44
I73
sg45
Vlegally-binding
p777
sg47
I73
sg48
I439
sbag0
(g23
g2
Ntp778
Rp779
(dp780
g27
(dp781
g29
Vinternational
p782
sg31
VO
p783
sg33
VJJ
p784
sg35
I6
ssg10
I74
sg36
g4
sg37
(dp785
sg39
(dp786
sg41
I440
sg42
g21
sg43
g21
sg44
I74
sg45
Vinternational
p787
sg47
I74
sg48
I453
sbag0
(g23
g2
Ntp788
Rp789
(dp790
g27
(dp791
g29
Vagreement
p792
sg31
VO
p793
sg33
VNN
p794
sg35
I7
ssg10
I75
sg36
g4
sg37
(dp795
sg39
(dp796
sg41
I454
sg42
g21
sg43
g21
sg44
I75
sg45
Vagreement
p797
sg47
I75
sg48
I463
sbag0
(g23
g2
Ntp798
Rp799
(dp800
g27
(dp801
g29
Vthat
p802
sg31
VO
p803
sg33
VWDT
p804
sg35
I8
ssg10
I76
sg36
g4
sg37
(dp805
sg39
(dp806
sg41
I464
sg42
g21
sg43
g21
sg44
I76
sg45
Vthat
p807
sg47
I76
sg48
I468
sbag0
(g23
g2
Ntp808
Rp809
(dp810
g27
(dp811
g29
Vensure
p812
sg31
VO
p813
sg33
VVBZ
p814
sg35
I9
ssg10
I77
sg36
g4
sg37
(dp815
sg39
(dp816
sg41
I469
sg42
g21
sg43
g21
sg44
I77
sg45
Vensures
p817
sg47
I77
sg48
I476
sbag0
(g23
g2
Ntp818
Rp819
(dp820
g27
(dp821
g29
Vartist
p822
sg31
VO
p823
sg33
VNNS
p824
sg35
I10
ssg10
I78
sg36
g4
sg37
(dp825
sg39
(dp826
sg41
I477
sg42
g21
sg43
g21
sg44
I78
sg45
Vartists
p827
sg47
I78
sg48
I484
sbag0
(g23
g2
Ntp828
Rp829
(dp830
g27
(dp831
g29
V,
p832
sg31
VO
p833
sg33
V,
p834
sg35
I11
ssg10
I79
sg36
g4
sg37
(dp835
sg39
(dp836
sg41
I484
sg42
g21
sg43
g21
sg44
I79
sg45
V,
p837
sg47
I79
sg48
I485
sbag0
(g23
g2
Ntp838
Rp839
(dp840
g27
(dp841
g29
Vcultural
p842
sg31
VO
p843
sg33
VJJ
p844
sg35
I12
ssg10
I80
sg36
g4
sg37
(dp845
sg39
(dp846
sg41
I486
sg42
g21
sg43
g21
sg44
I80
sg45
Vcultural
p847
sg47
I80
sg48
I494
sbag0
(g23
g2
Ntp848
Rp849
(dp850
g27
(dp851
g29
Vprofessional
p852
sg31
VO
p853
sg33
VNNS
p854
sg35
I13
ssg10
I81
sg36
g4
sg37
(dp855
sg39
(dp856
sg41
I495
sg42
g21
sg43
g21
sg44
I81
sg45
Vprofessionals
p857
sg47
I81
sg48
I508
sbag0
(g23
g2
Ntp858
Rp859
(dp860
g27
(dp861
g29
V,
p862
sg31
VO
p863
sg33
V,
p864
sg35
I14
ssg10
I82
sg36
g4
sg37
(dp865
sg39
(dp866
sg41
I508
sg42
g21
sg43
g21
sg44
I82
sg45
V,
p867
sg47
I82
sg48
I509
sbag0
(g23
g2
Ntp868
Rp869
(dp870
g27
(dp871
g29
Vpractitioner
p872
sg31
VO
p873
sg33
VNNS
p874
sg35
I15
ssg10
I83
sg36
g4
sg37
(dp875
sg39
(dp876
sg41
I510
sg42
g21
sg43
g21
sg44
I83
sg45
Vpractitioners
p877
sg47
I83
sg48
I523
sbag0
(g23
g2
Ntp878
Rp879
(dp880
g27
(dp881
g29
Vand
p882
sg31
VO
p883
sg33
VCC
p884
sg35
I16
ssg10
I84
sg36
g4
sg37
(dp885
sg39
(dp886
sg41
I524
sg42
g21
sg43
g21
sg44
I84
sg45
Vand
p887
sg47
I84
sg48
I527
sbag0
(g23
g2
Ntp888
Rp889
(dp890
g27
(dp891
g29
Vcitizen
p892
sg31
VO
p893
sg33
VNNS
p894
sg35
I17
ssg10
I85
sg36
g4
sg37
(dp895
sg39
(dp896
sg41
I528
sg42
g21
sg43
g21
sg44
I85
sg45
Vcitizens
p897
sg47
I85
sg48
I536
sbag0
(g23
g2
Ntp898
Rp899
(dp900
g27
(dp901
g29
Vworldwide
p902
sg31
VO
p903
sg33
VRB
p904
sg35
I18
ssg10
I86
sg36
g4
sg37
(dp905
sg39
(dp906
sg41
I537
sg42
g21
sg43
g21
sg44
I86
sg45
Vworldwide
p907
sg47
I86
sg48
I546
sbag0
(g23
g2
Ntp908
Rp909
(dp910
g27
(dp911
g29
Vcan
p912
sg31
VO
p913
sg33
VMD
p914
sg35
I19
ssg10
I87
sg36
g4
sg37
(dp915
sg39
(dp916
sg41
I547
sg42
g21
sg43
g21
sg44
I87
sg45
Vcan
p917
sg47
I87
sg48
I550
sbag0
(g23
g2
Ntp918
Rp919
(dp920
g27
(dp921
g29
Vcreate
p922
sg31
VO
p923
sg33
VVB
p924
sg35
I20
ssg10
I88
sg36
g4
sg37
(dp925
sg39
(dp926
sg41
I551
sg42
g21
sg43
g21
sg44
I88
sg45
Vcreate
p927
sg47
I88
sg48
I557
sbag0
(g23
g2
Ntp928
Rp929
(dp930
g27
(dp931
g29
V,
p932
sg31
VO
p933
sg33
V,
p934
sg35
I21
ssg10
I89
sg36
g4
sg37
(dp935
sg39
(dp936
sg41
I557
sg42
g21
sg43
g21
sg44
I89
sg45
V,
p937
sg47
I89
sg48
I558
sbag0
(g23
g2
Ntp938
Rp939
(dp940
g27
(dp941
g29
Vproduce
p942
sg31
VO
p943
sg33
VVB
p944
sg35
I22
ssg10
I90
sg36
g4
sg37
(dp945
sg39
(dp946
sg41
I559
sg42
g21
sg43
g21
sg44
I90
sg45
Vproduce
p947
sg47
I90
sg48
I566
sbag0
(g23
g2
Ntp948
Rp949
(dp950
g27
(dp951
g29
V,
p952
sg31
VO
p953
sg33
V,
p954
sg35
I23
ssg10
I91
sg36
g4
sg37
(dp955
sg39
(dp956
sg41
I566
sg42
g21
sg43
g21
sg44
I91
sg45
V,
p957
sg47
I91
sg48
I567
sbag0
(g23
g2
Ntp958
Rp959
(dp960
g27
(dp961
g29
Vdisseminate
p962
sg31
VO
p963
sg33
VVB
p964
sg35
I24
ssg10
I92
sg36
g4
sg37
(dp965
sg39
(dp966
sg41
I568
sg42
g21
sg43
g21
sg44
I92
sg45
Vdisseminate
p967
sg47
I92
sg48
I579
sbag0
(g23
g2
Ntp968
Rp969
(dp970
g27
(dp971
g29
Vand
p972
sg31
VO
p973
sg33
VCC
p974
sg35
I25
ssg10
I93
sg36
g4
sg37
(dp975
sg39
(dp976
sg41
I580
sg42
g21
sg43
g21
sg44
I93
sg45
Vand
p977
sg47
I93
sg48
I583
sbag0
(g23
g2
Ntp978
Rp979
(dp980
g27
(dp981
g29
Venjoy
p982
sg31
VO
p983
sg33
VVB
p984
sg35
I26
ssg10
I94
sg36
g4
sg37
(dp985
sg39
(dp986
sg41
I584
sg42
g21
sg43
g21
sg44
I94
sg45
Venjoy
p987
sg47
I94
sg48
I589
sbag0
(g23
g2
Ntp988
Rp989
(dp990
g27
(dp991
g29
Va
p992
sg31
VO
p993
sg33
VDT
p994
sg35
I27
ssg10
I95
sg36
g4
sg37
(dp995
sg39
(dp996
sg41
I590
sg42
g21
sg43
g21
sg44
I95
sg45
Va
p997
sg47
I95
sg48
I591
sbag0
(g23
g2
Ntp998
Rp999
(dp1000
g27
(dp1001
g29
Vbroad
p1002
sg31
VO
p1003
sg33
VJJ
p1004
sg35
I28
ssg10
I96
sg36
g4
sg37
(dp1005
sg39
(dp1006
sg41
I592
sg42
g21
sg43
g21
sg44
I96
sg45
Vbroad
p1007
sg47
I96
sg48
I597
sbag0
(g23
g2
Ntp1008
Rp1009
(dp1010
g27
(dp1011
g29
Vrange
p1012
sg31
VO
p1013
sg33
VNN
p1014
sg35
I29
ssg10
I97
sg36
g4
sg37
(dp1015
sg39
(dp1016
sg41
I598
sg42
g21
sg43
g21
sg44
I97
sg45
Vrange
p1017
sg47
I97
sg48
I603
sbag0
(g23
g2
Ntp1018
Rp1019
(dp1020
g27
(dp1021
g29
Vof
p1022
sg31
VO
p1023
sg33
VIN
p1024
sg35
I30
ssg10
I98
sg36
g4
sg37
(dp1025
sg39
(dp1026
sg41
I604
sg42
g21
sg43
g21
sg44
I98
sg45
Vof
p1027
sg47
I98
sg48
I606
sbag0
(g23
g2
Ntp1028
Rp1029
(dp1030
g27
(dp1031
g29
Vcultural
p1032
sg31
VO
p1033
sg33
VJJ
p1034
sg35
I31
ssg10
I99
sg36
g4
sg37
(dp1035
sg39
(dp1036
sg41
I607
sg42
g21
sg43
g21
sg44
I99
sg45
Vcultural
p1037
sg47
I99
sg48
I615
sbag0
(g23
g2
Ntp1038
Rp1039
(dp1040
g27
(dp1041
g29
Vgoods
p1042
sg31
VO
p1043
sg33
VNNS
p1044
sg35
I32
ssg10
I100
sg36
g4
sg37
(dp1045
sg39
(dp1046
sg41
I616
sg42
g21
sg43
g21
sg44
I100
sg45
Vgoods
p1047
sg47
I100
sg48
I621
sbag0
(g23
g2
Ntp1048
Rp1049
(dp1050
g27
(dp1051
g29
V,
p1052
sg31
VO
p1053
sg33
V,
p1054
sg35
I33
ssg10
I101
sg36
g4
sg37
(dp1055
sg39
(dp1056
sg41
I621
sg42
g21
sg43
g21
sg44
I101
sg45
V,
p1057
sg47
I101
sg48
I622
sbag0
(g23
g2
Ntp1058
Rp1059
(dp1060
g27
(dp1061
g29
Vservice
p1062
sg31
VO
p1063
sg33
VNNS
p1064
sg35
I34
ssg10
I102
sg36
g4
sg37
(dp1065
sg39
(dp1066
sg41
I623
sg42
g21
sg43
g21
sg44
I102
sg45
Vservices
p1067
sg47
I102
sg48
I631
sbag0
(g23
g2
Ntp1068
Rp1069
(dp1070
g27
(dp1071
g29
Vand
p1072
sg31
VO
p1073
sg33
VCC
p1074
sg35
I35
ssg10
I103
sg36
g4
sg37
(dp1075
sg39
(dp1076
sg41
I632
sg42
g21
sg43
g21
sg44
I103
sg45
Vand
p1077
sg47
I103
sg48
I635
sbag0
(g23
g2
Ntp1078
Rp1079
(dp1080
g27
(dp1081
g29
Vactivity
p1082
sg31
VO
p1083
sg33
VNNS
p1084
sg35
I36
ssg10
I104
sg36
g4
sg37
(dp1085
sg39
(dp1086
sg41
I636
sg42
g21
sg43
g21
sg44
I104
sg45
Vactivities
p1087
sg47
I104
sg48
I646
sbag0
(g23
g2
Ntp1088
Rp1089
(dp1090
g27
(dp1091
g29
V,
p1092
sg31
VO
p1093
sg33
V,
p1094
sg35
I37
ssg10
I105
sg36
g4
sg37
(dp1095
sg39
(dp1096
sg41
I646
sg42
g21
sg43
g21
sg44
I105
sg45
V,
p1097
sg47
I105
sg48
I647
sbag0
(g23
g2
Ntp1098
Rp1099
(dp1100
g27
(dp1101
g29
Vinclude
p1102
sg31
VO
p1103
sg33
VVBG
p1104
sg35
I38
ssg10
I106
sg36
g4
sg37
(dp1105
sg39
(dp1106
sg41
I648
sg42
g21
sg43
g21
sg44
I106
sg45
Vincluding
p1107
sg47
I106
sg48
I657
sbag0
(g23
g2
Ntp1108
Rp1109
(dp1110
g27
(dp1111
g29
Vthey
p1112
sg31
VO
p1113
sg33
VPRP$
p1114
sg35
I39
ssg10
I107
sg36
g4
sg37
(dp1115
sg39
(dp1116
sg41
I658
sg42
g21
sg43
g21
sg44
I107
sg45
Vtheir
p1117
sg47
I107
sg48
I663
sbag0
(g23
g2
Ntp1118
Rp1119
(dp1120
g27
(dp1121
g29
Vown
p1122
sg31
VO
p1123
sg33
VJJ
p1124
sg35
I40
ssg10
I108
sg36
g4
sg37
(dp1125
sg39
(dp1126
sg41
I664
sg42
g21
sg43
g21
sg44
I108
sg45
Vown
p1127
sg47
I108
sg48
I667
sbag0
(g23
g2
Ntp1128
Rp1129
(dp1130
g27
(dp1131
g29
V-lsb-
p1132
sg31
VO
p1133
sg33
V-LRB-
p1134
sg35
I41
ssg10
I109
sg36
g4
sg37
(dp1135
sg39
(dp1136
sg41
I668
sg42
g21
sg43
g21
sg44
I109
sg45
V[
p1137
sg47
I109
sg48
I669
sbag0
(g23
g2
Ntp1138
Rp1139
(dp1140
g27
(dp1141
g29
Vref
p1142
sg31
VO
p1143
sg33
VNN
p1144
sg35
I42
ssg10
I110
sg36
g4
sg37
(dp1145
sg39
(dp1146
sg41
I669
sg42
g21
sg43
g21
sg44
I110
sg45
VREF
p1147
sg47
I110
sg48
I672
sbag0
(g23
g2
Ntp1148
Rp1149
(dp1150
g27
(dp1151
g29
V-rsb-
p1152
sg31
VO
p1153
sg33
V-RRB-
p1154
sg35
I43
ssg10
I111
sg36
g4
sg37
(dp1155
sg39
(dp1156
sg41
I672
sg42
g21
sg43
g21
sg44
I111
sg45
V]
p1157
sg47
I111
sg48
I673
sbag0
(g23
g2
Ntp1158
Rp1159
(dp1160
g27
(dp1161
g29
V.
p1162
sg31
VO
p1163
sg33
V.
p1164
sg35
I44
ssg10
I112
sg36
g4
sg37
(dp1165
sg39
(dp1166
sg41
I673
sg42
g21
sg43
g21
sg44
I112
sg45
V.
p1167
sg47
I112
sg48
I674
sbag0
(g23
g2
Ntp1168
Rp1169
(dp1170
g27
(dp1171
g29
Vit
p1172
sg31
VO
p1173
sg33
VPRP
p1174
sg35
I1
ssg10
I113
sg36
g4
sg37
(dp1175
sg39
(dp1176
sg41
I675
sg42
g21
sg43
g21
sg44
I113
sg45
VIt
p1177
sg47
I113
sg48
I677
sbag0
(g23
g2
Ntp1178
Rp1179
(dp1180
g27
(dp1181
g29
Vbe
p1182
sg31
VO
p1183
sg33
VVBD
p1184
sg35
I2
ssg10
I114
sg36
g4
sg37
(dp1185
sg39
(dp1186
sg41
I678
sg42
g21
sg43
g21
sg44
I114
sg45
Vwas
p1187
sg47
I114
sg48
I681
sbag0
(g23
g2
Ntp1188
Rp1189
(dp1190
g27
(dp1191
g29
Vadopt
p1192
sg31
VO
p1193
sg33
VVBN
p1194
sg35
I3
ssg10
I115
sg36
g4
sg37
(dp1195
sg39
(dp1196
sg41
I682
sg42
g21
sg43
g21
sg44
I115
sg45
Vadopted
p1197
sg47
I115
sg48
I689
sbag0
(g23
g2
Ntp1198
Rp1199
(dp1200
g27
(dp1201
g29
Vin
p1202
sg31
VO
p1203
sg33
VIN
p1204
sg35
I4
ssg10
I116
sg36
g4
sg37
(dp1205
sg39
(dp1206
sg41
I690
sg42
g21
sg43
g21
sg44
I116
sg45
Vin
p1207
sg47
I116
sg48
I692
sbag0
(g23
g2
Ntp1208
Rp1209
(dp1210
g27
(dp1211
g29
Vresponse
p1212
sg31
VO
p1213
sg33
VNN
p1214
sg35
I5
ssg10
I117
sg36
g4
sg37
(dp1215
sg39
(dp1216
sg41
I693
sg42
g21
sg43
g21
sg44
I117
sg45
Vresponse
p1217
sg47
I117
sg48
I701
sbag0
(g23
g2
Ntp1218
Rp1219
(dp1220
g27
(dp1221
g29
Vto
p1222
sg31
VO
p1223
sg33
VTO
p1224
sg35
I6
ssg10
I118
sg36
g4
sg37
(dp1225
sg39
(dp1226
sg41
I702
sg42
g21
sg43
g21
sg44
I118
sg45
Vto
p1227
sg47
I118
sg48
I704
sbag0
(g23
g2
Ntp1228
Rp1229
(dp1230
g27
(dp1231
g29
V``
p1232
sg31
VO
p1233
sg33
V``
p1234
sg35
I7
ssg10
I119
sg36
g4
sg37
(dp1235
sg39
(dp1236
sg41
I705
sg42
g21
sg43
g21
sg44
I119
sg45
g358
sg47
I119
sg48
I706
sbag0
(g23
g2
Ntp1237
Rp1238
(dp1239
g27
(dp1240
g29
Vgrow
p1241
sg31
VO
p1242
sg33
VVBG
p1243
sg35
I8
ssg10
I120
sg36
g4
sg37
(dp1244
sg39
(dp1245
sg41
I706
sg42
g21
sg43
g21
sg44
I120
sg45
Vgrowing
p1246
sg47
I120
sg48
I713
sbag0
(g23
g2
Ntp1247
Rp1248
(dp1249
g27
(dp1250
g29
Vpressure
p1251
sg31
VO
p1252
sg33
VNN
p1253
sg35
I9
ssg10
I121
sg36
g4
sg37
(dp1254
sg39
(dp1255
sg41
I714
sg42
g21
sg43
g21
sg44
I121
sg45
Vpressure
p1256
sg47
I121
sg48
I722
sbag0
(g23
g2
Ntp1257
Rp1258
(dp1259
g27
(dp1260
g29
Vexert
p1261
sg31
VO
p1262
sg33
VVBN
p1263
sg35
I10
ssg10
I122
sg36
g4
sg37
(dp1264
sg39
(dp1265
sg41
I723
sg42
g21
sg43
g21
sg44
I122
sg45
Vexerted
p1266
sg47
I122
sg48
I730
sbag0
(g23
g2
Ntp1267
Rp1268
(dp1269
g27
(dp1270
g29
Von
p1271
sg31
VO
p1272
sg33
VIN
p1273
sg35
I11
ssg10
I123
sg36
g4
sg37
(dp1274
sg39
(dp1275
sg41
I731
sg42
g21
sg43
g21
sg44
I123
sg45
Von
p1276
sg47
I123
sg48
I733
sbag0
(g23
g2
Ntp1277
Rp1278
(dp1279
g27
(dp1280
g29
Vcountry
p1281
sg31
VO
p1282
sg33
VNNS
p1283
sg35
I12
ssg10
I124
sg36
g4
sg37
(dp1284
sg39
(dp1285
sg41
I734
sg42
g21
sg43
g21
sg44
I124
sg45
Vcountries
p1286
sg47
I124
sg48
I743
sbag0
(g23
g2
Ntp1287
Rp1288
(dp1289
g27
(dp1290
g29
Vto
p1291
sg31
VO
p1292
sg33
VTO
p1293
sg35
I13
ssg10
I125
sg36
g4
sg37
(dp1294
sg39
(dp1295
sg41
I744
sg42
g21
sg43
g21
sg44
I125
sg45
Vto
p1296
sg47
I125
sg48
I746
sbag0
(g23
g2
Ntp1297
Rp1298
(dp1299
g27
(dp1300
g29
Vwaive
p1301
sg31
VO
p1302
sg33
VVB
p1303
sg35
I14
ssg10
I126
sg36
g4
sg37
(dp1304
sg39
(dp1305
sg41
I747
sg42
g21
sg43
g21
sg44
I126
sg45
Vwaive
p1306
sg47
I126
sg48
I752
sbag0
(g23
g2
Ntp1307
Rp1308
(dp1309
g27
(dp1310
g29
Vthey
p1311
sg31
VO
p1312
sg33
VPRP$
p1313
sg35
I15
ssg10
I127
sg36
g4
sg37
(dp1314
sg39
(dp1315
sg41
I753
sg42
g21
sg43
g21
sg44
I127
sg45
Vtheir
p1316
sg47
I127
sg48
I758
sbag0
(g23
g2
Ntp1317
Rp1318
(dp1319
g27
(dp1320
g29
Vright
p1321
sg31
VO
p1322
sg33
VNN
p1323
sg35
I16
ssg10
I128
sg36
g4
sg37
(dp1324
sg39
(dp1325
sg41
I759
sg42
g21
sg43
g21
sg44
I128
sg45
Vright
p1326
sg47
I128
sg48
I764
sbag0
(g23
g2
Ntp1327
Rp1328
(dp1329
g27
(dp1330
g29
Vto
p1331
sg31
VO
p1332
sg33
VTO
p1333
sg35
I17
ssg10
I129
sg36
g4
sg37
(dp1334
sg39
(dp1335
sg41
I765
sg42
g21
sg43
g21
sg44
I129
sg45
Vto
p1336
sg47
I129
sg48
I767
sbag0
(g23
g2
Ntp1337
Rp1338
(dp1339
g27
(dp1340
g29
Venforce
p1341
sg31
VO
p1342
sg33
VVB
p1343
sg35
I18
ssg10
I130
sg36
g4
sg37
(dp1344
sg39
(dp1345
sg41
I768
sg42
g21
sg43
g21
sg44
I130
sg45
Venforce
p1346
sg47
I130
sg48
I775
sbag0
(g23
g2
Ntp1347
Rp1348
(dp1349
g27
(dp1350
g29
Vcultural
p1351
sg31
VO
p1352
sg33
VJJ
p1353
sg35
I19
ssg10
I131
sg36
g4
sg37
(dp1354
sg39
(dp1355
sg41
I776
sg42
g21
sg43
g21
sg44
I131
sg45
Vcultural
p1356
sg47
I131
sg48
I784
sbag0
(g23
g2
Ntp1357
Rp1358
(dp1359
g27
(dp1360
g29
Vpolicy
p1361
sg31
VO
p1362
sg33
VNNS
p1363
sg35
I20
ssg10
I132
sg36
g4
sg37
(dp1364
sg39
(dp1365
sg41
I785
sg42
g21
sg43
g21
sg44
I132
sg45
Vpolicies
p1366
sg47
I132
sg48
I793
sbag0
(g23
g2
Ntp1367
Rp1368
(dp1369
g27
(dp1370
g29
Vand
p1371
sg31
VO
p1372
sg33
VCC
p1373
sg35
I21
ssg10
I133
sg36
g4
sg37
(dp1374
sg39
(dp1375
sg41
I794
sg42
g21
sg43
g21
sg44
I133
sg45
Vand
p1376
sg47
I133
sg48
I797
sbag0
(g23
g2
Ntp1377
Rp1378
(dp1379
g27
(dp1380
g29
Vto
p1381
sg31
VO
p1382
sg33
VTO
p1383
sg35
I22
ssg10
I134
sg36
g4
sg37
(dp1384
sg39
(dp1385
sg41
I798
sg42
g21
sg43
g21
sg44
I134
sg45
Vto
p1386
sg47
I134
sg48
I800
sbag0
(g23
g2
Ntp1387
Rp1388
(dp1389
g27
(dp1390
g29
Vput
p1391
sg31
VO
p1392
sg33
VVB
p1393
sg35
I23
ssg10
I135
sg36
g4
sg37
(dp1394
sg39
(dp1395
sg41
I801
sg42
g21
sg43
g21
sg44
I135
sg45
Vput
p1396
sg47
I135
sg48
I804
sbag0
(g23
g2
Ntp1397
Rp1398
(dp1399
g27
(dp1400
g29
Vall
p1401
sg31
VO
p1402
sg33
VDT
p1403
sg35
I24
ssg10
I136
sg36
g4
sg37
(dp1404
sg39
(dp1405
sg41
I805
sg42
g21
sg43
g21
sg44
I136
sg45
Vall
p1406
sg47
I136
sg48
I808
sbag0
(g23
g2
Ntp1407
Rp1408
(dp1409
g27
(dp1410
g29
Vaspect
p1411
sg31
VO
p1412
sg33
VNNS
p1413
sg35
I25
ssg10
I137
sg36
g4
sg37
(dp1414
sg39
(dp1415
sg41
I809
sg42
g21
sg43
g21
sg44
I137
sg45
Vaspects
p1416
sg47
I137
sg48
I816
sbag0
(g23
g2
Ntp1417
Rp1418
(dp1419
g27
(dp1420
g29
Vof
p1421
sg31
VO
p1422
sg33
VIN
p1423
sg35
I26
ssg10
I138
sg36
g4
sg37
(dp1424
sg39
(dp1425
sg41
I817
sg42
g21
sg43
g21
sg44
I138
sg45
Vof
p1426
sg47
I138
sg48
I819
sbag0
(g23
g2
Ntp1427
Rp1428
(dp1429
g27
(dp1430
g29
Vthe
p1431
sg31
VO
p1432
sg33
VDT
p1433
sg35
I27
ssg10
I139
sg36
g4
sg37
(dp1434
sg39
(dp1435
sg41
I820
sg42
g21
sg43
g21
sg44
I139
sg45
Vthe
p1436
sg47
I139
sg48
I823
sbag0
(g23
g2
Ntp1437
Rp1438
(dp1439
g27
(dp1440
g29
Vcultural
p1441
sg31
VO
p1442
sg33
VJJ
p1443
sg35
I28
ssg10
I140
sg36
g4
sg37
(dp1444
sg39
(dp1445
sg41
I824
sg42
g21
sg43
g21
sg44
I140
sg45
Vcultural
p1446
sg47
I140
sg48
I832
sbag0
(g23
g2
Ntp1447
Rp1448
(dp1449
g27
(dp1450
g29
Vsector
p1451
sg31
VO
p1452
sg33
VNN
p1453
sg35
I29
ssg10
I141
sg36
g4
sg37
(dp1454
sg39
(dp1455
sg41
I833
sg42
g21
sg43
g21
sg44
I141
sg45
Vsector
p1456
sg47
I141
sg48
I839
sbag0
(g23
g2
Ntp1457
Rp1458
(dp1459
g27
(dp1460
g29
Von
p1461
sg31
VO
p1462
sg33
VIN
p1463
sg35
I30
ssg10
I142
sg36
g4
sg37
(dp1464
sg39
(dp1465
sg41
I840
sg42
g21
sg43
g21
sg44
I142
sg45
Von
p1466
sg47
I142
sg48
I842
sbag0
(g23
g2
Ntp1467
Rp1468
(dp1469
g27
(dp1470
g29
Vthe
p1471
sg31
VO
p1472
sg33
VDT
p1473
sg35
I31
ssg10
I143
sg36
g4
sg37
(dp1474
sg39
(dp1475
sg41
I843
sg42
g21
sg43
g21
sg44
I143
sg45
Vthe
p1476
sg47
I143
sg48
I846
sbag0
(g23
g2
Ntp1477
Rp1478
(dp1479
g27
(dp1480
g29
Vtable
p1481
sg31
VO
p1482
sg33
VNN
p1483
sg35
I32
ssg10
I144
sg36
g4
sg37
(dp1484
sg39
(dp1485
sg41
I847
sg42
g21
sg43
g21
sg44
I144
sg45
Vtable
p1486
sg47
I144
sg48
I852
sbag0
(g23
g2
Ntp1487
Rp1488
(dp1489
g27
(dp1490
g29
Vwhen
p1491
sg31
VO
p1492
sg33
VWRB
p1493
sg35
I33
ssg10
I145
sg36
g4
sg37
(dp1494
sg39
(dp1495
sg41
I853
sg42
g21
sg43
g21
sg44
I145
sg45
Vwhen
p1496
sg47
I145
sg48
I857
sbag0
(g23
g2
Ntp1497
Rp1498
(dp1499
g27
(dp1500
g29
Vnegociate
p1501
sg31
VO
p1502
sg33
VVBG
p1503
sg35
I34
ssg10
I146
sg36
g4
sg37
(dp1504
sg39
(dp1505
sg41
I858
sg42
g21
sg43
g21
sg44
I146
sg45
Vnegociating
p1506
sg47
I146
sg48
I869
sbag0
(g23
g2
Ntp1507
Rp1508
(dp1509
g27
(dp1510
g29
Vinternational
p1511
sg31
VO
p1512
sg33
VJJ
p1513
sg35
I35
ssg10
I147
sg36
g4
sg37
(dp1514
sg39
(dp1515
sg41
I870
sg42
g21
sg43
g21
sg44
I147
sg45
Vinternational
p1516
sg47
I147
sg48
I883
sbag0
(g23
g2
Ntp1517
Rp1518
(dp1519
g27
(dp1520
g29
Vtrade
p1521
sg31
VO
p1522
sg33
VNN
p1523
sg35
I36
ssg10
I148
sg36
g4
sg37
(dp1524
sg39
(dp1525
sg41
I884
sg42
g21
sg43
g21
sg44
I148
sg45
Vtrade
p1526
sg47
I148
sg48
I889
sbag0
(g23
g2
Ntp1527
Rp1528
(dp1529
g27
(dp1530
g29
Vagreement
p1531
sg31
VO
p1532
sg33
VNNS
p1533
sg35
I37
ssg10
I149
sg36
g4
sg37
(dp1534
sg39
(dp1535
sg41
I890
sg42
g21
sg43
g21
sg44
I149
sg45
Vagreements
p1536
sg47
I149
sg48
I900
sbag0
(g23
g2
Ntp1537
Rp1538
(dp1539
g27
(dp1540
g29
V.
p1541
sg31
VO
p1542
sg33
V.
p1543
sg35
I38
ssg10
I150
sg36
g4
sg37
(dp1544
sg39
(dp1545
sg41
I900
sg42
g21
sg43
g21
sg44
I150
sg45
V.
p1546
sg47
I150
sg48
I901
sbag0
(g23
g2
Ntp1547
Rp1548
(dp1549
g27
(dp1550
g29
V''
p1551
sg31
VO
p1552
sg33
V''
p1553
sg35
I39
ssg10
I151
sg36
g4
sg37
(dp1554
sg39
(dp1555
sg41
I901
sg42
g21
sg43
g21
sg44
I151
sg45
g358
sg47
I151
sg48
I902
sbag0
(g23
g2
Ntp1556
Rp1557
(dp1558
g27
(dp1559
g29
V-lsb-
p1560
sg31
VO
p1561
sg33
V-LRB-
p1562
sg35
I1
ssg10
I152
sg36
g4
sg37
(dp1563
sg39
(dp1564
sg41
I902
sg42
g21
sg43
g21
sg44
I152
sg45
V[
p1565
sg47
I152
sg48
I903
sbag0
(g23
g2
Ntp1566
Rp1567
(dp1568
g27
(dp1569
g29
Vref
p1570
sg31
VO
p1571
sg33
VNN
p1572
sg35
I2
ssg10
I153
sg36
g4
sg37
(dp1573
sg39
(dp1574
sg41
I903
sg42
g21
sg43
g21
sg44
I153
sg45
VREF
p1575
sg47
I153
sg48
I906
sbag0
(g23
g2
Ntp1576
Rp1577
(dp1578
g27
(dp1579
g29
V-rsb-
p1580
sg31
VO
p1581
sg33
V-RRB-
p1582
sg35
I3
ssg10
I154
sg36
g4
sg37
(dp1583
sg39
(dp1584
sg41
I906
sg42
g21
sg43
g21
sg44
I154
sg45
V]
p1585
sg47
I154
sg48
I907
sbag0
(g23
g2
Ntp1586
Rp1587
(dp1588
g27
(dp1589
g29
V``
p1590
sg31
VO
p1591
sg33
V``
p1592
sg35
I4
ssg10
I155
sg36
g4
sg37
(dp1593
sg39
(dp1594
sg41
I908
sg42
g21
sg43
g21
sg44
I155
sg45
g358
sg47
I155
sg48
I909
sbag0
(g23
g2
Ntp1595
Rp1596
(dp1597
g27
(dp1598
g29
Vthe
p1599
sg31
VO
p1600
sg33
VDT
p1601
sg35
I5
ssg10
I156
sg36
g4
sg37
(dp1602
sg39
(dp1603
sg41
I909
sg42
g21
sg43
g21
sg44
I156
sg45
VThe
p1604
sg47
I156
sg48
I912
sbag0
(g23
g2
Ntp1605
Rp1606
(dp1607
g27
(dp1608
g29
Vinternational
p1609
sg31
VO
p1610
sg33
VJJ
p1611
sg35
I6
ssg10
I157
sg36
g4
sg37
(dp1612
sg39
(dp1613
sg41
I913
sg42
g21
sg43
g21
sg44
I157
sg45
Vinternational
p1614
sg47
I157
sg48
I926
sbag0
(g23
g2
Ntp1615
Rp1616
(dp1617
g27
(dp1618
g29
Vcommunity
p1619
sg31
VO
p1620
sg33
VNN
p1621
sg35
I7
ssg10
I158
sg36
g4
sg37
(dp1622
sg39
(dp1623
sg41
I927
sg42
g21
sg43
g21
sg44
I158
sg45
Vcommunity
p1624
sg47
I158
sg48
I936
sbag0
(g23
g2
Ntp1625
Rp1626
(dp1627
g27
(dp1628
g29
Vsignal
p1629
sg31
VO
p1630
sg33
VVBD
p1631
sg35
I8
ssg10
I159
sg36
g4
sg37
(dp1632
sg39
(dp1633
sg41
I937
sg42
g21
sg43
g21
sg44
I159
sg45
Vsignalled
p1634
sg47
I159
sg48
I946
sbag0
(g23
g2
Ntp1635
Rp1636
(dp1637
g27
(dp1638
g29
Vthe
p1639
sg31
VO
p1640
sg33
VDT
p1641
sg35
I9
ssg10
I160
sg36
g4
sg37
(dp1642
sg39
(dp1643
sg41
I947
sg42
g21
sg43
g21
sg44
I160
sg45
Vthe
p1644
sg47
I160
sg48
I950
sbag0
(g23
g2
Ntp1645
Rp1646
(dp1647
g27
(dp1648
g29
Vurgency
p1649
sg31
VO
p1650
sg33
VNN
p1651
sg35
I10
ssg10
I161
sg36
g4
sg37
(dp1652
sg39
(dp1653
sg41
I951
sg42
g21
sg43
g21
sg44
I161
sg45
Vurgency
p1654
sg47
I161
sg48
I958
sbag0
(g23
g2
Ntp1655
Rp1656
(dp1657
g27
(dp1658
g29
Vto
p1659
sg31
VO
p1660
sg33
VTO
p1661
sg35
I11
ssg10
I162
sg36
g4
sg37
(dp1662
sg39
(dp1663
sg41
I959
sg42
g21
sg43
g21
sg44
I162
sg45
Vto
p1664
sg47
I162
sg48
I961
sbag0
(g23
g2
Ntp1665
Rp1666
(dp1667
g27
(dp1668
g29
Vimplement
p1669
sg31
VO
p1670
sg33
VVB
p1671
sg35
I12
ssg10
I163
sg36
g4
sg37
(dp1672
sg39
(dp1673
sg41
I962
sg42
g21
sg43
g21
sg44
I163
sg45
Vimplement
p1674
sg47
I163
sg48
I971
sbag0
(g23
g2
Ntp1675
Rp1676
(dp1677
g27
(dp1678
g29
Va
p1679
sg31
VO
p1680
sg33
VDT
p1681
sg35
I13
ssg10
I164
sg36
g4
sg37
(dp1682
sg39
(dp1683
sg41
I972
sg42
g21
sg43
g21
sg44
I164
sg45
Van
p1684
sg47
I164
sg48
I974
sbag0
(g23
g2
Ntp1685
Rp1686
(dp1687
g27
(dp1688
g29
Vinternational
p1689
sg31
VO
p1690
sg33
VJJ
p1691
sg35
I14
ssg10
I165
sg36
g4
sg37
(dp1692
sg39
(dp1693
sg41
I975
sg42
g21
sg43
g21
sg44
I165
sg45
Vinternational
p1694
sg47
I165
sg48
I988
sbag0
(g23
g2
Ntp1695
Rp1696
(dp1697
g27
(dp1698
g29
Vlaw
p1699
sg31
VO
p1700
sg33
VNN
p1701
sg35
I15
ssg10
I166
sg36
g4
sg37
(dp1702
sg39
(dp1703
sg41
I989
sg42
g21
sg43
g21
sg44
I166
sg45
Vlaw
p1704
sg47
I166
sg48
I992
sbag0
(g23
g2
Ntp1705
Rp1706
(dp1707
g27
(dp1708
g29
Vthat
p1709
sg31
VO
p1710
sg33
VWDT
p1711
sg35
I16
ssg10
I167
sg36
g4
sg37
(dp1712
sg39
(dp1713
sg41
I993
sg42
g21
sg43
g21
sg44
I167
sg45
Vthat
p1714
sg47
I167
sg48
I997
sbag0
(g23
g2
Ntp1715
Rp1716
(dp1717
g27
(dp1718
g29
Vwould
p1719
sg31
VO
p1720
sg33
VMD
p1721
sg35
I17
ssg10
I168
sg36
g4
sg37
(dp1722
sg39
(dp1723
sg41
I998
sg42
g21
sg43
g21
sg44
I168
sg45
Vwould
p1724
sg47
I168
sg48
I1003
sbag0
(g23
g2
Ntp1725
Rp1726
(dp1727
g27
(dp1728
g29
Vrecognize
p1729
sg31
VO
p1730
sg33
VVB
p1731
sg35
I18
ssg10
I169
sg36
g4
sg37
(dp1732
sg39
(dp1733
sg41
I1004
sg42
g21
sg43
g21
sg44
I169
sg45
Vrecognize
p1734
sg47
I169
sg48
I1013
sbag0
(g23
g2
Ntp1735
Rp1736
(dp1737
g27
(dp1738
g29
V:
p1739
sg31
VO
p1740
sg33
V:
p1741
sg35
I19
ssg10
I170
sg36
g4
sg37
(dp1742
sg39
(dp1743
sg41
I1013
sg42
g21
sg43
g21
sg44
I170
sg45
V:
p1744
sg47
I170
sg48
I1014
sbag0
(g23
g2
Ntp1745
Rp1746
(dp1747
g27
(dp1748
g29
Vthe
p1749
sg31
VO
p1750
sg33
VDT
p1751
sg35
I20
ssg10
I171
sg36
g4
sg37
(dp1752
sg39
(dp1753
sg41
I1016
sg42
g21
sg43
g21
sg44
I171
sg45
VThe
p1754
sg47
I171
sg48
I1019
sbag0
(g23
g2
Ntp1755
Rp1756
(dp1757
g27
(dp1758
g29
Vdistinctive
p1759
sg31
VO
p1760
sg33
VJJ
p1761
sg35
I21
ssg10
I172
sg36
g4
sg37
(dp1762
sg39
(dp1763
sg41
I1020
sg42
g21
sg43
g21
sg44
I172
sg45
Vdistinctive
p1764
sg47
I172
sg48
I1031
sbag0
(g23
g2
Ntp1765
Rp1766
(dp1767
g27
(dp1768
g29
Vnature
p1769
sg31
VO
p1770
sg33
VNN
p1771
sg35
I22
ssg10
I173
sg36
g4
sg37
(dp1772
sg39
(dp1773
sg41
I1032
sg42
g21
sg43
g21
sg44
I173
sg45
Vnature
p1774
sg47
I173
sg48
I1038
sbag0
(g23
g2
Ntp1775
Rp1776
(dp1777
g27
(dp1778
g29
Vof
p1779
sg31
VO
p1780
sg33
VIN
p1781
sg35
I23
ssg10
I174
sg36
g4
sg37
(dp1782
sg39
(dp1783
sg41
I1039
sg42
g21
sg43
g21
sg44
I174
sg45
Vof
p1784
sg47
I174
sg48
I1041
sbag0
(g23
g2
Ntp1785
Rp1786
(dp1787
g27
(dp1788
g29
Vcultural
p1789
sg31
VO
p1790
sg33
VJJ
p1791
sg35
I24
ssg10
I175
sg36
g4
sg37
(dp1792
sg39
(dp1793
sg41
I1042
sg42
g21
sg43
g21
sg44
I175
sg45
Vcultural
p1794
sg47
I175
sg48
I1050
sbag0
(g23
g2
Ntp1795
Rp1796
(dp1797
g27
(dp1798
g29
Vgoods
p1799
sg31
VO
p1800
sg33
VNNS
p1801
sg35
I25
ssg10
I176
sg36
g4
sg37
(dp1802
sg39
(dp1803
sg41
I1051
sg42
g21
sg43
g21
sg44
I176
sg45
Vgoods
p1804
sg47
I176
sg48
I1056
sbag0
(g23
g2
Ntp1805
Rp1806
(dp1807
g27
(dp1808
g29
V,
p1809
sg31
VO
p1810
sg33
V,
p1811
sg35
I26
ssg10
I177
sg36
g4
sg37
(dp1812
sg39
(dp1813
sg41
I1056
sg42
g21
sg43
g21
sg44
I177
sg45
V,
p1814
sg47
I177
sg48
I1057
sbag0
(g23
g2
Ntp1815
Rp1816
(dp1817
g27
(dp1818
g29
Vservice
p1819
sg31
VO
p1820
sg33
VNNS
p1821
sg35
I27
ssg10
I178
sg36
g4
sg37
(dp1822
sg39
(dp1823
sg41
I1058
sg42
g21
sg43
g21
sg44
I178
sg45
Vservices
p1824
sg47
I178
sg48
I1066
sbag0
(g23
g2
Ntp1825
Rp1826
(dp1827
g27
(dp1828
g29
Vand
p1829
sg31
VO
p1830
sg33
VCC
p1831
sg35
I28
ssg10
I179
sg36
g4
sg37
(dp1832
sg39
(dp1833
sg41
I1067
sg42
g21
sg43
g21
sg44
I179
sg45
Vand
p1834
sg47
I179
sg48
I1070
sbag0
(g23
g2
Ntp1835
Rp1836
(dp1837
g27
(dp1838
g29
Vactivity
p1839
sg31
VO
p1840
sg33
VNNS
p1841
sg35
I29
ssg10
I180
sg36
g4
sg37
(dp1842
sg39
(dp1843
sg41
I1071
sg42
g21
sg43
g21
sg44
I180
sg45
Vactivities
p1844
sg47
I180
sg48
I1081
sbag0
(g23
g2
Ntp1845
Rp1846
(dp1847
g27
(dp1848
g29
Vas
p1849
sg31
VO
p1850
sg33
VIN
p1851
sg35
I30
ssg10
I181
sg36
g4
sg37
(dp1852
sg39
(dp1853
sg41
I1082
sg42
g21
sg43
g21
sg44
I181
sg45
Vas
p1854
sg47
I181
sg48
I1084
sbag0
(g23
g2
Ntp1855
Rp1856
(dp1857
g27
(dp1858
g29
Vvehicle
p1859
sg31
VO
p1860
sg33
VNNS
p1861
sg35
I31
ssg10
I182
sg36
g4
sg37
(dp1862
sg39
(dp1863
sg41
I1085
sg42
g21
sg43
g21
sg44
I182
sg45
Vvehicles
p1864
sg47
I182
sg48
I1093
sbag0
(g23
g2
Ntp1865
Rp1866
(dp1867
g27
(dp1868
g29
Vof
p1869
sg31
VO
p1870
sg33
VIN
p1871
sg35
I32
ssg10
I183
sg36
g4
sg37
(dp1872
sg39
(dp1873
sg41
I1094
sg42
g21
sg43
g21
sg44
I183
sg45
Vof
p1874
sg47
I183
sg48
I1096
sbag0
(g23
g2
Ntp1875
Rp1876
(dp1877
g27
(dp1878
g29
Videntity
p1879
sg31
VO
p1880
sg33
VNN
p1881
sg35
I33
ssg10
I184
sg36
g4
sg37
(dp1882
sg39
(dp1883
sg41
I1097
sg42
g21
sg43
g21
sg44
I184
sg45
Videntity
p1884
sg47
I184
sg48
I1105
sbag0
(g23
g2
Ntp1885
Rp1886
(dp1887
g27
(dp1888
g29
V,
p1889
sg31
VO
p1890
sg33
V,
p1891
sg35
I34
ssg10
I185
sg36
g4
sg37
(dp1892
sg39
(dp1893
sg41
I1105
sg42
g21
sg43
g21
sg44
I185
sg45
V,
p1894
sg47
I185
sg48
I1106
sbag0
(g23
g2
Ntp1895
Rp1896
(dp1897
g27
(dp1898
g29
Vvalue
p1899
sg31
VO
p1900
sg33
VNNS
p1901
sg35
I35
ssg10
I186
sg36
g4
sg37
(dp1902
sg39
(dp1903
sg41
I1107
sg42
g21
sg43
g21
sg44
I186
sg45
Vvalues
p1904
sg47
I186
sg48
I1113
sbag0
(g23
g2
Ntp1905
Rp1906
(dp1907
g27
(dp1908
g29
Vand
p1909
sg31
VO
p1910
sg33
VCC
p1911
sg35
I36
ssg10
I187
sg36
g4
sg37
(dp1912
sg39
(dp1913
sg41
I1114
sg42
g21
sg43
g21
sg44
I187
sg45
Vand
p1914
sg47
I187
sg48
I1117
sbag0
(g23
g2
Ntp1915
Rp1916
(dp1917
g27
(dp1918
g29
Vmeaning
p1919
sg31
VO
p1920
sg33
VNN
p1921
sg35
I37
ssg10
I188
sg36
g4
sg37
(dp1922
sg39
(dp1923
sg41
I1118
sg42
g21
sg43
g21
sg44
I188
sg45
Vmeaning
p1924
sg47
I188
sg48
I1125
sbag0
(g23
g2
Ntp1925
Rp1926
(dp1927
g27
(dp1928
g29
V;
p1929
sg31
VO
p1930
sg33
V:
p1931
sg35
I38
ssg10
I189
sg36
g4
sg37
(dp1932
sg39
(dp1933
sg41
I1125
sg42
g21
sg43
g21
sg44
I189
sg45
V;
p1934
sg47
I189
sg48
I1126
sbag0
(g23
g2
Ntp1935
Rp1936
(dp1937
g27
(dp1938
g29
Vthat
p1939
sg31
VO
p1940
sg33
VDT
p1941
sg35
I39
ssg10
I190
sg36
g4
sg37
(dp1942
sg39
(dp1943
sg41
I1127
sg42
g21
sg43
g21
sg44
I190
sg45
VThat
p1944
sg47
I190
sg48
I1131
sbag0
(g23
g2
Ntp1945
Rp1946
(dp1947
g27
(dp1948
g29
Vwhile
p1949
sg31
VO
p1950
sg33
VIN
p1951
sg35
I40
ssg10
I191
sg36
g4
sg37
(dp1952
sg39
(dp1953
sg41
I1132
sg42
g21
sg43
g21
sg44
I191
sg45
Vwhile
p1954
sg47
I191
sg48
I1137
sbag0
(g23
g2
Ntp1955
Rp1956
(dp1957
g27
(dp1958
g29
Vcultural
p1959
sg31
VO
p1960
sg33
VJJ
p1961
sg35
I41
ssg10
I192
sg36
g4
sg37
(dp1962
sg39
(dp1963
sg41
I1138
sg42
g21
sg43
g21
sg44
I192
sg45
Vcultural
p1964
sg47
I192
sg48
I1146
sbag0
(g23
g2
Ntp1965
Rp1966
(dp1967
g27
(dp1968
g29
Vgoods
p1969
sg31
VO
p1970
sg33
VNNS
p1971
sg35
I42
ssg10
I193
sg36
g4
sg37
(dp1972
sg39
(dp1973
sg41
I1147
sg42
g21
sg43
g21
sg44
I193
sg45
Vgoods
p1974
sg47
I193
sg48
I1152
sbag0
(g23
g2
Ntp1975
Rp1976
(dp1977
g27
(dp1978
g29
V,
p1979
sg31
VO
p1980
sg33
V,
p1981
sg35
I43
ssg10
I194
sg36
g4
sg37
(dp1982
sg39
(dp1983
sg41
I1152
sg42
g21
sg43
g21
sg44
I194
sg45
V,
p1984
sg47
I194
sg48
I1153
sbag0
(g23
g2
Ntp1985
Rp1986
(dp1987
g27
(dp1988
g29
Vservice
p1989
sg31
VO
p1990
sg33
VNNS
p1991
sg35
I44
ssg10
I195
sg36
g4
sg37
(dp1992
sg39
(dp1993
sg41
I1154
sg42
g21
sg43
g21
sg44
I195
sg45
Vservices
p1994
sg47
I195
sg48
I1162
sbag0
(g23
g2
Ntp1995
Rp1996
(dp1997
g27
(dp1998
g29
Vand
p1999
sg31
VO
p2000
sg33
VCC
p2001
sg35
I45
ssg10
I196
sg36
g4
sg37
(dp2002
sg39
(dp2003
sg41
I1163
sg42
g21
sg43
g21
sg44
I196
sg45
Vand
p2004
sg47
I196
sg48
I1166
sbag0
(g23
g2
Ntp2005
Rp2006
(dp2007
g27
(dp2008
g29
Vactivity
p2009
sg31
VO
p2010
sg33
VNNS
p2011
sg35
I46
ssg10
I197
sg36
g4
sg37
(dp2012
sg39
(dp2013
sg41
I1167
sg42
g21
sg43
g21
sg44
I197
sg45
Vactivities
p2014
sg47
I197
sg48
I1177
sbag0
(g23
g2
Ntp2015
Rp2016
(dp2017
g27
(dp2018
g29
Vhave
p2019
sg31
VO
p2020
sg33
VVBP
p2021
sg35
I47
ssg10
I198
sg36
g4
sg37
(dp2022
sg39
(dp2023
sg41
I1178
sg42
g21
sg43
g21
sg44
I198
sg45
Vhave
p2024
sg47
I198
sg48
I1182
sbag0
(g23
g2
Ntp2025
Rp2026
(dp2027
g27
(dp2028
g29
Vimportant
p2029
sg31
VO
p2030
sg33
VJJ
p2031
sg35
I48
ssg10
I199
sg36
g4
sg37
(dp2032
sg39
(dp2033
sg41
I1183
sg42
g21
sg43
g21
sg44
I199
sg45
Vimportant
p2034
sg47
I199
sg48
I1192
sbag0
(g23
g2
Ntp2035
Rp2036
(dp2037
g27
(dp2038
g29
Veconomic
p2039
sg31
VO
p2040
sg33
VJJ
p2041
sg35
I49
ssg10
I200
sg36
g4
sg37
(dp2042
sg39
(dp2043
sg41
I1193
sg42
g21
sg43
g21
sg44
I200
sg45
Veconomic
p2044
sg47
I200
sg48
I1201
sbag0
(g23
g2
Ntp2045
Rp2046
(dp2047
g27
(dp2048
g29
Vvalue
p2049
sg31
VO
p2050
sg33
VNN
p2051
sg35
I50
ssg10
I201
sg36
g4
sg37
(dp2052
sg39
(dp2053
sg41
I1202
sg42
g21
sg43
g21
sg44
I201
sg45
Vvalue
p2054
sg47
I201
sg48
I1207
sbag0
(g23
g2
Ntp2055
Rp2056
(dp2057
g27
(dp2058
g29
V,
p2059
sg31
VO
p2060
sg33
V,
p2061
sg35
I51
ssg10
I202
sg36
g4
sg37
(dp2062
sg39
(dp2063
sg41
I1207
sg42
g21
sg43
g21
sg44
I202
sg45
V,
p2064
sg47
I202
sg48
I1208
sbag0
(g23
g2
Ntp2065
Rp2066
(dp2067
g27
(dp2068
g29
Vthey
p2069
sg31
VO
p2070
sg33
VPRP
p2071
sg35
I52
ssg10
I203
sg36
g4
sg37
(dp2072
sg39
(dp2073
sg41
I1209
sg42
g21
sg43
g21
sg44
I203
sg45
Vthey
p2074
sg47
I203
sg48
I1213
sbag0
(g23
g2
Ntp2075
Rp2076
(dp2077
g27
(dp2078
g29
Vbe
p2079
sg31
VO
p2080
sg33
VVBP
p2081
sg35
I53
ssg10
I204
sg36
g4
sg37
(dp2082
sg39
(dp2083
sg41
I1214
sg42
g21
sg43
g21
sg44
I204
sg45
Vare
p2084
sg47
I204
sg48
I1217
sbag0
(g23
g2
Ntp2085
Rp2086
(dp2087
g27
(dp2088
g29
Vnot
p2089
sg31
VO
p2090
sg33
VRB
p2091
sg35
I54
ssg10
I205
sg36
g4
sg37
(dp2092
sg39
(dp2093
sg41
I1218
sg42
g21
sg43
g21
sg44
I205
sg45
Vnot
p2094
sg47
I205
sg48
I1221
sbag0
(g23
g2
Ntp2095
Rp2096
(dp2097
g27
(dp2098
g29
Vmere
p2099
sg31
VO
p2100
sg33
VJJ
p2101
sg35
I55
ssg10
I206
sg36
g4
sg37
(dp2102
sg39
(dp2103
sg41
I1222
sg42
g21
sg43
g21
sg44
I206
sg45
Vmere
p2104
sg47
I206
sg48
I1226
sbag0
(g23
g2
Ntp2105
Rp2106
(dp2107
g27
(dp2108
g29
Vcommodity
p2109
sg31
VO
p2110
sg33
VNNS
p2111
sg35
I56
ssg10
I207
sg36
g4
sg37
(dp2112
sg39
(dp2113
sg41
I1227
sg42
g21
sg43
g21
sg44
I207
sg45
Vcommodities
p2114
sg47
I207
sg48
I1238
sbag0
(g23
g2
Ntp2115
Rp2116
(dp2117
g27
(dp2118
g29
Vor
p2119
sg31
VO
p2120
sg33
VCC
p2121
sg35
I57
ssg10
I208
sg36
g4
sg37
(dp2122
sg39
(dp2123
sg41
I1239
sg42
g21
sg43
g21
sg44
I208
sg45
Vor
p2124
sg47
I208
sg48
I1241
sbag0
(g23
g2
Ntp2125
Rp2126
(dp2127
g27
(dp2128
g29
Vconsumer
p2129
sg31
VO
p2130
sg33
VNN
p2131
sg35
I58
ssg10
I209
sg36
g4
sg37
(dp2132
sg39
(dp2133
sg41
I1242
sg42
g21
sg43
g21
sg44
I209
sg45
Vconsumer
p2134
sg47
I209
sg48
I1250
sbag0
(g23
g2
Ntp2135
Rp2136
(dp2137
g27
(dp2138
g29
Vgoods
p2139
sg31
VO
p2140
sg33
VNNS
p2141
sg35
I59
ssg10
I210
sg36
g4
sg37
(dp2142
sg39
(dp2143
sg41
I1251
sg42
g21
sg43
g21
sg44
I210
sg45
Vgoods
p2144
sg47
I210
sg48
I1256
sbag0
(g23
g2
Ntp2145
Rp2146
(dp2147
g27
(dp2148
g29
Vthat
p2149
sg31
VO
p2150
sg33
VWDT
p2151
sg35
I60
ssg10
I211
sg36
g4
sg37
(dp2152
sg39
(dp2153
sg41
I1257
sg42
g21
sg43
g21
sg44
I211
sg45
Vthat
p2154
sg47
I211
sg48
I1261
sbag0
(g23
g2
Ntp2155
Rp2156
(dp2157
g27
(dp2158
g29
Vcan
p2159
sg31
VO
p2160
sg33
VMD
p2161
sg35
I61
ssg10
I212
sg36
g4
sg37
(dp2162
sg39
(dp2163
sg41
I1262
sg42
g21
sg43
g21
sg44
I212
sg45
Vcan
p2164
sg47
I212
sg48
I1265
sbag0
(g23
g2
Ntp2165
Rp2166
(dp2167
g27
(dp2168
g29
Vonly
p2169
sg31
VO
p2170
sg33
VRB
p2171
sg35
I62
ssg10
I213
sg36
g4
sg37
(dp2172
sg39
(dp2173
sg41
I1266
sg42
g21
sg43
g21
sg44
I213
sg45
Vonly
p2174
sg47
I213
sg48
I1270
sbag0
(g23
g2
Ntp2175
Rp2176
(dp2177
g27
(dp2178
g29
Vbe
p2179
sg31
VO
p2180
sg33
VVB
p2181
sg35
I63
ssg10
I214
sg36
g4
sg37
(dp2182
sg39
(dp2183
sg41
I1271
sg42
g21
sg43
g21
sg44
I214
sg45
Vbe
p2184
sg47
I214
sg48
I1273
sbag0
(g23
g2
Ntp2185
Rp2186
(dp2187
g27
(dp2188
g29
Vregard
p2189
sg31
VO
p2190
sg33
VVBN
p2191
sg35
I64
ssg10
I215
sg36
g4
sg37
(dp2192
sg39
(dp2193
sg41
I1274
sg42
g21
sg43
g21
sg44
I215
sg45
Vregarded
p2194
sg47
I215
sg48
I1282
sbag0
(g23
g2
Ntp2195
Rp2196
(dp2197
g27
(dp2198
g29
Vas
p2199
sg31
VO
p2200
sg33
VIN
p2201
sg35
I65
ssg10
I216
sg36
g4
sg37
(dp2202
sg39
(dp2203
sg41
I1283
sg42
g21
sg43
g21
sg44
I216
sg45
Vas
p2204
sg47
I216
sg48
I1285
sbag0
(g23
g2
Ntp2205
Rp2206
(dp2207
g27
(dp2208
g29
Vobject
p2209
sg31
VO
p2210
sg33
VNNS
p2211
sg35
I66
ssg10
I217
sg36
g4
sg37
(dp2212
sg39
(dp2213
sg41
I1286
sg42
g21
sg43
g21
sg44
I217
sg45
Vobjects
p2214
sg47
I217
sg48
I1293
sbag0
(g23
g2
Ntp2215
Rp2216
(dp2217
g27
(dp2218
g29
Vof
p2219
sg31
VO
p2220
sg33
VIN
p2221
sg35
I67
ssg10
I218
sg36
g4
sg37
(dp2222
sg39
(dp2223
sg41
I1294
sg42
g21
sg43
g21
sg44
I218
sg45
Vof
p2224
sg47
I218
sg48
I1296
sbag0
(g23
g2
Ntp2225
Rp2226
(dp2227
g27
(dp2228
g29
Vtrade
p2229
sg31
VO
p2230
sg33
VNN
p2231
sg35
I68
ssg10
I219
sg36
g4
sg37
(dp2232
sg39
(dp2233
sg41
I1297
sg42
g21
sg43
g21
sg44
I219
sg45
Vtrade
p2234
sg47
I219
sg48
I1302
sbag0
(g23
g2
Ntp2235
Rp2236
(dp2237
g27
(dp2238
g29
V.
p2239
sg31
VO
p2240
sg33
V.
p2241
sg35
I69
ssg10
I220
sg36
g4
sg37
(dp2242
sg39
(dp2243
sg41
I1302
sg42
g21
sg43
g21
sg44
I220
sg45
V.
p2244
sg47
I220
sg48
I1303
sbag0
(g23
g2
Ntp2245
Rp2246
(dp2247
g27
(dp2248
g29
V''
p2249
sg31
VO
p2250
sg33
V''
p2251
sg35
I70
ssg10
I221
sg36
g4
sg37
(dp2252
sg39
(dp2253
sg41
I1303
sg42
g21
sg43
g21
sg44
I221
sg45
g358
sg47
I221
sg48
I1304
sbag0
(g23
g2
Ntp2254
Rp2255
(dp2256
g27
(dp2257
g29
V-lsb-
p2258
sg31
VO
p2259
sg33
V-LRB-
p2260
sg35
I1
ssg10
I222
sg36
g4
sg37
(dp2261
sg39
(dp2262
sg41
I1304
sg42
g21
sg43
g21
sg44
I222
sg45
V[
p2263
sg47
I222
sg48
I1305
sbag0
(g23
g2
Ntp2264
Rp2265
(dp2266
g27
(dp2267
g29
Vref
p2268
sg31
VO
p2269
sg33
VNN
p2270
sg35
I2
ssg10
I223
sg36
g4
sg37
(dp2271
sg39
(dp2272
sg41
I1305
sg42
g21
sg43
g21
sg44
I223
sg45
VREF
p2273
sg47
I223
sg48
I1308
sbag0
(g23
g2
Ntp2274
Rp2275
(dp2276
g27
(dp2277
g29
V-rsb-
p2278
sg31
VO
p2279
sg33
V-RRB-
p2280
sg35
I3
ssg10
I224
sg36
g4
sg37
(dp2281
sg39
(dp2282
sg41
I1308
sg42
g21
sg43
g21
sg44
I224
sg45
V]
p2283
sg47
I224
sg48
I1309
sbag0
(g23
g2
Ntp2284
Rp2285
(dp2286
g27
(dp2287
g29
V.
p2288
sg31
VO
p2289
sg33
V.
p2290
sg35
I4
ssg10
I225
sg36
g4
sg37
(dp2291
sg39
(dp2292
sg41
I1310
sg42
g21
sg43
g21
sg44
I225
sg45
V.
p2293
sg47
I225
sg48
I1311
sbag0
(g23
g2
Ntp2294
Rp2295
(dp2296
g27
(dp2297
g29
Vthe
p2298
sg31
VO
p2299
sg33
VDT
p2300
sg35
I1
ssg10
I226
sg36
g4
sg37
(dp2301
sg39
(dp2302
sg41
I1314
sg42
g21
sg43
g21
sg44
I226
sg45
VThe
p2303
sg47
I226
sg48
I1317
sbag0
(g23
g2
Ntp2304
Rp2305
(dp2306
g27
(dp2307
g29
VConvention
p2308
sg31
VO
p2309
sg33
VNNP
p2310
sg35
I2
ssg10
I227
sg36
g4
sg37
(dp2311
sg39
(dp2312
sg41
I1318
sg42
g21
sg43
g21
sg44
I227
sg45
VConvention
p2313
sg47
I227
sg48
I1328
sbag0
(g23
g2
Ntp2314
Rp2315
(dp2316
g27
(dp2317
g29
V's
p2318
sg31
VO
p2319
sg33
VPOS
p2320
sg35
I3
ssg10
I228
sg36
g4
sg37
(dp2321
sg39
(dp2322
sg41
I1328
sg42
g21
sg43
g21
sg44
I228
sg45
V\u2019s
p2323
sg47
I228
sg48
I1330
sbag0
(g23
g2
Ntp2324
Rp2325
(dp2326
g27
(dp2327
g29
Vmain
p2328
sg31
VO
p2329
sg33
VJJ
p2330
sg35
I4
ssg10
I229
sg36
g4
sg37
(dp2331
sg39
(dp2332
sg41
I1331
sg42
g21
sg43
g21
sg44
I229
sg45
Vmain
p2333
sg47
I229
sg48
I1335
sbag0
(g23
g2
Ntp2334
Rp2335
(dp2336
g27
(dp2337
g29
Vobjective
p2338
sg31
VO
p2339
sg33
VNN
p2340
sg35
I5
ssg10
I230
sg36
g4
sg37
(dp2341
sg39
(dp2342
sg41
I1336
sg42
g21
sg43
g21
sg44
I230
sg45
Vobjective
p2343
sg47
I230
sg48
I1345
sbag0
(g23
g2
Ntp2344
Rp2345
(dp2346
g27
(dp2347
g29
Vbe
p2348
sg31
VO
p2349
sg33
VVBZ
p2350
sg35
I6
ssg10
I231
sg36
g4
sg37
(dp2351
sg39
(dp2352
sg41
I1346
sg42
g21
sg43
g21
sg44
I231
sg45
Vis
p2353
sg47
I231
sg48
I1348
sbag0
(g23
g2
Ntp2354
Rp2355
(dp2356
g27
(dp2357
g29
Vto
p2358
sg31
VO
p2359
sg33
VTO
p2360
sg35
I7
ssg10
I232
sg36
g4
sg37
(dp2361
sg39
(dp2362
sg41
I1349
sg42
g21
sg43
g21
sg44
I232
sg45
Vto
p2363
sg47
I232
sg48
I1351
sbag0
(g23
g2
Ntp2364
Rp2365
(dp2366
g27
(dp2367
g29
Vprovide
p2368
sg31
VO
p2369
sg33
VVB
p2370
sg35
I8
ssg10
I233
sg36
g4
sg37
(dp2371
sg39
(dp2372
sg41
I1352
sg42
g21
sg43
g21
sg44
I233
sg45
Vprovide
p2373
sg47
I233
sg48
I1359
sbag0
(g23
g2
Ntp2374
Rp2375
(dp2376
g27
(dp2377
g29
Va
p2378
sg31
VO
p2379
sg33
VDT
p2380
sg35
I9
ssg10
I234
sg36
g4
sg37
(dp2381
sg39
(dp2382
sg41
I1360
sg42
g21
sg43
g21
sg44
I234
sg45
Va
p2383
sg47
I234
sg48
I1361
sbag0
(g23
g2
Ntp2384
Rp2385
(dp2386
g27
(dp2387
g29
Vlegally-binding
p2388
sg31
VO
p2389
sg33
VJJ
p2390
sg35
I10
ssg10
I235
sg36
g4
sg37
(dp2391
sg39
(dp2392
sg41
I1362
sg42
g21
sg43
g21
sg44
I235
sg45
Vlegally-binding
p2393
sg47
I235
sg48
I1377
sbag0
(g23
g2
Ntp2394
Rp2395
(dp2396
g27
(dp2397
g29
Vinternational
p2398
sg31
VO
p2399
sg33
VJJ
p2400
sg35
I11
ssg10
I236
sg36
g4
sg37
(dp2401
sg39
(dp2402
sg41
I1378
sg42
g21
sg43
g21
sg44
I236
sg45
Vinternational
p2403
sg47
I236
sg48
I1391
sbag0
(g23
g2
Ntp2404
Rp2405
(dp2406
g27
(dp2407
g29
Vagreement
p2408
sg31
VO
p2409
sg33
VNN
p2410
sg35
I12
ssg10
I237
sg36
g4
sg37
(dp2411
sg39
(dp2412
sg41
I1392
sg42
g21
sg43
g21
sg44
I237
sg45
Vagreement
p2413
sg47
I237
sg48
I1401
sbag0
(g23
g2
Ntp2414
Rp2415
(dp2416
g27
(dp2417
g29
Vthat
p2418
sg31
VO
p2419
sg33
VWDT
p2420
sg35
I13
ssg10
I238
sg36
g4
sg37
(dp2421
sg39
(dp2422
sg41
I1402
sg42
g21
sg43
g21
sg44
I238
sg45
Vthat
p2423
sg47
I238
sg48
I1406
sbag0
(g23
g2
Ntp2424
Rp2425
(dp2426
g27
(dp2427
g29
Vreaffirm
p2428
sg31
VO
p2429
sg33
VVBZ
p2430
sg35
I14
ssg10
I239
sg36
g4
sg37
(dp2431
sg39
(dp2432
sg41
I1407
sg42
g21
sg43
g21
sg44
I239
sg45
Vreaffirms
p2433
sg47
I239
sg48
I1416
sbag0
(g23
g2
Ntp2434
Rp2435
(dp2436
g27
(dp2437
g29
Vthe
p2438
sg31
VO
p2439
sg33
VDT
p2440
sg35
I15
ssg10
I240
sg36
g4
sg37
(dp2441
sg39
(dp2442
sg41
I1417
sg42
g21
sg43
g21
sg44
I240
sg45
Vthe
p2443
sg47
I240
sg48
I1420
sbag0
(g23
g2
Ntp2444
Rp2445
(dp2446
g27
(dp2447
g29
Vsovereign
p2448
sg31
VO
p2449
sg33
VJJ
p2450
sg35
I16
ssg10
I241
sg36
g4
sg37
(dp2451
sg39
(dp2452
sg41
I1421
sg42
g21
sg43
g21
sg44
I241
sg45
Vsovereign
p2453
sg47
I241
sg48
I1430
sbag0
(g23
g2
Ntp2454
Rp2455
(dp2456
g27
(dp2457
g29
Vright
p2458
sg31
VO
p2459
sg33
VNN
p2460
sg35
I17
ssg10
I242
sg36
g4
sg37
(dp2461
sg39
(dp2462
sg41
I1431
sg42
g21
sg43
g21
sg44
I242
sg45
Vright
p2463
sg47
I242
sg48
I1436
sbag0
(g23
g2
Ntp2464
Rp2465
(dp2466
g27
(dp2467
g29
Vof
p2468
sg31
VO
p2469
sg33
VIN
p2470
sg35
I18
ssg10
I243
sg36
g4
sg37
(dp2471
sg39
(dp2472
sg41
I1437
sg42
g21
sg43
g21
sg44
I243
sg45
Vof
p2473
sg47
I243
sg48
I1439
sbag0
(g23
g2
Ntp2474
Rp2475
(dp2476
g27
(dp2477
g29
VStates
p2478
sg31
VO
p2479
sg33
VNNPS
p2480
sg35
I19
ssg10
I244
sg36
g4
sg37
(dp2481
sg39
(dp2482
sg41
I1440
sg42
g21
sg43
g21
sg44
I244
sg45
VStates
p2483
sg47
I244
sg48
I1446
sbag0
(g23
g2
Ntp2484
Rp2485
(dp2486
g27
(dp2487
g29
Vto
p2488
sg31
VO
p2489
sg33
VTO
p2490
sg35
I20
ssg10
I245
sg36
g4
sg37
(dp2491
sg39
(dp2492
sg41
I1447
sg42
g21
sg43
g21
sg44
I245
sg45
Vto
p2493
sg47
I245
sg48
I1449
sbag0
(g23
g2
Ntp2494
Rp2495
(dp2496
g27
(dp2497
g29
Vadopt
p2498
sg31
VO
p2499
sg33
VVB
p2500
sg35
I21
ssg10
I246
sg36
g4
sg37
(dp2501
sg39
(dp2502
sg41
I1450
sg42
g21
sg43
g21
sg44
I246
sg45
Vadopt
p2503
sg47
I246
sg48
I1455
sbag0
(g23
g2
Ntp2504
Rp2505
(dp2506
g27
(dp2507
g29
Vcultural
p2508
sg31
VO
p2509
sg33
VJJ
p2510
sg35
I22
ssg10
I247
sg36
g4
sg37
(dp2511
sg39
(dp2512
sg41
I1456
sg42
g21
sg43
g21
sg44
I247
sg45
Vcultural
p2513
sg47
I247
sg48
I1464
sbag0
(g23
g2
Ntp2514
Rp2515
(dp2516
g27
(dp2517
g29
Vpolicy
p2518
sg31
VO
p2519
sg33
VNNS
p2520
sg35
I23
ssg10
I248
sg36
g4
sg37
(dp2521
sg39
(dp2522
sg41
I1465
sg42
g21
sg43
g21
sg44
I248
sg45
Vpolicies
p2523
sg47
I248
sg48
I1473
sbag0
(g23
g2
Ntp2524
Rp2525
(dp2526
g27
(dp2527
g29
Vthat
p2528
sg31
VO
p2529
sg33
VWDT
p2530
sg35
I24
ssg10
I249
sg36
g4
sg37
(dp2531
sg39
(dp2532
sg41
I1474
sg42
g21
sg43
g21
sg44
I249
sg45
Vthat
p2533
sg47
I249
sg48
I1478
sbag0
(g23
g2
Ntp2534
Rp2535
(dp2536
g27
(dp2537
g29
Vsupport
p2538
sg31
VO
p2539
sg33
VVBP
p2540
sg35
I25
ssg10
I250
sg36
g4
sg37
(dp2541
sg39
(dp2542
sg41
I1479
sg42
g21
sg43
g21
sg44
I250
sg45
Vsupport
p2543
sg47
I250
sg48
I1486
sbag0
(g23
g2
Ntp2544
Rp2545
(dp2546
g27
(dp2547
g29
Vthey
p2548
sg31
VO
p2549
sg33
VPRP$
p2550
sg35
I26
ssg10
I251
sg36
g4
sg37
(dp2551
sg39
(dp2552
sg41
I1487
sg42
g21
sg43
g21
sg44
I251
sg45
Vtheir
p2553
sg47
I251
sg48
I1492
sbag0
(g23
g2
Ntp2554
Rp2555
(dp2556
g27
(dp2557
g29
Vcultural
p2558
sg31
VO
p2559
sg33
VJJ
p2560
sg35
I27
ssg10
I252
sg36
g4
sg37
(dp2561
sg39
(dp2562
sg41
I1493
sg42
g21
sg43
g21
sg44
I252
sg45
Vcultural
p2563
sg47
I252
sg48
I1501
sbag0
(g23
g2
Ntp2564
Rp2565
(dp2566
g27
(dp2567
g29
Vindustry
p2568
sg31
VO
p2569
sg33
VNNS
p2570
sg35
I28
ssg10
I253
sg36
g4
sg37
(dp2571
sg39
(dp2572
sg41
I1502
sg42
g21
sg43
g21
sg44
I253
sg45
Vindustries
p2573
sg47
I253
sg48
I1512
sbag0
(g23
g2
Ntp2574
Rp2575
(dp2576
g27
(dp2577
g29
V-lsb-
p2578
sg31
VO
p2579
sg33
V-LRB-
p2580
sg35
I29
ssg10
I254
sg36
g4
sg37
(dp2581
sg39
(dp2582
sg41
I1513
sg42
g21
sg43
g21
sg44
I254
sg45
V[
p2583
sg47
I254
sg48
I1514
sbag0
(g23
g2
Ntp2584
Rp2585
(dp2586
g27
(dp2587
g29
Vref
p2588
sg31
VO
p2589
sg33
VNN
p2590
sg35
I30
ssg10
I255
sg36
g4
sg37
(dp2591
sg39
(dp2592
sg41
I1514
sg42
g21
sg43
g21
sg44
I255
sg45
VREF
p2593
sg47
I255
sg48
I1517
sbag0
(g23
g2
Ntp2594
Rp2595
(dp2596
g27
(dp2597
g29
V-rsb-
p2598
sg31
VO
p2599
sg33
V-RRB-
p2600
sg35
I31
ssg10
I256
sg36
g4
sg37
(dp2601
sg39
(dp2602
sg41
I1517
sg42
g21
sg43
g21
sg44
I256
sg45
V]
p2603
sg47
I256
sg48
I1518
sbag0
(g23
g2
Ntp2604
Rp2605
(dp2606
g27
(dp2607
g29
V.
p2608
sg31
VO
p2609
sg33
V.
p2610
sg35
I32
ssg10
I257
sg36
g4
sg37
(dp2611
sg39
(dp2612
sg41
I1518
sg42
g21
sg43
g21
sg44
I257
sg45
V.
p2613
sg47
I257
sg48
I1519
sbag0
(g23
g2
Ntp2614
Rp2615
(dp2616
g27
(dp2617
g29
Vrecognize
p2618
sg31
VO
p2619
sg33
VVBG
p2620
sg35
I1
ssg10
I258
sg36
g4
sg37
(dp2621
sg39
(dp2622
sg41
I1520
sg42
g21
sg43
g21
sg44
I258
sg45
VRecognizing
p2623
sg47
I258
sg48
I1531
sbag0
(g23
g2
Ntp2624
Rp2625
(dp2626
g27
(dp2627
g29
Vthat
p2628
sg31
VO
p2629
sg33
VIN
p2630
sg35
I2
ssg10
I259
sg36
g4
sg37
(dp2631
sg39
(dp2632
sg41
I1532
sg42
g21
sg43
g21
sg44
I259
sg45
Vthat
p2633
sg47
I259
sg48
I1536
sbag0
(g23
g2
Ntp2634
Rp2635
(dp2636
g27
(dp2637
g29
Vthe
p2638
sg31
VO
p2639
sg33
VDT
p2640
sg35
I3
ssg10
I260
sg36
g4
sg37
(dp2641
sg39
(dp2642
sg41
I1537
sg42
g21
sg43
g21
sg44
I260
sg45
Vthe
p2643
sg47
I260
sg48
I1540
sbag0
(g23
g2
Ntp2644
Rp2645
(dp2646
g27
(dp2647
g29
Vdiversity
p2648
sg31
VO
p2649
sg33
VNN
p2650
sg35
I4
ssg10
I261
sg36
g4
sg37
(dp2651
sg39
(dp2652
sg41
I1541
sg42
g21
sg43
g21
sg44
I261
sg45
Vdiversity
p2653
sg47
I261
sg48
I1550
sbag0
(g23
g2
Ntp2654
Rp2655
(dp2656
g27
(dp2657
g29
Vof
p2658
sg31
VO
p2659
sg33
VIN
p2660
sg35
I5
ssg10
I262
sg36
g4
sg37
(dp2661
sg39
(dp2662
sg41
I1551
sg42
g21
sg43
g21
sg44
I262
sg45
Vof
p2663
sg47
I262
sg48
I1553
sbag0
(g23
g2
Ntp2664
Rp2665
(dp2666
g27
(dp2667
g29
Vcultural
p2668
sg31
VO
p2669
sg33
VJJ
p2670
sg35
I6
ssg10
I263
sg36
g4
sg37
(dp2671
sg39
(dp2672
sg41
I1554
sg42
g21
sg43
g21
sg44
I263
sg45
Vcultural
p2673
sg47
I263
sg48
I1562
sbag0
(g23
g2
Ntp2674
Rp2675
(dp2676
g27
(dp2677
g29
Vexpression
p2678
sg31
VO
p2679
sg33
VNNS
p2680
sg35
I7
ssg10
I264
sg36
g4
sg37
(dp2681
sg39
(dp2682
sg41
I1563
sg42
g21
sg43
g21
sg44
I264
sg45
Vexpressions
p2683
sg47
I264
sg48
I1574
sbag0
(g23
g2
Ntp2684
Rp2685
(dp2686
g27
(dp2687
g29
Vbe
p2688
sg31
VO
p2689
sg33
VVBZ
p2690
sg35
I8
ssg10
I265
sg36
g4
sg37
(dp2691
sg39
(dp2692
sg41
I1575
sg42
g21
sg43
g21
sg44
I265
sg45
Vis
p2693
sg47
I265
sg48
I1577
sbag0
(g23
g2
Ntp2694
Rp2695
(dp2696
g27
(dp2697
g29
Va
p2698
sg31
VO
p2699
sg33
VDT
p2700
sg35
I9
ssg10
I266
sg36
g4
sg37
(dp2701
sg39
(dp2702
sg41
I1578
sg42
g21
sg43
g21
sg44
I266
sg45
Va
p2703
sg47
I266
sg48
I1579
sbag0
(g23
g2
Ntp2704
Rp2705
(dp2706
g27
(dp2707
g29
V``
p2708
sg31
VO
p2709
sg33
V``
p2710
sg35
I10
ssg10
I267
sg36
g4
sg37
(dp2711
sg39
(dp2712
sg41
I1580
sg42
g21
sg43
g21
sg44
I267
sg45
g358
sg47
I267
sg48
I1581
sbag0
(g23
g2
Ntp2713
Rp2714
(dp2715
g27
(dp2716
g29
Vrich
p2717
sg31
VO
p2718
sg33
VJJ
p2719
sg35
I11
ssg10
I268
sg36
g4
sg37
(dp2720
sg39
(dp2721
sg41
I1581
sg42
g21
sg43
g21
sg44
I268
sg45
Vrich
p2722
sg47
I268
sg48
I1585
sbag0
(g23
g2
Ntp2723
Rp2724
(dp2725
g27
(dp2726
g29
Vasset
p2727
sg31
VO
p2728
sg33
VNN
p2729
sg35
I12
ssg10
I269
sg36
g4
sg37
(dp2730
sg39
(dp2731
sg41
I1586
sg42
g21
sg43
g21
sg44
I269
sg45
Vasset
p2732
sg47
I269
sg48
I1591
sbag0
(g23
g2
Ntp2733
Rp2734
(dp2735
g27
(dp2736
g29
Vfor
p2737
sg31
VO
p2738
sg33
VIN
p2739
sg35
I13
ssg10
I270
sg36
g4
sg37
(dp2740
sg39
(dp2741
sg41
I1592
sg42
g21
sg43
g21
sg44
I270
sg45
Vfor
p2742
sg47
I270
sg48
I1595
sbag0
(g23
g2
Ntp2743
Rp2744
(dp2745
g27
(dp2746
g29
Vindividual
p2747
sg31
VO
p2748
sg33
VNNS
p2749
sg35
I14
ssg10
I271
sg36
g4
sg37
(dp2750
sg39
(dp2751
sg41
I1596
sg42
g21
sg43
g21
sg44
I271
sg45
Vindividuals
p2752
sg47
I271
sg48
I1607
sbag0
(g23
g2
Ntp2753
Rp2754
(dp2755
g27
(dp2756
g29
Vand
p2757
sg31
VO
p2758
sg33
VCC
p2759
sg35
I15
ssg10
I272
sg36
g4
sg37
(dp2760
sg39
(dp2761
sg41
I1608
sg42
g21
sg43
g21
sg44
I272
sg45
Vand
p2762
sg47
I272
sg48
I1611
sbag0
(g23
g2
Ntp2763
Rp2764
(dp2765
g27
(dp2766
g29
Vsociety
p2767
sg31
VO
p2768
sg33
VNNS
p2769
sg35
I16
ssg10
I273
sg36
g4
sg37
(dp2770
sg39
(dp2771
sg41
I1612
sg42
g21
sg43
g21
sg44
I273
sg45
Vsocieties
p2772
sg47
I273
sg48
I1621
sbag0
(g23
g2
Ntp2773
Rp2774
(dp2775
g27
(dp2776
g29
V,
p2777
sg31
VO
p2778
sg33
V,
p2779
sg35
I17
ssg10
I274
sg36
g4
sg37
(dp2780
sg39
(dp2781
sg41
I1621
sg42
g21
sg43
g21
sg44
I274
sg45
V,
p2782
sg47
I274
sg48
I1622
sbag0
(g23
g2
Ntp2783
Rp2784
(dp2785
g27
(dp2786
g29
Vthe
p2787
sg31
VO
p2788
sg33
VDT
p2789
sg35
I18
ssg10
I275
sg36
g4
sg37
(dp2790
sg39
(dp2791
sg41
I1623
sg42
g21
sg43
g21
sg44
I275
sg45
Vthe
p2792
sg47
I275
sg48
I1626
sbag0
(g23
g2
Ntp2793
Rp2794
(dp2795
g27
(dp2796
g29
Vprotection
p2797
sg31
VO
p2798
sg33
VNN
p2799
sg35
I19
ssg10
I276
sg36
g4
sg37
(dp2800
sg39
(dp2801
sg41
I1627
sg42
g21
sg43
g21
sg44
I276
sg45
Vprotection
p2802
sg47
I276
sg48
I1637
sbag0
(g23
g2
Ntp2803
Rp2804
(dp2805
g27
(dp2806
g29
V,
p2807
sg31
VO
p2808
sg33
V,
p2809
sg35
I20
ssg10
I277
sg36
g4
sg37
(dp2810
sg39
(dp2811
sg41
I1637
sg42
g21
sg43
g21
sg44
I277
sg45
V,
p2812
sg47
I277
sg48
I1638
sbag0
(g23
g2
Ntp2813
Rp2814
(dp2815
g27
(dp2816
g29
Vpromotion
p2817
sg31
VO
p2818
sg33
VNN
p2819
sg35
I21
ssg10
I278
sg36
g4
sg37
(dp2820
sg39
(dp2821
sg41
I1639
sg42
g21
sg43
g21
sg44
I278
sg45
Vpromotion
p2822
sg47
I278
sg48
I1648
sbag0
(g23
g2
Ntp2823
Rp2824
(dp2825
g27
(dp2826
g29
Vand
p2827
sg31
VO
p2828
sg33
VCC
p2829
sg35
I22
ssg10
I279
sg36
g4
sg37
(dp2830
sg39
(dp2831
sg41
I1649
sg42
g21
sg43
g21
sg44
I279
sg45
Vand
p2832
sg47
I279
sg48
I1652
sbag0
(g23
g2
Ntp2833
Rp2834
(dp2835
g27
(dp2836
g29
Vmaintenance
p2837
sg31
VO
p2838
sg33
VNN
p2839
sg35
I23
ssg10
I280
sg36
g4
sg37
(dp2840
sg39
(dp2841
sg41
I1653
sg42
g21
sg43
g21
sg44
I280
sg45
Vmaintenance
p2842
sg47
I280
sg48
I1664
sbag0
(g23
g2
Ntp2843
Rp2844
(dp2845
g27
(dp2846
g29
Vof
p2847
sg31
VO
p2848
sg33
VIN
p2849
sg35
I24
ssg10
I281
sg36
g4
sg37
(dp2850
sg39
(dp2851
sg41
I1665
sg42
g21
sg43
g21
sg44
I281
sg45
Vof
p2852
sg47
I281
sg48
I1667
sbag0
(g23
g2
Ntp2853
Rp2854
(dp2855
g27
(dp2856
g29
Vcultural
p2857
sg31
VO
p2858
sg33
VJJ
p2859
sg35
I25
ssg10
I282
sg36
g4
sg37
(dp2860
sg39
(dp2861
sg41
I1668
sg42
g21
sg43
g21
sg44
I282
sg45
Vcultural
p2862
sg47
I282
sg48
I1676
sbag0
(g23
g2
Ntp2863
Rp2864
(dp2865
g27
(dp2866
g29
Vdiversity
p2867
sg31
VO
p2868
sg33
VNN
p2869
sg35
I26
ssg10
I283
sg36
g4
sg37
(dp2870
sg39
(dp2871
sg41
I1677
sg42
g21
sg43
g21
sg44
I283
sg45
Vdiversity
p2872
sg47
I283
sg48
I1686
sbag0
(g23
g2
Ntp2873
Rp2874
(dp2875
g27
(dp2876
g29
Vbe
p2877
sg31
VO
p2878
sg33
VVBP
p2879
sg35
I27
ssg10
I284
sg36
g4
sg37
(dp2880
sg39
(dp2881
sg41
I1687
sg42
g21
sg43
g21
sg44
I284
sg45
Vare
p2882
sg47
I284
sg48
I1690
sbag0
(g23
g2
Ntp2883
Rp2884
(dp2885
g27
(dp2886
g29
Va
p2887
sg31
VO
p2888
sg33
VDT
p2889
sg35
I28
ssg10
I285
sg36
g4
sg37
(dp2890
sg39
(dp2891
sg41
I1691
sg42
g21
sg43
g21
sg44
I285
sg45
Van
p2892
sg47
I285
sg48
I1693
sbag0
(g23
g2
Ntp2893
Rp2894
(dp2895
g27
(dp2896
g29
Vessential
p2897
sg31
VO
p2898
sg33
VJJ
p2899
sg35
I29
ssg10
I286
sg36
g4
sg37
(dp2900
sg39
(dp2901
sg41
I1694
sg42
g21
sg43
g21
sg44
I286
sg45
Vessential
p2902
sg47
I286
sg48
I1703
sbag0
(g23
g2
Ntp2903
Rp2904
(dp2905
g27
(dp2906
g29
Vrequirement
p2907
sg31
VO
p2908
sg33
VNN
p2909
sg35
I30
ssg10
I287
sg36
g4
sg37
(dp2910
sg39
(dp2911
sg41
I1704
sg42
g21
sg43
g21
sg44
I287
sg45
Vrequirement
p2912
sg47
I287
sg48
I1715
sbag0
(g23
g2
Ntp2913
Rp2914
(dp2915
g27
(dp2916
g29
Vfor
p2917
sg31
VO
p2918
sg33
VIN
p2919
sg35
I31
ssg10
I288
sg36
g4
sg37
(dp2920
sg39
(dp2921
sg41
I1716
sg42
g21
sg43
g21
sg44
I288
sg45
Vfor
p2922
sg47
I288
sg48
I1719
sbag0
(g23
g2
Ntp2923
Rp2924
(dp2925
g27
(dp2926
g29
Vsustainable
p2927
sg31
VO
p2928
sg33
VJJ
p2929
sg35
I32
ssg10
I289
sg36
g4
sg37
(dp2930
sg39
(dp2931
sg41
I1720
sg42
g21
sg43
g21
sg44
I289
sg45
Vsustainable
p2932
sg47
I289
sg48
I1731
sbag0
(g23
g2
Ntp2933
Rp2934
(dp2935
g27
(dp2936
g29
Vdevelopment
p2937
sg31
VO
p2938
sg33
VNN
p2939
sg35
I33
ssg10
I290
sg36
g4
sg37
(dp2940
sg39
(dp2941
sg41
I1732
sg42
g21
sg43
g21
sg44
I290
sg45
Vdevelopment
p2942
sg47
I290
sg48
I1743
sbag0
(g23
g2
Ntp2943
Rp2944
(dp2945
g27
(dp2946
g29
Vfor
p2947
sg31
VO
p2948
sg33
VIN
p2949
sg35
I34
ssg10
I291
sg36
g4
sg37
(dp2950
sg39
(dp2951
sg41
I1744
sg42
g21
sg43
g21
sg44
I291
sg45
Vfor
p2952
sg47
I291
sg48
I1747
sbag0
(g23
g2
Ntp2953
Rp2954
(dp2955
g27
(dp2956
g29
Vthe
p2957
sg31
VO
p2958
sg33
VDT
p2959
sg35
I35
ssg10
I292
sg36
g4
sg37
(dp2960
sg39
(dp2961
sg41
I1748
sg42
g21
sg43
g21
sg44
I292
sg45
Vthe
p2962
sg47
I292
sg48
I1751
sbag0
(g23
g2
Ntp2963
Rp2964
(dp2965
g27
(dp2966
g29
Vbenefit
p2967
sg31
VO
p2968
sg33
VNN
p2969
sg35
I36
ssg10
I293
sg36
g4
sg37
(dp2970
sg39
(dp2971
sg41
I1752
sg42
g21
sg43
g21
sg44
I293
sg45
Vbenefit
p2972
sg47
I293
sg48
I1759
sbag0
(g23
g2
Ntp2973
Rp2974
(dp2975
g27
(dp2976
g29
Vof
p2977
sg31
VO
p2978
sg33
VIN
p2979
sg35
I37
ssg10
I294
sg36
g4
sg37
(dp2980
sg39
(dp2981
sg41
I1760
sg42
g21
sg43
g21
sg44
I294
sg45
Vof
p2982
sg47
I294
sg48
I1762
sbag0
(g23
g2
Ntp2983
Rp2984
(dp2985
g27
(dp2986
g29
Vpresent
p2987
sg31
VDATE
p2988
sg33
VJJ
p2989
sg35
I38
ssg10
I295
sg36
g4
sg37
(dp2990
sg39
(dp2991
sg41
I1763
sg42
g21
sg43
g21
sg44
I295
sg45
Vpresent
p2992
sg47
I295
sg48
I1770
sbag0
(g23
g2
Ntp2993
Rp2994
(dp2995
g27
(dp2996
g29
Vand
p2997
sg31
VO
p2998
sg33
VCC
p2999
sg35
I39
ssg10
I296
sg36
g4
sg37
(dp3000
sg39
(dp3001
sg41
I1771
sg42
g21
sg43
g21
sg44
I296
sg45
Vand
p3002
sg47
I296
sg48
I1774
sbag0
(g23
g2
Ntp3003
Rp3004
(dp3005
g27
(dp3006
g29
Vfuture
p3007
sg31
VDATE
p3008
sg33
VJJ
p3009
sg35
I40
ssg10
I297
sg36
g4
sg37
(dp3010
sg39
(dp3011
sg41
I1775
sg42
g21
sg43
g21
sg44
I297
sg45
Vfuture
p3012
sg47
I297
sg48
I1781
sbag0
(g23
g2
Ntp3013
Rp3014
(dp3015
g27
(dp3016
g29
Vgeneration
p3017
sg31
VO
p3018
sg33
VNNS
p3019
sg35
I41
ssg10
I298
sg36
g4
sg37
(dp3020
sg39
(dp3021
sg41
I1782
sg42
g21
sg43
g21
sg44
I298
sg45
Vgenerations
p3022
sg47
I298
sg48
I1793
sbag0
(g23
g2
Ntp3023
Rp3024
(dp3025
g27
(dp3026
g29
V.
p3027
sg31
VO
p3028
sg33
V.
p3029
sg35
I42
ssg10
I299
sg36
g4
sg37
(dp3030
sg39
(dp3031
sg41
I1793
sg42
g21
sg43
g21
sg44
I299
sg45
V.
p3032
sg47
I299
sg48
I1794
sbag0
(g23
g2
Ntp3033
Rp3034
(dp3035
g27
(dp3036
g29
V''
p3037
sg31
VO
p3038
sg33
V''
p3039
sg35
I43
ssg10
I300
sg36
g4
sg37
(dp3040
sg39
(dp3041
sg41
I1794
sg42
g21
sg43
g21
sg44
I300
sg45
g358
sg47
I300
sg48
I1795
sbag0
(g23
g2
Ntp3042
Rp3043
(dp3044
g27
(dp3045
g29
V-lsb-
p3046
sg31
VO
p3047
sg33
V-LRB-
p3048
sg35
I1
ssg10
I301
sg36
g4
sg37
(dp3049
sg39
(dp3050
sg41
I1796
sg42
g21
sg43
g21
sg44
I301
sg45
V[
p3051
sg47
I301
sg48
I1797
sbag0
(g23
g2
Ntp3052
Rp3053
(dp3054
g27
(dp3055
g29
Vref
p3056
sg31
VO
p3057
sg33
VNN
p3058
sg35
I2
ssg10
I302
sg36
g4
sg37
(dp3059
sg39
(dp3060
sg41
I1797
sg42
g21
sg43
g21
sg44
I302
sg45
VREF
p3061
sg47
I302
sg48
I1800
sbag0
(g23
g2
Ntp3062
Rp3063
(dp3064
g27
(dp3065
g29
V-rsb-
p3066
sg31
VO
p3067
sg33
V-RRB-
p3068
sg35
I3
ssg10
I303
sg36
g4
sg37
(dp3069
sg39
(dp3070
sg41
I1800
sg42
g21
sg43
g21
sg44
I303
sg45
V]
p3071
sg47
I303
sg48
I1801
sbag0
(g23
g2
Ntp3072
Rp3073
(dp3074
g27
(dp3075
g29
V.
p3076
sg31
VO
p3077
sg33
V.
p3078
sg35
I4
ssg10
I304
sg36
g4
sg37
(dp3079
sg39
(dp3080
sg41
I1801
sg42
g21
sg43
g21
sg44
I304
sg45
V.
p3081
sg47
I304
sg48
I1802
sbag0
(g23
g2
Ntp3082
Rp3083
(dp3084
g27
(dp3085
g29
Vthe
p3086
sg31
VO
p3087
sg33
VDT
p3088
sg35
I1
ssg10
I305
sg36
g4
sg37
(dp3089
sg39
(dp3090
sg41
I1803
sg42
g21
sg43
g21
sg44
I305
sg45
VThe
p3091
sg47
I305
sg48
I1806
sbag0
(g23
g2
Ntp3092
Rp3093
(dp3094
g27
(dp3095
g29
VConvention
p3096
sg31
VMISC
p3097
sg33
VNNP
p3098
sg35
I2
ssg10
I306
sg36
g4
sg37
(dp3099
sg39
(dp3100
sg41
I1807
sg42
g21
sg43
g21
sg44
I306
sg45
VConvention
p3101
sg47
I306
sg48
I1817
sbag0
(g23
g2
Ntp3102
Rp3103
(dp3104
g27
(dp3105
g29
Valso
p3106
sg31
VO
p3107
sg33
VRB
p3108
sg35
I3
ssg10
I307
sg36
g4
sg37
(dp3109
sg39
(dp3110
sg41
I1818
sg42
g21
sg43
g21
sg44
I307
sg45
Valso
p3111
sg47
I307
sg48
I1822
sbag0
(g23
g2
Ntp3112
Rp3113
(dp3114
g27
(dp3115
g29
Vdefine
p3116
sg31
VO
p3117
sg33
VVBZ
p3118
sg35
I4
ssg10
I308
sg36
g4
sg37
(dp3119
sg39
(dp3120
sg41
I1823
sg42
g21
sg43
g21
sg44
I308
sg45
Vdefines
p3121
sg47
I308
sg48
I1830
sbag0
(g23
g2
Ntp3122
Rp3123
(dp3124
g27
(dp3125
g29
Von
p3126
sg31
VO
p3127
sg33
VIN
p3128
sg35
I5
ssg10
I309
sg36
g4
sg37
(dp3129
sg39
(dp3130
sg41
I1831
sg42
g21
sg43
g21
sg44
I309
sg45
Von
p3131
sg47
I309
sg48
I1833
sbag0
(g23
g2
Ntp3132
Rp3133
(dp3134
g27
(dp3135
g29
Vcultural
p3136
sg31
VO
p3137
sg33
VJJ
p3138
sg35
I6
ssg10
I310
sg36
g4
sg37
(dp3139
sg39
(dp3140
sg41
I1834
sg42
g21
sg43
g21
sg44
I310
sg45
Vcultural
p3141
sg47
I310
sg48
I1842
sbag0
(g23
g2
Ntp3142
Rp3143
(dp3144
g27
(dp3145
g29
Vindustry
p3146
sg31
VO
p3147
sg33
VNN
p3148
sg35
I7
ssg10
I311
sg36
g4
sg37
(dp3149
sg39
(dp3150
sg41
I1843
sg42
g21
sg43
g21
sg44
I311
sg45
Vindustry
p3151
sg47
I311
sg48
I1851
sbag0
(g23
g2
Ntp3152
Rp3153
(dp3154
g27
(dp3155
g29
Vand
p3156
sg31
VO
p3157
sg33
VCC
p3158
sg35
I8
ssg10
I312
sg36
g4
sg37
(dp3159
sg39
(dp3160
sg41
I1852
sg42
g21
sg43
g21
sg44
I312
sg45
Vand
p3161
sg47
I312
sg48
I1855
sbag0
(g23
g2
Ntp3162
Rp3163
(dp3164
g27
(dp3165
g29
Vinterculturality
p3166
sg31
VO
p3167
sg33
VNN
p3168
sg35
I9
ssg10
I313
sg36
g4
sg37
(dp3169
sg39
(dp3170
sg41
I1856
sg42
g21
sg43
g21
sg44
I313
sg45
Vinterculturality
p3171
sg47
I313
sg48
I1872
sbag0
(g23
g2
Ntp3172
Rp3173
(dp3174
g27
(dp3175
g29
V-lsb-
p3176
sg31
VO
p3177
sg33
V-LRB-
p3178
sg35
I10
ssg10
I314
sg36
g4
sg37
(dp3179
sg39
(dp3180
sg41
I1872
sg42
g21
sg43
g21
sg44
I314
sg45
V[
p3181
sg47
I314
sg48
I1873
sbag0
(g23
g2
Ntp3182
Rp3183
(dp3184
g27
(dp3185
g29
Vref
p3186
sg31
VO
p3187
sg33
VNN
p3188
sg35
I11
ssg10
I315
sg36
g4
sg37
(dp3189
sg39
(dp3190
sg41
I1873
sg42
g21
sg43
g21
sg44
I315
sg45
VREF
p3191
sg47
I315
sg48
I1876
sbag0
(g23
g2
Ntp3192
Rp3193
(dp3194
g27
(dp3195
g29
V-rsb-
p3196
sg31
VO
p3197
sg33
V-RRB-
p3198
sg35
I12
ssg10
I316
sg36
g4
sg37
(dp3199
sg39
(dp3200
sg41
I1876
sg42
g21
sg43
g21
sg44
I316
sg45
V]
p3201
sg47
I316
sg48
I1877
sbag0
(g23
g2
Ntp3202
Rp3203
(dp3204
g27
(dp3205
g29
V.
p3206
sg31
VO
p3207
sg33
V.
p3208
sg35
I13
ssg10
I317
sg36
g4
sg37
(dp3209
sg39
(dp3210
sg41
I1878
sg42
g21
sg43
g21
sg44
I317
sg45
V.
p3211
sg47
I317
sg48
I1879
sbag0
(g23
g2
Ntp3212
Rp3213
(dp3214
g27
(dp3215
g29
Vsince
p3216
sg31
VO
p3217
sg33
VIN
p3218
sg35
I1
ssg10
I318
sg36
g4
sg37
(dp3219
sg39
(dp3220
sg41
I1881
sg42
g21
sg43
g21
sg44
I318
sg45
VSince
p3221
sg47
I318
sg48
I1886
sbag0
(g23
g2
Ntp3222
Rp3223
(dp3224
g27
(dp3225
g29
Vthe
p3226
sg31
VO
p3227
sg33
VDT
p3228
sg35
I2
ssg10
I319
sg36
g4
sg37
(dp3229
sg39
(dp3230
sg41
I1887
sg42
g21
sg43
g21
sg44
I319
sg45
Vthe
p3231
sg47
I319
sg48
I1890
sbag0
(g23
g2
Ntp3232
Rp3233
(dp3234
g27
(dp3235
g29
Vlate
p3236
sg31
VO
p3237
sg33
VJJ
p3238
sg35
I3
ssg10
I320
sg36
g4
sg37
(dp3239
sg39
(dp3240
sg41
I1891
sg42
g21
sg43
g21
sg44
I320
sg45
Vlate
p3241
sg47
I320
sg48
I1895
sbag0
(g23
g2
Ntp3242
Rp3243
(dp3244
g27
(dp3245
g29
V1980
p3246
sg31
VDATE
p3247
sg33
VNNS
p3248
sg35
I4
ssg10
I321
sg36
g4
sg37
(dp3249
sg39
(dp3250
sg41
I1896
sg42
g21
sg43
g21
sg44
I321
sg45
V1980s
p3251
sg47
I321
sg48
I1901
sbag0
(g23
g2
Ntp3252
Rp3253
(dp3254
g27
(dp3255
g29
V,
p3256
sg31
VO
p3257
sg33
V,
p3258
sg35
I5
ssg10
I322
sg36
g4
sg37
(dp3259
sg39
(dp3260
sg41
I1901
sg42
g21
sg43
g21
sg44
I322
sg45
V,
p3261
sg47
I322
sg48
I1902
sbag0
(g23
g2
Ntp3262
Rp3263
(dp3264
g27
(dp3265
g29
Va
p3266
sg31
VO
p3267
sg33
VDT
p3268
sg35
I6
ssg10
I323
sg36
g4
sg37
(dp3269
sg39
(dp3270
sg41
I1903
sg42
g21
sg43
g21
sg44
I323
sg45
Va
p3271
sg47
I323
sg48
I1904
sbag0
(g23
g2
Ntp3272
Rp3273
(dp3274
g27
(dp3275
g29
Vgrow
p3276
sg31
VO
p3277
sg33
VVBG
p3278
sg35
I7
ssg10
I324
sg36
g4
sg37
(dp3279
sg39
(dp3280
sg41
I1905
sg42
g21
sg43
g21
sg44
I324
sg45
Vgrowing
p3281
sg47
I324
sg48
I1912
sbag0
(g23
g2
Ntp3282
Rp3283
(dp3284
g27
(dp3285
g29
Vnumber
p3286
sg31
VO
p3287
sg33
VNN
p3288
sg35
I8
ssg10
I325
sg36
g4
sg37
(dp3289
sg39
(dp3290
sg41
I1913
sg42
g21
sg43
g21
sg44
I325
sg45
Vnumber
p3291
sg47
I325
sg48
I1919
sbag0
(g23
g2
Ntp3292
Rp3293
(dp3294
g27
(dp3295
g29
Vof
p3296
sg31
VO
p3297
sg33
VIN
p3298
sg35
I9
ssg10
I326
sg36
g4
sg37
(dp3299
sg39
(dp3300
sg41
I1920
sg42
g21
sg43
g21
sg44
I326
sg45
Vof
p3301
sg47
I326
sg48
I1922
sbag0
(g23
g2
Ntp3302
Rp3303
(dp3304
g27
(dp3305
g29
Vcountry
p3306
sg31
VO
p3307
sg33
VNNS
p3308
sg35
I10
ssg10
I327
sg36
g4
sg37
(dp3309
sg39
(dp3310
sg41
I1923
sg42
g21
sg43
g21
sg44
I327
sg45
Vcountries
p3311
sg47
I327
sg48
I1932
sbag0
(g23
g2
Ntp3312
Rp3313
(dp3314
g27
(dp3315
g29
Vbe
p3316
sg31
VO
p3317
sg33
VVBD
p3318
sg35
I11
ssg10
I328
sg36
g4
sg37
(dp3319
sg39
(dp3320
sg41
I1933
sg42
g21
sg43
g21
sg44
I328
sg45
Vwere
p3321
sg47
I328
sg48
I1937
sbag0
(g23
g2
Ntp3322
Rp3323
(dp3324
g27
(dp3325
g29
Vshow
p3326
sg31
VO
p3327
sg33
VVBG
p3328
sg35
I12
ssg10
I329
sg36
g4
sg37
(dp3329
sg39
(dp3330
sg41
I1938
sg42
g21
sg43
g21
sg44
I329
sg45
Vshowing
p3331
sg47
I329
sg48
I1945
sbag0
(g23
g2
Ntp3332
Rp3333
(dp3334
g27
(dp3335
g29
Vconcern
p3336
sg31
VO
p3337
sg33
VNN
p3338
sg35
I13
ssg10
I330
sg36
g4
sg37
(dp3339
sg39
(dp3340
sg41
I1946
sg42
g21
sg43
g21
sg44
I330
sg45
Vconcern
p3341
sg47
I330
sg48
I1953
sbag0
(g23
g2
Ntp3342
Rp3343
(dp3344
g27
(dp3345
g29
Vthat
p3346
sg31
VO
p3347
sg33
VIN
p3348
sg35
I14
ssg10
I331
sg36
g4
sg37
(dp3349
sg39
(dp3350
sg41
I1954
sg42
g21
sg43
g21
sg44
I331
sg45
Vthat
p3351
sg47
I331
sg48
I1958
sbag0
(g23
g2
Ntp3352
Rp3353
(dp3354
g27
(dp3355
g29
V``
p3356
sg31
VO
p3357
sg33
V``
p3358
sg35
I15
ssg10
I332
sg36
g4
sg37
(dp3359
sg39
(dp3360
sg41
I1959
sg42
g21
sg43
g21
sg44
I332
sg45
g358
sg47
I332
sg48
I1960
sbag0
(g23
g2
Ntp3361
Rp3362
(dp3363
g27
(dp3364
g29
Vthe
p3365
sg31
VO
p3366
sg33
VDT
p3367
sg35
I16
ssg10
I333
sg36
g4
sg37
(dp3368
sg39
(dp3369
sg41
I1960
sg42
g21
sg43
g21
sg44
I333
sg45
Vthe
p3370
sg47
I333
sg48
I1963
sbag0
(g23
g2
Ntp3371
Rp3372
(dp3373
g27
(dp3374
g29
Vproliferation
p3375
sg31
VO
p3376
sg33
VNN
p3377
sg35
I17
ssg10
I334
sg36
g4
sg37
(dp3378
sg39
(dp3379
sg41
I1964
sg42
g21
sg43
g21
sg44
I334
sg45
Vproliferation
p3380
sg47
I334
sg48
I1977
sbag0
(g23
g2
Ntp3381
Rp3382
(dp3383
g27
(dp3384
g29
Vof
p3385
sg31
VO
p3386
sg33
VIN
p3387
sg35
I18
ssg10
I335
sg36
g4
sg37
(dp3388
sg39
(dp3389
sg41
I1978
sg42
g21
sg43
g21
sg44
I335
sg45
Vof
p3390
sg47
I335
sg48
I1980
sbag0
(g23
g2
Ntp3391
Rp3392
(dp3393
g27
(dp3394
g29
Vtrade
p3395
sg31
VO
p3396
sg33
VNN
p3397
sg35
I19
ssg10
I336
sg36
g4
sg37
(dp3398
sg39
(dp3399
sg41
I1981
sg42
g21
sg43
g21
sg44
I336
sg45
Vtrade
p3400
sg47
I336
sg48
I1986
sbag0
(g23
g2
Ntp3401
Rp3402
(dp3403
g27
(dp3404
g29
Vagreement
p3405
sg31
VO
p3406
sg33
VNNS
p3407
sg35
I20
ssg10
I337
sg36
g4
sg37
(dp3408
sg39
(dp3409
sg41
I1987
sg42
g21
sg43
g21
sg44
I337
sg45
Vagreements
p3410
sg47
I337
sg48
I1997
sbag0
(g23
g2
Ntp3411
Rp3412
(dp3413
g27
(dp3414
g29
Vpromote
p3415
sg31
VO
p3416
sg33
VVBG
p3417
sg35
I21
ssg10
I338
sg36
g4
sg37
(dp3418
sg39
(dp3419
sg41
I1998
sg42
g21
sg43
g21
sg44
I338
sg45
Vpromoting
p3420
sg47
I338
sg48
I2007
sbag0
(g23
g2
Ntp3421
Rp3422
(dp3423
g27
(dp3424
g29
Vabsolute
p3425
sg31
VO
p3426
sg33
VJJ
p3427
sg35
I22
ssg10
I339
sg36
g4
sg37
(dp3428
sg39
(dp3429
sg41
I2008
sg42
g21
sg43
g21
sg44
I339
sg45
Vabsolute
p3430
sg47
I339
sg48
I2016
sbag0
(g23
g2
Ntp3431
Rp3432
(dp3433
g27
(dp3434
g29
Vmarket
p3435
sg31
VO
p3436
sg33
VNN
p3437
sg35
I23
ssg10
I340
sg36
g4
sg37
(dp3438
sg39
(dp3439
sg41
I2017
sg42
g21
sg43
g21
sg44
I340
sg45
Vmarket
p3440
sg47
I340
sg48
I2023
sbag0
(g23
g2
Ntp3441
Rp3442
(dp3443
g27
(dp3444
g29
Vliberalization
p3445
sg31
VO
p3446
sg33
VNN
p3447
sg35
I24
ssg10
I341
sg36
g4
sg37
(dp3448
sg39
(dp3449
sg41
I2024
sg42
g21
sg43
g21
sg44
I341
sg45
Vliberalization
p3450
sg47
I341
sg48
I2038
sbag0
(g23
g2
Ntp3451
Rp3452
(dp3453
g27
(dp3454
g29
Vdramatically
p3455
sg31
VO
p3456
sg33
VRB
p3457
sg35
I25
ssg10
I342
sg36
g4
sg37
(dp3458
sg39
(dp3459
sg41
I2039
sg42
g21
sg43
g21
sg44
I342
sg45
Vdramatically
p3460
sg47
I342
sg48
I2051
sbag0
(g23
g2
Ntp3461
Rp3462
(dp3463
g27
(dp3464
g29
Vincrease
p3465
sg31
VO
p3466
sg33
VVBD
p3467
sg35
I26
ssg10
I343
sg36
g4
sg37
(dp3468
sg39
(dp3469
sg41
I2052
sg42
g21
sg43
g21
sg44
I343
sg45
Vincreased
p3470
sg47
I343
sg48
I2061
sbag0
(g23
g2
Ntp3471
Rp3472
(dp3473
g27
(dp3474
g29
Vthe
p3475
sg31
VO
p3476
sg33
VDT
p3477
sg35
I27
ssg10
I344
sg36
g4
sg37
(dp3478
sg39
(dp3479
sg41
I2062
sg42
g21
sg43
g21
sg44
I344
sg45
Vthe
p3480
sg47
I344
sg48
I2065
sbag0
(g23
g2
Ntp3481
Rp3482
(dp3483
g27
(dp3484
g29
Vthreat
p3485
sg31
VO
p3486
sg33
VNN
p3487
sg35
I28
ssg10
I345
sg36
g4
sg37
(dp3488
sg39
(dp3489
sg41
I2066
sg42
g21
sg43
g21
sg44
I345
sg45
Vthreat
p3490
sg47
I345
sg48
I2072
sbag0
(g23
g2
Ntp3491
Rp3492
(dp3493
g27
(dp3494
g29
Vto
p3495
sg31
VO
p3496
sg33
VTO
p3497
sg35
I29
ssg10
I346
sg36
g4
sg37
(dp3498
sg39
(dp3499
sg41
I2073
sg42
g21
sg43
g21
sg44
I346
sg45
Vto
p3500
sg47
I346
sg48
I2075
sbag0
(g23
g2
Ntp3501
Rp3502
(dp3503
g27
(dp3504
g29
Vcultural
p3505
sg31
VO
p3506
sg33
VJJ
p3507
sg35
I30
ssg10
I347
sg36
g4
sg37
(dp3508
sg39
(dp3509
sg41
I2076
sg42
g21
sg43
g21
sg44
I347
sg45
Vcultural
p3510
sg47
I347
sg48
I2084
sbag0
(g23
g2
Ntp3511
Rp3512
(dp3513
g27
(dp3514
g29
Vindustry
p3515
sg31
VO
p3516
sg33
VNNS
p3517
sg35
I31
ssg10
I348
sg36
g4
sg37
(dp3518
sg39
(dp3519
sg41
I2085
sg42
g21
sg43
g21
sg44
I348
sg45
Vindustries
p3520
sg47
I348
sg48
I2095
sbag0
(g23
g2
Ntp3521
Rp3522
(dp3523
g27
(dp3524
g29
V.
p3525
sg31
VO
p3526
sg33
V.
p3527
sg35
I32
ssg10
I349
sg36
g4
sg37
(dp3528
sg39
(dp3529
sg41
I2095
sg42
g21
sg43
g21
sg44
I349
sg45
V.
p3530
sg47
I349
sg48
I2096
sbag0
(g23
g2
Ntp3531
Rp3532
(dp3533
g27
(dp3534
g29
VCountries
p3535
sg31
VO
p3536
sg33
VNNP
p3537
sg35
I1
ssg10
I350
sg36
g4
sg37
(dp3538
sg39
(dp3539
sg41
I2097
sg42
g21
sg43
g21
sg44
I350
sg45
VCountries
p3540
sg47
I350
sg48
I2106
sbag0
(g23
g2
Ntp3541
Rp3542
(dp3543
g27
(dp3544
g29
Vwish
p3545
sg31
VO
p3546
sg33
VVBG
p3547
sg35
I2
ssg10
I351
sg36
g4
sg37
(dp3548
sg39
(dp3549
sg41
I2107
sg42
g21
sg43
g21
sg44
I351
sg45
Vwishing
p3550
sg47
I351
sg48
I2114
sbag0
(g23
g2
Ntp3551
Rp3552
(dp3553
g27
(dp3554
g29
Vto
p3555
sg31
VO
p3556
sg33
VTO
p3557
sg35
I3
ssg10
I352
sg36
g4
sg37
(dp3558
sg39
(dp3559
sg41
I2115
sg42
g21
sg43
g21
sg44
I352
sg45
Vto
p3560
sg47
I352
sg48
I2117
sbag0
(g23
g2
Ntp3561
Rp3562
(dp3563
g27
(dp3564
g29
Vretain
p3565
sg31
VO
p3566
sg33
VVB
p3567
sg35
I4
ssg10
I353
sg36
g4
sg37
(dp3568
sg39
(dp3569
sg41
I2118
sg42
g21
sg43
g21
sg44
I353
sg45
Vretain
p3570
sg47
I353
sg48
I2124
sbag0
(g23
g2
Ntp3571
Rp3572
(dp3573
g27
(dp3574
g29
Vthey
p3575
sg31
VO
p3576
sg33
VPRP$
p3577
sg35
I5
ssg10
I354
sg36
g4
sg37
(dp3578
sg39
(dp3579
sg41
I2125
sg42
g21
sg43
g21
sg44
I354
sg45
Vtheir
p3580
sg47
I354
sg48
I2130
sbag0
(g23
g2
Ntp3581
Rp3582
(dp3583
g27
(dp3584
g29
Vright
p3585
sg31
VO
p3586
sg33
VNN
p3587
sg35
I6
ssg10
I355
sg36
g4
sg37
(dp3588
sg39
(dp3589
sg41
I2131
sg42
g21
sg43
g21
sg44
I355
sg45
Vright
p3590
sg47
I355
sg48
I2136
sbag0
(g23
g2
Ntp3591
Rp3592
(dp3593
g27
(dp3594
g29
Vto
p3595
sg31
VO
p3596
sg33
VTO
p3597
sg35
I7
ssg10
I356
sg36
g4
sg37
(dp3598
sg39
(dp3599
sg41
I2137
sg42
g21
sg43
g21
sg44
I356
sg45
Vto
p3600
sg47
I356
sg48
I2139
sbag0
(g23
g2
Ntp3601
Rp3602
(dp3603
g27
(dp3604
g29
Venforce
p3605
sg31
VO
p3606
sg33
VVB
p3607
sg35
I8
ssg10
I357
sg36
g4
sg37
(dp3608
sg39
(dp3609
sg41
I2140
sg42
g21
sg43
g21
sg44
I357
sg45
Venforce
p3610
sg47
I357
sg48
I2147
sbag0
(g23
g2
Ntp3611
Rp3612
(dp3613
g27
(dp3614
g29
Vcultural
p3615
sg31
VO
p3616
sg33
VJJ
p3617
sg35
I9
ssg10
I358
sg36
g4
sg37
(dp3618
sg39
(dp3619
sg41
I2148
sg42
g21
sg43
g21
sg44
I358
sg45
Vcultural
p3620
sg47
I358
sg48
I2156
sbag0
(g23
g2
Ntp3621
Rp3622
(dp3623
g27
(dp3624
g29
Vpolicy
p3625
sg31
VO
p3626
sg33
VNNS
p3627
sg35
I10
ssg10
I359
sg36
g4
sg37
(dp3628
sg39
(dp3629
sg41
I2157
sg42
g21
sg43
g21
sg44
I359
sg45
Vpolicies
p3630
sg47
I359
sg48
I2165
sbag0
(g23
g2
Ntp3631
Rp3632
(dp3633
g27
(dp3634
g29
Vrisk
p3635
sg31
VO
p3636
sg33
VVBD
p3637
sg35
I11
ssg10
I360
sg36
g4
sg37
(dp3638
sg39
(dp3639
sg41
I2166
sg42
g21
sg43
g21
sg44
I360
sg45
Vrisked
p3640
sg47
I360
sg48
I2172
sbag0
(g23
g2
Ntp3641
Rp3642
(dp3643
g27
(dp3644
g29
Vbe
p3645
sg31
VO
p3646
sg33
VVBG
p3647
sg35
I12
ssg10
I361
sg36
g4
sg37
(dp3648
sg39
(dp3649
sg41
I2173
sg42
g21
sg43
g21
sg44
I361
sg45
Vbeing
p3650
sg47
I361
sg48
I2178
sbag0
(g23
g2
Ntp3651
Rp3652
(dp3653
g27
(dp3654
g29
Vmarginalize
p3655
sg31
VO
p3656
sg33
VVBN
p3657
sg35
I13
ssg10
I362
sg36
g4
sg37
(dp3658
sg39
(dp3659
sg41
I2179
sg42
g21
sg43
g21
sg44
I362
sg45
Vmarginalized
p3660
sg47
I362
sg48
I2191
sbag0
(g23
g2
Ntp3661
Rp3662
(dp3663
g27
(dp3664
g29
Vand
p3665
sg31
VO
p3666
sg33
VCC
p3667
sg35
I14
ssg10
I363
sg36
g4
sg37
(dp3668
sg39
(dp3669
sg41
I2192
sg42
g21
sg43
g21
sg44
I363
sg45
Vand
p3670
sg47
I363
sg48
I2195
sbag0
(g23
g2
Ntp3671
Rp3672
(dp3673
g27
(dp3674
g29
Vunable
p3675
sg31
VO
p3676
sg33
VJJ
p3677
sg35
I15
ssg10
I364
sg36
g4
sg37
(dp3678
sg39
(dp3679
sg41
I2196
sg42
g21
sg43
g21
sg44
I364
sg45
Vunable
p3680
sg47
I364
sg48
I2202
sbag0
(g23
g2
Ntp3681
Rp3682
(dp3683
g27
(dp3684
g29
Vto
p3685
sg31
VO
p3686
sg33
VTO
p3687
sg35
I16
ssg10
I365
sg36
g4
sg37
(dp3688
sg39
(dp3689
sg41
I2203
sg42
g21
sg43
g21
sg44
I365
sg45
Vto
p3690
sg47
I365
sg48
I2205
sbag0
(g23
g2
Ntp3691
Rp3692
(dp3693
g27
(dp3694
g29
Vmaintain
p3695
sg31
VO
p3696
sg33
VVB
p3697
sg35
I17
ssg10
I366
sg36
g4
sg37
(dp3698
sg39
(dp3699
sg41
I2206
sg42
g21
sg43
g21
sg44
I366
sg45
Vmaintain
p3700
sg47
I366
sg48
I2214
sbag0
(g23
g2
Ntp3701
Rp3702
(dp3703
g27
(dp3704
g29
Vthey
p3705
sg31
VO
p3706
sg33
VPRP$
p3707
sg35
I18
ssg10
I367
sg36
g4
sg37
(dp3708
sg39
(dp3709
sg41
I2215
sg42
g21
sg43
g21
sg44
I367
sg45
Vtheir
p3710
sg47
I367
sg48
I2220
sbag0
(g23
g2
Ntp3711
Rp3712
(dp3713
g27
(dp3714
g29
Vposition
p3715
sg31
VO
p3716
sg33
VNN
p3717
sg35
I19
ssg10
I368
sg36
g4
sg37
(dp3718
sg39
(dp3719
sg41
I2221
sg42
g21
sg43
g21
sg44
I368
sg45
Vposition
p3720
sg47
I368
sg48
I2229
sbag0
(g23
g2
Ntp3721
Rp3722
(dp3723
g27
(dp3724
g29
V.
p3725
sg31
VO
p3726
sg33
V.
p3727
sg35
I20
ssg10
I369
sg36
g4
sg37
(dp3728
sg39
(dp3729
sg41
I2229
sg42
g21
sg43
g21
sg44
I369
sg45
V.
p3730
sg47
I369
sg48
I2230
sbag0
(g23
g2
Ntp3731
Rp3732
(dp3733
g27
(dp3734
g29
V''
p3735
sg31
VO
p3736
sg33
V''
p3737
sg35
I21
ssg10
I370
sg36
g4
sg37
(dp3738
sg39
(dp3739
sg41
I2230
sg42
g21
sg43
g21
sg44
I370
sg45
g358
sg47
I370
sg48
I2231
sbag0
(g23
g2
Ntp3740
Rp3741
(dp3742
g27
(dp3743
g29
V-lsb-
p3744
sg31
VO
p3745
sg33
V-LRB-
p3746
sg35
I1
ssg10
I371
sg36
g4
sg37
(dp3747
sg39
(dp3748
sg41
I2231
sg42
g21
sg43
g21
sg44
I371
sg45
V[
p3749
sg47
I371
sg48
I2232
sbag0
(g23
g2
Ntp3750
Rp3751
(dp3752
g27
(dp3753
g29
Vref
p3754
sg31
VO
p3755
sg33
VNN
p3756
sg35
I2
ssg10
I372
sg36
g4
sg37
(dp3757
sg39
(dp3758
sg41
I2232
sg42
g21
sg43
g21
sg44
I372
sg45
VREF
p3759
sg47
I372
sg48
I2235
sbag0
(g23
g2
Ntp3760
Rp3761
(dp3762
g27
(dp3763
g29
V-rsb-
p3764
sg31
VO
p3765
sg33
V-RRB-
p3766
sg35
I3
ssg10
I373
sg36
g4
sg37
(dp3767
sg39
(dp3768
sg41
I2235
sg42
g21
sg43
g21
sg44
I373
sg45
V]
p3769
sg47
I373
sg48
I2236
sbag0
(g23
g2
Ntp3770
Rp3771
(dp3772
g27
(dp3773
g29
V.
p3774
sg31
VO
p3775
sg33
V.
p3776
sg35
I4
ssg10
I374
sg36
g4
sg37
(dp3777
sg39
(dp3778
sg41
I2237
sg42
g21
sg43
g21
sg44
I374
sg45
V.
p3779
sg47
I374
sg48
I2238
sbag0
(g23
g2
Ntp3780
Rp3781
(dp3782
g27
(dp3783
g29
Vin
p3784
sg31
VO
p3785
sg33
VIN
p3786
sg35
I1
ssg10
I375
sg36
g4
sg37
(dp3787
sg39
(dp3788
sg41
I2241
sg42
g21
sg43
g21
sg44
I375
sg45
VIn
p3789
sg47
I375
sg48
I2243
sbag0
(g23
g2
Ntp3790
Rp3791
(dp3792
g27
(dp3793
g29
V2001
p3794
sg31
VDATE
p3795
sg33
VCD
p3796
sg35
I2
ssg10
I376
sg36
g4
sg37
(dp3797
sg39
(dp3798
sg41
I2244
sg42
g21
sg43
g21
sg44
I376
sg45
V2001
p3799
sg47
I376
sg48
I2248
sbag0
(g23
g2
Ntp3800
Rp3801
(dp3802
g27
(dp3803
g29
V,
p3804
sg31
VO
p3805
sg33
V,
p3806
sg35
I3
ssg10
I377
sg36
g4
sg37
(dp3807
sg39
(dp3808
sg41
I2248
sg42
g21
sg43
g21
sg44
I377
sg45
V,
p3809
sg47
I377
sg48
I2249
sbag0
(g23
g2
Ntp3810
Rp3811
(dp3812
g27
(dp3813
g29
Vthe
p3814
sg31
VO
p3815
sg33
VDT
p3816
sg35
I4
ssg10
I378
sg36
g4
sg37
(dp3817
sg39
(dp3818
sg41
I2250
sg42
g21
sg43
g21
sg44
I378
sg45
Vthe
p3819
sg47
I378
sg48
I2253
sbag0
(g23
g2
Ntp3820
Rp3821
(dp3822
g27
(dp3823
g29
VUNESCO
p3824
sg31
VORGANIZATION
p3825
sg33
VNNP
p3826
sg35
I5
ssg10
I379
sg36
g4
sg37
(dp3827
sg39
(dp3828
sg41
I2254
sg42
g21
sg43
g21
sg44
I379
sg45
VUNESCO
p3829
sg47
I379
sg48
I2260
sbag0
(g23
g2
Ntp3830
Rp3831
(dp3832
g27
(dp3833
g29
VUniversal
p3834
sg31
VO
p3835
sg33
VNNP
p3836
sg35
I6
ssg10
I380
sg36
g4
sg37
(dp3837
sg39
(dp3838
sg41
I2261
sg42
g21
sg43
g21
sg44
I380
sg45
VUniversal
p3839
sg47
I380
sg48
I2270
sbag0
(g23
g2
Ntp3840
Rp3841
(dp3842
g27
(dp3843
g29
VDeclaration
p3844
sg31
VO
p3845
sg33
VNNP
p3846
sg35
I7
ssg10
I381
sg36
g4
sg37
(dp3847
sg39
(dp3848
sg41
I2271
sg42
g21
sg43
g21
sg44
I381
sg45
VDeclaration
p3849
sg47
I381
sg48
I2282
sbag0
(g23
g2
Ntp3850
Rp3851
(dp3852
g27
(dp3853
g29
Von
p3854
sg31
VO
p3855
sg33
VIN
p3856
sg35
I8
ssg10
I382
sg36
g4
sg37
(dp3857
sg39
(dp3858
sg41
I2280
sg42
g21
sg43
g21
sg44
I382
sg45
Von
p3859
sg47
I382
sg48
I2282
sbag0
(g23
g2
Ntp3860
Rp3861
(dp3862
g27
(dp3863
g29
VCultural
p3864
sg31
VO
p3865
sg33
VNNP
p3866
sg35
I9
ssg10
I383
sg36
g4
sg37
(dp3867
sg39
(dp3868
sg41
I2286
sg42
g21
sg43
g21
sg44
I383
sg45
VCultural
p3869
sg47
I383
sg48
I2294
sbag0
(g23
g2
Ntp3870
Rp3871
(dp3872
g27
(dp3873
g29
VDiversity
p3874
sg31
VO
p3875
sg33
VNNP
p3876
sg35
I10
ssg10
I384
sg36
g4
sg37
(dp3877
sg39
(dp3878
sg41
I2295
sg42
g21
sg43
g21
sg44
I384
sg45
VDiversity
p3879
sg47
I384
sg48
I2304
sbag0
(g23
g2
Ntp3880
Rp3881
(dp3882
g27
(dp3883
g29
Vbe
p3884
sg31
VO
p3885
sg33
VVBD
p3886
sg35
I11
ssg10
I385
sg36
g4
sg37
(dp3887
sg39
(dp3888
sg41
I2305
sg42
g21
sg43
g21
sg44
I385
sg45
Vwas
p3889
sg47
I385
sg48
I2308
sbag0
(g23
g2
Ntp3890
Rp3891
(dp3892
g27
(dp3893
g29
Vadopt
p3894
sg31
VO
p3895
sg33
VVBN
p3896
sg35
I12
ssg10
I386
sg36
g4
sg37
(dp3897
sg39
(dp3898
sg41
I2309
sg42
g21
sg43
g21
sg44
I386
sg45
Vadopted
p3899
sg47
I386
sg48
I2316
sbag0
(g23
g2
Ntp3900
Rp3901
(dp3902
g27
(dp3903
g29
V-lsb-
p3904
sg31
VO
p3905
sg33
V-LRB-
p3906
sg35
I13
ssg10
I387
sg36
g4
sg37
(dp3907
sg39
(dp3908
sg41
I2316
sg42
g21
sg43
g21
sg44
I387
sg45
V[
p3909
sg47
I387
sg48
I2317
sbag0
(g23
g2
Ntp3910
Rp3911
(dp3912
g27
(dp3913
g29
Vref
p3914
sg31
VO
p3915
sg33
VNN
p3916
sg35
I14
ssg10
I388
sg36
g4
sg37
(dp3917
sg39
(dp3918
sg41
I2317
sg42
g21
sg43
g21
sg44
I388
sg45
VREF
p3919
sg47
I388
sg48
I2320
sbag0
(g23
g2
Ntp3920
Rp3921
(dp3922
g27
(dp3923
g29
V-rsb-
p3924
sg31
VO
p3925
sg33
V-RRB-
p3926
sg35
I15
ssg10
I389
sg36
g4
sg37
(dp3927
sg39
(dp3928
sg41
I2320
sg42
g21
sg43
g21
sg44
I389
sg45
V]
p3929
sg47
I389
sg48
I2321
sbag0
(g23
g2
Ntp3930
Rp3931
(dp3932
g27
(dp3933
g29
Vand
p3934
sg31
VO
p3935
sg33
VCC
p3936
sg35
I16
ssg10
I390
sg36
g4
sg37
(dp3937
sg39
(dp3938
sg41
I2322
sg42
g21
sg43
g21
sg44
I390
sg45
Vand
p3939
sg47
I390
sg48
I2325
sbag0
(g23
g2
Ntp3940
Rp3941
(dp3942
g27
(dp3943
g29
VMay
p3944
sg31
VDATE
p3945
sg33
VNNP
p3946
sg35
I17
ssg10
I391
sg36
g4
sg37
(dp3947
sg39
(dp3948
sg41
I2326
sg42
g21
sg43
g21
sg44
I391
sg45
VMay
p3949
sg47
I391
sg48
I2329
sbag0
(g23
g2
Ntp3950
Rp3951
(dp3952
g27
(dp3953
g29
V21
p3954
sg31
VDATE
p3955
sg33
VCD
p3956
sg35
I18
ssg10
I392
sg36
g4
sg37
(dp3957
sg39
(dp3958
sg41
I2330
sg42
g21
sg43
g21
sg44
I392
sg45
V21
p3959
sg47
I392
sg48
I2332
sbag0
(g23
g2
Ntp3960
Rp3961
(dp3962
g27
(dp3963
g29
Vbe
p3964
sg31
VO
p3965
sg33
VVBD
p3966
sg35
I19
ssg10
I393
sg36
g4
sg37
(dp3967
sg39
(dp3968
sg41
I2333
sg42
g21
sg43
g21
sg44
I393
sg45
Vwas
p3969
sg47
I393
sg48
I2336
sbag0
(g23
g2
Ntp3970
Rp3971
(dp3972
g27
(dp3973
g29
Vdeclare
p3974
sg31
VO
p3975
sg33
VVBN
p3976
sg35
I20
ssg10
I394
sg36
g4
sg37
(dp3977
sg39
(dp3978
sg41
I2337
sg42
g21
sg43
g21
sg44
I394
sg45
Vdeclared
p3979
sg47
I394
sg48
I2345
sbag0
(g23
g2
Ntp3980
Rp3981
(dp3982
g27
(dp3983
g29
Vthe
p3984
sg31
VO
p3985
sg33
VDT
p3986
sg35
I21
ssg10
I395
sg36
g4
sg37
(dp3987
sg39
(dp3988
sg41
I2346
sg42
g21
sg43
g21
sg44
I395
sg45
Vthe
p3989
sg47
I395
sg48
I2349
sbag0
(g23
g2
Ntp3990
Rp3991
(dp3992
g27
(dp3993
g29
VWorld
p3994
sg31
VMISC
p3995
sg33
VNNP
p3996
sg35
I22
ssg10
I396
sg36
g4
sg37
(dp3997
sg39
(dp3998
sg41
I2350
sg42
g21
sg43
g21
sg44
I396
sg45
VWorld
p3999
sg47
I396
sg48
I2355
sbag0
(g23
g2
Ntp4000
Rp4001
(dp4002
g27
(dp4003
g29
VDay
p4004
sg31
VDURATION
p4005
sg33
VNNP
p4006
sg35
I23
ssg10
I397
sg36
g4
sg37
(dp4007
sg39
(dp4008
sg41
I2356
sg42
g21
sg43
g21
sg44
I397
sg45
VDay
p4009
sg47
I397
sg48
I2359
sbag0
(g23
g2
Ntp4010
Rp4011
(dp4012
g27
(dp4013
g29
Vfor
p4014
sg31
VO
p4015
sg33
VIN
p4016
sg35
I24
ssg10
I398
sg36
g4
sg37
(dp4017
sg39
(dp4018
sg41
I2360
sg42
g21
sg43
g21
sg44
I398
sg45
Vfor
p4019
sg47
I398
sg48
I2363
sbag0
(g23
g2
Ntp4020
Rp4021
(dp4022
g27
(dp4023
g29
VCultural
p4024
sg31
VO
p4025
sg33
VNNP
p4026
sg35
I25
ssg10
I399
sg36
g4
sg37
(dp4027
sg39
(dp4028
sg41
I2364
sg42
g21
sg43
g21
sg44
I399
sg45
VCultural
p4029
sg47
I399
sg48
I2372
sbag0
(g23
g2
Ntp4030
Rp4031
(dp4032
g27
(dp4033
g29
VDiversity
p4034
sg31
VO
p4035
sg33
VNNP
p4036
sg35
I26
ssg10
I400
sg36
g4
sg37
(dp4037
sg39
(dp4038
sg41
I2373
sg42
g21
sg43
g21
sg44
I400
sg45
VDiversity
p4039
sg47
I400
sg48
I2382
sbag0
(g23
g2
Ntp4040
Rp4041
(dp4042
g27
(dp4043
g29
Vfor
p4044
sg31
VO
p4045
sg33
VIN
p4046
sg35
I27
ssg10
I401
sg36
g4
sg37
(dp4047
sg39
(dp4048
sg41
I2383
sg42
g21
sg43
g21
sg44
I401
sg45
Vfor
p4049
sg47
I401
sg48
I2386
sbag0
(g23
g2
Ntp4050
Rp4051
(dp4052
g27
(dp4053
g29
VDialogue
p4054
sg31
VO
p4055
sg33
VNNP
p4056
sg35
I28
ssg10
I402
sg36
g4
sg37
(dp4057
sg39
(dp4058
sg41
I2387
sg42
g21
sg43
g21
sg44
I402
sg45
VDialogue
p4059
sg47
I402
sg48
I2395
sbag0
(g23
g2
Ntp4060
Rp4061
(dp4062
g27
(dp4063
g29
Vand
p4064
sg31
VO
p4065
sg33
VCC
p4066
sg35
I29
ssg10
I403
sg36
g4
sg37
(dp4067
sg39
(dp4068
sg41
I2396
sg42
g21
sg43
g21
sg44
I403
sg45
Vand
p4069
sg47
I403
sg48
I2399
sbag0
(g23
g2
Ntp4070
Rp4071
(dp4072
g27
(dp4073
g29
VDevelopment
p4074
sg31
VO
p4075
sg33
VNNP
p4076
sg35
I30
ssg10
I404
sg36
g4
sg37
(dp4077
sg39
(dp4078
sg41
I2400
sg42
g21
sg43
g21
sg44
I404
sg45
VDevelopment
p4079
sg47
I404
sg48
I2411
sbag0
(g23
g2
Ntp4080
Rp4081
(dp4082
g27
(dp4083
g29
V.
p4084
sg31
VO
p4085
sg33
V.
p4086
sg35
I31
ssg10
I405
sg36
g4
sg37
(dp4087
sg39
(dp4088
sg41
I2411
sg42
g21
sg43
g21
sg44
I405
sg45
V.
p4089
sg47
I405
sg48
I2412
sbag0
(g23
g2
Ntp4090
Rp4091
(dp4092
g27
(dp4093
g29
V2003
p4094
sg31
VDATE
p4095
sg33
VCD
p4096
sg35
I1
ssg10
I406
sg36
g4
sg37
(dp4097
sg39
(dp4098
sg41
I2415
sg42
g21
sg43
g21
sg44
I406
sg45
V2003
p4099
sg47
I406
sg48
I2419
sbag0
(g23
g2
Ntp4100
Rp4101
(dp4102
g27
(dp4103
g29
Vto
p4104
sg31
VO
p4105
sg33
VTO
p4106
sg35
I2
ssg10
I407
sg36
g4
sg37
(dp4107
sg39
(dp4108
sg41
I2420
sg42
g21
sg43
g21
sg44
I407
sg45
Vto
p4109
sg47
I407
sg48
I2422
sbag0
(g23
g2
Ntp4110
Rp4111
(dp4112
g27
(dp4113
g29
V2005
p4114
sg31
VDATE
p4115
sg33
VCD
p4116
sg35
I3
ssg10
I408
sg36
g4
sg37
(dp4117
sg39
(dp4118
sg41
I2423
sg42
g21
sg43
g21
sg44
I408
sg45
V2005
p4119
sg47
I408
sg48
I2427
sbag0
(g23
g2
Ntp4120
Rp4121
(dp4122
g27
(dp4123
g29
Vmark
p4124
sg31
VO
p4125
sg33
VVBD
p4126
sg35
I4
ssg10
I409
sg36
g4
sg37
(dp4127
sg39
(dp4128
sg41
I2428
sg42
g21
sg43
g21
sg44
I409
sg45
Vmarked
p4129
sg47
I409
sg48
I2434
sbag0
(g23
g2
Ntp4130
Rp4131
(dp4132
g27
(dp4133
g29
Vthe
p4134
sg31
VDURATION
p4135
sg33
VDT
p4136
sg35
I5
ssg10
I410
sg36
g4
sg37
(dp4137
sg39
(dp4138
sg41
I2435
sg42
g21
sg43
g21
sg44
I410
sg45
Vthe
p4139
sg47
I410
sg48
I2438
sbag0
(g23
g2
Ntp4140
Rp4141
(dp4142
g27
(dp4143
g29
Vyear
p4144
sg31
VDURATION
p4145
sg33
VNNS
p4146
sg35
I6
ssg10
I411
sg36
g4
sg37
(dp4147
sg39
(dp4148
sg41
I2439
sg42
g21
sg43
g21
sg44
I411
sg45
Vyears
p4149
sg47
I411
sg48
I2444
sbag0
(g23
g2
Ntp4150
Rp4151
(dp4152
g27
(dp4153
g29
Vwhere
p4154
sg31
VO
p4155
sg33
VWRB
p4156
sg35
I7
ssg10
I412
sg36
g4
sg37
(dp4157
sg39
(dp4158
sg41
I2445
sg42
g21
sg43
g21
sg44
I412
sg45
Vwhere
p4159
sg47
I412
sg48
I2450
sbag0
(g23
g2
Ntp4160
Rp4161
(dp4162
g27
(dp4163
g29
Vnegotiation
p4164
sg31
VO
p4165
sg33
VNNS
p4166
sg35
I8
ssg10
I413
sg36
g4
sg37
(dp4167
sg39
(dp4168
sg41
I2451
sg42
g21
sg43
g21
sg44
I413
sg45
Vnegotiations
p4169
sg47
I413
sg48
I2463
sbag0
(g23
g2
Ntp4170
Rp4171
(dp4172
g27
(dp4173
g29
Vat
p4174
sg31
VO
p4175
sg33
VIN
p4176
sg35
I9
ssg10
I414
sg36
g4
sg37
(dp4177
sg39
(dp4178
sg41
I2457
sg42
g21
sg43
g21
sg44
I414
sg45
Vat
p4179
sg47
I414
sg48
I2459
sbag0
(g23
g2
Ntp4180
Rp4181
(dp4182
g27
(dp4183
g29
VUNESCO
p4184
sg31
VORGANIZATION
p4185
sg33
VNNP
p4186
sg35
I10
ssg10
I415
sg36
g4
sg37
(dp4187
sg39
(dp4188
sg41
I2467
sg42
g21
sg43
g21
sg44
I415
sg45
VUNESCO
p4189
sg47
I415
sg48
I2473
sbag0
(g23
g2
Ntp4190
Rp4191
(dp4192
g27
(dp4193
g29
Vstart
p4194
sg31
VO
p4195
sg33
VVBD
p4196
sg35
I11
ssg10
I416
sg36
g4
sg37
(dp4197
sg39
(dp4198
sg41
I2474
sg42
g21
sg43
g21
sg44
I416
sg45
Vstarted
p4199
sg47
I416
sg48
I2481
sbag0
(g23
g2
Ntp4200
Rp4201
(dp4202
g27
(dp4203
g29
Vtake
p4204
sg31
VO
p4205
sg33
VVBD
p4206
sg35
I12
ssg10
I417
sg36
g4
sg37
(dp4207
sg39
(dp4208
sg41
I2482
sg42
g21
sg43
g21
sg44
I417
sg45
Vtook
p4209
sg47
I417
sg48
I2486
sbag0
(g23
g2
Ntp4210
Rp4211
(dp4212
g27
(dp4213
g29
Vplace
p4214
sg31
VO
p4215
sg33
VNN
p4216
sg35
I13
ssg10
I418
sg36
g4
sg37
(dp4217
sg39
(dp4218
sg41
I2487
sg42
g21
sg43
g21
sg44
I418
sg45
Vplace
p4219
sg47
I418
sg48
I2492
sbag0
(g23
g2
Ntp4220
Rp4221
(dp4222
g27
(dp4223
g29
Vto
p4224
sg31
VO
p4225
sg33
VTO
p4226
sg35
I14
ssg10
I419
sg36
g4
sg37
(dp4227
sg39
(dp4228
sg41
I2493
sg42
g21
sg43
g21
sg44
I419
sg45
Vto
p4229
sg47
I419
sg48
I2495
sbag0
(g23
g2
Ntp4230
Rp4231
(dp4232
g27
(dp4233
g29
Vcreate
p4234
sg31
VO
p4235
sg33
VVB
p4236
sg35
I15
ssg10
I420
sg36
g4
sg37
(dp4237
sg39
(dp4238
sg41
I2496
sg42
g21
sg43
g21
sg44
I420
sg45
Vcreate
p4239
sg47
I420
sg48
I2502
sbag0
(g23
g2
Ntp4240
Rp4241
(dp4242
g27
(dp4243
g29
Va
p4244
sg31
VO
p4245
sg33
VDT
p4246
sg35
I16
ssg10
I421
sg36
g4
sg37
(dp4247
sg39
(dp4248
sg41
I2503
sg42
g21
sg43
g21
sg44
I421
sg45
Van
p4249
sg47
I421
sg48
I2505
sbag0
(g23
g2
Ntp4250
Rp4251
(dp4252
g27
(dp4253
g29
Vinternational
p4254
sg31
VO
p4255
sg33
VJJ
p4256
sg35
I17
ssg10
I422
sg36
g4
sg37
(dp4257
sg39
(dp4258
sg41
I2506
sg42
g21
sg43
g21
sg44
I422
sg45
Vinternational
p4259
sg47
I422
sg48
I2519
sbag0
(g23
g2
Ntp4260
Rp4261
(dp4262
g27
(dp4263
g29
Vagreement
p4264
sg31
VO
p4265
sg33
VNN
p4266
sg35
I18
ssg10
I423
sg36
g4
sg37
(dp4267
sg39
(dp4268
sg41
I2520
sg42
g21
sg43
g21
sg44
I423
sg45
Vagreement
p4269
sg47
I423
sg48
I2529
sbag0
(g23
g2
Ntp4270
Rp4271
(dp4272
g27
(dp4273
g29
Vthat
p4274
sg31
VO
p4275
sg33
VWDT
p4276
sg35
I19
ssg10
I424
sg36
g4
sg37
(dp4277
sg39
(dp4278
sg41
I2530
sg42
g21
sg43
g21
sg44
I424
sg45
Vthat
p4279
sg47
I424
sg48
I2534
sbag0
(g23
g2
Ntp4280
Rp4281
(dp4282
g27
(dp4283
g29
Vaim
p4284
sg31
VO
p4285
sg33
VVBZ
p4286
sg35
I20
ssg10
I425
sg36
g4
sg37
(dp4287
sg39
(dp4288
sg41
I2535
sg42
g21
sg43
g21
sg44
I425
sg45
Vaims
p4289
sg47
I425
sg48
I2539
sbag0
(g23
g2
Ntp4290
Rp4291
(dp4292
g27
(dp4293
g29
Vto
p4294
sg31
VO
p4295
sg33
VTO
p4296
sg35
I21
ssg10
I426
sg36
g4
sg37
(dp4297
sg39
(dp4298
sg41
I2540
sg42
g21
sg43
g21
sg44
I426
sg45
Vto
p4299
sg47
I426
sg48
I2542
sbag0
(g23
g2
Ntp4300
Rp4301
(dp4302
g27
(dp4303
g29
Vprotect
p4304
sg31
VO
p4305
sg33
VVB
p4306
sg35
I22
ssg10
I427
sg36
g4
sg37
(dp4307
sg39
(dp4308
sg41
I2543
sg42
g21
sg43
g21
sg44
I427
sg45
Vprotect
p4309
sg47
I427
sg48
I2550
sbag0
(g23
g2
Ntp4310
Rp4311
(dp4312
g27
(dp4313
g29
Vand
p4314
sg31
VO
p4315
sg33
VCC
p4316
sg35
I23
ssg10
I428
sg36
g4
sg37
(dp4317
sg39
(dp4318
sg41
I2551
sg42
g21
sg43
g21
sg44
I428
sg45
Vand
p4319
sg47
I428
sg48
I2554
sbag0
(g23
g2
Ntp4320
Rp4321
(dp4322
g27
(dp4323
g29
Vpromote
p4324
sg31
VO
p4325
sg33
VVB
p4326
sg35
I24
ssg10
I429
sg36
g4
sg37
(dp4327
sg39
(dp4328
sg41
I2555
sg42
g21
sg43
g21
sg44
I429
sg45
Vpromote
p4329
sg47
I429
sg48
I2562
sbag0
(g23
g2
Ntp4330
Rp4331
(dp4332
g27
(dp4333
g29
Vthe
p4334
sg31
VO
p4335
sg33
VDT
p4336
sg35
I25
ssg10
I430
sg36
g4
sg37
(dp4337
sg39
(dp4338
sg41
I2563
sg42
g21
sg43
g21
sg44
I430
sg45
Vthe
p4339
sg47
I430
sg48
I2566
sbag0
(g23
g2
Ntp4340
Rp4341
(dp4342
g27
(dp4343
g29
Vdiversity
p4344
sg31
VO
p4345
sg33
VNN
p4346
sg35
I26
ssg10
I431
sg36
g4
sg37
(dp4347
sg39
(dp4348
sg41
I2567
sg42
g21
sg43
g21
sg44
I431
sg45
Vdiversity
p4349
sg47
I431
sg48
I2576
sbag0
(g23
g2
Ntp4350
Rp4351
(dp4352
g27
(dp4353
g29
Vof
p4354
sg31
VO
p4355
sg33
VIN
p4356
sg35
I27
ssg10
I432
sg36
g4
sg37
(dp4357
sg39
(dp4358
sg41
I2577
sg42
g21
sg43
g21
sg44
I432
sg45
Vof
p4359
sg47
I432
sg48
I2579
sbag0
(g23
g2
Ntp4360
Rp4361
(dp4362
g27
(dp4363
g29
Vcultural
p4364
sg31
VO
p4365
sg33
VJJ
p4366
sg35
I28
ssg10
I433
sg36
g4
sg37
(dp4367
sg39
(dp4368
sg41
I2580
sg42
g21
sg43
g21
sg44
I433
sg45
Vcultural
p4369
sg47
I433
sg48
I2588
sbag0
(g23
g2
Ntp4370
Rp4371
(dp4372
g27
(dp4373
g29
Vexpression
p4374
sg31
VO
p4375
sg33
VNNS
p4376
sg35
I29
ssg10
I434
sg36
g4
sg37
(dp4377
sg39
(dp4378
sg41
I2589
sg42
g21
sg43
g21
sg44
I434
sg45
Vexpressions
p4379
sg47
I434
sg48
I2600
sbag0
(g23
g2
Ntp4380
Rp4381
(dp4382
g27
(dp4383
g29
V.
p4384
sg31
VO
p4385
sg33
V.
p4386
sg35
I30
ssg10
I435
sg36
g4
sg37
(dp4387
sg39
(dp4388
sg41
I2600
sg42
g21
sg43
g21
sg44
I435
sg45
V.
p4389
sg47
I435
sg48
I2601
sbag0
(g23
g2
Ntp4390
Rp4391
(dp4392
g27
(dp4393
g29
VOctober
p4394
sg31
VDATE
p4395
sg33
VNNP
p4396
sg35
I1
ssg10
I436
sg36
g4
sg37
(dp4397
sg39
(dp4398
sg41
I2604
sg42
g21
sg43
g21
sg44
I436
sg45
VOctober
p4399
sg47
I436
sg48
I2611
sbag0
(g23
g2
Ntp4400
Rp4401
(dp4402
g27
(dp4403
g29
V20
p4404
sg31
VDATE
p4405
sg33
VCD
p4406
sg35
I2
ssg10
I437
sg36
g4
sg37
(dp4407
sg39
(dp4408
sg41
I2612
sg42
g21
sg43
g21
sg44
I437
sg45
V20
p4409
sg47
I437
sg48
I2614
sbag0
(g23
g2
Ntp4410
Rp4411
(dp4412
g27
(dp4413
g29
V,
p4414
sg31
VDATE
p4415
sg33
V,
p4416
sg35
I3
ssg10
I438
sg36
g4
sg37
(dp4417
sg39
(dp4418
sg41
I2614
sg42
g21
sg43
g21
sg44
I438
sg45
V,
p4419
sg47
I438
sg48
I2615
sbag0
(g23
g2
Ntp4420
Rp4421
(dp4422
g27
(dp4423
g29
V2005
p4424
sg31
VDATE
p4425
sg33
VCD
p4426
sg35
I4
ssg10
I439
sg36
g4
sg37
(dp4427
sg39
(dp4428
sg41
I2616
sg42
g21
sg43
g21
sg44
I439
sg45
V2005
p4429
sg47
I439
sg48
I2620
sbag0
(g23
g2
Ntp4430
Rp4431
(dp4432
g27
(dp4433
g29
V:
p4434
sg31
VO
p4435
sg33
V:
p4436
sg35
I5
ssg10
I440
sg36
g4
sg37
(dp4437
sg39
(dp4438
sg41
I2620
sg42
g21
sg43
g21
sg44
I440
sg45
V:
p4439
sg47
I440
sg48
I2621
sbag0
(g23
g2
Ntp4440
Rp4441
(dp4442
g27
(dp4443
g29
VUNESCO
p4444
sg31
VORGANIZATION
p4445
sg33
VNNP
p4446
sg35
I6
ssg10
I441
sg36
g4
sg37
(dp4447
sg39
(dp4448
sg41
I2622
sg42
g21
sg43
g21
sg44
I441
sg45
VUNESCO
p4449
sg47
I441
sg48
I2628
sbag0
(g23
g2
Ntp4450
Rp4451
(dp4452
g27
(dp4453
g29
VConvention
p4454
sg31
VO
p4455
sg33
VNNP
p4456
sg35
I7
ssg10
I442
sg36
g4
sg37
(dp4457
sg39
(dp4458
sg41
I2629
sg42
g21
sg43
g21
sg44
I442
sg45
VConvention
p4459
sg47
I442
sg48
I2639
sbag0
(g23
g2
Ntp4460
Rp4461
(dp4462
g27
(dp4463
g29
Von
p4464
sg31
VO
p4465
sg33
VIN
p4466
sg35
I8
ssg10
I443
sg36
g4
sg37
(dp4467
sg39
(dp4468
sg41
I2630
sg42
g21
sg43
g21
sg44
I443
sg45
Von
p4469
sg47
I443
sg48
I2632
sbag0
(g23
g2
Ntp4470
Rp4471
(dp4472
g27
(dp4473
g29
Vthe
p4474
sg31
VO
p4475
sg33
VDT
p4476
sg35
I9
ssg10
I444
sg36
g4
sg37
(dp4477
sg39
(dp4478
sg41
I2643
sg42
g21
sg43
g21
sg44
I444
sg45
Vthe
p4479
sg47
I444
sg48
I2646
sbag0
(g23
g2
Ntp4480
Rp4481
(dp4482
g27
(dp4483
g29
Vprotection
p4484
sg31
VO
p4485
sg33
VNN
p4486
sg35
I10
ssg10
I445
sg36
g4
sg37
(dp4487
sg39
(dp4488
sg41
I2647
sg42
g21
sg43
g21
sg44
I445
sg45
VProtection
p4489
sg47
I445
sg48
I2657
sbag0
(g23
g2
Ntp4490
Rp4491
(dp4492
g27
(dp4493
g29
Vand
p4494
sg31
VO
p4495
sg33
VCC
p4496
sg35
I11
ssg10
I446
sg36
g4
sg37
(dp4497
sg39
(dp4498
sg41
I2658
sg42
g21
sg43
g21
sg44
I446
sg45
Vand
p4499
sg47
I446
sg48
I2661
sbag0
(g23
g2
Ntp4500
Rp4501
(dp4502
g27
(dp4503
g29
VPromotion
p4504
sg31
VO
p4505
sg33
VNNP
p4506
sg35
I12
ssg10
I447
sg36
g4
sg37
(dp4507
sg39
(dp4508
sg41
I2662
sg42
g21
sg43
g21
sg44
I447
sg45
VPromotion
p4509
sg47
I447
sg48
I2671
sbag0
(g23
g2
Ntp4510
Rp4511
(dp4512
g27
(dp4513
g29
Vof
p4514
sg31
VO
p4515
sg33
VIN
p4516
sg35
I13
ssg10
I448
sg36
g4
sg37
(dp4517
sg39
(dp4518
sg41
I2672
sg42
g21
sg43
g21
sg44
I448
sg45
Vof
p4519
sg47
I448
sg48
I2674
sbag0
(g23
g2
Ntp4520
Rp4521
(dp4522
g27
(dp4523
g29
Vthe
p4524
sg31
VO
p4525
sg33
VDT
p4526
sg35
I14
ssg10
I449
sg36
g4
sg37
(dp4527
sg39
(dp4528
sg41
I2675
sg42
g21
sg43
g21
sg44
I449
sg45
Vthe
p4529
sg47
I449
sg48
I2678
sbag0
(g23
g2
Ntp4530
Rp4531
(dp4532
g27
(dp4533
g29
Vdiversity
p4534
sg31
VMISC
p4535
sg33
VNN
p4536
sg35
I15
ssg10
I450
sg36
g4
sg37
(dp4537
sg39
(dp4538
sg41
I2679
sg42
g21
sg43
g21
sg44
I450
sg45
VDiversity
p4539
sg47
I450
sg48
I2688
sbag0
(g23
g2
Ntp4540
Rp4541
(dp4542
g27
(dp4543
g29
Vof
p4544
sg31
VMISC
p4545
sg33
VIN
p4546
sg35
I16
ssg10
I451
sg36
g4
sg37
(dp4547
sg39
(dp4548
sg41
I2689
sg42
g21
sg43
g21
sg44
I451
sg45
Vof
p4549
sg47
I451
sg48
I2691
sbag0
(g23
g2
Ntp4550
Rp4551
(dp4552
g27
(dp4553
g29
Vcultural
p4554
sg31
VMISC
p4555
sg33
VJJ
p4556
sg35
I17
ssg10
I452
sg36
g4
sg37
(dp4557
sg39
(dp4558
sg41
I2692
sg42
g21
sg43
g21
sg44
I452
sg45
VCultural
p4559
sg47
I452
sg48
I2700
sbag0
(g23
g2
Ntp4560
Rp4561
(dp4562
g27
(dp4563
g29
Vexpression
p4564
sg31
VMISC
p4565
sg33
VNNS
p4566
sg35
I18
ssg10
I453
sg36
g4
sg37
(dp4567
sg39
(dp4568
sg41
I2701
sg42
g21
sg43
g21
sg44
I453
sg45
VExpressions
p4569
sg47
I453
sg48
I2712
sbag0
(g23
g2
Ntp4570
Rp4571
(dp4572
g27
(dp4573
g29
Vbe
p4574
sg31
VO
p4575
sg33
VVBD
p4576
sg35
I19
ssg10
I454
sg36
g4
sg37
(dp4577
sg39
(dp4578
sg41
I2713
sg42
g21
sg43
g21
sg44
I454
sg45
Vwas
p4579
sg47
I454
sg48
I2716
sbag0
(g23
g2
Ntp4580
Rp4581
(dp4582
g27
(dp4583
g29
Vadopt
p4584
sg31
VO
p4585
sg33
VVBN
p4586
sg35
I20
ssg10
I455
sg36
g4
sg37
(dp4587
sg39
(dp4588
sg41
I2717
sg42
g21
sg43
g21
sg44
I455
sg45
Vadopted
p4589
sg47
I455
sg48
I2724
sbag0
(g23
g2
Ntp4590
Rp4591
(dp4592
g27
(dp4593
g29
V.
p4594
sg31
VO
p4595
sg33
V.
p4596
sg35
I21
ssg10
I456
sg36
g4
sg37
(dp4597
sg39
(dp4598
sg41
I2724
sg42
g21
sg43
g21
sg44
I456
sg45
V.
p4599
sg47
I456
sg48
I2725
sbag0
(g23
g2
Ntp4600
Rp4601
(dp4602
g27
(dp4603
g29
VMarch
p4604
sg31
VDATE
p4605
sg33
VNNP
p4606
sg35
I1
ssg10
I457
sg36
g4
sg37
(dp4607
sg39
(dp4608
sg41
I2728
sg42
g21
sg43
g21
sg44
I457
sg45
VMarch
p4609
sg47
I457
sg48
I2733
sbag0
(g23
g2
Ntp4610
Rp4611
(dp4612
g27
(dp4613
g29
V18
p4614
sg31
VDATE
p4615
sg33
VCD
p4616
sg35
I2
ssg10
I458
sg36
g4
sg37
(dp4617
sg39
(dp4618
sg41
I2734
sg42
g21
sg43
g21
sg44
I458
sg45
V18
p4619
sg47
I458
sg48
I2736
sbag0
(g23
g2
Ntp4620
Rp4621
(dp4622
g27
(dp4623
g29
V,
p4624
sg31
VDATE
p4625
sg33
V,
p4626
sg35
I3
ssg10
I459
sg36
g4
sg37
(dp4627
sg39
(dp4628
sg41
I2736
sg42
g21
sg43
g21
sg44
I459
sg45
V,
p4629
sg47
I459
sg48
I2737
sbag0
(g23
g2
Ntp4630
Rp4631
(dp4632
g27
(dp4633
g29
V2007
p4634
sg31
VDATE
p4635
sg33
VCD
p4636
sg35
I4
ssg10
I460
sg36
g4
sg37
(dp4637
sg39
(dp4638
sg41
I2738
sg42
g21
sg43
g21
sg44
I460
sg45
V2007
p4639
sg47
I460
sg48
I2742
sbag0
(g23
g2
Ntp4640
Rp4641
(dp4642
g27
(dp4643
g29
V:
p4644
sg31
VO
p4645
sg33
V:
p4646
sg35
I5
ssg10
I461
sg36
g4
sg37
(dp4647
sg39
(dp4648
sg41
I2742
sg42
g21
sg43
g21
sg44
I461
sg45
V:
p4649
sg47
I461
sg48
I2743
sbag0
(g23
g2
Ntp4650
Rp4651
(dp4652
g27
(dp4653
g29
Vthe
p4654
sg31
VO
p4655
sg33
VDT
p4656
sg35
I6
ssg10
I462
sg36
g4
sg37
(dp4657
sg39
(dp4658
sg41
I2744
sg42
g21
sg43
g21
sg44
I462
sg45
VThe
p4659
sg47
I462
sg48
I2747
sbag0
(g23
g2
Ntp4660
Rp4661
(dp4662
g27
(dp4663
g29
VConvention
p4664
sg31
VMISC
p4665
sg33
VNNP
p4666
sg35
I7
ssg10
I463
sg36
g4
sg37
(dp4667
sg39
(dp4668
sg41
I2748
sg42
g21
sg43
g21
sg44
I463
sg45
VConvention
p4669
sg47
I463
sg48
I2758
sbag0
(g23
g2
Ntp4670
Rp4671
(dp4672
g27
(dp4673
g29
Venter
p4674
sg31
VO
p4675
sg33
VVBZ
p4676
sg35
I8
ssg10
I464
sg36
g4
sg37
(dp4677
sg39
(dp4678
sg41
I2759
sg42
g21
sg43
g21
sg44
I464
sg45
Venters
p4679
sg47
I464
sg48
I2765
sbag0
(g23
g2
Ntp4680
Rp4681
(dp4682
g27
(dp4683
g29
Vinto
p4684
sg31
VO
p4685
sg33
VIN
p4686
sg35
I9
ssg10
I465
sg36
g4
sg37
(dp4687
sg39
(dp4688
sg41
I2766
sg42
g21
sg43
g21
sg44
I465
sg45
Vinto
p4689
sg47
I465
sg48
I2770
sbag0
(g23
g2
Ntp4690
Rp4691
(dp4692
g27
(dp4693
g29
Vforce
p4694
sg31
VO
p4695
sg33
VNN
p4696
sg35
I10
ssg10
I466
sg36
g4
sg37
(dp4697
sg39
(dp4698
sg41
I2771
sg42
g21
sg43
g21
sg44
I466
sg45
Vforce
p4699
sg47
I466
sg48
I2776
sbag0
(g23
g2
Ntp4700
Rp4701
(dp4702
g27
(dp4703
g29
Vand
p4704
sg31
VO
p4705
sg33
VCC
p4706
sg35
I11
ssg10
I467
sg36
g4
sg37
(dp4707
sg39
(dp4708
sg41
I2777
sg42
g21
sg43
g21
sg44
I467
sg45
Vand
p4709
sg47
I467
sg48
I2780
sbag0
(g23
g2
Ntp4710
Rp4711
(dp4712
g27
(dp4713
g29
Vthree
p4714
sg31
VDATE
p4715
sg33
VCD
p4716
sg35
I12
ssg10
I468
sg36
g4
sg37
(dp4717
sg39
(dp4718
sg41
I2781
sg42
g21
sg43
g21
sg44
I468
sg45
Vthree
p4719
sg47
I468
sg48
I2786
sbag0
(g23
g2
Ntp4720
Rp4721
(dp4722
g27
(dp4723
g29
Vmonth
p4724
sg31
VDATE
p4725
sg33
VNNS
p4726
sg35
I13
ssg10
I469
sg36
g4
sg37
(dp4727
sg39
(dp4728
sg41
I2787
sg42
g21
sg43
g21
sg44
I469
sg45
Vmonths
p4729
sg47
I469
sg48
I2793
sbag0
(g23
g2
Ntp4730
Rp4731
(dp4732
g27
(dp4733
g29
Vlater
p4734
sg31
VDATE
p4735
sg33
VRB
p4736
sg35
I14
ssg10
I470
sg36
g4
sg37
(dp4737
sg39
(dp4738
sg41
I2794
sg42
g21
sg43
g21
sg44
I470
sg45
Vlater
p4739
sg47
I470
sg48
I2799
sbag0
(g23
g2
Ntp4740
Rp4741
(dp4742
g27
(dp4743
g29
V,
p4744
sg31
VO
p4745
sg33
V,
p4746
sg35
I15
ssg10
I471
sg36
g4
sg37
(dp4747
sg39
(dp4748
sg41
I2799
sg42
g21
sg43
g21
sg44
I471
sg45
V,
p4749
sg47
I471
sg48
I2800
sbag0
(g23
g2
Ntp4750
Rp4751
(dp4752
g27
(dp4753
g29
Vthe
p4754
sg31
VO
p4755
sg33
VDT
p4756
sg35
I16
ssg10
I472
sg36
g4
sg37
(dp4757
sg39
(dp4758
sg41
I2801
sg42
g21
sg43
g21
sg44
I472
sg45
Vthe
p4759
sg47
I472
sg48
I2804
sbag0
(g23
g2
Ntp4760
Rp4761
(dp4762
g27
(dp4763
g29
V56
p4764
sg31
VNUMBER
p4765
sg33
VCD
p4766
sg35
I17
ssg10
I473
sg36
g4
sg37
(dp4767
sg39
(dp4768
sg41
I2805
sg42
g21
sg43
g21
sg44
I473
sg45
V56
p4769
sg47
I473
sg48
I2807
sbag0
(g23
g2
Ntp4770
Rp4771
(dp4772
g27
(dp4773
g29
VMember
p4774
sg31
VO
p4775
sg33
VNNP
p4776
sg35
I18
ssg10
I474
sg36
g4
sg37
(dp4777
sg39
(dp4778
sg41
I2808
sg42
g21
sg43
g21
sg44
I474
sg45
VMember
p4779
sg47
I474
sg48
I2814
sbag0
(g23
g2
Ntp4780
Rp4781
(dp4782
g27
(dp4783
g29
VStates
p4784
sg31
VO
p4785
sg33
VNNPS
p4786
sg35
I19
ssg10
I475
sg36
g4
sg37
(dp4787
sg39
(dp4788
sg41
I2815
sg42
g21
sg43
g21
sg44
I475
sg45
VStates
p4789
sg47
I475
sg48
I2821
sbag0
(g23
g2
Ntp4790
Rp4791
(dp4792
g27
(dp4793
g29
Vthat
p4794
sg31
VO
p4795
sg33
VWDT
p4796
sg35
I20
ssg10
I476
sg36
g4
sg37
(dp4797
sg39
(dp4798
sg41
I2822
sg42
g21
sg43
g21
sg44
I476
sg45
Vthat
p4799
sg47
I476
sg48
I2826
sbag0
(g23
g2
Ntp4800
Rp4801
(dp4802
g27
(dp4803
g29
Vratify
p4804
sg31
VO
p4805
sg33
VVBD
p4806
sg35
I21
ssg10
I477
sg36
g4
sg37
(dp4807
sg39
(dp4808
sg41
I2827
sg42
g21
sg43
g21
sg44
I477
sg45
Vratified
p4809
sg47
I477
sg48
I2835
sbag0
(g23
g2
Ntp4810
Rp4811
(dp4812
g27
(dp4813
g29
Vit
p4814
sg31
VO
p4815
sg33
VPRP
p4816
sg35
I22
ssg10
I478
sg36
g4
sg37
(dp4817
sg39
(dp4818
sg41
I2836
sg42
g21
sg43
g21
sg44
I478
sg45
Vit
p4819
sg47
I478
sg48
I2838
sbag0
(g23
g2
Ntp4820
Rp4821
(dp4822
g27
(dp4823
g29
Vmeet
p4824
sg31
VO
p4825
sg33
VVB
p4826
sg35
I23
ssg10
I479
sg36
g4
sg37
(dp4827
sg39
(dp4828
sg41
I2839
sg42
g21
sg43
g21
sg44
I479
sg45
Vmeet
p4829
sg47
I479
sg48
I2843
sbag0
(g23
g2
Ntp4830
Rp4831
(dp4832
g27
(dp4833
g29
Vin
p4834
sg31
VO
p4835
sg33
VIN
p4836
sg35
I24
ssg10
I480
sg36
g4
sg37
(dp4837
sg39
(dp4838
sg41
I2844
sg42
g21
sg43
g21
sg44
I480
sg45
Vin
p4839
sg47
I480
sg48
I2846
sbag0
(g23
g2
Ntp4840
Rp4841
(dp4842
g27
(dp4843
g29
VParis
p4844
sg31
VLOCATION
p4845
sg33
VNNP
p4846
sg35
I25
ssg10
I481
sg36
g4
sg37
(dp4847
sg39
(dp4848
sg41
I2847
sg42
g21
sg43
g21
sg44
I481
sg45
VParis
p4849
sg47
I481
sg48
I2852
sbag0
(g23
g2
Ntp4850
Rp4851
(dp4852
g27
(dp4853
g29
Vfor
p4854
sg31
VO
p4855
sg33
VIN
p4856
sg35
I26
ssg10
I482
sg36
g4
sg37
(dp4857
sg39
(dp4858
sg41
I2853
sg42
g21
sg43
g21
sg44
I482
sg45
Vfor
p4859
sg47
I482
sg48
I2856
sbag0
(g23
g2
Ntp4860
Rp4861
(dp4862
g27
(dp4863
g29
Vthe
p4864
sg31
VO
p4865
sg33
VDT
p4866
sg35
I27
ssg10
I483
sg36
g4
sg37
(dp4867
sg39
(dp4868
sg41
I2857
sg42
g21
sg43
g21
sg44
I483
sg45
Vthe
p4869
sg47
I483
sg48
I2860
sbag0
(g23
g2
Ntp4870
Rp4871
(dp4872
g27
(dp4873
g29
Vfirst
p4874
sg31
VORDINAL
p4875
sg33
VJJ
p4876
sg35
I28
ssg10
I484
sg36
g4
sg37
(dp4877
sg39
(dp4878
sg41
I2861
sg42
g21
sg43
g21
sg44
I484
sg45
Vfirst
p4879
sg47
I484
sg48
I2866
sbag0
(g23
g2
Ntp4880
Rp4881
(dp4882
g27
(dp4883
g29
Vconference
p4884
sg31
VO
p4885
sg33
VNN
p4886
sg35
I29
ssg10
I485
sg36
g4
sg37
(dp4887
sg39
(dp4888
sg41
I2867
sg42
g21
sg43
g21
sg44
I485
sg45
VConference
p4889
sg47
I485
sg48
I2877
sbag0
(g23
g2
Ntp4890
Rp4891
(dp4892
g27
(dp4893
g29
Vof
p4894
sg31
VO
p4895
sg33
VIN
p4896
sg35
I30
ssg10
I486
sg36
g4
sg37
(dp4897
sg39
(dp4898
sg41
I2878
sg42
g21
sg43
g21
sg44
I486
sg45
Vof
p4899
sg47
I486
sg48
I2880
sbag0
(g23
g2
Ntp4900
Rp4901
(dp4902
g27
(dp4903
g29
Vthe
p4904
sg31
VO
p4905
sg33
VDT
p4906
sg35
I31
ssg10
I487
sg36
g4
sg37
(dp4907
sg39
(dp4908
sg41
I2881
sg42
g21
sg43
g21
sg44
I487
sg45
Vthe
p4909
sg47
I487
sg48
I2884
sbag0
(g23
g2
Ntp4910
Rp4911
(dp4912
g27
(dp4913
g29
Vparty
p4914
sg31
VO
p4915
sg33
VNNS
p4916
sg35
I32
ssg10
I488
sg36
g4
sg37
(dp4917
sg39
(dp4918
sg41
I2885
sg42
g21
sg43
g21
sg44
I488
sg45
VParties
p4919
sg47
I488
sg48
I2892
sbag0
(g23
g2
Ntp4920
Rp4921
(dp4922
g27
(dp4923
g29
Vto
p4924
sg31
VO
p4925
sg33
VTO
p4926
sg35
I33
ssg10
I489
sg36
g4
sg37
(dp4927
sg39
(dp4928
sg41
I2893
sg42
g21
sg43
g21
sg44
I489
sg45
Vto
p4929
sg47
I489
sg48
I2895
sbag0
(g23
g2
Ntp4930
Rp4931
(dp4932
g27
(dp4933
g29
Vbegin
p4934
sg31
VO
p4935
sg33
VVB
p4936
sg35
I34
ssg10
I490
sg36
g4
sg37
(dp4937
sg39
(dp4938
sg41
I2896
sg42
g21
sg43
g21
sg44
I490
sg45
Vbegin
p4939
sg47
I490
sg48
I2901
sbag0
(g23
g2
Ntp4940
Rp4941
(dp4942
g27
(dp4943
g29
Vwork
p4944
sg31
VO
p4945
sg33
VNN
p4946
sg35
I35
ssg10
I491
sg36
g4
sg37
(dp4947
sg39
(dp4948
sg41
I2902
sg42
g21
sg43
g21
sg44
I491
sg45
Vwork
p4949
sg47
I491
sg48
I2906
sbag0
(g23
g2
Ntp4950
Rp4951
(dp4952
g27
(dp4953
g29
Von
p4954
sg31
VO
p4955
sg33
VIN
p4956
sg35
I36
ssg10
I492
sg36
g4
sg37
(dp4957
sg39
(dp4958
sg41
I2907
sg42
g21
sg43
g21
sg44
I492
sg45
Von
p4959
sg47
I492
sg48
I2909
sbag0
(g23
g2
Ntp4960
Rp4961
(dp4962
g27
(dp4963
g29
Vimplement
p4964
sg31
VO
p4965
sg33
VVBG
p4966
sg35
I37
ssg10
I493
sg36
g4
sg37
(dp4967
sg39
(dp4968
sg41
I2910
sg42
g21
sg43
g21
sg44
I493
sg45
Vimplementing
p4969
sg47
I493
sg48
I2922
sbag0
(g23
g2
Ntp4970
Rp4971
(dp4972
g27
(dp4973
g29
Vthe
p4974
sg31
VO
p4975
sg33
VDT
p4976
sg35
I38
ssg10
I494
sg36
g4
sg37
(dp4977
sg39
(dp4978
sg41
I2923
sg42
g21
sg43
g21
sg44
I494
sg45
Vthe
p4979
sg47
I494
sg48
I2926
sbag0
(g23
g2
Ntp4980
Rp4981
(dp4982
g27
(dp4983
g29
VConvention
p4984
sg31
VO
p4985
sg33
VNNP
p4986
sg35
I39
ssg10
I495
sg36
g4
sg37
(dp4987
sg39
(dp4988
sg41
I2927
sg42
g21
sg43
g21
sg44
I495
sg45
VConvention
p4989
sg47
I495
sg48
I2937
sbag0
(g23
g2
Ntp4990
Rp4991
(dp4992
g27
(dp4993
g29
V.
p4994
sg31
VO
p4995
sg33
V.
p4996
sg35
I40
ssg10
I496
sg36
g4
sg37
(dp4997
sg39
(dp4998
sg41
I2937
sg42
g21
sg43
g21
sg44
I496
sg45
V.
p4999
sg47
I496
sg48
I2938
sbag0
(g23
g2
Ntp5000
Rp5001
(dp5002
g27
(dp5003
g29
Vto
p5004
sg31
VO
p5005
sg33
VTO
p5006
sg35
I1
ssg10
I497
sg36
g4
sg37
(dp5007
sg39
(dp5008
sg41
I2941
sg42
g21
sg43
g21
sg44
I497
sg45
VTo
p5009
sg47
I497
sg48
I2943
sbag0
(g23
g2
Ntp5010
Rp5011
(dp5012
g27
(dp5013
g29
Vdate
p5014
sg31
VO
p5015
sg33
VNN
p5016
sg35
I2
ssg10
I498
sg36
g4
sg37
(dp5017
sg39
(dp5018
sg41
I2944
sg42
g21
sg43
g21
sg44
I498
sg45
Vdate
p5019
sg47
I498
sg48
I2948
sbag0
(g23
g2
Ntp5020
Rp5021
(dp5022
g27
(dp5023
g29
V,
p5024
sg31
VO
p5025
sg33
V,
p5026
sg35
I3
ssg10
I499
sg36
g4
sg37
(dp5027
sg39
(dp5028
sg41
I2948
sg42
g21
sg43
g21
sg44
I499
sg45
V,
p5029
sg47
I499
sg48
I2949
sbag0
(g23
g2
Ntp5030
Rp5031
(dp5032
g27
(dp5033
g29
V117
p5034
sg31
VNUMBER
p5035
sg33
VCD
p5036
sg35
I4
ssg10
I500
sg36
g4
sg37
(dp5037
sg39
(dp5038
sg41
I2950
sg42
g21
sg43
g21
sg44
I500
sg45
V117
p5039
sg47
I500
sg48
I2953
sbag0
(g23
g2
Ntp5040
Rp5041
(dp5042
g27
(dp5043
g29
VMember
p5044
sg31
VO
p5045
sg33
VNNP
p5046
sg35
I5
ssg10
I501
sg36
g4
sg37
(dp5047
sg39
(dp5048
sg41
I2954
sg42
g21
sg43
g21
sg44
I501
sg45
VMember
p5049
sg47
I501
sg48
I2960
sbag0
(g23
g2
Ntp5050
Rp5051
(dp5052
g27
(dp5053
g29
VStates
p5054
sg31
VO
p5055
sg33
VNNPS
p5056
sg35
I6
ssg10
I502
sg36
g4
sg37
(dp5057
sg39
(dp5058
sg41
I2961
sg42
g21
sg43
g21
sg44
I502
sg45
VStates
p5059
sg47
I502
sg48
I2967
sbag0
(g23
g2
Ntp5060
Rp5061
(dp5062
g27
(dp5063
g29
Vas
p5064
sg31
VO
p5065
sg33
VRB
p5066
sg35
I7
ssg10
I503
sg36
g4
sg37
(dp5067
sg39
(dp5068
sg41
I2968
sg42
g21
sg43
g21
sg44
I503
sg45
Vas
p5069
sg47
I503
sg48
I2970
sbag0
(g23
g2
Ntp5070
Rp5071
(dp5072
g27
(dp5073
g29
Vwell
p5074
sg31
VO
p5075
sg33
VRB
p5076
sg35
I8
ssg10
I504
sg36
g4
sg37
(dp5077
sg39
(dp5078
sg41
I2971
sg42
g21
sg43
g21
sg44
I504
sg45
Vwell
p5079
sg47
I504
sg48
I2975
sbag0
(g23
g2
Ntp5080
Rp5081
(dp5082
g27
(dp5083
g29
Vas
p5084
sg31
VO
p5085
sg33
VIN
p5086
sg35
I9
ssg10
I505
sg36
g4
sg37
(dp5087
sg39
(dp5088
sg41
I2976
sg42
g21
sg43
g21
sg44
I505
sg45
Vas
p5089
sg47
I505
sg48
I2978
sbag0
(g23
g2
Ntp5090
Rp5091
(dp5092
g27
(dp5093
g29
Vthe
p5094
sg31
VO
p5095
sg33
VDT
p5096
sg35
I10
ssg10
I506
sg36
g4
sg37
(dp5097
sg39
(dp5098
sg41
I2979
sg42
g21
sg43
g21
sg44
I506
sg45
Vthe
p5099
sg47
I506
sg48
I2982
sbag0
(g23
g2
Ntp5100
Rp5101
(dp5102
g27
(dp5103
g29
VEuropean
p5104
sg31
VORGANIZATION
p5105
sg33
VNNP
p5106
sg35
I11
ssg10
I507
sg36
g4
sg37
(dp5107
sg39
(dp5108
sg41
I2983
sg42
g21
sg43
g21
sg44
I507
sg45
VEuropean
p5109
sg47
I507
sg48
I2991
sbag0
(g23
g2
Ntp5110
Rp5111
(dp5112
g27
(dp5113
g29
VUnion
p5114
sg31
VORGANIZATION
p5115
sg33
VNNP
p5116
sg35
I12
ssg10
I508
sg36
g4
sg37
(dp5117
sg39
(dp5118
sg41
I2992
sg42
g21
sg43
g21
sg44
I508
sg45
VUnion
p5119
sg47
I508
sg48
I2997
sbag0
(g23
g2
Ntp5120
Rp5121
(dp5122
g27
(dp5123
g29
Vhave
p5124
sg31
VO
p5125
sg33
VVBP
p5126
sg35
I13
ssg10
I509
sg36
g4
sg37
(dp5127
sg39
(dp5128
sg41
I2998
sg42
g21
sg43
g21
sg44
I509
sg45
Vhave
p5129
sg47
I509
sg48
I3002
sbag0
(g23
g2
Ntp5130
Rp5131
(dp5132
g27
(dp5133
g29
Vratify
p5134
sg31
VO
p5135
sg33
VVBN
p5136
sg35
I14
ssg10
I510
sg36
g4
sg37
(dp5137
sg39
(dp5138
sg41
I3003
sg42
g21
sg43
g21
sg44
I510
sg45
Vratified
p5139
sg47
I510
sg48
I3011
sbag0
(g23
g2
Ntp5140
Rp5141
(dp5142
g27
(dp5143
g29
Vthe
p5144
sg31
VO
p5145
sg33
VDT
p5146
sg35
I15
ssg10
I511
sg36
g4
sg37
(dp5147
sg39
(dp5148
sg41
I3012
sg42
g21
sg43
g21
sg44
I511
sg45
Vthe
p5149
sg47
I511
sg48
I3015
sbag0
(g23
g2
Ntp5150
Rp5151
(dp5152
g27
(dp5153
g29
VConvention
p5154
sg31
VMISC
p5155
sg33
VNNP
p5156
sg35
I16
ssg10
I512
sg36
g4
sg37
(dp5157
sg39
(dp5158
sg41
I3016
sg42
g21
sg43
g21
sg44
I512
sg45
VConvention
p5159
sg47
I512
sg48
I3026
sbag0
(g23
g2
Ntp5160
Rp5161
(dp5162
g27
(dp5163
g29
V-lsb-
p5164
sg31
VO
p5165
sg33
V-LRB-
p5166
sg35
I17
ssg10
I513
sg36
g4
sg37
(dp5167
sg39
(dp5168
sg41
I3027
sg42
g21
sg43
g21
sg44
I513
sg45
V[
p5169
sg47
I513
sg48
I3028
sbag0
(g23
g2
Ntp5170
Rp5171
(dp5172
g27
(dp5173
g29
VREF
p5174
sg31
VO
p5175
sg33
VNNP
p5176
sg35
I18
ssg10
I514
sg36
g4
sg37
(dp5177
sg39
(dp5178
sg41
I3028
sg42
g21
sg43
g21
sg44
I514
sg45
VREF
p5179
sg47
I514
sg48
I3031
sbag0
(g23
g2
Ntp5180
Rp5181
(dp5182
g27
(dp5183
g29
V-rsb-
p5184
sg31
VO
p5185
sg33
V-RRB-
p5186
sg35
I19
ssg10
I515
sg36
g4
sg37
(dp5187
sg39
(dp5188
sg41
I3031
sg42
g21
sg43
g21
sg44
I515
sg45
V]
p5189
sg47
I515
sg48
I3032
sbag0
(g23
g2
Ntp5190
Rp5191
(dp5192
g27
(dp5193
g29
V.
p5194
sg31
VO
p5195
sg33
V.
p5196
sg35
I20
ssg10
I516
sg36
g4
sg37
(dp5197
sg39
(dp5198
sg41
I3032
sg42
g21
sg43
g21
sg44
I516
sg45
V.
p5199
sg47
I516
sg48
I3033
sbag0
(g23
g2
Ntp5200
Rp5201
(dp5202
g27
(dp5203
g29
Vto
p5204
sg31
VO
p5205
sg33
VTO
p5206
sg35
I1
ssg10
I517
sg36
g4
sg37
(dp5207
sg39
(dp5208
sg41
I3035
sg42
g21
sg43
g21
sg44
I517
sg45
VTo
p5209
sg47
I517
sg48
I3037
sbag0
(g23
g2
Ntp5210
Rp5211
(dp5212
g27
(dp5213
g29
Vreaffirm
p5214
sg31
VO
p5215
sg33
VVB
p5216
sg35
I2
ssg10
I518
sg36
g4
sg37
(dp5217
sg39
(dp5218
sg41
I3038
sg42
g21
sg43
g21
sg44
I518
sg45
Vreaffirm
p5219
sg47
I518
sg48
I3046
sbag0
(g23
g2
Ntp5220
Rp5221
(dp5222
g27
(dp5223
g29
Vthe
p5224
sg31
VO
p5225
sg33
VDT
p5226
sg35
I3
ssg10
I519
sg36
g4
sg37
(dp5227
sg39
(dp5228
sg41
I3047
sg42
g21
sg43
g21
sg44
I519
sg45
Vthe
p5229
sg47
I519
sg48
I3050
sbag0
(g23
g2
Ntp5230
Rp5231
(dp5232
g27
(dp5233
g29
Vsovereign
p5234
sg31
VO
p5235
sg33
VJJ
p5236
sg35
I4
ssg10
I520
sg36
g4
sg37
(dp5237
sg39
(dp5238
sg41
I3051
sg42
g21
sg43
g21
sg44
I520
sg45
Vsovereign
p5239
sg47
I520
sg48
I3060
sbag0
(g23
g2
Ntp5240
Rp5241
(dp5242
g27
(dp5243
g29
Vright
p5244
sg31
VO
p5245
sg33
VNN
p5246
sg35
I5
ssg10
I521
sg36
g4
sg37
(dp5247
sg39
(dp5248
sg41
I3061
sg42
g21
sg43
g21
sg44
I521
sg45
Vright
p5249
sg47
I521
sg48
I3066
sbag0
(g23
g2
Ntp5250
Rp5251
(dp5252
g27
(dp5253
g29
Vof
p5254
sg31
VO
p5255
sg33
VIN
p5256
sg35
I6
ssg10
I522
sg36
g4
sg37
(dp5257
sg39
(dp5258
sg41
I3067
sg42
g21
sg43
g21
sg44
I522
sg45
Vof
p5259
sg47
I522
sg48
I3069
sbag0
(g23
g2
Ntp5260
Rp5261
(dp5262
g27
(dp5263
g29
VStates
p5264
sg31
VO
p5265
sg33
VNNPS
p5266
sg35
I7
ssg10
I523
sg36
g4
sg37
(dp5267
sg39
(dp5268
sg41
I3070
sg42
g21
sg43
g21
sg44
I523
sg45
VStates
p5269
sg47
I523
sg48
I3076
sbag0
(g23
g2
Ntp5270
Rp5271
(dp5272
g27
(dp5273
g29
Vto
p5274
sg31
VO
p5275
sg33
VTO
p5276
sg35
I8
ssg10
I524
sg36
g4
sg37
(dp5277
sg39
(dp5278
sg41
I3077
sg42
g21
sg43
g21
sg44
I524
sg45
Vto
p5279
sg47
I524
sg48
I3079
sbag0
(g23
g2
Ntp5280
Rp5281
(dp5282
g27
(dp5283
g29
Vadopt
p5284
sg31
VO
p5285
sg33
VVB
p5286
sg35
I9
ssg10
I525
sg36
g4
sg37
(dp5287
sg39
(dp5288
sg41
I3080
sg42
g21
sg43
g21
sg44
I525
sg45
Vadopt
p5289
sg47
I525
sg48
I3085
sbag0
(g23
g2
Ntp5290
Rp5291
(dp5292
g27
(dp5293
g29
Vcultural
p5294
sg31
VO
p5295
sg33
VJJ
p5296
sg35
I10
ssg10
I526
sg36
g4
sg37
(dp5297
sg39
(dp5298
sg41
I3086
sg42
g21
sg43
g21
sg44
I526
sg45
Vcultural
p5299
sg47
I526
sg48
I3094
sbag0
(g23
g2
Ntp5300
Rp5301
(dp5302
g27
(dp5303
g29
Vpolicy
p5304
sg31
VO
p5305
sg33
VNNS
p5306
sg35
I11
ssg10
I527
sg36
g4
sg37
(dp5307
sg39
(dp5308
sg41
I3095
sg42
g21
sg43
g21
sg44
I527
sg45
Vpolicies
p5309
sg47
I527
sg48
I3103
sbag0
(g23
g2
Ntp5310
Rp5311
(dp5312
g27
(dp5313
g29
Vwhile
p5314
sg31
VO
p5315
sg33
VIN
p5316
sg35
I12
ssg10
I528
sg36
g4
sg37
(dp5317
sg39
(dp5318
sg41
I3104
sg42
g21
sg43
g21
sg44
I528
sg45
Vwhile
p5319
sg47
I528
sg48
I3109
sbag0
(g23
g2
Ntp5320
Rp5321
(dp5322
g27
(dp5323
g29
Vensure
p5324
sg31
VO
p5325
sg33
VVBG
p5326
sg35
I13
ssg10
I529
sg36
g4
sg37
(dp5327
sg39
(dp5328
sg41
I3110
sg42
g21
sg43
g21
sg44
I529
sg45
Vensuring
p5329
sg47
I529
sg48
I3118
sbag0
(g23
g2
Ntp5330
Rp5331
(dp5332
g27
(dp5333
g29
Vthe
p5334
sg31
VO
p5335
sg33
VDT
p5336
sg35
I14
ssg10
I530
sg36
g4
sg37
(dp5337
sg39
(dp5338
sg41
I3119
sg42
g21
sg43
g21
sg44
I530
sg45
Vthe
p5339
sg47
I530
sg48
I3122
sbag0
(g23
g2
Ntp5340
Rp5341
(dp5342
g27
(dp5343
g29
Vfree
p5344
sg31
VO
p5345
sg33
VJJ
p5346
sg35
I15
ssg10
I531
sg36
g4
sg37
(dp5347
sg39
(dp5348
sg41
I3123
sg42
g21
sg43
g21
sg44
I531
sg45
Vfree
p5349
sg47
I531
sg48
I3127
sbag0
(g23
g2
Ntp5350
Rp5351
(dp5352
g27
(dp5353
g29
Vmovement
p5354
sg31
VO
p5355
sg33
VNN
p5356
sg35
I16
ssg10
I532
sg36
g4
sg37
(dp5357
sg39
(dp5358
sg41
I3128
sg42
g21
sg43
g21
sg44
I532
sg45
Vmovement
p5359
sg47
I532
sg48
I3136
sbag0
(g23
g2
Ntp5360
Rp5361
(dp5362
g27
(dp5363
g29
Vof
p5364
sg31
VO
p5365
sg33
VIN
p5366
sg35
I17
ssg10
I533
sg36
g4
sg37
(dp5367
sg39
(dp5368
sg41
I3137
sg42
g21
sg43
g21
sg44
I533
sg45
Vof
p5369
sg47
I533
sg48
I3139
sbag0
(g23
g2
Ntp5370
Rp5371
(dp5372
g27
(dp5373
g29
Videa
p5374
sg31
VO
p5375
sg33
VNNS
p5376
sg35
I18
ssg10
I534
sg36
g4
sg37
(dp5377
sg39
(dp5378
sg41
I3140
sg42
g21
sg43
g21
sg44
I534
sg45
Videas
p5379
sg47
I534
sg48
I3145
sbag0
(g23
g2
Ntp5380
Rp5381
(dp5382
g27
(dp5383
g29
Vand
p5384
sg31
VO
p5385
sg33
VCC
p5386
sg35
I19
ssg10
I535
sg36
g4
sg37
(dp5387
sg39
(dp5388
sg41
I3146
sg42
g21
sg43
g21
sg44
I535
sg45
Vand
p5389
sg47
I535
sg48
I3149
sbag0
(g23
g2
Ntp5390
Rp5391
(dp5392
g27
(dp5393
g29
Vwork
p5394
sg31
VO
p5395
sg33
VNNS
p5396
sg35
I20
ssg10
I536
sg36
g4
sg37
(dp5397
sg39
(dp5398
sg41
I3150
sg42
g21
sg43
g21
sg44
I536
sg45
Vworks
p5399
sg47
I536
sg48
I3155
sbag0
(g23
g2
Ntp5400
Rp5401
(dp5402
g27
(dp5403
g29
V.
p5404
sg31
VO
p5405
sg33
V.
p5406
sg35
I21
ssg10
I537
sg36
g4
sg37
(dp5407
sg39
(dp5408
sg41
I3155
sg42
g21
sg43
g21
sg44
I537
sg45
V.
p5409
sg47
I537
sg48
I3156
sbag0
(g23
g2
Ntp5410
Rp5411
(dp5412
g27
(dp5413
g29
Vto
p5414
sg31
VO
p5415
sg33
VTO
p5416
sg35
I1
ssg10
I538
sg36
g4
sg37
(dp5417
sg39
(dp5418
sg41
I3158
sg42
g21
sg43
g21
sg44
I538
sg45
VTo
p5419
sg47
I538
sg48
I3160
sbag0
(g23
g2
Ntp5420
Rp5421
(dp5422
g27
(dp5423
g29
Vrecognize
p5424
sg31
VO
p5425
sg33
VVB
p5426
sg35
I2
ssg10
I539
sg36
g4
sg37
(dp5427
sg39
(dp5428
sg41
I3161
sg42
g21
sg43
g21
sg44
I539
sg45
Vrecognize
p5429
sg47
I539
sg48
I3170
sbag0
(g23
g2
Ntp5430
Rp5431
(dp5432
g27
(dp5433
g29
Vthe
p5434
sg31
VO
p5435
sg33
VDT
p5436
sg35
I3
ssg10
I540
sg36
g4
sg37
(dp5437
sg39
(dp5438
sg41
I3171
sg42
g21
sg43
g21
sg44
I540
sg45
Vthe
p5439
sg47
I540
sg48
I3174
sbag0
(g23
g2
Ntp5440
Rp5441
(dp5442
g27
(dp5443
g29
Vdistinct
p5444
sg31
VO
p5445
sg33
VJJ
p5446
sg35
I4
ssg10
I541
sg36
g4
sg37
(dp5447
sg39
(dp5448
sg41
I3175
sg42
g21
sg43
g21
sg44
I541
sg45
Vdistinct
p5449
sg47
I541
sg48
I3183
sbag0
(g23
g2
Ntp5450
Rp5451
(dp5452
g27
(dp5453
g29
Vnature
p5454
sg31
VO
p5455
sg33
VNN
p5456
sg35
I5
ssg10
I542
sg36
g4
sg37
(dp5457
sg39
(dp5458
sg41
I3184
sg42
g21
sg43
g21
sg44
I542
sg45
Vnature
p5459
sg47
I542
sg48
I3190
sbag0
(g23
g2
Ntp5460
Rp5461
(dp5462
g27
(dp5463
g29
Vof
p5464
sg31
VO
p5465
sg33
VIN
p5466
sg35
I6
ssg10
I543
sg36
g4
sg37
(dp5467
sg39
(dp5468
sg41
I3191
sg42
g21
sg43
g21
sg44
I543
sg45
Vof
p5469
sg47
I543
sg48
I3193
sbag0
(g23
g2
Ntp5470
Rp5471
(dp5472
g27
(dp5473
g29
Vcultural
p5474
sg31
VO
p5475
sg33
VJJ
p5476
sg35
I7
ssg10
I544
sg36
g4
sg37
(dp5477
sg39
(dp5478
sg41
I3194
sg42
g21
sg43
g21
sg44
I544
sg45
Vcultural
p5479
sg47
I544
sg48
I3202
sbag0
(g23
g2
Ntp5480
Rp5481
(dp5482
g27
(dp5483
g29
Vgoods
p5484
sg31
VO
p5485
sg33
VNNS
p5486
sg35
I8
ssg10
I545
sg36
g4
sg37
(dp5487
sg39
(dp5488
sg41
I3203
sg42
g21
sg43
g21
sg44
I545
sg45
Vgoods
p5489
sg47
I545
sg48
I3208
sbag0
(g23
g2
Ntp5490
Rp5491
(dp5492
g27
(dp5493
g29
Vand
p5494
sg31
VO
p5495
sg33
VCC
p5496
sg35
I9
ssg10
I546
sg36
g4
sg37
(dp5497
sg39
(dp5498
sg41
I3209
sg42
g21
sg43
g21
sg44
I546
sg45
Vand
p5499
sg47
I546
sg48
I3212
sbag0
(g23
g2
Ntp5500
Rp5501
(dp5502
g27
(dp5503
g29
Vservice
p5504
sg31
VO
p5505
sg33
VNNS
p5506
sg35
I10
ssg10
I547
sg36
g4
sg37
(dp5507
sg39
(dp5508
sg41
I3213
sg42
g21
sg43
g21
sg44
I547
sg45
Vservices
p5509
sg47
I547
sg48
I3221
sbag0
(g23
g2
Ntp5510
Rp5511
(dp5512
g27
(dp5513
g29
Vas
p5514
sg31
VO
p5515
sg33
VIN
p5516
sg35
I11
ssg10
I548
sg36
g4
sg37
(dp5517
sg39
(dp5518
sg41
I3222
sg42
g21
sg43
g21
sg44
I548
sg45
Vas
p5519
sg47
I548
sg48
I3224
sbag0
(g23
g2
Ntp5520
Rp5521
(dp5522
g27
(dp5523
g29
Vvehicle
p5524
sg31
VO
p5525
sg33
VNNS
p5526
sg35
I12
ssg10
I549
sg36
g4
sg37
(dp5527
sg39
(dp5528
sg41
I3225
sg42
g21
sg43
g21
sg44
I549
sg45
Vvehicles
p5529
sg47
I549
sg48
I3233
sbag0
(g23
g2
Ntp5530
Rp5531
(dp5532
g27
(dp5533
g29
Vof
p5534
sg31
VO
p5535
sg33
VIN
p5536
sg35
I13
ssg10
I550
sg36
g4
sg37
(dp5537
sg39
(dp5538
sg41
I3234
sg42
g21
sg43
g21
sg44
I550
sg45
Vof
p5539
sg47
I550
sg48
I3236
sbag0
(g23
g2
Ntp5540
Rp5541
(dp5542
g27
(dp5543
g29
Vvalue
p5544
sg31
VO
p5545
sg33
VNNS
p5546
sg35
I14
ssg10
I551
sg36
g4
sg37
(dp5547
sg39
(dp5548
sg41
I3237
sg42
g21
sg43
g21
sg44
I551
sg45
Vvalues
p5549
sg47
I551
sg48
I3243
sbag0
(g23
g2
Ntp5550
Rp5551
(dp5552
g27
(dp5553
g29
V,
p5554
sg31
VO
p5555
sg33
V,
p5556
sg35
I15
ssg10
I552
sg36
g4
sg37
(dp5557
sg39
(dp5558
sg41
I3243
sg42
g21
sg43
g21
sg44
I552
sg45
V,
p5559
sg47
I552
sg48
I3244
sbag0
(g23
g2
Ntp5560
Rp5561
(dp5562
g27
(dp5563
g29
Videntity
p5564
sg31
VO
p5565
sg33
VNN
p5566
sg35
I16
ssg10
I553
sg36
g4
sg37
(dp5567
sg39
(dp5568
sg41
I3245
sg42
g21
sg43
g21
sg44
I553
sg45
Videntity
p5569
sg47
I553
sg48
I3253
sbag0
(g23
g2
Ntp5570
Rp5571
(dp5572
g27
(dp5573
g29
Vand
p5574
sg31
VO
p5575
sg33
VCC
p5576
sg35
I17
ssg10
I554
sg36
g4
sg37
(dp5577
sg39
(dp5578
sg41
I3254
sg42
g21
sg43
g21
sg44
I554
sg45
Vand
p5579
sg47
I554
sg48
I3257
sbag0
(g23
g2
Ntp5580
Rp5581
(dp5582
g27
(dp5583
g29
Vmeaning
p5584
sg31
VO
p5585
sg33
VNN
p5586
sg35
I18
ssg10
I555
sg36
g4
sg37
(dp5587
sg39
(dp5588
sg41
I3258
sg42
g21
sg43
g21
sg44
I555
sg45
Vmeaning
p5589
sg47
I555
sg48
I3265
sbag0
(g23
g2
Ntp5590
Rp5591
(dp5592
g27
(dp5593
g29
V.
p5594
sg31
VO
p5595
sg33
V.
p5596
sg35
I19
ssg10
I556
sg36
g4
sg37
(dp5597
sg39
(dp5598
sg41
I3265
sg42
g21
sg43
g21
sg44
I556
sg45
V.
p5599
sg47
I556
sg48
I3266
sbag0
(g23
g2
Ntp5600
Rp5601
(dp5602
g27
(dp5603
g29
Vto
p5604
sg31
VO
p5605
sg33
VTO
p5606
sg35
I1
ssg10
I557
sg36
g4
sg37
(dp5607
sg39
(dp5608
sg41
I3268
sg42
g21
sg43
g21
sg44
I557
sg45
VTo
p5609
sg47
I557
sg48
I3270
sbag0
(g23
g2
Ntp5610
Rp5611
(dp5612
g27
(dp5613
g29
Vdefine
p5614
sg31
VO
p5615
sg33
VVB
p5616
sg35
I2
ssg10
I558
sg36
g4
sg37
(dp5617
sg39
(dp5618
sg41
I3271
sg42
g21
sg43
g21
sg44
I558
sg45
Vdefine
p5619
sg47
I558
sg48
I3277
sbag0
(g23
g2
Ntp5620
Rp5621
(dp5622
g27
(dp5623
g29
Va
p5624
sg31
VO
p5625
sg33
VDT
p5626
sg35
I3
ssg10
I559
sg36
g4
sg37
(dp5627
sg39
(dp5628
sg41
I3278
sg42
g21
sg43
g21
sg44
I559
sg45
Va
p5629
sg47
I559
sg48
I3279
sbag0
(g23
g2
Ntp5630
Rp5631
(dp5632
g27
(dp5633
g29
Vnew
p5634
sg31
VO
p5635
sg33
VJJ
p5636
sg35
I4
ssg10
I560
sg36
g4
sg37
(dp5637
sg39
(dp5638
sg41
I3280
sg42
g21
sg43
g21
sg44
I560
sg45
Vnew
p5639
sg47
I560
sg48
I3283
sbag0
(g23
g2
Ntp5640
Rp5641
(dp5642
g27
(dp5643
g29
Vframework
p5644
sg31
VO
p5645
sg33
VNN
p5646
sg35
I5
ssg10
I561
sg36
g4
sg37
(dp5647
sg39
(dp5648
sg41
I3284
sg42
g21
sg43
g21
sg44
I561
sg45
Vframework
p5649
sg47
I561
sg48
I3293
sbag0
(g23
g2
Ntp5650
Rp5651
(dp5652
g27
(dp5653
g29
Vfor
p5654
sg31
VO
p5655
sg33
VIN
p5656
sg35
I6
ssg10
I562
sg36
g4
sg37
(dp5657
sg39
(dp5658
sg41
I3294
sg42
g21
sg43
g21
sg44
I562
sg45
Vfor
p5659
sg47
I562
sg48
I3297
sbag0
(g23
g2
Ntp5660
Rp5661
(dp5662
g27
(dp5663
g29
Vinternational
p5664
sg31
VO
p5665
sg33
VJJ
p5666
sg35
I7
ssg10
I563
sg36
g4
sg37
(dp5667
sg39
(dp5668
sg41
I3298
sg42
g21
sg43
g21
sg44
I563
sg45
Vinternational
p5669
sg47
I563
sg48
I3311
sbag0
(g23
g2
Ntp5670
Rp5671
(dp5672
g27
(dp5673
g29
Vcultural
p5674
sg31
VO
p5675
sg33
VJJ
p5676
sg35
I8
ssg10
I564
sg36
g4
sg37
(dp5677
sg39
(dp5678
sg41
I3312
sg42
g21
sg43
g21
sg44
I564
sg45
Vcultural
p5679
sg47
I564
sg48
I3320
sbag0
(g23
g2
Ntp5680
Rp5681
(dp5682
g27
(dp5683
g29
Vcooperation
p5684
sg31
VO
p5685
sg33
VNN
p5686
sg35
I9
ssg10
I565
sg36
g4
sg37
(dp5687
sg39
(dp5688
sg41
I3321
sg42
g21
sg43
g21
sg44
I565
sg45
Vcooperation
p5689
sg47
I565
sg48
I3332
sbag0
(g23
g2
Ntp5690
Rp5691
(dp5692
g27
(dp5693
g29
V,
p5694
sg31
VO
p5695
sg33
V,
p5696
sg35
I10
ssg10
I566
sg36
g4
sg37
(dp5697
sg39
(dp5698
sg41
I3332
sg42
g21
sg43
g21
sg44
I566
sg45
V,
p5699
sg47
I566
sg48
I3333
sbag0
(g23
g2
Ntp5700
Rp5701
(dp5702
g27
(dp5703
g29
Vthe
p5704
sg31
VO
p5705
sg33
VDT
p5706
sg35
I11
ssg10
I567
sg36
g4
sg37
(dp5707
sg39
(dp5708
sg41
I3334
sg42
g21
sg43
g21
sg44
I567
sg45
Vthe
p5709
sg47
I567
sg48
I3337
sbag0
(g23
g2
Ntp5710
Rp5711
(dp5712
g27
(dp5713
g29
Vkeystone
p5714
sg31
VO
p5715
sg33
VNN
p5716
sg35
I12
ssg10
I568
sg36
g4
sg37
(dp5717
sg39
(dp5718
sg41
I3338
sg42
g21
sg43
g21
sg44
I568
sg45
Vkeystone
p5719
sg47
I568
sg48
I3346
sbag0
(g23
g2
Ntp5720
Rp5721
(dp5722
g27
(dp5723
g29
Vof
p5724
sg31
VO
p5725
sg33
VIN
p5726
sg35
I13
ssg10
I569
sg36
g4
sg37
(dp5727
sg39
(dp5728
sg41
I3347
sg42
g21
sg43
g21
sg44
I569
sg45
Vof
p5729
sg47
I569
sg48
I3349
sbag0
(g23
g2
Ntp5730
Rp5731
(dp5732
g27
(dp5733
g29
Vthe
p5734
sg31
VO
p5735
sg33
VDT
p5736
sg35
I14
ssg10
I570
sg36
g4
sg37
(dp5737
sg39
(dp5738
sg41
I3350
sg42
g21
sg43
g21
sg44
I570
sg45
Vthe
p5739
sg47
I570
sg48
I3353
sbag0
(g23
g2
Ntp5740
Rp5741
(dp5742
g27
(dp5743
g29
VConvention
p5744
sg31
VMISC
p5745
sg33
VNNP
p5746
sg35
I15
ssg10
I571
sg36
g4
sg37
(dp5747
sg39
(dp5748
sg41
I3354
sg42
g21
sg43
g21
sg44
I571
sg45
VConvention
p5749
sg47
I571
sg48
I3364
sbag0
(g23
g2
Ntp5750
Rp5751
(dp5752
g27
(dp5753
g29
Vto
p5754
sg31
VO
p5755
sg33
VTO
p5756
sg35
I16
ssg10
I572
sg36
g4
sg37
(dp5757
sg39
(dp5758
sg41
I3366
sg42
g21
sg43
g21
sg44
I572
sg45
VTo
p5759
sg47
I572
sg48
I3368
sbag0
(g23
g2
Ntp5760
Rp5761
(dp5762
g27
(dp5763
g29
Vcreate
p5764
sg31
VO
p5765
sg33
VVB
p5766
sg35
I17
ssg10
I573
sg36
g4
sg37
(dp5767
sg39
(dp5768
sg41
I3369
sg42
g21
sg43
g21
sg44
I573
sg45
Vcreate
p5769
sg47
I573
sg48
I3375
sbag0
(g23
g2
Ntp5770
Rp5771
(dp5772
g27
(dp5773
g29
Vthe
p5774
sg31
VO
p5775
sg33
VDT
p5776
sg35
I18
ssg10
I574
sg36
g4
sg37
(dp5777
sg39
(dp5778
sg41
I3376
sg42
g21
sg43
g21
sg44
I574
sg45
Vthe
p5779
sg47
I574
sg48
I3379
sbag0
(g23
g2
Ntp5780
Rp5781
(dp5782
g27
(dp5783
g29
Vcondition
p5784
sg31
VO
p5785
sg33
VNNS
p5786
sg35
I19
ssg10
I575
sg36
g4
sg37
(dp5787
sg39
(dp5788
sg41
I3380
sg42
g21
sg43
g21
sg44
I575
sg45
Vconditions
p5789
sg47
I575
sg48
I3390
sbag0
(g23
g2
Ntp5790
Rp5791
(dp5792
g27
(dp5793
g29
Vfor
p5794
sg31
VO
p5795
sg33
VIN
p5796
sg35
I20
ssg10
I576
sg36
g4
sg37
(dp5797
sg39
(dp5798
sg41
I3391
sg42
g21
sg43
g21
sg44
I576
sg45
Vfor
p5799
sg47
I576
sg48
I3394
sbag0
(g23
g2
Ntp5800
Rp5801
(dp5802
g27
(dp5803
g29
Vculture
p5804
sg31
VO
p5805
sg33
VNNS
p5806
sg35
I21
ssg10
I577
sg36
g4
sg37
(dp5807
sg39
(dp5808
sg41
I3395
sg42
g21
sg43
g21
sg44
I577
sg45
Vcultures
p5809
sg47
I577
sg48
I3403
sbag0
(g23
g2
Ntp5810
Rp5811
(dp5812
g27
(dp5813
g29
Vto
p5814
sg31
VO
p5815
sg33
VTO
p5816
sg35
I22
ssg10
I578
sg36
g4
sg37
(dp5817
sg39
(dp5818
sg41
I3404
sg42
g21
sg43
g21
sg44
I578
sg45
Vto
p5819
sg47
I578
sg48
I3406
sbag0
(g23
g2
Ntp5820
Rp5821
(dp5822
g27
(dp5823
g29
Vflourish
p5824
sg31
VO
p5825
sg33
VVB
p5826
sg35
I23
ssg10
I579
sg36
g4
sg37
(dp5827
sg39
(dp5828
sg41
I3407
sg42
g21
sg43
g21
sg44
I579
sg45
Vflourish
p5829
sg47
I579
sg48
I3415
sbag0
(g23
g2
Ntp5830
Rp5831
(dp5832
g27
(dp5833
g29
Vand
p5834
sg31
VO
p5835
sg33
VCC
p5836
sg35
I24
ssg10
I580
sg36
g4
sg37
(dp5837
sg39
(dp5838
sg41
I3416
sg42
g21
sg43
g21
sg44
I580
sg45
Vand
p5839
sg47
I580
sg48
I3419
sbag0
(g23
g2
Ntp5840
Rp5841
(dp5842
g27
(dp5843
g29
Vfreely
p5844
sg31
VO
p5845
sg33
VRB
p5846
sg35
I25
ssg10
I581
sg36
g4
sg37
(dp5847
sg39
(dp5848
sg41
I3420
sg42
g21
sg43
g21
sg44
I581
sg45
Vfreely
p5849
sg47
I581
sg48
I3426
sbag0
(g23
g2
Ntp5850
Rp5851
(dp5852
g27
(dp5853
g29
Vinteract
p5854
sg31
VO
p5855
sg33
VVBP
p5856
sg35
I26
ssg10
I582
sg36
g4
sg37
(dp5857
sg39
(dp5858
sg41
I3427
sg42
g21
sg43
g21
sg44
I582
sg45
Vinteract
p5859
sg47
I582
sg48
I3435
sbag0
(g23
g2
Ntp5860
Rp5861
(dp5862
g27
(dp5863
g29
Vin
p5864
sg31
VO
p5865
sg33
VIN
p5866
sg35
I27
ssg10
I583
sg36
g4
sg37
(dp5867
sg39
(dp5868
sg41
I3427
sg42
g21
sg43
g21
sg44
I583
sg45
Vin
p5869
sg47
I583
sg48
I3429
sbag0
(g23
g2
Ntp5870
Rp5871
(dp5872
g27
(dp5873
g29
Va
p5874
sg31
VO
p5875
sg33
VDT
p5876
sg35
I28
ssg10
I584
sg36
g4
sg37
(dp5877
sg39
(dp5878
sg41
I3432
sg42
g21
sg43
g21
sg44
I584
sg45
Va
p5879
sg47
I584
sg48
I3433
sbag0
(g23
g2
Ntp5880
Rp5881
(dp5882
g27
(dp5883
g29
Vmutually
p5884
sg31
VO
p5885
sg33
VRB
p5886
sg35
I29
ssg10
I585
sg36
g4
sg37
(dp5887
sg39
(dp5888
sg41
I3441
sg42
g21
sg43
g21
sg44
I585
sg45
Vmutually
p5889
sg47
I585
sg48
I3449
sbag0
(g23
g2
Ntp5890
Rp5891
(dp5892
g27
(dp5893
g29
Vbeneficial
p5894
sg31
VO
p5895
sg33
VJJ
p5896
sg35
I30
ssg10
I586
sg36
g4
sg37
(dp5897
sg39
(dp5898
sg41
I3450
sg42
g21
sg43
g21
sg44
I586
sg45
Vbeneficial
p5899
sg47
I586
sg48
I3460
sbag0
(g23
g2
Ntp5900
Rp5901
(dp5902
g27
(dp5903
g29
Vmanner
p5904
sg31
VO
p5905
sg33
VNN
p5906
sg35
I31
ssg10
I587
sg36
g4
sg37
(dp5907
sg39
(dp5908
sg41
I3461
sg42
g21
sg43
g21
sg44
I587
sg45
Vmanner
p5909
sg47
I587
sg48
I3467
sbag0
(g23
g2
Ntp5910
Rp5911
(dp5912
g27
(dp5913
g29
Vto
p5914
sg31
VO
p5915
sg33
VTO
p5916
sg35
I32
ssg10
I588
sg36
g4
sg37
(dp5917
sg39
(dp5918
sg41
I3469
sg42
g21
sg43
g21
sg44
I588
sg45
VTo
p5919
sg47
I588
sg48
I3471
sbag0
(g23
g2
Ntp5920
Rp5921
(dp5922
g27
(dp5923
g29
Vendevour
p5924
sg31
VO
p5925
sg33
VVB
p5926
sg35
I33
ssg10
I589
sg36
g4
sg37
(dp5927
sg39
(dp5928
sg41
I3472
sg42
g21
sg43
g21
sg44
I589
sg45
Vendevour
p5929
sg47
I589
sg48
I3480
sbag0
(g23
g2
Ntp5930
Rp5931
(dp5932
g27
(dp5933
g29
Vto
p5934
sg31
VO
p5935
sg33
VTO
p5936
sg35
I34
ssg10
I590
sg36
g4
sg37
(dp5937
sg39
(dp5938
sg41
I3481
sg42
g21
sg43
g21
sg44
I590
sg45
Vto
p5939
sg47
I590
sg48
I3483
sbag0
(g23
g2
Ntp5940
Rp5941
(dp5942
g27
(dp5943
g29
Vspport
p5944
sg31
VO
p5945
sg33
VVB
p5946
sg35
I35
ssg10
I591
sg36
g4
sg37
(dp5947
sg39
(dp5948
sg41
I3484
sg42
g21
sg43
g21
sg44
I591
sg45
Vspport
p5949
sg47
I591
sg48
I3490
sbag0
(g23
g2
Ntp5950
Rp5951
(dp5952
g27
(dp5953
g29
Vcooperation
p5954
sg31
VO
p5955
sg33
VNN
p5956
sg35
I36
ssg10
I592
sg36
g4
sg37
(dp5957
sg39
(dp5958
sg41
I3491
sg42
g21
sg43
g21
sg44
I592
sg45
Vcooperation
p5959
sg47
I592
sg48
I3502
sbag0
(g23
g2
Ntp5960
Rp5961
(dp5962
g27
(dp5963
g29
Vfor
p5964
sg31
VO
p5965
sg33
VIN
p5966
sg35
I37
ssg10
I593
sg36
g4
sg37
(dp5967
sg39
(dp5968
sg41
I3503
sg42
g21
sg43
g21
sg44
I593
sg45
Vfor
p5969
sg47
I593
sg48
I3506
sbag0
(g23
g2
Ntp5970
Rp5971
(dp5972
g27
(dp5973
g29
Vsustainable
p5974
sg31
VO
p5975
sg33
VJJ
p5976
sg35
I38
ssg10
I594
sg36
g4
sg37
(dp5977
sg39
(dp5978
sg41
I3507
sg42
g21
sg43
g21
sg44
I594
sg45
Vsustainable
p5979
sg47
I594
sg48
I3518
sbag0
(g23
g2
Ntp5980
Rp5981
(dp5982
g27
(dp5983
g29
Vdevelopment
p5984
sg31
VO
p5985
sg33
VNN
p5986
sg35
I39
ssg10
I595
sg36
g4
sg37
(dp5987
sg39
(dp5988
sg41
I3519
sg42
g21
sg43
g21
sg44
I595
sg45
Vdevelopment
p5989
sg47
I595
sg48
I3530
sbag0
(g23
g2
Ntp5990
Rp5991
(dp5992
g27
(dp5993
g29
Vand
p5994
sg31
VO
p5995
sg33
VCC
p5996
sg35
I40
ssg10
I596
sg36
g4
sg37
(dp5997
sg39
(dp5998
sg41
I3531
sg42
g21
sg43
g21
sg44
I596
sg45
Vand
p5999
sg47
I596
sg48
I3534
sbag0
(g23
g2
Ntp6000
Rp6001
(dp6002
g27
(dp6003
g29
Vpoverty
p6004
sg31
VO
p6005
sg33
VNN
p6006
sg35
I41
ssg10
I597
sg36
g4
sg37
(dp6007
sg39
(dp6008
sg41
I3535
sg42
g21
sg43
g21
sg44
I597
sg45
Vpoverty
p6009
sg47
I597
sg48
I3542
sbag0
(g23
g2
Ntp6010
Rp6011
(dp6012
g27
(dp6013
g29
Vreduction
p6014
sg31
VO
p6015
sg33
VNN
p6016
sg35
I42
ssg10
I598
sg36
g4
sg37
(dp6017
sg39
(dp6018
sg41
I3543
sg42
g21
sg43
g21
sg44
I598
sg45
Vreduction
p6019
sg47
I598
sg48
I3552
sbag0
(g23
g2
Ntp6020
Rp6021
(dp6022
g27
(dp6023
g29
Vto
p6024
sg31
VO
p6025
sg33
VTO
p6026
sg35
I43
ssg10
I599
sg36
g4
sg37
(dp6027
sg39
(dp6028
sg41
I3553
sg42
g21
sg43
g21
sg44
I599
sg45
VTo
p6029
sg47
I599
sg48
I3555
sbag0
(g23
g2
Ntp6030
Rp6031
(dp6032
g27
(dp6033
g29
Vensure
p6034
sg31
VO
p6035
sg33
VVB
p6036
sg35
I44
ssg10
I600
sg36
g4
sg37
(dp6037
sg39
(dp6038
sg41
I3556
sg42
g21
sg43
g21
sg44
I600
sg45
Vensure
p6039
sg47
I600
sg48
I3562
sbag0
(g23
g2
Ntp6040
Rp6041
(dp6042
g27
(dp6043
g29
Vthat
p6044
sg31
VO
p6045
sg33
VIN
p6046
sg35
I45
ssg10
I601
sg36
g4
sg37
(dp6047
sg39
(dp6048
sg41
I3563
sg42
g21
sg43
g21
sg44
I601
sg45
Vthat
p6049
sg47
I601
sg48
I3567
sbag0
(g23
g2
Ntp6050
Rp6051
(dp6052
g27
(dp6053
g29
Vcivil
p6054
sg31
VO
p6055
sg33
VJJ
p6056
sg35
I46
ssg10
I602
sg36
g4
sg37
(dp6057
sg39
(dp6058
sg41
I3568
sg42
g21
sg43
g21
sg44
I602
sg45
Vcivil
p6059
sg47
I602
sg48
I3573
sbag0
(g23
g2
Ntp6060
Rp6061
(dp6062
g27
(dp6063
g29
Vsociety
p6064
sg31
VO
p6065
sg33
VNN
p6066
sg35
I47
ssg10
I603
sg36
g4
sg37
(dp6067
sg39
(dp6068
sg41
I3574
sg42
g21
sg43
g21
sg44
I603
sg45
Vsociety
p6069
sg47
I603
sg48
I3581
sbag0
(g23
g2
Ntp6070
Rp6071
(dp6072
g27
(dp6073
g29
Vplay
p6074
sg31
VO
p6075
sg33
VVBZ
p6076
sg35
I48
ssg10
I604
sg36
g4
sg37
(dp6077
sg39
(dp6078
sg41
I3582
sg42
g21
sg43
g21
sg44
I604
sg45
Vplays
p6079
sg47
I604
sg48
I3587
sbag0
(g23
g2
Ntp6080
Rp6081
(dp6082
g27
(dp6083
g29
Va
p6084
sg31
VO
p6085
sg33
VDT
p6086
sg35
I49
ssg10
I605
sg36
g4
sg37
(dp6087
sg39
(dp6088
sg41
I3584
sg42
g21
sg43
g21
sg44
I605
sg45
Va
p6089
sg47
I605
sg48
I3585
sbag0
(g23
g2
Ntp6090
Rp6091
(dp6092
g27
(dp6093
g29
Vmajor
p6094
sg31
VO
p6095
sg33
VJJ
p6096
sg35
I50
ssg10
I606
sg36
g4
sg37
(dp6097
sg39
(dp6098
sg41
I3590
sg42
g21
sg43
g21
sg44
I606
sg45
Vmajor
p6099
sg47
I606
sg48
I3595
sbag0
(g23
g2
Ntp6100
Rp6101
(dp6102
g27
(dp6103
g29
Vrole
p6104
sg31
VO
p6105
sg33
VNN
p6106
sg35
I51
ssg10
I607
sg36
g4
sg37
(dp6107
sg39
(dp6108
sg41
I3596
sg42
g21
sg43
g21
sg44
I607
sg45
Vrole
p6109
sg47
I607
sg48
I3600
sbag0
(g23
g2
Ntp6110
Rp6111
(dp6112
g27
(dp6113
g29
Vin
p6114
sg31
VO
p6115
sg33
VIN
p6116
sg35
I52
ssg10
I608
sg36
g4
sg37
(dp6117
sg39
(dp6118
sg41
I3601
sg42
g21
sg43
g21
sg44
I608
sg45
Vin
p6119
sg47
I608
sg48
I3603
sbag0
(g23
g2
Ntp6120
Rp6121
(dp6122
g27
(dp6123
g29
Vthe
p6124
sg31
VO
p6125
sg33
VDT
p6126
sg35
I53
ssg10
I609
sg36
g4
sg37
(dp6127
sg39
(dp6128
sg41
I3604
sg42
g21
sg43
g21
sg44
I609
sg45
Vthe
p6129
sg47
I609
sg48
I3607
sbag0
(g23
g2
Ntp6130
Rp6131
(dp6132
g27
(dp6133
g29
Vimplementation
p6134
sg31
VO
p6135
sg33
VNN
p6136
sg35
I54
ssg10
I610
sg36
g4
sg37
(dp6137
sg39
(dp6138
sg41
I3608
sg42
g21
sg43
g21
sg44
I610
sg45
Vimplementation
p6139
sg47
I610
sg48
I3622
sbag0
(g23
g2
Ntp6140
Rp6141
(dp6142
g27
(dp6143
g29
Vof
p6144
sg31
VO
p6145
sg33
VIN
p6146
sg35
I55
ssg10
I611
sg36
g4
sg37
(dp6147
sg39
(dp6148
sg41
I3623
sg42
g21
sg43
g21
sg44
I611
sg45
Vof
p6149
sg47
I611
sg48
I3625
sbag0
(g23
g2
Ntp6150
Rp6151
(dp6152
g27
(dp6153
g29
Vthe
p6154
sg31
VO
p6155
sg33
VDT
p6156
sg35
I56
ssg10
I612
sg36
g4
sg37
(dp6157
sg39
(dp6158
sg41
I3626
sg42
g21
sg43
g21
sg44
I612
sg45
Vthe
p6159
sg47
I612
sg48
I3629
sbag0
(g23
g2
Ntp6160
Rp6161
(dp6162
g27
(dp6163
g29
VConvention
p6164
sg31
VMISC
p6165
sg33
VNNP
p6166
sg35
I57
ssg10
I613
sg36
g4
sg37
(dp6167
sg39
(dp6168
sg41
I3630
sg42
g21
sg43
g21
sg44
I613
sg45
VConvention
p6169
sg47
I613
sg48
I3640
sbag0
(g23
g2
Ntp6170
Rp6171
(dp6172
g27
(dp6173
g29
V-lsb-
p6174
sg31
VO
p6175
sg33
V-LRB-
p6176
sg35
I58
ssg10
I614
sg36
g4
sg37
(dp6177
sg39
(dp6178
sg41
I3641
sg42
g21
sg43
g21
sg44
I614
sg45
V[
p6179
sg47
I614
sg48
I3642
sbag0
(g23
g2
Ntp6180
Rp6181
(dp6182
g27
(dp6183
g29
VREF
p6184
sg31
VO
p6185
sg33
VNNP
p6186
sg35
I59
ssg10
I615
sg36
g4
sg37
(dp6187
sg39
(dp6188
sg41
I3642
sg42
g21
sg43
g21
sg44
I615
sg45
VREF
p6189
sg47
I615
sg48
I3645
sbag0
(g23
g2
Ntp6190
Rp6191
(dp6192
g27
(dp6193
g29
V-rsb-
p6194
sg31
VO
p6195
sg33
V-RRB-
p6196
sg35
I60
ssg10
I616
sg36
g4
sg37
(dp6197
sg39
(dp6198
sg41
I3645
sg42
g21
sg43
g21
sg44
I616
sg45
V]
p6199
sg47
I616
sg48
I3646
sbag0
(g23
g2
Ntp6200
Rp6201
(dp6202
g27
(dp6203
g29
V.
p6204
sg31
VO
p6205
sg33
V.
p6206
sg35
I61
ssg10
I617
sg36
g4
sg37
(dp6207
sg39
(dp6208
sg41
I3646
sg42
g21
sg43
g21
sg44
I617
sg45
V.
p6209
sg47
I617
sg48
I3647
sbasS'Document'
p6210
(lp6211
g4
asS'doc-features'
p6212
g14
sS'Sentence'
p6213
(lp6214
g0
(g23
g2
Ntp6215
Rp6216
(dp6217
g27
(dp6218
S'dep-parse'
p6219
S'not implemented!'
p6220
sg35
I0
sS'constituency-parse'
p6221
V(ROOT\u000a  (S\u000a    (NP\u000a      (NP (DT The) (NNP UNESCO) (NNP Convention))\u000a      (PP (IN on)\u000a        (NP\u000a          (NP (DT the) (NN Protection))\u000a          (CC and)\u000a          (NP\u000a            (NP (NNP Promotion))\u000a            (PP (IN of)\u000a              (NP\u000a                (NP (DT the) (NN Diversity))\u000a                (PP (IN of)\u000a                  (NP (JJ Cultural) (NNS Expressions)))))))))\u000a    (VP (VBZ is)\u000a      (NP\u000a        (NP (DT a) (NNP UNESCO) (NN convention)\u000a          (CC and)\u000a          (NN treaty))\u000a        (VP (VBN adopted)\u000a          (PP (IN by)\u000a            (NP\u000a              (NP (DT the) (NNP UNESCO) (NNP General) (NNP Conference))\u000a              (PP (IN on)\u000a                (NP (CD 20)))))\u000a          (NP-TMP (NNP October) (CD 2005)))))\u000a    (. .)))
p6222
ssg10
I0
sg36
g4
sg37
(dp6223
sg39
(dp6224
S'tokens'
p6225
(lp6226
g25
ag50
ag60
ag70
ag80
ag90
ag100
ag110
ag120
ag130
ag140
ag150
ag160
ag170
ag180
ag190
ag200
ag210
ag220
ag230
ag240
ag250
ag260
ag270
ag280
ag290
ag300
ag310
ag320
ag330
ag340
assg41
I0
sg42
g6213
sg43
g6213
sg44
I0
sg45
VThe UNESCO Convention on the Protection and Promotion of the Diversity of Cultural Expressions is a UNESCO convention and treaty adopted by the UNESCO General Conference on 20 October 2005.
p6227
sg47
I31
sg48
I189
sbag0
(g23
g2
Ntp6228
Rp6229
(dp6230
g27
(dp6231
g6219
g6220
sg35
I1
sg6221
V(ROOT\u000a  (S (`` ``)\u000a    (NP (DT The) (NNP Convention))\u000a    (VP (VBZ recognises)\u000a      (S\u000a        (NP\u000a          (NP (DT the) (NNS rights))\u000a          (PP (IN of)\u000a            (NP (NNS Parties))))\u000a        (VP (TO to)\u000a          (VP (VB take)\u000a            (S\u000a              (NP (NNS measures))\u000a              (VP (TO to)\u000a                (VP\u000a                  (VP (VB protect)\u000a                    (CC and)\u000a                    (VB promote)\u000a                    (NP\u000a                      (NP (DT the) (NN diversity))\u000a                      (PP (IN of)\u000a                        (NP (JJ cultural) (NNS expressions)))))\u000a                  (, ,)\u000a                  (CC and)\u000a                  (VP (VB impose)\u000a                    (NP (NNS obligations))\u000a                    (PP (IN at)\u000a                      (NP (DT both) (JJ domestic)\u000a                        (CC and)\u000a                        (JJ international) (NNS levels)))\u000a                    (PP (IN on)\u000a                      (NP (NNS Parties)))))))))))\u000a    (. .) ('' '')))
p6232
ssg10
I1
sg36
g4
sg37
(dp6233
sg39
(dp6234
g6225
(lp6235
g350
ag360
ag370
ag380
ag390
ag400
ag410
ag420
ag430
ag440
ag450
ag460
ag470
ag480
ag490
ag500
ag510
ag520
ag530
ag540
ag550
ag560
ag570
ag580
ag590
ag600
ag610
ag620
ag630
ag640
ag650
ag660
ag670
ag680
assg41
I190
sg42
g6213
sg43
g6213
sg44
I31
sg45
V "The Convention recognises the rights of Parties to take measures to protect and promote the diversity of cultural expressions, and impose obligations at both domestic and international levels on Parties."
p6236
sg47
I65
sg48
I395
sbag0
(g23
g2
Ntp6237
Rp6238
(dp6239
g27
(dp6240
g6219
g6220
sg35
I2
sg6221
V(ROOT\u000a  (S\u000a    (NP (-LRB- -LSB-) (NN REF))\u000a    (VP (-RRB- -RSB-))\u000a    (. .)))
p6241
ssg10
I2
sg36
g4
sg37
(dp6242
sg39
(dp6243
g6225
(lp6244
g689
ag699
ag709
ag719
assg41
I395
sg42
g6213
sg43
g6213
sg44
I65
sg45
V[REF] .
p6245
sg47
I69
sg48
I402
sbag0
(g23
g2
Ntp6246
Rp6247
(dp6248
g27
(dp6249
g6219
g6220
sg35
I3
sg6221
V(ROOT\u000a  (S\u000a    (S\u000a      (NP (DT The) (NN convention))\u000a      (VP (VBZ is)\u000a        (NP\u000a          (NP (DT a) (JJ legally-binding) (JJ international) (NN agreement))\u000a          (SBAR\u000a            (WHNP (WDT that))\u000a            (S\u000a              (VP (VBZ ensures)\u000a                (NP (NNS artists))))))))\u000a    (, ,)\u000a    (NP (JJ cultural) (NNS professionals) (, ,) (NNS practitioners)\u000a      (CC and)\u000a      (NNS citizens))\u000a    (ADVP (RB worldwide))\u000a    (VP (MD can)\u000a      (VP (VB create) (, ,) (VB produce) (, ,) (VB disseminate)\u000a        (CC and)\u000a        (VB enjoy)\u000a        (NP\u000a          (NP (DT a) (JJ broad) (NN range))\u000a          (PP (IN of)\u000a            (NP\u000a              (NP (JJ cultural) (NNS goods) (, ,) (NNS services)\u000a                (CC and)\u000a                (NNS activities))\u000a              (, ,)\u000a              (PP (VBG including)\u000a                (NP (PRP$ their) (JJ own) (-LRB- -LSB-) (NN REF)))\u000a              (-RRB- -RSB-))))))\u000a    (. .)))
p6250
ssg10
I3
sg36
g4
sg37
(dp6251
sg39
(dp6252
g6225
(lp6253
g729
ag739
ag749
ag759
ag769
ag779
ag789
ag799
ag809
ag819
ag829
ag839
ag849
ag859
ag869
ag879
ag889
ag899
ag909
ag919
ag929
ag939
ag949
ag959
ag969
ag979
ag989
ag999
ag1009
ag1019
ag1029
ag1039
ag1049
ag1059
ag1069
ag1079
ag1089
ag1099
ag1109
ag1119
ag1129
ag1139
ag1149
ag1159
assg41
I404
sg42
g6213
sg43
g6213
sg44
I69
sg45
V\u000a\u000aThe convention is a legally-binding international agreement that ensures artists, cultural professionals, practitioners and citizens worldwide can create, produce, disseminate and enjoy a broad range of cultural goods, services and activities, including their own [REF].
p6254
sg47
I113
sg48
I674
sbag0
(g23
g2
Ntp6255
Rp6256
(dp6257
g27
(dp6258
g6219
g6220
sg35
I4
sg6221
V(ROOT\u000a  (S\u000a    (NP (PRP It))\u000a    (VP (VBD was)\u000a      (VP (VBN adopted)\u000a        (PP (IN in)\u000a          (NP (NN response)))\u000a        (PP (TO to) (`` ``)\u000a          (NP\u000a            (NP (VBG growing) (NN pressure))\u000a            (VP (VBN exerted)\u000a              (PP (IN on)\u000a                (NP (NNS countries)))\u000a              (S\u000a                (VP\u000a                  (VP (TO to)\u000a                    (VP (VB waive)\u000a                      (NP (PRP$ their) (NN right)\u000a                        (S\u000a                          (VP (TO to)\u000a                            (VP (VB enforce)\u000a                              (NP (JJ cultural) (NNS policies))))))))\u000a                  (CC and)\u000a                  (VP (TO to)\u000a                    (VP (VB put)\u000a                      (NP\u000a                        (NP (DT all) (NNS aspects))\u000a                        (PP (IN of)\u000a                          (NP (DT the) (JJ cultural) (NN sector))))\u000a                      (PP (IN on)\u000a                        (NP (DT the) (NN table)))\u000a                      (SBAR\u000a                        (WHADVP (WRB when))\u000a                        (S\u000a                          (VP (VBG negociating)\u000a                            (NP (JJ international) (NN trade) (NNS agreements))))))))))))))\u000a    (. .) ('' '')))
p6259
ssg10
I4
sg36
g4
sg37
(dp6260
sg39
(dp6261
g6225
(lp6262
g1169
ag1179
ag1189
ag1199
ag1209
ag1219
ag1229
ag1238
ag1248
ag1258
ag1268
ag1278
ag1288
ag1298
ag1308
ag1318
ag1328
ag1338
ag1348
ag1358
ag1368
ag1378
ag1388
ag1398
ag1408
ag1418
ag1428
ag1438
ag1448
ag1458
ag1468
ag1478
ag1488
ag1498
ag1508
ag1518
ag1528
ag1538
ag1548
assg41
I675
sg42
g6213
sg43
g6213
sg44
I113
sg45
V It was adopted in response to "growing pressure exerted on countries to waive their right to enforce cultural policies and to put all aspects of the cultural sector on the table when negociating international trade agreements."
p6263
sg47
I152
sg48
I902
sbag0
(g23
g2
Ntp6264
Rp6265
(dp6266
g27
(dp6267
g6219
g6220
sg35
I5
sg6221
V(X (-LRB- -LSB-) (NN REF) (-RRB- -RSB-) (`` ``) (DT The) (JJ international) (NN community) (VBD signalled) (DT the) (NN urgency) (TO to) (VB implement) (DT an) (JJ international) (NN law) (WDT that) (MD would) (VB recognize) (: :) (DT The) (JJ distinctive) (NN nature) (IN of) (JJ cultural) (NNS goods) (, ,) (NNS services)\u000a  (CC and)\u000a  (NNS activities) (IN as) (NNS vehicles) (IN of) (NN identity) (, ,) (NNS values)\u000a  (CC and)\u000a  (NN meaning) (: ;) (DT That) (IN while) (JJ cultural) (NNS goods) (, ,) (NNS services)\u000a  (CC and)\u000a  (NNS activities) (VBP have) (JJ important) (JJ economic) (NN value) (, ,) (PRP they) (VBP are) (RB not) (JJ mere) (NNS commodities)\u000a  (CC or)\u000a  (NN consumer) (NNS goods) (WDT that) (MD can) (RB only) (VB be) (VBN regarded) (IN as) (NNS objects) (IN of) (NN trade) (. .) ('' ''))
p6268
ssg10
I5
sg36
g4
sg37
(dp6269
sg39
(dp6270
g6225
(lp6271
g1557
ag1567
ag1577
ag1587
ag1596
ag1606
ag1616
ag1626
ag1636
ag1646
ag1656
ag1666
ag1676
ag1686
ag1696
ag1706
ag1716
ag1726
ag1736
ag1746
ag1756
ag1766
ag1776
ag1786
ag1796
ag1806
ag1816
ag1826
ag1836
ag1846
ag1856
ag1866
ag1876
ag1886
ag1896
ag1906
ag1916
ag1926
ag1936
ag1946
ag1956
ag1966
ag1976
ag1986
ag1996
ag2006
ag2016
ag2026
ag2036
ag2046
ag2056
ag2066
ag2076
ag2086
ag2096
ag2106
ag2116
ag2126
ag2136
ag2146
ag2156
ag2166
ag2176
ag2186
ag2196
ag2206
ag2216
ag2226
ag2236
ag2246
assg41
I902
sg42
g6213
sg43
g6213
sg44
I152
sg45
V[REF] "The international community signalled the urgency to implement an international law that would recognize:\u000a\u000aThe distinctive nature of cultural goods, services and activities as vehicles of identity, values and meaning;\u000aThat while cultural goods, services and activities have important economic value, they are not mere commodities or consumer goods that can only be regarded as objects of trade."
p6272
sg47
I222
sg48
I1304
sbag0
(g23
g2
Ntp6273
Rp6274
(dp6275
g27
(dp6276
g6219
g6220
sg35
I6
sg6221
V(ROOT\u000a  (S\u000a    (NP (-LRB- -LSB-) (NN REF))\u000a    (VP (-RRB- -RSB-))\u000a    (. .)))
p6277
ssg10
I6
sg36
g4
sg37
(dp6278
sg39
(dp6279
g6225
(lp6280
g2255
ag2265
ag2275
ag2285
assg41
I1304
sg42
g6213
sg43
g6213
sg44
I222
sg45
V[REF] .
p6281
sg47
I226
sg48
I1311
sbag0
(g23
g2
Ntp6282
Rp6283
(dp6284
g27
(dp6285
g6219
g6220
sg35
I7
sg6221
V(ROOT\u000a  (S\u000a    (NP\u000a      (NP (DT The) (NNP Convention) (POS 's))\u000a      (JJ main) (NN objective))\u000a    (VP (VBZ is)\u000a      (S\u000a        (VP (TO to)\u000a          (VP (VB provide)\u000a            (NP\u000a              (NP (DT a) (JJ legally-binding) (JJ international) (NN agreement))\u000a              (SBAR\u000a                (WHNP (WDT that))\u000a                (S\u000a                  (VP (VBZ reaffirms)\u000a                    (S\u000a                      (NP\u000a                        (NP (DT the) (JJ sovereign) (NN right))\u000a                        (PP (IN of)\u000a                          (NP (NNPS States))))\u000a                      (VP (TO to)\u000a                        (VP (VB adopt)\u000a                          (NP\u000a                            (NP (JJ cultural) (NNS policies))\u000a                            (SBAR\u000a                              (WHNP (WDT that))\u000a                              (S\u000a                                (VP (VBP support)\u000a                                  (NP (PRP$ their) (JJ cultural) (NNS industries))\u000a                                  (PP (-LRB- -LSB-)\u000a                                    (NP (NN REF) (-RRB- -RSB-))))))))))))))))))\u000a    (. .)))
p6286
ssg10
I7
sg36
g4
sg37
(dp6287
sg39
(dp6288
g6225
(lp6289
g2295
ag2305
ag2315
ag2325
ag2335
ag2345
ag2355
ag2365
ag2375
ag2385
ag2395
ag2405
ag2415
ag2425
ag2435
ag2445
ag2455
ag2465
ag2475
ag2485
ag2495
ag2505
ag2515
ag2525
ag2535
ag2545
ag2555
ag2565
ag2575
ag2585
ag2595
ag2605
assg41
I1314
sg42
g6213
sg43
g6213
sg44
I226
sg45
V \u000a\u000aThe Convention\u2019s main objective is to provide a legally-binding international agreement that reaffirms the sovereign right of States to adopt cultural policies that support their cultural industries [REF].
p6290
sg47
I258
sg48
I1519
sbag0
(g23
g2
Ntp6291
Rp6292
(dp6293
g27
(dp6294
g6219
g6220
sg35
I8
sg6221
V(ROOT\u000a  (S\u000a    (S\u000a      (VP (VBG Recognizing)\u000a        (SBAR (IN that)\u000a          (S\u000a            (NP\u000a              (NP (DT the) (NN diversity))\u000a              (PP (IN of)\u000a                (NP (JJ cultural) (NNS expressions))))\u000a            (VP (VBZ is)\u000a              (NP\u000a                (NP (DT a) (`` ``) (JJ rich) (NN asset))\u000a                (PP (IN for)\u000a                  (NP (NNS individuals)\u000a                    (CC and)\u000a                    (NNS societies)))))))))\u000a    (, ,)\u000a    (NP\u000a      (NP (DT the) (NN protection) (, ,) (NN promotion)\u000a        (CC and)\u000a        (NN maintenance))\u000a      (PP (IN of)\u000a        (NP (JJ cultural) (NN diversity))))\u000a    (VP (VBP are)\u000a      (NP\u000a        (NP (DT an) (JJ essential) (NN requirement))\u000a        (PP (IN for)\u000a          (NP\u000a            (NP\u000a              (ADJP (JJ sustainable))\u000a              (NN development))\u000a            (PP (IN for)\u000a              (NP\u000a                (NP (DT the) (NN benefit))\u000a                (PP (IN of)\u000a                  (NP (JJ present)\u000a                    (CC and)\u000a                    (JJ future) (NNS generations)))))))))\u000a    (. .) ('' '')))
p6295
ssg10
I8
sg36
g4
sg37
(dp6296
sg39
(dp6297
g6225
(lp6298
g2615
ag2625
ag2635
ag2645
ag2655
ag2665
ag2675
ag2685
ag2695
ag2705
ag2714
ag2724
ag2734
ag2744
ag2754
ag2764
ag2774
ag2784
ag2794
ag2804
ag2814
ag2824
ag2834
ag2844
ag2854
ag2864
ag2874
ag2884
ag2894
ag2904
ag2914
ag2924
ag2934
ag2944
ag2954
ag2964
ag2974
ag2984
ag2994
ag3004
ag3014
ag3024
ag3034
assg41
I1520
sg42
g6213
sg43
g6213
sg44
I258
sg45
V Recognizing that the diversity of cultural expressions is a "rich asset for individuals and societies, the protection, promotion and maintenance of cultural diversity are an essential requirement for sustainable development for the benefit of present and future generations."
p6299
sg47
I301
sg48
I1795
sbag0
(g23
g2
Ntp6300
Rp6301
(dp6302
g27
(dp6303
g6219
g6220
sg35
I9
sg6221
V(ROOT\u000a  (S\u000a    (NP (-LRB- -LSB-) (NN REF))\u000a    (VP (-RRB- -RSB-))\u000a    (. .)))
p6304
ssg10
I9
sg36
g4
sg37
(dp6305
sg39
(dp6306
g6225
(lp6307
g3043
ag3053
ag3063
ag3073
assg41
I1796
sg42
g6213
sg43
g6213
sg44
I301
sg45
V [REF].
p6308
sg47
I305
sg48
I1802
sbag0
(g23
g2
Ntp6309
Rp6310
(dp6311
g27
(dp6312
g6219
g6220
sg35
I10
sg6221
V(ROOT\u000a  (S\u000a    (NP (DT The) (NNP Convention))\u000a    (ADVP (RB also))\u000a    (VP (VBZ defines)\u000a      (PP (IN on)\u000a        (NP (JJ cultural) (NN industry)\u000a          (CC and)\u000a          (NN interculturality) (-LRB- -LSB-) (NN REF) (-RRB- -RSB-))))\u000a    (. .)))
p6313
ssg10
I10
sg36
g4
sg37
(dp6314
sg39
(dp6315
g6225
(lp6316
g3083
ag3093
ag3103
ag3113
ag3123
ag3133
ag3143
ag3153
ag3163
ag3173
ag3183
ag3193
ag3203
assg41
I1803
sg42
g6213
sg43
g6213
sg44
I305
sg45
V The Convention also defines on cultural industry and interculturality[REF] .
p6317
sg47
I318
sg48
I1879
sbag0
(g23
g2
Ntp6318
Rp6319
(dp6320
g27
(dp6321
g6219
g6220
sg35
I11
sg6221
V(ROOT\u000a  (S\u000a    (PP (IN Since)\u000a      (NP (DT the) (JJ late) (NNS 1980s)))\u000a    (, ,)\u000a    (NP\u000a      (NP (DT a) (VBG growing) (NN number))\u000a      (PP (IN of)\u000a        (NP (NNS countries))))\u000a    (VP (VBD were)\u000a      (VP (VBG showing)\u000a        (NP (NN concern))\u000a        (SBAR (IN that) (`` ``)\u000a          (S\u000a            (NP\u000a              (NP (DT the) (NN proliferation))\u000a              (PP (IN of)\u000a                (NP\u000a                  (NP (NN trade) (NNS agreements))\u000a                  (VP (VBG promoting)\u000a                    (NP (JJ absolute) (NN market) (NN liberalization))\u000a                    (ADVP (RB dramatically))))))\u000a            (VP (VBD increased)\u000a              (NP (DT the) (NN threat))\u000a              (PP (TO to)\u000a                (NP (JJ cultural) (NNS industries))))))))\u000a    (. .)))
p6322
ssg10
I11
sg36
g4
sg37
(dp6323
sg39
(dp6324
g6225
(lp6325
g3213
ag3223
ag3233
ag3243
ag3253
ag3263
ag3273
ag3283
ag3293
ag3303
ag3313
ag3323
ag3333
ag3343
ag3353
ag3362
ag3372
ag3382
ag3392
ag3402
ag3412
ag3422
ag3432
ag3442
ag3452
ag3462
ag3472
ag3482
ag3492
ag3502
ag3512
ag3522
assg41
I1881
sg42
g6213
sg43
g6213
sg44
I318
sg45
V\u000a\u000aSince the late 1980s, a growing number of countries were showing concern that "the proliferation of trade agreements promoting absolute market liberalization dramatically increased the threat to cultural industries.
p6326
sg47
I350
sg48
I2096
sbag0
(g23
g2
Ntp6327
Rp6328
(dp6329
g27
(dp6330
g6219
g6220
sg35
I12
sg6221
V(ROOT\u000a  (S\u000a    (NP\u000a      (NP (NNP Countries))\u000a      (VP (VBG wishing)\u000a        (S\u000a          (VP (TO to)\u000a            (VP (VB retain)\u000a              (NP (PRP$ their) (NN right)\u000a                (S\u000a                  (VP (TO to)\u000a                    (VP (VB enforce)\u000a                      (NP (JJ cultural) (NNS policies)))))))))))\u000a    (VP (VBD risked)\u000a      (UCP\u000a        (VP (VBG being)\u000a          (VP (VBN marginalized)))\u000a        (CC and)\u000a        (ADJP (JJ unable)\u000a          (S\u000a            (VP (TO to)\u000a              (VP (VB maintain)\u000a                (NP (PRP$ their) (NN position))))))))\u000a    (. .) ('' '')))
p6331
ssg10
I12
sg36
g4
sg37
(dp6332
sg39
(dp6333
g6225
(lp6334
g3532
ag3542
ag3552
ag3562
ag3572
ag3582
ag3592
ag3602
ag3612
ag3622
ag3632
ag3642
ag3652
ag3662
ag3672
ag3682
ag3692
ag3702
ag3712
ag3722
ag3732
assg41
I2097
sg42
g6213
sg43
g6213
sg44
I350
sg45
V Countries wishing to retain their right to enforce cultural policies risked being marginalized and unable to maintain their position."
p6335
sg47
I371
sg48
I2231
sbag0
(g23
g2
Ntp6336
Rp6337
(dp6338
g27
(dp6339
g6219
g6220
sg35
I13
sg6221
V(ROOT\u000a  (S\u000a    (NP (-LRB- -LSB-) (NN REF))\u000a    (VP (-RRB- -RSB-))\u000a    (. .)))
p6340
ssg10
I13
sg36
g4
sg37
(dp6341
sg39
(dp6342
g6225
(lp6343
g3741
ag3751
ag3761
ag3771
assg41
I2231
sg42
g6213
sg43
g6213
sg44
I371
sg45
V[REF] .
p6344
sg47
I375
sg48
I2238
sbag0
(g23
g2
Ntp6345
Rp6346
(dp6347
g27
(dp6348
g6219
g6220
sg35
I14
sg6221
V(ROOT\u000a  (S\u000a    (PP (IN In)\u000a      (NP (CD 2001)))\u000a    (, ,)\u000a    (S\u000a      (NP\u000a        (NP (DT the) (NNP UNESCO) (NNP Universal) (NNP Declaration))\u000a        (PP (IN on)\u000a          (NP (NNP Cultural) (NNP Diversity))))\u000a      (VP (VBD was)\u000a        (VP (VBN adopted)\u000a          (PP (-LRB- -LSB-)\u000a            (NP (NN REF))))))\u000a    (-RRB- -RSB-)\u000a    (CC and)\u000a    (S\u000a      (NP (NNP May) (CD 21))\u000a      (VP (VBD was)\u000a        (VP (VBN declared)\u000a          (NP\u000a            (NP (DT the) (NNP World) (NNP Day))\u000a            (PP (IN for)\u000a              (NP\u000a                (NP (NNP Cultural) (NNP Diversity))\u000a                (PP (IN for)\u000a                  (NP (NNP Dialogue)\u000a                    (CC and)\u000a                    (NNP Development)))))))))\u000a    (. .)))
p6349
ssg10
I14
sg36
g4
sg37
(dp6350
sg39
(dp6351
g6225
(lp6352
g3781
ag3791
ag3801
ag3811
ag3821
ag3831
ag3841
ag3851
ag3861
ag3871
ag3881
ag3891
ag3901
ag3911
ag3921
ag3931
ag3941
ag3951
ag3961
ag3971
ag3981
ag3991
ag4001
ag4011
ag4021
ag4031
ag4041
ag4051
ag4061
ag4071
ag4081
assg41
I2241
sg42
g6213
sg43
g6213
sg44
I375
sg45
V \u000a\u000aIn 2001, the UNESCO Universal Declaration on Cultural Diversity was adopted[REF] and May 21 was declared the World Day for Cultural Diversity for Dialogue and Development.
p6353
sg47
I406
sg48
I2412
sbag0
(g23
g2
Ntp6354
Rp6355
(dp6356
g27
(dp6357
g6219
g6220
sg35
I15
sg6221
V(ROOT\u000a  (S\u000a    (NP\u000a      (NP (CD 2003))\u000a      (PP (TO to)\u000a        (NP (CD 2005))))\u000a    (VP (VBD marked)\u000a      (SBAR\u000a        (S\u000a          (NP\u000a            (NP (DT the) (NNS years))\u000a            (SBAR\u000a              (WHADVP (WRB where))\u000a              (S\u000a                (NP\u000a                  (NP (NNS negotiations))\u000a                  (PP (IN at)\u000a                    (NP (NNP UNESCO))))\u000a                (VP (VBD started)))))\u000a          (VP (VBD took)\u000a            (NP (NN place))\u000a            (S\u000a              (VP (TO to)\u000a                (VP (VB create)\u000a                  (NP\u000a                    (NP (DT an) (JJ international) (NN agreement))\u000a                    (SBAR\u000a                      (WHNP (WDT that))\u000a                      (S\u000a                        (VP (VBZ aims)\u000a                          (S\u000a                            (VP (TO to)\u000a                              (VP (VB protect)\u000a                                (CC and)\u000a                                (VB promote)\u000a                                (NP\u000a                                  (NP (DT the) (NN diversity))\u000a                                  (PP (IN of)\u000a                                    (NP (JJ cultural) (NNS expressions))))))))))))))))))\u000a    (. .)))
p6358
ssg10
I15
sg36
g4
sg37
(dp6359
sg39
(dp6360
g6225
(lp6361
g4091
ag4101
ag4111
ag4121
ag4131
ag4141
ag4151
ag4161
ag4171
ag4181
ag4191
ag4201
ag4211
ag4221
ag4231
ag4241
ag4251
ag4261
ag4271
ag4281
ag4291
ag4301
ag4311
ag4321
ag4331
ag4341
ag4351
ag4361
ag4371
ag4381
assg41
I2415
sg42
g6213
sg43
g6213
sg44
I406
sg45
V \u000a\u000a2003 to 2005 marked the years where negotiations at UNESCO started took place to create an international agreement that aims to protect and promote the diversity of cultural expressions.
p6362
sg47
I436
sg48
I2601
sbag0
(g23
g2
Ntp6363
Rp6364
(dp6365
g27
(dp6366
g6219
g6220
sg35
I16
sg6221
V(ROOT\u000a  (S\u000a    (NP\u000a      (NP\u000a        (NP (NNP October) (CD 20) (, ,) (CD 2005))\u000a        (: :)\u000a        (NP\u000a          (NP (NNP UNESCO) (NNP Convention))\u000a          (PP (IN on)\u000a            (NP (DT the) (NN Protection)))))\u000a      (CC and)\u000a      (NP\u000a        (NP (NNP Promotion))\u000a        (PP (IN of)\u000a          (NP\u000a            (NP (DT the) (NN Diversity))\u000a            (PP (IN of)\u000a              (NP (JJ Cultural) (NNS Expressions)))))))\u000a    (VP (VBD was)\u000a      (VP (VBN adopted)))\u000a    (. .)))
p6367
ssg10
I16
sg36
g4
sg37
(dp6368
sg39
(dp6369
g6225
(lp6370
g4391
ag4401
ag4411
ag4421
ag4431
ag4441
ag4451
ag4461
ag4471
ag4481
ag4491
ag4501
ag4511
ag4521
ag4531
ag4541
ag4551
ag4561
ag4571
ag4581
ag4591
assg41
I2604
sg42
g6213
sg43
g6213
sg44
I436
sg45
V \u000a\u000aOctober 20, 2005: UNESCO Convention on the Protection and Promotion of the Diversity of Cultural Expressions was adopted.
p6371
sg47
I457
sg48
I2725
sbag0
(g23
g2
Ntp6372
Rp6373
(dp6374
g27
(dp6375
g6219
g6220
sg35
I17
sg6221
V(ROOT\u000a  (NP\u000a    (NP (NNP March) (CD 18) (, ,) (CD 2007))\u000a    (: :)\u000a    (S\u000a      (NP (DT The) (NNP Convention))\u000a      (VP (VBZ enters)\u000a        (PP (IN into)\u000a          (NP\u000a            (NP (NN force))\u000a            (CC and)\u000a            (ADVP\u000a              (NP (CD three) (NNS months))\u000a              (RB later))))\u000a        (, ,)\u000a        (NP\u000a          (NP (DT the) (CD 56) (NNP Member) (NNPS States))\u000a          (SBAR\u000a            (WHNP (WDT that))\u000a            (S\u000a              (VP (VBD ratified)\u000a                (S\u000a                  (NP (PRP it))\u000a                  (VP (VB meet)\u000a                    (PP (IN in)\u000a                      (NP\u000a                        (NP (NNP Paris))\u000a                        (PP (IN for)\u000a                          (NP\u000a                            (NP (DT the) (JJ first) (NN Conference))\u000a                            (PP (IN of)\u000a                              (NP (DT the) (NNS Parties)))))))\u000a                    (S\u000a                      (VP (TO to)\u000a                        (VP (VB begin)\u000a                          (NP (NN work))\u000a                          (PP (IN on)\u000a                            (S\u000a                              (VP (VBG implementing)\u000a                                (NP (DT the) (NNP Convention))))))))))))))))\u000a    (. .)))
p6376
ssg10
I17
sg36
g4
sg37
(dp6377
sg39
(dp6378
g6225
(lp6379
g4601
ag4611
ag4621
ag4631
ag4641
ag4651
ag4661
ag4671
ag4681
ag4691
ag4701
ag4711
ag4721
ag4731
ag4741
ag4751
ag4761
ag4771
ag4781
ag4791
ag4801
ag4811
ag4821
ag4831
ag4841
ag4851
ag4861
ag4871
ag4881
ag4891
ag4901
ag4911
ag4921
ag4931
ag4941
ag4951
ag4961
ag4971
ag4981
ag4991
assg41
I2728
sg42
g6213
sg43
g6213
sg44
I457
sg45
V \u000a\u000aMarch 18, 2007: The Convention enters into force and three months later, the 56 Member States that ratified it meet in Paris for the first Conference of the Parties to begin work on implementing the Convention.
p6380
sg47
I497
sg48
I2938
sbag0
(g23
g2
Ntp6381
Rp6382
(dp6383
g27
(dp6384
g6219
g6220
sg35
I18
sg6221
V(ROOT\u000a  (S\u000a    (PP (TO To)\u000a      (NP (NN date)))\u000a    (, ,)\u000a    (NP\u000a      (NP\u000a        (NP (CD 117))\u000a        (NP (NNP Member) (NNPS States)))\u000a      (CONJP (RB as) (RB well) (IN as))\u000a      (NP (DT the) (NNP European) (NNP Union)))\u000a    (VP (VBP have)\u000a      (VP (VBN ratified)\u000a        (NP (DT the) (NNP Convention) (-LRB- -LSB-) (NNP REF) (-RRB- -RSB-))))\u000a    (. .)))
p6385
ssg10
I18
sg36
g4
sg37
(dp6386
sg39
(dp6387
g6225
(lp6388
g5001
ag5011
ag5021
ag5031
ag5041
ag5051
ag5061
ag5071
ag5081
ag5091
ag5101
ag5111
ag5121
ag5131
ag5141
ag5151
ag5161
ag5171
ag5181
ag5191
assg41
I2941
sg42
g6213
sg43
g6213
sg44
I497
sg45
V \u000a\u000aTo date, 117 Member States as well as the European Union have ratified the Convention [REF].
p6389
sg47
I517
sg48
I3033
sbag0
(g23
g2
Ntp6390
Rp6391
(dp6392
g27
(dp6393
g6219
g6220
sg35
I19
sg6221
V(ROOT\u000a  (S\u000a    (VP (TO To)\u000a      (VP (VB reaffirm)\u000a        (NP\u000a          (NP (DT the) (JJ sovereign) (NN right))\u000a          (PP (IN of)\u000a            (NP (NNPS States))))\u000a        (S\u000a          (VP (TO to)\u000a            (VP (VB adopt)\u000a              (NP (JJ cultural) (NNS policies))\u000a              (PP (IN while)\u000a                (S\u000a                  (VP (VBG ensuring)\u000a                    (NP\u000a                      (NP (DT the) (JJ free) (NN movement))\u000a                      (PP (IN of)\u000a                        (NP (NNS ideas)\u000a                          (CC and)\u000a                          (NNS works))))))))))))\u000a    (. .)))
p6394
ssg10
I19
sg36
g4
sg37
(dp6395
sg39
(dp6396
g6225
(lp6397
g5201
ag5211
ag5221
ag5231
ag5241
ag5251
ag5261
ag5271
ag5281
ag5291
ag5301
ag5311
ag5321
ag5331
ag5341
ag5351
ag5361
ag5371
ag5381
ag5391
ag5401
assg41
I3035
sg42
g6213
sg43
g6213
sg44
I517
sg45
V\u000a\u000aTo reaffirm the sovereign right of States to adopt cultural policies while ensuring the free movement of ideas and works.
p6398
sg47
I538
sg48
I3156
sbag0
(g23
g2
Ntp6399
Rp6400
(dp6401
g27
(dp6402
g6219
g6220
sg35
I20
sg6221
V(ROOT\u000a  (S\u000a    (VP (TO To)\u000a      (VP (VB recognize)\u000a        (NP\u000a          (NP (DT the) (JJ distinct) (NN nature))\u000a          (PP (IN of)\u000a            (NP (JJ cultural) (NNS goods)\u000a              (CC and)\u000a              (NNS services))))\u000a        (PP (IN as)\u000a          (NP\u000a            (NP (NNS vehicles))\u000a            (PP (IN of)\u000a              (NP (NNS values) (, ,) (NN identity)\u000a                (CC and)\u000a                (NN meaning)))))))\u000a    (. .)))
p6403
ssg10
I20
sg36
g4
sg37
(dp6404
sg39
(dp6405
g6225
(lp6406
g5411
ag5421
ag5431
ag5441
ag5451
ag5461
ag5471
ag5481
ag5491
ag5501
ag5511
ag5521
ag5531
ag5541
ag5551
ag5561
ag5571
ag5581
ag5591
assg41
I3158
sg42
g6213
sg43
g6213
sg44
I538
sg45
V \u000aTo recognize the distinct nature of cultural goods and services as vehicles of values, identity and meaning.
p6407
sg47
I557
sg48
I3266
sbag0
(g23
g2
Ntp6408
Rp6409
(dp6410
g27
(dp6411
g6219
g6220
sg35
I21
sg6221
V(X (TO To) (VB define) (DT a) (JJ new) (NN framework) (IN for) (JJ international) (JJ cultural) (NN cooperation) (, ,) (DT the) (NN keystone) (IN of) (DT the) (NNP Convention) (TO To) (VB create) (DT the) (NNS conditions) (IN for) (NNS cultures) (TO to) (VB flourish)\u000a  (CC and)\u000a  (RB freely) (VBP interact) (IN in) (DT a) (RB mutually) (JJ beneficial) (NN manner) (TO To) (VB endevour) (TO to) (VB spport) (NN cooperation) (IN for) (JJ sustainable) (NN development)\u000a  (CC and)\u000a  (NN poverty) (NN reduction) (TO To) (VB ensure) (IN that) (JJ civil) (NN society) (VBZ plays) (DT a) (JJ major) (NN role) (IN in) (DT the) (NN implementation) (IN of) (DT the) (NNP Convention) (-LRB- -LSB-) (NNP REF) (-RRB- -RSB-) (. .))
p6412
ssg10
I21
sg36
g4
sg37
(dp6413
sg39
(dp6414
g6225
(lp6415
g5601
ag5611
ag5621
ag5631
ag5641
ag5651
ag5661
ag5671
ag5681
ag5691
ag5701
ag5711
ag5721
ag5731
ag5741
ag5751
ag5761
ag5771
ag5781
ag5791
ag5801
ag5811
ag5821
ag5831
ag5841
ag5851
ag5861
ag5871
ag5881
ag5891
ag5901
ag5911
ag5921
ag5931
ag5941
ag5951
ag5961
ag5971
ag5981
ag5991
ag6001
ag6011
ag6021
ag6031
ag6041
ag6051
ag6061
ag6071
ag6081
ag6091
ag6101
ag6111
ag6121
ag6131
ag6141
ag6151
ag6161
ag6171
ag6181
ag6191
ag6201
assg41
I3268
sg42
g6213
sg43
g6213
sg44
I557
sg45
V \u000aTo define a new framework for international cultural cooperation, the keystone of the Convention \u000aTo create the conditions for cultures to flourish and freely interact in a mutually beneficial manner \u000aTo endevour to spport cooperation for sustainable development and poverty reduction\u000aTo ensure that civil society plays a major role in the implementation of the Convention [REF].
p6416
sg47
I618
sg48
I3647
sbassg37
(dp6417
sg39
(dp6418
sg47
I-1
sg6225
g22
sg42
g6210
sg36
Nsg27
(dp6419
sg44
I0
sg45
VThe UNESCO Convention on the Protection and Promotion of the Diversity of Cultural Expressions is a UNESCO convention and treaty adopted by the UNESCO General Conference on 20 October 2005. "The Convention recognises the rights of Parties to take measures to protect and promote the diversity of cultural expressions, and impose obligations at both domestic and international levels on Parties."[REF] .\u000a\u000aThe convention is a legally-binding international agreement that ensures artists, cultural professionals, practitioners and citizens worldwide can create, produce, disseminate and enjoy a broad range of cultural goods, services and activities, including their own [REF]. It was adopted in response to "growing pressure exerted on countries to waive their right to enforce cultural policies and to put all aspects of the cultural sector on the table when negociating international trade agreements."[REF] "The international community signalled the urgency to implement an international law that would recognize:\u000a\u000aThe distinctive nature of cultural goods, services and activities as vehicles of identity, values and meaning;\u000aThat while cultural goods, services and activities have important economic value, they are not mere commodities or consumer goods that can only be regarded as objects of trade."[REF] . \u000a\u000aThe Convention\u2019s main objective is to provide a legally-binding international agreement that reaffirms the sovereign right of States to adopt cultural policies that support their cultural industries [REF]. Recognizing that the diversity of cultural expressions is a "rich asset for individuals and societies, the protection, promotion and maintenance of cultural diversity are an essential requirement for sustainable development for the benefit of present and future generations." [REF]. The Convention also defines on cultural industry and interculturality[REF] .\u000a\u000aSince the late 1980s, a growing number of countries were showing concern that "the proliferation of trade agreements promoting absolute market liberalization dramatically increased the threat to cultural industries. Countries wishing to retain their right to enforce cultural policies risked being marginalized and unable to maintain their position."[REF] . \u000a\u000aIn 2001, the UNESCO Universal Declaration on Cultural Diversity was adopted[REF] and May 21 was declared the World Day for Cultural Diversity for Dialogue and Development. \u000a\u000a2003 to 2005 marked the years where negotiations at UNESCO started took place to create an international agreement that aims to protect and promote the diversity of cultural expressions. \u000a\u000aOctober 20, 2005: UNESCO Convention on the Protection and Promotion of the Diversity of Cultural Expressions was adopted. \u000a\u000aMarch 18, 2007: The Convention enters into force and three months later, the 56 Member States that ratified it meet in Paris for the first Conference of the Parties to begin work on implementing the Convention. \u000a\u000aTo date, 117 Member States as well as the European Union have ratified the Convention [REF].\u000a\u000aTo reaffirm the sovereign right of States to adopt cultural policies while ensuring the free movement of ideas and works. \u000aTo recognize the distinct nature of cultural goods and services as vehicles of values, identity and meaning. \u000aTo define a new framework for international cultural cooperation, the keystone of the Convention \u000aTo create the conditions for cultures to flourish and freely interact in a mutually beneficial manner \u000aTo endevour to spport cooperation for sustainable development and poverty reduction\u000aTo ensure that civil society plays a major role in the implementation of the Convention [REF].
p6420
sS'sents'
p6421
g6214
sg43
g6210
sg41
I0
sS'id'
p6422
g16
sg48
I3647
sS'sentFeatures'
p6423
(lp6424
sb.