ccopy_reg
_reconstructor
p0
(cpygate.doc
Document
p1
c__builtin__
object
p2
Ntp3
Rp4
(dp5
S'src'
p6
V. \u000a\u000aThe notion and the extent of the modern welfare state have been criticised on both economic and social grounds from both the left and the right of the political spectrum.\u000a\u000aIn his book, The Servile State, English political writer Hilaire Belloc makes his case for the natural instability of pure capitalism and discusses how, as he believes, attempts to reform capitalism will lead almost inexorably to an economy where state regulation has removed the freedom of capitalism and thereby replaced capitalism with what he calls the Servile State. He believes that this servile state shares with ancient slavery the fact that positive law (as opposed to custom or economic necessity by themselves) dictates that certain people will work for others, who likewise must take care of them, and so the welfare state may lead to a kind of serfdom, in which one group works to support another group that does not work. \u000a\u000aSome conservatives in the UK claim that the welfare state has produced a generation of dependents who, instead of working, rely solely upon the state for income and support; even though assistance is only legally available to those unable to work. The welfare state in the UK was created to provide certain people with a basic level of benefits in order to alleviate poverty, but these conservatives believe that it has been expanded to provide more people with more money from the state than it can ideally afford [REF]. \u000a\u000aSome feel that this argument is demonstrably false: the benefits system in the UK provides individuals with considerably less money than the national minimum wage, but people on welfare often find that they qualify for a variety of benefits, including benefits in-kind, such as Housing Benefit, which usually make the overall benefits much higher than basic figures imply [REF]. \u000a\u000aSome British conservatives, such as Conservative Party co-chairman Sayeeda Warsi, also criticise the "'something for nothing' culture" of the welfare state, claiming that the high extent of the welfare state "discourages the unemployed from finding jobs" [REF]. 55% of people in England and 43% of people in Scotland believe that "benefits for unemployed people are too high and discourage them from finding jobs" [REF].\u000a\u000aMarxists argue that welfare states and modern social democratic policies limit the incentive system of the market by providing things such as minimum wages, unemployment insurance, taxing profits and reducing the reserve army of labor, resulting in capitalists having little incentive to invest; in essence, social welfare policies cripple the capitalist system and its incentive system, and the only real solution to the issues of capitalism is its replacement with a socialist economic system [REF]. \u000a\u000aThe most extreme criticisms of states and governments are made by anarchists, who believe that all states and governments are undesirable and/or unnecessary. Some socialist anarchists believe that while social welfare gives a certain level of independency from the market and individual capitalists, it creates dependence to the state, which is the institution that, according to this view, supports and protects capitalism in the first place. Nonetheless, according to Noam Chomsky, "social democrats and anarchists always agreed, fairly generally, on so-called 'welfare state measures'" and "Anarchists propose other measures to deal with these problems, without recourse to state authority."[REF] Some socialist anarchists believe in stopping welfare programs only if it means abolishing government and capitalism as well [REF].
p7
sS'string'
p8
S'. \n\nThe notion and the extent of the modern welfare state have been criticised on both economic and social grounds from both the left and the right of the political spectrum.\n\nIn his book, The Servile State, English political writer Hilaire Belloc makes his case for the natural instability of pure capitalism and discusses how, as he believes, attempts to reform capitalism will lead almost inexorably to an economy where state regulation has removed the freedom of capitalism and thereby replaced capitalism with what he calls the Servile State. He believes that this servile state shares with ancient slavery the fact that positive law (as opposed to custom or economic necessity by themselves) dictates that certain people will work for others, who likewise must take care of them, and so the welfare state may lead to a kind of serfdom, in which one group works to support another group that does not work. \n\nSome conservatives in the UK claim that the welfare state has produced a generation of dependents who, instead of working, rely solely upon the state for income and support; even though assistance is only legally available to those unable to work. The welfare state in the UK was created to provide certain people with a basic level of benefits in order to alleviate poverty, but these conservatives believe that it has been expanded to provide more people with more money from the state than it can ideally afford [REF]. \n\nSome feel that this argument is demonstrably false: the benefits system in the UK provides individuals with considerably less money than the national minimum wage, but people on welfare often find that they qualify for a variety of benefits, including benefits in-kind, such as Housing Benefit, which usually make the overall benefits much higher than basic figures imply [REF]. \n\nSome British conservatives, such as Conservative Party co-chairman Sayeeda Warsi, also criticise the "\'something for nothing\' culture" of the welfare state, claiming that the high extent of the welfare state "discourages the unemployed from finding jobs" [REF]. 55% of people in England and 43% of people in Scotland believe that "benefits for unemployed people are too high and discourage them from finding jobs" [REF].\n\nMarxists argue that welfare states and modern social democratic policies limit the incentive system of the market by providing things such as minimum wages, unemployment insurance, taxing profits and reducing the reserve army of labor, resulting in capitalists having little incentive to invest; in essence, social welfare policies cripple the capitalist system and its incentive system, and the only real solution to the issues of capitalism is its replacement with a socialist economic system [REF]. \n\nThe most extreme criticisms of states and governments are made by anarchists, who believe that all states and governments are undesirable and/or unnecessary. Some socialist anarchists believe that while social welfare gives a certain level of independency from the market and individual capitalists, it creates dependence to the state, which is the institution that, according to this view, supports and protects capitalism in the first place. Nonetheless, according to Noam Chomsky, "social democrats and anarchists always agreed, fairly generally, on so-called \'welfare state measures\'" and "Anarchists propose other measures to deal with these problems, without recourse to state authority."[REF] Some socialist anarchists believe in stopping welfare programs only if it means abolishing government and capitalism as well [REF].'
p9
sS'idx'
p10
I0
sS'tknFeatures'
p11
(lp12
sS'docFeatures'
p13
(dp14
S'file_id'
p15
S'Criticisms_of_welfare'
p16
ssS'items'
p17
(dp18
S'raw'
p19
V. \u000a\u000aThe notion and the extent of the modern welfare state have been criticised on both economic and social grounds from both the left and the right of the political spectrum.\u000a\u000aIn his book, The Servile State, English political writer Hilaire Belloc makes his case for the natural instability of pure capitalism and discusses how, as he believes, attempts to reform capitalism will lead almost inexorably to an economy where state regulation has removed the freedom of capitalism and thereby replaced capitalism with what he calls the Servile State. He believes that this servile state shares with ancient slavery the fact that positive law (as opposed to custom or economic necessity by themselves) dictates that certain people will work for others, who likewise must take care of them, and so the welfare state may lead to a kind of serfdom, in which one group works to support another group that does not work. \u000a\u000aSome conservatives in the UK claim that the welfare state has produced a generation of dependents who, instead of working, rely solely upon the state for income and support; even though assistance is only legally available to those unable to work. The welfare state in the UK was created to provide certain people with a basic level of benefits in order to alleviate poverty, but these conservatives believe that it has been expanded to provide more people with more money from the state than it can ideally afford [REF]. \u000a\u000aSome feel that this argument is demonstrably false: the benefits system in the UK provides individuals with considerably less money than the national minimum wage, but people on welfare often find that they qualify for a variety of benefits, including benefits in-kind, such as Housing Benefit, which usually make the overall benefits much higher than basic figures imply [REF]. \u000a\u000aSome British conservatives, such as Conservative Party co-chairman Sayeeda Warsi, also criticise the "'something for nothing' culture" of the welfare state, claiming that the high extent of the welfare state "discourages the unemployed from finding jobs" [REF]. 55% of people in England and 43% of people in Scotland believe that "benefits for unemployed people are too high and discourage them from finding jobs" [REF].\u000a\u000aMarxists argue that welfare states and modern social democratic policies limit the incentive system of the market by providing things such as minimum wages, unemployment insurance, taxing profits and reducing the reserve army of labor, resulting in capitalists having little incentive to invest; in essence, social welfare policies cripple the capitalist system and its incentive system, and the only real solution to the issues of capitalism is its replacement with a socialist economic system [REF]. \u000a\u000aThe most extreme criticisms of states and governments are made by anarchists, who believe that all states and governments are undesirable and/or unnecessary. Some socialist anarchists believe that while social welfare gives a certain level of independency from the market and individual capitalists, it creates dependence to the state, which is the institution that, according to this view, supports and protects capitalism in the first place. Nonetheless, according to Noam Chomsky, "social democrats and anarchists always agreed, fairly generally, on so-called 'welfare state measures'" and "Anarchists propose other measures to deal with these problems, without recourse to state authority."[REF] Some socialist anarchists believe in stopping welfare programs only if it means abolishing government and capitalism as well [REF].
p20
sS'Token'
p21
(lp22
g0
(cpygate.annotation
Annotation
p23
g2
Ntp24
Rp25
(dp26
S'features'
p27
(dp28
S'lemma'
p29
V.
p30
sS'ner'
p31
VO
p32
sS'pos'
p33
V.
p34
sS'index'
p35
I1
ssg10
I0
sS'doc'
p36
g4
sS'labels'
p37
(dp38
sS'relations'
p39
(dp40
sS'cStart'
p41
I0
sS'subType'
p42
g21
sS'annoType'
p43
g21
sS'tStart'
p44
I0
sS'text'
p45
V.
p46
sS'tEnd'
p47
I0
sS'cEnd'
p48
I1
sbag0
(g23
g2
Ntp49
Rp50
(dp51
g27
(dp52
g29
Vthe
p53
sg31
VO
p54
sg33
VDT
p55
sg35
I1
ssg10
I1
sg36
g4
sg37
(dp56
sg39
(dp57
sg41
I4
sg42
g21
sg43
g21
sg44
I1
sg45
VThe
p58
sg47
I1
sg48
I7
sbag0
(g23
g2
Ntp59
Rp60
(dp61
g27
(dp62
g29
Vnotion
p63
sg31
VO
p64
sg33
VNN
p65
sg35
I2
ssg10
I2
sg36
g4
sg37
(dp66
sg39
(dp67
sg41
I8
sg42
g21
sg43
g21
sg44
I2
sg45
Vnotion
p68
sg47
I2
sg48
I14
sbag0
(g23
g2
Ntp69
Rp70
(dp71
g27
(dp72
g29
Vand
p73
sg31
VO
p74
sg33
VCC
p75
sg35
I3
ssg10
I3
sg36
g4
sg37
(dp76
sg39
(dp77
sg41
I15
sg42
g21
sg43
g21
sg44
I3
sg45
Vand
p78
sg47
I3
sg48
I18
sbag0
(g23
g2
Ntp79
Rp80
(dp81
g27
(dp82
g29
Vthe
p83
sg31
VO
p84
sg33
VDT
p85
sg35
I4
ssg10
I4
sg36
g4
sg37
(dp86
sg39
(dp87
sg41
I19
sg42
g21
sg43
g21
sg44
I4
sg45
Vthe
p88
sg47
I4
sg48
I22
sbag0
(g23
g2
Ntp89
Rp90
(dp91
g27
(dp92
g29
Vextent
p93
sg31
VO
p94
sg33
VNN
p95
sg35
I5
ssg10
I5
sg36
g4
sg37
(dp96
sg39
(dp97
sg41
I23
sg42
g21
sg43
g21
sg44
I5
sg45
Vextent
p98
sg47
I5
sg48
I29
sbag0
(g23
g2
Ntp99
Rp100
(dp101
g27
(dp102
g29
Vof
p103
sg31
VO
p104
sg33
VIN
p105
sg35
I6
ssg10
I6
sg36
g4
sg37
(dp106
sg39
(dp107
sg41
I30
sg42
g21
sg43
g21
sg44
I6
sg45
Vof
p108
sg47
I6
sg48
I32
sbag0
(g23
g2
Ntp109
Rp110
(dp111
g27
(dp112
g29
Vthe
p113
sg31
VO
p114
sg33
VDT
p115
sg35
I7
ssg10
I7
sg36
g4
sg37
(dp116
sg39
(dp117
sg41
I33
sg42
g21
sg43
g21
sg44
I7
sg45
Vthe
p118
sg47
I7
sg48
I36
sbag0
(g23
g2
Ntp119
Rp120
(dp121
g27
(dp122
g29
Vmodern
p123
sg31
VO
p124
sg33
VJJ
p125
sg35
I8
ssg10
I8
sg36
g4
sg37
(dp126
sg39
(dp127
sg41
I37
sg42
g21
sg43
g21
sg44
I8
sg45
Vmodern
p128
sg47
I8
sg48
I43
sbag0
(g23
g2
Ntp129
Rp130
(dp131
g27
(dp132
g29
Vwelfare
p133
sg31
VO
p134
sg33
VNN
p135
sg35
I9
ssg10
I9
sg36
g4
sg37
(dp136
sg39
(dp137
sg41
I44
sg42
g21
sg43
g21
sg44
I9
sg45
Vwelfare
p138
sg47
I9
sg48
I51
sbag0
(g23
g2
Ntp139
Rp140
(dp141
g27
(dp142
g29
Vstate
p143
sg31
VO
p144
sg33
VNN
p145
sg35
I10
ssg10
I10
sg36
g4
sg37
(dp146
sg39
(dp147
sg41
I52
sg42
g21
sg43
g21
sg44
I10
sg45
Vstate
p148
sg47
I10
sg48
I57
sbag0
(g23
g2
Ntp149
Rp150
(dp151
g27
(dp152
g29
Vhave
p153
sg31
VO
p154
sg33
VVBP
p155
sg35
I11
ssg10
I11
sg36
g4
sg37
(dp156
sg39
(dp157
sg41
I58
sg42
g21
sg43
g21
sg44
I11
sg45
Vhave
p158
sg47
I11
sg48
I62
sbag0
(g23
g2
Ntp159
Rp160
(dp161
g27
(dp162
g29
Vbe
p163
sg31
VO
p164
sg33
VVBN
p165
sg35
I12
ssg10
I12
sg36
g4
sg37
(dp166
sg39
(dp167
sg41
I63
sg42
g21
sg43
g21
sg44
I12
sg45
Vbeen
p168
sg47
I12
sg48
I67
sbag0
(g23
g2
Ntp169
Rp170
(dp171
g27
(dp172
g29
Vcriticise
p173
sg31
VO
p174
sg33
VVBN
p175
sg35
I13
ssg10
I13
sg36
g4
sg37
(dp176
sg39
(dp177
sg41
I68
sg42
g21
sg43
g21
sg44
I13
sg45
Vcriticised
p178
sg47
I13
sg48
I78
sbag0
(g23
g2
Ntp179
Rp180
(dp181
g27
(dp182
g29
Von
p183
sg31
VO
p184
sg33
VIN
p185
sg35
I14
ssg10
I14
sg36
g4
sg37
(dp186
sg39
(dp187
sg41
I79
sg42
g21
sg43
g21
sg44
I14
sg45
Von
p188
sg47
I14
sg48
I81
sbag0
(g23
g2
Ntp189
Rp190
(dp191
g27
(dp192
g29
Vboth
p193
sg31
VO
p194
sg33
VDT
p195
sg35
I15
ssg10
I15
sg36
g4
sg37
(dp196
sg39
(dp197
sg41
I82
sg42
g21
sg43
g21
sg44
I15
sg45
Vboth
p198
sg47
I15
sg48
I86
sbag0
(g23
g2
Ntp199
Rp200
(dp201
g27
(dp202
g29
Veconomic
p203
sg31
VO
p204
sg33
VJJ
p205
sg35
I16
ssg10
I16
sg36
g4
sg37
(dp206
sg39
(dp207
sg41
I87
sg42
g21
sg43
g21
sg44
I16
sg45
Veconomic
p208
sg47
I16
sg48
I95
sbag0
(g23
g2
Ntp209
Rp210
(dp211
g27
(dp212
g29
Vand
p213
sg31
VO
p214
sg33
VCC
p215
sg35
I17
ssg10
I17
sg36
g4
sg37
(dp216
sg39
(dp217
sg41
I96
sg42
g21
sg43
g21
sg44
I17
sg45
Vand
p218
sg47
I17
sg48
I99
sbag0
(g23
g2
Ntp219
Rp220
(dp221
g27
(dp222
g29
Vsocial
p223
sg31
VO
p224
sg33
VJJ
p225
sg35
I18
ssg10
I18
sg36
g4
sg37
(dp226
sg39
(dp227
sg41
I100
sg42
g21
sg43
g21
sg44
I18
sg45
Vsocial
p228
sg47
I18
sg48
I106
sbag0
(g23
g2
Ntp229
Rp230
(dp231
g27
(dp232
g29
Vgrounds
p233
sg31
VO
p234
sg33
VNNS
p235
sg35
I19
ssg10
I19
sg36
g4
sg37
(dp236
sg39
(dp237
sg41
I107
sg42
g21
sg43
g21
sg44
I19
sg45
Vgrounds
p238
sg47
I19
sg48
I114
sbag0
(g23
g2
Ntp239
Rp240
(dp241
g27
(dp242
g29
Vfrom
p243
sg31
VO
p244
sg33
VIN
p245
sg35
I20
ssg10
I20
sg36
g4
sg37
(dp246
sg39
(dp247
sg41
I115
sg42
g21
sg43
g21
sg44
I20
sg45
Vfrom
p248
sg47
I20
sg48
I119
sbag0
(g23
g2
Ntp249
Rp250
(dp251
g27
(dp252
g29
Vboth
p253
sg31
VO
p254
sg33
VCC
p255
sg35
I21
ssg10
I21
sg36
g4
sg37
(dp256
sg39
(dp257
sg41
I120
sg42
g21
sg43
g21
sg44
I21
sg45
Vboth
p258
sg47
I21
sg48
I124
sbag0
(g23
g2
Ntp259
Rp260
(dp261
g27
(dp262
g29
Vthe
p263
sg31
VO
p264
sg33
VDT
p265
sg35
I22
ssg10
I22
sg36
g4
sg37
(dp266
sg39
(dp267
sg41
I125
sg42
g21
sg43
g21
sg44
I22
sg45
Vthe
p268
sg47
I22
sg48
I128
sbag0
(g23
g2
Ntp269
Rp270
(dp271
g27
(dp272
g29
Vleft
p273
sg31
VO
p274
sg33
VNN
p275
sg35
I23
ssg10
I23
sg36
g4
sg37
(dp276
sg39
(dp277
sg41
I129
sg42
g21
sg43
g21
sg44
I23
sg45
Vleft
p278
sg47
I23
sg48
I133
sbag0
(g23
g2
Ntp279
Rp280
(dp281
g27
(dp282
g29
Vand
p283
sg31
VO
p284
sg33
VCC
p285
sg35
I24
ssg10
I24
sg36
g4
sg37
(dp286
sg39
(dp287
sg41
I134
sg42
g21
sg43
g21
sg44
I24
sg45
Vand
p288
sg47
I24
sg48
I137
sbag0
(g23
g2
Ntp289
Rp290
(dp291
g27
(dp292
g29
Vthe
p293
sg31
VO
p294
sg33
VDT
p295
sg35
I25
ssg10
I25
sg36
g4
sg37
(dp296
sg39
(dp297
sg41
I138
sg42
g21
sg43
g21
sg44
I25
sg45
Vthe
p298
sg47
I25
sg48
I141
sbag0
(g23
g2
Ntp299
Rp300
(dp301
g27
(dp302
g29
Vright
p303
sg31
VO
p304
sg33
VNN
p305
sg35
I26
ssg10
I26
sg36
g4
sg37
(dp306
sg39
(dp307
sg41
I142
sg42
g21
sg43
g21
sg44
I26
sg45
Vright
p308
sg47
I26
sg48
I147
sbag0
(g23
g2
Ntp309
Rp310
(dp311
g27
(dp312
g29
Vof
p313
sg31
VO
p314
sg33
VIN
p315
sg35
I27
ssg10
I27
sg36
g4
sg37
(dp316
sg39
(dp317
sg41
I148
sg42
g21
sg43
g21
sg44
I27
sg45
Vof
p318
sg47
I27
sg48
I150
sbag0
(g23
g2
Ntp319
Rp320
(dp321
g27
(dp322
g29
Vthe
p323
sg31
VO
p324
sg33
VDT
p325
sg35
I28
ssg10
I28
sg36
g4
sg37
(dp326
sg39
(dp327
sg41
I151
sg42
g21
sg43
g21
sg44
I28
sg45
Vthe
p328
sg47
I28
sg48
I154
sbag0
(g23
g2
Ntp329
Rp330
(dp331
g27
(dp332
g29
Vpolitical
p333
sg31
VO
p334
sg33
VJJ
p335
sg35
I29
ssg10
I29
sg36
g4
sg37
(dp336
sg39
(dp337
sg41
I155
sg42
g21
sg43
g21
sg44
I29
sg45
Vpolitical
p338
sg47
I29
sg48
I164
sbag0
(g23
g2
Ntp339
Rp340
(dp341
g27
(dp342
g29
Vspectrum
p343
sg31
VO
p344
sg33
VNN
p345
sg35
I30
ssg10
I30
sg36
g4
sg37
(dp346
sg39
(dp347
sg41
I165
sg42
g21
sg43
g21
sg44
I30
sg45
Vspectrum
p348
sg47
I30
sg48
I173
sbag0
(g23
g2
Ntp349
Rp350
(dp351
g27
(dp352
g29
V.
p353
sg31
VO
p354
sg33
V.
p355
sg35
I31
ssg10
I31
sg36
g4
sg37
(dp356
sg39
(dp357
sg41
I173
sg42
g21
sg43
g21
sg44
I31
sg45
V.
p358
sg47
I31
sg48
I174
sbag0
(g23
g2
Ntp359
Rp360
(dp361
g27
(dp362
g29
Vin
p363
sg31
VO
p364
sg33
VIN
p365
sg35
I1
ssg10
I32
sg36
g4
sg37
(dp366
sg39
(dp367
sg41
I176
sg42
g21
sg43
g21
sg44
I32
sg45
VIn
p368
sg47
I32
sg48
I178
sbag0
(g23
g2
Ntp369
Rp370
(dp371
g27
(dp372
g29
Vhe
p373
sg31
VO
p374
sg33
VPRP$
p375
sg35
I2
ssg10
I33
sg36
g4
sg37
(dp376
sg39
(dp377
sg41
I179
sg42
g21
sg43
g21
sg44
I33
sg45
Vhis
p378
sg47
I33
sg48
I182
sbag0
(g23
g2
Ntp379
Rp380
(dp381
g27
(dp382
g29
Vbook
p383
sg31
VO
p384
sg33
VNN
p385
sg35
I3
ssg10
I34
sg36
g4
sg37
(dp386
sg39
(dp387
sg41
I183
sg42
g21
sg43
g21
sg44
I34
sg45
Vbook
p388
sg47
I34
sg48
I187
sbag0
(g23
g2
Ntp389
Rp390
(dp391
g27
(dp392
g29
V,
p393
sg31
VO
p394
sg33
V,
p395
sg35
I4
ssg10
I35
sg36
g4
sg37
(dp396
sg39
(dp397
sg41
I187
sg42
g21
sg43
g21
sg44
I35
sg45
V,
p398
sg47
I35
sg48
I188
sbag0
(g23
g2
Ntp399
Rp400
(dp401
g27
(dp402
g29
Vthe
p403
sg31
VO
p404
sg33
VDT
p405
sg35
I5
ssg10
I36
sg36
g4
sg37
(dp406
sg39
(dp407
sg41
I189
sg42
g21
sg43
g21
sg44
I36
sg45
VThe
p408
sg47
I36
sg48
I192
sbag0
(g23
g2
Ntp409
Rp410
(dp411
g27
(dp412
g29
Vservile
p413
sg31
VO
p414
sg33
VJJ
p415
sg35
I6
ssg10
I37
sg36
g4
sg37
(dp416
sg39
(dp417
sg41
I193
sg42
g21
sg43
g21
sg44
I37
sg45
VServile
p418
sg47
I37
sg48
I200
sbag0
(g23
g2
Ntp419
Rp420
(dp421
g27
(dp422
g29
Vstate
p423
sg31
VO
p424
sg33
VNN
p425
sg35
I7
ssg10
I38
sg36
g4
sg37
(dp426
sg39
(dp427
sg41
I201
sg42
g21
sg43
g21
sg44
I38
sg45
VState
p428
sg47
I38
sg48
I206
sbag0
(g23
g2
Ntp429
Rp430
(dp431
g27
(dp432
g29
V,
p433
sg31
VO
p434
sg33
V,
p435
sg35
I8
ssg10
I39
sg36
g4
sg37
(dp436
sg39
(dp437
sg41
I206
sg42
g21
sg43
g21
sg44
I39
sg45
V,
p438
sg47
I39
sg48
I207
sbag0
(g23
g2
Ntp439
Rp440
(dp441
g27
(dp442
g29
VEnglish
p443
sg31
VMISC
p444
sg33
VNNP
p445
sg35
I9
ssg10
I40
sg36
g4
sg37
(dp446
sg39
(dp447
sg41
I208
sg42
g21
sg43
g21
sg44
I40
sg45
VEnglish
p448
sg47
I40
sg48
I215
sbag0
(g23
g2
Ntp449
Rp450
(dp451
g27
(dp452
g29
Vpolitical
p453
sg31
VO
p454
sg33
VJJ
p455
sg35
I10
ssg10
I41
sg36
g4
sg37
(dp456
sg39
(dp457
sg41
I216
sg42
g21
sg43
g21
sg44
I41
sg45
Vpolitical
p458
sg47
I41
sg48
I225
sbag0
(g23
g2
Ntp459
Rp460
(dp461
g27
(dp462
g29
Vwriter
p463
sg31
VO
p464
sg33
VNN
p465
sg35
I11
ssg10
I42
sg36
g4
sg37
(dp466
sg39
(dp467
sg41
I226
sg42
g21
sg43
g21
sg44
I42
sg45
Vwriter
p468
sg47
I42
sg48
I232
sbag0
(g23
g2
Ntp469
Rp470
(dp471
g27
(dp472
g29
VHilaire
p473
sg31
VPERSON
p474
sg33
VNNP
p475
sg35
I12
ssg10
I43
sg36
g4
sg37
(dp476
sg39
(dp477
sg41
I233
sg42
g21
sg43
g21
sg44
I43
sg45
VHilaire
p478
sg47
I43
sg48
I240
sbag0
(g23
g2
Ntp479
Rp480
(dp481
g27
(dp482
g29
VBelloc
p483
sg31
VPERSON
p484
sg33
VNNP
p485
sg35
I13
ssg10
I44
sg36
g4
sg37
(dp486
sg39
(dp487
sg41
I241
sg42
g21
sg43
g21
sg44
I44
sg45
VBelloc
p488
sg47
I44
sg48
I247
sbag0
(g23
g2
Ntp489
Rp490
(dp491
g27
(dp492
g29
Vmake
p493
sg31
VO
p494
sg33
VVBZ
p495
sg35
I14
ssg10
I45
sg36
g4
sg37
(dp496
sg39
(dp497
sg41
I248
sg42
g21
sg43
g21
sg44
I45
sg45
Vmakes
p498
sg47
I45
sg48
I253
sbag0
(g23
g2
Ntp499
Rp500
(dp501
g27
(dp502
g29
Vhe
p503
sg31
VO
p504
sg33
VPRP$
p505
sg35
I15
ssg10
I46
sg36
g4
sg37
(dp506
sg39
(dp507
sg41
I254
sg42
g21
sg43
g21
sg44
I46
sg45
Vhis
p508
sg47
I46
sg48
I257
sbag0
(g23
g2
Ntp509
Rp510
(dp511
g27
(dp512
g29
Vcase
p513
sg31
VO
p514
sg33
VNN
p515
sg35
I16
ssg10
I47
sg36
g4
sg37
(dp516
sg39
(dp517
sg41
I258
sg42
g21
sg43
g21
sg44
I47
sg45
Vcase
p518
sg47
I47
sg48
I262
sbag0
(g23
g2
Ntp519
Rp520
(dp521
g27
(dp522
g29
Vfor
p523
sg31
VO
p524
sg33
VIN
p525
sg35
I17
ssg10
I48
sg36
g4
sg37
(dp526
sg39
(dp527
sg41
I263
sg42
g21
sg43
g21
sg44
I48
sg45
Vfor
p528
sg47
I48
sg48
I266
sbag0
(g23
g2
Ntp529
Rp530
(dp531
g27
(dp532
g29
Vthe
p533
sg31
VO
p534
sg33
VDT
p535
sg35
I18
ssg10
I49
sg36
g4
sg37
(dp536
sg39
(dp537
sg41
I267
sg42
g21
sg43
g21
sg44
I49
sg45
Vthe
p538
sg47
I49
sg48
I270
sbag0
(g23
g2
Ntp539
Rp540
(dp541
g27
(dp542
g29
Vnatural
p543
sg31
VO
p544
sg33
VJJ
p545
sg35
I19
ssg10
I50
sg36
g4
sg37
(dp546
sg39
(dp547
sg41
I271
sg42
g21
sg43
g21
sg44
I50
sg45
Vnatural
p548
sg47
I50
sg48
I278
sbag0
(g23
g2
Ntp549
Rp550
(dp551
g27
(dp552
g29
Vinstability
p553
sg31
VO
p554
sg33
VNN
p555
sg35
I20
ssg10
I51
sg36
g4
sg37
(dp556
sg39
(dp557
sg41
I279
sg42
g21
sg43
g21
sg44
I51
sg45
Vinstability
p558
sg47
I51
sg48
I290
sbag0
(g23
g2
Ntp559
Rp560
(dp561
g27
(dp562
g29
Vof
p563
sg31
VO
p564
sg33
VIN
p565
sg35
I21
ssg10
I52
sg36
g4
sg37
(dp566
sg39
(dp567
sg41
I291
sg42
g21
sg43
g21
sg44
I52
sg45
Vof
p568
sg47
I52
sg48
I293
sbag0
(g23
g2
Ntp569
Rp570
(dp571
g27
(dp572
g29
Vpure
p573
sg31
VO
p574
sg33
VJJ
p575
sg35
I22
ssg10
I53
sg36
g4
sg37
(dp576
sg39
(dp577
sg41
I294
sg42
g21
sg43
g21
sg44
I53
sg45
Vpure
p578
sg47
I53
sg48
I298
sbag0
(g23
g2
Ntp579
Rp580
(dp581
g27
(dp582
g29
Vcapitalism
p583
sg31
VO
p584
sg33
VNN
p585
sg35
I23
ssg10
I54
sg36
g4
sg37
(dp586
sg39
(dp587
sg41
I299
sg42
g21
sg43
g21
sg44
I54
sg45
Vcapitalism
p588
sg47
I54
sg48
I309
sbag0
(g23
g2
Ntp589
Rp590
(dp591
g27
(dp592
g29
Vand
p593
sg31
VO
p594
sg33
VCC
p595
sg35
I24
ssg10
I55
sg36
g4
sg37
(dp596
sg39
(dp597
sg41
I310
sg42
g21
sg43
g21
sg44
I55
sg45
Vand
p598
sg47
I55
sg48
I313
sbag0
(g23
g2
Ntp599
Rp600
(dp601
g27
(dp602
g29
Vdiscuss
p603
sg31
VO
p604
sg33
VVBZ
p605
sg35
I25
ssg10
I56
sg36
g4
sg37
(dp606
sg39
(dp607
sg41
I314
sg42
g21
sg43
g21
sg44
I56
sg45
Vdiscusses
p608
sg47
I56
sg48
I323
sbag0
(g23
g2
Ntp609
Rp610
(dp611
g27
(dp612
g29
Vhow
p613
sg31
VO
p614
sg33
VWRB
p615
sg35
I26
ssg10
I57
sg36
g4
sg37
(dp616
sg39
(dp617
sg41
I324
sg42
g21
sg43
g21
sg44
I57
sg45
Vhow
p618
sg47
I57
sg48
I327
sbag0
(g23
g2
Ntp619
Rp620
(dp621
g27
(dp622
g29
V,
p623
sg31
VO
p624
sg33
V,
p625
sg35
I27
ssg10
I58
sg36
g4
sg37
(dp626
sg39
(dp627
sg41
I327
sg42
g21
sg43
g21
sg44
I58
sg45
V,
p628
sg47
I58
sg48
I328
sbag0
(g23
g2
Ntp629
Rp630
(dp631
g27
(dp632
g29
Vas
p633
sg31
VO
p634
sg33
VIN
p635
sg35
I28
ssg10
I59
sg36
g4
sg37
(dp636
sg39
(dp637
sg41
I329
sg42
g21
sg43
g21
sg44
I59
sg45
Vas
p638
sg47
I59
sg48
I331
sbag0
(g23
g2
Ntp639
Rp640
(dp641
g27
(dp642
g29
Vhe
p643
sg31
VO
p644
sg33
VPRP
p645
sg35
I29
ssg10
I60
sg36
g4
sg37
(dp646
sg39
(dp647
sg41
I332
sg42
g21
sg43
g21
sg44
I60
sg45
Vhe
p648
sg47
I60
sg48
I334
sbag0
(g23
g2
Ntp649
Rp650
(dp651
g27
(dp652
g29
Vbelieve
p653
sg31
VO
p654
sg33
VVBZ
p655
sg35
I30
ssg10
I61
sg36
g4
sg37
(dp656
sg39
(dp657
sg41
I335
sg42
g21
sg43
g21
sg44
I61
sg45
Vbelieves
p658
sg47
I61
sg48
I343
sbag0
(g23
g2
Ntp659
Rp660
(dp661
g27
(dp662
g29
V,
p663
sg31
VO
p664
sg33
V,
p665
sg35
I31
ssg10
I62
sg36
g4
sg37
(dp666
sg39
(dp667
sg41
I343
sg42
g21
sg43
g21
sg44
I62
sg45
V,
p668
sg47
I62
sg48
I344
sbag0
(g23
g2
Ntp669
Rp670
(dp671
g27
(dp672
g29
Vattempt
p673
sg31
VO
p674
sg33
VVBZ
p675
sg35
I32
ssg10
I63
sg36
g4
sg37
(dp676
sg39
(dp677
sg41
I345
sg42
g21
sg43
g21
sg44
I63
sg45
Vattempts
p678
sg47
I63
sg48
I353
sbag0
(g23
g2
Ntp679
Rp680
(dp681
g27
(dp682
g29
Vto
p683
sg31
VO
p684
sg33
VTO
p685
sg35
I33
ssg10
I64
sg36
g4
sg37
(dp686
sg39
(dp687
sg41
I354
sg42
g21
sg43
g21
sg44
I64
sg45
Vto
p688
sg47
I64
sg48
I356
sbag0
(g23
g2
Ntp689
Rp690
(dp691
g27
(dp692
g29
Vreform
p693
sg31
VO
p694
sg33
VVB
p695
sg35
I34
ssg10
I65
sg36
g4
sg37
(dp696
sg39
(dp697
sg41
I357
sg42
g21
sg43
g21
sg44
I65
sg45
Vreform
p698
sg47
I65
sg48
I363
sbag0
(g23
g2
Ntp699
Rp700
(dp701
g27
(dp702
g29
Vcapitalism
p703
sg31
VO
p704
sg33
VNN
p705
sg35
I35
ssg10
I66
sg36
g4
sg37
(dp706
sg39
(dp707
sg41
I364
sg42
g21
sg43
g21
sg44
I66
sg45
Vcapitalism
p708
sg47
I66
sg48
I374
sbag0
(g23
g2
Ntp709
Rp710
(dp711
g27
(dp712
g29
Vwill
p713
sg31
VO
p714
sg33
VMD
p715
sg35
I36
ssg10
I67
sg36
g4
sg37
(dp716
sg39
(dp717
sg41
I375
sg42
g21
sg43
g21
sg44
I67
sg45
Vwill
p718
sg47
I67
sg48
I379
sbag0
(g23
g2
Ntp719
Rp720
(dp721
g27
(dp722
g29
Vlead
p723
sg31
VO
p724
sg33
VVB
p725
sg35
I37
ssg10
I68
sg36
g4
sg37
(dp726
sg39
(dp727
sg41
I380
sg42
g21
sg43
g21
sg44
I68
sg45
Vlead
p728
sg47
I68
sg48
I384
sbag0
(g23
g2
Ntp729
Rp730
(dp731
g27
(dp732
g29
Valmost
p733
sg31
VO
p734
sg33
VRB
p735
sg35
I38
ssg10
I69
sg36
g4
sg37
(dp736
sg39
(dp737
sg41
I385
sg42
g21
sg43
g21
sg44
I69
sg45
Valmost
p738
sg47
I69
sg48
I391
sbag0
(g23
g2
Ntp739
Rp740
(dp741
g27
(dp742
g29
Vinexorably
p743
sg31
VO
p744
sg33
VRB
p745
sg35
I39
ssg10
I70
sg36
g4
sg37
(dp746
sg39
(dp747
sg41
I392
sg42
g21
sg43
g21
sg44
I70
sg45
Vinexorably
p748
sg47
I70
sg48
I402
sbag0
(g23
g2
Ntp749
Rp750
(dp751
g27
(dp752
g29
Vto
p753
sg31
VO
p754
sg33
VTO
p755
sg35
I40
ssg10
I71
sg36
g4
sg37
(dp756
sg39
(dp757
sg41
I403
sg42
g21
sg43
g21
sg44
I71
sg45
Vto
p758
sg47
I71
sg48
I405
sbag0
(g23
g2
Ntp759
Rp760
(dp761
g27
(dp762
g29
Va
p763
sg31
VO
p764
sg33
VDT
p765
sg35
I41
ssg10
I72
sg36
g4
sg37
(dp766
sg39
(dp767
sg41
I406
sg42
g21
sg43
g21
sg44
I72
sg45
Van
p768
sg47
I72
sg48
I408
sbag0
(g23
g2
Ntp769
Rp770
(dp771
g27
(dp772
g29
Veconomy
p773
sg31
VO
p774
sg33
VNN
p775
sg35
I42
ssg10
I73
sg36
g4
sg37
(dp776
sg39
(dp777
sg41
I409
sg42
g21
sg43
g21
sg44
I73
sg45
Veconomy
p778
sg47
I73
sg48
I416
sbag0
(g23
g2
Ntp779
Rp780
(dp781
g27
(dp782
g29
Vwhere
p783
sg31
VO
p784
sg33
VWRB
p785
sg35
I43
ssg10
I74
sg36
g4
sg37
(dp786
sg39
(dp787
sg41
I417
sg42
g21
sg43
g21
sg44
I74
sg45
Vwhere
p788
sg47
I74
sg48
I422
sbag0
(g23
g2
Ntp789
Rp790
(dp791
g27
(dp792
g29
Vstate
p793
sg31
VO
p794
sg33
VNN
p795
sg35
I44
ssg10
I75
sg36
g4
sg37
(dp796
sg39
(dp797
sg41
I423
sg42
g21
sg43
g21
sg44
I75
sg45
Vstate
p798
sg47
I75
sg48
I428
sbag0
(g23
g2
Ntp799
Rp800
(dp801
g27
(dp802
g29
Vregulation
p803
sg31
VO
p804
sg33
VNN
p805
sg35
I45
ssg10
I76
sg36
g4
sg37
(dp806
sg39
(dp807
sg41
I429
sg42
g21
sg43
g21
sg44
I76
sg45
Vregulation
p808
sg47
I76
sg48
I439
sbag0
(g23
g2
Ntp809
Rp810
(dp811
g27
(dp812
g29
Vhave
p813
sg31
VO
p814
sg33
VVBZ
p815
sg35
I46
ssg10
I77
sg36
g4
sg37
(dp816
sg39
(dp817
sg41
I440
sg42
g21
sg43
g21
sg44
I77
sg45
Vhas
p818
sg47
I77
sg48
I443
sbag0
(g23
g2
Ntp819
Rp820
(dp821
g27
(dp822
g29
Vremove
p823
sg31
VO
p824
sg33
VVBN
p825
sg35
I47
ssg10
I78
sg36
g4
sg37
(dp826
sg39
(dp827
sg41
I444
sg42
g21
sg43
g21
sg44
I78
sg45
Vremoved
p828
sg47
I78
sg48
I451
sbag0
(g23
g2
Ntp829
Rp830
(dp831
g27
(dp832
g29
Vthe
p833
sg31
VO
p834
sg33
VDT
p835
sg35
I48
ssg10
I79
sg36
g4
sg37
(dp836
sg39
(dp837
sg41
I452
sg42
g21
sg43
g21
sg44
I79
sg45
Vthe
p838
sg47
I79
sg48
I455
sbag0
(g23
g2
Ntp839
Rp840
(dp841
g27
(dp842
g29
Vfreedom
p843
sg31
VO
p844
sg33
VNN
p845
sg35
I49
ssg10
I80
sg36
g4
sg37
(dp846
sg39
(dp847
sg41
I456
sg42
g21
sg43
g21
sg44
I80
sg45
Vfreedom
p848
sg47
I80
sg48
I463
sbag0
(g23
g2
Ntp849
Rp850
(dp851
g27
(dp852
g29
Vof
p853
sg31
VO
p854
sg33
VIN
p855
sg35
I50
ssg10
I81
sg36
g4
sg37
(dp856
sg39
(dp857
sg41
I464
sg42
g21
sg43
g21
sg44
I81
sg45
Vof
p858
sg47
I81
sg48
I466
sbag0
(g23
g2
Ntp859
Rp860
(dp861
g27
(dp862
g29
Vcapitalism
p863
sg31
VO
p864
sg33
VNN
p865
sg35
I51
ssg10
I82
sg36
g4
sg37
(dp866
sg39
(dp867
sg41
I467
sg42
g21
sg43
g21
sg44
I82
sg45
Vcapitalism
p868
sg47
I82
sg48
I477
sbag0
(g23
g2
Ntp869
Rp870
(dp871
g27
(dp872
g29
Vand
p873
sg31
VO
p874
sg33
VCC
p875
sg35
I52
ssg10
I83
sg36
g4
sg37
(dp876
sg39
(dp877
sg41
I478
sg42
g21
sg43
g21
sg44
I83
sg45
Vand
p878
sg47
I83
sg48
I481
sbag0
(g23
g2
Ntp879
Rp880
(dp881
g27
(dp882
g29
Vthereby
p883
sg31
VO
p884
sg33
VRB
p885
sg35
I53
ssg10
I84
sg36
g4
sg37
(dp886
sg39
(dp887
sg41
I482
sg42
g21
sg43
g21
sg44
I84
sg45
Vthereby
p888
sg47
I84
sg48
I489
sbag0
(g23
g2
Ntp889
Rp890
(dp891
g27
(dp892
g29
Vreplace
p893
sg31
VO
p894
sg33
VVBN
p895
sg35
I54
ssg10
I85
sg36
g4
sg37
(dp896
sg39
(dp897
sg41
I490
sg42
g21
sg43
g21
sg44
I85
sg45
Vreplaced
p898
sg47
I85
sg48
I498
sbag0
(g23
g2
Ntp899
Rp900
(dp901
g27
(dp902
g29
Vcapitalism
p903
sg31
VO
p904
sg33
VNN
p905
sg35
I55
ssg10
I86
sg36
g4
sg37
(dp906
sg39
(dp907
sg41
I499
sg42
g21
sg43
g21
sg44
I86
sg45
Vcapitalism
p908
sg47
I86
sg48
I509
sbag0
(g23
g2
Ntp909
Rp910
(dp911
g27
(dp912
g29
Vwith
p913
sg31
VO
p914
sg33
VIN
p915
sg35
I56
ssg10
I87
sg36
g4
sg37
(dp916
sg39
(dp917
sg41
I510
sg42
g21
sg43
g21
sg44
I87
sg45
Vwith
p918
sg47
I87
sg48
I514
sbag0
(g23
g2
Ntp919
Rp920
(dp921
g27
(dp922
g29
Vwhat
p923
sg31
VO
p924
sg33
VWP
p925
sg35
I57
ssg10
I88
sg36
g4
sg37
(dp926
sg39
(dp927
sg41
I515
sg42
g21
sg43
g21
sg44
I88
sg45
Vwhat
p928
sg47
I88
sg48
I519
sbag0
(g23
g2
Ntp929
Rp930
(dp931
g27
(dp932
g29
Vhe
p933
sg31
VO
p934
sg33
VPRP
p935
sg35
I58
ssg10
I89
sg36
g4
sg37
(dp936
sg39
(dp937
sg41
I520
sg42
g21
sg43
g21
sg44
I89
sg45
Vhe
p938
sg47
I89
sg48
I522
sbag0
(g23
g2
Ntp939
Rp940
(dp941
g27
(dp942
g29
Vcall
p943
sg31
VO
p944
sg33
VVBZ
p945
sg35
I59
ssg10
I90
sg36
g4
sg37
(dp946
sg39
(dp947
sg41
I523
sg42
g21
sg43
g21
sg44
I90
sg45
Vcalls
p948
sg47
I90
sg48
I528
sbag0
(g23
g2
Ntp949
Rp950
(dp951
g27
(dp952
g29
Vthe
p953
sg31
VO
p954
sg33
VDT
p955
sg35
I60
ssg10
I91
sg36
g4
sg37
(dp956
sg39
(dp957
sg41
I529
sg42
g21
sg43
g21
sg44
I91
sg45
Vthe
p958
sg47
I91
sg48
I532
sbag0
(g23
g2
Ntp959
Rp960
(dp961
g27
(dp962
g29
Vservile
p963
sg31
VO
p964
sg33
VJJ
p965
sg35
I61
ssg10
I92
sg36
g4
sg37
(dp966
sg39
(dp967
sg41
I533
sg42
g21
sg43
g21
sg44
I92
sg45
VServile
p968
sg47
I92
sg48
I540
sbag0
(g23
g2
Ntp969
Rp970
(dp971
g27
(dp972
g29
Vstate
p973
sg31
VO
p974
sg33
VNN
p975
sg35
I62
ssg10
I93
sg36
g4
sg37
(dp976
sg39
(dp977
sg41
I541
sg42
g21
sg43
g21
sg44
I93
sg45
VState
p978
sg47
I93
sg48
I546
sbag0
(g23
g2
Ntp979
Rp980
(dp981
g27
(dp982
g29
V.
p983
sg31
VO
p984
sg33
V.
p985
sg35
I63
ssg10
I94
sg36
g4
sg37
(dp986
sg39
(dp987
sg41
I546
sg42
g21
sg43
g21
sg44
I94
sg45
V.
p988
sg47
I94
sg48
I547
sbag0
(g23
g2
Ntp989
Rp990
(dp991
g27
(dp992
g29
Vhe
p993
sg31
VO
p994
sg33
VPRP
p995
sg35
I1
ssg10
I95
sg36
g4
sg37
(dp996
sg39
(dp997
sg41
I548
sg42
g21
sg43
g21
sg44
I95
sg45
VHe
p998
sg47
I95
sg48
I550
sbag0
(g23
g2
Ntp999
Rp1000
(dp1001
g27
(dp1002
g29
Vbelieve
p1003
sg31
VO
p1004
sg33
VVBZ
p1005
sg35
I2
ssg10
I96
sg36
g4
sg37
(dp1006
sg39
(dp1007
sg41
I551
sg42
g21
sg43
g21
sg44
I96
sg45
Vbelieves
p1008
sg47
I96
sg48
I559
sbag0
(g23
g2
Ntp1009
Rp1010
(dp1011
g27
(dp1012
g29
Vthat
p1013
sg31
VO
p1014
sg33
VIN
p1015
sg35
I3
ssg10
I97
sg36
g4
sg37
(dp1016
sg39
(dp1017
sg41
I560
sg42
g21
sg43
g21
sg44
I97
sg45
Vthat
p1018
sg47
I97
sg48
I564
sbag0
(g23
g2
Ntp1019
Rp1020
(dp1021
g27
(dp1022
g29
Vthis
p1023
sg31
VO
p1024
sg33
VDT
p1025
sg35
I4
ssg10
I98
sg36
g4
sg37
(dp1026
sg39
(dp1027
sg41
I565
sg42
g21
sg43
g21
sg44
I98
sg45
Vthis
p1028
sg47
I98
sg48
I569
sbag0
(g23
g2
Ntp1029
Rp1030
(dp1031
g27
(dp1032
g29
Vservile
p1033
sg31
VO
p1034
sg33
VJJ
p1035
sg35
I5
ssg10
I99
sg36
g4
sg37
(dp1036
sg39
(dp1037
sg41
I570
sg42
g21
sg43
g21
sg44
I99
sg45
Vservile
p1038
sg47
I99
sg48
I577
sbag0
(g23
g2
Ntp1039
Rp1040
(dp1041
g27
(dp1042
g29
Vstate
p1043
sg31
VO
p1044
sg33
VNN
p1045
sg35
I6
ssg10
I100
sg36
g4
sg37
(dp1046
sg39
(dp1047
sg41
I578
sg42
g21
sg43
g21
sg44
I100
sg45
Vstate
p1048
sg47
I100
sg48
I583
sbag0
(g23
g2
Ntp1049
Rp1050
(dp1051
g27
(dp1052
g29
Vshare
p1053
sg31
VO
p1054
sg33
VNNS
p1055
sg35
I7
ssg10
I101
sg36
g4
sg37
(dp1056
sg39
(dp1057
sg41
I584
sg42
g21
sg43
g21
sg44
I101
sg45
Vshares
p1058
sg47
I101
sg48
I590
sbag0
(g23
g2
Ntp1059
Rp1060
(dp1061
g27
(dp1062
g29
Vwith
p1063
sg31
VO
p1064
sg33
VIN
p1065
sg35
I8
ssg10
I102
sg36
g4
sg37
(dp1066
sg39
(dp1067
sg41
I591
sg42
g21
sg43
g21
sg44
I102
sg45
Vwith
p1068
sg47
I102
sg48
I595
sbag0
(g23
g2
Ntp1069
Rp1070
(dp1071
g27
(dp1072
g29
Vancient
p1073
sg31
VO
p1074
sg33
VJJ
p1075
sg35
I9
ssg10
I103
sg36
g4
sg37
(dp1076
sg39
(dp1077
sg41
I596
sg42
g21
sg43
g21
sg44
I103
sg45
Vancient
p1078
sg47
I103
sg48
I603
sbag0
(g23
g2
Ntp1079
Rp1080
(dp1081
g27
(dp1082
g29
Vslavery
p1083
sg31
VO
p1084
sg33
VNN
p1085
sg35
I10
ssg10
I104
sg36
g4
sg37
(dp1086
sg39
(dp1087
sg41
I604
sg42
g21
sg43
g21
sg44
I104
sg45
Vslavery
p1088
sg47
I104
sg48
I611
sbag0
(g23
g2
Ntp1089
Rp1090
(dp1091
g27
(dp1092
g29
Vthe
p1093
sg31
VO
p1094
sg33
VDT
p1095
sg35
I11
ssg10
I105
sg36
g4
sg37
(dp1096
sg39
(dp1097
sg41
I612
sg42
g21
sg43
g21
sg44
I105
sg45
Vthe
p1098
sg47
I105
sg48
I615
sbag0
(g23
g2
Ntp1099
Rp1100
(dp1101
g27
(dp1102
g29
Vfact
p1103
sg31
VO
p1104
sg33
VNN
p1105
sg35
I12
ssg10
I106
sg36
g4
sg37
(dp1106
sg39
(dp1107
sg41
I616
sg42
g21
sg43
g21
sg44
I106
sg45
Vfact
p1108
sg47
I106
sg48
I620
sbag0
(g23
g2
Ntp1109
Rp1110
(dp1111
g27
(dp1112
g29
Vthat
p1113
sg31
VO
p1114
sg33
VIN
p1115
sg35
I13
ssg10
I107
sg36
g4
sg37
(dp1116
sg39
(dp1117
sg41
I621
sg42
g21
sg43
g21
sg44
I107
sg45
Vthat
p1118
sg47
I107
sg48
I625
sbag0
(g23
g2
Ntp1119
Rp1120
(dp1121
g27
(dp1122
g29
Vpositive
p1123
sg31
VO
p1124
sg33
VJJ
p1125
sg35
I14
ssg10
I108
sg36
g4
sg37
(dp1126
sg39
(dp1127
sg41
I626
sg42
g21
sg43
g21
sg44
I108
sg45
Vpositive
p1128
sg47
I108
sg48
I634
sbag0
(g23
g2
Ntp1129
Rp1130
(dp1131
g27
(dp1132
g29
Vlaw
p1133
sg31
VO
p1134
sg33
VNN
p1135
sg35
I15
ssg10
I109
sg36
g4
sg37
(dp1136
sg39
(dp1137
sg41
I635
sg42
g21
sg43
g21
sg44
I109
sg45
Vlaw
p1138
sg47
I109
sg48
I638
sbag0
(g23
g2
Ntp1139
Rp1140
(dp1141
g27
(dp1142
g29
V-lrb-
p1143
sg31
VO
p1144
sg33
V-LRB-
p1145
sg35
I16
ssg10
I110
sg36
g4
sg37
(dp1146
sg39
(dp1147
sg41
I639
sg42
g21
sg43
g21
sg44
I110
sg45
V(
p1148
sg47
I110
sg48
I640
sbag0
(g23
g2
Ntp1149
Rp1150
(dp1151
g27
(dp1152
g29
Vas
p1153
sg31
VO
p1154
sg33
VIN
p1155
sg35
I17
ssg10
I111
sg36
g4
sg37
(dp1156
sg39
(dp1157
sg41
I640
sg42
g21
sg43
g21
sg44
I111
sg45
Vas
p1158
sg47
I111
sg48
I642
sbag0
(g23
g2
Ntp1159
Rp1160
(dp1161
g27
(dp1162
g29
Voppose
p1163
sg31
VO
p1164
sg33
VVBN
p1165
sg35
I18
ssg10
I112
sg36
g4
sg37
(dp1166
sg39
(dp1167
sg41
I643
sg42
g21
sg43
g21
sg44
I112
sg45
Vopposed
p1168
sg47
I112
sg48
I650
sbag0
(g23
g2
Ntp1169
Rp1170
(dp1171
g27
(dp1172
g29
Vto
p1173
sg31
VO
p1174
sg33
VTO
p1175
sg35
I19
ssg10
I113
sg36
g4
sg37
(dp1176
sg39
(dp1177
sg41
I651
sg42
g21
sg43
g21
sg44
I113
sg45
Vto
p1178
sg47
I113
sg48
I653
sbag0
(g23
g2
Ntp1179
Rp1180
(dp1181
g27
(dp1182
g29
Vcustom
p1183
sg31
VO
p1184
sg33
VNN
p1185
sg35
I20
ssg10
I114
sg36
g4
sg37
(dp1186
sg39
(dp1187
sg41
I654
sg42
g21
sg43
g21
sg44
I114
sg45
Vcustom
p1188
sg47
I114
sg48
I660
sbag0
(g23
g2
Ntp1189
Rp1190
(dp1191
g27
(dp1192
g29
Vor
p1193
sg31
VO
p1194
sg33
VCC
p1195
sg35
I21
ssg10
I115
sg36
g4
sg37
(dp1196
sg39
(dp1197
sg41
I661
sg42
g21
sg43
g21
sg44
I115
sg45
Vor
p1198
sg47
I115
sg48
I663
sbag0
(g23
g2
Ntp1199
Rp1200
(dp1201
g27
(dp1202
g29
Veconomic
p1203
sg31
VO
p1204
sg33
VJJ
p1205
sg35
I22
ssg10
I116
sg36
g4
sg37
(dp1206
sg39
(dp1207
sg41
I664
sg42
g21
sg43
g21
sg44
I116
sg45
Veconomic
p1208
sg47
I116
sg48
I672
sbag0
(g23
g2
Ntp1209
Rp1210
(dp1211
g27
(dp1212
g29
Vnecessity
p1213
sg31
VO
p1214
sg33
VNN
p1215
sg35
I23
ssg10
I117
sg36
g4
sg37
(dp1216
sg39
(dp1217
sg41
I673
sg42
g21
sg43
g21
sg44
I117
sg45
Vnecessity
p1218
sg47
I117
sg48
I682
sbag0
(g23
g2
Ntp1219
Rp1220
(dp1221
g27
(dp1222
g29
Vby
p1223
sg31
VO
p1224
sg33
VIN
p1225
sg35
I24
ssg10
I118
sg36
g4
sg37
(dp1226
sg39
(dp1227
sg41
I683
sg42
g21
sg43
g21
sg44
I118
sg45
Vby
p1228
sg47
I118
sg48
I685
sbag0
(g23
g2
Ntp1229
Rp1230
(dp1231
g27
(dp1232
g29
Vthemselves
p1233
sg31
VO
p1234
sg33
VPRP
p1235
sg35
I25
ssg10
I119
sg36
g4
sg37
(dp1236
sg39
(dp1237
sg41
I686
sg42
g21
sg43
g21
sg44
I119
sg45
Vthemselves
p1238
sg47
I119
sg48
I696
sbag0
(g23
g2
Ntp1239
Rp1240
(dp1241
g27
(dp1242
g29
V-rrb-
p1243
sg31
VO
p1244
sg33
V-RRB-
p1245
sg35
I26
ssg10
I120
sg36
g4
sg37
(dp1246
sg39
(dp1247
sg41
I696
sg42
g21
sg43
g21
sg44
I120
sg45
V)
p1248
sg47
I120
sg48
I697
sbag0
(g23
g2
Ntp1249
Rp1250
(dp1251
g27
(dp1252
g29
Vdictate
p1253
sg31
VO
p1254
sg33
VVBZ
p1255
sg35
I27
ssg10
I121
sg36
g4
sg37
(dp1256
sg39
(dp1257
sg41
I698
sg42
g21
sg43
g21
sg44
I121
sg45
Vdictates
p1258
sg47
I121
sg48
I706
sbag0
(g23
g2
Ntp1259
Rp1260
(dp1261
g27
(dp1262
g29
Vthat
p1263
sg31
VO
p1264
sg33
VIN
p1265
sg35
I28
ssg10
I122
sg36
g4
sg37
(dp1266
sg39
(dp1267
sg41
I707
sg42
g21
sg43
g21
sg44
I122
sg45
Vthat
p1268
sg47
I122
sg48
I711
sbag0
(g23
g2
Ntp1269
Rp1270
(dp1271
g27
(dp1272
g29
Vcertain
p1273
sg31
VO
p1274
sg33
VJJ
p1275
sg35
I29
ssg10
I123
sg36
g4
sg37
(dp1276
sg39
(dp1277
sg41
I712
sg42
g21
sg43
g21
sg44
I123
sg45
Vcertain
p1278
sg47
I123
sg48
I719
sbag0
(g23
g2
Ntp1279
Rp1280
(dp1281
g27
(dp1282
g29
Vpeople
p1283
sg31
VO
p1284
sg33
VNNS
p1285
sg35
I30
ssg10
I124
sg36
g4
sg37
(dp1286
sg39
(dp1287
sg41
I720
sg42
g21
sg43
g21
sg44
I124
sg45
Vpeople
p1288
sg47
I124
sg48
I726
sbag0
(g23
g2
Ntp1289
Rp1290
(dp1291
g27
(dp1292
g29
Vwill
p1293
sg31
VO
p1294
sg33
VMD
p1295
sg35
I31
ssg10
I125
sg36
g4
sg37
(dp1296
sg39
(dp1297
sg41
I727
sg42
g21
sg43
g21
sg44
I125
sg45
Vwill
p1298
sg47
I125
sg48
I731
sbag0
(g23
g2
Ntp1299
Rp1300
(dp1301
g27
(dp1302
g29
Vwork
p1303
sg31
VO
p1304
sg33
VVB
p1305
sg35
I32
ssg10
I126
sg36
g4
sg37
(dp1306
sg39
(dp1307
sg41
I732
sg42
g21
sg43
g21
sg44
I126
sg45
Vwork
p1308
sg47
I126
sg48
I736
sbag0
(g23
g2
Ntp1309
Rp1310
(dp1311
g27
(dp1312
g29
Vfor
p1313
sg31
VO
p1314
sg33
VIN
p1315
sg35
I33
ssg10
I127
sg36
g4
sg37
(dp1316
sg39
(dp1317
sg41
I737
sg42
g21
sg43
g21
sg44
I127
sg45
Vfor
p1318
sg47
I127
sg48
I740
sbag0
(g23
g2
Ntp1319
Rp1320
(dp1321
g27
(dp1322
g29
Vother
p1323
sg31
VO
p1324
sg33
VNNS
p1325
sg35
I34
ssg10
I128
sg36
g4
sg37
(dp1326
sg39
(dp1327
sg41
I741
sg42
g21
sg43
g21
sg44
I128
sg45
Vothers
p1328
sg47
I128
sg48
I747
sbag0
(g23
g2
Ntp1329
Rp1330
(dp1331
g27
(dp1332
g29
V,
p1333
sg31
VO
p1334
sg33
V,
p1335
sg35
I35
ssg10
I129
sg36
g4
sg37
(dp1336
sg39
(dp1337
sg41
I747
sg42
g21
sg43
g21
sg44
I129
sg45
V,
p1338
sg47
I129
sg48
I748
sbag0
(g23
g2
Ntp1339
Rp1340
(dp1341
g27
(dp1342
g29
Vwho
p1343
sg31
VO
p1344
sg33
VWP
p1345
sg35
I36
ssg10
I130
sg36
g4
sg37
(dp1346
sg39
(dp1347
sg41
I749
sg42
g21
sg43
g21
sg44
I130
sg45
Vwho
p1348
sg47
I130
sg48
I752
sbag0
(g23
g2
Ntp1349
Rp1350
(dp1351
g27
(dp1352
g29
Vlikewise
p1353
sg31
VO
p1354
sg33
VRB
p1355
sg35
I37
ssg10
I131
sg36
g4
sg37
(dp1356
sg39
(dp1357
sg41
I753
sg42
g21
sg43
g21
sg44
I131
sg45
Vlikewise
p1358
sg47
I131
sg48
I761
sbag0
(g23
g2
Ntp1359
Rp1360
(dp1361
g27
(dp1362
g29
Vmust
p1363
sg31
VO
p1364
sg33
VMD
p1365
sg35
I38
ssg10
I132
sg36
g4
sg37
(dp1366
sg39
(dp1367
sg41
I762
sg42
g21
sg43
g21
sg44
I132
sg45
Vmust
p1368
sg47
I132
sg48
I766
sbag0
(g23
g2
Ntp1369
Rp1370
(dp1371
g27
(dp1372
g29
Vtake
p1373
sg31
VO
p1374
sg33
VVB
p1375
sg35
I39
ssg10
I133
sg36
g4
sg37
(dp1376
sg39
(dp1377
sg41
I767
sg42
g21
sg43
g21
sg44
I133
sg45
Vtake
p1378
sg47
I133
sg48
I771
sbag0
(g23
g2
Ntp1379
Rp1380
(dp1381
g27
(dp1382
g29
Vcare
p1383
sg31
VO
p1384
sg33
VNN
p1385
sg35
I40
ssg10
I134
sg36
g4
sg37
(dp1386
sg39
(dp1387
sg41
I772
sg42
g21
sg43
g21
sg44
I134
sg45
Vcare
p1388
sg47
I134
sg48
I776
sbag0
(g23
g2
Ntp1389
Rp1390
(dp1391
g27
(dp1392
g29
Vof
p1393
sg31
VO
p1394
sg33
VIN
p1395
sg35
I41
ssg10
I135
sg36
g4
sg37
(dp1396
sg39
(dp1397
sg41
I777
sg42
g21
sg43
g21
sg44
I135
sg45
Vof
p1398
sg47
I135
sg48
I779
sbag0
(g23
g2
Ntp1399
Rp1400
(dp1401
g27
(dp1402
g29
Vthey
p1403
sg31
VO
p1404
sg33
VPRP
p1405
sg35
I42
ssg10
I136
sg36
g4
sg37
(dp1406
sg39
(dp1407
sg41
I780
sg42
g21
sg43
g21
sg44
I136
sg45
Vthem
p1408
sg47
I136
sg48
I784
sbag0
(g23
g2
Ntp1409
Rp1410
(dp1411
g27
(dp1412
g29
V,
p1413
sg31
VO
p1414
sg33
V,
p1415
sg35
I43
ssg10
I137
sg36
g4
sg37
(dp1416
sg39
(dp1417
sg41
I784
sg42
g21
sg43
g21
sg44
I137
sg45
V,
p1418
sg47
I137
sg48
I785
sbag0
(g23
g2
Ntp1419
Rp1420
(dp1421
g27
(dp1422
g29
Vand
p1423
sg31
VO
p1424
sg33
VCC
p1425
sg35
I44
ssg10
I138
sg36
g4
sg37
(dp1426
sg39
(dp1427
sg41
I786
sg42
g21
sg43
g21
sg44
I138
sg45
Vand
p1428
sg47
I138
sg48
I789
sbag0
(g23
g2
Ntp1429
Rp1430
(dp1431
g27
(dp1432
g29
Vso
p1433
sg31
VO
p1434
sg33
VIN
p1435
sg35
I45
ssg10
I139
sg36
g4
sg37
(dp1436
sg39
(dp1437
sg41
I790
sg42
g21
sg43
g21
sg44
I139
sg45
Vso
p1438
sg47
I139
sg48
I792
sbag0
(g23
g2
Ntp1439
Rp1440
(dp1441
g27
(dp1442
g29
Vthe
p1443
sg31
VO
p1444
sg33
VDT
p1445
sg35
I46
ssg10
I140
sg36
g4
sg37
(dp1446
sg39
(dp1447
sg41
I793
sg42
g21
sg43
g21
sg44
I140
sg45
Vthe
p1448
sg47
I140
sg48
I796
sbag0
(g23
g2
Ntp1449
Rp1450
(dp1451
g27
(dp1452
g29
Vwelfare
p1453
sg31
VO
p1454
sg33
VNN
p1455
sg35
I47
ssg10
I141
sg36
g4
sg37
(dp1456
sg39
(dp1457
sg41
I797
sg42
g21
sg43
g21
sg44
I141
sg45
Vwelfare
p1458
sg47
I141
sg48
I804
sbag0
(g23
g2
Ntp1459
Rp1460
(dp1461
g27
(dp1462
g29
Vstate
p1463
sg31
VO
p1464
sg33
VNN
p1465
sg35
I48
ssg10
I142
sg36
g4
sg37
(dp1466
sg39
(dp1467
sg41
I805
sg42
g21
sg43
g21
sg44
I142
sg45
Vstate
p1468
sg47
I142
sg48
I810
sbag0
(g23
g2
Ntp1469
Rp1470
(dp1471
g27
(dp1472
g29
Vmay
p1473
sg31
VO
p1474
sg33
VMD
p1475
sg35
I49
ssg10
I143
sg36
g4
sg37
(dp1476
sg39
(dp1477
sg41
I811
sg42
g21
sg43
g21
sg44
I143
sg45
Vmay
p1478
sg47
I143
sg48
I814
sbag0
(g23
g2
Ntp1479
Rp1480
(dp1481
g27
(dp1482
g29
Vlead
p1483
sg31
VO
p1484
sg33
VVB
p1485
sg35
I50
ssg10
I144
sg36
g4
sg37
(dp1486
sg39
(dp1487
sg41
I815
sg42
g21
sg43
g21
sg44
I144
sg45
Vlead
p1488
sg47
I144
sg48
I819
sbag0
(g23
g2
Ntp1489
Rp1490
(dp1491
g27
(dp1492
g29
Vto
p1493
sg31
VO
p1494
sg33
VTO
p1495
sg35
I51
ssg10
I145
sg36
g4
sg37
(dp1496
sg39
(dp1497
sg41
I820
sg42
g21
sg43
g21
sg44
I145
sg45
Vto
p1498
sg47
I145
sg48
I822
sbag0
(g23
g2
Ntp1499
Rp1500
(dp1501
g27
(dp1502
g29
Va
p1503
sg31
VO
p1504
sg33
VDT
p1505
sg35
I52
ssg10
I146
sg36
g4
sg37
(dp1506
sg39
(dp1507
sg41
I823
sg42
g21
sg43
g21
sg44
I146
sg45
Va
p1508
sg47
I146
sg48
I824
sbag0
(g23
g2
Ntp1509
Rp1510
(dp1511
g27
(dp1512
g29
Vkind
p1513
sg31
VO
p1514
sg33
VNN
p1515
sg35
I53
ssg10
I147
sg36
g4
sg37
(dp1516
sg39
(dp1517
sg41
I825
sg42
g21
sg43
g21
sg44
I147
sg45
Vkind
p1518
sg47
I147
sg48
I829
sbag0
(g23
g2
Ntp1519
Rp1520
(dp1521
g27
(dp1522
g29
Vof
p1523
sg31
VO
p1524
sg33
VIN
p1525
sg35
I54
ssg10
I148
sg36
g4
sg37
(dp1526
sg39
(dp1527
sg41
I830
sg42
g21
sg43
g21
sg44
I148
sg45
Vof
p1528
sg47
I148
sg48
I832
sbag0
(g23
g2
Ntp1529
Rp1530
(dp1531
g27
(dp1532
g29
Vserfdom
p1533
sg31
VO
p1534
sg33
VNN
p1535
sg35
I55
ssg10
I149
sg36
g4
sg37
(dp1536
sg39
(dp1537
sg41
I833
sg42
g21
sg43
g21
sg44
I149
sg45
Vserfdom
p1538
sg47
I149
sg48
I840
sbag0
(g23
g2
Ntp1539
Rp1540
(dp1541
g27
(dp1542
g29
V,
p1543
sg31
VO
p1544
sg33
V,
p1545
sg35
I56
ssg10
I150
sg36
g4
sg37
(dp1546
sg39
(dp1547
sg41
I840
sg42
g21
sg43
g21
sg44
I150
sg45
V,
p1548
sg47
I150
sg48
I841
sbag0
(g23
g2
Ntp1549
Rp1550
(dp1551
g27
(dp1552
g29
Vin
p1553
sg31
VO
p1554
sg33
VIN
p1555
sg35
I57
ssg10
I151
sg36
g4
sg37
(dp1556
sg39
(dp1557
sg41
I842
sg42
g21
sg43
g21
sg44
I151
sg45
Vin
p1558
sg47
I151
sg48
I844
sbag0
(g23
g2
Ntp1559
Rp1560
(dp1561
g27
(dp1562
g29
Vwhich
p1563
sg31
VO
p1564
sg33
VWDT
p1565
sg35
I58
ssg10
I152
sg36
g4
sg37
(dp1566
sg39
(dp1567
sg41
I845
sg42
g21
sg43
g21
sg44
I152
sg45
Vwhich
p1568
sg47
I152
sg48
I850
sbag0
(g23
g2
Ntp1569
Rp1570
(dp1571
g27
(dp1572
g29
Vone
p1573
sg31
VNUMBER
p1574
sg33
VCD
p1575
sg35
I59
ssg10
I153
sg36
g4
sg37
(dp1576
sg39
(dp1577
sg41
I851
sg42
g21
sg43
g21
sg44
I153
sg45
Vone
p1578
sg47
I153
sg48
I854
sbag0
(g23
g2
Ntp1579
Rp1580
(dp1581
g27
(dp1582
g29
Vgroup
p1583
sg31
VO
p1584
sg33
VNN
p1585
sg35
I60
ssg10
I154
sg36
g4
sg37
(dp1586
sg39
(dp1587
sg41
I855
sg42
g21
sg43
g21
sg44
I154
sg45
Vgroup
p1588
sg47
I154
sg48
I860
sbag0
(g23
g2
Ntp1589
Rp1590
(dp1591
g27
(dp1592
g29
Vwork
p1593
sg31
VO
p1594
sg33
VVBZ
p1595
sg35
I61
ssg10
I155
sg36
g4
sg37
(dp1596
sg39
(dp1597
sg41
I861
sg42
g21
sg43
g21
sg44
I155
sg45
Vworks
p1598
sg47
I155
sg48
I866
sbag0
(g23
g2
Ntp1599
Rp1600
(dp1601
g27
(dp1602
g29
Vto
p1603
sg31
VO
p1604
sg33
VTO
p1605
sg35
I62
ssg10
I156
sg36
g4
sg37
(dp1606
sg39
(dp1607
sg41
I867
sg42
g21
sg43
g21
sg44
I156
sg45
Vto
p1608
sg47
I156
sg48
I869
sbag0
(g23
g2
Ntp1609
Rp1610
(dp1611
g27
(dp1612
g29
Vsupport
p1613
sg31
VO
p1614
sg33
VVB
p1615
sg35
I63
ssg10
I157
sg36
g4
sg37
(dp1616
sg39
(dp1617
sg41
I870
sg42
g21
sg43
g21
sg44
I157
sg45
Vsupport
p1618
sg47
I157
sg48
I877
sbag0
(g23
g2
Ntp1619
Rp1620
(dp1621
g27
(dp1622
g29
Vanother
p1623
sg31
VO
p1624
sg33
VDT
p1625
sg35
I64
ssg10
I158
sg36
g4
sg37
(dp1626
sg39
(dp1627
sg41
I878
sg42
g21
sg43
g21
sg44
I158
sg45
Vanother
p1628
sg47
I158
sg48
I885
sbag0
(g23
g2
Ntp1629
Rp1630
(dp1631
g27
(dp1632
g29
Vgroup
p1633
sg31
VO
p1634
sg33
VNN
p1635
sg35
I65
ssg10
I159
sg36
g4
sg37
(dp1636
sg39
(dp1637
sg41
I886
sg42
g21
sg43
g21
sg44
I159
sg45
Vgroup
p1638
sg47
I159
sg48
I891
sbag0
(g23
g2
Ntp1639
Rp1640
(dp1641
g27
(dp1642
g29
Vthat
p1643
sg31
VO
p1644
sg33
VWDT
p1645
sg35
I66
ssg10
I160
sg36
g4
sg37
(dp1646
sg39
(dp1647
sg41
I892
sg42
g21
sg43
g21
sg44
I160
sg45
Vthat
p1648
sg47
I160
sg48
I896
sbag0
(g23
g2
Ntp1649
Rp1650
(dp1651
g27
(dp1652
g29
Vdo
p1653
sg31
VO
p1654
sg33
VVBZ
p1655
sg35
I67
ssg10
I161
sg36
g4
sg37
(dp1656
sg39
(dp1657
sg41
I897
sg42
g21
sg43
g21
sg44
I161
sg45
Vdoes
p1658
sg47
I161
sg48
I901
sbag0
(g23
g2
Ntp1659
Rp1660
(dp1661
g27
(dp1662
g29
Vnot
p1663
sg31
VO
p1664
sg33
VRB
p1665
sg35
I68
ssg10
I162
sg36
g4
sg37
(dp1666
sg39
(dp1667
sg41
I902
sg42
g21
sg43
g21
sg44
I162
sg45
Vnot
p1668
sg47
I162
sg48
I905
sbag0
(g23
g2
Ntp1669
Rp1670
(dp1671
g27
(dp1672
g29
Vwork
p1673
sg31
VO
p1674
sg33
VVB
p1675
sg35
I69
ssg10
I163
sg36
g4
sg37
(dp1676
sg39
(dp1677
sg41
I906
sg42
g21
sg43
g21
sg44
I163
sg45
Vwork
p1678
sg47
I163
sg48
I910
sbag0
(g23
g2
Ntp1679
Rp1680
(dp1681
g27
(dp1682
g29
V.
p1683
sg31
VO
p1684
sg33
V.
p1685
sg35
I70
ssg10
I164
sg36
g4
sg37
(dp1686
sg39
(dp1687
sg41
I910
sg42
g21
sg43
g21
sg44
I164
sg45
V.
p1688
sg47
I164
sg48
I911
sbag0
(g23
g2
Ntp1689
Rp1690
(dp1691
g27
(dp1692
g29
Vsome
p1693
sg31
VO
p1694
sg33
VDT
p1695
sg35
I1
ssg10
I165
sg36
g4
sg37
(dp1696
sg39
(dp1697
sg41
I914
sg42
g21
sg43
g21
sg44
I165
sg45
VSome
p1698
sg47
I165
sg48
I918
sbag0
(g23
g2
Ntp1699
Rp1700
(dp1701
g27
(dp1702
g29
Vconservative
p1703
sg31
VO
p1704
sg33
VNNS
p1705
sg35
I2
ssg10
I166
sg36
g4
sg37
(dp1706
sg39
(dp1707
sg41
I919
sg42
g21
sg43
g21
sg44
I166
sg45
Vconservatives
p1708
sg47
I166
sg48
I932
sbag0
(g23
g2
Ntp1709
Rp1710
(dp1711
g27
(dp1712
g29
Vin
p1713
sg31
VO
p1714
sg33
VIN
p1715
sg35
I3
ssg10
I167
sg36
g4
sg37
(dp1716
sg39
(dp1717
sg41
I933
sg42
g21
sg43
g21
sg44
I167
sg45
Vin
p1718
sg47
I167
sg48
I935
sbag0
(g23
g2
Ntp1719
Rp1720
(dp1721
g27
(dp1722
g29
Vthe
p1723
sg31
VO
p1724
sg33
VDT
p1725
sg35
I4
ssg10
I168
sg36
g4
sg37
(dp1726
sg39
(dp1727
sg41
I936
sg42
g21
sg43
g21
sg44
I168
sg45
Vthe
p1728
sg47
I168
sg48
I939
sbag0
(g23
g2
Ntp1729
Rp1730
(dp1731
g27
(dp1732
g29
VUK
p1733
sg31
VLOCATION
p1734
sg33
VNNP
p1735
sg35
I5
ssg10
I169
sg36
g4
sg37
(dp1736
sg39
(dp1737
sg41
I940
sg42
g21
sg43
g21
sg44
I169
sg45
VUK
p1738
sg47
I169
sg48
I942
sbag0
(g23
g2
Ntp1739
Rp1740
(dp1741
g27
(dp1742
g29
Vclaim
p1743
sg31
VO
p1744
sg33
VNN
p1745
sg35
I6
ssg10
I170
sg36
g4
sg37
(dp1746
sg39
(dp1747
sg41
I943
sg42
g21
sg43
g21
sg44
I170
sg45
Vclaim
p1748
sg47
I170
sg48
I948
sbag0
(g23
g2
Ntp1749
Rp1750
(dp1751
g27
(dp1752
g29
Vthat
p1753
sg31
VO
p1754
sg33
VIN
p1755
sg35
I7
ssg10
I171
sg36
g4
sg37
(dp1756
sg39
(dp1757
sg41
I949
sg42
g21
sg43
g21
sg44
I171
sg45
Vthat
p1758
sg47
I171
sg48
I953
sbag0
(g23
g2
Ntp1759
Rp1760
(dp1761
g27
(dp1762
g29
Vthe
p1763
sg31
VO
p1764
sg33
VDT
p1765
sg35
I8
ssg10
I172
sg36
g4
sg37
(dp1766
sg39
(dp1767
sg41
I954
sg42
g21
sg43
g21
sg44
I172
sg45
Vthe
p1768
sg47
I172
sg48
I957
sbag0
(g23
g2
Ntp1769
Rp1770
(dp1771
g27
(dp1772
g29
Vwelfare
p1773
sg31
VO
p1774
sg33
VNN
p1775
sg35
I9
ssg10
I173
sg36
g4
sg37
(dp1776
sg39
(dp1777
sg41
I958
sg42
g21
sg43
g21
sg44
I173
sg45
Vwelfare
p1778
sg47
I173
sg48
I965
sbag0
(g23
g2
Ntp1779
Rp1780
(dp1781
g27
(dp1782
g29
Vstate
p1783
sg31
VO
p1784
sg33
VNN
p1785
sg35
I10
ssg10
I174
sg36
g4
sg37
(dp1786
sg39
(dp1787
sg41
I966
sg42
g21
sg43
g21
sg44
I174
sg45
Vstate
p1788
sg47
I174
sg48
I971
sbag0
(g23
g2
Ntp1789
Rp1790
(dp1791
g27
(dp1792
g29
Vhave
p1793
sg31
VO
p1794
sg33
VVBZ
p1795
sg35
I11
ssg10
I175
sg36
g4
sg37
(dp1796
sg39
(dp1797
sg41
I972
sg42
g21
sg43
g21
sg44
I175
sg45
Vhas
p1798
sg47
I175
sg48
I975
sbag0
(g23
g2
Ntp1799
Rp1800
(dp1801
g27
(dp1802
g29
Vproduce
p1803
sg31
VO
p1804
sg33
VVBN
p1805
sg35
I12
ssg10
I176
sg36
g4
sg37
(dp1806
sg39
(dp1807
sg41
I976
sg42
g21
sg43
g21
sg44
I176
sg45
Vproduced
p1808
sg47
I176
sg48
I984
sbag0
(g23
g2
Ntp1809
Rp1810
(dp1811
g27
(dp1812
g29
Va
p1813
sg31
VO
p1814
sg33
VDT
p1815
sg35
I13
ssg10
I177
sg36
g4
sg37
(dp1816
sg39
(dp1817
sg41
I985
sg42
g21
sg43
g21
sg44
I177
sg45
Va
p1818
sg47
I177
sg48
I986
sbag0
(g23
g2
Ntp1819
Rp1820
(dp1821
g27
(dp1822
g29
Vgeneration
p1823
sg31
VO
p1824
sg33
VNN
p1825
sg35
I14
ssg10
I178
sg36
g4
sg37
(dp1826
sg39
(dp1827
sg41
I987
sg42
g21
sg43
g21
sg44
I178
sg45
Vgeneration
p1828
sg47
I178
sg48
I997
sbag0
(g23
g2
Ntp1829
Rp1830
(dp1831
g27
(dp1832
g29
Vof
p1833
sg31
VO
p1834
sg33
VIN
p1835
sg35
I15
ssg10
I179
sg36
g4
sg37
(dp1836
sg39
(dp1837
sg41
I998
sg42
g21
sg43
g21
sg44
I179
sg45
Vof
p1838
sg47
I179
sg48
I1000
sbag0
(g23
g2
Ntp1839
Rp1840
(dp1841
g27
(dp1842
g29
Vdependent
p1843
sg31
VO
p1844
sg33
VNNS
p1845
sg35
I16
ssg10
I180
sg36
g4
sg37
(dp1846
sg39
(dp1847
sg41
I1001
sg42
g21
sg43
g21
sg44
I180
sg45
Vdependents
p1848
sg47
I180
sg48
I1011
sbag0
(g23
g2
Ntp1849
Rp1850
(dp1851
g27
(dp1852
g29
Vwho
p1853
sg31
VO
p1854
sg33
VWP
p1855
sg35
I17
ssg10
I181
sg36
g4
sg37
(dp1856
sg39
(dp1857
sg41
I1012
sg42
g21
sg43
g21
sg44
I181
sg45
Vwho
p1858
sg47
I181
sg48
I1015
sbag0
(g23
g2
Ntp1859
Rp1860
(dp1861
g27
(dp1862
g29
V,
p1863
sg31
VO
p1864
sg33
V,
p1865
sg35
I18
ssg10
I182
sg36
g4
sg37
(dp1866
sg39
(dp1867
sg41
I1015
sg42
g21
sg43
g21
sg44
I182
sg45
V,
p1868
sg47
I182
sg48
I1016
sbag0
(g23
g2
Ntp1869
Rp1870
(dp1871
g27
(dp1872
g29
Vinstead
p1873
sg31
VO
p1874
sg33
VRB
p1875
sg35
I19
ssg10
I183
sg36
g4
sg37
(dp1876
sg39
(dp1877
sg41
I1017
sg42
g21
sg43
g21
sg44
I183
sg45
Vinstead
p1878
sg47
I183
sg48
I1024
sbag0
(g23
g2
Ntp1879
Rp1880
(dp1881
g27
(dp1882
g29
Vof
p1883
sg31
VO
p1884
sg33
VIN
p1885
sg35
I20
ssg10
I184
sg36
g4
sg37
(dp1886
sg39
(dp1887
sg41
I1025
sg42
g21
sg43
g21
sg44
I184
sg45
Vof
p1888
sg47
I184
sg48
I1027
sbag0
(g23
g2
Ntp1889
Rp1890
(dp1891
g27
(dp1892
g29
Vwork
p1893
sg31
VO
p1894
sg33
VVBG
p1895
sg35
I21
ssg10
I185
sg36
g4
sg37
(dp1896
sg39
(dp1897
sg41
I1028
sg42
g21
sg43
g21
sg44
I185
sg45
Vworking
p1898
sg47
I185
sg48
I1035
sbag0
(g23
g2
Ntp1899
Rp1900
(dp1901
g27
(dp1902
g29
V,
p1903
sg31
VO
p1904
sg33
V,
p1905
sg35
I22
ssg10
I186
sg36
g4
sg37
(dp1906
sg39
(dp1907
sg41
I1035
sg42
g21
sg43
g21
sg44
I186
sg45
V,
p1908
sg47
I186
sg48
I1036
sbag0
(g23
g2
Ntp1909
Rp1910
(dp1911
g27
(dp1912
g29
Vrely
p1913
sg31
VO
p1914
sg33
VVBP
p1915
sg35
I23
ssg10
I187
sg36
g4
sg37
(dp1916
sg39
(dp1917
sg41
I1037
sg42
g21
sg43
g21
sg44
I187
sg45
Vrely
p1918
sg47
I187
sg48
I1041
sbag0
(g23
g2
Ntp1919
Rp1920
(dp1921
g27
(dp1922
g29
Vsolely
p1923
sg31
VO
p1924
sg33
VRB
p1925
sg35
I24
ssg10
I188
sg36
g4
sg37
(dp1926
sg39
(dp1927
sg41
I1042
sg42
g21
sg43
g21
sg44
I188
sg45
Vsolely
p1928
sg47
I188
sg48
I1048
sbag0
(g23
g2
Ntp1929
Rp1930
(dp1931
g27
(dp1932
g29
Vupon
p1933
sg31
VO
p1934
sg33
VIN
p1935
sg35
I25
ssg10
I189
sg36
g4
sg37
(dp1936
sg39
(dp1937
sg41
I1049
sg42
g21
sg43
g21
sg44
I189
sg45
Vupon
p1938
sg47
I189
sg48
I1053
sbag0
(g23
g2
Ntp1939
Rp1940
(dp1941
g27
(dp1942
g29
Vthe
p1943
sg31
VO
p1944
sg33
VDT
p1945
sg35
I26
ssg10
I190
sg36
g4
sg37
(dp1946
sg39
(dp1947
sg41
I1054
sg42
g21
sg43
g21
sg44
I190
sg45
Vthe
p1948
sg47
I190
sg48
I1057
sbag0
(g23
g2
Ntp1949
Rp1950
(dp1951
g27
(dp1952
g29
Vstate
p1953
sg31
VO
p1954
sg33
VNN
p1955
sg35
I27
ssg10
I191
sg36
g4
sg37
(dp1956
sg39
(dp1957
sg41
I1058
sg42
g21
sg43
g21
sg44
I191
sg45
Vstate
p1958
sg47
I191
sg48
I1063
sbag0
(g23
g2
Ntp1959
Rp1960
(dp1961
g27
(dp1962
g29
Vfor
p1963
sg31
VO
p1964
sg33
VIN
p1965
sg35
I28
ssg10
I192
sg36
g4
sg37
(dp1966
sg39
(dp1967
sg41
I1064
sg42
g21
sg43
g21
sg44
I192
sg45
Vfor
p1968
sg47
I192
sg48
I1067
sbag0
(g23
g2
Ntp1969
Rp1970
(dp1971
g27
(dp1972
g29
Vincome
p1973
sg31
VO
p1974
sg33
VNN
p1975
sg35
I29
ssg10
I193
sg36
g4
sg37
(dp1976
sg39
(dp1977
sg41
I1068
sg42
g21
sg43
g21
sg44
I193
sg45
Vincome
p1978
sg47
I193
sg48
I1074
sbag0
(g23
g2
Ntp1979
Rp1980
(dp1981
g27
(dp1982
g29
Vand
p1983
sg31
VO
p1984
sg33
VCC
p1985
sg35
I30
ssg10
I194
sg36
g4
sg37
(dp1986
sg39
(dp1987
sg41
I1075
sg42
g21
sg43
g21
sg44
I194
sg45
Vand
p1988
sg47
I194
sg48
I1078
sbag0
(g23
g2
Ntp1989
Rp1990
(dp1991
g27
(dp1992
g29
Vsupport
p1993
sg31
VO
p1994
sg33
VNN
p1995
sg35
I31
ssg10
I195
sg36
g4
sg37
(dp1996
sg39
(dp1997
sg41
I1079
sg42
g21
sg43
g21
sg44
I195
sg45
Vsupport
p1998
sg47
I195
sg48
I1086
sbag0
(g23
g2
Ntp1999
Rp2000
(dp2001
g27
(dp2002
g29
V;
p2003
sg31
VO
p2004
sg33
V:
p2005
sg35
I32
ssg10
I196
sg36
g4
sg37
(dp2006
sg39
(dp2007
sg41
I1086
sg42
g21
sg43
g21
sg44
I196
sg45
V;
p2008
sg47
I196
sg48
I1087
sbag0
(g23
g2
Ntp2009
Rp2010
(dp2011
g27
(dp2012
g29
Veven
p2013
sg31
VO
p2014
sg33
VRB
p2015
sg35
I33
ssg10
I197
sg36
g4
sg37
(dp2016
sg39
(dp2017
sg41
I1088
sg42
g21
sg43
g21
sg44
I197
sg45
Veven
p2018
sg47
I197
sg48
I1092
sbag0
(g23
g2
Ntp2019
Rp2020
(dp2021
g27
(dp2022
g29
Vthough
p2023
sg31
VO
p2024
sg33
VIN
p2025
sg35
I34
ssg10
I198
sg36
g4
sg37
(dp2026
sg39
(dp2027
sg41
I1093
sg42
g21
sg43
g21
sg44
I198
sg45
Vthough
p2028
sg47
I198
sg48
I1099
sbag0
(g23
g2
Ntp2029
Rp2030
(dp2031
g27
(dp2032
g29
Vassistance
p2033
sg31
VO
p2034
sg33
VNN
p2035
sg35
I35
ssg10
I199
sg36
g4
sg37
(dp2036
sg39
(dp2037
sg41
I1100
sg42
g21
sg43
g21
sg44
I199
sg45
Vassistance
p2038
sg47
I199
sg48
I1110
sbag0
(g23
g2
Ntp2039
Rp2040
(dp2041
g27
(dp2042
g29
Vbe
p2043
sg31
VO
p2044
sg33
VVBZ
p2045
sg35
I36
ssg10
I200
sg36
g4
sg37
(dp2046
sg39
(dp2047
sg41
I1103
sg42
g21
sg43
g21
sg44
I200
sg45
Vis
p2048
sg47
I200
sg48
I1105
sbag0
(g23
g2
Ntp2049
Rp2050
(dp2051
g27
(dp2052
g29
Vonly
p2053
sg31
VO
p2054
sg33
VRB
p2055
sg35
I37
ssg10
I201
sg36
g4
sg37
(dp2056
sg39
(dp2057
sg41
I1114
sg42
g21
sg43
g21
sg44
I201
sg45
Vonly
p2058
sg47
I201
sg48
I1118
sbag0
(g23
g2
Ntp2059
Rp2060
(dp2061
g27
(dp2062
g29
Vlegally
p2063
sg31
VO
p2064
sg33
VRB
p2065
sg35
I38
ssg10
I202
sg36
g4
sg37
(dp2066
sg39
(dp2067
sg41
I1119
sg42
g21
sg43
g21
sg44
I202
sg45
Vlegally
p2068
sg47
I202
sg48
I1126
sbag0
(g23
g2
Ntp2069
Rp2070
(dp2071
g27
(dp2072
g29
Vavailable
p2073
sg31
VO
p2074
sg33
VJJ
p2075
sg35
I39
ssg10
I203
sg36
g4
sg37
(dp2076
sg39
(dp2077
sg41
I1127
sg42
g21
sg43
g21
sg44
I203
sg45
Vavailable
p2078
sg47
I203
sg48
I1136
sbag0
(g23
g2
Ntp2079
Rp2080
(dp2081
g27
(dp2082
g29
Vto
p2083
sg31
VO
p2084
sg33
VTO
p2085
sg35
I40
ssg10
I204
sg36
g4
sg37
(dp2086
sg39
(dp2087
sg41
I1137
sg42
g21
sg43
g21
sg44
I204
sg45
Vto
p2088
sg47
I204
sg48
I1139
sbag0
(g23
g2
Ntp2089
Rp2090
(dp2091
g27
(dp2092
g29
Vthose
p2093
sg31
VO
p2094
sg33
VDT
p2095
sg35
I41
ssg10
I205
sg36
g4
sg37
(dp2096
sg39
(dp2097
sg41
I1140
sg42
g21
sg43
g21
sg44
I205
sg45
Vthose
p2098
sg47
I205
sg48
I1145
sbag0
(g23
g2
Ntp2099
Rp2100
(dp2101
g27
(dp2102
g29
Vunable
p2103
sg31
VO
p2104
sg33
VJJ
p2105
sg35
I42
ssg10
I206
sg36
g4
sg37
(dp2106
sg39
(dp2107
sg41
I1146
sg42
g21
sg43
g21
sg44
I206
sg45
Vunable
p2108
sg47
I206
sg48
I1152
sbag0
(g23
g2
Ntp2109
Rp2110
(dp2111
g27
(dp2112
g29
Vto
p2113
sg31
VO
p2114
sg33
VTO
p2115
sg35
I43
ssg10
I207
sg36
g4
sg37
(dp2116
sg39
(dp2117
sg41
I1153
sg42
g21
sg43
g21
sg44
I207
sg45
Vto
p2118
sg47
I207
sg48
I1155
sbag0
(g23
g2
Ntp2119
Rp2120
(dp2121
g27
(dp2122
g29
Vwork
p2123
sg31
VO
p2124
sg33
VVB
p2125
sg35
I44
ssg10
I208
sg36
g4
sg37
(dp2126
sg39
(dp2127
sg41
I1156
sg42
g21
sg43
g21
sg44
I208
sg45
Vwork
p2128
sg47
I208
sg48
I1160
sbag0
(g23
g2
Ntp2129
Rp2130
(dp2131
g27
(dp2132
g29
V.
p2133
sg31
VO
p2134
sg33
V.
p2135
sg35
I45
ssg10
I209
sg36
g4
sg37
(dp2136
sg39
(dp2137
sg41
I1160
sg42
g21
sg43
g21
sg44
I209
sg45
V.
p2138
sg47
I209
sg48
I1161
sbag0
(g23
g2
Ntp2139
Rp2140
(dp2141
g27
(dp2142
g29
Vthe
p2143
sg31
VO
p2144
sg33
VDT
p2145
sg35
I1
ssg10
I210
sg36
g4
sg37
(dp2146
sg39
(dp2147
sg41
I1162
sg42
g21
sg43
g21
sg44
I210
sg45
VThe
p2148
sg47
I210
sg48
I1165
sbag0
(g23
g2
Ntp2149
Rp2150
(dp2151
g27
(dp2152
g29
Vwelfare
p2153
sg31
VO
p2154
sg33
VNN
p2155
sg35
I2
ssg10
I211
sg36
g4
sg37
(dp2156
sg39
(dp2157
sg41
I1166
sg42
g21
sg43
g21
sg44
I211
sg45
Vwelfare
p2158
sg47
I211
sg48
I1173
sbag0
(g23
g2
Ntp2159
Rp2160
(dp2161
g27
(dp2162
g29
Vstate
p2163
sg31
VO
p2164
sg33
VNN
p2165
sg35
I3
ssg10
I212
sg36
g4
sg37
(dp2166
sg39
(dp2167
sg41
I1174
sg42
g21
sg43
g21
sg44
I212
sg45
Vstate
p2168
sg47
I212
sg48
I1179
sbag0
(g23
g2
Ntp2169
Rp2170
(dp2171
g27
(dp2172
g29
Vin
p2173
sg31
VO
p2174
sg33
VIN
p2175
sg35
I4
ssg10
I213
sg36
g4
sg37
(dp2176
sg39
(dp2177
sg41
I1180
sg42
g21
sg43
g21
sg44
I213
sg45
Vin
p2178
sg47
I213
sg48
I1182
sbag0
(g23
g2
Ntp2179
Rp2180
(dp2181
g27
(dp2182
g29
Vthe
p2183
sg31
VO
p2184
sg33
VDT
p2185
sg35
I5
ssg10
I214
sg36
g4
sg37
(dp2186
sg39
(dp2187
sg41
I1183
sg42
g21
sg43
g21
sg44
I214
sg45
Vthe
p2188
sg47
I214
sg48
I1186
sbag0
(g23
g2
Ntp2189
Rp2190
(dp2191
g27
(dp2192
g29
VUK
p2193
sg31
VLOCATION
p2194
sg33
VNNP
p2195
sg35
I6
ssg10
I215
sg36
g4
sg37
(dp2196
sg39
(dp2197
sg41
I1187
sg42
g21
sg43
g21
sg44
I215
sg45
VUK
p2198
sg47
I215
sg48
I1189
sbag0
(g23
g2
Ntp2199
Rp2200
(dp2201
g27
(dp2202
g29
Vbe
p2203
sg31
VO
p2204
sg33
VVBD
p2205
sg35
I7
ssg10
I216
sg36
g4
sg37
(dp2206
sg39
(dp2207
sg41
I1190
sg42
g21
sg43
g21
sg44
I216
sg45
Vwas
p2208
sg47
I216
sg48
I1193
sbag0
(g23
g2
Ntp2209
Rp2210
(dp2211
g27
(dp2212
g29
Vcreate
p2213
sg31
VO
p2214
sg33
VVBN
p2215
sg35
I8
ssg10
I217
sg36
g4
sg37
(dp2216
sg39
(dp2217
sg41
I1194
sg42
g21
sg43
g21
sg44
I217
sg45
Vcreated
p2218
sg47
I217
sg48
I1201
sbag0
(g23
g2
Ntp2219
Rp2220
(dp2221
g27
(dp2222
g29
Vto
p2223
sg31
VO
p2224
sg33
VTO
p2225
sg35
I9
ssg10
I218
sg36
g4
sg37
(dp2226
sg39
(dp2227
sg41
I1202
sg42
g21
sg43
g21
sg44
I218
sg45
Vto
p2228
sg47
I218
sg48
I1204
sbag0
(g23
g2
Ntp2229
Rp2230
(dp2231
g27
(dp2232
g29
Vprovide
p2233
sg31
VO
p2234
sg33
VVB
p2235
sg35
I10
ssg10
I219
sg36
g4
sg37
(dp2236
sg39
(dp2237
sg41
I1205
sg42
g21
sg43
g21
sg44
I219
sg45
Vprovide
p2238
sg47
I219
sg48
I1212
sbag0
(g23
g2
Ntp2239
Rp2240
(dp2241
g27
(dp2242
g29
Vcertain
p2243
sg31
VO
p2244
sg33
VJJ
p2245
sg35
I11
ssg10
I220
sg36
g4
sg37
(dp2246
sg39
(dp2247
sg41
I1213
sg42
g21
sg43
g21
sg44
I220
sg45
Vcertain
p2248
sg47
I220
sg48
I1220
sbag0
(g23
g2
Ntp2249
Rp2250
(dp2251
g27
(dp2252
g29
Vpeople
p2253
sg31
VO
p2254
sg33
VNNS
p2255
sg35
I12
ssg10
I221
sg36
g4
sg37
(dp2256
sg39
(dp2257
sg41
I1221
sg42
g21
sg43
g21
sg44
I221
sg45
Vpeople
p2258
sg47
I221
sg48
I1227
sbag0
(g23
g2
Ntp2259
Rp2260
(dp2261
g27
(dp2262
g29
Vwith
p2263
sg31
VO
p2264
sg33
VIN
p2265
sg35
I13
ssg10
I222
sg36
g4
sg37
(dp2266
sg39
(dp2267
sg41
I1228
sg42
g21
sg43
g21
sg44
I222
sg45
Vwith
p2268
sg47
I222
sg48
I1232
sbag0
(g23
g2
Ntp2269
Rp2270
(dp2271
g27
(dp2272
g29
Va
p2273
sg31
VO
p2274
sg33
VDT
p2275
sg35
I14
ssg10
I223
sg36
g4
sg37
(dp2276
sg39
(dp2277
sg41
I1233
sg42
g21
sg43
g21
sg44
I223
sg45
Va
p2278
sg47
I223
sg48
I1234
sbag0
(g23
g2
Ntp2279
Rp2280
(dp2281
g27
(dp2282
g29
Vbasic
p2283
sg31
VO
p2284
sg33
VJJ
p2285
sg35
I15
ssg10
I224
sg36
g4
sg37
(dp2286
sg39
(dp2287
sg41
I1235
sg42
g21
sg43
g21
sg44
I224
sg45
Vbasic
p2288
sg47
I224
sg48
I1240
sbag0
(g23
g2
Ntp2289
Rp2290
(dp2291
g27
(dp2292
g29
Vlevel
p2293
sg31
VO
p2294
sg33
VNN
p2295
sg35
I16
ssg10
I225
sg36
g4
sg37
(dp2296
sg39
(dp2297
sg41
I1241
sg42
g21
sg43
g21
sg44
I225
sg45
Vlevel
p2298
sg47
I225
sg48
I1246
sbag0
(g23
g2
Ntp2299
Rp2300
(dp2301
g27
(dp2302
g29
Vof
p2303
sg31
VO
p2304
sg33
VIN
p2305
sg35
I17
ssg10
I226
sg36
g4
sg37
(dp2306
sg39
(dp2307
sg41
I1247
sg42
g21
sg43
g21
sg44
I226
sg45
Vof
p2308
sg47
I226
sg48
I1249
sbag0
(g23
g2
Ntp2309
Rp2310
(dp2311
g27
(dp2312
g29
Vbenefit
p2313
sg31
VO
p2314
sg33
VNNS
p2315
sg35
I18
ssg10
I227
sg36
g4
sg37
(dp2316
sg39
(dp2317
sg41
I1250
sg42
g21
sg43
g21
sg44
I227
sg45
Vbenefits
p2318
sg47
I227
sg48
I1258
sbag0
(g23
g2
Ntp2319
Rp2320
(dp2321
g27
(dp2322
g29
Vin
p2323
sg31
VO
p2324
sg33
VIN
p2325
sg35
I19
ssg10
I228
sg36
g4
sg37
(dp2326
sg39
(dp2327
sg41
I1259
sg42
g21
sg43
g21
sg44
I228
sg45
Vin
p2328
sg47
I228
sg48
I1261
sbag0
(g23
g2
Ntp2329
Rp2330
(dp2331
g27
(dp2332
g29
Vorder
p2333
sg31
VO
p2334
sg33
VNN
p2335
sg35
I20
ssg10
I229
sg36
g4
sg37
(dp2336
sg39
(dp2337
sg41
I1262
sg42
g21
sg43
g21
sg44
I229
sg45
Vorder
p2338
sg47
I229
sg48
I1267
sbag0
(g23
g2
Ntp2339
Rp2340
(dp2341
g27
(dp2342
g29
Vto
p2343
sg31
VO
p2344
sg33
VTO
p2345
sg35
I21
ssg10
I230
sg36
g4
sg37
(dp2346
sg39
(dp2347
sg41
I1268
sg42
g21
sg43
g21
sg44
I230
sg45
Vto
p2348
sg47
I230
sg48
I1270
sbag0
(g23
g2
Ntp2349
Rp2350
(dp2351
g27
(dp2352
g29
Valleviate
p2353
sg31
VO
p2354
sg33
VVB
p2355
sg35
I22
ssg10
I231
sg36
g4
sg37
(dp2356
sg39
(dp2357
sg41
I1271
sg42
g21
sg43
g21
sg44
I231
sg45
Valleviate
p2358
sg47
I231
sg48
I1280
sbag0
(g23
g2
Ntp2359
Rp2360
(dp2361
g27
(dp2362
g29
Vpoverty
p2363
sg31
VO
p2364
sg33
VNN
p2365
sg35
I23
ssg10
I232
sg36
g4
sg37
(dp2366
sg39
(dp2367
sg41
I1281
sg42
g21
sg43
g21
sg44
I232
sg45
Vpoverty
p2368
sg47
I232
sg48
I1288
sbag0
(g23
g2
Ntp2369
Rp2370
(dp2371
g27
(dp2372
g29
V,
p2373
sg31
VO
p2374
sg33
V,
p2375
sg35
I24
ssg10
I233
sg36
g4
sg37
(dp2376
sg39
(dp2377
sg41
I1288
sg42
g21
sg43
g21
sg44
I233
sg45
V,
p2378
sg47
I233
sg48
I1289
sbag0
(g23
g2
Ntp2379
Rp2380
(dp2381
g27
(dp2382
g29
Vbut
p2383
sg31
VO
p2384
sg33
VCC
p2385
sg35
I25
ssg10
I234
sg36
g4
sg37
(dp2386
sg39
(dp2387
sg41
I1290
sg42
g21
sg43
g21
sg44
I234
sg45
Vbut
p2388
sg47
I234
sg48
I1293
sbag0
(g23
g2
Ntp2389
Rp2390
(dp2391
g27
(dp2392
g29
Vthese
p2393
sg31
VO
p2394
sg33
VDT
p2395
sg35
I26
ssg10
I235
sg36
g4
sg37
(dp2396
sg39
(dp2397
sg41
I1294
sg42
g21
sg43
g21
sg44
I235
sg45
Vthese
p2398
sg47
I235
sg48
I1299
sbag0
(g23
g2
Ntp2399
Rp2400
(dp2401
g27
(dp2402
g29
Vconservative
p2403
sg31
VO
p2404
sg33
VNNS
p2405
sg35
I27
ssg10
I236
sg36
g4
sg37
(dp2406
sg39
(dp2407
sg41
I1300
sg42
g21
sg43
g21
sg44
I236
sg45
Vconservatives
p2408
sg47
I236
sg48
I1313
sbag0
(g23
g2
Ntp2409
Rp2410
(dp2411
g27
(dp2412
g29
Vbelieve
p2413
sg31
VO
p2414
sg33
VVBP
p2415
sg35
I28
ssg10
I237
sg36
g4
sg37
(dp2416
sg39
(dp2417
sg41
I1314
sg42
g21
sg43
g21
sg44
I237
sg45
Vbelieve
p2418
sg47
I237
sg48
I1321
sbag0
(g23
g2
Ntp2419
Rp2420
(dp2421
g27
(dp2422
g29
Vthat
p2423
sg31
VO
p2424
sg33
VIN
p2425
sg35
I29
ssg10
I238
sg36
g4
sg37
(dp2426
sg39
(dp2427
sg41
I1322
sg42
g21
sg43
g21
sg44
I238
sg45
Vthat
p2428
sg47
I238
sg48
I1326
sbag0
(g23
g2
Ntp2429
Rp2430
(dp2431
g27
(dp2432
g29
Vit
p2433
sg31
VO
p2434
sg33
VPRP
p2435
sg35
I30
ssg10
I239
sg36
g4
sg37
(dp2436
sg39
(dp2437
sg41
I1327
sg42
g21
sg43
g21
sg44
I239
sg45
Vit
p2438
sg47
I239
sg48
I1329
sbag0
(g23
g2
Ntp2439
Rp2440
(dp2441
g27
(dp2442
g29
Vhave
p2443
sg31
VO
p2444
sg33
VVBZ
p2445
sg35
I31
ssg10
I240
sg36
g4
sg37
(dp2446
sg39
(dp2447
sg41
I1330
sg42
g21
sg43
g21
sg44
I240
sg45
Vhas
p2448
sg47
I240
sg48
I1333
sbag0
(g23
g2
Ntp2449
Rp2450
(dp2451
g27
(dp2452
g29
Vbe
p2453
sg31
VO
p2454
sg33
VVBN
p2455
sg35
I32
ssg10
I241
sg36
g4
sg37
(dp2456
sg39
(dp2457
sg41
I1334
sg42
g21
sg43
g21
sg44
I241
sg45
Vbeen
p2458
sg47
I241
sg48
I1338
sbag0
(g23
g2
Ntp2459
Rp2460
(dp2461
g27
(dp2462
g29
Vexpand
p2463
sg31
VO
p2464
sg33
VVBN
p2465
sg35
I33
ssg10
I242
sg36
g4
sg37
(dp2466
sg39
(dp2467
sg41
I1339
sg42
g21
sg43
g21
sg44
I242
sg45
Vexpanded
p2468
sg47
I242
sg48
I1347
sbag0
(g23
g2
Ntp2469
Rp2470
(dp2471
g27
(dp2472
g29
Vto
p2473
sg31
VO
p2474
sg33
VTO
p2475
sg35
I34
ssg10
I243
sg36
g4
sg37
(dp2476
sg39
(dp2477
sg41
I1348
sg42
g21
sg43
g21
sg44
I243
sg45
Vto
p2478
sg47
I243
sg48
I1350
sbag0
(g23
g2
Ntp2479
Rp2480
(dp2481
g27
(dp2482
g29
Vprovide
p2483
sg31
VO
p2484
sg33
VVB
p2485
sg35
I35
ssg10
I244
sg36
g4
sg37
(dp2486
sg39
(dp2487
sg41
I1351
sg42
g21
sg43
g21
sg44
I244
sg45
Vprovide
p2488
sg47
I244
sg48
I1358
sbag0
(g23
g2
Ntp2489
Rp2490
(dp2491
g27
(dp2492
g29
Vmore
p2493
sg31
VO
p2494
sg33
VJJR
p2495
sg35
I36
ssg10
I245
sg36
g4
sg37
(dp2496
sg39
(dp2497
sg41
I1359
sg42
g21
sg43
g21
sg44
I245
sg45
Vmore
p2498
sg47
I245
sg48
I1363
sbag0
(g23
g2
Ntp2499
Rp2500
(dp2501
g27
(dp2502
g29
Vpeople
p2503
sg31
VO
p2504
sg33
VNNS
p2505
sg35
I37
ssg10
I246
sg36
g4
sg37
(dp2506
sg39
(dp2507
sg41
I1364
sg42
g21
sg43
g21
sg44
I246
sg45
Vpeople
p2508
sg47
I246
sg48
I1370
sbag0
(g23
g2
Ntp2509
Rp2510
(dp2511
g27
(dp2512
g29
Vwith
p2513
sg31
VO
p2514
sg33
VIN
p2515
sg35
I38
ssg10
I247
sg36
g4
sg37
(dp2516
sg39
(dp2517
sg41
I1371
sg42
g21
sg43
g21
sg44
I247
sg45
Vwith
p2518
sg47
I247
sg48
I1375
sbag0
(g23
g2
Ntp2519
Rp2520
(dp2521
g27
(dp2522
g29
Vmore
p2523
sg31
VO
p2524
sg33
VJJR
p2525
sg35
I39
ssg10
I248
sg36
g4
sg37
(dp2526
sg39
(dp2527
sg41
I1376
sg42
g21
sg43
g21
sg44
I248
sg45
Vmore
p2528
sg47
I248
sg48
I1380
sbag0
(g23
g2
Ntp2529
Rp2530
(dp2531
g27
(dp2532
g29
Vmoney
p2533
sg31
VO
p2534
sg33
VNN
p2535
sg35
I40
ssg10
I249
sg36
g4
sg37
(dp2536
sg39
(dp2537
sg41
I1381
sg42
g21
sg43
g21
sg44
I249
sg45
Vmoney
p2538
sg47
I249
sg48
I1386
sbag0
(g23
g2
Ntp2539
Rp2540
(dp2541
g27
(dp2542
g29
Vfrom
p2543
sg31
VO
p2544
sg33
VIN
p2545
sg35
I41
ssg10
I250
sg36
g4
sg37
(dp2546
sg39
(dp2547
sg41
I1387
sg42
g21
sg43
g21
sg44
I250
sg45
Vfrom
p2548
sg47
I250
sg48
I1391
sbag0
(g23
g2
Ntp2549
Rp2550
(dp2551
g27
(dp2552
g29
Vthe
p2553
sg31
VO
p2554
sg33
VDT
p2555
sg35
I42
ssg10
I251
sg36
g4
sg37
(dp2556
sg39
(dp2557
sg41
I1392
sg42
g21
sg43
g21
sg44
I251
sg45
Vthe
p2558
sg47
I251
sg48
I1395
sbag0
(g23
g2
Ntp2559
Rp2560
(dp2561
g27
(dp2562
g29
Vstate
p2563
sg31
VO
p2564
sg33
VNN
p2565
sg35
I43
ssg10
I252
sg36
g4
sg37
(dp2566
sg39
(dp2567
sg41
I1396
sg42
g21
sg43
g21
sg44
I252
sg45
Vstate
p2568
sg47
I252
sg48
I1401
sbag0
(g23
g2
Ntp2569
Rp2570
(dp2571
g27
(dp2572
g29
Vthan
p2573
sg31
VO
p2574
sg33
VIN
p2575
sg35
I44
ssg10
I253
sg36
g4
sg37
(dp2576
sg39
(dp2577
sg41
I1402
sg42
g21
sg43
g21
sg44
I253
sg45
Vthan
p2578
sg47
I253
sg48
I1406
sbag0
(g23
g2
Ntp2579
Rp2580
(dp2581
g27
(dp2582
g29
Vit
p2583
sg31
VO
p2584
sg33
VPRP
p2585
sg35
I45
ssg10
I254
sg36
g4
sg37
(dp2586
sg39
(dp2587
sg41
I1407
sg42
g21
sg43
g21
sg44
I254
sg45
Vit
p2588
sg47
I254
sg48
I1409
sbag0
(g23
g2
Ntp2589
Rp2590
(dp2591
g27
(dp2592
g29
Vcan
p2593
sg31
VO
p2594
sg33
VMD
p2595
sg35
I46
ssg10
I255
sg36
g4
sg37
(dp2596
sg39
(dp2597
sg41
I1410
sg42
g21
sg43
g21
sg44
I255
sg45
Vcan
p2598
sg47
I255
sg48
I1413
sbag0
(g23
g2
Ntp2599
Rp2600
(dp2601
g27
(dp2602
g29
Videally
p2603
sg31
VO
p2604
sg33
VRB
p2605
sg35
I47
ssg10
I256
sg36
g4
sg37
(dp2606
sg39
(dp2607
sg41
I1414
sg42
g21
sg43
g21
sg44
I256
sg45
Videally
p2608
sg47
I256
sg48
I1421
sbag0
(g23
g2
Ntp2609
Rp2610
(dp2611
g27
(dp2612
g29
Vafford
p2613
sg31
VO
p2614
sg33
VVB
p2615
sg35
I48
ssg10
I257
sg36
g4
sg37
(dp2616
sg39
(dp2617
sg41
I1422
sg42
g21
sg43
g21
sg44
I257
sg45
Vafford
p2618
sg47
I257
sg48
I1428
sbag0
(g23
g2
Ntp2619
Rp2620
(dp2621
g27
(dp2622
g29
V-lsb-
p2623
sg31
VO
p2624
sg33
V-LRB-
p2625
sg35
I49
ssg10
I258
sg36
g4
sg37
(dp2626
sg39
(dp2627
sg41
I1429
sg42
g21
sg43
g21
sg44
I258
sg45
V[
p2628
sg47
I258
sg48
I1430
sbag0
(g23
g2
Ntp2629
Rp2630
(dp2631
g27
(dp2632
g29
Vref
p2633
sg31
VO
p2634
sg33
VNN
p2635
sg35
I50
ssg10
I259
sg36
g4
sg37
(dp2636
sg39
(dp2637
sg41
I1430
sg42
g21
sg43
g21
sg44
I259
sg45
VREF
p2638
sg47
I259
sg48
I1433
sbag0
(g23
g2
Ntp2639
Rp2640
(dp2641
g27
(dp2642
g29
V-rsb-
p2643
sg31
VO
p2644
sg33
V-RRB-
p2645
sg35
I51
ssg10
I260
sg36
g4
sg37
(dp2646
sg39
(dp2647
sg41
I1433
sg42
g21
sg43
g21
sg44
I260
sg45
V]
p2648
sg47
I260
sg48
I1434
sbag0
(g23
g2
Ntp2649
Rp2650
(dp2651
g27
(dp2652
g29
V.
p2653
sg31
VO
p2654
sg33
V.
p2655
sg35
I52
ssg10
I261
sg36
g4
sg37
(dp2656
sg39
(dp2657
sg41
I1434
sg42
g21
sg43
g21
sg44
I261
sg45
V.
p2658
sg47
I261
sg48
I1435
sbag0
(g23
g2
Ntp2659
Rp2660
(dp2661
g27
(dp2662
g29
Vsome
p2663
sg31
VO
p2664
sg33
VDT
p2665
sg35
I1
ssg10
I262
sg36
g4
sg37
(dp2666
sg39
(dp2667
sg41
I1438
sg42
g21
sg43
g21
sg44
I262
sg45
VSome
p2668
sg47
I262
sg48
I1442
sbag0
(g23
g2
Ntp2669
Rp2670
(dp2671
g27
(dp2672
g29
Vfeel
p2673
sg31
VO
p2674
sg33
VVBP
p2675
sg35
I2
ssg10
I263
sg36
g4
sg37
(dp2676
sg39
(dp2677
sg41
I1443
sg42
g21
sg43
g21
sg44
I263
sg45
Vfeel
p2678
sg47
I263
sg48
I1447
sbag0
(g23
g2
Ntp2679
Rp2680
(dp2681
g27
(dp2682
g29
Vthat
p2683
sg31
VO
p2684
sg33
VIN
p2685
sg35
I3
ssg10
I264
sg36
g4
sg37
(dp2686
sg39
(dp2687
sg41
I1448
sg42
g21
sg43
g21
sg44
I264
sg45
Vthat
p2688
sg47
I264
sg48
I1452
sbag0
(g23
g2
Ntp2689
Rp2690
(dp2691
g27
(dp2692
g29
Vthis
p2693
sg31
VO
p2694
sg33
VDT
p2695
sg35
I4
ssg10
I265
sg36
g4
sg37
(dp2696
sg39
(dp2697
sg41
I1453
sg42
g21
sg43
g21
sg44
I265
sg45
Vthis
p2698
sg47
I265
sg48
I1457
sbag0
(g23
g2
Ntp2699
Rp2700
(dp2701
g27
(dp2702
g29
Vargument
p2703
sg31
VO
p2704
sg33
VNN
p2705
sg35
I5
ssg10
I266
sg36
g4
sg37
(dp2706
sg39
(dp2707
sg41
I1458
sg42
g21
sg43
g21
sg44
I266
sg45
Vargument
p2708
sg47
I266
sg48
I1466
sbag0
(g23
g2
Ntp2709
Rp2710
(dp2711
g27
(dp2712
g29
Vbe
p2713
sg31
VO
p2714
sg33
VVBZ
p2715
sg35
I6
ssg10
I267
sg36
g4
sg37
(dp2716
sg39
(dp2717
sg41
I1467
sg42
g21
sg43
g21
sg44
I267
sg45
Vis
p2718
sg47
I267
sg48
I1469
sbag0
(g23
g2
Ntp2719
Rp2720
(dp2721
g27
(dp2722
g29
Vdemonstrably
p2723
sg31
VO
p2724
sg33
VRB
p2725
sg35
I7
ssg10
I268
sg36
g4
sg37
(dp2726
sg39
(dp2727
sg41
I1470
sg42
g21
sg43
g21
sg44
I268
sg45
Vdemonstrably
p2728
sg47
I268
sg48
I1482
sbag0
(g23
g2
Ntp2729
Rp2730
(dp2731
g27
(dp2732
g29
Vfalse
p2733
sg31
VO
p2734
sg33
VJJ
p2735
sg35
I8
ssg10
I269
sg36
g4
sg37
(dp2736
sg39
(dp2737
sg41
I1483
sg42
g21
sg43
g21
sg44
I269
sg45
Vfalse
p2738
sg47
I269
sg48
I1488
sbag0
(g23
g2
Ntp2739
Rp2740
(dp2741
g27
(dp2742
g29
V:
p2743
sg31
VO
p2744
sg33
V:
p2745
sg35
I9
ssg10
I270
sg36
g4
sg37
(dp2746
sg39
(dp2747
sg41
I1488
sg42
g21
sg43
g21
sg44
I270
sg45
V:
p2748
sg47
I270
sg48
I1489
sbag0
(g23
g2
Ntp2749
Rp2750
(dp2751
g27
(dp2752
g29
Vthe
p2753
sg31
VO
p2754
sg33
VDT
p2755
sg35
I10
ssg10
I271
sg36
g4
sg37
(dp2756
sg39
(dp2757
sg41
I1490
sg42
g21
sg43
g21
sg44
I271
sg45
Vthe
p2758
sg47
I271
sg48
I1493
sbag0
(g23
g2
Ntp2759
Rp2760
(dp2761
g27
(dp2762
g29
Vbenefit
p2763
sg31
VO
p2764
sg33
VNNS
p2765
sg35
I11
ssg10
I272
sg36
g4
sg37
(dp2766
sg39
(dp2767
sg41
I1494
sg42
g21
sg43
g21
sg44
I272
sg45
Vbenefits
p2768
sg47
I272
sg48
I1502
sbag0
(g23
g2
Ntp2769
Rp2770
(dp2771
g27
(dp2772
g29
Vsystem
p2773
sg31
VO
p2774
sg33
VNN
p2775
sg35
I12
ssg10
I273
sg36
g4
sg37
(dp2776
sg39
(dp2777
sg41
I1503
sg42
g21
sg43
g21
sg44
I273
sg45
Vsystem
p2778
sg47
I273
sg48
I1509
sbag0
(g23
g2
Ntp2779
Rp2780
(dp2781
g27
(dp2782
g29
Vin
p2783
sg31
VO
p2784
sg33
VIN
p2785
sg35
I13
ssg10
I274
sg36
g4
sg37
(dp2786
sg39
(dp2787
sg41
I1510
sg42
g21
sg43
g21
sg44
I274
sg45
Vin
p2788
sg47
I274
sg48
I1512
sbag0
(g23
g2
Ntp2789
Rp2790
(dp2791
g27
(dp2792
g29
Vthe
p2793
sg31
VO
p2794
sg33
VDT
p2795
sg35
I14
ssg10
I275
sg36
g4
sg37
(dp2796
sg39
(dp2797
sg41
I1513
sg42
g21
sg43
g21
sg44
I275
sg45
Vthe
p2798
sg47
I275
sg48
I1516
sbag0
(g23
g2
Ntp2799
Rp2800
(dp2801
g27
(dp2802
g29
VUK
p2803
sg31
VLOCATION
p2804
sg33
VNNP
p2805
sg35
I15
ssg10
I276
sg36
g4
sg37
(dp2806
sg39
(dp2807
sg41
I1517
sg42
g21
sg43
g21
sg44
I276
sg45
VUK
p2808
sg47
I276
sg48
I1519
sbag0
(g23
g2
Ntp2809
Rp2810
(dp2811
g27
(dp2812
g29
Vprovide
p2813
sg31
VO
p2814
sg33
VVBZ
p2815
sg35
I16
ssg10
I277
sg36
g4
sg37
(dp2816
sg39
(dp2817
sg41
I1520
sg42
g21
sg43
g21
sg44
I277
sg45
Vprovides
p2818
sg47
I277
sg48
I1528
sbag0
(g23
g2
Ntp2819
Rp2820
(dp2821
g27
(dp2822
g29
Vindividual
p2823
sg31
VO
p2824
sg33
VNNS
p2825
sg35
I17
ssg10
I278
sg36
g4
sg37
(dp2826
sg39
(dp2827
sg41
I1529
sg42
g21
sg43
g21
sg44
I278
sg45
Vindividuals
p2828
sg47
I278
sg48
I1540
sbag0
(g23
g2
Ntp2829
Rp2830
(dp2831
g27
(dp2832
g29
Vwith
p2833
sg31
VO
p2834
sg33
VIN
p2835
sg35
I18
ssg10
I279
sg36
g4
sg37
(dp2836
sg39
(dp2837
sg41
I1541
sg42
g21
sg43
g21
sg44
I279
sg45
Vwith
p2838
sg47
I279
sg48
I1545
sbag0
(g23
g2
Ntp2839
Rp2840
(dp2841
g27
(dp2842
g29
Vconsiderably
p2843
sg31
VO
p2844
sg33
VRB
p2845
sg35
I19
ssg10
I280
sg36
g4
sg37
(dp2846
sg39
(dp2847
sg41
I1546
sg42
g21
sg43
g21
sg44
I280
sg45
Vconsiderably
p2848
sg47
I280
sg48
I1558
sbag0
(g23
g2
Ntp2849
Rp2850
(dp2851
g27
(dp2852
g29
Vless
p2853
sg31
VO
p2854
sg33
VJJR
p2855
sg35
I20
ssg10
I281
sg36
g4
sg37
(dp2856
sg39
(dp2857
sg41
I1559
sg42
g21
sg43
g21
sg44
I281
sg45
Vless
p2858
sg47
I281
sg48
I1563
sbag0
(g23
g2
Ntp2859
Rp2860
(dp2861
g27
(dp2862
g29
Vmoney
p2863
sg31
VO
p2864
sg33
VNN
p2865
sg35
I21
ssg10
I282
sg36
g4
sg37
(dp2866
sg39
(dp2867
sg41
I1564
sg42
g21
sg43
g21
sg44
I282
sg45
Vmoney
p2868
sg47
I282
sg48
I1569
sbag0
(g23
g2
Ntp2869
Rp2870
(dp2871
g27
(dp2872
g29
Vthan
p2873
sg31
VO
p2874
sg33
VIN
p2875
sg35
I22
ssg10
I283
sg36
g4
sg37
(dp2876
sg39
(dp2877
sg41
I1570
sg42
g21
sg43
g21
sg44
I283
sg45
Vthan
p2878
sg47
I283
sg48
I1574
sbag0
(g23
g2
Ntp2879
Rp2880
(dp2881
g27
(dp2882
g29
Vthe
p2883
sg31
VO
p2884
sg33
VDT
p2885
sg35
I23
ssg10
I284
sg36
g4
sg37
(dp2886
sg39
(dp2887
sg41
I1575
sg42
g21
sg43
g21
sg44
I284
sg45
Vthe
p2888
sg47
I284
sg48
I1578
sbag0
(g23
g2
Ntp2889
Rp2890
(dp2891
g27
(dp2892
g29
Vnational
p2893
sg31
VO
p2894
sg33
VJJ
p2895
sg35
I24
ssg10
I285
sg36
g4
sg37
(dp2896
sg39
(dp2897
sg41
I1579
sg42
g21
sg43
g21
sg44
I285
sg45
Vnational
p2898
sg47
I285
sg48
I1587
sbag0
(g23
g2
Ntp2899
Rp2900
(dp2901
g27
(dp2902
g29
Vminimum
p2903
sg31
VO
p2904
sg33
VNN
p2905
sg35
I25
ssg10
I286
sg36
g4
sg37
(dp2906
sg39
(dp2907
sg41
I1588
sg42
g21
sg43
g21
sg44
I286
sg45
Vminimum
p2908
sg47
I286
sg48
I1595
sbag0
(g23
g2
Ntp2909
Rp2910
(dp2911
g27
(dp2912
g29
Vwage
p2913
sg31
VO
p2914
sg33
VNN
p2915
sg35
I26
ssg10
I287
sg36
g4
sg37
(dp2916
sg39
(dp2917
sg41
I1596
sg42
g21
sg43
g21
sg44
I287
sg45
Vwage
p2918
sg47
I287
sg48
I1600
sbag0
(g23
g2
Ntp2919
Rp2920
(dp2921
g27
(dp2922
g29
V,
p2923
sg31
VO
p2924
sg33
V,
p2925
sg35
I27
ssg10
I288
sg36
g4
sg37
(dp2926
sg39
(dp2927
sg41
I1600
sg42
g21
sg43
g21
sg44
I288
sg45
V,
p2928
sg47
I288
sg48
I1601
sbag0
(g23
g2
Ntp2929
Rp2930
(dp2931
g27
(dp2932
g29
Vbut
p2933
sg31
VO
p2934
sg33
VCC
p2935
sg35
I28
ssg10
I289
sg36
g4
sg37
(dp2936
sg39
(dp2937
sg41
I1602
sg42
g21
sg43
g21
sg44
I289
sg45
Vbut
p2938
sg47
I289
sg48
I1605
sbag0
(g23
g2
Ntp2939
Rp2940
(dp2941
g27
(dp2942
g29
Vpeople
p2943
sg31
VO
p2944
sg33
VNNS
p2945
sg35
I29
ssg10
I290
sg36
g4
sg37
(dp2946
sg39
(dp2947
sg41
I1606
sg42
g21
sg43
g21
sg44
I290
sg45
Vpeople
p2948
sg47
I290
sg48
I1612
sbag0
(g23
g2
Ntp2949
Rp2950
(dp2951
g27
(dp2952
g29
Von
p2953
sg31
VO
p2954
sg33
VIN
p2955
sg35
I30
ssg10
I291
sg36
g4
sg37
(dp2956
sg39
(dp2957
sg41
I1613
sg42
g21
sg43
g21
sg44
I291
sg45
Von
p2958
sg47
I291
sg48
I1615
sbag0
(g23
g2
Ntp2959
Rp2960
(dp2961
g27
(dp2962
g29
Vwelfare
p2963
sg31
VO
p2964
sg33
VNN
p2965
sg35
I31
ssg10
I292
sg36
g4
sg37
(dp2966
sg39
(dp2967
sg41
I1616
sg42
g21
sg43
g21
sg44
I292
sg45
Vwelfare
p2968
sg47
I292
sg48
I1623
sbag0
(g23
g2
Ntp2969
Rp2970
(dp2971
g27
(dp2972
g29
Voften
p2973
sg31
VO
p2974
sg33
VRB
p2975
sg35
I32
ssg10
I293
sg36
g4
sg37
(dp2976
sg39
(dp2977
sg41
I1624
sg42
g21
sg43
g21
sg44
I293
sg45
Voften
p2978
sg47
I293
sg48
I1629
sbag0
(g23
g2
Ntp2979
Rp2980
(dp2981
g27
(dp2982
g29
Vfind
p2983
sg31
VO
p2984
sg33
VVBP
p2985
sg35
I33
ssg10
I294
sg36
g4
sg37
(dp2986
sg39
(dp2987
sg41
I1630
sg42
g21
sg43
g21
sg44
I294
sg45
Vfind
p2988
sg47
I294
sg48
I1634
sbag0
(g23
g2
Ntp2989
Rp2990
(dp2991
g27
(dp2992
g29
Vthat
p2993
sg31
VO
p2994
sg33
VIN
p2995
sg35
I34
ssg10
I295
sg36
g4
sg37
(dp2996
sg39
(dp2997
sg41
I1635
sg42
g21
sg43
g21
sg44
I295
sg45
Vthat
p2998
sg47
I295
sg48
I1639
sbag0
(g23
g2
Ntp2999
Rp3000
(dp3001
g27
(dp3002
g29
Vthey
p3003
sg31
VO
p3004
sg33
VPRP
p3005
sg35
I35
ssg10
I296
sg36
g4
sg37
(dp3006
sg39
(dp3007
sg41
I1640
sg42
g21
sg43
g21
sg44
I296
sg45
Vthey
p3008
sg47
I296
sg48
I1644
sbag0
(g23
g2
Ntp3009
Rp3010
(dp3011
g27
(dp3012
g29
Vqualify
p3013
sg31
VO
p3014
sg33
VVBP
p3015
sg35
I36
ssg10
I297
sg36
g4
sg37
(dp3016
sg39
(dp3017
sg41
I1645
sg42
g21
sg43
g21
sg44
I297
sg45
Vqualify
p3018
sg47
I297
sg48
I1652
sbag0
(g23
g2
Ntp3019
Rp3020
(dp3021
g27
(dp3022
g29
Vfor
p3023
sg31
VO
p3024
sg33
VIN
p3025
sg35
I37
ssg10
I298
sg36
g4
sg37
(dp3026
sg39
(dp3027
sg41
I1653
sg42
g21
sg43
g21
sg44
I298
sg45
Vfor
p3028
sg47
I298
sg48
I1656
sbag0
(g23
g2
Ntp3029
Rp3030
(dp3031
g27
(dp3032
g29
Va
p3033
sg31
VO
p3034
sg33
VDT
p3035
sg35
I38
ssg10
I299
sg36
g4
sg37
(dp3036
sg39
(dp3037
sg41
I1657
sg42
g21
sg43
g21
sg44
I299
sg45
Va
p3038
sg47
I299
sg48
I1658
sbag0
(g23
g2
Ntp3039
Rp3040
(dp3041
g27
(dp3042
g29
Vvariety
p3043
sg31
VO
p3044
sg33
VNN
p3045
sg35
I39
ssg10
I300
sg36
g4
sg37
(dp3046
sg39
(dp3047
sg41
I1659
sg42
g21
sg43
g21
sg44
I300
sg45
Vvariety
p3048
sg47
I300
sg48
I1666
sbag0
(g23
g2
Ntp3049
Rp3050
(dp3051
g27
(dp3052
g29
Vof
p3053
sg31
VO
p3054
sg33
VIN
p3055
sg35
I40
ssg10
I301
sg36
g4
sg37
(dp3056
sg39
(dp3057
sg41
I1667
sg42
g21
sg43
g21
sg44
I301
sg45
Vof
p3058
sg47
I301
sg48
I1669
sbag0
(g23
g2
Ntp3059
Rp3060
(dp3061
g27
(dp3062
g29
Vbenefit
p3063
sg31
VO
p3064
sg33
VNNS
p3065
sg35
I41
ssg10
I302
sg36
g4
sg37
(dp3066
sg39
(dp3067
sg41
I1670
sg42
g21
sg43
g21
sg44
I302
sg45
Vbenefits
p3068
sg47
I302
sg48
I1678
sbag0
(g23
g2
Ntp3069
Rp3070
(dp3071
g27
(dp3072
g29
V,
p3073
sg31
VO
p3074
sg33
V,
p3075
sg35
I42
ssg10
I303
sg36
g4
sg37
(dp3076
sg39
(dp3077
sg41
I1678
sg42
g21
sg43
g21
sg44
I303
sg45
V,
p3078
sg47
I303
sg48
I1679
sbag0
(g23
g2
Ntp3079
Rp3080
(dp3081
g27
(dp3082
g29
Vinclude
p3083
sg31
VO
p3084
sg33
VVBG
p3085
sg35
I43
ssg10
I304
sg36
g4
sg37
(dp3086
sg39
(dp3087
sg41
I1680
sg42
g21
sg43
g21
sg44
I304
sg45
Vincluding
p3088
sg47
I304
sg48
I1689
sbag0
(g23
g2
Ntp3089
Rp3090
(dp3091
g27
(dp3092
g29
Vbenefit
p3093
sg31
VO
p3094
sg33
VNNS
p3095
sg35
I44
ssg10
I305
sg36
g4
sg37
(dp3096
sg39
(dp3097
sg41
I1690
sg42
g21
sg43
g21
sg44
I305
sg45
Vbenefits
p3098
sg47
I305
sg48
I1698
sbag0
(g23
g2
Ntp3099
Rp3100
(dp3101
g27
(dp3102
g29
Vin-kind
p3103
sg31
VO
p3104
sg33
VJJ
p3105
sg35
I45
ssg10
I306
sg36
g4
sg37
(dp3106
sg39
(dp3107
sg41
I1699
sg42
g21
sg43
g21
sg44
I306
sg45
Vin-kind
p3108
sg47
I306
sg48
I1706
sbag0
(g23
g2
Ntp3109
Rp3110
(dp3111
g27
(dp3112
g29
V,
p3113
sg31
VO
p3114
sg33
V,
p3115
sg35
I46
ssg10
I307
sg36
g4
sg37
(dp3116
sg39
(dp3117
sg41
I1706
sg42
g21
sg43
g21
sg44
I307
sg45
V,
p3118
sg47
I307
sg48
I1707
sbag0
(g23
g2
Ntp3119
Rp3120
(dp3121
g27
(dp3122
g29
Vsuch
p3123
sg31
VO
p3124
sg33
VJJ
p3125
sg35
I47
ssg10
I308
sg36
g4
sg37
(dp3126
sg39
(dp3127
sg41
I1708
sg42
g21
sg43
g21
sg44
I308
sg45
Vsuch
p3128
sg47
I308
sg48
I1712
sbag0
(g23
g2
Ntp3129
Rp3130
(dp3131
g27
(dp3132
g29
Vas
p3133
sg31
VO
p3134
sg33
VIN
p3135
sg35
I48
ssg10
I309
sg36
g4
sg37
(dp3136
sg39
(dp3137
sg41
I1713
sg42
g21
sg43
g21
sg44
I309
sg45
Vas
p3138
sg47
I309
sg48
I1715
sbag0
(g23
g2
Ntp3139
Rp3140
(dp3141
g27
(dp3142
g29
VHousing
p3143
sg31
VORGANIZATION
p3144
sg33
VNNP
p3145
sg35
I49
ssg10
I310
sg36
g4
sg37
(dp3146
sg39
(dp3147
sg41
I1716
sg42
g21
sg43
g21
sg44
I310
sg45
VHousing
p3148
sg47
I310
sg48
I1723
sbag0
(g23
g2
Ntp3149
Rp3150
(dp3151
g27
(dp3152
g29
VBenefit
p3153
sg31
VORGANIZATION
p3154
sg33
VNNP
p3155
sg35
I50
ssg10
I311
sg36
g4
sg37
(dp3156
sg39
(dp3157
sg41
I1724
sg42
g21
sg43
g21
sg44
I311
sg45
VBenefit
p3158
sg47
I311
sg48
I1731
sbag0
(g23
g2
Ntp3159
Rp3160
(dp3161
g27
(dp3162
g29
V,
p3163
sg31
VO
p3164
sg33
V,
p3165
sg35
I51
ssg10
I312
sg36
g4
sg37
(dp3166
sg39
(dp3167
sg41
I1731
sg42
g21
sg43
g21
sg44
I312
sg45
V,
p3168
sg47
I312
sg48
I1732
sbag0
(g23
g2
Ntp3169
Rp3170
(dp3171
g27
(dp3172
g29
Vwhich
p3173
sg31
VO
p3174
sg33
VWDT
p3175
sg35
I52
ssg10
I313
sg36
g4
sg37
(dp3176
sg39
(dp3177
sg41
I1733
sg42
g21
sg43
g21
sg44
I313
sg45
Vwhich
p3178
sg47
I313
sg48
I1738
sbag0
(g23
g2
Ntp3179
Rp3180
(dp3181
g27
(dp3182
g29
Vusually
p3183
sg31
VO
p3184
sg33
VRB
p3185
sg35
I53
ssg10
I314
sg36
g4
sg37
(dp3186
sg39
(dp3187
sg41
I1739
sg42
g21
sg43
g21
sg44
I314
sg45
Vusually
p3188
sg47
I314
sg48
I1746
sbag0
(g23
g2
Ntp3189
Rp3190
(dp3191
g27
(dp3192
g29
Vmake
p3193
sg31
VO
p3194
sg33
VVBP
p3195
sg35
I54
ssg10
I315
sg36
g4
sg37
(dp3196
sg39
(dp3197
sg41
I1747
sg42
g21
sg43
g21
sg44
I315
sg45
Vmake
p3198
sg47
I315
sg48
I1751
sbag0
(g23
g2
Ntp3199
Rp3200
(dp3201
g27
(dp3202
g29
Vthe
p3203
sg31
VO
p3204
sg33
VDT
p3205
sg35
I55
ssg10
I316
sg36
g4
sg37
(dp3206
sg39
(dp3207
sg41
I1752
sg42
g21
sg43
g21
sg44
I316
sg45
Vthe
p3208
sg47
I316
sg48
I1755
sbag0
(g23
g2
Ntp3209
Rp3210
(dp3211
g27
(dp3212
g29
Voverall
p3213
sg31
VO
p3214
sg33
VJJ
p3215
sg35
I56
ssg10
I317
sg36
g4
sg37
(dp3216
sg39
(dp3217
sg41
I1756
sg42
g21
sg43
g21
sg44
I317
sg45
Voverall
p3218
sg47
I317
sg48
I1763
sbag0
(g23
g2
Ntp3219
Rp3220
(dp3221
g27
(dp3222
g29
Vbenefit
p3223
sg31
VO
p3224
sg33
VNNS
p3225
sg35
I57
ssg10
I318
sg36
g4
sg37
(dp3226
sg39
(dp3227
sg41
I1764
sg42
g21
sg43
g21
sg44
I318
sg45
Vbenefits
p3228
sg47
I318
sg48
I1772
sbag0
(g23
g2
Ntp3229
Rp3230
(dp3231
g27
(dp3232
g29
Vmuch
p3233
sg31
VO
p3234
sg33
VRB
p3235
sg35
I58
ssg10
I319
sg36
g4
sg37
(dp3236
sg39
(dp3237
sg41
I1773
sg42
g21
sg43
g21
sg44
I319
sg45
Vmuch
p3238
sg47
I319
sg48
I1777
sbag0
(g23
g2
Ntp3239
Rp3240
(dp3241
g27
(dp3242
g29
Vhigher
p3243
sg31
VO
p3244
sg33
VJJR
p3245
sg35
I59
ssg10
I320
sg36
g4
sg37
(dp3246
sg39
(dp3247
sg41
I1778
sg42
g21
sg43
g21
sg44
I320
sg45
Vhigher
p3248
sg47
I320
sg48
I1784
sbag0
(g23
g2
Ntp3249
Rp3250
(dp3251
g27
(dp3252
g29
Vthan
p3253
sg31
VO
p3254
sg33
VIN
p3255
sg35
I60
ssg10
I321
sg36
g4
sg37
(dp3256
sg39
(dp3257
sg41
I1785
sg42
g21
sg43
g21
sg44
I321
sg45
Vthan
p3258
sg47
I321
sg48
I1789
sbag0
(g23
g2
Ntp3259
Rp3260
(dp3261
g27
(dp3262
g29
Vbasic
p3263
sg31
VO
p3264
sg33
VJJ
p3265
sg35
I61
ssg10
I322
sg36
g4
sg37
(dp3266
sg39
(dp3267
sg41
I1790
sg42
g21
sg43
g21
sg44
I322
sg45
Vbasic
p3268
sg47
I322
sg48
I1795
sbag0
(g23
g2
Ntp3269
Rp3270
(dp3271
g27
(dp3272
g29
Vfigure
p3273
sg31
VO
p3274
sg33
VNNS
p3275
sg35
I62
ssg10
I323
sg36
g4
sg37
(dp3276
sg39
(dp3277
sg41
I1796
sg42
g21
sg43
g21
sg44
I323
sg45
Vfigures
p3278
sg47
I323
sg48
I1803
sbag0
(g23
g2
Ntp3279
Rp3280
(dp3281
g27
(dp3282
g29
Vimply
p3283
sg31
VO
p3284
sg33
VVBP
p3285
sg35
I63
ssg10
I324
sg36
g4
sg37
(dp3286
sg39
(dp3287
sg41
I1804
sg42
g21
sg43
g21
sg44
I324
sg45
Vimply
p3288
sg47
I324
sg48
I1809
sbag0
(g23
g2
Ntp3289
Rp3290
(dp3291
g27
(dp3292
g29
V-lsb-
p3293
sg31
VO
p3294
sg33
V-LRB-
p3295
sg35
I64
ssg10
I325
sg36
g4
sg37
(dp3296
sg39
(dp3297
sg41
I1810
sg42
g21
sg43
g21
sg44
I325
sg45
V[
p3298
sg47
I325
sg48
I1811
sbag0
(g23
g2
Ntp3299
Rp3300
(dp3301
g27
(dp3302
g29
Vref
p3303
sg31
VO
p3304
sg33
VNN
p3305
sg35
I65
ssg10
I326
sg36
g4
sg37
(dp3306
sg39
(dp3307
sg41
I1811
sg42
g21
sg43
g21
sg44
I326
sg45
VREF
p3308
sg47
I326
sg48
I1814
sbag0
(g23
g2
Ntp3309
Rp3310
(dp3311
g27
(dp3312
g29
V-rsb-
p3313
sg31
VO
p3314
sg33
V-RRB-
p3315
sg35
I66
ssg10
I327
sg36
g4
sg37
(dp3316
sg39
(dp3317
sg41
I1814
sg42
g21
sg43
g21
sg44
I327
sg45
V]
p3318
sg47
I327
sg48
I1815
sbag0
(g23
g2
Ntp3319
Rp3320
(dp3321
g27
(dp3322
g29
V.
p3323
sg31
VO
p3324
sg33
V.
p3325
sg35
I67
ssg10
I328
sg36
g4
sg37
(dp3326
sg39
(dp3327
sg41
I1815
sg42
g21
sg43
g21
sg44
I328
sg45
V.
p3328
sg47
I328
sg48
I1816
sbag0
(g23
g2
Ntp3329
Rp3330
(dp3331
g27
(dp3332
g29
Vsome
p3333
sg31
VO
p3334
sg33
VDT
p3335
sg35
I1
ssg10
I329
sg36
g4
sg37
(dp3336
sg39
(dp3337
sg41
I1819
sg42
g21
sg43
g21
sg44
I329
sg45
VSome
p3338
sg47
I329
sg48
I1823
sbag0
(g23
g2
Ntp3339
Rp3340
(dp3341
g27
(dp3342
g29
Vbritish
p3343
sg31
VMISC
p3344
sg33
VJJ
p3345
sg35
I2
ssg10
I330
sg36
g4
sg37
(dp3346
sg39
(dp3347
sg41
I1824
sg42
g21
sg43
g21
sg44
I330
sg45
VBritish
p3348
sg47
I330
sg48
I1831
sbag0
(g23
g2
Ntp3349
Rp3350
(dp3351
g27
(dp3352
g29
Vconservative
p3353
sg31
VO
p3354
sg33
VNNS
p3355
sg35
I3
ssg10
I331
sg36
g4
sg37
(dp3356
sg39
(dp3357
sg41
I1832
sg42
g21
sg43
g21
sg44
I331
sg45
Vconservatives
p3358
sg47
I331
sg48
I1845
sbag0
(g23
g2
Ntp3359
Rp3360
(dp3361
g27
(dp3362
g29
V,
p3363
sg31
VO
p3364
sg33
V,
p3365
sg35
I4
ssg10
I332
sg36
g4
sg37
(dp3366
sg39
(dp3367
sg41
I1845
sg42
g21
sg43
g21
sg44
I332
sg45
V,
p3368
sg47
I332
sg48
I1846
sbag0
(g23
g2
Ntp3369
Rp3370
(dp3371
g27
(dp3372
g29
Vsuch
p3373
sg31
VO
p3374
sg33
VJJ
p3375
sg35
I5
ssg10
I333
sg36
g4
sg37
(dp3376
sg39
(dp3377
sg41
I1847
sg42
g21
sg43
g21
sg44
I333
sg45
Vsuch
p3378
sg47
I333
sg48
I1851
sbag0
(g23
g2
Ntp3379
Rp3380
(dp3381
g27
(dp3382
g29
Vas
p3383
sg31
VO
p3384
sg33
VIN
p3385
sg35
I6
ssg10
I334
sg36
g4
sg37
(dp3386
sg39
(dp3387
sg41
I1852
sg42
g21
sg43
g21
sg44
I334
sg45
Vas
p3388
sg47
I334
sg48
I1854
sbag0
(g23
g2
Ntp3389
Rp3390
(dp3391
g27
(dp3392
g29
VConservative
p3393
sg31
VORGANIZATION
p3394
sg33
VNNP
p3395
sg35
I7
ssg10
I335
sg36
g4
sg37
(dp3396
sg39
(dp3397
sg41
I1855
sg42
g21
sg43
g21
sg44
I335
sg45
VConservative
p3398
sg47
I335
sg48
I1867
sbag0
(g23
g2
Ntp3399
Rp3400
(dp3401
g27
(dp3402
g29
VParty
p3403
sg31
VORGANIZATION
p3404
sg33
VNNP
p3405
sg35
I8
ssg10
I336
sg36
g4
sg37
(dp3406
sg39
(dp3407
sg41
I1868
sg42
g21
sg43
g21
sg44
I336
sg45
VParty
p3408
sg47
I336
sg48
I1873
sbag0
(g23
g2
Ntp3409
Rp3410
(dp3411
g27
(dp3412
g29
Vco-chairman
p3413
sg31
VO
p3414
sg33
VNN
p3415
sg35
I9
ssg10
I337
sg36
g4
sg37
(dp3416
sg39
(dp3417
sg41
I1874
sg42
g21
sg43
g21
sg44
I337
sg45
Vco-chairman
p3418
sg47
I337
sg48
I1885
sbag0
(g23
g2
Ntp3419
Rp3420
(dp3421
g27
(dp3422
g29
VSayeeda
p3423
sg31
VPERSON
p3424
sg33
VNNP
p3425
sg35
I10
ssg10
I338
sg36
g4
sg37
(dp3426
sg39
(dp3427
sg41
I1886
sg42
g21
sg43
g21
sg44
I338
sg45
VSayeeda
p3428
sg47
I338
sg48
I1893
sbag0
(g23
g2
Ntp3429
Rp3430
(dp3431
g27
(dp3432
g29
VWarsi
p3433
sg31
VPERSON
p3434
sg33
VNNP
p3435
sg35
I11
ssg10
I339
sg36
g4
sg37
(dp3436
sg39
(dp3437
sg41
I1894
sg42
g21
sg43
g21
sg44
I339
sg45
VWarsi
p3438
sg47
I339
sg48
I1899
sbag0
(g23
g2
Ntp3439
Rp3440
(dp3441
g27
(dp3442
g29
V,
p3443
sg31
VO
p3444
sg33
V,
p3445
sg35
I12
ssg10
I340
sg36
g4
sg37
(dp3446
sg39
(dp3447
sg41
I1899
sg42
g21
sg43
g21
sg44
I340
sg45
V,
p3448
sg47
I340
sg48
I1900
sbag0
(g23
g2
Ntp3449
Rp3450
(dp3451
g27
(dp3452
g29
Valso
p3453
sg31
VO
p3454
sg33
VRB
p3455
sg35
I13
ssg10
I341
sg36
g4
sg37
(dp3456
sg39
(dp3457
sg41
I1901
sg42
g21
sg43
g21
sg44
I341
sg45
Valso
p3458
sg47
I341
sg48
I1905
sbag0
(g23
g2
Ntp3459
Rp3460
(dp3461
g27
(dp3462
g29
Vcriticise
p3463
sg31
VO
p3464
sg33
VVBP
p3465
sg35
I14
ssg10
I342
sg36
g4
sg37
(dp3466
sg39
(dp3467
sg41
I1906
sg42
g21
sg43
g21
sg44
I342
sg45
Vcriticise
p3468
sg47
I342
sg48
I1915
sbag0
(g23
g2
Ntp3469
Rp3470
(dp3471
g27
(dp3472
g29
Vthe
p3473
sg31
VO
p3474
sg33
VDT
p3475
sg35
I15
ssg10
I343
sg36
g4
sg37
(dp3476
sg39
(dp3477
sg41
I1916
sg42
g21
sg43
g21
sg44
I343
sg45
Vthe
p3478
sg47
I343
sg48
I1919
sbag0
(g23
g2
Ntp3479
Rp3480
(dp3481
g27
(dp3482
g29
V''
p3483
sg31
VO
p3484
sg33
V''
p3485
sg35
I16
ssg10
I344
sg36
g4
sg37
(dp3486
sg39
(dp3487
sg41
I1920
sg42
g21
sg43
g21
sg44
I344
sg45
V"
p3488
sg47
I344
sg48
I1921
sbag0
(g23
g2
Ntp3489
Rp3490
(dp3491
g27
(dp3492
g29
V`
p3493
sg31
VO
p3494
sg33
V``
p3495
sg35
I17
ssg10
I345
sg36
g4
sg37
(dp3496
sg39
(dp3497
sg41
I1921
sg42
g21
sg43
g21
sg44
I345
sg45
V'
p3498
sg47
I345
sg48
I1922
sbag0
(g23
g2
Ntp3499
Rp3500
(dp3501
g27
(dp3502
g29
Vsomething
p3503
sg31
VO
p3504
sg33
VNN
p3505
sg35
I18
ssg10
I346
sg36
g4
sg37
(dp3506
sg39
(dp3507
sg41
I1922
sg42
g21
sg43
g21
sg44
I346
sg45
Vsomething
p3508
sg47
I346
sg48
I1931
sbag0
(g23
g2
Ntp3509
Rp3510
(dp3511
g27
(dp3512
g29
Vfor
p3513
sg31
VO
p3514
sg33
VIN
p3515
sg35
I19
ssg10
I347
sg36
g4
sg37
(dp3516
sg39
(dp3517
sg41
I1932
sg42
g21
sg43
g21
sg44
I347
sg45
Vfor
p3518
sg47
I347
sg48
I1935
sbag0
(g23
g2
Ntp3519
Rp3520
(dp3521
g27
(dp3522
g29
Vnothing
p3523
sg31
VO
p3524
sg33
VNN
p3525
sg35
I20
ssg10
I348
sg36
g4
sg37
(dp3526
sg39
(dp3527
sg41
I1936
sg42
g21
sg43
g21
sg44
I348
sg45
Vnothing
p3528
sg47
I348
sg48
I1943
sbag0
(g23
g2
Ntp3529
Rp3530
(dp3531
g27
(dp3532
g29
V'
p3533
sg31
VO
p3534
sg33
V''
p3535
sg35
I21
ssg10
I349
sg36
g4
sg37
(dp3536
sg39
(dp3537
sg41
I1943
sg42
g21
sg43
g21
sg44
I349
sg45
V'
p3538
sg47
I349
sg48
I1944
sbag0
(g23
g2
Ntp3539
Rp3540
(dp3541
g27
(dp3542
g29
Vculture
p3543
sg31
VO
p3544
sg33
VNN
p3545
sg35
I22
ssg10
I350
sg36
g4
sg37
(dp3546
sg39
(dp3547
sg41
I1945
sg42
g21
sg43
g21
sg44
I350
sg45
Vculture
p3548
sg47
I350
sg48
I1952
sbag0
(g23
g2
Ntp3549
Rp3550
(dp3551
g27
(dp3552
g29
V''
p3553
sg31
VO
p3554
sg33
V''
p3555
sg35
I23
ssg10
I351
sg36
g4
sg37
(dp3556
sg39
(dp3557
sg41
I1952
sg42
g21
sg43
g21
sg44
I351
sg45
g3488
sg47
I351
sg48
I1953
sbag0
(g23
g2
Ntp3558
Rp3559
(dp3560
g27
(dp3561
g29
Vof
p3562
sg31
VO
p3563
sg33
VIN
p3564
sg35
I24
ssg10
I352
sg36
g4
sg37
(dp3565
sg39
(dp3566
sg41
I1954
sg42
g21
sg43
g21
sg44
I352
sg45
Vof
p3567
sg47
I352
sg48
I1956
sbag0
(g23
g2
Ntp3568
Rp3569
(dp3570
g27
(dp3571
g29
Vthe
p3572
sg31
VO
p3573
sg33
VDT
p3574
sg35
I25
ssg10
I353
sg36
g4
sg37
(dp3575
sg39
(dp3576
sg41
I1957
sg42
g21
sg43
g21
sg44
I353
sg45
Vthe
p3577
sg47
I353
sg48
I1960
sbag0
(g23
g2
Ntp3578
Rp3579
(dp3580
g27
(dp3581
g29
Vwelfare
p3582
sg31
VO
p3583
sg33
VNN
p3584
sg35
I26
ssg10
I354
sg36
g4
sg37
(dp3585
sg39
(dp3586
sg41
I1961
sg42
g21
sg43
g21
sg44
I354
sg45
Vwelfare
p3587
sg47
I354
sg48
I1968
sbag0
(g23
g2
Ntp3588
Rp3589
(dp3590
g27
(dp3591
g29
Vstate
p3592
sg31
VO
p3593
sg33
VNN
p3594
sg35
I27
ssg10
I355
sg36
g4
sg37
(dp3595
sg39
(dp3596
sg41
I1969
sg42
g21
sg43
g21
sg44
I355
sg45
Vstate
p3597
sg47
I355
sg48
I1974
sbag0
(g23
g2
Ntp3598
Rp3599
(dp3600
g27
(dp3601
g29
V,
p3602
sg31
VO
p3603
sg33
V,
p3604
sg35
I28
ssg10
I356
sg36
g4
sg37
(dp3605
sg39
(dp3606
sg41
I1974
sg42
g21
sg43
g21
sg44
I356
sg45
V,
p3607
sg47
I356
sg48
I1975
sbag0
(g23
g2
Ntp3608
Rp3609
(dp3610
g27
(dp3611
g29
Vclaim
p3612
sg31
VO
p3613
sg33
VVBG
p3614
sg35
I29
ssg10
I357
sg36
g4
sg37
(dp3615
sg39
(dp3616
sg41
I1976
sg42
g21
sg43
g21
sg44
I357
sg45
Vclaiming
p3617
sg47
I357
sg48
I1984
sbag0
(g23
g2
Ntp3618
Rp3619
(dp3620
g27
(dp3621
g29
Vthat
p3622
sg31
VO
p3623
sg33
VIN
p3624
sg35
I30
ssg10
I358
sg36
g4
sg37
(dp3625
sg39
(dp3626
sg41
I1985
sg42
g21
sg43
g21
sg44
I358
sg45
Vthat
p3627
sg47
I358
sg48
I1989
sbag0
(g23
g2
Ntp3628
Rp3629
(dp3630
g27
(dp3631
g29
Vthe
p3632
sg31
VO
p3633
sg33
VDT
p3634
sg35
I31
ssg10
I359
sg36
g4
sg37
(dp3635
sg39
(dp3636
sg41
I1990
sg42
g21
sg43
g21
sg44
I359
sg45
Vthe
p3637
sg47
I359
sg48
I1993
sbag0
(g23
g2
Ntp3638
Rp3639
(dp3640
g27
(dp3641
g29
Vhigh
p3642
sg31
VO
p3643
sg33
VJJ
p3644
sg35
I32
ssg10
I360
sg36
g4
sg37
(dp3645
sg39
(dp3646
sg41
I1994
sg42
g21
sg43
g21
sg44
I360
sg45
Vhigh
p3647
sg47
I360
sg48
I1998
sbag0
(g23
g2
Ntp3648
Rp3649
(dp3650
g27
(dp3651
g29
Vextent
p3652
sg31
VO
p3653
sg33
VNN
p3654
sg35
I33
ssg10
I361
sg36
g4
sg37
(dp3655
sg39
(dp3656
sg41
I1999
sg42
g21
sg43
g21
sg44
I361
sg45
Vextent
p3657
sg47
I361
sg48
I2005
sbag0
(g23
g2
Ntp3658
Rp3659
(dp3660
g27
(dp3661
g29
Vof
p3662
sg31
VO
p3663
sg33
VIN
p3664
sg35
I34
ssg10
I362
sg36
g4
sg37
(dp3665
sg39
(dp3666
sg41
I2006
sg42
g21
sg43
g21
sg44
I362
sg45
Vof
p3667
sg47
I362
sg48
I2008
sbag0
(g23
g2
Ntp3668
Rp3669
(dp3670
g27
(dp3671
g29
Vthe
p3672
sg31
VO
p3673
sg33
VDT
p3674
sg35
I35
ssg10
I363
sg36
g4
sg37
(dp3675
sg39
(dp3676
sg41
I2009
sg42
g21
sg43
g21
sg44
I363
sg45
Vthe
p3677
sg47
I363
sg48
I2012
sbag0
(g23
g2
Ntp3678
Rp3679
(dp3680
g27
(dp3681
g29
Vwelfare
p3682
sg31
VO
p3683
sg33
VNN
p3684
sg35
I36
ssg10
I364
sg36
g4
sg37
(dp3685
sg39
(dp3686
sg41
I2013
sg42
g21
sg43
g21
sg44
I364
sg45
Vwelfare
p3687
sg47
I364
sg48
I2020
sbag0
(g23
g2
Ntp3688
Rp3689
(dp3690
g27
(dp3691
g29
Vstate
p3692
sg31
VO
p3693
sg33
VNN
p3694
sg35
I37
ssg10
I365
sg36
g4
sg37
(dp3695
sg39
(dp3696
sg41
I2021
sg42
g21
sg43
g21
sg44
I365
sg45
Vstate
p3697
sg47
I365
sg48
I2026
sbag0
(g23
g2
Ntp3698
Rp3699
(dp3700
g27
(dp3701
g29
V``
p3702
sg31
VO
p3703
sg33
V``
p3704
sg35
I38
ssg10
I366
sg36
g4
sg37
(dp3705
sg39
(dp3706
sg41
I2027
sg42
g21
sg43
g21
sg44
I366
sg45
g3488
sg47
I366
sg48
I2028
sbag0
(g23
g2
Ntp3707
Rp3708
(dp3709
g27
(dp3710
g29
Vdiscourage
p3711
sg31
VO
p3712
sg33
VVBZ
p3713
sg35
I39
ssg10
I367
sg36
g4
sg37
(dp3714
sg39
(dp3715
sg41
I2028
sg42
g21
sg43
g21
sg44
I367
sg45
Vdiscourages
p3716
sg47
I367
sg48
I2039
sbag0
(g23
g2
Ntp3717
Rp3718
(dp3719
g27
(dp3720
g29
Vthe
p3721
sg31
VO
p3722
sg33
VDT
p3723
sg35
I40
ssg10
I368
sg36
g4
sg37
(dp3724
sg39
(dp3725
sg41
I2040
sg42
g21
sg43
g21
sg44
I368
sg45
Vthe
p3726
sg47
I368
sg48
I2043
sbag0
(g23
g2
Ntp3727
Rp3728
(dp3729
g27
(dp3730
g29
Vunemployed
p3731
sg31
VO
p3732
sg33
VJJ
p3733
sg35
I41
ssg10
I369
sg36
g4
sg37
(dp3734
sg39
(dp3735
sg41
I2044
sg42
g21
sg43
g21
sg44
I369
sg45
Vunemployed
p3736
sg47
I369
sg48
I2054
sbag0
(g23
g2
Ntp3737
Rp3738
(dp3739
g27
(dp3740
g29
Vfrom
p3741
sg31
VO
p3742
sg33
VIN
p3743
sg35
I42
ssg10
I370
sg36
g4
sg37
(dp3744
sg39
(dp3745
sg41
I2055
sg42
g21
sg43
g21
sg44
I370
sg45
Vfrom
p3746
sg47
I370
sg48
I2059
sbag0
(g23
g2
Ntp3747
Rp3748
(dp3749
g27
(dp3750
g29
Vfind
p3751
sg31
VO
p3752
sg33
VVBG
p3753
sg35
I43
ssg10
I371
sg36
g4
sg37
(dp3754
sg39
(dp3755
sg41
I2060
sg42
g21
sg43
g21
sg44
I371
sg45
Vfinding
p3756
sg47
I371
sg48
I2067
sbag0
(g23
g2
Ntp3757
Rp3758
(dp3759
g27
(dp3760
g29
Vjob
p3761
sg31
VO
p3762
sg33
VNNS
p3763
sg35
I44
ssg10
I372
sg36
g4
sg37
(dp3764
sg39
(dp3765
sg41
I2068
sg42
g21
sg43
g21
sg44
I372
sg45
Vjobs
p3766
sg47
I372
sg48
I2072
sbag0
(g23
g2
Ntp3767
Rp3768
(dp3769
g27
(dp3770
g29
V''
p3771
sg31
VO
p3772
sg33
V''
p3773
sg35
I45
ssg10
I373
sg36
g4
sg37
(dp3774
sg39
(dp3775
sg41
I2072
sg42
g21
sg43
g21
sg44
I373
sg45
g3488
sg47
I373
sg48
I2073
sbag0
(g23
g2
Ntp3776
Rp3777
(dp3778
g27
(dp3779
g29
V-lsb-
p3780
sg31
VO
p3781
sg33
V-LRB-
p3782
sg35
I46
ssg10
I374
sg36
g4
sg37
(dp3783
sg39
(dp3784
sg41
I2074
sg42
g21
sg43
g21
sg44
I374
sg45
V[
p3785
sg47
I374
sg48
I2075
sbag0
(g23
g2
Ntp3786
Rp3787
(dp3788
g27
(dp3789
g29
Vref
p3790
sg31
VO
p3791
sg33
VNN
p3792
sg35
I47
ssg10
I375
sg36
g4
sg37
(dp3793
sg39
(dp3794
sg41
I2075
sg42
g21
sg43
g21
sg44
I375
sg45
VREF
p3795
sg47
I375
sg48
I2078
sbag0
(g23
g2
Ntp3796
Rp3797
(dp3798
g27
(dp3799
g29
V-rsb-
p3800
sg31
VO
p3801
sg33
V-RRB-
p3802
sg35
I48
ssg10
I376
sg36
g4
sg37
(dp3803
sg39
(dp3804
sg41
I2078
sg42
g21
sg43
g21
sg44
I376
sg45
V]
p3805
sg47
I376
sg48
I2079
sbag0
(g23
g2
Ntp3806
Rp3807
(dp3808
g27
(dp3809
g29
V.
p3810
sg31
VO
p3811
sg33
V.
p3812
sg35
I49
ssg10
I377
sg36
g4
sg37
(dp3813
sg39
(dp3814
sg41
I2079
sg42
g21
sg43
g21
sg44
I377
sg45
V.
p3815
sg47
I377
sg48
I2080
sbag0
(g23
g2
Ntp3816
Rp3817
(dp3818
g27
(dp3819
g29
V55
p3820
sg31
VPERCENT
p3821
sg33
VCD
p3822
sg35
I1
ssg10
I378
sg36
g4
sg37
(dp3823
sg39
(dp3824
sg41
I2081
sg42
g21
sg43
g21
sg44
I378
sg45
V55
p3825
sg47
I378
sg48
I2083
sbag0
(g23
g2
Ntp3826
Rp3827
(dp3828
g27
(dp3829
g29
V%
p3830
sg31
VPERCENT
p3831
sg33
VNN
p3832
sg35
I2
ssg10
I379
sg36
g4
sg37
(dp3833
sg39
(dp3834
sg41
I2083
sg42
g21
sg43
g21
sg44
I379
sg45
V%
p3835
sg47
I379
sg48
I2084
sbag0
(g23
g2
Ntp3836
Rp3837
(dp3838
g27
(dp3839
g29
Vof
p3840
sg31
VO
p3841
sg33
VIN
p3842
sg35
I3
ssg10
I380
sg36
g4
sg37
(dp3843
sg39
(dp3844
sg41
I2085
sg42
g21
sg43
g21
sg44
I380
sg45
Vof
p3845
sg47
I380
sg48
I2087
sbag0
(g23
g2
Ntp3846
Rp3847
(dp3848
g27
(dp3849
g29
Vpeople
p3850
sg31
VO
p3851
sg33
VNNS
p3852
sg35
I4
ssg10
I381
sg36
g4
sg37
(dp3853
sg39
(dp3854
sg41
I2088
sg42
g21
sg43
g21
sg44
I381
sg45
Vpeople
p3855
sg47
I381
sg48
I2094
sbag0
(g23
g2
Ntp3856
Rp3857
(dp3858
g27
(dp3859
g29
Vin
p3860
sg31
VO
p3861
sg33
VIN
p3862
sg35
I5
ssg10
I382
sg36
g4
sg37
(dp3863
sg39
(dp3864
sg41
I2095
sg42
g21
sg43
g21
sg44
I382
sg45
Vin
p3865
sg47
I382
sg48
I2097
sbag0
(g23
g2
Ntp3866
Rp3867
(dp3868
g27
(dp3869
g29
VEngland
p3870
sg31
VLOCATION
p3871
sg33
VNNP
p3872
sg35
I6
ssg10
I383
sg36
g4
sg37
(dp3873
sg39
(dp3874
sg41
I2098
sg42
g21
sg43
g21
sg44
I383
sg45
VEngland
p3875
sg47
I383
sg48
I2105
sbag0
(g23
g2
Ntp3876
Rp3877
(dp3878
g27
(dp3879
g29
Vand
p3880
sg31
VO
p3881
sg33
VCC
p3882
sg35
I7
ssg10
I384
sg36
g4
sg37
(dp3883
sg39
(dp3884
sg41
I2102
sg42
g21
sg43
g21
sg44
I384
sg45
Vand
p3885
sg47
I384
sg48
I2105
sbag0
(g23
g2
Ntp3886
Rp3887
(dp3888
g27
(dp3889
g29
V43
p3890
sg31
VPERCENT
p3891
sg33
VCD
p3892
sg35
I8
ssg10
I385
sg36
g4
sg37
(dp3893
sg39
(dp3894
sg41
I2110
sg42
g21
sg43
g21
sg44
I385
sg45
V43
p3895
sg47
I385
sg48
I2112
sbag0
(g23
g2
Ntp3896
Rp3897
(dp3898
g27
(dp3899
g29
V%
p3900
sg31
VPERCENT
p3901
sg33
VNN
p3902
sg35
I9
ssg10
I386
sg36
g4
sg37
(dp3903
sg39
(dp3904
sg41
I2112
sg42
g21
sg43
g21
sg44
I386
sg45
V%
p3905
sg47
I386
sg48
I2113
sbag0
(g23
g2
Ntp3906
Rp3907
(dp3908
g27
(dp3909
g29
Vof
p3910
sg31
VO
p3911
sg33
VIN
p3912
sg35
I10
ssg10
I387
sg36
g4
sg37
(dp3913
sg39
(dp3914
sg41
I2114
sg42
g21
sg43
g21
sg44
I387
sg45
Vof
p3915
sg47
I387
sg48
I2116
sbag0
(g23
g2
Ntp3916
Rp3917
(dp3918
g27
(dp3919
g29
Vpeople
p3920
sg31
VO
p3921
sg33
VNNS
p3922
sg35
I11
ssg10
I388
sg36
g4
sg37
(dp3923
sg39
(dp3924
sg41
I2117
sg42
g21
sg43
g21
sg44
I388
sg45
Vpeople
p3925
sg47
I388
sg48
I2123
sbag0
(g23
g2
Ntp3926
Rp3927
(dp3928
g27
(dp3929
g29
Vin
p3930
sg31
VO
p3931
sg33
VIN
p3932
sg35
I12
ssg10
I389
sg36
g4
sg37
(dp3933
sg39
(dp3934
sg41
I2124
sg42
g21
sg43
g21
sg44
I389
sg45
Vin
p3935
sg47
I389
sg48
I2126
sbag0
(g23
g2
Ntp3936
Rp3937
(dp3938
g27
(dp3939
g29
VScotland
p3940
sg31
VLOCATION
p3941
sg33
VNNP
p3942
sg35
I13
ssg10
I390
sg36
g4
sg37
(dp3943
sg39
(dp3944
sg41
I2127
sg42
g21
sg43
g21
sg44
I390
sg45
VScotland
p3945
sg47
I390
sg48
I2135
sbag0
(g23
g2
Ntp3946
Rp3947
(dp3948
g27
(dp3949
g29
Vbelieve
p3950
sg31
VO
p3951
sg33
VVBP
p3952
sg35
I14
ssg10
I391
sg36
g4
sg37
(dp3953
sg39
(dp3954
sg41
I2136
sg42
g21
sg43
g21
sg44
I391
sg45
Vbelieve
p3955
sg47
I391
sg48
I2143
sbag0
(g23
g2
Ntp3956
Rp3957
(dp3958
g27
(dp3959
g29
Vthat
p3960
sg31
VO
p3961
sg33
VIN
p3962
sg35
I15
ssg10
I392
sg36
g4
sg37
(dp3963
sg39
(dp3964
sg41
I2144
sg42
g21
sg43
g21
sg44
I392
sg45
Vthat
p3965
sg47
I392
sg48
I2148
sbag0
(g23
g2
Ntp3966
Rp3967
(dp3968
g27
(dp3969
g29
V``
p3970
sg31
VO
p3971
sg33
V``
p3972
sg35
I16
ssg10
I393
sg36
g4
sg37
(dp3973
sg39
(dp3974
sg41
I2149
sg42
g21
sg43
g21
sg44
I393
sg45
g3488
sg47
I393
sg48
I2150
sbag0
(g23
g2
Ntp3975
Rp3976
(dp3977
g27
(dp3978
g29
Vbenefit
p3979
sg31
VO
p3980
sg33
VNNS
p3981
sg35
I17
ssg10
I394
sg36
g4
sg37
(dp3982
sg39
(dp3983
sg41
I2150
sg42
g21
sg43
g21
sg44
I394
sg45
Vbenefits
p3984
sg47
I394
sg48
I2158
sbag0
(g23
g2
Ntp3985
Rp3986
(dp3987
g27
(dp3988
g29
Vfor
p3989
sg31
VO
p3990
sg33
VIN
p3991
sg35
I18
ssg10
I395
sg36
g4
sg37
(dp3992
sg39
(dp3993
sg41
I2159
sg42
g21
sg43
g21
sg44
I395
sg45
Vfor
p3994
sg47
I395
sg48
I2162
sbag0
(g23
g2
Ntp3995
Rp3996
(dp3997
g27
(dp3998
g29
Vunemployed
p3999
sg31
VO
p4000
sg33
VJJ
p4001
sg35
I19
ssg10
I396
sg36
g4
sg37
(dp4002
sg39
(dp4003
sg41
I2163
sg42
g21
sg43
g21
sg44
I396
sg45
Vunemployed
p4004
sg47
I396
sg48
I2173
sbag0
(g23
g2
Ntp4005
Rp4006
(dp4007
g27
(dp4008
g29
Vpeople
p4009
sg31
VO
p4010
sg33
VNNS
p4011
sg35
I20
ssg10
I397
sg36
g4
sg37
(dp4012
sg39
(dp4013
sg41
I2174
sg42
g21
sg43
g21
sg44
I397
sg45
Vpeople
p4014
sg47
I397
sg48
I2180
sbag0
(g23
g2
Ntp4015
Rp4016
(dp4017
g27
(dp4018
g29
Vbe
p4019
sg31
VO
p4020
sg33
VVBP
p4021
sg35
I21
ssg10
I398
sg36
g4
sg37
(dp4022
sg39
(dp4023
sg41
I2181
sg42
g21
sg43
g21
sg44
I398
sg45
Vare
p4024
sg47
I398
sg48
I2184
sbag0
(g23
g2
Ntp4025
Rp4026
(dp4027
g27
(dp4028
g29
Vtoo
p4029
sg31
VO
p4030
sg33
VRB
p4031
sg35
I22
ssg10
I399
sg36
g4
sg37
(dp4032
sg39
(dp4033
sg41
I2185
sg42
g21
sg43
g21
sg44
I399
sg45
Vtoo
p4034
sg47
I399
sg48
I2188
sbag0
(g23
g2
Ntp4035
Rp4036
(dp4037
g27
(dp4038
g29
Vhigh
p4039
sg31
VO
p4040
sg33
VJJ
p4041
sg35
I23
ssg10
I400
sg36
g4
sg37
(dp4042
sg39
(dp4043
sg41
I2189
sg42
g21
sg43
g21
sg44
I400
sg45
Vhigh
p4044
sg47
I400
sg48
I2193
sbag0
(g23
g2
Ntp4045
Rp4046
(dp4047
g27
(dp4048
g29
Vand
p4049
sg31
VO
p4050
sg33
VCC
p4051
sg35
I24
ssg10
I401
sg36
g4
sg37
(dp4052
sg39
(dp4053
sg41
I2194
sg42
g21
sg43
g21
sg44
I401
sg45
Vand
p4054
sg47
I401
sg48
I2197
sbag0
(g23
g2
Ntp4055
Rp4056
(dp4057
g27
(dp4058
g29
Vdiscourage
p4059
sg31
VO
p4060
sg33
VVB
p4061
sg35
I25
ssg10
I402
sg36
g4
sg37
(dp4062
sg39
(dp4063
sg41
I2198
sg42
g21
sg43
g21
sg44
I402
sg45
Vdiscourage
p4064
sg47
I402
sg48
I2208
sbag0
(g23
g2
Ntp4065
Rp4066
(dp4067
g27
(dp4068
g29
Vthey
p4069
sg31
VO
p4070
sg33
VPRP
p4071
sg35
I26
ssg10
I403
sg36
g4
sg37
(dp4072
sg39
(dp4073
sg41
I2209
sg42
g21
sg43
g21
sg44
I403
sg45
Vthem
p4074
sg47
I403
sg48
I2213
sbag0
(g23
g2
Ntp4075
Rp4076
(dp4077
g27
(dp4078
g29
Vfrom
p4079
sg31
VO
p4080
sg33
VIN
p4081
sg35
I27
ssg10
I404
sg36
g4
sg37
(dp4082
sg39
(dp4083
sg41
I2214
sg42
g21
sg43
g21
sg44
I404
sg45
Vfrom
p4084
sg47
I404
sg48
I2218
sbag0
(g23
g2
Ntp4085
Rp4086
(dp4087
g27
(dp4088
g29
Vfind
p4089
sg31
VO
p4090
sg33
VVBG
p4091
sg35
I28
ssg10
I405
sg36
g4
sg37
(dp4092
sg39
(dp4093
sg41
I2219
sg42
g21
sg43
g21
sg44
I405
sg45
Vfinding
p4094
sg47
I405
sg48
I2226
sbag0
(g23
g2
Ntp4095
Rp4096
(dp4097
g27
(dp4098
g29
Vjob
p4099
sg31
VO
p4100
sg33
VNNS
p4101
sg35
I29
ssg10
I406
sg36
g4
sg37
(dp4102
sg39
(dp4103
sg41
I2227
sg42
g21
sg43
g21
sg44
I406
sg45
Vjobs
p4104
sg47
I406
sg48
I2231
sbag0
(g23
g2
Ntp4105
Rp4106
(dp4107
g27
(dp4108
g29
V''
p4109
sg31
VO
p4110
sg33
V''
p4111
sg35
I30
ssg10
I407
sg36
g4
sg37
(dp4112
sg39
(dp4113
sg41
I2231
sg42
g21
sg43
g21
sg44
I407
sg45
g3488
sg47
I407
sg48
I2232
sbag0
(g23
g2
Ntp4114
Rp4115
(dp4116
g27
(dp4117
g29
V-lsb-
p4118
sg31
VO
p4119
sg33
V-LRB-
p4120
sg35
I31
ssg10
I408
sg36
g4
sg37
(dp4121
sg39
(dp4122
sg41
I2233
sg42
g21
sg43
g21
sg44
I408
sg45
V[
p4123
sg47
I408
sg48
I2234
sbag0
(g23
g2
Ntp4124
Rp4125
(dp4126
g27
(dp4127
g29
Vref
p4128
sg31
VO
p4129
sg33
VNN
p4130
sg35
I32
ssg10
I409
sg36
g4
sg37
(dp4131
sg39
(dp4132
sg41
I2234
sg42
g21
sg43
g21
sg44
I409
sg45
VREF
p4133
sg47
I409
sg48
I2237
sbag0
(g23
g2
Ntp4134
Rp4135
(dp4136
g27
(dp4137
g29
V-rsb-
p4138
sg31
VO
p4139
sg33
V-RRB-
p4140
sg35
I33
ssg10
I410
sg36
g4
sg37
(dp4141
sg39
(dp4142
sg41
I2237
sg42
g21
sg43
g21
sg44
I410
sg45
V]
p4143
sg47
I410
sg48
I2238
sbag0
(g23
g2
Ntp4144
Rp4145
(dp4146
g27
(dp4147
g29
V.
p4148
sg31
VO
p4149
sg33
V.
p4150
sg35
I34
ssg10
I411
sg36
g4
sg37
(dp4151
sg39
(dp4152
sg41
I2238
sg42
g21
sg43
g21
sg44
I411
sg45
V.
p4153
sg47
I411
sg48
I2239
sbag0
(g23
g2
Ntp4154
Rp4155
(dp4156
g27
(dp4157
g29
VMarxists
p4158
sg31
VO
p4159
sg33
VNNPS
p4160
sg35
I1
ssg10
I412
sg36
g4
sg37
(dp4161
sg39
(dp4162
sg41
I2241
sg42
g21
sg43
g21
sg44
I412
sg45
VMarxists
p4163
sg47
I412
sg48
I2249
sbag0
(g23
g2
Ntp4164
Rp4165
(dp4166
g27
(dp4167
g29
Vargue
p4168
sg31
VO
p4169
sg33
VVBP
p4170
sg35
I2
ssg10
I413
sg36
g4
sg37
(dp4171
sg39
(dp4172
sg41
I2250
sg42
g21
sg43
g21
sg44
I413
sg45
Vargue
p4173
sg47
I413
sg48
I2255
sbag0
(g23
g2
Ntp4174
Rp4175
(dp4176
g27
(dp4177
g29
Vthat
p4178
sg31
VO
p4179
sg33
VIN
p4180
sg35
I3
ssg10
I414
sg36
g4
sg37
(dp4181
sg39
(dp4182
sg41
I2256
sg42
g21
sg43
g21
sg44
I414
sg45
Vthat
p4183
sg47
I414
sg48
I2260
sbag0
(g23
g2
Ntp4184
Rp4185
(dp4186
g27
(dp4187
g29
Vwelfare
p4188
sg31
VO
p4189
sg33
VNN
p4190
sg35
I4
ssg10
I415
sg36
g4
sg37
(dp4191
sg39
(dp4192
sg41
I2261
sg42
g21
sg43
g21
sg44
I415
sg45
Vwelfare
p4193
sg47
I415
sg48
I2268
sbag0
(g23
g2
Ntp4194
Rp4195
(dp4196
g27
(dp4197
g29
Vstate
p4198
sg31
VO
p4199
sg33
VNNS
p4200
sg35
I5
ssg10
I416
sg36
g4
sg37
(dp4201
sg39
(dp4202
sg41
I2269
sg42
g21
sg43
g21
sg44
I416
sg45
Vstates
p4203
sg47
I416
sg48
I2275
sbag0
(g23
g2
Ntp4204
Rp4205
(dp4206
g27
(dp4207
g29
Vand
p4208
sg31
VO
p4209
sg33
VCC
p4210
sg35
I6
ssg10
I417
sg36
g4
sg37
(dp4211
sg39
(dp4212
sg41
I2276
sg42
g21
sg43
g21
sg44
I417
sg45
Vand
p4213
sg47
I417
sg48
I2279
sbag0
(g23
g2
Ntp4214
Rp4215
(dp4216
g27
(dp4217
g29
Vmodern
p4218
sg31
VO
p4219
sg33
VJJ
p4220
sg35
I7
ssg10
I418
sg36
g4
sg37
(dp4221
sg39
(dp4222
sg41
I2280
sg42
g21
sg43
g21
sg44
I418
sg45
Vmodern
p4223
sg47
I418
sg48
I2286
sbag0
(g23
g2
Ntp4224
Rp4225
(dp4226
g27
(dp4227
g29
Vsocial
p4228
sg31
VO
p4229
sg33
VJJ
p4230
sg35
I8
ssg10
I419
sg36
g4
sg37
(dp4231
sg39
(dp4232
sg41
I2287
sg42
g21
sg43
g21
sg44
I419
sg45
Vsocial
p4233
sg47
I419
sg48
I2293
sbag0
(g23
g2
Ntp4234
Rp4235
(dp4236
g27
(dp4237
g29
Vdemocratic
p4238
sg31
VO
p4239
sg33
VJJ
p4240
sg35
I9
ssg10
I420
sg36
g4
sg37
(dp4241
sg39
(dp4242
sg41
I2294
sg42
g21
sg43
g21
sg44
I420
sg45
Vdemocratic
p4243
sg47
I420
sg48
I2304
sbag0
(g23
g2
Ntp4244
Rp4245
(dp4246
g27
(dp4247
g29
Vpolicy
p4248
sg31
VO
p4249
sg33
VNNS
p4250
sg35
I10
ssg10
I421
sg36
g4
sg37
(dp4251
sg39
(dp4252
sg41
I2305
sg42
g21
sg43
g21
sg44
I421
sg45
Vpolicies
p4253
sg47
I421
sg48
I2313
sbag0
(g23
g2
Ntp4254
Rp4255
(dp4256
g27
(dp4257
g29
Vlimit
p4258
sg31
VO
p4259
sg33
VVBP
p4260
sg35
I11
ssg10
I422
sg36
g4
sg37
(dp4261
sg39
(dp4262
sg41
I2314
sg42
g21
sg43
g21
sg44
I422
sg45
Vlimit
p4263
sg47
I422
sg48
I2319
sbag0
(g23
g2
Ntp4264
Rp4265
(dp4266
g27
(dp4267
g29
Vthe
p4268
sg31
VO
p4269
sg33
VDT
p4270
sg35
I12
ssg10
I423
sg36
g4
sg37
(dp4271
sg39
(dp4272
sg41
I2320
sg42
g21
sg43
g21
sg44
I423
sg45
Vthe
p4273
sg47
I423
sg48
I2323
sbag0
(g23
g2
Ntp4274
Rp4275
(dp4276
g27
(dp4277
g29
Vincentive
p4278
sg31
VO
p4279
sg33
VNN
p4280
sg35
I13
ssg10
I424
sg36
g4
sg37
(dp4281
sg39
(dp4282
sg41
I2324
sg42
g21
sg43
g21
sg44
I424
sg45
Vincentive
p4283
sg47
I424
sg48
I2333
sbag0
(g23
g2
Ntp4284
Rp4285
(dp4286
g27
(dp4287
g29
Vsystem
p4288
sg31
VO
p4289
sg33
VNN
p4290
sg35
I14
ssg10
I425
sg36
g4
sg37
(dp4291
sg39
(dp4292
sg41
I2334
sg42
g21
sg43
g21
sg44
I425
sg45
Vsystem
p4293
sg47
I425
sg48
I2340
sbag0
(g23
g2
Ntp4294
Rp4295
(dp4296
g27
(dp4297
g29
Vof
p4298
sg31
VO
p4299
sg33
VIN
p4300
sg35
I15
ssg10
I426
sg36
g4
sg37
(dp4301
sg39
(dp4302
sg41
I2341
sg42
g21
sg43
g21
sg44
I426
sg45
Vof
p4303
sg47
I426
sg48
I2343
sbag0
(g23
g2
Ntp4304
Rp4305
(dp4306
g27
(dp4307
g29
Vthe
p4308
sg31
VO
p4309
sg33
VDT
p4310
sg35
I16
ssg10
I427
sg36
g4
sg37
(dp4311
sg39
(dp4312
sg41
I2344
sg42
g21
sg43
g21
sg44
I427
sg45
Vthe
p4313
sg47
I427
sg48
I2347
sbag0
(g23
g2
Ntp4314
Rp4315
(dp4316
g27
(dp4317
g29
Vmarket
p4318
sg31
VO
p4319
sg33
VNN
p4320
sg35
I17
ssg10
I428
sg36
g4
sg37
(dp4321
sg39
(dp4322
sg41
I2348
sg42
g21
sg43
g21
sg44
I428
sg45
Vmarket
p4323
sg47
I428
sg48
I2354
sbag0
(g23
g2
Ntp4324
Rp4325
(dp4326
g27
(dp4327
g29
Vby
p4328
sg31
VO
p4329
sg33
VIN
p4330
sg35
I18
ssg10
I429
sg36
g4
sg37
(dp4331
sg39
(dp4332
sg41
I2355
sg42
g21
sg43
g21
sg44
I429
sg45
Vby
p4333
sg47
I429
sg48
I2357
sbag0
(g23
g2
Ntp4334
Rp4335
(dp4336
g27
(dp4337
g29
Vprovide
p4338
sg31
VO
p4339
sg33
VVBG
p4340
sg35
I19
ssg10
I430
sg36
g4
sg37
(dp4341
sg39
(dp4342
sg41
I2358
sg42
g21
sg43
g21
sg44
I430
sg45
Vproviding
p4343
sg47
I430
sg48
I2367
sbag0
(g23
g2
Ntp4344
Rp4345
(dp4346
g27
(dp4347
g29
Vthing
p4348
sg31
VO
p4349
sg33
VNNS
p4350
sg35
I20
ssg10
I431
sg36
g4
sg37
(dp4351
sg39
(dp4352
sg41
I2368
sg42
g21
sg43
g21
sg44
I431
sg45
Vthings
p4353
sg47
I431
sg48
I2374
sbag0
(g23
g2
Ntp4354
Rp4355
(dp4356
g27
(dp4357
g29
Vsuch
p4358
sg31
VO
p4359
sg33
VJJ
p4360
sg35
I21
ssg10
I432
sg36
g4
sg37
(dp4361
sg39
(dp4362
sg41
I2375
sg42
g21
sg43
g21
sg44
I432
sg45
Vsuch
p4363
sg47
I432
sg48
I2379
sbag0
(g23
g2
Ntp4364
Rp4365
(dp4366
g27
(dp4367
g29
Vas
p4368
sg31
VO
p4369
sg33
VIN
p4370
sg35
I22
ssg10
I433
sg36
g4
sg37
(dp4371
sg39
(dp4372
sg41
I2380
sg42
g21
sg43
g21
sg44
I433
sg45
Vas
p4373
sg47
I433
sg48
I2382
sbag0
(g23
g2
Ntp4374
Rp4375
(dp4376
g27
(dp4377
g29
Vminimum
p4378
sg31
VO
p4379
sg33
VJJ
p4380
sg35
I23
ssg10
I434
sg36
g4
sg37
(dp4381
sg39
(dp4382
sg41
I2383
sg42
g21
sg43
g21
sg44
I434
sg45
Vminimum
p4383
sg47
I434
sg48
I2390
sbag0
(g23
g2
Ntp4384
Rp4385
(dp4386
g27
(dp4387
g29
Vwages
p4388
sg31
VO
p4389
sg33
VNNS
p4390
sg35
I24
ssg10
I435
sg36
g4
sg37
(dp4391
sg39
(dp4392
sg41
I2391
sg42
g21
sg43
g21
sg44
I435
sg45
Vwages
p4393
sg47
I435
sg48
I2396
sbag0
(g23
g2
Ntp4394
Rp4395
(dp4396
g27
(dp4397
g29
V,
p4398
sg31
VO
p4399
sg33
V,
p4400
sg35
I25
ssg10
I436
sg36
g4
sg37
(dp4401
sg39
(dp4402
sg41
I2396
sg42
g21
sg43
g21
sg44
I436
sg45
V,
p4403
sg47
I436
sg48
I2397
sbag0
(g23
g2
Ntp4404
Rp4405
(dp4406
g27
(dp4407
g29
Vunemployment
p4408
sg31
VO
p4409
sg33
VNN
p4410
sg35
I26
ssg10
I437
sg36
g4
sg37
(dp4411
sg39
(dp4412
sg41
I2398
sg42
g21
sg43
g21
sg44
I437
sg45
Vunemployment
p4413
sg47
I437
sg48
I2410
sbag0
(g23
g2
Ntp4414
Rp4415
(dp4416
g27
(dp4417
g29
Vinsurance
p4418
sg31
VO
p4419
sg33
VNN
p4420
sg35
I27
ssg10
I438
sg36
g4
sg37
(dp4421
sg39
(dp4422
sg41
I2411
sg42
g21
sg43
g21
sg44
I438
sg45
Vinsurance
p4423
sg47
I438
sg48
I2420
sbag0
(g23
g2
Ntp4424
Rp4425
(dp4426
g27
(dp4427
g29
V,
p4428
sg31
VO
p4429
sg33
V,
p4430
sg35
I28
ssg10
I439
sg36
g4
sg37
(dp4431
sg39
(dp4432
sg41
I2420
sg42
g21
sg43
g21
sg44
I439
sg45
V,
p4433
sg47
I439
sg48
I2421
sbag0
(g23
g2
Ntp4434
Rp4435
(dp4436
g27
(dp4437
g29
Vtax
p4438
sg31
VO
p4439
sg33
VVBG
p4440
sg35
I29
ssg10
I440
sg36
g4
sg37
(dp4441
sg39
(dp4442
sg41
I2422
sg42
g21
sg43
g21
sg44
I440
sg45
Vtaxing
p4443
sg47
I440
sg48
I2428
sbag0
(g23
g2
Ntp4444
Rp4445
(dp4446
g27
(dp4447
g29
Vprofit
p4448
sg31
VO
p4449
sg33
VNNS
p4450
sg35
I30
ssg10
I441
sg36
g4
sg37
(dp4451
sg39
(dp4452
sg41
I2429
sg42
g21
sg43
g21
sg44
I441
sg45
Vprofits
p4453
sg47
I441
sg48
I2436
sbag0
(g23
g2
Ntp4454
Rp4455
(dp4456
g27
(dp4457
g29
Vand
p4458
sg31
VO
p4459
sg33
VCC
p4460
sg35
I31
ssg10
I442
sg36
g4
sg37
(dp4461
sg39
(dp4462
sg41
I2437
sg42
g21
sg43
g21
sg44
I442
sg45
Vand
p4463
sg47
I442
sg48
I2440
sbag0
(g23
g2
Ntp4464
Rp4465
(dp4466
g27
(dp4467
g29
Vreduce
p4468
sg31
VO
p4469
sg33
VVBG
p4470
sg35
I32
ssg10
I443
sg36
g4
sg37
(dp4471
sg39
(dp4472
sg41
I2441
sg42
g21
sg43
g21
sg44
I443
sg45
Vreducing
p4473
sg47
I443
sg48
I2449
sbag0
(g23
g2
Ntp4474
Rp4475
(dp4476
g27
(dp4477
g29
Vthe
p4478
sg31
VO
p4479
sg33
VDT
p4480
sg35
I33
ssg10
I444
sg36
g4
sg37
(dp4481
sg39
(dp4482
sg41
I2450
sg42
g21
sg43
g21
sg44
I444
sg45
Vthe
p4483
sg47
I444
sg48
I2453
sbag0
(g23
g2
Ntp4484
Rp4485
(dp4486
g27
(dp4487
g29
Vreserve
p4488
sg31
VO
p4489
sg33
VNN
p4490
sg35
I34
ssg10
I445
sg36
g4
sg37
(dp4491
sg39
(dp4492
sg41
I2454
sg42
g21
sg43
g21
sg44
I445
sg45
Vreserve
p4493
sg47
I445
sg48
I2461
sbag0
(g23
g2
Ntp4494
Rp4495
(dp4496
g27
(dp4497
g29
Varmy
p4498
sg31
VO
p4499
sg33
VNN
p4500
sg35
I35
ssg10
I446
sg36
g4
sg37
(dp4501
sg39
(dp4502
sg41
I2462
sg42
g21
sg43
g21
sg44
I446
sg45
Varmy
p4503
sg47
I446
sg48
I2466
sbag0
(g23
g2
Ntp4504
Rp4505
(dp4506
g27
(dp4507
g29
Vof
p4508
sg31
VO
p4509
sg33
VIN
p4510
sg35
I36
ssg10
I447
sg36
g4
sg37
(dp4511
sg39
(dp4512
sg41
I2467
sg42
g21
sg43
g21
sg44
I447
sg45
Vof
p4513
sg47
I447
sg48
I2469
sbag0
(g23
g2
Ntp4514
Rp4515
(dp4516
g27
(dp4517
g29
Vlabor
p4518
sg31
VO
p4519
sg33
VNN
p4520
sg35
I37
ssg10
I448
sg36
g4
sg37
(dp4521
sg39
(dp4522
sg41
I2470
sg42
g21
sg43
g21
sg44
I448
sg45
Vlabor
p4523
sg47
I448
sg48
I2475
sbag0
(g23
g2
Ntp4524
Rp4525
(dp4526
g27
(dp4527
g29
V,
p4528
sg31
VO
p4529
sg33
V,
p4530
sg35
I38
ssg10
I449
sg36
g4
sg37
(dp4531
sg39
(dp4532
sg41
I2475
sg42
g21
sg43
g21
sg44
I449
sg45
V,
p4533
sg47
I449
sg48
I2476
sbag0
(g23
g2
Ntp4534
Rp4535
(dp4536
g27
(dp4537
g29
Vresult
p4538
sg31
VO
p4539
sg33
VVBG
p4540
sg35
I39
ssg10
I450
sg36
g4
sg37
(dp4541
sg39
(dp4542
sg41
I2477
sg42
g21
sg43
g21
sg44
I450
sg45
Vresulting
p4543
sg47
I450
sg48
I2486
sbag0
(g23
g2
Ntp4544
Rp4545
(dp4546
g27
(dp4547
g29
Vin
p4548
sg31
VO
p4549
sg33
VIN
p4550
sg35
I40
ssg10
I451
sg36
g4
sg37
(dp4551
sg39
(dp4552
sg41
I2483
sg42
g21
sg43
g21
sg44
I451
sg45
Vin
p4553
sg47
I451
sg48
I2485
sbag0
(g23
g2
Ntp4554
Rp4555
(dp4556
g27
(dp4557
g29
Vcapitalist
p4558
sg31
VO
p4559
sg33
VNNS
p4560
sg35
I41
ssg10
I452
sg36
g4
sg37
(dp4561
sg39
(dp4562
sg41
I2490
sg42
g21
sg43
g21
sg44
I452
sg45
Vcapitalists
p4563
sg47
I452
sg48
I2501
sbag0
(g23
g2
Ntp4564
Rp4565
(dp4566
g27
(dp4567
g29
Vhave
p4568
sg31
VO
p4569
sg33
VVBG
p4570
sg35
I42
ssg10
I453
sg36
g4
sg37
(dp4571
sg39
(dp4572
sg41
I2502
sg42
g21
sg43
g21
sg44
I453
sg45
Vhaving
p4573
sg47
I453
sg48
I2508
sbag0
(g23
g2
Ntp4574
Rp4575
(dp4576
g27
(dp4577
g29
Vlittle
p4578
sg31
VO
p4579
sg33
VJJ
p4580
sg35
I43
ssg10
I454
sg36
g4
sg37
(dp4581
sg39
(dp4582
sg41
I2509
sg42
g21
sg43
g21
sg44
I454
sg45
Vlittle
p4583
sg47
I454
sg48
I2515
sbag0
(g23
g2
Ntp4584
Rp4585
(dp4586
g27
(dp4587
g29
Vincentive
p4588
sg31
VO
p4589
sg33
VNN
p4590
sg35
I44
ssg10
I455
sg36
g4
sg37
(dp4591
sg39
(dp4592
sg41
I2516
sg42
g21
sg43
g21
sg44
I455
sg45
Vincentive
p4593
sg47
I455
sg48
I2525
sbag0
(g23
g2
Ntp4594
Rp4595
(dp4596
g27
(dp4597
g29
Vto
p4598
sg31
VO
p4599
sg33
VTO
p4600
sg35
I45
ssg10
I456
sg36
g4
sg37
(dp4601
sg39
(dp4602
sg41
I2526
sg42
g21
sg43
g21
sg44
I456
sg45
Vto
p4603
sg47
I456
sg48
I2528
sbag0
(g23
g2
Ntp4604
Rp4605
(dp4606
g27
(dp4607
g29
Vinvest
p4608
sg31
VO
p4609
sg33
VVB
p4610
sg35
I46
ssg10
I457
sg36
g4
sg37
(dp4611
sg39
(dp4612
sg41
I2529
sg42
g21
sg43
g21
sg44
I457
sg45
Vinvest
p4613
sg47
I457
sg48
I2535
sbag0
(g23
g2
Ntp4614
Rp4615
(dp4616
g27
(dp4617
g29
V;
p4618
sg31
VO
p4619
sg33
V:
p4620
sg35
I47
ssg10
I458
sg36
g4
sg37
(dp4621
sg39
(dp4622
sg41
I2535
sg42
g21
sg43
g21
sg44
I458
sg45
V;
p4623
sg47
I458
sg48
I2536
sbag0
(g23
g2
Ntp4624
Rp4625
(dp4626
g27
(dp4627
g29
Vin
p4628
sg31
VO
p4629
sg33
VIN
p4630
sg35
I48
ssg10
I459
sg36
g4
sg37
(dp4631
sg39
(dp4632
sg41
I2537
sg42
g21
sg43
g21
sg44
I459
sg45
Vin
p4633
sg47
I459
sg48
I2539
sbag0
(g23
g2
Ntp4634
Rp4635
(dp4636
g27
(dp4637
g29
Vessence
p4638
sg31
VO
p4639
sg33
VNN
p4640
sg35
I49
ssg10
I460
sg36
g4
sg37
(dp4641
sg39
(dp4642
sg41
I2540
sg42
g21
sg43
g21
sg44
I460
sg45
Vessence
p4643
sg47
I460
sg48
I2547
sbag0
(g23
g2
Ntp4644
Rp4645
(dp4646
g27
(dp4647
g29
V,
p4648
sg31
VO
p4649
sg33
V,
p4650
sg35
I50
ssg10
I461
sg36
g4
sg37
(dp4651
sg39
(dp4652
sg41
I2547
sg42
g21
sg43
g21
sg44
I461
sg45
V,
p4653
sg47
I461
sg48
I2548
sbag0
(g23
g2
Ntp4654
Rp4655
(dp4656
g27
(dp4657
g29
Vsocial
p4658
sg31
VO
p4659
sg33
VJJ
p4660
sg35
I51
ssg10
I462
sg36
g4
sg37
(dp4661
sg39
(dp4662
sg41
I2549
sg42
g21
sg43
g21
sg44
I462
sg45
Vsocial
p4663
sg47
I462
sg48
I2555
sbag0
(g23
g2
Ntp4664
Rp4665
(dp4666
g27
(dp4667
g29
Vwelfare
p4668
sg31
VO
p4669
sg33
VNN
p4670
sg35
I52
ssg10
I463
sg36
g4
sg37
(dp4671
sg39
(dp4672
sg41
I2556
sg42
g21
sg43
g21
sg44
I463
sg45
Vwelfare
p4673
sg47
I463
sg48
I2563
sbag0
(g23
g2
Ntp4674
Rp4675
(dp4676
g27
(dp4677
g29
Vpolicy
p4678
sg31
VO
p4679
sg33
VNNS
p4680
sg35
I53
ssg10
I464
sg36
g4
sg37
(dp4681
sg39
(dp4682
sg41
I2564
sg42
g21
sg43
g21
sg44
I464
sg45
Vpolicies
p4683
sg47
I464
sg48
I2572
sbag0
(g23
g2
Ntp4684
Rp4685
(dp4686
g27
(dp4687
g29
Vcripple
p4688
sg31
VO
p4689
sg33
VVBP
p4690
sg35
I54
ssg10
I465
sg36
g4
sg37
(dp4691
sg39
(dp4692
sg41
I2573
sg42
g21
sg43
g21
sg44
I465
sg45
Vcripple
p4693
sg47
I465
sg48
I2580
sbag0
(g23
g2
Ntp4694
Rp4695
(dp4696
g27
(dp4697
g29
Vthe
p4698
sg31
VO
p4699
sg33
VDT
p4700
sg35
I55
ssg10
I466
sg36
g4
sg37
(dp4701
sg39
(dp4702
sg41
I2581
sg42
g21
sg43
g21
sg44
I466
sg45
Vthe
p4703
sg47
I466
sg48
I2584
sbag0
(g23
g2
Ntp4704
Rp4705
(dp4706
g27
(dp4707
g29
Vcapitalist
p4708
sg31
VO
p4709
sg33
VJJ
p4710
sg35
I56
ssg10
I467
sg36
g4
sg37
(dp4711
sg39
(dp4712
sg41
I2585
sg42
g21
sg43
g21
sg44
I467
sg45
Vcapitalist
p4713
sg47
I467
sg48
I2595
sbag0
(g23
g2
Ntp4714
Rp4715
(dp4716
g27
(dp4717
g29
Vsystem
p4718
sg31
VO
p4719
sg33
VNN
p4720
sg35
I57
ssg10
I468
sg36
g4
sg37
(dp4721
sg39
(dp4722
sg41
I2596
sg42
g21
sg43
g21
sg44
I468
sg45
Vsystem
p4723
sg47
I468
sg48
I2602
sbag0
(g23
g2
Ntp4724
Rp4725
(dp4726
g27
(dp4727
g29
Vand
p4728
sg31
VO
p4729
sg33
VCC
p4730
sg35
I58
ssg10
I469
sg36
g4
sg37
(dp4731
sg39
(dp4732
sg41
I2603
sg42
g21
sg43
g21
sg44
I469
sg45
Vand
p4733
sg47
I469
sg48
I2606
sbag0
(g23
g2
Ntp4734
Rp4735
(dp4736
g27
(dp4737
g29
Vits
p4738
sg31
VO
p4739
sg33
VPRP$
p4740
sg35
I59
ssg10
I470
sg36
g4
sg37
(dp4741
sg39
(dp4742
sg41
I2607
sg42
g21
sg43
g21
sg44
I470
sg45
Vits
p4743
sg47
I470
sg48
I2610
sbag0
(g23
g2
Ntp4744
Rp4745
(dp4746
g27
(dp4747
g29
Vincentive
p4748
sg31
VO
p4749
sg33
VNN
p4750
sg35
I60
ssg10
I471
sg36
g4
sg37
(dp4751
sg39
(dp4752
sg41
I2611
sg42
g21
sg43
g21
sg44
I471
sg45
Vincentive
p4753
sg47
I471
sg48
I2620
sbag0
(g23
g2
Ntp4754
Rp4755
(dp4756
g27
(dp4757
g29
Vsystem
p4758
sg31
VO
p4759
sg33
VNN
p4760
sg35
I61
ssg10
I472
sg36
g4
sg37
(dp4761
sg39
(dp4762
sg41
I2621
sg42
g21
sg43
g21
sg44
I472
sg45
Vsystem
p4763
sg47
I472
sg48
I2627
sbag0
(g23
g2
Ntp4764
Rp4765
(dp4766
g27
(dp4767
g29
V,
p4768
sg31
VO
p4769
sg33
V,
p4770
sg35
I62
ssg10
I473
sg36
g4
sg37
(dp4771
sg39
(dp4772
sg41
I2627
sg42
g21
sg43
g21
sg44
I473
sg45
V,
p4773
sg47
I473
sg48
I2628
sbag0
(g23
g2
Ntp4774
Rp4775
(dp4776
g27
(dp4777
g29
Vand
p4778
sg31
VO
p4779
sg33
VCC
p4780
sg35
I63
ssg10
I474
sg36
g4
sg37
(dp4781
sg39
(dp4782
sg41
I2629
sg42
g21
sg43
g21
sg44
I474
sg45
Vand
p4783
sg47
I474
sg48
I2632
sbag0
(g23
g2
Ntp4784
Rp4785
(dp4786
g27
(dp4787
g29
Vthe
p4788
sg31
VO
p4789
sg33
VDT
p4790
sg35
I64
ssg10
I475
sg36
g4
sg37
(dp4791
sg39
(dp4792
sg41
I2633
sg42
g21
sg43
g21
sg44
I475
sg45
Vthe
p4793
sg47
I475
sg48
I2636
sbag0
(g23
g2
Ntp4794
Rp4795
(dp4796
g27
(dp4797
g29
Vonly
p4798
sg31
VO
p4799
sg33
VJJ
p4800
sg35
I65
ssg10
I476
sg36
g4
sg37
(dp4801
sg39
(dp4802
sg41
I2637
sg42
g21
sg43
g21
sg44
I476
sg45
Vonly
p4803
sg47
I476
sg48
I2641
sbag0
(g23
g2
Ntp4804
Rp4805
(dp4806
g27
(dp4807
g29
Vreal
p4808
sg31
VO
p4809
sg33
VJJ
p4810
sg35
I66
ssg10
I477
sg36
g4
sg37
(dp4811
sg39
(dp4812
sg41
I2642
sg42
g21
sg43
g21
sg44
I477
sg45
Vreal
p4813
sg47
I477
sg48
I2646
sbag0
(g23
g2
Ntp4814
Rp4815
(dp4816
g27
(dp4817
g29
Vsolution
p4818
sg31
VO
p4819
sg33
VNN
p4820
sg35
I67
ssg10
I478
sg36
g4
sg37
(dp4821
sg39
(dp4822
sg41
I2647
sg42
g21
sg43
g21
sg44
I478
sg45
Vsolution
p4823
sg47
I478
sg48
I2655
sbag0
(g23
g2
Ntp4824
Rp4825
(dp4826
g27
(dp4827
g29
Vto
p4828
sg31
VO
p4829
sg33
VTO
p4830
sg35
I68
ssg10
I479
sg36
g4
sg37
(dp4831
sg39
(dp4832
sg41
I2656
sg42
g21
sg43
g21
sg44
I479
sg45
Vto
p4833
sg47
I479
sg48
I2658
sbag0
(g23
g2
Ntp4834
Rp4835
(dp4836
g27
(dp4837
g29
Vthe
p4838
sg31
VO
p4839
sg33
VDT
p4840
sg35
I69
ssg10
I480
sg36
g4
sg37
(dp4841
sg39
(dp4842
sg41
I2659
sg42
g21
sg43
g21
sg44
I480
sg45
Vthe
p4843
sg47
I480
sg48
I2662
sbag0
(g23
g2
Ntp4844
Rp4845
(dp4846
g27
(dp4847
g29
Vissue
p4848
sg31
VO
p4849
sg33
VNNS
p4850
sg35
I70
ssg10
I481
sg36
g4
sg37
(dp4851
sg39
(dp4852
sg41
I2663
sg42
g21
sg43
g21
sg44
I481
sg45
Vissues
p4853
sg47
I481
sg48
I2669
sbag0
(g23
g2
Ntp4854
Rp4855
(dp4856
g27
(dp4857
g29
Vof
p4858
sg31
VO
p4859
sg33
VIN
p4860
sg35
I71
ssg10
I482
sg36
g4
sg37
(dp4861
sg39
(dp4862
sg41
I2670
sg42
g21
sg43
g21
sg44
I482
sg45
Vof
p4863
sg47
I482
sg48
I2672
sbag0
(g23
g2
Ntp4864
Rp4865
(dp4866
g27
(dp4867
g29
Vcapitalism
p4868
sg31
VO
p4869
sg33
VNN
p4870
sg35
I72
ssg10
I483
sg36
g4
sg37
(dp4871
sg39
(dp4872
sg41
I2673
sg42
g21
sg43
g21
sg44
I483
sg45
Vcapitalism
p4873
sg47
I483
sg48
I2683
sbag0
(g23
g2
Ntp4874
Rp4875
(dp4876
g27
(dp4877
g29
Vbe
p4878
sg31
VO
p4879
sg33
VVBZ
p4880
sg35
I73
ssg10
I484
sg36
g4
sg37
(dp4881
sg39
(dp4882
sg41
I2680
sg42
g21
sg43
g21
sg44
I484
sg45
Vis
p4883
sg47
I484
sg48
I2682
sbag0
(g23
g2
Ntp4884
Rp4885
(dp4886
g27
(dp4887
g29
Vits
p4888
sg31
VO
p4889
sg33
VPRP$
p4890
sg35
I74
ssg10
I485
sg36
g4
sg37
(dp4891
sg39
(dp4892
sg41
I2687
sg42
g21
sg43
g21
sg44
I485
sg45
Vits
p4893
sg47
I485
sg48
I2690
sbag0
(g23
g2
Ntp4894
Rp4895
(dp4896
g27
(dp4897
g29
Vreplacement
p4898
sg31
VO
p4899
sg33
VNN
p4900
sg35
I75
ssg10
I486
sg36
g4
sg37
(dp4901
sg39
(dp4902
sg41
I2691
sg42
g21
sg43
g21
sg44
I486
sg45
Vreplacement
p4903
sg47
I486
sg48
I2702
sbag0
(g23
g2
Ntp4904
Rp4905
(dp4906
g27
(dp4907
g29
Vwith
p4908
sg31
VO
p4909
sg33
VIN
p4910
sg35
I76
ssg10
I487
sg36
g4
sg37
(dp4911
sg39
(dp4912
sg41
I2703
sg42
g21
sg43
g21
sg44
I487
sg45
Vwith
p4913
sg47
I487
sg48
I2707
sbag0
(g23
g2
Ntp4914
Rp4915
(dp4916
g27
(dp4917
g29
Va
p4918
sg31
VO
p4919
sg33
VDT
p4920
sg35
I77
ssg10
I488
sg36
g4
sg37
(dp4921
sg39
(dp4922
sg41
I2708
sg42
g21
sg43
g21
sg44
I488
sg45
Va
p4923
sg47
I488
sg48
I2709
sbag0
(g23
g2
Ntp4924
Rp4925
(dp4926
g27
(dp4927
g29
Vsocialist
p4928
sg31
VO
p4929
sg33
VJJ
p4930
sg35
I78
ssg10
I489
sg36
g4
sg37
(dp4931
sg39
(dp4932
sg41
I2710
sg42
g21
sg43
g21
sg44
I489
sg45
Vsocialist
p4933
sg47
I489
sg48
I2719
sbag0
(g23
g2
Ntp4934
Rp4935
(dp4936
g27
(dp4937
g29
Veconomic
p4938
sg31
VO
p4939
sg33
VJJ
p4940
sg35
I79
ssg10
I490
sg36
g4
sg37
(dp4941
sg39
(dp4942
sg41
I2720
sg42
g21
sg43
g21
sg44
I490
sg45
Veconomic
p4943
sg47
I490
sg48
I2728
sbag0
(g23
g2
Ntp4944
Rp4945
(dp4946
g27
(dp4947
g29
Vsystem
p4948
sg31
VO
p4949
sg33
VNN
p4950
sg35
I80
ssg10
I491
sg36
g4
sg37
(dp4951
sg39
(dp4952
sg41
I2729
sg42
g21
sg43
g21
sg44
I491
sg45
Vsystem
p4953
sg47
I491
sg48
I2735
sbag0
(g23
g2
Ntp4954
Rp4955
(dp4956
g27
(dp4957
g29
V-lsb-
p4958
sg31
VO
p4959
sg33
V-LRB-
p4960
sg35
I81
ssg10
I492
sg36
g4
sg37
(dp4961
sg39
(dp4962
sg41
I2736
sg42
g21
sg43
g21
sg44
I492
sg45
V[
p4963
sg47
I492
sg48
I2737
sbag0
(g23
g2
Ntp4964
Rp4965
(dp4966
g27
(dp4967
g29
Vref
p4968
sg31
VO
p4969
sg33
VNN
p4970
sg35
I82
ssg10
I493
sg36
g4
sg37
(dp4971
sg39
(dp4972
sg41
I2737
sg42
g21
sg43
g21
sg44
I493
sg45
VREF
p4973
sg47
I493
sg48
I2740
sbag0
(g23
g2
Ntp4974
Rp4975
(dp4976
g27
(dp4977
g29
V-rsb-
p4978
sg31
VO
p4979
sg33
V-RRB-
p4980
sg35
I83
ssg10
I494
sg36
g4
sg37
(dp4981
sg39
(dp4982
sg41
I2740
sg42
g21
sg43
g21
sg44
I494
sg45
V]
p4983
sg47
I494
sg48
I2741
sbag0
(g23
g2
Ntp4984
Rp4985
(dp4986
g27
(dp4987
g29
V.
p4988
sg31
VO
p4989
sg33
V.
p4990
sg35
I84
ssg10
I495
sg36
g4
sg37
(dp4991
sg39
(dp4992
sg41
I2741
sg42
g21
sg43
g21
sg44
I495
sg45
V.
p4993
sg47
I495
sg48
I2742
sbag0
(g23
g2
Ntp4994
Rp4995
(dp4996
g27
(dp4997
g29
Vthe
p4998
sg31
VO
p4999
sg33
VDT
p5000
sg35
I1
ssg10
I496
sg36
g4
sg37
(dp5001
sg39
(dp5002
sg41
I2745
sg42
g21
sg43
g21
sg44
I496
sg45
VThe
p5003
sg47
I496
sg48
I2748
sbag0
(g23
g2
Ntp5004
Rp5005
(dp5006
g27
(dp5007
g29
Vmost
p5008
sg31
VO
p5009
sg33
VRBS
p5010
sg35
I2
ssg10
I497
sg36
g4
sg37
(dp5011
sg39
(dp5012
sg41
I2749
sg42
g21
sg43
g21
sg44
I497
sg45
Vmost
p5013
sg47
I497
sg48
I2753
sbag0
(g23
g2
Ntp5014
Rp5015
(dp5016
g27
(dp5017
g29
Vextreme
p5018
sg31
VO
p5019
sg33
VJJ
p5020
sg35
I3
ssg10
I498
sg36
g4
sg37
(dp5021
sg39
(dp5022
sg41
I2754
sg42
g21
sg43
g21
sg44
I498
sg45
Vextreme
p5023
sg47
I498
sg48
I2761
sbag0
(g23
g2
Ntp5024
Rp5025
(dp5026
g27
(dp5027
g29
Vcriticism
p5028
sg31
VO
p5029
sg33
VNNS
p5030
sg35
I4
ssg10
I499
sg36
g4
sg37
(dp5031
sg39
(dp5032
sg41
I2762
sg42
g21
sg43
g21
sg44
I499
sg45
Vcriticisms
p5033
sg47
I499
sg48
I2772
sbag0
(g23
g2
Ntp5034
Rp5035
(dp5036
g27
(dp5037
g29
Vof
p5038
sg31
VO
p5039
sg33
VIN
p5040
sg35
I5
ssg10
I500
sg36
g4
sg37
(dp5041
sg39
(dp5042
sg41
I2773
sg42
g21
sg43
g21
sg44
I500
sg45
Vof
p5043
sg47
I500
sg48
I2775
sbag0
(g23
g2
Ntp5044
Rp5045
(dp5046
g27
(dp5047
g29
Vstate
p5048
sg31
VO
p5049
sg33
VNNS
p5050
sg35
I6
ssg10
I501
sg36
g4
sg37
(dp5051
sg39
(dp5052
sg41
I2776
sg42
g21
sg43
g21
sg44
I501
sg45
Vstates
p5053
sg47
I501
sg48
I2782
sbag0
(g23
g2
Ntp5054
Rp5055
(dp5056
g27
(dp5057
g29
Vand
p5058
sg31
VO
p5059
sg33
VCC
p5060
sg35
I7
ssg10
I502
sg36
g4
sg37
(dp5061
sg39
(dp5062
sg41
I2783
sg42
g21
sg43
g21
sg44
I502
sg45
Vand
p5063
sg47
I502
sg48
I2786
sbag0
(g23
g2
Ntp5064
Rp5065
(dp5066
g27
(dp5067
g29
Vgovernment
p5068
sg31
VO
p5069
sg33
VNNS
p5070
sg35
I8
ssg10
I503
sg36
g4
sg37
(dp5071
sg39
(dp5072
sg41
I2787
sg42
g21
sg43
g21
sg44
I503
sg45
Vgovernments
p5073
sg47
I503
sg48
I2798
sbag0
(g23
g2
Ntp5074
Rp5075
(dp5076
g27
(dp5077
g29
Vbe
p5078
sg31
VO
p5079
sg33
VVBP
p5080
sg35
I9
ssg10
I504
sg36
g4
sg37
(dp5081
sg39
(dp5082
sg41
I2799
sg42
g21
sg43
g21
sg44
I504
sg45
Vare
p5083
sg47
I504
sg48
I2802
sbag0
(g23
g2
Ntp5084
Rp5085
(dp5086
g27
(dp5087
g29
Vmake
p5088
sg31
VO
p5089
sg33
VVBN
p5090
sg35
I10
ssg10
I505
sg36
g4
sg37
(dp5091
sg39
(dp5092
sg41
I2803
sg42
g21
sg43
g21
sg44
I505
sg45
Vmade
p5093
sg47
I505
sg48
I2807
sbag0
(g23
g2
Ntp5094
Rp5095
(dp5096
g27
(dp5097
g29
Vby
p5098
sg31
VO
p5099
sg33
VIN
p5100
sg35
I11
ssg10
I506
sg36
g4
sg37
(dp5101
sg39
(dp5102
sg41
I2808
sg42
g21
sg43
g21
sg44
I506
sg45
Vby
p5103
sg47
I506
sg48
I2810
sbag0
(g23
g2
Ntp5104
Rp5105
(dp5106
g27
(dp5107
g29
Vanarchist
p5108
sg31
VO
p5109
sg33
VNNS
p5110
sg35
I12
ssg10
I507
sg36
g4
sg37
(dp5111
sg39
(dp5112
sg41
I2811
sg42
g21
sg43
g21
sg44
I507
sg45
Vanarchists
p5113
sg47
I507
sg48
I2821
sbag0
(g23
g2
Ntp5114
Rp5115
(dp5116
g27
(dp5117
g29
V,
p5118
sg31
VO
p5119
sg33
V,
p5120
sg35
I13
ssg10
I508
sg36
g4
sg37
(dp5121
sg39
(dp5122
sg41
I2821
sg42
g21
sg43
g21
sg44
I508
sg45
V,
p5123
sg47
I508
sg48
I2822
sbag0
(g23
g2
Ntp5124
Rp5125
(dp5126
g27
(dp5127
g29
Vwho
p5128
sg31
VO
p5129
sg33
VWP
p5130
sg35
I14
ssg10
I509
sg36
g4
sg37
(dp5131
sg39
(dp5132
sg41
I2823
sg42
g21
sg43
g21
sg44
I509
sg45
Vwho
p5133
sg47
I509
sg48
I2826
sbag0
(g23
g2
Ntp5134
Rp5135
(dp5136
g27
(dp5137
g29
Vbelieve
p5138
sg31
VO
p5139
sg33
VVBP
p5140
sg35
I15
ssg10
I510
sg36
g4
sg37
(dp5141
sg39
(dp5142
sg41
I2827
sg42
g21
sg43
g21
sg44
I510
sg45
Vbelieve
p5143
sg47
I510
sg48
I2834
sbag0
(g23
g2
Ntp5144
Rp5145
(dp5146
g27
(dp5147
g29
Vthat
p5148
sg31
VO
p5149
sg33
VIN
p5150
sg35
I16
ssg10
I511
sg36
g4
sg37
(dp5151
sg39
(dp5152
sg41
I2835
sg42
g21
sg43
g21
sg44
I511
sg45
Vthat
p5153
sg47
I511
sg48
I2839
sbag0
(g23
g2
Ntp5154
Rp5155
(dp5156
g27
(dp5157
g29
Vall
p5158
sg31
VO
p5159
sg33
VDT
p5160
sg35
I17
ssg10
I512
sg36
g4
sg37
(dp5161
sg39
(dp5162
sg41
I2840
sg42
g21
sg43
g21
sg44
I512
sg45
Vall
p5163
sg47
I512
sg48
I2843
sbag0
(g23
g2
Ntp5164
Rp5165
(dp5166
g27
(dp5167
g29
Vstate
p5168
sg31
VO
p5169
sg33
VNNS
p5170
sg35
I18
ssg10
I513
sg36
g4
sg37
(dp5171
sg39
(dp5172
sg41
I2844
sg42
g21
sg43
g21
sg44
I513
sg45
Vstates
p5173
sg47
I513
sg48
I2850
sbag0
(g23
g2
Ntp5174
Rp5175
(dp5176
g27
(dp5177
g29
Vand
p5178
sg31
VO
p5179
sg33
VCC
p5180
sg35
I19
ssg10
I514
sg36
g4
sg37
(dp5181
sg39
(dp5182
sg41
I2851
sg42
g21
sg43
g21
sg44
I514
sg45
Vand
p5183
sg47
I514
sg48
I2854
sbag0
(g23
g2
Ntp5184
Rp5185
(dp5186
g27
(dp5187
g29
Vgovernment
p5188
sg31
VO
p5189
sg33
VNNS
p5190
sg35
I20
ssg10
I515
sg36
g4
sg37
(dp5191
sg39
(dp5192
sg41
I2855
sg42
g21
sg43
g21
sg44
I515
sg45
Vgovernments
p5193
sg47
I515
sg48
I2866
sbag0
(g23
g2
Ntp5194
Rp5195
(dp5196
g27
(dp5197
g29
Vbe
p5198
sg31
VO
p5199
sg33
VVBP
p5200
sg35
I21
ssg10
I516
sg36
g4
sg37
(dp5201
sg39
(dp5202
sg41
I2867
sg42
g21
sg43
g21
sg44
I516
sg45
Vare
p5203
sg47
I516
sg48
I2870
sbag0
(g23
g2
Ntp5204
Rp5205
(dp5206
g27
(dp5207
g29
Vundesirable
p5208
sg31
VO
p5209
sg33
VJJ
p5210
sg35
I22
ssg10
I517
sg36
g4
sg37
(dp5211
sg39
(dp5212
sg41
I2871
sg42
g21
sg43
g21
sg44
I517
sg45
Vundesirable
p5213
sg47
I517
sg48
I2882
sbag0
(g23
g2
Ntp5214
Rp5215
(dp5216
g27
(dp5217
g29
Vand/or
p5218
sg31
VO
p5219
sg33
VCC
p5220
sg35
I23
ssg10
I518
sg36
g4
sg37
(dp5221
sg39
(dp5222
sg41
I2883
sg42
g21
sg43
g21
sg44
I518
sg45
Vand/or
p5223
sg47
I518
sg48
I2889
sbag0
(g23
g2
Ntp5224
Rp5225
(dp5226
g27
(dp5227
g29
Vunnecessary
p5228
sg31
VO
p5229
sg33
VJJ
p5230
sg35
I24
ssg10
I519
sg36
g4
sg37
(dp5231
sg39
(dp5232
sg41
I2890
sg42
g21
sg43
g21
sg44
I519
sg45
Vunnecessary
p5233
sg47
I519
sg48
I2901
sbag0
(g23
g2
Ntp5234
Rp5235
(dp5236
g27
(dp5237
g29
V.
p5238
sg31
VO
p5239
sg33
V.
p5240
sg35
I25
ssg10
I520
sg36
g4
sg37
(dp5241
sg39
(dp5242
sg41
I2901
sg42
g21
sg43
g21
sg44
I520
sg45
V.
p5243
sg47
I520
sg48
I2902
sbag0
(g23
g2
Ntp5244
Rp5245
(dp5246
g27
(dp5247
g29
Vsome
p5248
sg31
VO
p5249
sg33
VDT
p5250
sg35
I1
ssg10
I521
sg36
g4
sg37
(dp5251
sg39
(dp5252
sg41
I2903
sg42
g21
sg43
g21
sg44
I521
sg45
VSome
p5253
sg47
I521
sg48
I2907
sbag0
(g23
g2
Ntp5254
Rp5255
(dp5256
g27
(dp5257
g29
Vsocialist
p5258
sg31
VO
p5259
sg33
VJJ
p5260
sg35
I2
ssg10
I522
sg36
g4
sg37
(dp5261
sg39
(dp5262
sg41
I2908
sg42
g21
sg43
g21
sg44
I522
sg45
Vsocialist
p5263
sg47
I522
sg48
I2917
sbag0
(g23
g2
Ntp5264
Rp5265
(dp5266
g27
(dp5267
g29
Vanarchist
p5268
sg31
VO
p5269
sg33
VNNS
p5270
sg35
I3
ssg10
I523
sg36
g4
sg37
(dp5271
sg39
(dp5272
sg41
I2918
sg42
g21
sg43
g21
sg44
I523
sg45
Vanarchists
p5273
sg47
I523
sg48
I2928
sbag0
(g23
g2
Ntp5274
Rp5275
(dp5276
g27
(dp5277
g29
Vbelieve
p5278
sg31
VO
p5279
sg33
VVBP
p5280
sg35
I4
ssg10
I524
sg36
g4
sg37
(dp5281
sg39
(dp5282
sg41
I2929
sg42
g21
sg43
g21
sg44
I524
sg45
Vbelieve
p5283
sg47
I524
sg48
I2936
sbag0
(g23
g2
Ntp5284
Rp5285
(dp5286
g27
(dp5287
g29
Vthat
p5288
sg31
VO
p5289
sg33
VIN
p5290
sg35
I5
ssg10
I525
sg36
g4
sg37
(dp5291
sg39
(dp5292
sg41
I2937
sg42
g21
sg43
g21
sg44
I525
sg45
Vthat
p5293
sg47
I525
sg48
I2941
sbag0
(g23
g2
Ntp5294
Rp5295
(dp5296
g27
(dp5297
g29
Vwhile
p5298
sg31
VO
p5299
sg33
VIN
p5300
sg35
I6
ssg10
I526
sg36
g4
sg37
(dp5301
sg39
(dp5302
sg41
I2942
sg42
g21
sg43
g21
sg44
I526
sg45
Vwhile
p5303
sg47
I526
sg48
I2947
sbag0
(g23
g2
Ntp5304
Rp5305
(dp5306
g27
(dp5307
g29
Vsocial
p5308
sg31
VO
p5309
sg33
VJJ
p5310
sg35
I7
ssg10
I527
sg36
g4
sg37
(dp5311
sg39
(dp5312
sg41
I2948
sg42
g21
sg43
g21
sg44
I527
sg45
Vsocial
p5313
sg47
I527
sg48
I2954
sbag0
(g23
g2
Ntp5314
Rp5315
(dp5316
g27
(dp5317
g29
Vwelfare
p5318
sg31
VO
p5319
sg33
VNN
p5320
sg35
I8
ssg10
I528
sg36
g4
sg37
(dp5321
sg39
(dp5322
sg41
I2955
sg42
g21
sg43
g21
sg44
I528
sg45
Vwelfare
p5323
sg47
I528
sg48
I2962
sbag0
(g23
g2
Ntp5324
Rp5325
(dp5326
g27
(dp5327
g29
Vgive
p5328
sg31
VO
p5329
sg33
VVBZ
p5330
sg35
I9
ssg10
I529
sg36
g4
sg37
(dp5331
sg39
(dp5332
sg41
I2963
sg42
g21
sg43
g21
sg44
I529
sg45
Vgives
p5333
sg47
I529
sg48
I2968
sbag0
(g23
g2
Ntp5334
Rp5335
(dp5336
g27
(dp5337
g29
Va
p5338
sg31
VO
p5339
sg33
VDT
p5340
sg35
I10
ssg10
I530
sg36
g4
sg37
(dp5341
sg39
(dp5342
sg41
I2969
sg42
g21
sg43
g21
sg44
I530
sg45
Va
p5343
sg47
I530
sg48
I2970
sbag0
(g23
g2
Ntp5344
Rp5345
(dp5346
g27
(dp5347
g29
Vcertain
p5348
sg31
VO
p5349
sg33
VJJ
p5350
sg35
I11
ssg10
I531
sg36
g4
sg37
(dp5351
sg39
(dp5352
sg41
I2971
sg42
g21
sg43
g21
sg44
I531
sg45
Vcertain
p5353
sg47
I531
sg48
I2978
sbag0
(g23
g2
Ntp5354
Rp5355
(dp5356
g27
(dp5357
g29
Vlevel
p5358
sg31
VO
p5359
sg33
VNN
p5360
sg35
I12
ssg10
I532
sg36
g4
sg37
(dp5361
sg39
(dp5362
sg41
I2979
sg42
g21
sg43
g21
sg44
I532
sg45
Vlevel
p5363
sg47
I532
sg48
I2984
sbag0
(g23
g2
Ntp5364
Rp5365
(dp5366
g27
(dp5367
g29
Vof
p5368
sg31
VO
p5369
sg33
VIN
p5370
sg35
I13
ssg10
I533
sg36
g4
sg37
(dp5371
sg39
(dp5372
sg41
I2985
sg42
g21
sg43
g21
sg44
I533
sg45
Vof
p5373
sg47
I533
sg48
I2987
sbag0
(g23
g2
Ntp5374
Rp5375
(dp5376
g27
(dp5377
g29
Vindependency
p5378
sg31
VO
p5379
sg33
VNN
p5380
sg35
I14
ssg10
I534
sg36
g4
sg37
(dp5381
sg39
(dp5382
sg41
I2988
sg42
g21
sg43
g21
sg44
I534
sg45
Vindependency
p5383
sg47
I534
sg48
I3000
sbag0
(g23
g2
Ntp5384
Rp5385
(dp5386
g27
(dp5387
g29
Vfrom
p5388
sg31
VO
p5389
sg33
VIN
p5390
sg35
I15
ssg10
I535
sg36
g4
sg37
(dp5391
sg39
(dp5392
sg41
I3001
sg42
g21
sg43
g21
sg44
I535
sg45
Vfrom
p5393
sg47
I535
sg48
I3005
sbag0
(g23
g2
Ntp5394
Rp5395
(dp5396
g27
(dp5397
g29
Vthe
p5398
sg31
VO
p5399
sg33
VDT
p5400
sg35
I16
ssg10
I536
sg36
g4
sg37
(dp5401
sg39
(dp5402
sg41
I3006
sg42
g21
sg43
g21
sg44
I536
sg45
Vthe
p5403
sg47
I536
sg48
I3009
sbag0
(g23
g2
Ntp5404
Rp5405
(dp5406
g27
(dp5407
g29
Vmarket
p5408
sg31
VO
p5409
sg33
VNN
p5410
sg35
I17
ssg10
I537
sg36
g4
sg37
(dp5411
sg39
(dp5412
sg41
I3010
sg42
g21
sg43
g21
sg44
I537
sg45
Vmarket
p5413
sg47
I537
sg48
I3016
sbag0
(g23
g2
Ntp5414
Rp5415
(dp5416
g27
(dp5417
g29
Vand
p5418
sg31
VO
p5419
sg33
VCC
p5420
sg35
I18
ssg10
I538
sg36
g4
sg37
(dp5421
sg39
(dp5422
sg41
I3017
sg42
g21
sg43
g21
sg44
I538
sg45
Vand
p5423
sg47
I538
sg48
I3020
sbag0
(g23
g2
Ntp5424
Rp5425
(dp5426
g27
(dp5427
g29
Vindividual
p5428
sg31
VO
p5429
sg33
VJJ
p5430
sg35
I19
ssg10
I539
sg36
g4
sg37
(dp5431
sg39
(dp5432
sg41
I3021
sg42
g21
sg43
g21
sg44
I539
sg45
Vindividual
p5433
sg47
I539
sg48
I3031
sbag0
(g23
g2
Ntp5434
Rp5435
(dp5436
g27
(dp5437
g29
Vcapitalist
p5438
sg31
VO
p5439
sg33
VNNS
p5440
sg35
I20
ssg10
I540
sg36
g4
sg37
(dp5441
sg39
(dp5442
sg41
I3032
sg42
g21
sg43
g21
sg44
I540
sg45
Vcapitalists
p5443
sg47
I540
sg48
I3043
sbag0
(g23
g2
Ntp5444
Rp5445
(dp5446
g27
(dp5447
g29
V,
p5448
sg31
VO
p5449
sg33
V,
p5450
sg35
I21
ssg10
I541
sg36
g4
sg37
(dp5451
sg39
(dp5452
sg41
I3043
sg42
g21
sg43
g21
sg44
I541
sg45
V,
p5453
sg47
I541
sg48
I3044
sbag0
(g23
g2
Ntp5454
Rp5455
(dp5456
g27
(dp5457
g29
Vit
p5458
sg31
VO
p5459
sg33
VPRP
p5460
sg35
I22
ssg10
I542
sg36
g4
sg37
(dp5461
sg39
(dp5462
sg41
I3045
sg42
g21
sg43
g21
sg44
I542
sg45
Vit
p5463
sg47
I542
sg48
I3047
sbag0
(g23
g2
Ntp5464
Rp5465
(dp5466
g27
(dp5467
g29
Vcreate
p5468
sg31
VO
p5469
sg33
VVBZ
p5470
sg35
I23
ssg10
I543
sg36
g4
sg37
(dp5471
sg39
(dp5472
sg41
I3048
sg42
g21
sg43
g21
sg44
I543
sg45
Vcreates
p5473
sg47
I543
sg48
I3055
sbag0
(g23
g2
Ntp5474
Rp5475
(dp5476
g27
(dp5477
g29
Vdependence
p5478
sg31
VO
p5479
sg33
VNN
p5480
sg35
I24
ssg10
I544
sg36
g4
sg37
(dp5481
sg39
(dp5482
sg41
I3056
sg42
g21
sg43
g21
sg44
I544
sg45
Vdependence
p5483
sg47
I544
sg48
I3066
sbag0
(g23
g2
Ntp5484
Rp5485
(dp5486
g27
(dp5487
g29
Vto
p5488
sg31
VO
p5489
sg33
VTO
p5490
sg35
I25
ssg10
I545
sg36
g4
sg37
(dp5491
sg39
(dp5492
sg41
I3067
sg42
g21
sg43
g21
sg44
I545
sg45
Vto
p5493
sg47
I545
sg48
I3069
sbag0
(g23
g2
Ntp5494
Rp5495
(dp5496
g27
(dp5497
g29
Vthe
p5498
sg31
VO
p5499
sg33
VDT
p5500
sg35
I26
ssg10
I546
sg36
g4
sg37
(dp5501
sg39
(dp5502
sg41
I3070
sg42
g21
sg43
g21
sg44
I546
sg45
Vthe
p5503
sg47
I546
sg48
I3073
sbag0
(g23
g2
Ntp5504
Rp5505
(dp5506
g27
(dp5507
g29
Vstate
p5508
sg31
VO
p5509
sg33
VNN
p5510
sg35
I27
ssg10
I547
sg36
g4
sg37
(dp5511
sg39
(dp5512
sg41
I3074
sg42
g21
sg43
g21
sg44
I547
sg45
Vstate
p5513
sg47
I547
sg48
I3079
sbag0
(g23
g2
Ntp5514
Rp5515
(dp5516
g27
(dp5517
g29
V,
p5518
sg31
VO
p5519
sg33
V,
p5520
sg35
I28
ssg10
I548
sg36
g4
sg37
(dp5521
sg39
(dp5522
sg41
I3079
sg42
g21
sg43
g21
sg44
I548
sg45
V,
p5523
sg47
I548
sg48
I3080
sbag0
(g23
g2
Ntp5524
Rp5525
(dp5526
g27
(dp5527
g29
Vwhich
p5528
sg31
VO
p5529
sg33
VWDT
p5530
sg35
I29
ssg10
I549
sg36
g4
sg37
(dp5531
sg39
(dp5532
sg41
I3081
sg42
g21
sg43
g21
sg44
I549
sg45
Vwhich
p5533
sg47
I549
sg48
I3086
sbag0
(g23
g2
Ntp5534
Rp5535
(dp5536
g27
(dp5537
g29
Vbe
p5538
sg31
VO
p5539
sg33
VVBZ
p5540
sg35
I30
ssg10
I550
sg36
g4
sg37
(dp5541
sg39
(dp5542
sg41
I3087
sg42
g21
sg43
g21
sg44
I550
sg45
Vis
p5543
sg47
I550
sg48
I3089
sbag0
(g23
g2
Ntp5544
Rp5545
(dp5546
g27
(dp5547
g29
Vthe
p5548
sg31
VO
p5549
sg33
VDT
p5550
sg35
I31
ssg10
I551
sg36
g4
sg37
(dp5551
sg39
(dp5552
sg41
I3090
sg42
g21
sg43
g21
sg44
I551
sg45
Vthe
p5553
sg47
I551
sg48
I3093
sbag0
(g23
g2
Ntp5554
Rp5555
(dp5556
g27
(dp5557
g29
Vinstitution
p5558
sg31
VO
p5559
sg33
VNN
p5560
sg35
I32
ssg10
I552
sg36
g4
sg37
(dp5561
sg39
(dp5562
sg41
I3094
sg42
g21
sg43
g21
sg44
I552
sg45
Vinstitution
p5563
sg47
I552
sg48
I3105
sbag0
(g23
g2
Ntp5564
Rp5565
(dp5566
g27
(dp5567
g29
Vthat
p5568
sg31
VO
p5569
sg33
VIN
p5570
sg35
I33
ssg10
I553
sg36
g4
sg37
(dp5571
sg39
(dp5572
sg41
I3106
sg42
g21
sg43
g21
sg44
I553
sg45
Vthat
p5573
sg47
I553
sg48
I3110
sbag0
(g23
g2
Ntp5574
Rp5575
(dp5576
g27
(dp5577
g29
V,
p5578
sg31
VO
p5579
sg33
V,
p5580
sg35
I34
ssg10
I554
sg36
g4
sg37
(dp5581
sg39
(dp5582
sg41
I3110
sg42
g21
sg43
g21
sg44
I554
sg45
V,
p5583
sg47
I554
sg48
I3111
sbag0
(g23
g2
Ntp5584
Rp5585
(dp5586
g27
(dp5587
g29
Vaccord
p5588
sg31
VO
p5589
sg33
VVBG
p5590
sg35
I35
ssg10
I555
sg36
g4
sg37
(dp5591
sg39
(dp5592
sg41
I3112
sg42
g21
sg43
g21
sg44
I555
sg45
Vaccording
p5593
sg47
I555
sg48
I3121
sbag0
(g23
g2
Ntp5594
Rp5595
(dp5596
g27
(dp5597
g29
Vto
p5598
sg31
VO
p5599
sg33
VTO
p5600
sg35
I36
ssg10
I556
sg36
g4
sg37
(dp5601
sg39
(dp5602
sg41
I3122
sg42
g21
sg43
g21
sg44
I556
sg45
Vto
p5603
sg47
I556
sg48
I3124
sbag0
(g23
g2
Ntp5604
Rp5605
(dp5606
g27
(dp5607
g29
Vthis
p5608
sg31
VO
p5609
sg33
VDT
p5610
sg35
I37
ssg10
I557
sg36
g4
sg37
(dp5611
sg39
(dp5612
sg41
I3125
sg42
g21
sg43
g21
sg44
I557
sg45
Vthis
p5613
sg47
I557
sg48
I3129
sbag0
(g23
g2
Ntp5614
Rp5615
(dp5616
g27
(dp5617
g29
Vview
p5618
sg31
VO
p5619
sg33
VNN
p5620
sg35
I38
ssg10
I558
sg36
g4
sg37
(dp5621
sg39
(dp5622
sg41
I3130
sg42
g21
sg43
g21
sg44
I558
sg45
Vview
p5623
sg47
I558
sg48
I3134
sbag0
(g23
g2
Ntp5624
Rp5625
(dp5626
g27
(dp5627
g29
V,
p5628
sg31
VO
p5629
sg33
V,
p5630
sg35
I39
ssg10
I559
sg36
g4
sg37
(dp5631
sg39
(dp5632
sg41
I3134
sg42
g21
sg43
g21
sg44
I559
sg45
V,
p5633
sg47
I559
sg48
I3135
sbag0
(g23
g2
Ntp5634
Rp5635
(dp5636
g27
(dp5637
g29
Vsupport
p5638
sg31
VO
p5639
sg33
VVBZ
p5640
sg35
I40
ssg10
I560
sg36
g4
sg37
(dp5641
sg39
(dp5642
sg41
I3136
sg42
g21
sg43
g21
sg44
I560
sg45
Vsupports
p5643
sg47
I560
sg48
I3144
sbag0
(g23
g2
Ntp5644
Rp5645
(dp5646
g27
(dp5647
g29
Vand
p5648
sg31
VO
p5649
sg33
VCC
p5650
sg35
I41
ssg10
I561
sg36
g4
sg37
(dp5651
sg39
(dp5652
sg41
I3145
sg42
g21
sg43
g21
sg44
I561
sg45
Vand
p5653
sg47
I561
sg48
I3148
sbag0
(g23
g2
Ntp5654
Rp5655
(dp5656
g27
(dp5657
g29
Vprotect
p5658
sg31
VO
p5659
sg33
VVBZ
p5660
sg35
I42
ssg10
I562
sg36
g4
sg37
(dp5661
sg39
(dp5662
sg41
I3149
sg42
g21
sg43
g21
sg44
I562
sg45
Vprotects
p5663
sg47
I562
sg48
I3157
sbag0
(g23
g2
Ntp5664
Rp5665
(dp5666
g27
(dp5667
g29
Vcapitalism
p5668
sg31
VO
p5669
sg33
VNN
p5670
sg35
I43
ssg10
I563
sg36
g4
sg37
(dp5671
sg39
(dp5672
sg41
I3158
sg42
g21
sg43
g21
sg44
I563
sg45
Vcapitalism
p5673
sg47
I563
sg48
I3168
sbag0
(g23
g2
Ntp5674
Rp5675
(dp5676
g27
(dp5677
g29
Vin
p5678
sg31
VO
p5679
sg33
VIN
p5680
sg35
I44
ssg10
I564
sg36
g4
sg37
(dp5681
sg39
(dp5682
sg41
I3169
sg42
g21
sg43
g21
sg44
I564
sg45
Vin
p5683
sg47
I564
sg48
I3171
sbag0
(g23
g2
Ntp5684
Rp5685
(dp5686
g27
(dp5687
g29
Vthe
p5688
sg31
VO
p5689
sg33
VDT
p5690
sg35
I45
ssg10
I565
sg36
g4
sg37
(dp5691
sg39
(dp5692
sg41
I3172
sg42
g21
sg43
g21
sg44
I565
sg45
Vthe
p5693
sg47
I565
sg48
I3175
sbag0
(g23
g2
Ntp5694
Rp5695
(dp5696
g27
(dp5697
g29
Vfirst
p5698
sg31
VORDINAL
p5699
sg33
VJJ
p5700
sg35
I46
ssg10
I566
sg36
g4
sg37
(dp5701
sg39
(dp5702
sg41
I3176
sg42
g21
sg43
g21
sg44
I566
sg45
Vfirst
p5703
sg47
I566
sg48
I3181
sbag0
(g23
g2
Ntp5704
Rp5705
(dp5706
g27
(dp5707
g29
Vplace
p5708
sg31
VO
p5709
sg33
VNN
p5710
sg35
I47
ssg10
I567
sg36
g4
sg37
(dp5711
sg39
(dp5712
sg41
I3182
sg42
g21
sg43
g21
sg44
I567
sg45
Vplace
p5713
sg47
I567
sg48
I3187
sbag0
(g23
g2
Ntp5714
Rp5715
(dp5716
g27
(dp5717
g29
V.
p5718
sg31
VO
p5719
sg33
V.
p5720
sg35
I48
ssg10
I568
sg36
g4
sg37
(dp5721
sg39
(dp5722
sg41
I3187
sg42
g21
sg43
g21
sg44
I568
sg45
V.
p5723
sg47
I568
sg48
I3188
sbag0
(g23
g2
Ntp5724
Rp5725
(dp5726
g27
(dp5727
g29
Vnonetheless
p5728
sg31
VO
p5729
sg33
VRB
p5730
sg35
I1
ssg10
I569
sg36
g4
sg37
(dp5731
sg39
(dp5732
sg41
I3189
sg42
g21
sg43
g21
sg44
I569
sg45
VNonetheless
p5733
sg47
I569
sg48
I3200
sbag0
(g23
g2
Ntp5734
Rp5735
(dp5736
g27
(dp5737
g29
V,
p5738
sg31
VO
p5739
sg33
V,
p5740
sg35
I2
ssg10
I570
sg36
g4
sg37
(dp5741
sg39
(dp5742
sg41
I3200
sg42
g21
sg43
g21
sg44
I570
sg45
V,
p5743
sg47
I570
sg48
I3201
sbag0
(g23
g2
Ntp5744
Rp5745
(dp5746
g27
(dp5747
g29
Vaccord
p5748
sg31
VO
p5749
sg33
VVBG
p5750
sg35
I3
ssg10
I571
sg36
g4
sg37
(dp5751
sg39
(dp5752
sg41
I3202
sg42
g21
sg43
g21
sg44
I571
sg45
Vaccording
p5753
sg47
I571
sg48
I3211
sbag0
(g23
g2
Ntp5754
Rp5755
(dp5756
g27
(dp5757
g29
Vto
p5758
sg31
VO
p5759
sg33
VTO
p5760
sg35
I4
ssg10
I572
sg36
g4
sg37
(dp5761
sg39
(dp5762
sg41
I3212
sg42
g21
sg43
g21
sg44
I572
sg45
Vto
p5763
sg47
I572
sg48
I3214
sbag0
(g23
g2
Ntp5764
Rp5765
(dp5766
g27
(dp5767
g29
VNoam
p5768
sg31
VPERSON
p5769
sg33
VNNP
p5770
sg35
I5
ssg10
I573
sg36
g4
sg37
(dp5771
sg39
(dp5772
sg41
I3215
sg42
g21
sg43
g21
sg44
I573
sg45
VNoam
p5773
sg47
I573
sg48
I3219
sbag0
(g23
g2
Ntp5774
Rp5775
(dp5776
g27
(dp5777
g29
VChomsky
p5778
sg31
VPERSON
p5779
sg33
VNNP
p5780
sg35
I6
ssg10
I574
sg36
g4
sg37
(dp5781
sg39
(dp5782
sg41
I3220
sg42
g21
sg43
g21
sg44
I574
sg45
VChomsky
p5783
sg47
I574
sg48
I3227
sbag0
(g23
g2
Ntp5784
Rp5785
(dp5786
g27
(dp5787
g29
V,
p5788
sg31
VO
p5789
sg33
V,
p5790
sg35
I7
ssg10
I575
sg36
g4
sg37
(dp5791
sg39
(dp5792
sg41
I3227
sg42
g21
sg43
g21
sg44
I575
sg45
V,
p5793
sg47
I575
sg48
I3228
sbag0
(g23
g2
Ntp5794
Rp5795
(dp5796
g27
(dp5797
g29
V``
p5798
sg31
VO
p5799
sg33
V``
p5800
sg35
I8
ssg10
I576
sg36
g4
sg37
(dp5801
sg39
(dp5802
sg41
I3229
sg42
g21
sg43
g21
sg44
I576
sg45
g3488
sg47
I576
sg48
I3230
sbag0
(g23
g2
Ntp5803
Rp5804
(dp5805
g27
(dp5806
g29
Vsocial
p5807
sg31
VO
p5808
sg33
VJJ
p5809
sg35
I9
ssg10
I577
sg36
g4
sg37
(dp5810
sg39
(dp5811
sg41
I3230
sg42
g21
sg43
g21
sg44
I577
sg45
Vsocial
p5812
sg47
I577
sg48
I3236
sbag0
(g23
g2
Ntp5813
Rp5814
(dp5815
g27
(dp5816
g29
Vdemocrat
p5817
sg31
VO
p5818
sg33
VNNS
p5819
sg35
I10
ssg10
I578
sg36
g4
sg37
(dp5820
sg39
(dp5821
sg41
I3237
sg42
g21
sg43
g21
sg44
I578
sg45
Vdemocrats
p5822
sg47
I578
sg48
I3246
sbag0
(g23
g2
Ntp5823
Rp5824
(dp5825
g27
(dp5826
g29
Vand
p5827
sg31
VO
p5828
sg33
VCC
p5829
sg35
I11
ssg10
I579
sg36
g4
sg37
(dp5830
sg39
(dp5831
sg41
I3247
sg42
g21
sg43
g21
sg44
I579
sg45
Vand
p5832
sg47
I579
sg48
I3250
sbag0
(g23
g2
Ntp5833
Rp5834
(dp5835
g27
(dp5836
g29
Vanarchist
p5837
sg31
VO
p5838
sg33
VNNS
p5839
sg35
I12
ssg10
I580
sg36
g4
sg37
(dp5840
sg39
(dp5841
sg41
I3251
sg42
g21
sg43
g21
sg44
I580
sg45
Vanarchists
p5842
sg47
I580
sg48
I3261
sbag0
(g23
g2
Ntp5843
Rp5844
(dp5845
g27
(dp5846
g29
Valways
p5847
sg31
VO
p5848
sg33
VRB
p5849
sg35
I13
ssg10
I581
sg36
g4
sg37
(dp5850
sg39
(dp5851
sg41
I3262
sg42
g21
sg43
g21
sg44
I581
sg45
Valways
p5852
sg47
I581
sg48
I3268
sbag0
(g23
g2
Ntp5853
Rp5854
(dp5855
g27
(dp5856
g29
Vagree
p5857
sg31
VO
p5858
sg33
VVBD
p5859
sg35
I14
ssg10
I582
sg36
g4
sg37
(dp5860
sg39
(dp5861
sg41
I3269
sg42
g21
sg43
g21
sg44
I582
sg45
Vagreed
p5862
sg47
I582
sg48
I3275
sbag0
(g23
g2
Ntp5863
Rp5864
(dp5865
g27
(dp5866
g29
V,
p5867
sg31
VO
p5868
sg33
V,
p5869
sg35
I15
ssg10
I583
sg36
g4
sg37
(dp5870
sg39
(dp5871
sg41
I3275
sg42
g21
sg43
g21
sg44
I583
sg45
V,
p5872
sg47
I583
sg48
I3276
sbag0
(g23
g2
Ntp5873
Rp5874
(dp5875
g27
(dp5876
g29
Vfairly
p5877
sg31
VO
p5878
sg33
VRB
p5879
sg35
I16
ssg10
I584
sg36
g4
sg37
(dp5880
sg39
(dp5881
sg41
I3277
sg42
g21
sg43
g21
sg44
I584
sg45
Vfairly
p5882
sg47
I584
sg48
I3283
sbag0
(g23
g2
Ntp5883
Rp5884
(dp5885
g27
(dp5886
g29
Vgenerally
p5887
sg31
VO
p5888
sg33
VRB
p5889
sg35
I17
ssg10
I585
sg36
g4
sg37
(dp5890
sg39
(dp5891
sg41
I3284
sg42
g21
sg43
g21
sg44
I585
sg45
Vgenerally
p5892
sg47
I585
sg48
I3293
sbag0
(g23
g2
Ntp5893
Rp5894
(dp5895
g27
(dp5896
g29
V,
p5897
sg31
VO
p5898
sg33
V,
p5899
sg35
I18
ssg10
I586
sg36
g4
sg37
(dp5900
sg39
(dp5901
sg41
I3293
sg42
g21
sg43
g21
sg44
I586
sg45
V,
p5902
sg47
I586
sg48
I3294
sbag0
(g23
g2
Ntp5903
Rp5904
(dp5905
g27
(dp5906
g29
Von
p5907
sg31
VO
p5908
sg33
VIN
p5909
sg35
I19
ssg10
I587
sg36
g4
sg37
(dp5910
sg39
(dp5911
sg41
I3295
sg42
g21
sg43
g21
sg44
I587
sg45
Von
p5912
sg47
I587
sg48
I3297
sbag0
(g23
g2
Ntp5913
Rp5914
(dp5915
g27
(dp5916
g29
Vso-called
p5917
sg31
VO
p5918
sg33
VJJ
p5919
sg35
I20
ssg10
I588
sg36
g4
sg37
(dp5920
sg39
(dp5921
sg41
I3298
sg42
g21
sg43
g21
sg44
I588
sg45
Vso-called
p5922
sg47
I588
sg48
I3307
sbag0
(g23
g2
Ntp5923
Rp5924
(dp5925
g27
(dp5926
g29
V`
p5927
sg31
VO
p5928
sg33
V``
p5929
sg35
I21
ssg10
I589
sg36
g4
sg37
(dp5930
sg39
(dp5931
sg41
I3308
sg42
g21
sg43
g21
sg44
I589
sg45
V'
p5932
sg47
I589
sg48
I3309
sbag0
(g23
g2
Ntp5933
Rp5934
(dp5935
g27
(dp5936
g29
Vwelfare
p5937
sg31
VO
p5938
sg33
VNN
p5939
sg35
I22
ssg10
I590
sg36
g4
sg37
(dp5940
sg39
(dp5941
sg41
I3309
sg42
g21
sg43
g21
sg44
I590
sg45
Vwelfare
p5942
sg47
I590
sg48
I3316
sbag0
(g23
g2
Ntp5943
Rp5944
(dp5945
g27
(dp5946
g29
Vstate
p5947
sg31
VO
p5948
sg33
VNN
p5949
sg35
I23
ssg10
I591
sg36
g4
sg37
(dp5950
sg39
(dp5951
sg41
I3317
sg42
g21
sg43
g21
sg44
I591
sg45
Vstate
p5952
sg47
I591
sg48
I3322
sbag0
(g23
g2
Ntp5953
Rp5954
(dp5955
g27
(dp5956
g29
Vmeasure
p5957
sg31
VO
p5958
sg33
VNNS
p5959
sg35
I24
ssg10
I592
sg36
g4
sg37
(dp5960
sg39
(dp5961
sg41
I3323
sg42
g21
sg43
g21
sg44
I592
sg45
Vmeasures
p5962
sg47
I592
sg48
I3331
sbag0
(g23
g2
Ntp5963
Rp5964
(dp5965
g27
(dp5966
g29
V'
p5967
sg31
VO
p5968
sg33
VPOS
p5969
sg35
I25
ssg10
I593
sg36
g4
sg37
(dp5970
sg39
(dp5971
sg41
I3331
sg42
g21
sg43
g21
sg44
I593
sg45
V'
p5972
sg47
I593
sg48
I3332
sbag0
(g23
g2
Ntp5973
Rp5974
(dp5975
g27
(dp5976
g29
V''
p5977
sg31
VO
p5978
sg33
V''
p5979
sg35
I26
ssg10
I594
sg36
g4
sg37
(dp5980
sg39
(dp5981
sg41
I3332
sg42
g21
sg43
g21
sg44
I594
sg45
g3488
sg47
I594
sg48
I3333
sbag0
(g23
g2
Ntp5982
Rp5983
(dp5984
g27
(dp5985
g29
Vand
p5986
sg31
VO
p5987
sg33
VCC
p5988
sg35
I27
ssg10
I595
sg36
g4
sg37
(dp5989
sg39
(dp5990
sg41
I3334
sg42
g21
sg43
g21
sg44
I595
sg45
Vand
p5991
sg47
I595
sg48
I3337
sbag0
(g23
g2
Ntp5992
Rp5993
(dp5994
g27
(dp5995
g29
V``
p5996
sg31
VO
p5997
sg33
V``
p5998
sg35
I28
ssg10
I596
sg36
g4
sg37
(dp5999
sg39
(dp6000
sg41
I3338
sg42
g21
sg43
g21
sg44
I596
sg45
g3488
sg47
I596
sg48
I3339
sbag0
(g23
g2
Ntp6001
Rp6002
(dp6003
g27
(dp6004
g29
VAnarchists
p6005
sg31
VO
p6006
sg33
VNNPS
p6007
sg35
I29
ssg10
I597
sg36
g4
sg37
(dp6008
sg39
(dp6009
sg41
I3339
sg42
g21
sg43
g21
sg44
I597
sg45
VAnarchists
p6010
sg47
I597
sg48
I3349
sbag0
(g23
g2
Ntp6011
Rp6012
(dp6013
g27
(dp6014
g29
Vpropose
p6015
sg31
VO
p6016
sg33
VVBP
p6017
sg35
I30
ssg10
I598
sg36
g4
sg37
(dp6018
sg39
(dp6019
sg41
I3350
sg42
g21
sg43
g21
sg44
I598
sg45
Vpropose
p6020
sg47
I598
sg48
I3357
sbag0
(g23
g2
Ntp6021
Rp6022
(dp6023
g27
(dp6024
g29
Vother
p6025
sg31
VO
p6026
sg33
VJJ
p6027
sg35
I31
ssg10
I599
sg36
g4
sg37
(dp6028
sg39
(dp6029
sg41
I3358
sg42
g21
sg43
g21
sg44
I599
sg45
Vother
p6030
sg47
I599
sg48
I3363
sbag0
(g23
g2
Ntp6031
Rp6032
(dp6033
g27
(dp6034
g29
Vmeasure
p6035
sg31
VO
p6036
sg33
VNNS
p6037
sg35
I32
ssg10
I600
sg36
g4
sg37
(dp6038
sg39
(dp6039
sg41
I3364
sg42
g21
sg43
g21
sg44
I600
sg45
Vmeasures
p6040
sg47
I600
sg48
I3372
sbag0
(g23
g2
Ntp6041
Rp6042
(dp6043
g27
(dp6044
g29
Vto
p6045
sg31
VO
p6046
sg33
VTO
p6047
sg35
I33
ssg10
I601
sg36
g4
sg37
(dp6048
sg39
(dp6049
sg41
I3373
sg42
g21
sg43
g21
sg44
I601
sg45
Vto
p6050
sg47
I601
sg48
I3375
sbag0
(g23
g2
Ntp6051
Rp6052
(dp6053
g27
(dp6054
g29
Vdeal
p6055
sg31
VO
p6056
sg33
VVB
p6057
sg35
I34
ssg10
I602
sg36
g4
sg37
(dp6058
sg39
(dp6059
sg41
I3376
sg42
g21
sg43
g21
sg44
I602
sg45
Vdeal
p6060
sg47
I602
sg48
I3380
sbag0
(g23
g2
Ntp6061
Rp6062
(dp6063
g27
(dp6064
g29
Vwith
p6065
sg31
VO
p6066
sg33
VIN
p6067
sg35
I35
ssg10
I603
sg36
g4
sg37
(dp6068
sg39
(dp6069
sg41
I3381
sg42
g21
sg43
g21
sg44
I603
sg45
Vwith
p6070
sg47
I603
sg48
I3385
sbag0
(g23
g2
Ntp6071
Rp6072
(dp6073
g27
(dp6074
g29
Vthese
p6075
sg31
VO
p6076
sg33
VDT
p6077
sg35
I36
ssg10
I604
sg36
g4
sg37
(dp6078
sg39
(dp6079
sg41
I3386
sg42
g21
sg43
g21
sg44
I604
sg45
Vthese
p6080
sg47
I604
sg48
I3391
sbag0
(g23
g2
Ntp6081
Rp6082
(dp6083
g27
(dp6084
g29
Vproblem
p6085
sg31
VO
p6086
sg33
VNNS
p6087
sg35
I37
ssg10
I605
sg36
g4
sg37
(dp6088
sg39
(dp6089
sg41
I3392
sg42
g21
sg43
g21
sg44
I605
sg45
Vproblems
p6090
sg47
I605
sg48
I3400
sbag0
(g23
g2
Ntp6091
Rp6092
(dp6093
g27
(dp6094
g29
V,
p6095
sg31
VO
p6096
sg33
V,
p6097
sg35
I38
ssg10
I606
sg36
g4
sg37
(dp6098
sg39
(dp6099
sg41
I3400
sg42
g21
sg43
g21
sg44
I606
sg45
V,
p6100
sg47
I606
sg48
I3401
sbag0
(g23
g2
Ntp6101
Rp6102
(dp6103
g27
(dp6104
g29
Vwithout
p6105
sg31
VO
p6106
sg33
VIN
p6107
sg35
I39
ssg10
I607
sg36
g4
sg37
(dp6108
sg39
(dp6109
sg41
I3402
sg42
g21
sg43
g21
sg44
I607
sg45
Vwithout
p6110
sg47
I607
sg48
I3409
sbag0
(g23
g2
Ntp6111
Rp6112
(dp6113
g27
(dp6114
g29
Vrecourse
p6115
sg31
VO
p6116
sg33
VNN
p6117
sg35
I40
ssg10
I608
sg36
g4
sg37
(dp6118
sg39
(dp6119
sg41
I3410
sg42
g21
sg43
g21
sg44
I608
sg45
Vrecourse
p6120
sg47
I608
sg48
I3418
sbag0
(g23
g2
Ntp6121
Rp6122
(dp6123
g27
(dp6124
g29
Vto
p6125
sg31
VO
p6126
sg33
VTO
p6127
sg35
I41
ssg10
I609
sg36
g4
sg37
(dp6128
sg39
(dp6129
sg41
I3419
sg42
g21
sg43
g21
sg44
I609
sg45
Vto
p6130
sg47
I609
sg48
I3421
sbag0
(g23
g2
Ntp6131
Rp6132
(dp6133
g27
(dp6134
g29
Vstate
p6135
sg31
VO
p6136
sg33
VNN
p6137
sg35
I42
ssg10
I610
sg36
g4
sg37
(dp6138
sg39
(dp6139
sg41
I3422
sg42
g21
sg43
g21
sg44
I610
sg45
Vstate
p6140
sg47
I610
sg48
I3427
sbag0
(g23
g2
Ntp6141
Rp6142
(dp6143
g27
(dp6144
g29
Vauthority
p6145
sg31
VO
p6146
sg33
VNN
p6147
sg35
I43
ssg10
I611
sg36
g4
sg37
(dp6148
sg39
(dp6149
sg41
I3428
sg42
g21
sg43
g21
sg44
I611
sg45
Vauthority
p6150
sg47
I611
sg48
I3437
sbag0
(g23
g2
Ntp6151
Rp6152
(dp6153
g27
(dp6154
g29
V.
p6155
sg31
VO
p6156
sg33
V.
p6157
sg35
I44
ssg10
I612
sg36
g4
sg37
(dp6158
sg39
(dp6159
sg41
I3437
sg42
g21
sg43
g21
sg44
I612
sg45
V.
p6160
sg47
I612
sg48
I3438
sbag0
(g23
g2
Ntp6161
Rp6162
(dp6163
g27
(dp6164
g29
V''
p6165
sg31
VO
p6166
sg33
V''
p6167
sg35
I45
ssg10
I613
sg36
g4
sg37
(dp6168
sg39
(dp6169
sg41
I3438
sg42
g21
sg43
g21
sg44
I613
sg45
g3488
sg47
I613
sg48
I3439
sbag0
(g23
g2
Ntp6170
Rp6171
(dp6172
g27
(dp6173
g29
V-lsb-
p6174
sg31
VO
p6175
sg33
V-LRB-
p6176
sg35
I1
ssg10
I614
sg36
g4
sg37
(dp6177
sg39
(dp6178
sg41
I3439
sg42
g21
sg43
g21
sg44
I614
sg45
V[
p6179
sg47
I614
sg48
I3440
sbag0
(g23
g2
Ntp6180
Rp6181
(dp6182
g27
(dp6183
g29
Vref
p6184
sg31
VO
p6185
sg33
VNN
p6186
sg35
I2
ssg10
I615
sg36
g4
sg37
(dp6187
sg39
(dp6188
sg41
I3440
sg42
g21
sg43
g21
sg44
I615
sg45
VREF
p6189
sg47
I615
sg48
I3443
sbag0
(g23
g2
Ntp6190
Rp6191
(dp6192
g27
(dp6193
g29
V-rsb-
p6194
sg31
VO
p6195
sg33
V-RRB-
p6196
sg35
I3
ssg10
I616
sg36
g4
sg37
(dp6197
sg39
(dp6198
sg41
I3443
sg42
g21
sg43
g21
sg44
I616
sg45
V]
p6199
sg47
I616
sg48
I3444
sbag0
(g23
g2
Ntp6200
Rp6201
(dp6202
g27
(dp6203
g29
Vsome
p6204
sg31
VO
p6205
sg33
VDT
p6206
sg35
I4
ssg10
I617
sg36
g4
sg37
(dp6207
sg39
(dp6208
sg41
I3445
sg42
g21
sg43
g21
sg44
I617
sg45
VSome
p6209
sg47
I617
sg48
I3449
sbag0
(g23
g2
Ntp6210
Rp6211
(dp6212
g27
(dp6213
g29
Vsocialist
p6214
sg31
VO
p6215
sg33
VJJ
p6216
sg35
I5
ssg10
I618
sg36
g4
sg37
(dp6217
sg39
(dp6218
sg41
I3450
sg42
g21
sg43
g21
sg44
I618
sg45
Vsocialist
p6219
sg47
I618
sg48
I3459
sbag0
(g23
g2
Ntp6220
Rp6221
(dp6222
g27
(dp6223
g29
Vanarchist
p6224
sg31
VO
p6225
sg33
VNNS
p6226
sg35
I6
ssg10
I619
sg36
g4
sg37
(dp6227
sg39
(dp6228
sg41
I3460
sg42
g21
sg43
g21
sg44
I619
sg45
Vanarchists
p6229
sg47
I619
sg48
I3470
sbag0
(g23
g2
Ntp6230
Rp6231
(dp6232
g27
(dp6233
g29
Vbelieve
p6234
sg31
VO
p6235
sg33
VVBP
p6236
sg35
I7
ssg10
I620
sg36
g4
sg37
(dp6237
sg39
(dp6238
sg41
I3471
sg42
g21
sg43
g21
sg44
I620
sg45
Vbelieve
p6239
sg47
I620
sg48
I3478
sbag0
(g23
g2
Ntp6240
Rp6241
(dp6242
g27
(dp6243
g29
Vin
p6244
sg31
VO
p6245
sg33
VIN
p6246
sg35
I8
ssg10
I621
sg36
g4
sg37
(dp6247
sg39
(dp6248
sg41
I3479
sg42
g21
sg43
g21
sg44
I621
sg45
Vin
p6249
sg47
I621
sg48
I3481
sbag0
(g23
g2
Ntp6250
Rp6251
(dp6252
g27
(dp6253
g29
Vstop
p6254
sg31
VO
p6255
sg33
VVBG
p6256
sg35
I9
ssg10
I622
sg36
g4
sg37
(dp6257
sg39
(dp6258
sg41
I3482
sg42
g21
sg43
g21
sg44
I622
sg45
Vstopping
p6259
sg47
I622
sg48
I3490
sbag0
(g23
g2
Ntp6260
Rp6261
(dp6262
g27
(dp6263
g29
Vwelfare
p6264
sg31
VO
p6265
sg33
VNN
p6266
sg35
I10
ssg10
I623
sg36
g4
sg37
(dp6267
sg39
(dp6268
sg41
I3491
sg42
g21
sg43
g21
sg44
I623
sg45
Vwelfare
p6269
sg47
I623
sg48
I3498
sbag0
(g23
g2
Ntp6270
Rp6271
(dp6272
g27
(dp6273
g29
Vprogram
p6274
sg31
VO
p6275
sg33
VNNS
p6276
sg35
I11
ssg10
I624
sg36
g4
sg37
(dp6277
sg39
(dp6278
sg41
I3499
sg42
g21
sg43
g21
sg44
I624
sg45
Vprograms
p6279
sg47
I624
sg48
I3507
sbag0
(g23
g2
Ntp6280
Rp6281
(dp6282
g27
(dp6283
g29
Vonly
p6284
sg31
VO
p6285
sg33
VRB
p6286
sg35
I12
ssg10
I625
sg36
g4
sg37
(dp6287
sg39
(dp6288
sg41
I3508
sg42
g21
sg43
g21
sg44
I625
sg45
Vonly
p6289
sg47
I625
sg48
I3512
sbag0
(g23
g2
Ntp6290
Rp6291
(dp6292
g27
(dp6293
g29
Vif
p6294
sg31
VO
p6295
sg33
VIN
p6296
sg35
I13
ssg10
I626
sg36
g4
sg37
(dp6297
sg39
(dp6298
sg41
I3513
sg42
g21
sg43
g21
sg44
I626
sg45
Vif
p6299
sg47
I626
sg48
I3515
sbag0
(g23
g2
Ntp6300
Rp6301
(dp6302
g27
(dp6303
g29
Vit
p6304
sg31
VO
p6305
sg33
VPRP
p6306
sg35
I14
ssg10
I627
sg36
g4
sg37
(dp6307
sg39
(dp6308
sg41
I3516
sg42
g21
sg43
g21
sg44
I627
sg45
Vit
p6309
sg47
I627
sg48
I3518
sbag0
(g23
g2
Ntp6310
Rp6311
(dp6312
g27
(dp6313
g29
Vmean
p6314
sg31
VO
p6315
sg33
VVBZ
p6316
sg35
I15
ssg10
I628
sg36
g4
sg37
(dp6317
sg39
(dp6318
sg41
I3519
sg42
g21
sg43
g21
sg44
I628
sg45
Vmeans
p6319
sg47
I628
sg48
I3524
sbag0
(g23
g2
Ntp6320
Rp6321
(dp6322
g27
(dp6323
g29
Vabolish
p6324
sg31
VO
p6325
sg33
VVBG
p6326
sg35
I16
ssg10
I629
sg36
g4
sg37
(dp6327
sg39
(dp6328
sg41
I3525
sg42
g21
sg43
g21
sg44
I629
sg45
Vabolishing
p6329
sg47
I629
sg48
I3535
sbag0
(g23
g2
Ntp6330
Rp6331
(dp6332
g27
(dp6333
g29
Vgovernment
p6334
sg31
VO
p6335
sg33
VNN
p6336
sg35
I17
ssg10
I630
sg36
g4
sg37
(dp6337
sg39
(dp6338
sg41
I3536
sg42
g21
sg43
g21
sg44
I630
sg45
Vgovernment
p6339
sg47
I630
sg48
I3546
sbag0
(g23
g2
Ntp6340
Rp6341
(dp6342
g27
(dp6343
g29
Vand
p6344
sg31
VO
p6345
sg33
VCC
p6346
sg35
I18
ssg10
I631
sg36
g4
sg37
(dp6347
sg39
(dp6348
sg41
I3547
sg42
g21
sg43
g21
sg44
I631
sg45
Vand
p6349
sg47
I631
sg48
I3550
sbag0
(g23
g2
Ntp6350
Rp6351
(dp6352
g27
(dp6353
g29
Vcapitalism
p6354
sg31
VO
p6355
sg33
VNN
p6356
sg35
I19
ssg10
I632
sg36
g4
sg37
(dp6357
sg39
(dp6358
sg41
I3551
sg42
g21
sg43
g21
sg44
I632
sg45
Vcapitalism
p6359
sg47
I632
sg48
I3561
sbag0
(g23
g2
Ntp6360
Rp6361
(dp6362
g27
(dp6363
g29
Vas
p6364
sg31
VO
p6365
sg33
VRB
p6366
sg35
I20
ssg10
I633
sg36
g4
sg37
(dp6367
sg39
(dp6368
sg41
I3562
sg42
g21
sg43
g21
sg44
I633
sg45
Vas
p6369
sg47
I633
sg48
I3564
sbag0
(g23
g2
Ntp6370
Rp6371
(dp6372
g27
(dp6373
g29
Vwell
p6374
sg31
VO
p6375
sg33
VRB
p6376
sg35
I21
ssg10
I634
sg36
g4
sg37
(dp6377
sg39
(dp6378
sg41
I3565
sg42
g21
sg43
g21
sg44
I634
sg45
Vwell
p6379
sg47
I634
sg48
I3569
sbag0
(g23
g2
Ntp6380
Rp6381
(dp6382
g27
(dp6383
g29
V-lsb-
p6384
sg31
VO
p6385
sg33
V-LRB-
p6386
sg35
I22
ssg10
I635
sg36
g4
sg37
(dp6387
sg39
(dp6388
sg41
I3570
sg42
g21
sg43
g21
sg44
I635
sg45
V[
p6389
sg47
I635
sg48
I3571
sbag0
(g23
g2
Ntp6390
Rp6391
(dp6392
g27
(dp6393
g29
Vref
p6394
sg31
VO
p6395
sg33
VNN
p6396
sg35
I23
ssg10
I636
sg36
g4
sg37
(dp6397
sg39
(dp6398
sg41
I3571
sg42
g21
sg43
g21
sg44
I636
sg45
VREF
p6399
sg47
I636
sg48
I3574
sbag0
(g23
g2
Ntp6400
Rp6401
(dp6402
g27
(dp6403
g29
V-rsb-
p6404
sg31
VO
p6405
sg33
V-RRB-
p6406
sg35
I24
ssg10
I637
sg36
g4
sg37
(dp6407
sg39
(dp6408
sg41
I3574
sg42
g21
sg43
g21
sg44
I637
sg45
V]
p6409
sg47
I637
sg48
I3575
sbag0
(g23
g2
Ntp6410
Rp6411
(dp6412
g27
(dp6413
g29
V.
p6414
sg31
VO
p6415
sg33
V.
p6416
sg35
I25
ssg10
I638
sg36
g4
sg37
(dp6417
sg39
(dp6418
sg41
I3575
sg42
g21
sg43
g21
sg44
I638
sg45
V.
p6419
sg47
I638
sg48
I3576
sbasS'Document'
p6420
(lp6421
g4
asS'doc-features'
p6422
g14
sS'Sentence'
p6423
(lp6424
g0
(g23
g2
Ntp6425
Rp6426
(dp6427
g27
(dp6428
S'dep-parse'
p6429
S'not implemented!'
p6430
sg35
I0
sS'constituency-parse'
p6431
V(ROOT\u000a  (NP (. .)))
p6432
ssg10
I0
sg36
g4
sg37
(dp6433
sg39
(dp6434
S'tokens'
p6435
(lp6436
g25
assg41
I0
sg42
g6423
sg43
g6423
sg44
I0
sg45
V.
p6437
sg47
I1
sg48
I1
sbag0
(g23
g2
Ntp6438
Rp6439
(dp6440
g27
(dp6441
g6429
g6430
sg35
I1
sg6431
V(ROOT\u000a  (S\u000a    (NP\u000a      (NP (DT The) (NN notion))\u000a      (CC and)\u000a      (NP\u000a        (NP (DT the) (NN extent))\u000a        (PP (IN of)\u000a          (NP (DT the) (JJ modern) (NN welfare) (NN state)))))\u000a    (VP (VBP have)\u000a      (VP (VBN been)\u000a        (VP (VBN criticised)\u000a          (PP (IN on)\u000a            (NP\u000a              (NP\u000a                (ADJP (DT both) (JJ economic)\u000a                  (CC and)\u000a                  (JJ social))\u000a                (NNS grounds))\u000a              (PP (IN from)\u000a                (NP (CC both)\u000a                  (NP (DT the) (NN left))\u000a                  (CC and)\u000a                  (NP (DT the) (NN right))))\u000a              (PP (IN of)\u000a                (NP (DT the) (JJ political) (NN spectrum))))))))\u000a    (. .)))
p6442
ssg10
I1
sg36
g4
sg37
(dp6443
sg39
(dp6444
g6435
(lp6445
g50
ag60
ag70
ag80
ag90
ag100
ag110
ag120
ag130
ag140
ag150
ag160
ag170
ag180
ag190
ag200
ag210
ag220
ag230
ag240
ag250
ag260
ag270
ag280
ag290
ag300
ag310
ag320
ag330
ag340
ag350
assg41
I4
sg42
g6423
sg43
g6423
sg44
I1
sg45
V \u000a\u000aThe notion and the extent of the modern welfare state have been criticised on both economic and social grounds from both the left and the right of the political spectrum.
p6446
sg47
I32
sg48
I174
sbag0
(g23
g2
Ntp6447
Rp6448
(dp6449
g27
(dp6450
g6429
g6430
sg35
I2
sg6431
V(X (IN In) (PRP$ his) (NN book) (, ,) (DT The) (JJ Servile) (NN State) (, ,) (NNP English) (JJ political) (NN writer) (NNP Hilaire) (NNP Belloc) (VBZ makes) (PRP$ his) (NN case) (IN for) (DT the) (JJ natural) (NN instability) (IN of) (JJ pure) (NN capitalism)\u000a  (CC and)\u000a  (VBZ discusses) (WRB how) (, ,) (IN as) (PRP he) (VBZ believes) (, ,) (VBZ attempts) (TO to) (VB reform) (NN capitalism) (MD will) (VB lead) (RB almost) (RB inexorably) (TO to) (DT an) (NN economy) (WRB where) (NN state) (NN regulation) (VBZ has) (VBN removed) (DT the) (NN freedom) (IN of) (NN capitalism)\u000a  (CC and)\u000a  (RB thereby) (VBN replaced) (NN capitalism) (IN with) (WP what) (PRP he) (VBZ calls) (DT the) (JJ Servile) (NN State) (. .))
p6451
ssg10
I2
sg36
g4
sg37
(dp6452
sg39
(dp6453
g6435
(lp6454
g360
ag370
ag380
ag390
ag400
ag410
ag420
ag430
ag440
ag450
ag460
ag470
ag480
ag490
ag500
ag510
ag520
ag530
ag540
ag550
ag560
ag570
ag580
ag590
ag600
ag610
ag620
ag630
ag640
ag650
ag660
ag670
ag680
ag690
ag700
ag710
ag720
ag730
ag740
ag750
ag760
ag770
ag780
ag790
ag800
ag810
ag820
ag830
ag840
ag850
ag860
ag870
ag880
ag890
ag900
ag910
ag920
ag930
ag940
ag950
ag960
ag970
ag980
assg41
I176
sg42
g6423
sg43
g6423
sg44
I32
sg45
V\u000a\u000aIn his book, The Servile State, English political writer Hilaire Belloc makes his case for the natural instability of pure capitalism and discusses how, as he believes, attempts to reform capitalism will lead almost inexorably to an economy where state regulation has removed the freedom of capitalism and thereby replaced capitalism with what he calls the Servile State.
p6455
sg47
I95
sg48
I547
sbag0
(g23
g2
Ntp6456
Rp6457
(dp6458
g27
(dp6459
g6429
g6430
sg35
I3
sg6431
V(X (PRP He) (VBZ believes) (IN that) (DT this) (JJ servile) (NN state) (NNS shares) (IN with) (JJ ancient) (NN slavery) (DT the) (NN fact) (IN that) (JJ positive) (NN law) (-LRB- -LRB-) (IN as) (VBN opposed) (TO to) (NN custom)\u000a  (CC or)\u000a  (JJ economic) (NN necessity) (IN by) (PRP themselves) (-RRB- -RRB-) (VBZ dictates) (IN that) (JJ certain) (NNS people) (MD will) (VB work) (IN for) (NNS others) (, ,) (WP who) (RB likewise) (MD must) (VB take) (NN care) (IN of) (PRP them) (, ,)\u000a  (CC and)\u000a  (IN so) (DT the) (NN welfare) (NN state) (MD may) (VB lead) (TO to) (DT a) (NN kind) (IN of) (NN serfdom) (, ,) (IN in) (WDT which) (CD one) (NN group) (VBZ works) (TO to) (VB support) (DT another) (NN group) (WDT that) (VBZ does) (RB not) (VB work) (. .))
p6460
ssg10
I3
sg36
g4
sg37
(dp6461
sg39
(dp6462
g6435
(lp6463
g990
ag1000
ag1010
ag1020
ag1030
ag1040
ag1050
ag1060
ag1070
ag1080
ag1090
ag1100
ag1110
ag1120
ag1130
ag1140
ag1150
ag1160
ag1170
ag1180
ag1190
ag1200
ag1210
ag1220
ag1230
ag1240
ag1250
ag1260
ag1270
ag1280
ag1290
ag1300
ag1310
ag1320
ag1330
ag1340
ag1350
ag1360
ag1370
ag1380
ag1390
ag1400
ag1410
ag1420
ag1430
ag1440
ag1450
ag1460
ag1470
ag1480
ag1490
ag1500
ag1510
ag1520
ag1530
ag1540
ag1550
ag1560
ag1570
ag1580
ag1590
ag1600
ag1610
ag1620
ag1630
ag1640
ag1650
ag1660
ag1670
ag1680
assg41
I548
sg42
g6423
sg43
g6423
sg44
I95
sg45
V He believes that this servile state shares with ancient slavery the fact that positive law (as opposed to custom or economic necessity by themselves) dictates that certain people will work for others, who likewise must take care of them, and so the welfare state may lead to a kind of serfdom, in which one group works to support another group that does not work.
p6464
sg47
I165
sg48
I911
sbag0
(g23
g2
Ntp6465
Rp6466
(dp6467
g27
(dp6468
g6429
g6430
sg35
I4
sg6431
V(ROOT\u000a  (S\u000a    (NP\u000a      (NP (DT Some) (NNS conservatives))\u000a      (PP (IN in)\u000a        (NP (DT the) (NNP UK))))\u000a    (VP (NN claim)\u000a      (SBAR (IN that)\u000a        (S\u000a          (NP (DT the) (NN welfare) (NN state))\u000a          (VP (VBZ has)\u000a            (VP (VBN produced)\u000a              (NP\u000a                (NP (DT a) (NN generation))\u000a                (PP (IN of)\u000a                  (NP\u000a                    (NP (NNS dependents))\u000a                    (SBAR\u000a                      (WHNP (WP who))\u000a                      (S (, ,)\u000a                        (PP (RB instead) (IN of)\u000a                          (S\u000a                            (VP (VBG working))))\u000a                        (, ,)\u000a                        (VP (VBP rely)\u000a                          (ADVP (RB solely))\u000a                          (PP (IN upon)\u000a                            (NP\u000a                              (NP (DT the) (NN state))\u000a                              (PP (IN for)\u000a                                (NP (NN income)\u000a                                  (CC and)\u000a                                  (NN support)))))))))))))\u000a          (: ;)\u000a          (SBAR (RB even) (IN though)\u000a            (S\u000a              (NP (NN assistance))\u000a              (VP (VBZ is)\u000a                (ADVP (RB only))\u000a                (ADJP (RB legally) (JJ available)\u000a                  (PP (TO to)\u000a                    (NP\u000a                      (NP (DT those))\u000a                      (ADJP (JJ unable)\u000a                        (S\u000a                          (VP (TO to)\u000a                            (VP (VB work))))))))))))))\u000a    (. .)))
p6469
ssg10
I4
sg36
g4
sg37
(dp6470
sg39
(dp6471
g6435
(lp6472
g1690
ag1700
ag1710
ag1720
ag1730
ag1740
ag1750
ag1760
ag1770
ag1780
ag1790
ag1800
ag1810
ag1820
ag1830
ag1840
ag1850
ag1860
ag1870
ag1880
ag1890
ag1900
ag1910
ag1920
ag1930
ag1940
ag1950
ag1960
ag1970
ag1980
ag1990
ag2000
ag2010
ag2020
ag2030
ag2040
ag2050
ag2060
ag2070
ag2080
ag2090
ag2100
ag2110
ag2120
ag2130
assg41
I914
sg42
g6423
sg43
g6423
sg44
I165
sg45
V \u000a\u000aSome conservatives in the UK claim that the welfare state has produced a generation of dependents who, instead of working, rely solely upon the state for income and support; even though assistance is only legally available to those unable to work.
p6473
sg47
I210
sg48
I1161
sbag0
(g23
g2
Ntp6474
Rp6475
(dp6476
g27
(dp6477
g6429
g6430
sg35
I5
sg6431
V(ROOT\u000a  (S\u000a    (S\u000a      (NP\u000a        (NP (DT The) (NN welfare) (NN state))\u000a        (PP (IN in)\u000a          (NP (DT the) (NNP UK))))\u000a      (VP (VBD was)\u000a        (VP (VBN created)\u000a          (S\u000a            (VP (TO to)\u000a              (VP (VB provide)\u000a                (NP (JJ certain) (NNS people))\u000a                (PP (IN with)\u000a                  (NP\u000a                    (NP (DT a) (JJ basic) (NN level))\u000a                    (PP (IN of)\u000a                      (NP (NNS benefits)))))\u000a                (SBAR (IN in) (NN order)\u000a                  (S\u000a                    (VP (TO to)\u000a                      (VP (VB alleviate)\u000a                        (NP (NN poverty))))))))))))\u000a    (, ,)\u000a    (CC but)\u000a    (S\u000a      (NP (DT these) (NNS conservatives))\u000a      (VP (VBP believe)\u000a        (SBAR (IN that)\u000a          (S\u000a            (NP (PRP it))\u000a            (VP (VBZ has)\u000a              (VP (VBN been)\u000a                (VP (VBN expanded)\u000a                  (S\u000a                    (VP (TO to)\u000a                      (VP (VB provide)\u000a                        (NP (JJR more) (NNS people))\u000a                        (PP (IN with)\u000a                          (NP\u000a                            (NP (JJR more) (NN money))\u000a                            (PP (IN from)\u000a                              (NP (DT the) (NN state)))))\u000a                        (SBAR (IN than)\u000a                          (S\u000a                            (NP (PRP it))\u000a                            (VP (MD can)\u000a                              (ADVP (RB ideally))\u000a                              (VP (VB afford)\u000a                                (NP (-LRB- -LSB-) (NN REF) (-RRB- -RSB-))))))))))))))))\u000a    (. .)))
p6478
ssg10
I5
sg36
g4
sg37
(dp6479
sg39
(dp6480
g6435
(lp6481
g2140
ag2150
ag2160
ag2170
ag2180
ag2190
ag2200
ag2210
ag2220
ag2230
ag2240
ag2250
ag2260
ag2270
ag2280
ag2290
ag2300
ag2310
ag2320
ag2330
ag2340
ag2350
ag2360
ag2370
ag2380
ag2390
ag2400
ag2410
ag2420
ag2430
ag2440
ag2450
ag2460
ag2470
ag2480
ag2490
ag2500
ag2510
ag2520
ag2530
ag2540
ag2550
ag2560
ag2570
ag2580
ag2590
ag2600
ag2610
ag2620
ag2630
ag2640
ag2650
assg41
I1162
sg42
g6423
sg43
g6423
sg44
I210
sg45
V The welfare state in the UK was created to provide certain people with a basic level of benefits in order to alleviate poverty, but these conservatives believe that it has been expanded to provide more people with more money from the state than it can ideally afford [REF].
p6482
sg47
I262
sg48
I1435
sbag0
(g23
g2
Ntp6483
Rp6484
(dp6485
g27
(dp6486
g6429
g6430
sg35
I6
sg6431
V(X (DT Some) (VBP feel) (IN that) (DT this) (NN argument) (VBZ is) (RB demonstrably) (JJ false) (: :) (DT the) (NNS benefits) (NN system) (IN in) (DT the) (NNP UK) (VBZ provides) (NNS individuals) (IN with) (RB considerably) (JJR less) (NN money) (IN than) (DT the) (JJ national) (NN minimum) (NN wage) (, ,)\u000a  (CC but)\u000a  (NNS people) (IN on) (NN welfare) (RB often) (VBP find) (IN that) (PRP they) (VBP qualify) (IN for) (DT a) (NN variety) (IN of) (NNS benefits) (, ,) (VBG including) (NNS benefits) (JJ in-kind) (, ,) (JJ such) (IN as) (NNP Housing) (NNP Benefit) (, ,) (WDT which) (RB usually) (VBP make) (DT the) (JJ overall) (NNS benefits) (RB much) (JJR higher) (IN than) (JJ basic) (NNS figures) (VBP imply) (-LRB- -LSB-) (NN REF) (-RRB- -RSB-) (. .))
p6487
ssg10
I6
sg36
g4
sg37
(dp6488
sg39
(dp6489
g6435
(lp6490
g2660
ag2670
ag2680
ag2690
ag2700
ag2710
ag2720
ag2730
ag2740
ag2750
ag2760
ag2770
ag2780
ag2790
ag2800
ag2810
ag2820
ag2830
ag2840
ag2850
ag2860
ag2870
ag2880
ag2890
ag2900
ag2910
ag2920
ag2930
ag2940
ag2950
ag2960
ag2970
ag2980
ag2990
ag3000
ag3010
ag3020
ag3030
ag3040
ag3050
ag3060
ag3070
ag3080
ag3090
ag3100
ag3110
ag3120
ag3130
ag3140
ag3150
ag3160
ag3170
ag3180
ag3190
ag3200
ag3210
ag3220
ag3230
ag3240
ag3250
ag3260
ag3270
ag3280
ag3290
ag3300
ag3310
ag3320
assg41
I1438
sg42
g6423
sg43
g6423
sg44
I262
sg45
V \u000a\u000aSome feel that this argument is demonstrably false: the benefits system in the UK provides individuals with considerably less money than the national minimum wage, but people on welfare often find that they qualify for a variety of benefits, including benefits in-kind, such as Housing Benefit, which usually make the overall benefits much higher than basic figures imply [REF].
p6491
sg47
I329
sg48
I1816
sbag0
(g23
g2
Ntp6492
Rp6493
(dp6494
g27
(dp6495
g6429
g6430
sg35
I7
sg6431
V(ROOT\u000a  (S\u000a    (NP\u000a      (NP (DT Some) (JJ British) (NNS conservatives))\u000a      (, ,)\u000a      (PP (JJ such) (IN as)\u000a        (NP (NNP Conservative) (NNP Party) (NN co-chairman) (NNP Sayeeda) (NNP Warsi)))\u000a      (, ,))\u000a    (ADVP (RB also))\u000a    (VP (VBP criticise)\u000a      (NP\u000a        (NP (DT the))\u000a        ('' '')\u000a        (SBAR\u000a          (S\u000a            (NP (`` `)\u000a              (NP (NN something))\u000a              (PP (IN for)\u000a                (NP (NN nothing) ('' ') (NN culture)))\u000a              ('' '')\u000a              (PP (IN of)\u000a                (NP (DT the) (NN welfare) (NN state))))\u000a            (, ,)\u000a            (S\u000a              (VP (VBG claiming)\u000a                (SBAR (IN that)\u000a                  (S\u000a                    (NP\u000a                      (NP (DT the) (JJ high) (NN extent))\u000a                      (PP (IN of)\u000a                        (NP (DT the) (NN welfare) (NN state))))\u000a                    (`` ``)\u000a                    (VP (VBZ discourages)\u000a                      (NP (DT the) (JJ unemployed))\u000a                      (PP (IN from)\u000a                        (S\u000a                          (VP (VBG finding)\u000a                            (NP (NNS jobs))))))))))\u000a            ('' '')\u000a            (NP (-LRB- -LSB-) (NN REF))\u000a            (VP (-RRB- -RSB-))))))\u000a    (. .)))
p6496
ssg10
I7
sg36
g4
sg37
(dp6497
sg39
(dp6498
g6435
(lp6499
g3330
ag3340
ag3350
ag3360
ag3370
ag3380
ag3390
ag3400
ag3410
ag3420
ag3430
ag3440
ag3450
ag3460
ag3470
ag3480
ag3490
ag3500
ag3510
ag3520
ag3530
ag3540
ag3550
ag3559
ag3569
ag3579
ag3589
ag3599
ag3609
ag3619
ag3629
ag3639
ag3649
ag3659
ag3669
ag3679
ag3689
ag3699
ag3708
ag3718
ag3728
ag3738
ag3748
ag3758
ag3768
ag3777
ag3787
ag3797
ag3807
assg41
I1819
sg42
g6423
sg43
g6423
sg44
I329
sg45
V \u000a\u000aSome British conservatives, such as Conservative Party co-chairman Sayeeda Warsi, also criticise the "'something for nothing' culture" of the welfare state, claiming that the high extent of the welfare state "discourages the unemployed from finding jobs" [REF].
p6500
sg47
I378
sg48
I2080
sbag0
(g23
g2
Ntp6501
Rp6502
(dp6503
g27
(dp6504
g6429
g6430
sg35
I8
sg6431
V(ROOT\u000a  (S\u000a    (NP\u000a      (NP (CD 55) (NN %))\u000a      (PP (IN of)\u000a        (NP\u000a          (NP\u000a            (NP (NNS people))\u000a            (PP (IN in)\u000a              (NP (NNP England))))\u000a          (CC and)\u000a          (NP\u000a            (NP (CD 43) (NN %))\u000a            (PP (IN of)\u000a              (NP\u000a                (NP (NNS people))\u000a                (PP (IN in)\u000a                  (NP (NNP Scotland)))))))))\u000a    (VP (VBP believe)\u000a      (SBAR (IN that) (`` ``)\u000a        (S\u000a          (NP\u000a            (NP (NNS benefits))\u000a            (PP (IN for)\u000a              (NP (JJ unemployed) (NNS people))))\u000a          (VP\u000a            (VP (VBP are)\u000a              (ADJP (RB too) (JJ high)))\u000a            (CC and)\u000a            (VP (VB discourage)\u000a              (NP (PRP them))\u000a              (PP (IN from)\u000a                (S\u000a                  (VP (VBG finding)\u000a                    (NP (NNS jobs))\u000a                    ('' '')\u000a                    (PP (-LRB- -LSB-)\u000a                      (NP (NN REF) (-RRB- -RSB-)))))))))))\u000a    (. .)))
p6505
ssg10
I8
sg36
g4
sg37
(dp6506
sg39
(dp6507
g6435
(lp6508
g3817
ag3827
ag3837
ag3847
ag3857
ag3867
ag3877
ag3887
ag3897
ag3907
ag3917
ag3927
ag3937
ag3947
ag3957
ag3967
ag3976
ag3986
ag3996
ag4006
ag4016
ag4026
ag4036
ag4046
ag4056
ag4066
ag4076
ag4086
ag4096
ag4106
ag4115
ag4125
ag4135
ag4145
assg41
I2081
sg42
g6423
sg43
g6423
sg44
I378
sg45
V 55% of people in England and 43% of people in Scotland believe that "benefits for unemployed people are too high and discourage them from finding jobs" [REF].
p6509
sg47
I412
sg48
I2239
sbag0
(g23
g2
Ntp6510
Rp6511
(dp6512
g27
(dp6513
g6429
g6430
sg35
I9
sg6431
V(X (NNPS Marxists) (VBP argue) (IN that) (NN welfare) (NNS states)\u000a  (CC and)\u000a  (JJ modern) (JJ social) (JJ democratic) (NNS policies) (VBP limit) (DT the) (NN incentive) (NN system) (IN of) (DT the) (NN market) (IN by) (VBG providing) (NNS things) (JJ such) (IN as) (JJ minimum) (NNS wages) (, ,) (NN unemployment) (NN insurance) (, ,) (VBG taxing) (NNS profits)\u000a  (CC and)\u000a  (VBG reducing) (DT the) (NN reserve) (NN army) (IN of) (NN labor) (, ,) (VBG resulting) (IN in) (NNS capitalists) (VBG having) (JJ little) (NN incentive) (TO to) (VB invest) (: ;) (IN in) (NN essence) (, ,) (JJ social) (NN welfare) (NNS policies) (VBP cripple) (DT the) (JJ capitalist) (NN system)\u000a  (CC and)\u000a  (PRP$ its) (NN incentive) (NN system) (, ,)\u000a  (CC and)\u000a  (DT the) (JJ only) (JJ real) (NN solution) (TO to) (DT the) (NNS issues) (IN of) (NN capitalism) (VBZ is) (PRP$ its) (NN replacement) (IN with) (DT a) (JJ socialist) (JJ economic) (NN system) (-LRB- -LSB-) (NN REF) (-RRB- -RSB-) (. .))
p6514
ssg10
I9
sg36
g4
sg37
(dp6515
sg39
(dp6516
g6435
(lp6517
g4155
ag4165
ag4175
ag4185
ag4195
ag4205
ag4215
ag4225
ag4235
ag4245
ag4255
ag4265
ag4275
ag4285
ag4295
ag4305
ag4315
ag4325
ag4335
ag4345
ag4355
ag4365
ag4375
ag4385
ag4395
ag4405
ag4415
ag4425
ag4435
ag4445
ag4455
ag4465
ag4475
ag4485
ag4495
ag4505
ag4515
ag4525
ag4535
ag4545
ag4555
ag4565
ag4575
ag4585
ag4595
ag4605
ag4615
ag4625
ag4635
ag4645
ag4655
ag4665
ag4675
ag4685
ag4695
ag4705
ag4715
ag4725
ag4735
ag4745
ag4755
ag4765
ag4775
ag4785
ag4795
ag4805
ag4815
ag4825
ag4835
ag4845
ag4855
ag4865
ag4875
ag4885
ag4895
ag4905
ag4915
ag4925
ag4935
ag4945
ag4955
ag4965
ag4975
ag4985
assg41
I2241
sg42
g6423
sg43
g6423
sg44
I412
sg45
V\u000a\u000aMarxists argue that welfare states and modern social democratic policies limit the incentive system of the market by providing things such as minimum wages, unemployment insurance, taxing profits and reducing the reserve army of labor, resulting in capitalists having little incentive to invest; in essence, social welfare policies cripple the capitalist system and its incentive system, and the only real solution to the issues of capitalism is its replacement with a socialist economic system [REF].
p6518
sg47
I496
sg48
I2742
sbag0
(g23
g2
Ntp6519
Rp6520
(dp6521
g27
(dp6522
g6429
g6430
sg35
I10
sg6431
V(ROOT\u000a  (S\u000a    (NP\u000a      (NP (DT The)\u000a        (ADJP (RBS most) (JJ extreme))\u000a        (NNS criticisms))\u000a      (PP (IN of)\u000a        (NP (NNS states)\u000a          (CC and)\u000a          (NNS governments))))\u000a    (VP (VBP are)\u000a      (VP (VBN made)\u000a        (PP (IN by)\u000a          (NP\u000a            (NP (NNS anarchists))\u000a            (, ,)\u000a            (SBAR\u000a              (WHNP (WP who))\u000a              (S\u000a                (VP (VBP believe)\u000a                  (SBAR (IN that)\u000a                    (S\u000a                      (NP (DT all) (NNS states)\u000a                        (CC and)\u000a                        (NNS governments))\u000a                      (VP\u000a                        (VP (VBP are)\u000a                          (ADJP (JJ undesirable)))\u000a                        (CC and/or)\u000a                        (VP (JJ unnecessary))))))))))))\u000a    (. .)))
p6523
ssg10
I10
sg36
g4
sg37
(dp6524
sg39
(dp6525
g6435
(lp6526
g4995
ag5005
ag5015
ag5025
ag5035
ag5045
ag5055
ag5065
ag5075
ag5085
ag5095
ag5105
ag5115
ag5125
ag5135
ag5145
ag5155
ag5165
ag5175
ag5185
ag5195
ag5205
ag5215
ag5225
ag5235
assg41
I2745
sg42
g6423
sg43
g6423
sg44
I496
sg45
V \u000a\u000aThe most extreme criticisms of states and governments are made by anarchists, who believe that all states and governments are undesirable and/or unnecessary.
p6527
sg47
I521
sg48
I2902
sbag0
(g23
g2
Ntp6528
Rp6529
(dp6530
g27
(dp6531
g6429
g6430
sg35
I11
sg6431
V(ROOT\u000a  (S\u000a    (NP (DT Some) (JJ socialist) (NNS anarchists))\u000a    (VP (VBP believe)\u000a      (SBAR (IN that)\u000a        (S\u000a          (SBAR (IN while)\u000a            (S\u000a              (NP (JJ social) (NN welfare))\u000a              (VP (VBZ gives)\u000a                (NP\u000a                  (NP (DT a) (JJ certain) (NN level))\u000a                  (PP (IN of)\u000a                    (NP (NN independency))))\u000a                (PP (IN from)\u000a                  (NP\u000a                    (NP (DT the) (NN market))\u000a                    (CC and)\u000a                    (NP (JJ individual) (NNS capitalists)))))))\u000a          (, ,)\u000a          (NP (PRP it))\u000a          (VP (VBZ creates)\u000a            (NP (NN dependence))\u000a            (PP (TO to)\u000a              (NP\u000a                (NP (DT the) (NN state))\u000a                (, ,)\u000a                (SBAR\u000a                  (WHNP (WDT which))\u000a                  (S\u000a                    (VP (VBZ is)\u000a                      (NP\u000a                        (NP (DT the) (NN institution))\u000a                        (SBAR\u000a                          (WHNP (IN that))\u000a                          (S (, ,)\u000a                            (PP (VBG according)\u000a                              (PP (TO to)\u000a                                (NP (DT this) (NN view))))\u000a                            (, ,)\u000a                            (VP (VBZ supports)\u000a                              (CC and)\u000a                              (VBZ protects)\u000a                              (NP\u000a                                (NP (NN capitalism))\u000a                                (PP (IN in)\u000a                                  (NP (DT the) (JJ first) (NN place)))))))))))))))))\u000a    (. .)))
p6532
ssg10
I11
sg36
g4
sg37
(dp6533
sg39
(dp6534
g6435
(lp6535
g5245
ag5255
ag5265
ag5275
ag5285
ag5295
ag5305
ag5315
ag5325
ag5335
ag5345
ag5355
ag5365
ag5375
ag5385
ag5395
ag5405
ag5415
ag5425
ag5435
ag5445
ag5455
ag5465
ag5475
ag5485
ag5495
ag5505
ag5515
ag5525
ag5535
ag5545
ag5555
ag5565
ag5575
ag5585
ag5595
ag5605
ag5615
ag5625
ag5635
ag5645
ag5655
ag5665
ag5675
ag5685
ag5695
ag5705
ag5715
assg41
I2903
sg42
g6423
sg43
g6423
sg44
I521
sg45
V Some socialist anarchists believe that while social welfare gives a certain level of independency from the market and individual capitalists, it creates dependence to the state, which is the institution that, according to this view, supports and protects capitalism in the first place.
p6536
sg47
I569
sg48
I3188
sbag0
(g23
g2
Ntp6537
Rp6538
(dp6539
g27
(dp6540
g6429
g6430
sg35
I12
sg6431
V(ROOT\u000a  (S\u000a    (ADVP (RB Nonetheless))\u000a    (, ,)\u000a    (PP (VBG according)\u000a      (PP (TO to)\u000a        (NP (NNP Noam) (NNP Chomsky))))\u000a    (, ,) (`` ``)\u000a    (S\u000a      (NP (JJ social) (NNS democrats)\u000a        (CC and)\u000a        (NNS anarchists))\u000a      (ADVP (RB always))\u000a      (VP (VBD agreed) (, ,)\u000a        (ADVP (RB fairly)\u000a          (ADVP (RB generally)))\u000a        (, ,)\u000a        (PP (IN on)\u000a          (NP\u000a            (NP (JJ so-called))\u000a            (`` `)\u000a            (NP\u000a              (NP (NN welfare) (NN state))\u000a              (NP (NNS measures) (POS ')))\u000a            ('' '')))))\u000a    (CC and)\u000a    (`` ``)\u000a    (S\u000a      (NP (NNPS Anarchists))\u000a      (VP (VBP propose)\u000a        (S\u000a          (NP (JJ other) (NNS measures))\u000a          (VP (TO to)\u000a            (VP (VB deal)\u000a              (PP (IN with)\u000a                (NP (DT these) (NNS problems)))\u000a              (, ,)\u000a              (PP (IN without)\u000a                (NP\u000a                  (NP (NN recourse))\u000a                  (PP (TO to)\u000a                    (NP (NN state) (NN authority))))))))))\u000a    (. .) ('' '')))
p6541
ssg10
I12
sg36
g4
sg37
(dp6542
sg39
(dp6543
g6435
(lp6544
g5725
ag5735
ag5745
ag5755
ag5765
ag5775
ag5785
ag5795
ag5804
ag5814
ag5824
ag5834
ag5844
ag5854
ag5864
ag5874
ag5884
ag5894
ag5904
ag5914
ag5924
ag5934
ag5944
ag5954
ag5964
ag5974
ag5983
ag5993
ag6002
ag6012
ag6022
ag6032
ag6042
ag6052
ag6062
ag6072
ag6082
ag6092
ag6102
ag6112
ag6122
ag6132
ag6142
ag6152
ag6162
assg41
I3189
sg42
g6423
sg43
g6423
sg44
I569
sg45
V Nonetheless, according to Noam Chomsky, "social democrats and anarchists always agreed, fairly generally, on so-called 'welfare state measures'" and "Anarchists propose other measures to deal with these problems, without recourse to state authority."
p6545
sg47
I614
sg48
I3439
sbag0
(g23
g2
Ntp6546
Rp6547
(dp6548
g27
(dp6549
g6429
g6430
sg35
I13
sg6431
V(ROOT\u000a  (S\u000a    (NP\u000a      (NP (-LRB- -LSB-) (NN REF))\u000a      (PP (-RRB- -RSB-)\u000a        (NP (DT Some) (JJ socialist) (NNS anarchists))))\u000a    (VP (VBP believe)\u000a      (PP (IN in)\u000a        (S\u000a          (VP (VBG stopping)\u000a            (NP (NN welfare) (NNS programs))\u000a            (SBAR (RB only) (IN if)\u000a              (S\u000a                (NP (PRP it))\u000a                (VP (VBZ means)\u000a                  (S\u000a                    (VP (VBG abolishing)\u000a                      (NP\u000a                        (NP (NN government)\u000a                          (CC and)\u000a                          (NN capitalism))\u000a                        (CONJP (RB as) (RB well) (-LRB- -LSB-))\u000a                        (NP (NN REF) (-RRB- -RSB-))))))))))))\u000a    (. .)))
p6550
ssg10
I13
sg36
g4
sg37
(dp6551
sg39
(dp6552
g6435
(lp6553
g6171
ag6181
ag6191
ag6201
ag6211
ag6221
ag6231
ag6241
ag6251
ag6261
ag6271
ag6281
ag6291
ag6301
ag6311
ag6321
ag6331
ag6341
ag6351
ag6361
ag6371
ag6381
ag6391
ag6401
ag6411
assg41
I3439
sg42
g6423
sg43
g6423
sg44
I614
sg45
V[REF] Some socialist anarchists believe in stopping welfare programs only if it means abolishing government and capitalism as well [REF].
p6554
sg47
I639
sg48
I3576
sbassg37
(dp6555
sg39
(dp6556
sg47
I-1
sg6435
g22
sg42
g6420
sg36
Nsg27
(dp6557
sg44
I0
sg45
V. \u000a\u000aThe notion and the extent of the modern welfare state have been criticised on both economic and social grounds from both the left and the right of the political spectrum.\u000a\u000aIn his book, The Servile State, English political writer Hilaire Belloc makes his case for the natural instability of pure capitalism and discusses how, as he believes, attempts to reform capitalism will lead almost inexorably to an economy where state regulation has removed the freedom of capitalism and thereby replaced capitalism with what he calls the Servile State. He believes that this servile state shares with ancient slavery the fact that positive law (as opposed to custom or economic necessity by themselves) dictates that certain people will work for others, who likewise must take care of them, and so the welfare state may lead to a kind of serfdom, in which one group works to support another group that does not work. \u000a\u000aSome conservatives in the UK claim that the welfare state has produced a generation of dependents who, instead of working, rely solely upon the state for income and support; even though assistance is only legally available to those unable to work. The welfare state in the UK was created to provide certain people with a basic level of benefits in order to alleviate poverty, but these conservatives believe that it has been expanded to provide more people with more money from the state than it can ideally afford [REF]. \u000a\u000aSome feel that this argument is demonstrably false: the benefits system in the UK provides individuals with considerably less money than the national minimum wage, but people on welfare often find that they qualify for a variety of benefits, including benefits in-kind, such as Housing Benefit, which usually make the overall benefits much higher than basic figures imply [REF]. \u000a\u000aSome British conservatives, such as Conservative Party co-chairman Sayeeda Warsi, also criticise the "'something for nothing' culture" of the welfare state, claiming that the high extent of the welfare state "discourages the unemployed from finding jobs" [REF]. 55% of people in England and 43% of people in Scotland believe that "benefits for unemployed people are too high and discourage them from finding jobs" [REF].\u000a\u000aMarxists argue that welfare states and modern social democratic policies limit the incentive system of the market by providing things such as minimum wages, unemployment insurance, taxing profits and reducing the reserve army of labor, resulting in capitalists having little incentive to invest; in essence, social welfare policies cripple the capitalist system and its incentive system, and the only real solution to the issues of capitalism is its replacement with a socialist economic system [REF]. \u000a\u000aThe most extreme criticisms of states and governments are made by anarchists, who believe that all states and governments are undesirable and/or unnecessary. Some socialist anarchists believe that while social welfare gives a certain level of independency from the market and individual capitalists, it creates dependence to the state, which is the institution that, according to this view, supports and protects capitalism in the first place. Nonetheless, according to Noam Chomsky, "social democrats and anarchists always agreed, fairly generally, on so-called 'welfare state measures'" and "Anarchists propose other measures to deal with these problems, without recourse to state authority."[REF] Some socialist anarchists believe in stopping welfare programs only if it means abolishing government and capitalism as well [REF].
p6558
sS'sents'
p6559
g6424
sg43
g6420
sg41
I0
sS'id'
p6560
g16
sg48
I3576
sS'sentFeatures'
p6561
(lp6562
sb.