ccopy_reg
_reconstructor
p0
(cpygate.doc
Document
p1
c__builtin__
object
p2
Ntp3
Rp4
(dp5
S'src'
p6
VThe Federal Labor Relations Act of 1978 (FLRA) is a federal law which establishes collective bargaining rights for most employees of the federal government in the United States. \u000a\u000aThe FLRA was adopted after President Jimmy Carter pushed for legislation to regularize federal labor relations. \u000a\u000aIn passing the act, Congress declared that it wished to encourage collective bargaining between federal employees and their employers. Congress declared that collective bargaining is "in the public interest" because, among other things, it "contributes to the effective conduct of public business" and "facilitates and encourages the amicable settlements of disputes between employees and their employers involving conditions of employment." . \u000a\u000aWith only a few exceptions, it is patterned on the National Labor Relations Act. \u000a\u000aThe FLRA establishes a Federal Labor Relations Authority to oversee elections and protect federal government employees' organizing and bargaining rights.
p7
sS'string'
p8
S'The Federal Labor Relations Act of 1978 (FLRA) is a federal law which establishes collective bargaining rights for most employees of the federal government in the United States. \n\nThe FLRA was adopted after President Jimmy Carter pushed for legislation to regularize federal labor relations. \n\nIn passing the act, Congress declared that it wished to encourage collective bargaining between federal employees and their employers. Congress declared that collective bargaining is "in the public interest" because, among other things, it "contributes to the effective conduct of public business" and "facilitates and encourages the amicable settlements of disputes between employees and their employers involving conditions of employment." . \n\nWith only a few exceptions, it is patterned on the National Labor Relations Act. \n\nThe FLRA establishes a Federal Labor Relations Authority to oversee elections and protect federal government employees\' organizing and bargaining rights.'
p9
sS'idx'
p10
I0
sS'tknFeatures'
p11
(lp12
sS'docFeatures'
p13
(dp14
S'file_id'
p15
S'Federal_Labor_Relations_Act'
p16
ssS'items'
p17
(dp18
S'raw'
p19
VThe Federal Labor Relations Act of 1978 (FLRA) is a federal law which establishes collective bargaining rights for most employees of the federal government in the United States. \u000a\u000aThe FLRA was adopted after President Jimmy Carter pushed for legislation to regularize federal labor relations. \u000a\u000aIn passing the act, Congress declared that it wished to encourage collective bargaining between federal employees and their employers. Congress declared that collective bargaining is "in the public interest" because, among other things, it "contributes to the effective conduct of public business" and "facilitates and encourages the amicable settlements of disputes between employees and their employers involving conditions of employment." . \u000a\u000aWith only a few exceptions, it is patterned on the National Labor Relations Act. \u000a\u000aThe FLRA establishes a Federal Labor Relations Authority to oversee elections and protect federal government employees' organizing and bargaining rights.
p20
sS'Token'
p21
(lp22
g0
(cpygate.annotation
Annotation
p23
g2
Ntp24
Rp25
(dp26
S'features'
p27
(dp28
S'lemma'
p29
Vthe
p30
sS'ner'
p31
VO
p32
sS'pos'
p33
VDT
p34
sS'index'
p35
I1
ssg10
I0
sS'doc'
p36
g4
sS'labels'
p37
(dp38
sS'relations'
p39
(dp40
sS'cStart'
p41
I0
sS'subType'
p42
g21
sS'annoType'
p43
g21
sS'tStart'
p44
I0
sS'text'
p45
VThe
p46
sS'tEnd'
p47
I0
sS'cEnd'
p48
I3
sbag0
(g23
g2
Ntp49
Rp50
(dp51
g27
(dp52
g29
VFederal
p53
sg31
VO
p54
sg33
VNNP
p55
sg35
I2
ssg10
I1
sg36
g4
sg37
(dp56
sg39
(dp57
sg41
I4
sg42
g21
sg43
g21
sg44
I1
sg45
VFederal
p58
sg47
I1
sg48
I11
sbag0
(g23
g2
Ntp59
Rp60
(dp61
g27
(dp62
g29
VLabor
p63
sg31
VO
p64
sg33
VNNP
p65
sg35
I3
ssg10
I2
sg36
g4
sg37
(dp66
sg39
(dp67
sg41
I12
sg42
g21
sg43
g21
sg44
I2
sg45
VLabor
p68
sg47
I2
sg48
I17
sbag0
(g23
g2
Ntp69
Rp70
(dp71
g27
(dp72
g29
VRelations
p73
sg31
VO
p74
sg33
VNNP
p75
sg35
I4
ssg10
I3
sg36
g4
sg37
(dp76
sg39
(dp77
sg41
I18
sg42
g21
sg43
g21
sg44
I3
sg45
VRelations
p78
sg47
I3
sg48
I27
sbag0
(g23
g2
Ntp79
Rp80
(dp81
g27
(dp82
g29
VAct
p83
sg31
VO
p84
sg33
VNNP
p85
sg35
I5
ssg10
I4
sg36
g4
sg37
(dp86
sg39
(dp87
sg41
I28
sg42
g21
sg43
g21
sg44
I4
sg45
VAct
p88
sg47
I4
sg48
I31
sbag0
(g23
g2
Ntp89
Rp90
(dp91
g27
(dp92
g29
Vof
p93
sg31
VO
p94
sg33
VIN
p95
sg35
I6
ssg10
I5
sg36
g4
sg37
(dp96
sg39
(dp97
sg41
I32
sg42
g21
sg43
g21
sg44
I5
sg45
Vof
p98
sg47
I5
sg48
I34
sbag0
(g23
g2
Ntp99
Rp100
(dp101
g27
(dp102
g29
V1978
p103
sg31
VDATE
p104
sg33
VCD
p105
sg35
I7
ssg10
I6
sg36
g4
sg37
(dp106
sg39
(dp107
sg41
I35
sg42
g21
sg43
g21
sg44
I6
sg45
V1978
p108
sg47
I6
sg48
I39
sbag0
(g23
g2
Ntp109
Rp110
(dp111
g27
(dp112
g29
V-lrb-
p113
sg31
VO
p114
sg33
V-LRB-
p115
sg35
I8
ssg10
I7
sg36
g4
sg37
(dp116
sg39
(dp117
sg41
I40
sg42
g21
sg43
g21
sg44
I7
sg45
V(
p118
sg47
I7
sg48
I41
sbag0
(g23
g2
Ntp119
Rp120
(dp121
g27
(dp122
g29
Vflra
p123
sg31
VO
p124
sg33
VNN
p125
sg35
I9
ssg10
I8
sg36
g4
sg37
(dp126
sg39
(dp127
sg41
I41
sg42
g21
sg43
g21
sg44
I8
sg45
VFLRA
p128
sg47
I8
sg48
I45
sbag0
(g23
g2
Ntp129
Rp130
(dp131
g27
(dp132
g29
V-rrb-
p133
sg31
VO
p134
sg33
V-RRB-
p135
sg35
I10
ssg10
I9
sg36
g4
sg37
(dp136
sg39
(dp137
sg41
I45
sg42
g21
sg43
g21
sg44
I9
sg45
V)
p138
sg47
I9
sg48
I46
sbag0
(g23
g2
Ntp139
Rp140
(dp141
g27
(dp142
g29
Vbe
p143
sg31
VO
p144
sg33
VVBZ
p145
sg35
I11
ssg10
I10
sg36
g4
sg37
(dp146
sg39
(dp147
sg41
I47
sg42
g21
sg43
g21
sg44
I10
sg45
Vis
p148
sg47
I10
sg48
I49
sbag0
(g23
g2
Ntp149
Rp150
(dp151
g27
(dp152
g29
Va
p153
sg31
VO
p154
sg33
VDT
p155
sg35
I12
ssg10
I11
sg36
g4
sg37
(dp156
sg39
(dp157
sg41
I50
sg42
g21
sg43
g21
sg44
I11
sg45
Va
p158
sg47
I11
sg48
I51
sbag0
(g23
g2
Ntp159
Rp160
(dp161
g27
(dp162
g29
Vfederal
p163
sg31
VO
p164
sg33
VJJ
p165
sg35
I13
ssg10
I12
sg36
g4
sg37
(dp166
sg39
(dp167
sg41
I52
sg42
g21
sg43
g21
sg44
I12
sg45
Vfederal
p168
sg47
I12
sg48
I59
sbag0
(g23
g2
Ntp169
Rp170
(dp171
g27
(dp172
g29
Vlaw
p173
sg31
VO
p174
sg33
VNN
p175
sg35
I14
ssg10
I13
sg36
g4
sg37
(dp176
sg39
(dp177
sg41
I60
sg42
g21
sg43
g21
sg44
I13
sg45
Vlaw
p178
sg47
I13
sg48
I63
sbag0
(g23
g2
Ntp179
Rp180
(dp181
g27
(dp182
g29
Vwhich
p183
sg31
VO
p184
sg33
VWDT
p185
sg35
I15
ssg10
I14
sg36
g4
sg37
(dp186
sg39
(dp187
sg41
I64
sg42
g21
sg43
g21
sg44
I14
sg45
Vwhich
p188
sg47
I14
sg48
I69
sbag0
(g23
g2
Ntp189
Rp190
(dp191
g27
(dp192
g29
Vestablish
p193
sg31
VO
p194
sg33
VVBZ
p195
sg35
I16
ssg10
I15
sg36
g4
sg37
(dp196
sg39
(dp197
sg41
I70
sg42
g21
sg43
g21
sg44
I15
sg45
Vestablishes
p198
sg47
I15
sg48
I81
sbag0
(g23
g2
Ntp199
Rp200
(dp201
g27
(dp202
g29
Vcollective
p203
sg31
VO
p204
sg33
VJJ
p205
sg35
I17
ssg10
I16
sg36
g4
sg37
(dp206
sg39
(dp207
sg41
I82
sg42
g21
sg43
g21
sg44
I16
sg45
Vcollective
p208
sg47
I16
sg48
I92
sbag0
(g23
g2
Ntp209
Rp210
(dp211
g27
(dp212
g29
Vbargaining
p213
sg31
VO
p214
sg33
VNN
p215
sg35
I18
ssg10
I17
sg36
g4
sg37
(dp216
sg39
(dp217
sg41
I93
sg42
g21
sg43
g21
sg44
I17
sg45
Vbargaining
p218
sg47
I17
sg48
I103
sbag0
(g23
g2
Ntp219
Rp220
(dp221
g27
(dp222
g29
Vrights
p223
sg31
VO
p224
sg33
VNNS
p225
sg35
I19
ssg10
I18
sg36
g4
sg37
(dp226
sg39
(dp227
sg41
I104
sg42
g21
sg43
g21
sg44
I18
sg45
Vrights
p228
sg47
I18
sg48
I110
sbag0
(g23
g2
Ntp229
Rp230
(dp231
g27
(dp232
g29
Vfor
p233
sg31
VO
p234
sg33
VIN
p235
sg35
I20
ssg10
I19
sg36
g4
sg37
(dp236
sg39
(dp237
sg41
I111
sg42
g21
sg43
g21
sg44
I19
sg45
Vfor
p238
sg47
I19
sg48
I114
sbag0
(g23
g2
Ntp239
Rp240
(dp241
g27
(dp242
g29
Vmost
p243
sg31
VO
p244
sg33
VJJS
p245
sg35
I21
ssg10
I20
sg36
g4
sg37
(dp246
sg39
(dp247
sg41
I115
sg42
g21
sg43
g21
sg44
I20
sg45
Vmost
p248
sg47
I20
sg48
I119
sbag0
(g23
g2
Ntp249
Rp250
(dp251
g27
(dp252
g29
Vemployee
p253
sg31
VO
p254
sg33
VNNS
p255
sg35
I22
ssg10
I21
sg36
g4
sg37
(dp256
sg39
(dp257
sg41
I120
sg42
g21
sg43
g21
sg44
I21
sg45
Vemployees
p258
sg47
I21
sg48
I129
sbag0
(g23
g2
Ntp259
Rp260
(dp261
g27
(dp262
g29
Vof
p263
sg31
VO
p264
sg33
VIN
p265
sg35
I23
ssg10
I22
sg36
g4
sg37
(dp266
sg39
(dp267
sg41
I130
sg42
g21
sg43
g21
sg44
I22
sg45
Vof
p268
sg47
I22
sg48
I132
sbag0
(g23
g2
Ntp269
Rp270
(dp271
g27
(dp272
g29
Vthe
p273
sg31
VO
p274
sg33
VDT
p275
sg35
I24
ssg10
I23
sg36
g4
sg37
(dp276
sg39
(dp277
sg41
I133
sg42
g21
sg43
g21
sg44
I23
sg45
Vthe
p278
sg47
I23
sg48
I136
sbag0
(g23
g2
Ntp279
Rp280
(dp281
g27
(dp282
g29
Vfederal
p283
sg31
VO
p284
sg33
VJJ
p285
sg35
I25
ssg10
I24
sg36
g4
sg37
(dp286
sg39
(dp287
sg41
I137
sg42
g21
sg43
g21
sg44
I24
sg45
Vfederal
p288
sg47
I24
sg48
I144
sbag0
(g23
g2
Ntp289
Rp290
(dp291
g27
(dp292
g29
Vgovernment
p293
sg31
VO
p294
sg33
VNN
p295
sg35
I26
ssg10
I25
sg36
g4
sg37
(dp296
sg39
(dp297
sg41
I145
sg42
g21
sg43
g21
sg44
I25
sg45
Vgovernment
p298
sg47
I25
sg48
I155
sbag0
(g23
g2
Ntp299
Rp300
(dp301
g27
(dp302
g29
Vin
p303
sg31
VO
p304
sg33
VIN
p305
sg35
I27
ssg10
I26
sg36
g4
sg37
(dp306
sg39
(dp307
sg41
I156
sg42
g21
sg43
g21
sg44
I26
sg45
Vin
p308
sg47
I26
sg48
I158
sbag0
(g23
g2
Ntp309
Rp310
(dp311
g27
(dp312
g29
Vthe
p313
sg31
VO
p314
sg33
VDT
p315
sg35
I28
ssg10
I27
sg36
g4
sg37
(dp316
sg39
(dp317
sg41
I159
sg42
g21
sg43
g21
sg44
I27
sg45
Vthe
p318
sg47
I27
sg48
I162
sbag0
(g23
g2
Ntp319
Rp320
(dp321
g27
(dp322
g29
VUnited
p323
sg31
VLOCATION
p324
sg33
VNNP
p325
sg35
I29
ssg10
I28
sg36
g4
sg37
(dp326
sg39
(dp327
sg41
I163
sg42
g21
sg43
g21
sg44
I28
sg45
VUnited
p328
sg47
I28
sg48
I169
sbag0
(g23
g2
Ntp329
Rp330
(dp331
g27
(dp332
g29
VStates
p333
sg31
VLOCATION
p334
sg33
VNNPS
p335
sg35
I30
ssg10
I29
sg36
g4
sg37
(dp336
sg39
(dp337
sg41
I170
sg42
g21
sg43
g21
sg44
I29
sg45
VStates
p338
sg47
I29
sg48
I176
sbag0
(g23
g2
Ntp339
Rp340
(dp341
g27
(dp342
g29
V.
p343
sg31
VO
p344
sg33
V.
p345
sg35
I31
ssg10
I30
sg36
g4
sg37
(dp346
sg39
(dp347
sg41
I176
sg42
g21
sg43
g21
sg44
I30
sg45
V.
p348
sg47
I30
sg48
I177
sbag0
(g23
g2
Ntp349
Rp350
(dp351
g27
(dp352
g29
Vthe
p353
sg31
VO
p354
sg33
VDT
p355
sg35
I1
ssg10
I31
sg36
g4
sg37
(dp356
sg39
(dp357
sg41
I180
sg42
g21
sg43
g21
sg44
I31
sg45
VThe
p358
sg47
I31
sg48
I183
sbag0
(g23
g2
Ntp359
Rp360
(dp361
g27
(dp362
g29
VFLRA
p363
sg31
VORGANIZATION
p364
sg33
VNNP
p365
sg35
I2
ssg10
I32
sg36
g4
sg37
(dp366
sg39
(dp367
sg41
I184
sg42
g21
sg43
g21
sg44
I32
sg45
VFLRA
p368
sg47
I32
sg48
I188
sbag0
(g23
g2
Ntp369
Rp370
(dp371
g27
(dp372
g29
Vbe
p373
sg31
VO
p374
sg33
VVBD
p375
sg35
I3
ssg10
I33
sg36
g4
sg37
(dp376
sg39
(dp377
sg41
I189
sg42
g21
sg43
g21
sg44
I33
sg45
Vwas
p378
sg47
I33
sg48
I192
sbag0
(g23
g2
Ntp379
Rp380
(dp381
g27
(dp382
g29
Vadopt
p383
sg31
VO
p384
sg33
VVBN
p385
sg35
I4
ssg10
I34
sg36
g4
sg37
(dp386
sg39
(dp387
sg41
I193
sg42
g21
sg43
g21
sg44
I34
sg45
Vadopted
p388
sg47
I34
sg48
I200
sbag0
(g23
g2
Ntp389
Rp390
(dp391
g27
(dp392
g29
Vafter
p393
sg31
VO
p394
sg33
VIN
p395
sg35
I5
ssg10
I35
sg36
g4
sg37
(dp396
sg39
(dp397
sg41
I201
sg42
g21
sg43
g21
sg44
I35
sg45
Vafter
p398
sg47
I35
sg48
I206
sbag0
(g23
g2
Ntp399
Rp400
(dp401
g27
(dp402
g29
VPresident
p403
sg31
VO
p404
sg33
VNNP
p405
sg35
I6
ssg10
I36
sg36
g4
sg37
(dp406
sg39
(dp407
sg41
I207
sg42
g21
sg43
g21
sg44
I36
sg45
VPresident
p408
sg47
I36
sg48
I216
sbag0
(g23
g2
Ntp409
Rp410
(dp411
g27
(dp412
g29
VJimmy
p413
sg31
VPERSON
p414
sg33
VNNP
p415
sg35
I7
ssg10
I37
sg36
g4
sg37
(dp416
sg39
(dp417
sg41
I217
sg42
g21
sg43
g21
sg44
I37
sg45
VJimmy
p418
sg47
I37
sg48
I222
sbag0
(g23
g2
Ntp419
Rp420
(dp421
g27
(dp422
g29
VCarter
p423
sg31
VPERSON
p424
sg33
VNNP
p425
sg35
I8
ssg10
I38
sg36
g4
sg37
(dp426
sg39
(dp427
sg41
I223
sg42
g21
sg43
g21
sg44
I38
sg45
VCarter
p428
sg47
I38
sg48
I229
sbag0
(g23
g2
Ntp429
Rp430
(dp431
g27
(dp432
g29
Vpush
p433
sg31
VO
p434
sg33
VVBD
p435
sg35
I9
ssg10
I39
sg36
g4
sg37
(dp436
sg39
(dp437
sg41
I230
sg42
g21
sg43
g21
sg44
I39
sg45
Vpushed
p438
sg47
I39
sg48
I236
sbag0
(g23
g2
Ntp439
Rp440
(dp441
g27
(dp442
g29
Vfor
p443
sg31
VO
p444
sg33
VIN
p445
sg35
I10
ssg10
I40
sg36
g4
sg37
(dp446
sg39
(dp447
sg41
I237
sg42
g21
sg43
g21
sg44
I40
sg45
Vfor
p448
sg47
I40
sg48
I240
sbag0
(g23
g2
Ntp449
Rp450
(dp451
g27
(dp452
g29
Vlegislation
p453
sg31
VO
p454
sg33
VNN
p455
sg35
I11
ssg10
I41
sg36
g4
sg37
(dp456
sg39
(dp457
sg41
I241
sg42
g21
sg43
g21
sg44
I41
sg45
Vlegislation
p458
sg47
I41
sg48
I252
sbag0
(g23
g2
Ntp459
Rp460
(dp461
g27
(dp462
g29
Vto
p463
sg31
VO
p464
sg33
VTO
p465
sg35
I12
ssg10
I42
sg36
g4
sg37
(dp466
sg39
(dp467
sg41
I253
sg42
g21
sg43
g21
sg44
I42
sg45
Vto
p468
sg47
I42
sg48
I255
sbag0
(g23
g2
Ntp469
Rp470
(dp471
g27
(dp472
g29
Vregularize
p473
sg31
VO
p474
sg33
VVB
p475
sg35
I13
ssg10
I43
sg36
g4
sg37
(dp476
sg39
(dp477
sg41
I256
sg42
g21
sg43
g21
sg44
I43
sg45
Vregularize
p478
sg47
I43
sg48
I266
sbag0
(g23
g2
Ntp479
Rp480
(dp481
g27
(dp482
g29
Vfederal
p483
sg31
VO
p484
sg33
VJJ
p485
sg35
I14
ssg10
I44
sg36
g4
sg37
(dp486
sg39
(dp487
sg41
I267
sg42
g21
sg43
g21
sg44
I44
sg45
Vfederal
p488
sg47
I44
sg48
I274
sbag0
(g23
g2
Ntp489
Rp490
(dp491
g27
(dp492
g29
Vlabor
p493
sg31
VO
p494
sg33
VNN
p495
sg35
I15
ssg10
I45
sg36
g4
sg37
(dp496
sg39
(dp497
sg41
I275
sg42
g21
sg43
g21
sg44
I45
sg45
Vlabor
p498
sg47
I45
sg48
I280
sbag0
(g23
g2
Ntp499
Rp500
(dp501
g27
(dp502
g29
Vrelation
p503
sg31
VO
p504
sg33
VNNS
p505
sg35
I16
ssg10
I46
sg36
g4
sg37
(dp506
sg39
(dp507
sg41
I281
sg42
g21
sg43
g21
sg44
I46
sg45
Vrelations
p508
sg47
I46
sg48
I290
sbag0
(g23
g2
Ntp509
Rp510
(dp511
g27
(dp512
g29
V.
p513
sg31
VO
p514
sg33
V.
p515
sg35
I17
ssg10
I47
sg36
g4
sg37
(dp516
sg39
(dp517
sg41
I290
sg42
g21
sg43
g21
sg44
I47
sg45
V.
p518
sg47
I47
sg48
I291
sbag0
(g23
g2
Ntp519
Rp520
(dp521
g27
(dp522
g29
Vin
p523
sg31
VO
p524
sg33
VIN
p525
sg35
I1
ssg10
I48
sg36
g4
sg37
(dp526
sg39
(dp527
sg41
I294
sg42
g21
sg43
g21
sg44
I48
sg45
VIn
p528
sg47
I48
sg48
I296
sbag0
(g23
g2
Ntp529
Rp530
(dp531
g27
(dp532
g29
Vpass
p533
sg31
VO
p534
sg33
VVBG
p535
sg35
I2
ssg10
I49
sg36
g4
sg37
(dp536
sg39
(dp537
sg41
I297
sg42
g21
sg43
g21
sg44
I49
sg45
Vpassing
p538
sg47
I49
sg48
I304
sbag0
(g23
g2
Ntp539
Rp540
(dp541
g27
(dp542
g29
Vthe
p543
sg31
VO
p544
sg33
VDT
p545
sg35
I3
ssg10
I50
sg36
g4
sg37
(dp546
sg39
(dp547
sg41
I305
sg42
g21
sg43
g21
sg44
I50
sg45
Vthe
p548
sg47
I50
sg48
I308
sbag0
(g23
g2
Ntp549
Rp550
(dp551
g27
(dp552
g29
Vact
p553
sg31
VO
p554
sg33
VNN
p555
sg35
I4
ssg10
I51
sg36
g4
sg37
(dp556
sg39
(dp557
sg41
I309
sg42
g21
sg43
g21
sg44
I51
sg45
Vact
p558
sg47
I51
sg48
I312
sbag0
(g23
g2
Ntp559
Rp560
(dp561
g27
(dp562
g29
V,
p563
sg31
VO
p564
sg33
V,
p565
sg35
I5
ssg10
I52
sg36
g4
sg37
(dp566
sg39
(dp567
sg41
I312
sg42
g21
sg43
g21
sg44
I52
sg45
V,
p568
sg47
I52
sg48
I313
sbag0
(g23
g2
Ntp569
Rp570
(dp571
g27
(dp572
g29
VCongress
p573
sg31
VORGANIZATION
p574
sg33
VNNP
p575
sg35
I6
ssg10
I53
sg36
g4
sg37
(dp576
sg39
(dp577
sg41
I314
sg42
g21
sg43
g21
sg44
I53
sg45
VCongress
p578
sg47
I53
sg48
I322
sbag0
(g23
g2
Ntp579
Rp580
(dp581
g27
(dp582
g29
Vdeclare
p583
sg31
VO
p584
sg33
VVBD
p585
sg35
I7
ssg10
I54
sg36
g4
sg37
(dp586
sg39
(dp587
sg41
I323
sg42
g21
sg43
g21
sg44
I54
sg45
Vdeclared
p588
sg47
I54
sg48
I331
sbag0
(g23
g2
Ntp589
Rp590
(dp591
g27
(dp592
g29
Vthat
p593
sg31
VO
p594
sg33
VIN
p595
sg35
I8
ssg10
I55
sg36
g4
sg37
(dp596
sg39
(dp597
sg41
I332
sg42
g21
sg43
g21
sg44
I55
sg45
Vthat
p598
sg47
I55
sg48
I336
sbag0
(g23
g2
Ntp599
Rp600
(dp601
g27
(dp602
g29
Vit
p603
sg31
VO
p604
sg33
VPRP
p605
sg35
I9
ssg10
I56
sg36
g4
sg37
(dp606
sg39
(dp607
sg41
I337
sg42
g21
sg43
g21
sg44
I56
sg45
Vit
p608
sg47
I56
sg48
I339
sbag0
(g23
g2
Ntp609
Rp610
(dp611
g27
(dp612
g29
Vwish
p613
sg31
VO
p614
sg33
VVBD
p615
sg35
I10
ssg10
I57
sg36
g4
sg37
(dp616
sg39
(dp617
sg41
I340
sg42
g21
sg43
g21
sg44
I57
sg45
Vwished
p618
sg47
I57
sg48
I346
sbag0
(g23
g2
Ntp619
Rp620
(dp621
g27
(dp622
g29
Vto
p623
sg31
VO
p624
sg33
VTO
p625
sg35
I11
ssg10
I58
sg36
g4
sg37
(dp626
sg39
(dp627
sg41
I347
sg42
g21
sg43
g21
sg44
I58
sg45
Vto
p628
sg47
I58
sg48
I349
sbag0
(g23
g2
Ntp629
Rp630
(dp631
g27
(dp632
g29
Vencourage
p633
sg31
VO
p634
sg33
VVB
p635
sg35
I12
ssg10
I59
sg36
g4
sg37
(dp636
sg39
(dp637
sg41
I350
sg42
g21
sg43
g21
sg44
I59
sg45
Vencourage
p638
sg47
I59
sg48
I359
sbag0
(g23
g2
Ntp639
Rp640
(dp641
g27
(dp642
g29
Vcollective
p643
sg31
VO
p644
sg33
VJJ
p645
sg35
I13
ssg10
I60
sg36
g4
sg37
(dp646
sg39
(dp647
sg41
I360
sg42
g21
sg43
g21
sg44
I60
sg45
Vcollective
p648
sg47
I60
sg48
I370
sbag0
(g23
g2
Ntp649
Rp650
(dp651
g27
(dp652
g29
Vbargaining
p653
sg31
VO
p654
sg33
VNN
p655
sg35
I14
ssg10
I61
sg36
g4
sg37
(dp656
sg39
(dp657
sg41
I371
sg42
g21
sg43
g21
sg44
I61
sg45
Vbargaining
p658
sg47
I61
sg48
I381
sbag0
(g23
g2
Ntp659
Rp660
(dp661
g27
(dp662
g29
Vbetween
p663
sg31
VO
p664
sg33
VIN
p665
sg35
I15
ssg10
I62
sg36
g4
sg37
(dp666
sg39
(dp667
sg41
I382
sg42
g21
sg43
g21
sg44
I62
sg45
Vbetween
p668
sg47
I62
sg48
I389
sbag0
(g23
g2
Ntp669
Rp670
(dp671
g27
(dp672
g29
Vfederal
p673
sg31
VO
p674
sg33
VJJ
p675
sg35
I16
ssg10
I63
sg36
g4
sg37
(dp676
sg39
(dp677
sg41
I390
sg42
g21
sg43
g21
sg44
I63
sg45
Vfederal
p678
sg47
I63
sg48
I397
sbag0
(g23
g2
Ntp679
Rp680
(dp681
g27
(dp682
g29
Vemployee
p683
sg31
VO
p684
sg33
VNNS
p685
sg35
I17
ssg10
I64
sg36
g4
sg37
(dp686
sg39
(dp687
sg41
I398
sg42
g21
sg43
g21
sg44
I64
sg45
Vemployees
p688
sg47
I64
sg48
I407
sbag0
(g23
g2
Ntp689
Rp690
(dp691
g27
(dp692
g29
Vand
p693
sg31
VO
p694
sg33
VCC
p695
sg35
I18
ssg10
I65
sg36
g4
sg37
(dp696
sg39
(dp697
sg41
I408
sg42
g21
sg43
g21
sg44
I65
sg45
Vand
p698
sg47
I65
sg48
I411
sbag0
(g23
g2
Ntp699
Rp700
(dp701
g27
(dp702
g29
Vthey
p703
sg31
VO
p704
sg33
VPRP$
p705
sg35
I19
ssg10
I66
sg36
g4
sg37
(dp706
sg39
(dp707
sg41
I412
sg42
g21
sg43
g21
sg44
I66
sg45
Vtheir
p708
sg47
I66
sg48
I417
sbag0
(g23
g2
Ntp709
Rp710
(dp711
g27
(dp712
g29
Vemployer
p713
sg31
VO
p714
sg33
VNNS
p715
sg35
I20
ssg10
I67
sg36
g4
sg37
(dp716
sg39
(dp717
sg41
I418
sg42
g21
sg43
g21
sg44
I67
sg45
Vemployers
p718
sg47
I67
sg48
I427
sbag0
(g23
g2
Ntp719
Rp720
(dp721
g27
(dp722
g29
V.
p723
sg31
VO
p724
sg33
V.
p725
sg35
I21
ssg10
I68
sg36
g4
sg37
(dp726
sg39
(dp727
sg41
I427
sg42
g21
sg43
g21
sg44
I68
sg45
V.
p728
sg47
I68
sg48
I428
sbag0
(g23
g2
Ntp729
Rp730
(dp731
g27
(dp732
g29
VCongress
p733
sg31
VORGANIZATION
p734
sg33
VNNP
p735
sg35
I1
ssg10
I69
sg36
g4
sg37
(dp736
sg39
(dp737
sg41
I429
sg42
g21
sg43
g21
sg44
I69
sg45
VCongress
p738
sg47
I69
sg48
I437
sbag0
(g23
g2
Ntp739
Rp740
(dp741
g27
(dp742
g29
Vdeclare
p743
sg31
VO
p744
sg33
VVBD
p745
sg35
I2
ssg10
I70
sg36
g4
sg37
(dp746
sg39
(dp747
sg41
I438
sg42
g21
sg43
g21
sg44
I70
sg45
Vdeclared
p748
sg47
I70
sg48
I446
sbag0
(g23
g2
Ntp749
Rp750
(dp751
g27
(dp752
g29
Vthat
p753
sg31
VO
p754
sg33
VIN
p755
sg35
I3
ssg10
I71
sg36
g4
sg37
(dp756
sg39
(dp757
sg41
I447
sg42
g21
sg43
g21
sg44
I71
sg45
Vthat
p758
sg47
I71
sg48
I451
sbag0
(g23
g2
Ntp759
Rp760
(dp761
g27
(dp762
g29
Vcollective
p763
sg31
VO
p764
sg33
VJJ
p765
sg35
I4
ssg10
I72
sg36
g4
sg37
(dp766
sg39
(dp767
sg41
I452
sg42
g21
sg43
g21
sg44
I72
sg45
Vcollective
p768
sg47
I72
sg48
I462
sbag0
(g23
g2
Ntp769
Rp770
(dp771
g27
(dp772
g29
Vbargaining
p773
sg31
VO
p774
sg33
VNN
p775
sg35
I5
ssg10
I73
sg36
g4
sg37
(dp776
sg39
(dp777
sg41
I463
sg42
g21
sg43
g21
sg44
I73
sg45
Vbargaining
p778
sg47
I73
sg48
I473
sbag0
(g23
g2
Ntp779
Rp780
(dp781
g27
(dp782
g29
Vbe
p783
sg31
VO
p784
sg33
VVBZ
p785
sg35
I6
ssg10
I74
sg36
g4
sg37
(dp786
sg39
(dp787
sg41
I474
sg42
g21
sg43
g21
sg44
I74
sg45
Vis
p788
sg47
I74
sg48
I476
sbag0
(g23
g2
Ntp789
Rp790
(dp791
g27
(dp792
g29
V``
p793
sg31
VO
p794
sg33
V``
p795
sg35
I7
ssg10
I75
sg36
g4
sg37
(dp796
sg39
(dp797
sg41
I477
sg42
g21
sg43
g21
sg44
I75
sg45
V"
p798
sg47
I75
sg48
I478
sbag0
(g23
g2
Ntp799
Rp800
(dp801
g27
(dp802
g29
Vin
p803
sg31
VO
p804
sg33
VIN
p805
sg35
I8
ssg10
I76
sg36
g4
sg37
(dp806
sg39
(dp807
sg41
I478
sg42
g21
sg43
g21
sg44
I76
sg45
Vin
p808
sg47
I76
sg48
I480
sbag0
(g23
g2
Ntp809
Rp810
(dp811
g27
(dp812
g29
Vthe
p813
sg31
VO
p814
sg33
VDT
p815
sg35
I9
ssg10
I77
sg36
g4
sg37
(dp816
sg39
(dp817
sg41
I481
sg42
g21
sg43
g21
sg44
I77
sg45
Vthe
p818
sg47
I77
sg48
I484
sbag0
(g23
g2
Ntp819
Rp820
(dp821
g27
(dp822
g29
Vpublic
p823
sg31
VO
p824
sg33
VJJ
p825
sg35
I10
ssg10
I78
sg36
g4
sg37
(dp826
sg39
(dp827
sg41
I485
sg42
g21
sg43
g21
sg44
I78
sg45
Vpublic
p828
sg47
I78
sg48
I491
sbag0
(g23
g2
Ntp829
Rp830
(dp831
g27
(dp832
g29
Vinterest
p833
sg31
VO
p834
sg33
VNN
p835
sg35
I11
ssg10
I79
sg36
g4
sg37
(dp836
sg39
(dp837
sg41
I492
sg42
g21
sg43
g21
sg44
I79
sg45
Vinterest
p838
sg47
I79
sg48
I500
sbag0
(g23
g2
Ntp839
Rp840
(dp841
g27
(dp842
g29
V''
p843
sg31
VO
p844
sg33
V''
p845
sg35
I12
ssg10
I80
sg36
g4
sg37
(dp846
sg39
(dp847
sg41
I500
sg42
g21
sg43
g21
sg44
I80
sg45
g798
sg47
I80
sg48
I501
sbag0
(g23
g2
Ntp848
Rp849
(dp850
g27
(dp851
g29
Vbecause
p852
sg31
VO
p853
sg33
VIN
p854
sg35
I13
ssg10
I81
sg36
g4
sg37
(dp855
sg39
(dp856
sg41
I502
sg42
g21
sg43
g21
sg44
I81
sg45
Vbecause
p857
sg47
I81
sg48
I509
sbag0
(g23
g2
Ntp858
Rp859
(dp860
g27
(dp861
g29
V,
p862
sg31
VO
p863
sg33
V,
p864
sg35
I14
ssg10
I82
sg36
g4
sg37
(dp865
sg39
(dp866
sg41
I509
sg42
g21
sg43
g21
sg44
I82
sg45
V,
p867
sg47
I82
sg48
I510
sbag0
(g23
g2
Ntp868
Rp869
(dp870
g27
(dp871
g29
Vamong
p872
sg31
VO
p873
sg33
VIN
p874
sg35
I15
ssg10
I83
sg36
g4
sg37
(dp875
sg39
(dp876
sg41
I511
sg42
g21
sg43
g21
sg44
I83
sg45
Vamong
p877
sg47
I83
sg48
I516
sbag0
(g23
g2
Ntp878
Rp879
(dp880
g27
(dp881
g29
Vother
p882
sg31
VO
p883
sg33
VJJ
p884
sg35
I16
ssg10
I84
sg36
g4
sg37
(dp885
sg39
(dp886
sg41
I517
sg42
g21
sg43
g21
sg44
I84
sg45
Vother
p887
sg47
I84
sg48
I522
sbag0
(g23
g2
Ntp888
Rp889
(dp890
g27
(dp891
g29
Vthing
p892
sg31
VO
p893
sg33
VNNS
p894
sg35
I17
ssg10
I85
sg36
g4
sg37
(dp895
sg39
(dp896
sg41
I523
sg42
g21
sg43
g21
sg44
I85
sg45
Vthings
p897
sg47
I85
sg48
I529
sbag0
(g23
g2
Ntp898
Rp899
(dp900
g27
(dp901
g29
V,
p902
sg31
VO
p903
sg33
V,
p904
sg35
I18
ssg10
I86
sg36
g4
sg37
(dp905
sg39
(dp906
sg41
I529
sg42
g21
sg43
g21
sg44
I86
sg45
V,
p907
sg47
I86
sg48
I530
sbag0
(g23
g2
Ntp908
Rp909
(dp910
g27
(dp911
g29
Vit
p912
sg31
VO
p913
sg33
VPRP
p914
sg35
I19
ssg10
I87
sg36
g4
sg37
(dp915
sg39
(dp916
sg41
I531
sg42
g21
sg43
g21
sg44
I87
sg45
Vit
p917
sg47
I87
sg48
I533
sbag0
(g23
g2
Ntp918
Rp919
(dp920
g27
(dp921
g29
V``
p922
sg31
VO
p923
sg33
V``
p924
sg35
I20
ssg10
I88
sg36
g4
sg37
(dp925
sg39
(dp926
sg41
I534
sg42
g21
sg43
g21
sg44
I88
sg45
g798
sg47
I88
sg48
I535
sbag0
(g23
g2
Ntp927
Rp928
(dp929
g27
(dp930
g29
Vcontribute
p931
sg31
VO
p932
sg33
VVBZ
p933
sg35
I21
ssg10
I89
sg36
g4
sg37
(dp934
sg39
(dp935
sg41
I535
sg42
g21
sg43
g21
sg44
I89
sg45
Vcontributes
p936
sg47
I89
sg48
I546
sbag0
(g23
g2
Ntp937
Rp938
(dp939
g27
(dp940
g29
Vto
p941
sg31
VO
p942
sg33
VTO
p943
sg35
I22
ssg10
I90
sg36
g4
sg37
(dp944
sg39
(dp945
sg41
I547
sg42
g21
sg43
g21
sg44
I90
sg45
Vto
p946
sg47
I90
sg48
I549
sbag0
(g23
g2
Ntp947
Rp948
(dp949
g27
(dp950
g29
Vthe
p951
sg31
VO
p952
sg33
VDT
p953
sg35
I23
ssg10
I91
sg36
g4
sg37
(dp954
sg39
(dp955
sg41
I550
sg42
g21
sg43
g21
sg44
I91
sg45
Vthe
p956
sg47
I91
sg48
I553
sbag0
(g23
g2
Ntp957
Rp958
(dp959
g27
(dp960
g29
Veffective
p961
sg31
VO
p962
sg33
VJJ
p963
sg35
I24
ssg10
I92
sg36
g4
sg37
(dp964
sg39
(dp965
sg41
I554
sg42
g21
sg43
g21
sg44
I92
sg45
Veffective
p966
sg47
I92
sg48
I563
sbag0
(g23
g2
Ntp967
Rp968
(dp969
g27
(dp970
g29
Vconduct
p971
sg31
VO
p972
sg33
VNN
p973
sg35
I25
ssg10
I93
sg36
g4
sg37
(dp974
sg39
(dp975
sg41
I564
sg42
g21
sg43
g21
sg44
I93
sg45
Vconduct
p976
sg47
I93
sg48
I571
sbag0
(g23
g2
Ntp977
Rp978
(dp979
g27
(dp980
g29
Vof
p981
sg31
VO
p982
sg33
VIN
p983
sg35
I26
ssg10
I94
sg36
g4
sg37
(dp984
sg39
(dp985
sg41
I572
sg42
g21
sg43
g21
sg44
I94
sg45
Vof
p986
sg47
I94
sg48
I574
sbag0
(g23
g2
Ntp987
Rp988
(dp989
g27
(dp990
g29
Vpublic
p991
sg31
VO
p992
sg33
VJJ
p993
sg35
I27
ssg10
I95
sg36
g4
sg37
(dp994
sg39
(dp995
sg41
I575
sg42
g21
sg43
g21
sg44
I95
sg45
Vpublic
p996
sg47
I95
sg48
I581
sbag0
(g23
g2
Ntp997
Rp998
(dp999
g27
(dp1000
g29
Vbusiness
p1001
sg31
VO
p1002
sg33
VNN
p1003
sg35
I28
ssg10
I96
sg36
g4
sg37
(dp1004
sg39
(dp1005
sg41
I582
sg42
g21
sg43
g21
sg44
I96
sg45
Vbusiness
p1006
sg47
I96
sg48
I590
sbag0
(g23
g2
Ntp1007
Rp1008
(dp1009
g27
(dp1010
g29
V''
p1011
sg31
VO
p1012
sg33
V''
p1013
sg35
I29
ssg10
I97
sg36
g4
sg37
(dp1014
sg39
(dp1015
sg41
I590
sg42
g21
sg43
g21
sg44
I97
sg45
g798
sg47
I97
sg48
I591
sbag0
(g23
g2
Ntp1016
Rp1017
(dp1018
g27
(dp1019
g29
Vand
p1020
sg31
VO
p1021
sg33
VCC
p1022
sg35
I30
ssg10
I98
sg36
g4
sg37
(dp1023
sg39
(dp1024
sg41
I592
sg42
g21
sg43
g21
sg44
I98
sg45
Vand
p1025
sg47
I98
sg48
I595
sbag0
(g23
g2
Ntp1026
Rp1027
(dp1028
g27
(dp1029
g29
V``
p1030
sg31
VO
p1031
sg33
V``
p1032
sg35
I31
ssg10
I99
sg36
g4
sg37
(dp1033
sg39
(dp1034
sg41
I596
sg42
g21
sg43
g21
sg44
I99
sg45
g798
sg47
I99
sg48
I597
sbag0
(g23
g2
Ntp1035
Rp1036
(dp1037
g27
(dp1038
g29
Vfacilitate
p1039
sg31
VO
p1040
sg33
VVBZ
p1041
sg35
I32
ssg10
I100
sg36
g4
sg37
(dp1042
sg39
(dp1043
sg41
I597
sg42
g21
sg43
g21
sg44
I100
sg45
Vfacilitates
p1044
sg47
I100
sg48
I608
sbag0
(g23
g2
Ntp1045
Rp1046
(dp1047
g27
(dp1048
g29
Vand
p1049
sg31
VO
p1050
sg33
VCC
p1051
sg35
I33
ssg10
I101
sg36
g4
sg37
(dp1052
sg39
(dp1053
sg41
I609
sg42
g21
sg43
g21
sg44
I101
sg45
Vand
p1054
sg47
I101
sg48
I612
sbag0
(g23
g2
Ntp1055
Rp1056
(dp1057
g27
(dp1058
g29
Vencourage
p1059
sg31
VO
p1060
sg33
VVBZ
p1061
sg35
I34
ssg10
I102
sg36
g4
sg37
(dp1062
sg39
(dp1063
sg41
I613
sg42
g21
sg43
g21
sg44
I102
sg45
Vencourages
p1064
sg47
I102
sg48
I623
sbag0
(g23
g2
Ntp1065
Rp1066
(dp1067
g27
(dp1068
g29
Vthe
p1069
sg31
VO
p1070
sg33
VDT
p1071
sg35
I35
ssg10
I103
sg36
g4
sg37
(dp1072
sg39
(dp1073
sg41
I624
sg42
g21
sg43
g21
sg44
I103
sg45
Vthe
p1074
sg47
I103
sg48
I627
sbag0
(g23
g2
Ntp1075
Rp1076
(dp1077
g27
(dp1078
g29
Vamicable
p1079
sg31
VO
p1080
sg33
VJJ
p1081
sg35
I36
ssg10
I104
sg36
g4
sg37
(dp1082
sg39
(dp1083
sg41
I628
sg42
g21
sg43
g21
sg44
I104
sg45
Vamicable
p1084
sg47
I104
sg48
I636
sbag0
(g23
g2
Ntp1085
Rp1086
(dp1087
g27
(dp1088
g29
Vsettlement
p1089
sg31
VO
p1090
sg33
VNNS
p1091
sg35
I37
ssg10
I105
sg36
g4
sg37
(dp1092
sg39
(dp1093
sg41
I637
sg42
g21
sg43
g21
sg44
I105
sg45
Vsettlements
p1094
sg47
I105
sg48
I648
sbag0
(g23
g2
Ntp1095
Rp1096
(dp1097
g27
(dp1098
g29
Vof
p1099
sg31
VO
p1100
sg33
VIN
p1101
sg35
I38
ssg10
I106
sg36
g4
sg37
(dp1102
sg39
(dp1103
sg41
I649
sg42
g21
sg43
g21
sg44
I106
sg45
Vof
p1104
sg47
I106
sg48
I651
sbag0
(g23
g2
Ntp1105
Rp1106
(dp1107
g27
(dp1108
g29
Vdispute
p1109
sg31
VO
p1110
sg33
VNNS
p1111
sg35
I39
ssg10
I107
sg36
g4
sg37
(dp1112
sg39
(dp1113
sg41
I652
sg42
g21
sg43
g21
sg44
I107
sg45
Vdisputes
p1114
sg47
I107
sg48
I660
sbag0
(g23
g2
Ntp1115
Rp1116
(dp1117
g27
(dp1118
g29
Vbetween
p1119
sg31
VO
p1120
sg33
VIN
p1121
sg35
I40
ssg10
I108
sg36
g4
sg37
(dp1122
sg39
(dp1123
sg41
I661
sg42
g21
sg43
g21
sg44
I108
sg45
Vbetween
p1124
sg47
I108
sg48
I668
sbag0
(g23
g2
Ntp1125
Rp1126
(dp1127
g27
(dp1128
g29
Vemployee
p1129
sg31
VO
p1130
sg33
VNNS
p1131
sg35
I41
ssg10
I109
sg36
g4
sg37
(dp1132
sg39
(dp1133
sg41
I669
sg42
g21
sg43
g21
sg44
I109
sg45
Vemployees
p1134
sg47
I109
sg48
I678
sbag0
(g23
g2
Ntp1135
Rp1136
(dp1137
g27
(dp1138
g29
Vand
p1139
sg31
VO
p1140
sg33
VCC
p1141
sg35
I42
ssg10
I110
sg36
g4
sg37
(dp1142
sg39
(dp1143
sg41
I679
sg42
g21
sg43
g21
sg44
I110
sg45
Vand
p1144
sg47
I110
sg48
I682
sbag0
(g23
g2
Ntp1145
Rp1146
(dp1147
g27
(dp1148
g29
Vthey
p1149
sg31
VO
p1150
sg33
VPRP$
p1151
sg35
I43
ssg10
I111
sg36
g4
sg37
(dp1152
sg39
(dp1153
sg41
I683
sg42
g21
sg43
g21
sg44
I111
sg45
Vtheir
p1154
sg47
I111
sg48
I688
sbag0
(g23
g2
Ntp1155
Rp1156
(dp1157
g27
(dp1158
g29
Vemployer
p1159
sg31
VO
p1160
sg33
VNNS
p1161
sg35
I44
ssg10
I112
sg36
g4
sg37
(dp1162
sg39
(dp1163
sg41
I689
sg42
g21
sg43
g21
sg44
I112
sg45
Vemployers
p1164
sg47
I112
sg48
I698
sbag0
(g23
g2
Ntp1165
Rp1166
(dp1167
g27
(dp1168
g29
Vinvolve
p1169
sg31
VO
p1170
sg33
VVBG
p1171
sg35
I45
ssg10
I113
sg36
g4
sg37
(dp1172
sg39
(dp1173
sg41
I699
sg42
g21
sg43
g21
sg44
I113
sg45
Vinvolving
p1174
sg47
I113
sg48
I708
sbag0
(g23
g2
Ntp1175
Rp1176
(dp1177
g27
(dp1178
g29
Vcondition
p1179
sg31
VO
p1180
sg33
VNNS
p1181
sg35
I46
ssg10
I114
sg36
g4
sg37
(dp1182
sg39
(dp1183
sg41
I709
sg42
g21
sg43
g21
sg44
I114
sg45
Vconditions
p1184
sg47
I114
sg48
I719
sbag0
(g23
g2
Ntp1185
Rp1186
(dp1187
g27
(dp1188
g29
Vof
p1189
sg31
VO
p1190
sg33
VIN
p1191
sg35
I47
ssg10
I115
sg36
g4
sg37
(dp1192
sg39
(dp1193
sg41
I720
sg42
g21
sg43
g21
sg44
I115
sg45
Vof
p1194
sg47
I115
sg48
I722
sbag0
(g23
g2
Ntp1195
Rp1196
(dp1197
g27
(dp1198
g29
Vemployment
p1199
sg31
VO
p1200
sg33
VNN
p1201
sg35
I48
ssg10
I116
sg36
g4
sg37
(dp1202
sg39
(dp1203
sg41
I723
sg42
g21
sg43
g21
sg44
I116
sg45
Vemployment
p1204
sg47
I116
sg48
I733
sbag0
(g23
g2
Ntp1205
Rp1206
(dp1207
g27
(dp1208
g29
V.
p1209
sg31
VO
p1210
sg33
V.
p1211
sg35
I49
ssg10
I117
sg36
g4
sg37
(dp1212
sg39
(dp1213
sg41
I733
sg42
g21
sg43
g21
sg44
I117
sg45
V.
p1214
sg47
I117
sg48
I734
sbag0
(g23
g2
Ntp1215
Rp1216
(dp1217
g27
(dp1218
g29
V''
p1219
sg31
VO
p1220
sg33
V''
p1221
sg35
I50
ssg10
I118
sg36
g4
sg37
(dp1222
sg39
(dp1223
sg41
I734
sg42
g21
sg43
g21
sg44
I118
sg45
g798
sg47
I118
sg48
I735
sbag0
(g23
g2
Ntp1224
Rp1225
(dp1226
g27
(dp1227
g29
V.
p1228
sg31
VO
p1229
sg33
V.
p1230
sg35
I1
ssg10
I119
sg36
g4
sg37
(dp1231
sg39
(dp1232
sg41
I736
sg42
g21
sg43
g21
sg44
I119
sg45
V.
p1233
sg47
I119
sg48
I737
sbag0
(g23
g2
Ntp1234
Rp1235
(dp1236
g27
(dp1237
g29
Vwith
p1238
sg31
VO
p1239
sg33
VIN
p1240
sg35
I1
ssg10
I120
sg36
g4
sg37
(dp1241
sg39
(dp1242
sg41
I740
sg42
g21
sg43
g21
sg44
I120
sg45
VWith
p1243
sg47
I120
sg48
I744
sbag0
(g23
g2
Ntp1244
Rp1245
(dp1246
g27
(dp1247
g29
Vonly
p1248
sg31
VO
p1249
sg33
VRB
p1250
sg35
I2
ssg10
I121
sg36
g4
sg37
(dp1251
sg39
(dp1252
sg41
I745
sg42
g21
sg43
g21
sg44
I121
sg45
Vonly
p1253
sg47
I121
sg48
I749
sbag0
(g23
g2
Ntp1254
Rp1255
(dp1256
g27
(dp1257
g29
Va
p1258
sg31
VO
p1259
sg33
VDT
p1260
sg35
I3
ssg10
I122
sg36
g4
sg37
(dp1261
sg39
(dp1262
sg41
I750
sg42
g21
sg43
g21
sg44
I122
sg45
Va
p1263
sg47
I122
sg48
I751
sbag0
(g23
g2
Ntp1264
Rp1265
(dp1266
g27
(dp1267
g29
Vfew
p1268
sg31
VO
p1269
sg33
VJJ
p1270
sg35
I4
ssg10
I123
sg36
g4
sg37
(dp1271
sg39
(dp1272
sg41
I752
sg42
g21
sg43
g21
sg44
I123
sg45
Vfew
p1273
sg47
I123
sg48
I755
sbag0
(g23
g2
Ntp1274
Rp1275
(dp1276
g27
(dp1277
g29
Vexception
p1278
sg31
VO
p1279
sg33
VNNS
p1280
sg35
I5
ssg10
I124
sg36
g4
sg37
(dp1281
sg39
(dp1282
sg41
I756
sg42
g21
sg43
g21
sg44
I124
sg45
Vexceptions
p1283
sg47
I124
sg48
I766
sbag0
(g23
g2
Ntp1284
Rp1285
(dp1286
g27
(dp1287
g29
V,
p1288
sg31
VO
p1289
sg33
V,
p1290
sg35
I6
ssg10
I125
sg36
g4
sg37
(dp1291
sg39
(dp1292
sg41
I766
sg42
g21
sg43
g21
sg44
I125
sg45
V,
p1293
sg47
I125
sg48
I767
sbag0
(g23
g2
Ntp1294
Rp1295
(dp1296
g27
(dp1297
g29
Vit
p1298
sg31
VO
p1299
sg33
VPRP
p1300
sg35
I7
ssg10
I126
sg36
g4
sg37
(dp1301
sg39
(dp1302
sg41
I768
sg42
g21
sg43
g21
sg44
I126
sg45
Vit
p1303
sg47
I126
sg48
I770
sbag0
(g23
g2
Ntp1304
Rp1305
(dp1306
g27
(dp1307
g29
Vbe
p1308
sg31
VO
p1309
sg33
VVBZ
p1310
sg35
I8
ssg10
I127
sg36
g4
sg37
(dp1311
sg39
(dp1312
sg41
I771
sg42
g21
sg43
g21
sg44
I127
sg45
Vis
p1313
sg47
I127
sg48
I773
sbag0
(g23
g2
Ntp1314
Rp1315
(dp1316
g27
(dp1317
g29
Vpattern
p1318
sg31
VO
p1319
sg33
VVBN
p1320
sg35
I9
ssg10
I128
sg36
g4
sg37
(dp1321
sg39
(dp1322
sg41
I774
sg42
g21
sg43
g21
sg44
I128
sg45
Vpatterned
p1323
sg47
I128
sg48
I783
sbag0
(g23
g2
Ntp1324
Rp1325
(dp1326
g27
(dp1327
g29
Von
p1328
sg31
VO
p1329
sg33
VIN
p1330
sg35
I10
ssg10
I129
sg36
g4
sg37
(dp1331
sg39
(dp1332
sg41
I784
sg42
g21
sg43
g21
sg44
I129
sg45
Von
p1333
sg47
I129
sg48
I786
sbag0
(g23
g2
Ntp1334
Rp1335
(dp1336
g27
(dp1337
g29
Vthe
p1338
sg31
VO
p1339
sg33
VDT
p1340
sg35
I11
ssg10
I130
sg36
g4
sg37
(dp1341
sg39
(dp1342
sg41
I787
sg42
g21
sg43
g21
sg44
I130
sg45
Vthe
p1343
sg47
I130
sg48
I790
sbag0
(g23
g2
Ntp1344
Rp1345
(dp1346
g27
(dp1347
g29
VNational
p1348
sg31
VMISC
p1349
sg33
VNNP
p1350
sg35
I12
ssg10
I131
sg36
g4
sg37
(dp1351
sg39
(dp1352
sg41
I791
sg42
g21
sg43
g21
sg44
I131
sg45
VNational
p1353
sg47
I131
sg48
I799
sbag0
(g23
g2
Ntp1354
Rp1355
(dp1356
g27
(dp1357
g29
VLabor
p1358
sg31
VMISC
p1359
sg33
VNNP
p1360
sg35
I13
ssg10
I132
sg36
g4
sg37
(dp1361
sg39
(dp1362
sg41
I800
sg42
g21
sg43
g21
sg44
I132
sg45
VLabor
p1363
sg47
I132
sg48
I805
sbag0
(g23
g2
Ntp1364
Rp1365
(dp1366
g27
(dp1367
g29
VRelations
p1368
sg31
VMISC
p1369
sg33
VNNP
p1370
sg35
I14
ssg10
I133
sg36
g4
sg37
(dp1371
sg39
(dp1372
sg41
I806
sg42
g21
sg43
g21
sg44
I133
sg45
VRelations
p1373
sg47
I133
sg48
I815
sbag0
(g23
g2
Ntp1374
Rp1375
(dp1376
g27
(dp1377
g29
VAct
p1378
sg31
VMISC
p1379
sg33
VNNP
p1380
sg35
I15
ssg10
I134
sg36
g4
sg37
(dp1381
sg39
(dp1382
sg41
I816
sg42
g21
sg43
g21
sg44
I134
sg45
VAct
p1383
sg47
I134
sg48
I819
sbag0
(g23
g2
Ntp1384
Rp1385
(dp1386
g27
(dp1387
g29
V.
p1388
sg31
VO
p1389
sg33
V.
p1390
sg35
I16
ssg10
I135
sg36
g4
sg37
(dp1391
sg39
(dp1392
sg41
I819
sg42
g21
sg43
g21
sg44
I135
sg45
V.
p1393
sg47
I135
sg48
I820
sbag0
(g23
g2
Ntp1394
Rp1395
(dp1396
g27
(dp1397
g29
Vthe
p1398
sg31
VO
p1399
sg33
VDT
p1400
sg35
I1
ssg10
I136
sg36
g4
sg37
(dp1401
sg39
(dp1402
sg41
I823
sg42
g21
sg43
g21
sg44
I136
sg45
VThe
p1403
sg47
I136
sg48
I826
sbag0
(g23
g2
Ntp1404
Rp1405
(dp1406
g27
(dp1407
g29
VFLRA
p1408
sg31
VORGANIZATION
p1409
sg33
VNNP
p1410
sg35
I2
ssg10
I137
sg36
g4
sg37
(dp1411
sg39
(dp1412
sg41
I827
sg42
g21
sg43
g21
sg44
I137
sg45
VFLRA
p1413
sg47
I137
sg48
I831
sbag0
(g23
g2
Ntp1414
Rp1415
(dp1416
g27
(dp1417
g29
Vestablish
p1418
sg31
VO
p1419
sg33
VVBZ
p1420
sg35
I3
ssg10
I138
sg36
g4
sg37
(dp1421
sg39
(dp1422
sg41
I832
sg42
g21
sg43
g21
sg44
I138
sg45
Vestablishes
p1423
sg47
I138
sg48
I843
sbag0
(g23
g2
Ntp1424
Rp1425
(dp1426
g27
(dp1427
g29
Va
p1428
sg31
VO
p1429
sg33
VDT
p1430
sg35
I4
ssg10
I139
sg36
g4
sg37
(dp1431
sg39
(dp1432
sg41
I835
sg42
g21
sg43
g21
sg44
I139
sg45
Va
p1433
sg47
I139
sg48
I836
sbag0
(g23
g2
Ntp1434
Rp1435
(dp1436
g27
(dp1437
g29
VFederal
p1438
sg31
VORGANIZATION
p1439
sg33
VNNP
p1440
sg35
I5
ssg10
I140
sg36
g4
sg37
(dp1441
sg39
(dp1442
sg41
I846
sg42
g21
sg43
g21
sg44
I140
sg45
VFederal
p1443
sg47
I140
sg48
I853
sbag0
(g23
g2
Ntp1444
Rp1445
(dp1446
g27
(dp1447
g29
VLabor
p1448
sg31
VORGANIZATION
p1449
sg33
VNNP
p1450
sg35
I6
ssg10
I141
sg36
g4
sg37
(dp1451
sg39
(dp1452
sg41
I854
sg42
g21
sg43
g21
sg44
I141
sg45
VLabor
p1453
sg47
I141
sg48
I859
sbag0
(g23
g2
Ntp1454
Rp1455
(dp1456
g27
(dp1457
g29
VRelations
p1458
sg31
VORGANIZATION
p1459
sg33
VNNP
p1460
sg35
I7
ssg10
I142
sg36
g4
sg37
(dp1461
sg39
(dp1462
sg41
I860
sg42
g21
sg43
g21
sg44
I142
sg45
VRelations
p1463
sg47
I142
sg48
I869
sbag0
(g23
g2
Ntp1464
Rp1465
(dp1466
g27
(dp1467
g29
VAuthority
p1468
sg31
VORGANIZATION
p1469
sg33
VNNP
p1470
sg35
I8
ssg10
I143
sg36
g4
sg37
(dp1471
sg39
(dp1472
sg41
I870
sg42
g21
sg43
g21
sg44
I143
sg45
VAuthority
p1473
sg47
I143
sg48
I879
sbag0
(g23
g2
Ntp1474
Rp1475
(dp1476
g27
(dp1477
g29
Vto
p1478
sg31
VO
p1479
sg33
VTO
p1480
sg35
I9
ssg10
I144
sg36
g4
sg37
(dp1481
sg39
(dp1482
sg41
I880
sg42
g21
sg43
g21
sg44
I144
sg45
Vto
p1483
sg47
I144
sg48
I882
sbag0
(g23
g2
Ntp1484
Rp1485
(dp1486
g27
(dp1487
g29
Voversee
p1488
sg31
VO
p1489
sg33
VVB
p1490
sg35
I10
ssg10
I145
sg36
g4
sg37
(dp1491
sg39
(dp1492
sg41
I883
sg42
g21
sg43
g21
sg44
I145
sg45
Voversee
p1493
sg47
I145
sg48
I890
sbag0
(g23
g2
Ntp1494
Rp1495
(dp1496
g27
(dp1497
g29
Velection
p1498
sg31
VO
p1499
sg33
VNNS
p1500
sg35
I11
ssg10
I146
sg36
g4
sg37
(dp1501
sg39
(dp1502
sg41
I891
sg42
g21
sg43
g21
sg44
I146
sg45
Velections
p1503
sg47
I146
sg48
I900
sbag0
(g23
g2
Ntp1504
Rp1505
(dp1506
g27
(dp1507
g29
Vand
p1508
sg31
VO
p1509
sg33
VCC
p1510
sg35
I12
ssg10
I147
sg36
g4
sg37
(dp1511
sg39
(dp1512
sg41
I901
sg42
g21
sg43
g21
sg44
I147
sg45
Vand
p1513
sg47
I147
sg48
I904
sbag0
(g23
g2
Ntp1514
Rp1515
(dp1516
g27
(dp1517
g29
Vprotect
p1518
sg31
VO
p1519
sg33
VVB
p1520
sg35
I13
ssg10
I148
sg36
g4
sg37
(dp1521
sg39
(dp1522
sg41
I905
sg42
g21
sg43
g21
sg44
I148
sg45
Vprotect
p1523
sg47
I148
sg48
I912
sbag0
(g23
g2
Ntp1524
Rp1525
(dp1526
g27
(dp1527
g29
Vfederal
p1528
sg31
VO
p1529
sg33
VJJ
p1530
sg35
I14
ssg10
I149
sg36
g4
sg37
(dp1531
sg39
(dp1532
sg41
I913
sg42
g21
sg43
g21
sg44
I149
sg45
Vfederal
p1533
sg47
I149
sg48
I920
sbag0
(g23
g2
Ntp1534
Rp1535
(dp1536
g27
(dp1537
g29
Vgovernment
p1538
sg31
VO
p1539
sg33
VNN
p1540
sg35
I15
ssg10
I150
sg36
g4
sg37
(dp1541
sg39
(dp1542
sg41
I921
sg42
g21
sg43
g21
sg44
I150
sg45
Vgovernment
p1543
sg47
I150
sg48
I931
sbag0
(g23
g2
Ntp1544
Rp1545
(dp1546
g27
(dp1547
g29
Vemployee
p1548
sg31
VO
p1549
sg33
VNNS
p1550
sg35
I16
ssg10
I151
sg36
g4
sg37
(dp1551
sg39
(dp1552
sg41
I932
sg42
g21
sg43
g21
sg44
I151
sg45
Vemployees
p1553
sg47
I151
sg48
I941
sbag0
(g23
g2
Ntp1554
Rp1555
(dp1556
g27
(dp1557
g29
V'
p1558
sg31
VO
p1559
sg33
VPOS
p1560
sg35
I17
ssg10
I152
sg36
g4
sg37
(dp1561
sg39
(dp1562
sg41
I941
sg42
g21
sg43
g21
sg44
I152
sg45
V'
p1563
sg47
I152
sg48
I942
sbag0
(g23
g2
Ntp1564
Rp1565
(dp1566
g27
(dp1567
g29
Vorganize
p1568
sg31
VO
p1569
sg33
VVBG
p1570
sg35
I18
ssg10
I153
sg36
g4
sg37
(dp1571
sg39
(dp1572
sg41
I943
sg42
g21
sg43
g21
sg44
I153
sg45
Vorganizing
p1573
sg47
I153
sg48
I953
sbag0
(g23
g2
Ntp1574
Rp1575
(dp1576
g27
(dp1577
g29
Vand
p1578
sg31
VO
p1579
sg33
VCC
p1580
sg35
I19
ssg10
I154
sg36
g4
sg37
(dp1581
sg39
(dp1582
sg41
I954
sg42
g21
sg43
g21
sg44
I154
sg45
Vand
p1583
sg47
I154
sg48
I957
sbag0
(g23
g2
Ntp1584
Rp1585
(dp1586
g27
(dp1587
g29
Vbargaining
p1588
sg31
VO
p1589
sg33
VNN
p1590
sg35
I20
ssg10
I155
sg36
g4
sg37
(dp1591
sg39
(dp1592
sg41
I958
sg42
g21
sg43
g21
sg44
I155
sg45
Vbargaining
p1593
sg47
I155
sg48
I968
sbag0
(g23
g2
Ntp1594
Rp1595
(dp1596
g27
(dp1597
g29
Vrights
p1598
sg31
VO
p1599
sg33
VNNS
p1600
sg35
I21
ssg10
I156
sg36
g4
sg37
(dp1601
sg39
(dp1602
sg41
I969
sg42
g21
sg43
g21
sg44
I156
sg45
Vrights
p1603
sg47
I156
sg48
I975
sbag0
(g23
g2
Ntp1604
Rp1605
(dp1606
g27
(dp1607
g29
V.
p1608
sg31
VO
p1609
sg33
V.
p1610
sg35
I22
ssg10
I157
sg36
g4
sg37
(dp1611
sg39
(dp1612
sg41
I975
sg42
g21
sg43
g21
sg44
I157
sg45
V.
p1613
sg47
I157
sg48
I976
sbasS'Document'
p1614
(lp1615
g4
asS'doc-features'
p1616
g14
sS'Sentence'
p1617
(lp1618
g0
(g23
g2
Ntp1619
Rp1620
(dp1621
g27
(dp1622
S'dep-parse'
p1623
S'not implemented!'
p1624
sg35
I0
sS'constituency-parse'
p1625
V(ROOT\u000a  (S\u000a    (NP\u000a      (NP\u000a        (NP (DT The) (NNP Federal) (NNP Labor) (NNP Relations) (NNP Act))\u000a        (PP (IN of)\u000a          (NP (CD 1978))))\u000a      (PRN (-LRB- -LRB-)\u000a        (NP (NN FLRA))\u000a        (-RRB- -RRB-)))\u000a    (VP (VBZ is)\u000a      (NP\u000a        (NP (DT a) (JJ federal) (NN law))\u000a        (SBAR\u000a          (WHNP (WDT which))\u000a          (S\u000a            (VP (VBZ establishes)\u000a              (NP (JJ collective) (NN bargaining) (NNS rights))\u000a              (PP (IN for)\u000a                (NP\u000a                  (NP (JJS most) (NNS employees))\u000a                  (PP (IN of)\u000a                    (NP\u000a                      (NP (DT the) (JJ federal) (NN government))\u000a                      (PP (IN in)\u000a                        (NP (DT the) (NNP United) (NNPS States))))))))))))\u000a    (. .)))
p1626
ssg10
I0
sg36
g4
sg37
(dp1627
sg39
(dp1628
S'tokens'
p1629
(lp1630
g25
ag50
ag60
ag70
ag80
ag90
ag100
ag110
ag120
ag130
ag140
ag150
ag160
ag170
ag180
ag190
ag200
ag210
ag220
ag230
ag240
ag250
ag260
ag270
ag280
ag290
ag300
ag310
ag320
ag330
ag340
assg41
I0
sg42
g1617
sg43
g1617
sg44
I0
sg45
VThe Federal Labor Relations Act of 1978 (FLRA) is a federal law which establishes collective bargaining rights for most employees of the federal government in the United States.
p1631
sg47
I31
sg48
I177
sbag0
(g23
g2
Ntp1632
Rp1633
(dp1634
g27
(dp1635
g1623
g1624
sg35
I1
sg1625
V(ROOT\u000a  (S\u000a    (NP (DT The) (NNP FLRA))\u000a    (VP (VBD was)\u000a      (VP (VBN adopted)\u000a        (SBAR (IN after)\u000a          (S\u000a            (NP (NNP President) (NNP Jimmy) (NNP Carter))\u000a            (VP (VBD pushed)\u000a              (PP (IN for)\u000a                (NP (NN legislation)))\u000a              (S\u000a                (VP (TO to)\u000a                  (VP (VB regularize)\u000a                    (NP (JJ federal) (NN labor) (NNS relations))))))))))\u000a    (. .)))
p1636
ssg10
I1
sg36
g4
sg37
(dp1637
sg39
(dp1638
g1629
(lp1639
g350
ag360
ag370
ag380
ag390
ag400
ag410
ag420
ag430
ag440
ag450
ag460
ag470
ag480
ag490
ag500
ag510
assg41
I180
sg42
g1617
sg43
g1617
sg44
I31
sg45
V \u000a\u000aThe FLRA was adopted after President Jimmy Carter pushed for legislation to regularize federal labor relations.
p1640
sg47
I48
sg48
I291
sbag0
(g23
g2
Ntp1641
Rp1642
(dp1643
g27
(dp1644
g1623
g1624
sg35
I2
sg1625
V(ROOT\u000a  (S\u000a    (PP (IN In)\u000a      (S\u000a        (VP (VBG passing)\u000a          (NP (DT the) (NN act)))))\u000a    (, ,)\u000a    (NP (NNP Congress))\u000a    (VP (VBD declared)\u000a      (SBAR (IN that)\u000a        (S\u000a          (NP (PRP it))\u000a          (VP (VBD wished)\u000a            (S\u000a              (VP (TO to)\u000a                (VP (VB encourage)\u000a                  (NP\u000a                    (NP (JJ collective) (NN bargaining))\u000a                    (PP (IN between)\u000a                      (NP\u000a                        (NP (JJ federal) (NNS employees))\u000a                        (CC and)\u000a                        (NP (PRP$ their) (NNS employers))))))))))))\u000a    (. .)))
p1645
ssg10
I2
sg36
g4
sg37
(dp1646
sg39
(dp1647
g1629
(lp1648
g520
ag530
ag540
ag550
ag560
ag570
ag580
ag590
ag600
ag610
ag620
ag630
ag640
ag650
ag660
ag670
ag680
ag690
ag700
ag710
ag720
assg41
I294
sg42
g1617
sg43
g1617
sg44
I48
sg45
V \u000a\u000aIn passing the act, Congress declared that it wished to encourage collective bargaining between federal employees and their employers.
p1649
sg47
I69
sg48
I428
sbag0
(g23
g2
Ntp1650
Rp1651
(dp1652
g27
(dp1653
g1623
g1624
sg35
I3
sg1625
V(ROOT\u000a  (S\u000a    (NP (NNP Congress))\u000a    (VP (VBD declared)\u000a      (SBAR (IN that)\u000a        (S\u000a          (NP (JJ collective) (NN bargaining))\u000a          (VP (VBZ is) (`` ``)\u000a            (PP (IN in)\u000a              (NP (DT the) (JJ public) (NN interest)))\u000a            ('' ''))))\u000a      (SBAR (IN because)\u000a        (S (, ,)\u000a          (PP (IN among)\u000a            (NP (JJ other) (NNS things)))\u000a          (, ,)\u000a          (NP (PRP it))\u000a          (VP\u000a            (VP (`` ``) (VBZ contributes)\u000a              (PP (TO to)\u000a                (NP\u000a                  (NP (DT the) (JJ effective) (NN conduct))\u000a                  (PP (IN of)\u000a                    (NP (JJ public) (NN business))))))\u000a            ('' '')\u000a            (CC and)\u000a            (`` ``)\u000a            (VP (VBZ facilitates))\u000a            (CC and)\u000a            (VP (VBZ encourages)\u000a              (NP\u000a                (NP (DT the) (JJ amicable) (NNS settlements))\u000a                (PP (IN of)\u000a                  (NP\u000a                    (NP (NNS disputes))\u000a                    (PP (IN between)\u000a                      (NP\u000a                        (NP (NNS employees))\u000a                        (CC and)\u000a                        (NP (PRP$ their) (NNS employers)))))))\u000a              (S\u000a                (VP (VBG involving)\u000a                  (NP\u000a                    (NP (NNS conditions))\u000a                    (PP (IN of)\u000a                      (NP (NN employment)))))))))))\u000a    (. .) ('' '')))
p1654
ssg10
I3
sg36
g4
sg37
(dp1655
sg39
(dp1656
g1629
(lp1657
g730
ag740
ag750
ag760
ag770
ag780
ag790
ag800
ag810
ag820
ag830
ag840
ag849
ag859
ag869
ag879
ag889
ag899
ag909
ag919
ag928
ag938
ag948
ag958
ag968
ag978
ag988
ag998
ag1008
ag1017
ag1027
ag1036
ag1046
ag1056
ag1066
ag1076
ag1086
ag1096
ag1106
ag1116
ag1126
ag1136
ag1146
ag1156
ag1166
ag1176
ag1186
ag1196
ag1206
ag1216
assg41
I429
sg42
g1617
sg43
g1617
sg44
I69
sg45
V Congress declared that collective bargaining is "in the public interest" because, among other things, it "contributes to the effective conduct of public business" and "facilitates and encourages the amicable settlements of disputes between employees and their employers involving conditions of employment."
p1658
sg47
I119
sg48
I735
sbag0
(g23
g2
Ntp1659
Rp1660
(dp1661
g27
(dp1662
g1623
g1624
sg35
I4
sg1625
V(ROOT\u000a  (NP (. .)))
p1663
ssg10
I4
sg36
g4
sg37
(dp1664
sg39
(dp1665
g1629
(lp1666
g1225
assg41
I736
sg42
g1617
sg43
g1617
sg44
I119
sg45
V .
p1667
sg47
I120
sg48
I737
sbag0
(g23
g2
Ntp1668
Rp1669
(dp1670
g27
(dp1671
g1623
g1624
sg35
I5
sg1625
V(ROOT\u000a  (S\u000a    (PP (IN With)\u000a      (NP\u000a        (QP (RB only) (DT a) (JJ few))\u000a        (NNS exceptions)))\u000a    (, ,)\u000a    (NP (PRP it))\u000a    (VP (VBZ is)\u000a      (VP (VBN patterned)\u000a        (PP (IN on)\u000a          (NP (DT the) (NNP National) (NNP Labor) (NNP Relations) (NNP Act)))))\u000a    (. .)))
p1672
ssg10
I5
sg36
g4
sg37
(dp1673
sg39
(dp1674
g1629
(lp1675
g1235
ag1245
ag1255
ag1265
ag1275
ag1285
ag1295
ag1305
ag1315
ag1325
ag1335
ag1345
ag1355
ag1365
ag1375
ag1385
assg41
I740
sg42
g1617
sg43
g1617
sg44
I120
sg45
V \u000a\u000aWith only a few exceptions, it is patterned on the National Labor Relations Act.
p1676
sg47
I136
sg48
I820
sbag0
(g23
g2
Ntp1677
Rp1678
(dp1679
g27
(dp1680
g1623
g1624
sg35
I6
sg1625
V(ROOT\u000a  (S\u000a    (NP (DT The) (NNP FLRA))\u000a    (VP (VBZ establishes)\u000a      (S\u000a        (NP (DT a) (NNP Federal) (NNP Labor) (NNP Relations) (NNP Authority))\u000a        (VP (TO to)\u000a          (VP\u000a            (VP (VB oversee)\u000a              (NP (NNS elections)))\u000a            (CC and)\u000a            (VP (VB protect)\u000a              (NP\u000a                (NP\u000a                  (NP (JJ federal) (NN government) (NNS employees))\u000a                  (POS ') (VBG organizing))\u000a                (CC and)\u000a                (NP (NN bargaining) (NNS rights))))))))\u000a    (. .)))
p1681
ssg10
I6
sg36
g4
sg37
(dp1682
sg39
(dp1683
g1629
(lp1684
g1395
ag1405
ag1415
ag1425
ag1435
ag1445
ag1455
ag1465
ag1475
ag1485
ag1495
ag1505
ag1515
ag1525
ag1535
ag1545
ag1555
ag1565
ag1575
ag1585
ag1595
ag1605
assg41
I823
sg42
g1617
sg43
g1617
sg44
I136
sg45
V \u000a\u000aThe FLRA establishes a Federal Labor Relations Authority to oversee elections and protect federal government employees' organizing and bargaining rights.
p1685
sg47
I158
sg48
I976
sbassg37
(dp1686
sg39
(dp1687
sg47
I-1
sg1629
g22
sg42
g1614
sg36
Nsg27
(dp1688
sg44
I0
sg45
VThe Federal Labor Relations Act of 1978 (FLRA) is a federal law which establishes collective bargaining rights for most employees of the federal government in the United States. \u000a\u000aThe FLRA was adopted after President Jimmy Carter pushed for legislation to regularize federal labor relations. \u000a\u000aIn passing the act, Congress declared that it wished to encourage collective bargaining between federal employees and their employers. Congress declared that collective bargaining is "in the public interest" because, among other things, it "contributes to the effective conduct of public business" and "facilitates and encourages the amicable settlements of disputes between employees and their employers involving conditions of employment." . \u000a\u000aWith only a few exceptions, it is patterned on the National Labor Relations Act. \u000a\u000aThe FLRA establishes a Federal Labor Relations Authority to oversee elections and protect federal government employees' organizing and bargaining rights.
p1689
sS'sents'
p1690
g1618
sg43
g1614
sg41
I0
sS'id'
p1691
g16
sg48
I976
sS'sentFeatures'
p1692
(lp1693
sb.