ccopy_reg
_reconstructor
p0
(cpygate.doc
Document
p1
c__builtin__
object
p2
Ntp3
Rp4
(dp5
S'src'
p6
VJames Shikwati (born 1970) is a Kenyan libertarian economist and Director of the Inter Region Economic Network who promotes freedom of trade as the driving solution to poverty in Africa. He has made comments which imply that aid towards Africa does more harm than good to their people, based on the central arguments that it is mainly used either by politicians as a tool to manipulate people and influence votes, or as a mechanism for dumping subsidised foreign agricultural products onto local markets at below cost making it nearly impossible for African farmers to compete.\u000a\u000aA graduate from the University of Nairobi (B.ED Arts 1994), attended Musingu High School (1989) and taught Kiptewit High School (1994\u20132001) in Kericho Rift Valley province in Kenya.He is a "self taught" economist.\u000a\u000aJames Shikwati is a writer and a commentator on public policy with a special interest in development, environment, trade and agriculture related issues. He has written widely on a variety of subjects in Kenyan and international newspapers, magazines, such as The Times, The Guardian, The Wall Street Journal, The Washington Post, The Sydney Morning Herald, The Business News, The Daily Nation, The East African Standard and The African Executive. \u000a\u000aMr. Shikwati was also featured in a November 18, 2006 article in the New York Times:[REF] . \u000a\u000aJeffrey D. Sachs, a Columbia University professor who is a leading aid advocate, calls Mr. Shikwati\u2019s criticisms of foreign assistance \u201cshockingly misguided\u201d and \u201camazingly wrong.\u201d \u201cThis happens to be a matter of life and death for millions of people, so getting it wrong has huge consequences,\u201d Mr. Sachs said. \u000a\u000aHe has worked extensively with internationally acclaimed opinion leaders to promote ideas that improve productivity, and increase freedom to trade as a way to alleviate poverty. He facilitates several workshops every year throughout Africa geared towards promoting productivity and trade. He recently argued that development is the ability of individuals to understand the world and creatively respond to challenges that confront humanity in a manner that increases levels of human comfort on earth. \u000a\u000aHe is the founder and Executive Director of the Inter Region Economic Network [IREN], an independent and non-partisan think tank that promotes policies geared towards the creation of a free Africa. He is also the Country Director for Students In Free Enterprise [SIFE Kenya] and Chief Executive Officer (CEO) of an online business magazine The African Executive that is published weekly by IREN.\u000a\u000aOn 6 July 2007, Mr. James Shikwati was named among top 100 most influential Kenyans in a study that was conducted by The Standard Group,[REF] one of the Kenya\u2019s leading media houses, he was described as one person whose decisions and actions are not motivated by the publicity they attract but by passion for what they do. On March 11, 2008, The World Economic Forum named Mr. Shikwati among the 250 Young Global Leaders of 2008.
p7
sS'string'
p8
S'James Shikwati (born 1970) is a Kenyan libertarian economist and Director of the Inter Region Economic Network who promotes freedom of trade as the driving solution to poverty in Africa. He has made comments which imply that aid towards Africa does more harm than good to their people, based on the central arguments that it is mainly used either by politicians as a tool to manipulate people and influence votes, or as a mechanism for dumping subsidised foreign agricultural products onto local markets at below cost making it nearly impossible for African farmers to compete.\n\nA graduate from the University of Nairobi (B.ED Arts 1994), attended Musingu High School (1989) and taught Kiptewit High School (1994\xe2\x80\x932001) in Kericho Rift Valley province in Kenya.He is a "self taught" economist.\n\nJames Shikwati is a writer and a commentator on public policy with a special interest in development, environment, trade and agriculture related issues. He has written widely on a variety of subjects in Kenyan and international newspapers, magazines, such as The Times, The Guardian, The Wall Street Journal, The Washington Post, The Sydney Morning Herald, The Business News, The Daily Nation, The East African Standard and The African Executive. \n\nMr. Shikwati was also featured in a November 18, 2006 article in the New York Times:[REF] . \n\nJeffrey D. Sachs, a Columbia University professor who is a leading aid advocate, calls Mr. Shikwati\xe2\x80\x99s criticisms of foreign assistance \xe2\x80\x9cshockingly misguided\xe2\x80\x9d and \xe2\x80\x9camazingly wrong.\xe2\x80\x9d \xe2\x80\x9cThis happens to be a matter of life and death for millions of people, so getting it wrong has huge consequences,\xe2\x80\x9d Mr. Sachs said. \n\nHe has worked extensively with internationally acclaimed opinion leaders to promote ideas that improve productivity, and increase freedom to trade as a way to alleviate poverty. He facilitates several workshops every year throughout Africa geared towards promoting productivity and trade. He recently argued that development is the ability of individuals to understand the world and creatively respond to challenges that confront humanity in a manner that increases levels of human comfort on earth. \n\nHe is the founder and Executive Director of the Inter Region Economic Network [IREN], an independent and non-partisan think tank that promotes policies geared towards the creation of a free Africa. He is also the Country Director for Students In Free Enterprise [SIFE Kenya] and Chief Executive Officer (CEO) of an online business magazine The African Executive that is published weekly by IREN.\n\nOn 6 July 2007, Mr. James Shikwati was named among top 100 most influential Kenyans in a study that was conducted by The Standard Group,[REF] one of the Kenya\xe2\x80\x99s leading media houses, he was described as one person whose decisions and actions are not motivated by the publicity they attract but by passion for what they do. On March 11, 2008, The World Economic Forum named Mr. Shikwati among the 250 Young Global Leaders of 2008.'
p9
sS'idx'
p10
I0
sS'tknFeatures'
p11
(lp12
sS'docFeatures'
p13
(dp14
S'file_id'
p15
S'James_Shikwati'
p16
ssS'items'
p17
(dp18
S'raw'
p19
VJames Shikwati (born 1970) is a Kenyan libertarian economist and Director of the Inter Region Economic Network who promotes freedom of trade as the driving solution to poverty in Africa. He has made comments which imply that aid towards Africa does more harm than good to their people, based on the central arguments that it is mainly used either by politicians as a tool to manipulate people and influence votes, or as a mechanism for dumping subsidised foreign agricultural products onto local markets at below cost making it nearly impossible for African farmers to compete.\u000a\u000aA graduate from the University of Nairobi (B.ED Arts 1994), attended Musingu High School (1989) and taught Kiptewit High School (1994\u20132001) in Kericho Rift Valley province in Kenya.He is a "self taught" economist.\u000a\u000aJames Shikwati is a writer and a commentator on public policy with a special interest in development, environment, trade and agriculture related issues. He has written widely on a variety of subjects in Kenyan and international newspapers, magazines, such as The Times, The Guardian, The Wall Street Journal, The Washington Post, The Sydney Morning Herald, The Business News, The Daily Nation, The East African Standard and The African Executive. \u000a\u000aMr. Shikwati was also featured in a November 18, 2006 article in the New York Times:[REF] . \u000a\u000aJeffrey D. Sachs, a Columbia University professor who is a leading aid advocate, calls Mr. Shikwati\u2019s criticisms of foreign assistance \u201cshockingly misguided\u201d and \u201camazingly wrong.\u201d \u201cThis happens to be a matter of life and death for millions of people, so getting it wrong has huge consequences,\u201d Mr. Sachs said. \u000a\u000aHe has worked extensively with internationally acclaimed opinion leaders to promote ideas that improve productivity, and increase freedom to trade as a way to alleviate poverty. He facilitates several workshops every year throughout Africa geared towards promoting productivity and trade. He recently argued that development is the ability of individuals to understand the world and creatively respond to challenges that confront humanity in a manner that increases levels of human comfort on earth. \u000a\u000aHe is the founder and Executive Director of the Inter Region Economic Network [IREN], an independent and non-partisan think tank that promotes policies geared towards the creation of a free Africa. He is also the Country Director for Students In Free Enterprise [SIFE Kenya] and Chief Executive Officer (CEO) of an online business magazine The African Executive that is published weekly by IREN.\u000a\u000aOn 6 July 2007, Mr. James Shikwati was named among top 100 most influential Kenyans in a study that was conducted by The Standard Group,[REF] one of the Kenya\u2019s leading media houses, he was described as one person whose decisions and actions are not motivated by the publicity they attract but by passion for what they do. On March 11, 2008, The World Economic Forum named Mr. Shikwati among the 250 Young Global Leaders of 2008.
p20
sS'Token'
p21
(lp22
g0
(cpygate.annotation
Annotation
p23
g2
Ntp24
Rp25
(dp26
S'features'
p27
(dp28
S'lemma'
p29
VJames
p30
sS'ner'
p31
VPERSON
p32
sS'pos'
p33
VNNP
p34
sS'index'
p35
I1
ssg10
I0
sS'doc'
p36
g4
sS'labels'
p37
(dp38
sS'relations'
p39
(dp40
sS'cStart'
p41
I0
sS'subType'
p42
g21
sS'annoType'
p43
g21
sS'tStart'
p44
I0
sS'text'
p45
VJames
p46
sS'tEnd'
p47
I0
sS'cEnd'
p48
I5
sbag0
(g23
g2
Ntp49
Rp50
(dp51
g27
(dp52
g29
VShikwati
p53
sg31
VPERSON
p54
sg33
VNNP
p55
sg35
I2
ssg10
I1
sg36
g4
sg37
(dp56
sg39
(dp57
sg41
I6
sg42
g21
sg43
g21
sg44
I1
sg45
VShikwati
p58
sg47
I1
sg48
I14
sbag0
(g23
g2
Ntp59
Rp60
(dp61
g27
(dp62
g29
V-lrb-
p63
sg31
VO
p64
sg33
V-LRB-
p65
sg35
I3
ssg10
I2
sg36
g4
sg37
(dp66
sg39
(dp67
sg41
I15
sg42
g21
sg43
g21
sg44
I2
sg45
V(
p68
sg47
I2
sg48
I16
sbag0
(g23
g2
Ntp69
Rp70
(dp71
g27
(dp72
g29
Vbear
p73
sg31
VO
p74
sg33
VVBN
p75
sg35
I4
ssg10
I3
sg36
g4
sg37
(dp76
sg39
(dp77
sg41
I16
sg42
g21
sg43
g21
sg44
I3
sg45
Vborn
p78
sg47
I3
sg48
I20
sbag0
(g23
g2
Ntp79
Rp80
(dp81
g27
(dp82
g29
V1970
p83
sg31
VDATE
p84
sg33
VCD
p85
sg35
I5
ssg10
I4
sg36
g4
sg37
(dp86
sg39
(dp87
sg41
I21
sg42
g21
sg43
g21
sg44
I4
sg45
V1970
p88
sg47
I4
sg48
I25
sbag0
(g23
g2
Ntp89
Rp90
(dp91
g27
(dp92
g29
V-rrb-
p93
sg31
VO
p94
sg33
V-RRB-
p95
sg35
I6
ssg10
I5
sg36
g4
sg37
(dp96
sg39
(dp97
sg41
I25
sg42
g21
sg43
g21
sg44
I5
sg45
V)
p98
sg47
I5
sg48
I26
sbag0
(g23
g2
Ntp99
Rp100
(dp101
g27
(dp102
g29
Vbe
p103
sg31
VO
p104
sg33
VVBZ
p105
sg35
I7
ssg10
I6
sg36
g4
sg37
(dp106
sg39
(dp107
sg41
I27
sg42
g21
sg43
g21
sg44
I6
sg45
Vis
p108
sg47
I6
sg48
I29
sbag0
(g23
g2
Ntp109
Rp110
(dp111
g27
(dp112
g29
Va
p113
sg31
VO
p114
sg33
VDT
p115
sg35
I8
ssg10
I7
sg36
g4
sg37
(dp116
sg39
(dp117
sg41
I30
sg42
g21
sg43
g21
sg44
I7
sg45
Va
p118
sg47
I7
sg48
I31
sbag0
(g23
g2
Ntp119
Rp120
(dp121
g27
(dp122
g29
Vkenyan
p123
sg31
VMISC
p124
sg33
VJJ
p125
sg35
I9
ssg10
I8
sg36
g4
sg37
(dp126
sg39
(dp127
sg41
I32
sg42
g21
sg43
g21
sg44
I8
sg45
VKenyan
p128
sg47
I8
sg48
I38
sbag0
(g23
g2
Ntp129
Rp130
(dp131
g27
(dp132
g29
Vlibertarian
p133
sg31
VO
p134
sg33
VJJ
p135
sg35
I10
ssg10
I9
sg36
g4
sg37
(dp136
sg39
(dp137
sg41
I39
sg42
g21
sg43
g21
sg44
I9
sg45
Vlibertarian
p138
sg47
I9
sg48
I50
sbag0
(g23
g2
Ntp139
Rp140
(dp141
g27
(dp142
g29
Veconomist
p143
sg31
VO
p144
sg33
VNN
p145
sg35
I11
ssg10
I10
sg36
g4
sg37
(dp146
sg39
(dp147
sg41
I51
sg42
g21
sg43
g21
sg44
I10
sg45
Veconomist
p148
sg47
I10
sg48
I60
sbag0
(g23
g2
Ntp149
Rp150
(dp151
g27
(dp152
g29
Vand
p153
sg31
VO
p154
sg33
VCC
p155
sg35
I12
ssg10
I11
sg36
g4
sg37
(dp156
sg39
(dp157
sg41
I61
sg42
g21
sg43
g21
sg44
I11
sg45
Vand
p158
sg47
I11
sg48
I64
sbag0
(g23
g2
Ntp159
Rp160
(dp161
g27
(dp162
g29
Vdirector
p163
sg31
VO
p164
sg33
VNN
p165
sg35
I13
ssg10
I12
sg36
g4
sg37
(dp166
sg39
(dp167
sg41
I65
sg42
g21
sg43
g21
sg44
I12
sg45
VDirector
p168
sg47
I12
sg48
I73
sbag0
(g23
g2
Ntp169
Rp170
(dp171
g27
(dp172
g29
Vof
p173
sg31
VO
p174
sg33
VIN
p175
sg35
I14
ssg10
I13
sg36
g4
sg37
(dp176
sg39
(dp177
sg41
I74
sg42
g21
sg43
g21
sg44
I13
sg45
Vof
p178
sg47
I13
sg48
I76
sbag0
(g23
g2
Ntp179
Rp180
(dp181
g27
(dp182
g29
Vthe
p183
sg31
VO
p184
sg33
VDT
p185
sg35
I15
ssg10
I14
sg36
g4
sg37
(dp186
sg39
(dp187
sg41
I77
sg42
g21
sg43
g21
sg44
I14
sg45
Vthe
p188
sg47
I14
sg48
I80
sbag0
(g23
g2
Ntp189
Rp190
(dp191
g27
(dp192
g29
VInter
p193
sg31
VORGANIZATION
p194
sg33
VNNP
p195
sg35
I16
ssg10
I15
sg36
g4
sg37
(dp196
sg39
(dp197
sg41
I81
sg42
g21
sg43
g21
sg44
I15
sg45
VInter
p198
sg47
I15
sg48
I86
sbag0
(g23
g2
Ntp199
Rp200
(dp201
g27
(dp202
g29
VRegion
p203
sg31
VORGANIZATION
p204
sg33
VNNP
p205
sg35
I17
ssg10
I16
sg36
g4
sg37
(dp206
sg39
(dp207
sg41
I87
sg42
g21
sg43
g21
sg44
I16
sg45
VRegion
p208
sg47
I16
sg48
I93
sbag0
(g23
g2
Ntp209
Rp210
(dp211
g27
(dp212
g29
VEconomic
p213
sg31
VORGANIZATION
p214
sg33
VNNP
p215
sg35
I18
ssg10
I17
sg36
g4
sg37
(dp216
sg39
(dp217
sg41
I94
sg42
g21
sg43
g21
sg44
I17
sg45
VEconomic
p218
sg47
I17
sg48
I102
sbag0
(g23
g2
Ntp219
Rp220
(dp221
g27
(dp222
g29
VNetwork
p223
sg31
VORGANIZATION
p224
sg33
VNNP
p225
sg35
I19
ssg10
I18
sg36
g4
sg37
(dp226
sg39
(dp227
sg41
I103
sg42
g21
sg43
g21
sg44
I18
sg45
VNetwork
p228
sg47
I18
sg48
I110
sbag0
(g23
g2
Ntp229
Rp230
(dp231
g27
(dp232
g29
Vwho
p233
sg31
VO
p234
sg33
VWP
p235
sg35
I20
ssg10
I19
sg36
g4
sg37
(dp236
sg39
(dp237
sg41
I111
sg42
g21
sg43
g21
sg44
I19
sg45
Vwho
p238
sg47
I19
sg48
I114
sbag0
(g23
g2
Ntp239
Rp240
(dp241
g27
(dp242
g29
Vpromote
p243
sg31
VO
p244
sg33
VVBZ
p245
sg35
I21
ssg10
I20
sg36
g4
sg37
(dp246
sg39
(dp247
sg41
I115
sg42
g21
sg43
g21
sg44
I20
sg45
Vpromotes
p248
sg47
I20
sg48
I123
sbag0
(g23
g2
Ntp249
Rp250
(dp251
g27
(dp252
g29
Vfreedom
p253
sg31
VO
p254
sg33
VNN
p255
sg35
I22
ssg10
I21
sg36
g4
sg37
(dp256
sg39
(dp257
sg41
I124
sg42
g21
sg43
g21
sg44
I21
sg45
Vfreedom
p258
sg47
I21
sg48
I131
sbag0
(g23
g2
Ntp259
Rp260
(dp261
g27
(dp262
g29
Vof
p263
sg31
VO
p264
sg33
VIN
p265
sg35
I23
ssg10
I22
sg36
g4
sg37
(dp266
sg39
(dp267
sg41
I132
sg42
g21
sg43
g21
sg44
I22
sg45
Vof
p268
sg47
I22
sg48
I134
sbag0
(g23
g2
Ntp269
Rp270
(dp271
g27
(dp272
g29
Vtrade
p273
sg31
VO
p274
sg33
VNN
p275
sg35
I24
ssg10
I23
sg36
g4
sg37
(dp276
sg39
(dp277
sg41
I135
sg42
g21
sg43
g21
sg44
I23
sg45
Vtrade
p278
sg47
I23
sg48
I140
sbag0
(g23
g2
Ntp279
Rp280
(dp281
g27
(dp282
g29
Vas
p283
sg31
VO
p284
sg33
VIN
p285
sg35
I25
ssg10
I24
sg36
g4
sg37
(dp286
sg39
(dp287
sg41
I141
sg42
g21
sg43
g21
sg44
I24
sg45
Vas
p288
sg47
I24
sg48
I143
sbag0
(g23
g2
Ntp289
Rp290
(dp291
g27
(dp292
g29
Vthe
p293
sg31
VO
p294
sg33
VDT
p295
sg35
I26
ssg10
I25
sg36
g4
sg37
(dp296
sg39
(dp297
sg41
I144
sg42
g21
sg43
g21
sg44
I25
sg45
Vthe
p298
sg47
I25
sg48
I147
sbag0
(g23
g2
Ntp299
Rp300
(dp301
g27
(dp302
g29
Vdrive
p303
sg31
VO
p304
sg33
VVBG
p305
sg35
I27
ssg10
I26
sg36
g4
sg37
(dp306
sg39
(dp307
sg41
I148
sg42
g21
sg43
g21
sg44
I26
sg45
Vdriving
p308
sg47
I26
sg48
I155
sbag0
(g23
g2
Ntp309
Rp310
(dp311
g27
(dp312
g29
Vsolution
p313
sg31
VO
p314
sg33
VNN
p315
sg35
I28
ssg10
I27
sg36
g4
sg37
(dp316
sg39
(dp317
sg41
I156
sg42
g21
sg43
g21
sg44
I27
sg45
Vsolution
p318
sg47
I27
sg48
I164
sbag0
(g23
g2
Ntp319
Rp320
(dp321
g27
(dp322
g29
Vto
p323
sg31
VO
p324
sg33
VTO
p325
sg35
I29
ssg10
I28
sg36
g4
sg37
(dp326
sg39
(dp327
sg41
I165
sg42
g21
sg43
g21
sg44
I28
sg45
Vto
p328
sg47
I28
sg48
I167
sbag0
(g23
g2
Ntp329
Rp330
(dp331
g27
(dp332
g29
Vpoverty
p333
sg31
VO
p334
sg33
VNN
p335
sg35
I30
ssg10
I29
sg36
g4
sg37
(dp336
sg39
(dp337
sg41
I168
sg42
g21
sg43
g21
sg44
I29
sg45
Vpoverty
p338
sg47
I29
sg48
I175
sbag0
(g23
g2
Ntp339
Rp340
(dp341
g27
(dp342
g29
Vin
p343
sg31
VO
p344
sg33
VIN
p345
sg35
I31
ssg10
I30
sg36
g4
sg37
(dp346
sg39
(dp347
sg41
I176
sg42
g21
sg43
g21
sg44
I30
sg45
Vin
p348
sg47
I30
sg48
I178
sbag0
(g23
g2
Ntp349
Rp350
(dp351
g27
(dp352
g29
VAfrica
p353
sg31
VLOCATION
p354
sg33
VNNP
p355
sg35
I32
ssg10
I31
sg36
g4
sg37
(dp356
sg39
(dp357
sg41
I179
sg42
g21
sg43
g21
sg44
I31
sg45
VAfrica
p358
sg47
I31
sg48
I185
sbag0
(g23
g2
Ntp359
Rp360
(dp361
g27
(dp362
g29
V.
p363
sg31
VO
p364
sg33
V.
p365
sg35
I33
ssg10
I32
sg36
g4
sg37
(dp366
sg39
(dp367
sg41
I185
sg42
g21
sg43
g21
sg44
I32
sg45
V.
p368
sg47
I32
sg48
I186
sbag0
(g23
g2
Ntp369
Rp370
(dp371
g27
(dp372
g29
Vhe
p373
sg31
VO
p374
sg33
VPRP
p375
sg35
I1
ssg10
I33
sg36
g4
sg37
(dp376
sg39
(dp377
sg41
I187
sg42
g21
sg43
g21
sg44
I33
sg45
VHe
p378
sg47
I33
sg48
I189
sbag0
(g23
g2
Ntp379
Rp380
(dp381
g27
(dp382
g29
Vhave
p383
sg31
VO
p384
sg33
VVBZ
p385
sg35
I2
ssg10
I34
sg36
g4
sg37
(dp386
sg39
(dp387
sg41
I190
sg42
g21
sg43
g21
sg44
I34
sg45
Vhas
p388
sg47
I34
sg48
I193
sbag0
(g23
g2
Ntp389
Rp390
(dp391
g27
(dp392
g29
Vmake
p393
sg31
VO
p394
sg33
VVBN
p395
sg35
I3
ssg10
I35
sg36
g4
sg37
(dp396
sg39
(dp397
sg41
I194
sg42
g21
sg43
g21
sg44
I35
sg45
Vmade
p398
sg47
I35
sg48
I198
sbag0
(g23
g2
Ntp399
Rp400
(dp401
g27
(dp402
g29
Vcomment
p403
sg31
VO
p404
sg33
VNNS
p405
sg35
I4
ssg10
I36
sg36
g4
sg37
(dp406
sg39
(dp407
sg41
I199
sg42
g21
sg43
g21
sg44
I36
sg45
Vcomments
p408
sg47
I36
sg48
I207
sbag0
(g23
g2
Ntp409
Rp410
(dp411
g27
(dp412
g29
Vwhich
p413
sg31
VO
p414
sg33
VWDT
p415
sg35
I5
ssg10
I37
sg36
g4
sg37
(dp416
sg39
(dp417
sg41
I208
sg42
g21
sg43
g21
sg44
I37
sg45
Vwhich
p418
sg47
I37
sg48
I213
sbag0
(g23
g2
Ntp419
Rp420
(dp421
g27
(dp422
g29
Vimply
p423
sg31
VO
p424
sg33
VVBP
p425
sg35
I6
ssg10
I38
sg36
g4
sg37
(dp426
sg39
(dp427
sg41
I214
sg42
g21
sg43
g21
sg44
I38
sg45
Vimply
p428
sg47
I38
sg48
I219
sbag0
(g23
g2
Ntp429
Rp430
(dp431
g27
(dp432
g29
Vthat
p433
sg31
VO
p434
sg33
VIN
p435
sg35
I7
ssg10
I39
sg36
g4
sg37
(dp436
sg39
(dp437
sg41
I220
sg42
g21
sg43
g21
sg44
I39
sg45
Vthat
p438
sg47
I39
sg48
I224
sbag0
(g23
g2
Ntp439
Rp440
(dp441
g27
(dp442
g29
Vaid
p443
sg31
VO
p444
sg33
VNN
p445
sg35
I8
ssg10
I40
sg36
g4
sg37
(dp446
sg39
(dp447
sg41
I225
sg42
g21
sg43
g21
sg44
I40
sg45
Vaid
p448
sg47
I40
sg48
I228
sbag0
(g23
g2
Ntp449
Rp450
(dp451
g27
(dp452
g29
Vtowards
p453
sg31
VO
p454
sg33
VIN
p455
sg35
I9
ssg10
I41
sg36
g4
sg37
(dp456
sg39
(dp457
sg41
I229
sg42
g21
sg43
g21
sg44
I41
sg45
Vtowards
p458
sg47
I41
sg48
I236
sbag0
(g23
g2
Ntp459
Rp460
(dp461
g27
(dp462
g29
VAfrica
p463
sg31
VLOCATION
p464
sg33
VNNP
p465
sg35
I10
ssg10
I42
sg36
g4
sg37
(dp466
sg39
(dp467
sg41
I237
sg42
g21
sg43
g21
sg44
I42
sg45
VAfrica
p468
sg47
I42
sg48
I243
sbag0
(g23
g2
Ntp469
Rp470
(dp471
g27
(dp472
g29
Vdo
p473
sg31
VO
p474
sg33
VVBZ
p475
sg35
I11
ssg10
I43
sg36
g4
sg37
(dp476
sg39
(dp477
sg41
I244
sg42
g21
sg43
g21
sg44
I43
sg45
Vdoes
p478
sg47
I43
sg48
I248
sbag0
(g23
g2
Ntp479
Rp480
(dp481
g27
(dp482
g29
Vmore
p483
sg31
VO
p484
sg33
VRBR
p485
sg35
I12
ssg10
I44
sg36
g4
sg37
(dp486
sg39
(dp487
sg41
I249
sg42
g21
sg43
g21
sg44
I44
sg45
Vmore
p488
sg47
I44
sg48
I253
sbag0
(g23
g2
Ntp489
Rp490
(dp491
g27
(dp492
g29
Vharm
p493
sg31
VO
p494
sg33
VNN
p495
sg35
I13
ssg10
I45
sg36
g4
sg37
(dp496
sg39
(dp497
sg41
I254
sg42
g21
sg43
g21
sg44
I45
sg45
Vharm
p498
sg47
I45
sg48
I258
sbag0
(g23
g2
Ntp499
Rp500
(dp501
g27
(dp502
g29
Vthan
p503
sg31
VO
p504
sg33
VIN
p505
sg35
I14
ssg10
I46
sg36
g4
sg37
(dp506
sg39
(dp507
sg41
I259
sg42
g21
sg43
g21
sg44
I46
sg45
Vthan
p508
sg47
I46
sg48
I263
sbag0
(g23
g2
Ntp509
Rp510
(dp511
g27
(dp512
g29
Vgood
p513
sg31
VO
p514
sg33
VJJ
p515
sg35
I15
ssg10
I47
sg36
g4
sg37
(dp516
sg39
(dp517
sg41
I264
sg42
g21
sg43
g21
sg44
I47
sg45
Vgood
p518
sg47
I47
sg48
I268
sbag0
(g23
g2
Ntp519
Rp520
(dp521
g27
(dp522
g29
Vto
p523
sg31
VO
p524
sg33
VTO
p525
sg35
I16
ssg10
I48
sg36
g4
sg37
(dp526
sg39
(dp527
sg41
I269
sg42
g21
sg43
g21
sg44
I48
sg45
Vto
p528
sg47
I48
sg48
I271
sbag0
(g23
g2
Ntp529
Rp530
(dp531
g27
(dp532
g29
Vthey
p533
sg31
VO
p534
sg33
VPRP$
p535
sg35
I17
ssg10
I49
sg36
g4
sg37
(dp536
sg39
(dp537
sg41
I272
sg42
g21
sg43
g21
sg44
I49
sg45
Vtheir
p538
sg47
I49
sg48
I277
sbag0
(g23
g2
Ntp539
Rp540
(dp541
g27
(dp542
g29
Vpeople
p543
sg31
VO
p544
sg33
VNNS
p545
sg35
I18
ssg10
I50
sg36
g4
sg37
(dp546
sg39
(dp547
sg41
I278
sg42
g21
sg43
g21
sg44
I50
sg45
Vpeople
p548
sg47
I50
sg48
I284
sbag0
(g23
g2
Ntp549
Rp550
(dp551
g27
(dp552
g29
V,
p553
sg31
VO
p554
sg33
V,
p555
sg35
I19
ssg10
I51
sg36
g4
sg37
(dp556
sg39
(dp557
sg41
I284
sg42
g21
sg43
g21
sg44
I51
sg45
V,
p558
sg47
I51
sg48
I285
sbag0
(g23
g2
Ntp559
Rp560
(dp561
g27
(dp562
g29
Vbase
p563
sg31
VO
p564
sg33
VVBN
p565
sg35
I20
ssg10
I52
sg36
g4
sg37
(dp566
sg39
(dp567
sg41
I286
sg42
g21
sg43
g21
sg44
I52
sg45
Vbased
p568
sg47
I52
sg48
I291
sbag0
(g23
g2
Ntp569
Rp570
(dp571
g27
(dp572
g29
Von
p573
sg31
VO
p574
sg33
VIN
p575
sg35
I21
ssg10
I53
sg36
g4
sg37
(dp576
sg39
(dp577
sg41
I292
sg42
g21
sg43
g21
sg44
I53
sg45
Von
p578
sg47
I53
sg48
I294
sbag0
(g23
g2
Ntp579
Rp580
(dp581
g27
(dp582
g29
Vthe
p583
sg31
VO
p584
sg33
VDT
p585
sg35
I22
ssg10
I54
sg36
g4
sg37
(dp586
sg39
(dp587
sg41
I295
sg42
g21
sg43
g21
sg44
I54
sg45
Vthe
p588
sg47
I54
sg48
I298
sbag0
(g23
g2
Ntp589
Rp590
(dp591
g27
(dp592
g29
Vcentral
p593
sg31
VO
p594
sg33
VJJ
p595
sg35
I23
ssg10
I55
sg36
g4
sg37
(dp596
sg39
(dp597
sg41
I299
sg42
g21
sg43
g21
sg44
I55
sg45
Vcentral
p598
sg47
I55
sg48
I306
sbag0
(g23
g2
Ntp599
Rp600
(dp601
g27
(dp602
g29
Vargument
p603
sg31
VO
p604
sg33
VNNS
p605
sg35
I24
ssg10
I56
sg36
g4
sg37
(dp606
sg39
(dp607
sg41
I307
sg42
g21
sg43
g21
sg44
I56
sg45
Varguments
p608
sg47
I56
sg48
I316
sbag0
(g23
g2
Ntp609
Rp610
(dp611
g27
(dp612
g29
Vthat
p613
sg31
VO
p614
sg33
VIN
p615
sg35
I25
ssg10
I57
sg36
g4
sg37
(dp616
sg39
(dp617
sg41
I317
sg42
g21
sg43
g21
sg44
I57
sg45
Vthat
p618
sg47
I57
sg48
I321
sbag0
(g23
g2
Ntp619
Rp620
(dp621
g27
(dp622
g29
Vit
p623
sg31
VO
p624
sg33
VPRP
p625
sg35
I26
ssg10
I58
sg36
g4
sg37
(dp626
sg39
(dp627
sg41
I322
sg42
g21
sg43
g21
sg44
I58
sg45
Vit
p628
sg47
I58
sg48
I324
sbag0
(g23
g2
Ntp629
Rp630
(dp631
g27
(dp632
g29
Vbe
p633
sg31
VO
p634
sg33
VVBZ
p635
sg35
I27
ssg10
I59
sg36
g4
sg37
(dp636
sg39
(dp637
sg41
I325
sg42
g21
sg43
g21
sg44
I59
sg45
Vis
p638
sg47
I59
sg48
I327
sbag0
(g23
g2
Ntp639
Rp640
(dp641
g27
(dp642
g29
Vmainly
p643
sg31
VO
p644
sg33
VRB
p645
sg35
I28
ssg10
I60
sg36
g4
sg37
(dp646
sg39
(dp647
sg41
I328
sg42
g21
sg43
g21
sg44
I60
sg45
Vmainly
p648
sg47
I60
sg48
I334
sbag0
(g23
g2
Ntp649
Rp650
(dp651
g27
(dp652
g29
Vuse
p653
sg31
VO
p654
sg33
VVBN
p655
sg35
I29
ssg10
I61
sg36
g4
sg37
(dp656
sg39
(dp657
sg41
I335
sg42
g21
sg43
g21
sg44
I61
sg45
Vused
p658
sg47
I61
sg48
I339
sbag0
(g23
g2
Ntp659
Rp660
(dp661
g27
(dp662
g29
Veither
p663
sg31
VO
p664
sg33
VCC
p665
sg35
I30
ssg10
I62
sg36
g4
sg37
(dp666
sg39
(dp667
sg41
I340
sg42
g21
sg43
g21
sg44
I62
sg45
Veither
p668
sg47
I62
sg48
I346
sbag0
(g23
g2
Ntp669
Rp670
(dp671
g27
(dp672
g29
Vby
p673
sg31
VO
p674
sg33
VIN
p675
sg35
I31
ssg10
I63
sg36
g4
sg37
(dp676
sg39
(dp677
sg41
I347
sg42
g21
sg43
g21
sg44
I63
sg45
Vby
p678
sg47
I63
sg48
I349
sbag0
(g23
g2
Ntp679
Rp680
(dp681
g27
(dp682
g29
Vpolitician
p683
sg31
VO
p684
sg33
VNNS
p685
sg35
I32
ssg10
I64
sg36
g4
sg37
(dp686
sg39
(dp687
sg41
I350
sg42
g21
sg43
g21
sg44
I64
sg45
Vpoliticians
p688
sg47
I64
sg48
I361
sbag0
(g23
g2
Ntp689
Rp690
(dp691
g27
(dp692
g29
Vas
p693
sg31
VO
p694
sg33
VIN
p695
sg35
I33
ssg10
I65
sg36
g4
sg37
(dp696
sg39
(dp697
sg41
I362
sg42
g21
sg43
g21
sg44
I65
sg45
Vas
p698
sg47
I65
sg48
I364
sbag0
(g23
g2
Ntp699
Rp700
(dp701
g27
(dp702
g29
Va
p703
sg31
VO
p704
sg33
VDT
p705
sg35
I34
ssg10
I66
sg36
g4
sg37
(dp706
sg39
(dp707
sg41
I362
sg42
g21
sg43
g21
sg44
I66
sg45
Va
p708
sg47
I66
sg48
I363
sbag0
(g23
g2
Ntp709
Rp710
(dp711
g27
(dp712
g29
Vtool
p713
sg31
VO
p714
sg33
VNN
p715
sg35
I35
ssg10
I67
sg36
g4
sg37
(dp716
sg39
(dp717
sg41
I367
sg42
g21
sg43
g21
sg44
I67
sg45
Vtool
p718
sg47
I67
sg48
I371
sbag0
(g23
g2
Ntp719
Rp720
(dp721
g27
(dp722
g29
Vto
p723
sg31
VO
p724
sg33
VTO
p725
sg35
I36
ssg10
I68
sg36
g4
sg37
(dp726
sg39
(dp727
sg41
I367
sg42
g21
sg43
g21
sg44
I68
sg45
Vto
p728
sg47
I68
sg48
I369
sbag0
(g23
g2
Ntp729
Rp730
(dp731
g27
(dp732
g29
Vmanipulate
p733
sg31
VO
p734
sg33
VVB
p735
sg35
I37
ssg10
I69
sg36
g4
sg37
(dp736
sg39
(dp737
sg41
I375
sg42
g21
sg43
g21
sg44
I69
sg45
Vmanipulate
p738
sg47
I69
sg48
I385
sbag0
(g23
g2
Ntp739
Rp740
(dp741
g27
(dp742
g29
Vpeople
p743
sg31
VO
p744
sg33
VNNS
p745
sg35
I38
ssg10
I70
sg36
g4
sg37
(dp746
sg39
(dp747
sg41
I386
sg42
g21
sg43
g21
sg44
I70
sg45
Vpeople
p748
sg47
I70
sg48
I392
sbag0
(g23
g2
Ntp749
Rp750
(dp751
g27
(dp752
g29
Vand
p753
sg31
VO
p754
sg33
VCC
p755
sg35
I39
ssg10
I71
sg36
g4
sg37
(dp756
sg39
(dp757
sg41
I393
sg42
g21
sg43
g21
sg44
I71
sg45
Vand
p758
sg47
I71
sg48
I396
sbag0
(g23
g2
Ntp759
Rp760
(dp761
g27
(dp762
g29
Vinfluence
p763
sg31
VO
p764
sg33
VVB
p765
sg35
I40
ssg10
I72
sg36
g4
sg37
(dp766
sg39
(dp767
sg41
I397
sg42
g21
sg43
g21
sg44
I72
sg45
Vinfluence
p768
sg47
I72
sg48
I406
sbag0
(g23
g2
Ntp769
Rp770
(dp771
g27
(dp772
g29
Vvote
p773
sg31
VO
p774
sg33
VNNS
p775
sg35
I41
ssg10
I73
sg36
g4
sg37
(dp776
sg39
(dp777
sg41
I407
sg42
g21
sg43
g21
sg44
I73
sg45
Vvotes
p778
sg47
I73
sg48
I412
sbag0
(g23
g2
Ntp779
Rp780
(dp781
g27
(dp782
g29
V,
p783
sg31
VO
p784
sg33
V,
p785
sg35
I42
ssg10
I74
sg36
g4
sg37
(dp786
sg39
(dp787
sg41
I412
sg42
g21
sg43
g21
sg44
I74
sg45
V,
p788
sg47
I74
sg48
I413
sbag0
(g23
g2
Ntp789
Rp790
(dp791
g27
(dp792
g29
Vor
p793
sg31
VO
p794
sg33
VCC
p795
sg35
I43
ssg10
I75
sg36
g4
sg37
(dp796
sg39
(dp797
sg41
I414
sg42
g21
sg43
g21
sg44
I75
sg45
Vor
p798
sg47
I75
sg48
I416
sbag0
(g23
g2
Ntp799
Rp800
(dp801
g27
(dp802
g29
Vas
p803
sg31
VO
p804
sg33
VIN
p805
sg35
I44
ssg10
I76
sg36
g4
sg37
(dp806
sg39
(dp807
sg41
I417
sg42
g21
sg43
g21
sg44
I76
sg45
Vas
p808
sg47
I76
sg48
I419
sbag0
(g23
g2
Ntp809
Rp810
(dp811
g27
(dp812
g29
Va
p813
sg31
VO
p814
sg33
VDT
p815
sg35
I45
ssg10
I77
sg36
g4
sg37
(dp816
sg39
(dp817
sg41
I417
sg42
g21
sg43
g21
sg44
I77
sg45
Va
p818
sg47
I77
sg48
I418
sbag0
(g23
g2
Ntp819
Rp820
(dp821
g27
(dp822
g29
Vmechanism
p823
sg31
VO
p824
sg33
VNN
p825
sg35
I46
ssg10
I78
sg36
g4
sg37
(dp826
sg39
(dp827
sg41
I422
sg42
g21
sg43
g21
sg44
I78
sg45
Vmechanism
p828
sg47
I78
sg48
I431
sbag0
(g23
g2
Ntp829
Rp830
(dp831
g27
(dp832
g29
Vfor
p833
sg31
VO
p834
sg33
VIN
p835
sg35
I47
ssg10
I79
sg36
g4
sg37
(dp836
sg39
(dp837
sg41
I432
sg42
g21
sg43
g21
sg44
I79
sg45
Vfor
p838
sg47
I79
sg48
I435
sbag0
(g23
g2
Ntp839
Rp840
(dp841
g27
(dp842
g29
Vdump
p843
sg31
VO
p844
sg33
VVBG
p845
sg35
I48
ssg10
I80
sg36
g4
sg37
(dp846
sg39
(dp847
sg41
I436
sg42
g21
sg43
g21
sg44
I80
sg45
Vdumping
p848
sg47
I80
sg48
I443
sbag0
(g23
g2
Ntp849
Rp850
(dp851
g27
(dp852
g29
Vsubsidise
p853
sg31
VO
p854
sg33
VVBN
p855
sg35
I49
ssg10
I81
sg36
g4
sg37
(dp856
sg39
(dp857
sg41
I444
sg42
g21
sg43
g21
sg44
I81
sg45
Vsubsidised
p858
sg47
I81
sg48
I454
sbag0
(g23
g2
Ntp859
Rp860
(dp861
g27
(dp862
g29
Vforeign
p863
sg31
VO
p864
sg33
VJJ
p865
sg35
I50
ssg10
I82
sg36
g4
sg37
(dp866
sg39
(dp867
sg41
I455
sg42
g21
sg43
g21
sg44
I82
sg45
Vforeign
p868
sg47
I82
sg48
I462
sbag0
(g23
g2
Ntp869
Rp870
(dp871
g27
(dp872
g29
Vagricultural
p873
sg31
VO
p874
sg33
VJJ
p875
sg35
I51
ssg10
I83
sg36
g4
sg37
(dp876
sg39
(dp877
sg41
I463
sg42
g21
sg43
g21
sg44
I83
sg45
Vagricultural
p878
sg47
I83
sg48
I475
sbag0
(g23
g2
Ntp879
Rp880
(dp881
g27
(dp882
g29
Vproduct
p883
sg31
VO
p884
sg33
VNNS
p885
sg35
I52
ssg10
I84
sg36
g4
sg37
(dp886
sg39
(dp887
sg41
I476
sg42
g21
sg43
g21
sg44
I84
sg45
Vproducts
p888
sg47
I84
sg48
I484
sbag0
(g23
g2
Ntp889
Rp890
(dp891
g27
(dp892
g29
Vonto
p893
sg31
VO
p894
sg33
VIN
p895
sg35
I53
ssg10
I85
sg36
g4
sg37
(dp896
sg39
(dp897
sg41
I485
sg42
g21
sg43
g21
sg44
I85
sg45
Vonto
p898
sg47
I85
sg48
I489
sbag0
(g23
g2
Ntp899
Rp900
(dp901
g27
(dp902
g29
Vlocal
p903
sg31
VO
p904
sg33
VJJ
p905
sg35
I54
ssg10
I86
sg36
g4
sg37
(dp906
sg39
(dp907
sg41
I490
sg42
g21
sg43
g21
sg44
I86
sg45
Vlocal
p908
sg47
I86
sg48
I495
sbag0
(g23
g2
Ntp909
Rp910
(dp911
g27
(dp912
g29
Vmarket
p913
sg31
VO
p914
sg33
VNNS
p915
sg35
I55
ssg10
I87
sg36
g4
sg37
(dp916
sg39
(dp917
sg41
I496
sg42
g21
sg43
g21
sg44
I87
sg45
Vmarkets
p918
sg47
I87
sg48
I503
sbag0
(g23
g2
Ntp919
Rp920
(dp921
g27
(dp922
g29
Vat
p923
sg31
VO
p924
sg33
VIN
p925
sg35
I56
ssg10
I88
sg36
g4
sg37
(dp926
sg39
(dp927
sg41
I504
sg42
g21
sg43
g21
sg44
I88
sg45
Vat
p928
sg47
I88
sg48
I506
sbag0
(g23
g2
Ntp929
Rp930
(dp931
g27
(dp932
g29
Vbelow
p933
sg31
VO
p934
sg33
VIN
p935
sg35
I57
ssg10
I89
sg36
g4
sg37
(dp936
sg39
(dp937
sg41
I507
sg42
g21
sg43
g21
sg44
I89
sg45
Vbelow
p938
sg47
I89
sg48
I512
sbag0
(g23
g2
Ntp939
Rp940
(dp941
g27
(dp942
g29
Vcost
p943
sg31
VO
p944
sg33
VNN
p945
sg35
I58
ssg10
I90
sg36
g4
sg37
(dp946
sg39
(dp947
sg41
I513
sg42
g21
sg43
g21
sg44
I90
sg45
Vcost
p948
sg47
I90
sg48
I517
sbag0
(g23
g2
Ntp949
Rp950
(dp951
g27
(dp952
g29
Vmake
p953
sg31
VO
p954
sg33
VVBG
p955
sg35
I59
ssg10
I91
sg36
g4
sg37
(dp956
sg39
(dp957
sg41
I518
sg42
g21
sg43
g21
sg44
I91
sg45
Vmaking
p958
sg47
I91
sg48
I524
sbag0
(g23
g2
Ntp959
Rp960
(dp961
g27
(dp962
g29
Vit
p963
sg31
VO
p964
sg33
VPRP
p965
sg35
I60
ssg10
I92
sg36
g4
sg37
(dp966
sg39
(dp967
sg41
I525
sg42
g21
sg43
g21
sg44
I92
sg45
Vit
p968
sg47
I92
sg48
I527
sbag0
(g23
g2
Ntp969
Rp970
(dp971
g27
(dp972
g29
Vnearly
p973
sg31
VO
p974
sg33
VRB
p975
sg35
I61
ssg10
I93
sg36
g4
sg37
(dp976
sg39
(dp977
sg41
I528
sg42
g21
sg43
g21
sg44
I93
sg45
Vnearly
p978
sg47
I93
sg48
I534
sbag0
(g23
g2
Ntp979
Rp980
(dp981
g27
(dp982
g29
Vimpossible
p983
sg31
VO
p984
sg33
VJJ
p985
sg35
I62
ssg10
I94
sg36
g4
sg37
(dp986
sg39
(dp987
sg41
I535
sg42
g21
sg43
g21
sg44
I94
sg45
Vimpossible
p988
sg47
I94
sg48
I545
sbag0
(g23
g2
Ntp989
Rp990
(dp991
g27
(dp992
g29
Vfor
p993
sg31
VO
p994
sg33
VIN
p995
sg35
I63
ssg10
I95
sg36
g4
sg37
(dp996
sg39
(dp997
sg41
I546
sg42
g21
sg43
g21
sg44
I95
sg45
Vfor
p998
sg47
I95
sg48
I549
sbag0
(g23
g2
Ntp999
Rp1000
(dp1001
g27
(dp1002
g29
Vafrican
p1003
sg31
VMISC
p1004
sg33
VJJ
p1005
sg35
I64
ssg10
I96
sg36
g4
sg37
(dp1006
sg39
(dp1007
sg41
I550
sg42
g21
sg43
g21
sg44
I96
sg45
VAfrican
p1008
sg47
I96
sg48
I557
sbag0
(g23
g2
Ntp1009
Rp1010
(dp1011
g27
(dp1012
g29
Vfarmer
p1013
sg31
VO
p1014
sg33
VNNS
p1015
sg35
I65
ssg10
I97
sg36
g4
sg37
(dp1016
sg39
(dp1017
sg41
I558
sg42
g21
sg43
g21
sg44
I97
sg45
Vfarmers
p1018
sg47
I97
sg48
I565
sbag0
(g23
g2
Ntp1019
Rp1020
(dp1021
g27
(dp1022
g29
Vto
p1023
sg31
VO
p1024
sg33
VTO
p1025
sg35
I66
ssg10
I98
sg36
g4
sg37
(dp1026
sg39
(dp1027
sg41
I566
sg42
g21
sg43
g21
sg44
I98
sg45
Vto
p1028
sg47
I98
sg48
I568
sbag0
(g23
g2
Ntp1029
Rp1030
(dp1031
g27
(dp1032
g29
Vcompete
p1033
sg31
VO
p1034
sg33
VVB
p1035
sg35
I67
ssg10
I99
sg36
g4
sg37
(dp1036
sg39
(dp1037
sg41
I569
sg42
g21
sg43
g21
sg44
I99
sg45
Vcompete
p1038
sg47
I99
sg48
I576
sbag0
(g23
g2
Ntp1039
Rp1040
(dp1041
g27
(dp1042
g29
V.
p1043
sg31
VO
p1044
sg33
V.
p1045
sg35
I68
ssg10
I100
sg36
g4
sg37
(dp1046
sg39
(dp1047
sg41
I576
sg42
g21
sg43
g21
sg44
I100
sg45
V.
p1048
sg47
I100
sg48
I577
sbag0
(g23
g2
Ntp1049
Rp1050
(dp1051
g27
(dp1052
g29
Va
p1053
sg31
VO
p1054
sg33
VDT
p1055
sg35
I1
ssg10
I101
sg36
g4
sg37
(dp1056
sg39
(dp1057
sg41
I579
sg42
g21
sg43
g21
sg44
I101
sg45
VA
p1058
sg47
I101
sg48
I580
sbag0
(g23
g2
Ntp1059
Rp1060
(dp1061
g27
(dp1062
g29
Vgraduate
p1063
sg31
VO
p1064
sg33
VNN
p1065
sg35
I2
ssg10
I102
sg36
g4
sg37
(dp1066
sg39
(dp1067
sg41
I581
sg42
g21
sg43
g21
sg44
I102
sg45
Vgraduate
p1068
sg47
I102
sg48
I589
sbag0
(g23
g2
Ntp1069
Rp1070
(dp1071
g27
(dp1072
g29
Vfrom
p1073
sg31
VO
p1074
sg33
VIN
p1075
sg35
I3
ssg10
I103
sg36
g4
sg37
(dp1076
sg39
(dp1077
sg41
I590
sg42
g21
sg43
g21
sg44
I103
sg45
Vfrom
p1078
sg47
I103
sg48
I594
sbag0
(g23
g2
Ntp1079
Rp1080
(dp1081
g27
(dp1082
g29
Vthe
p1083
sg31
VO
p1084
sg33
VDT
p1085
sg35
I4
ssg10
I104
sg36
g4
sg37
(dp1086
sg39
(dp1087
sg41
I595
sg42
g21
sg43
g21
sg44
I104
sg45
Vthe
p1088
sg47
I104
sg48
I598
sbag0
(g23
g2
Ntp1089
Rp1090
(dp1091
g27
(dp1092
g29
VUniversity
p1093
sg31
VORGANIZATION
p1094
sg33
VNNP
p1095
sg35
I5
ssg10
I105
sg36
g4
sg37
(dp1096
sg39
(dp1097
sg41
I599
sg42
g21
sg43
g21
sg44
I105
sg45
VUniversity
p1098
sg47
I105
sg48
I609
sbag0
(g23
g2
Ntp1099
Rp1100
(dp1101
g27
(dp1102
g29
Vof
p1103
sg31
VORGANIZATION
p1104
sg33
VIN
p1105
sg35
I6
ssg10
I106
sg36
g4
sg37
(dp1106
sg39
(dp1107
sg41
I610
sg42
g21
sg43
g21
sg44
I106
sg45
Vof
p1108
sg47
I106
sg48
I612
sbag0
(g23
g2
Ntp1109
Rp1110
(dp1111
g27
(dp1112
g29
VNairobi
p1113
sg31
VORGANIZATION
p1114
sg33
VNNP
p1115
sg35
I7
ssg10
I107
sg36
g4
sg37
(dp1116
sg39
(dp1117
sg41
I613
sg42
g21
sg43
g21
sg44
I107
sg45
VNairobi
p1118
sg47
I107
sg48
I620
sbag0
(g23
g2
Ntp1119
Rp1120
(dp1121
g27
(dp1122
g29
V-lrb-
p1123
sg31
VO
p1124
sg33
V-LRB-
p1125
sg35
I8
ssg10
I108
sg36
g4
sg37
(dp1126
sg39
(dp1127
sg41
I621
sg42
g21
sg43
g21
sg44
I108
sg45
V(
p1128
sg47
I108
sg48
I622
sbag0
(g23
g2
Ntp1129
Rp1130
(dp1131
g27
(dp1132
g29
VB.ED
p1133
sg31
VO
p1134
sg33
VNNP
p1135
sg35
I9
ssg10
I109
sg36
g4
sg37
(dp1136
sg39
(dp1137
sg41
I622
sg42
g21
sg43
g21
sg44
I109
sg45
VB.ED
p1138
sg47
I109
sg48
I626
sbag0
(g23
g2
Ntp1139
Rp1140
(dp1141
g27
(dp1142
g29
VArts
p1143
sg31
VO
p1144
sg33
VNNP
p1145
sg35
I10
ssg10
I110
sg36
g4
sg37
(dp1146
sg39
(dp1147
sg41
I627
sg42
g21
sg43
g21
sg44
I110
sg45
VArts
p1148
sg47
I110
sg48
I631
sbag0
(g23
g2
Ntp1149
Rp1150
(dp1151
g27
(dp1152
g29
V1994
p1153
sg31
VDATE
p1154
sg33
VCD
p1155
sg35
I11
ssg10
I111
sg36
g4
sg37
(dp1156
sg39
(dp1157
sg41
I632
sg42
g21
sg43
g21
sg44
I111
sg45
V1994
p1158
sg47
I111
sg48
I636
sbag0
(g23
g2
Ntp1159
Rp1160
(dp1161
g27
(dp1162
g29
V-rrb-
p1163
sg31
VO
p1164
sg33
V-RRB-
p1165
sg35
I12
ssg10
I112
sg36
g4
sg37
(dp1166
sg39
(dp1167
sg41
I636
sg42
g21
sg43
g21
sg44
I112
sg45
V)
p1168
sg47
I112
sg48
I637
sbag0
(g23
g2
Ntp1169
Rp1170
(dp1171
g27
(dp1172
g29
V,
p1173
sg31
VO
p1174
sg33
V,
p1175
sg35
I13
ssg10
I113
sg36
g4
sg37
(dp1176
sg39
(dp1177
sg41
I637
sg42
g21
sg43
g21
sg44
I113
sg45
V,
p1178
sg47
I113
sg48
I638
sbag0
(g23
g2
Ntp1179
Rp1180
(dp1181
g27
(dp1182
g29
Vattend
p1183
sg31
VO
p1184
sg33
VVBD
p1185
sg35
I14
ssg10
I114
sg36
g4
sg37
(dp1186
sg39
(dp1187
sg41
I639
sg42
g21
sg43
g21
sg44
I114
sg45
Vattended
p1188
sg47
I114
sg48
I647
sbag0
(g23
g2
Ntp1189
Rp1190
(dp1191
g27
(dp1192
g29
VMusingu
p1193
sg31
VO
p1194
sg33
VNNP
p1195
sg35
I15
ssg10
I115
sg36
g4
sg37
(dp1196
sg39
(dp1197
sg41
I648
sg42
g21
sg43
g21
sg44
I115
sg45
VMusingu
p1198
sg47
I115
sg48
I655
sbag0
(g23
g2
Ntp1199
Rp1200
(dp1201
g27
(dp1202
g29
VHigh
p1203
sg31
VO
p1204
sg33
VNNP
p1205
sg35
I16
ssg10
I116
sg36
g4
sg37
(dp1206
sg39
(dp1207
sg41
I656
sg42
g21
sg43
g21
sg44
I116
sg45
VHigh
p1208
sg47
I116
sg48
I660
sbag0
(g23
g2
Ntp1209
Rp1210
(dp1211
g27
(dp1212
g29
VSchool
p1213
sg31
VO
p1214
sg33
VNNP
p1215
sg35
I17
ssg10
I117
sg36
g4
sg37
(dp1216
sg39
(dp1217
sg41
I661
sg42
g21
sg43
g21
sg44
I117
sg45
VSchool
p1218
sg47
I117
sg48
I667
sbag0
(g23
g2
Ntp1219
Rp1220
(dp1221
g27
(dp1222
g29
V-lrb-
p1223
sg31
VO
p1224
sg33
V-LRB-
p1225
sg35
I18
ssg10
I118
sg36
g4
sg37
(dp1226
sg39
(dp1227
sg41
I668
sg42
g21
sg43
g21
sg44
I118
sg45
V(
p1228
sg47
I118
sg48
I669
sbag0
(g23
g2
Ntp1229
Rp1230
(dp1231
g27
(dp1232
g29
V1989
p1233
sg31
VDATE
p1234
sg33
VCD
p1235
sg35
I19
ssg10
I119
sg36
g4
sg37
(dp1236
sg39
(dp1237
sg41
I669
sg42
g21
sg43
g21
sg44
I119
sg45
V1989
p1238
sg47
I119
sg48
I673
sbag0
(g23
g2
Ntp1239
Rp1240
(dp1241
g27
(dp1242
g29
V-rrb-
p1243
sg31
VO
p1244
sg33
V-RRB-
p1245
sg35
I20
ssg10
I120
sg36
g4
sg37
(dp1246
sg39
(dp1247
sg41
I673
sg42
g21
sg43
g21
sg44
I120
sg45
V)
p1248
sg47
I120
sg48
I674
sbag0
(g23
g2
Ntp1249
Rp1250
(dp1251
g27
(dp1252
g29
Vand
p1253
sg31
VO
p1254
sg33
VCC
p1255
sg35
I21
ssg10
I121
sg36
g4
sg37
(dp1256
sg39
(dp1257
sg41
I675
sg42
g21
sg43
g21
sg44
I121
sg45
Vand
p1258
sg47
I121
sg48
I678
sbag0
(g23
g2
Ntp1259
Rp1260
(dp1261
g27
(dp1262
g29
Vteach
p1263
sg31
VO
p1264
sg33
VVBD
p1265
sg35
I22
ssg10
I122
sg36
g4
sg37
(dp1266
sg39
(dp1267
sg41
I679
sg42
g21
sg43
g21
sg44
I122
sg45
Vtaught
p1268
sg47
I122
sg48
I685
sbag0
(g23
g2
Ntp1269
Rp1270
(dp1271
g27
(dp1272
g29
VKiptewit
p1273
sg31
VO
p1274
sg33
VNNP
p1275
sg35
I23
ssg10
I123
sg36
g4
sg37
(dp1276
sg39
(dp1277
sg41
I686
sg42
g21
sg43
g21
sg44
I123
sg45
VKiptewit
p1278
sg47
I123
sg48
I694
sbag0
(g23
g2
Ntp1279
Rp1280
(dp1281
g27
(dp1282
g29
VHigh
p1283
sg31
VO
p1284
sg33
VNNP
p1285
sg35
I24
ssg10
I124
sg36
g4
sg37
(dp1286
sg39
(dp1287
sg41
I695
sg42
g21
sg43
g21
sg44
I124
sg45
VHigh
p1288
sg47
I124
sg48
I699
sbag0
(g23
g2
Ntp1289
Rp1290
(dp1291
g27
(dp1292
g29
VSchool
p1293
sg31
VO
p1294
sg33
VNNP
p1295
sg35
I25
ssg10
I125
sg36
g4
sg37
(dp1296
sg39
(dp1297
sg41
I700
sg42
g21
sg43
g21
sg44
I125
sg45
VSchool
p1298
sg47
I125
sg48
I706
sbag0
(g23
g2
Ntp1299
Rp1300
(dp1301
g27
(dp1302
g29
V-lrb-
p1303
sg31
VO
p1304
sg33
V-LRB-
p1305
sg35
I26
ssg10
I126
sg36
g4
sg37
(dp1306
sg39
(dp1307
sg41
I707
sg42
g21
sg43
g21
sg44
I126
sg45
V(
p1308
sg47
I126
sg48
I708
sbag0
(g23
g2
Ntp1309
Rp1310
(dp1311
g27
(dp1312
g29
V1994
p1313
sg31
VDATE
p1314
sg33
VCD
p1315
sg35
I27
ssg10
I127
sg36
g4
sg37
(dp1316
sg39
(dp1317
sg41
I708
sg42
g21
sg43
g21
sg44
I127
sg45
V1994
p1318
sg47
I127
sg48
I712
sbag0
(g23
g2
Ntp1319
Rp1320
(dp1321
g27
(dp1322
g29
V--
p1323
sg31
VO
p1324
sg33
V:
p1325
sg35
I28
ssg10
I128
sg36
g4
sg37
(dp1326
sg39
(dp1327
sg41
I712
sg42
g21
sg43
g21
sg44
I128
sg45
V\u2013
p1328
sg47
I128
sg48
I713
sbag0
(g23
g2
Ntp1329
Rp1330
(dp1331
g27
(dp1332
g29
V2001
p1333
sg31
VDATE
p1334
sg33
VCD
p1335
sg35
I29
ssg10
I129
sg36
g4
sg37
(dp1336
sg39
(dp1337
sg41
I713
sg42
g21
sg43
g21
sg44
I129
sg45
V2001
p1338
sg47
I129
sg48
I717
sbag0
(g23
g2
Ntp1339
Rp1340
(dp1341
g27
(dp1342
g29
V-rrb-
p1343
sg31
VO
p1344
sg33
V-RRB-
p1345
sg35
I30
ssg10
I130
sg36
g4
sg37
(dp1346
sg39
(dp1347
sg41
I717
sg42
g21
sg43
g21
sg44
I130
sg45
V)
p1348
sg47
I130
sg48
I718
sbag0
(g23
g2
Ntp1349
Rp1350
(dp1351
g27
(dp1352
g29
Vin
p1353
sg31
VO
p1354
sg33
VIN
p1355
sg35
I31
ssg10
I131
sg36
g4
sg37
(dp1356
sg39
(dp1357
sg41
I719
sg42
g21
sg43
g21
sg44
I131
sg45
Vin
p1358
sg47
I131
sg48
I721
sbag0
(g23
g2
Ntp1359
Rp1360
(dp1361
g27
(dp1362
g29
VKericho
p1363
sg31
VLOCATION
p1364
sg33
VNNP
p1365
sg35
I32
ssg10
I132
sg36
g4
sg37
(dp1366
sg39
(dp1367
sg41
I722
sg42
g21
sg43
g21
sg44
I132
sg45
VKericho
p1368
sg47
I132
sg48
I729
sbag0
(g23
g2
Ntp1369
Rp1370
(dp1371
g27
(dp1372
g29
VRift
p1373
sg31
VLOCATION
p1374
sg33
VNNP
p1375
sg35
I33
ssg10
I133
sg36
g4
sg37
(dp1376
sg39
(dp1377
sg41
I730
sg42
g21
sg43
g21
sg44
I133
sg45
VRift
p1378
sg47
I133
sg48
I734
sbag0
(g23
g2
Ntp1379
Rp1380
(dp1381
g27
(dp1382
g29
VValley
p1383
sg31
VLOCATION
p1384
sg33
VNNP
p1385
sg35
I34
ssg10
I134
sg36
g4
sg37
(dp1386
sg39
(dp1387
sg41
I735
sg42
g21
sg43
g21
sg44
I134
sg45
VValley
p1388
sg47
I134
sg48
I741
sbag0
(g23
g2
Ntp1389
Rp1390
(dp1391
g27
(dp1392
g29
Vprovince
p1393
sg31
VO
p1394
sg33
VNN
p1395
sg35
I35
ssg10
I135
sg36
g4
sg37
(dp1396
sg39
(dp1397
sg41
I742
sg42
g21
sg43
g21
sg44
I135
sg45
Vprovince
p1398
sg47
I135
sg48
I750
sbag0
(g23
g2
Ntp1399
Rp1400
(dp1401
g27
(dp1402
g29
Vin
p1403
sg31
VO
p1404
sg33
VIN
p1405
sg35
I36
ssg10
I136
sg36
g4
sg37
(dp1406
sg39
(dp1407
sg41
I746
sg42
g21
sg43
g21
sg44
I136
sg45
Vin
p1408
sg47
I136
sg48
I748
sbag0
(g23
g2
Ntp1409
Rp1410
(dp1411
g27
(dp1412
g29
Vkenya.he
p1413
sg31
VO
p1414
sg33
VNN
p1415
sg35
I37
ssg10
I137
sg36
g4
sg37
(dp1416
sg39
(dp1417
sg41
I754
sg42
g21
sg43
g21
sg44
I137
sg45
VKenya.He
p1418
sg47
I137
sg48
I762
sbag0
(g23
g2
Ntp1419
Rp1420
(dp1421
g27
(dp1422
g29
Vbe
p1423
sg31
VO
p1424
sg33
VVBZ
p1425
sg35
I38
ssg10
I138
sg36
g4
sg37
(dp1426
sg39
(dp1427
sg41
I763
sg42
g21
sg43
g21
sg44
I138
sg45
Vis
p1428
sg47
I138
sg48
I765
sbag0
(g23
g2
Ntp1429
Rp1430
(dp1431
g27
(dp1432
g29
Va
p1433
sg31
VO
p1434
sg33
VDT
p1435
sg35
I39
ssg10
I139
sg36
g4
sg37
(dp1436
sg39
(dp1437
sg41
I766
sg42
g21
sg43
g21
sg44
I139
sg45
Va
p1438
sg47
I139
sg48
I767
sbag0
(g23
g2
Ntp1439
Rp1440
(dp1441
g27
(dp1442
g29
V``
p1443
sg31
VO
p1444
sg33
V``
p1445
sg35
I40
ssg10
I140
sg36
g4
sg37
(dp1446
sg39
(dp1447
sg41
I768
sg42
g21
sg43
g21
sg44
I140
sg45
V"
p1448
sg47
I140
sg48
I769
sbag0
(g23
g2
Ntp1449
Rp1450
(dp1451
g27
(dp1452
g29
Vself
p1453
sg31
VO
p1454
sg33
VNN
p1455
sg35
I41
ssg10
I141
sg36
g4
sg37
(dp1456
sg39
(dp1457
sg41
I769
sg42
g21
sg43
g21
sg44
I141
sg45
Vself
p1458
sg47
I141
sg48
I773
sbag0
(g23
g2
Ntp1459
Rp1460
(dp1461
g27
(dp1462
g29
Vteach
p1463
sg31
VO
p1464
sg33
VVBD
p1465
sg35
I42
ssg10
I142
sg36
g4
sg37
(dp1466
sg39
(dp1467
sg41
I774
sg42
g21
sg43
g21
sg44
I142
sg45
Vtaught
p1468
sg47
I142
sg48
I780
sbag0
(g23
g2
Ntp1469
Rp1470
(dp1471
g27
(dp1472
g29
V''
p1473
sg31
VO
p1474
sg33
V''
p1475
sg35
I43
ssg10
I143
sg36
g4
sg37
(dp1476
sg39
(dp1477
sg41
I780
sg42
g21
sg43
g21
sg44
I143
sg45
g1448
sg47
I143
sg48
I781
sbag0
(g23
g2
Ntp1478
Rp1479
(dp1480
g27
(dp1481
g29
Veconomist
p1482
sg31
VO
p1483
sg33
VNN
p1484
sg35
I44
ssg10
I144
sg36
g4
sg37
(dp1485
sg39
(dp1486
sg41
I782
sg42
g21
sg43
g21
sg44
I144
sg45
Veconomist
p1487
sg47
I144
sg48
I791
sbag0
(g23
g2
Ntp1488
Rp1489
(dp1490
g27
(dp1491
g29
V.
p1492
sg31
VO
p1493
sg33
V.
p1494
sg35
I45
ssg10
I145
sg36
g4
sg37
(dp1495
sg39
(dp1496
sg41
I791
sg42
g21
sg43
g21
sg44
I145
sg45
V.
p1497
sg47
I145
sg48
I792
sbag0
(g23
g2
Ntp1498
Rp1499
(dp1500
g27
(dp1501
g29
VJames
p1502
sg31
VPERSON
p1503
sg33
VNNP
p1504
sg35
I1
ssg10
I146
sg36
g4
sg37
(dp1505
sg39
(dp1506
sg41
I794
sg42
g21
sg43
g21
sg44
I146
sg45
VJames
p1507
sg47
I146
sg48
I799
sbag0
(g23
g2
Ntp1508
Rp1509
(dp1510
g27
(dp1511
g29
VShikwati
p1512
sg31
VPERSON
p1513
sg33
VNNP
p1514
sg35
I2
ssg10
I147
sg36
g4
sg37
(dp1515
sg39
(dp1516
sg41
I800
sg42
g21
sg43
g21
sg44
I147
sg45
VShikwati
p1517
sg47
I147
sg48
I808
sbag0
(g23
g2
Ntp1518
Rp1519
(dp1520
g27
(dp1521
g29
Vbe
p1522
sg31
VO
p1523
sg33
VVBZ
p1524
sg35
I3
ssg10
I148
sg36
g4
sg37
(dp1525
sg39
(dp1526
sg41
I809
sg42
g21
sg43
g21
sg44
I148
sg45
Vis
p1527
sg47
I148
sg48
I811
sbag0
(g23
g2
Ntp1528
Rp1529
(dp1530
g27
(dp1531
g29
Va
p1532
sg31
VO
p1533
sg33
VDT
p1534
sg35
I4
ssg10
I149
sg36
g4
sg37
(dp1535
sg39
(dp1536
sg41
I812
sg42
g21
sg43
g21
sg44
I149
sg45
Va
p1537
sg47
I149
sg48
I813
sbag0
(g23
g2
Ntp1538
Rp1539
(dp1540
g27
(dp1541
g29
Vwriter
p1542
sg31
VO
p1543
sg33
VNN
p1544
sg35
I5
ssg10
I150
sg36
g4
sg37
(dp1545
sg39
(dp1546
sg41
I814
sg42
g21
sg43
g21
sg44
I150
sg45
Vwriter
p1547
sg47
I150
sg48
I820
sbag0
(g23
g2
Ntp1548
Rp1549
(dp1550
g27
(dp1551
g29
Vand
p1552
sg31
VO
p1553
sg33
VCC
p1554
sg35
I6
ssg10
I151
sg36
g4
sg37
(dp1555
sg39
(dp1556
sg41
I821
sg42
g21
sg43
g21
sg44
I151
sg45
Vand
p1557
sg47
I151
sg48
I824
sbag0
(g23
g2
Ntp1558
Rp1559
(dp1560
g27
(dp1561
g29
Va
p1562
sg31
VO
p1563
sg33
VDT
p1564
sg35
I7
ssg10
I152
sg36
g4
sg37
(dp1565
sg39
(dp1566
sg41
I821
sg42
g21
sg43
g21
sg44
I152
sg45
Va
p1567
sg47
I152
sg48
I822
sbag0
(g23
g2
Ntp1568
Rp1569
(dp1570
g27
(dp1571
g29
Vcommentator
p1572
sg31
VO
p1573
sg33
VNN
p1574
sg35
I8
ssg10
I153
sg36
g4
sg37
(dp1575
sg39
(dp1576
sg41
I827
sg42
g21
sg43
g21
sg44
I153
sg45
Vcommentator
p1577
sg47
I153
sg48
I838
sbag0
(g23
g2
Ntp1578
Rp1579
(dp1580
g27
(dp1581
g29
Von
p1582
sg31
VO
p1583
sg33
VIN
p1584
sg35
I9
ssg10
I154
sg36
g4
sg37
(dp1585
sg39
(dp1586
sg41
I839
sg42
g21
sg43
g21
sg44
I154
sg45
Von
p1587
sg47
I154
sg48
I841
sbag0
(g23
g2
Ntp1588
Rp1589
(dp1590
g27
(dp1591
g29
Vpublic
p1592
sg31
VO
p1593
sg33
VJJ
p1594
sg35
I10
ssg10
I155
sg36
g4
sg37
(dp1595
sg39
(dp1596
sg41
I842
sg42
g21
sg43
g21
sg44
I155
sg45
Vpublic
p1597
sg47
I155
sg48
I848
sbag0
(g23
g2
Ntp1598
Rp1599
(dp1600
g27
(dp1601
g29
Vpolicy
p1602
sg31
VO
p1603
sg33
VNN
p1604
sg35
I11
ssg10
I156
sg36
g4
sg37
(dp1605
sg39
(dp1606
sg41
I849
sg42
g21
sg43
g21
sg44
I156
sg45
Vpolicy
p1607
sg47
I156
sg48
I855
sbag0
(g23
g2
Ntp1608
Rp1609
(dp1610
g27
(dp1611
g29
Vwith
p1612
sg31
VO
p1613
sg33
VIN
p1614
sg35
I12
ssg10
I157
sg36
g4
sg37
(dp1615
sg39
(dp1616
sg41
I856
sg42
g21
sg43
g21
sg44
I157
sg45
Vwith
p1617
sg47
I157
sg48
I860
sbag0
(g23
g2
Ntp1618
Rp1619
(dp1620
g27
(dp1621
g29
Va
p1622
sg31
VO
p1623
sg33
VDT
p1624
sg35
I13
ssg10
I158
sg36
g4
sg37
(dp1625
sg39
(dp1626
sg41
I861
sg42
g21
sg43
g21
sg44
I158
sg45
Va
p1627
sg47
I158
sg48
I862
sbag0
(g23
g2
Ntp1628
Rp1629
(dp1630
g27
(dp1631
g29
Vspecial
p1632
sg31
VO
p1633
sg33
VJJ
p1634
sg35
I14
ssg10
I159
sg36
g4
sg37
(dp1635
sg39
(dp1636
sg41
I863
sg42
g21
sg43
g21
sg44
I159
sg45
Vspecial
p1637
sg47
I159
sg48
I870
sbag0
(g23
g2
Ntp1638
Rp1639
(dp1640
g27
(dp1641
g29
Vinterest
p1642
sg31
VO
p1643
sg33
VNN
p1644
sg35
I15
ssg10
I160
sg36
g4
sg37
(dp1645
sg39
(dp1646
sg41
I871
sg42
g21
sg43
g21
sg44
I160
sg45
Vinterest
p1647
sg47
I160
sg48
I879
sbag0
(g23
g2
Ntp1648
Rp1649
(dp1650
g27
(dp1651
g29
Vin
p1652
sg31
VO
p1653
sg33
VIN
p1654
sg35
I16
ssg10
I161
sg36
g4
sg37
(dp1655
sg39
(dp1656
sg41
I871
sg42
g21
sg43
g21
sg44
I161
sg45
Vin
p1657
sg47
I161
sg48
I873
sbag0
(g23
g2
Ntp1658
Rp1659
(dp1660
g27
(dp1661
g29
Vdevelopment
p1662
sg31
VO
p1663
sg33
VNN
p1664
sg35
I17
ssg10
I162
sg36
g4
sg37
(dp1665
sg39
(dp1666
sg41
I883
sg42
g21
sg43
g21
sg44
I162
sg45
Vdevelopment
p1667
sg47
I162
sg48
I894
sbag0
(g23
g2
Ntp1668
Rp1669
(dp1670
g27
(dp1671
g29
V,
p1672
sg31
VO
p1673
sg33
V,
p1674
sg35
I18
ssg10
I163
sg36
g4
sg37
(dp1675
sg39
(dp1676
sg41
I894
sg42
g21
sg43
g21
sg44
I163
sg45
V,
p1677
sg47
I163
sg48
I895
sbag0
(g23
g2
Ntp1678
Rp1679
(dp1680
g27
(dp1681
g29
Venvironment
p1682
sg31
VO
p1683
sg33
VNN
p1684
sg35
I19
ssg10
I164
sg36
g4
sg37
(dp1685
sg39
(dp1686
sg41
I896
sg42
g21
sg43
g21
sg44
I164
sg45
Venvironment
p1687
sg47
I164
sg48
I907
sbag0
(g23
g2
Ntp1688
Rp1689
(dp1690
g27
(dp1691
g29
V,
p1692
sg31
VO
p1693
sg33
V,
p1694
sg35
I20
ssg10
I165
sg36
g4
sg37
(dp1695
sg39
(dp1696
sg41
I907
sg42
g21
sg43
g21
sg44
I165
sg45
V,
p1697
sg47
I165
sg48
I908
sbag0
(g23
g2
Ntp1698
Rp1699
(dp1700
g27
(dp1701
g29
Vtrade
p1702
sg31
VO
p1703
sg33
VNN
p1704
sg35
I21
ssg10
I166
sg36
g4
sg37
(dp1705
sg39
(dp1706
sg41
I909
sg42
g21
sg43
g21
sg44
I166
sg45
Vtrade
p1707
sg47
I166
sg48
I914
sbag0
(g23
g2
Ntp1708
Rp1709
(dp1710
g27
(dp1711
g29
Vand
p1712
sg31
VO
p1713
sg33
VCC
p1714
sg35
I22
ssg10
I167
sg36
g4
sg37
(dp1715
sg39
(dp1716
sg41
I915
sg42
g21
sg43
g21
sg44
I167
sg45
Vand
p1717
sg47
I167
sg48
I918
sbag0
(g23
g2
Ntp1718
Rp1719
(dp1720
g27
(dp1721
g29
Vagriculture
p1722
sg31
VO
p1723
sg33
VNN
p1724
sg35
I23
ssg10
I168
sg36
g4
sg37
(dp1725
sg39
(dp1726
sg41
I919
sg42
g21
sg43
g21
sg44
I168
sg45
Vagriculture
p1727
sg47
I168
sg48
I930
sbag0
(g23
g2
Ntp1728
Rp1729
(dp1730
g27
(dp1731
g29
Vrelated
p1732
sg31
VO
p1733
sg33
VJJ
p1734
sg35
I24
ssg10
I169
sg36
g4
sg37
(dp1735
sg39
(dp1736
sg41
I931
sg42
g21
sg43
g21
sg44
I169
sg45
Vrelated
p1737
sg47
I169
sg48
I938
sbag0
(g23
g2
Ntp1738
Rp1739
(dp1740
g27
(dp1741
g29
Vissue
p1742
sg31
VO
p1743
sg33
VNNS
p1744
sg35
I25
ssg10
I170
sg36
g4
sg37
(dp1745
sg39
(dp1746
sg41
I939
sg42
g21
sg43
g21
sg44
I170
sg45
Vissues
p1747
sg47
I170
sg48
I945
sbag0
(g23
g2
Ntp1748
Rp1749
(dp1750
g27
(dp1751
g29
V.
p1752
sg31
VO
p1753
sg33
V.
p1754
sg35
I26
ssg10
I171
sg36
g4
sg37
(dp1755
sg39
(dp1756
sg41
I945
sg42
g21
sg43
g21
sg44
I171
sg45
V.
p1757
sg47
I171
sg48
I946
sbag0
(g23
g2
Ntp1758
Rp1759
(dp1760
g27
(dp1761
g29
Vhe
p1762
sg31
VO
p1763
sg33
VPRP
p1764
sg35
I1
ssg10
I172
sg36
g4
sg37
(dp1765
sg39
(dp1766
sg41
I947
sg42
g21
sg43
g21
sg44
I172
sg45
VHe
p1767
sg47
I172
sg48
I949
sbag0
(g23
g2
Ntp1768
Rp1769
(dp1770
g27
(dp1771
g29
Vhave
p1772
sg31
VO
p1773
sg33
VVBZ
p1774
sg35
I2
ssg10
I173
sg36
g4
sg37
(dp1775
sg39
(dp1776
sg41
I950
sg42
g21
sg43
g21
sg44
I173
sg45
Vhas
p1777
sg47
I173
sg48
I953
sbag0
(g23
g2
Ntp1778
Rp1779
(dp1780
g27
(dp1781
g29
Vwrite
p1782
sg31
VO
p1783
sg33
VVBN
p1784
sg35
I3
ssg10
I174
sg36
g4
sg37
(dp1785
sg39
(dp1786
sg41
I954
sg42
g21
sg43
g21
sg44
I174
sg45
Vwritten
p1787
sg47
I174
sg48
I961
sbag0
(g23
g2
Ntp1788
Rp1789
(dp1790
g27
(dp1791
g29
Vwidely
p1792
sg31
VO
p1793
sg33
VRB
p1794
sg35
I4
ssg10
I175
sg36
g4
sg37
(dp1795
sg39
(dp1796
sg41
I962
sg42
g21
sg43
g21
sg44
I175
sg45
Vwidely
p1797
sg47
I175
sg48
I968
sbag0
(g23
g2
Ntp1798
Rp1799
(dp1800
g27
(dp1801
g29
Von
p1802
sg31
VO
p1803
sg33
VIN
p1804
sg35
I5
ssg10
I176
sg36
g4
sg37
(dp1805
sg39
(dp1806
sg41
I969
sg42
g21
sg43
g21
sg44
I176
sg45
Von
p1807
sg47
I176
sg48
I971
sbag0
(g23
g2
Ntp1808
Rp1809
(dp1810
g27
(dp1811
g29
Va
p1812
sg31
VO
p1813
sg33
VDT
p1814
sg35
I6
ssg10
I177
sg36
g4
sg37
(dp1815
sg39
(dp1816
sg41
I972
sg42
g21
sg43
g21
sg44
I177
sg45
Va
p1817
sg47
I177
sg48
I973
sbag0
(g23
g2
Ntp1818
Rp1819
(dp1820
g27
(dp1821
g29
Vvariety
p1822
sg31
VO
p1823
sg33
VNN
p1824
sg35
I7
ssg10
I178
sg36
g4
sg37
(dp1825
sg39
(dp1826
sg41
I974
sg42
g21
sg43
g21
sg44
I178
sg45
Vvariety
p1827
sg47
I178
sg48
I981
sbag0
(g23
g2
Ntp1828
Rp1829
(dp1830
g27
(dp1831
g29
Vof
p1832
sg31
VO
p1833
sg33
VIN
p1834
sg35
I8
ssg10
I179
sg36
g4
sg37
(dp1835
sg39
(dp1836
sg41
I982
sg42
g21
sg43
g21
sg44
I179
sg45
Vof
p1837
sg47
I179
sg48
I984
sbag0
(g23
g2
Ntp1838
Rp1839
(dp1840
g27
(dp1841
g29
Vsubject
p1842
sg31
VO
p1843
sg33
VNNS
p1844
sg35
I9
ssg10
I180
sg36
g4
sg37
(dp1845
sg39
(dp1846
sg41
I985
sg42
g21
sg43
g21
sg44
I180
sg45
Vsubjects
p1847
sg47
I180
sg48
I993
sbag0
(g23
g2
Ntp1848
Rp1849
(dp1850
g27
(dp1851
g29
Vin
p1852
sg31
VO
p1853
sg33
VIN
p1854
sg35
I10
ssg10
I181
sg36
g4
sg37
(dp1855
sg39
(dp1856
sg41
I994
sg42
g21
sg43
g21
sg44
I181
sg45
Vin
p1857
sg47
I181
sg48
I996
sbag0
(g23
g2
Ntp1858
Rp1859
(dp1860
g27
(dp1861
g29
Vkenyan
p1862
sg31
VMISC
p1863
sg33
VJJ
p1864
sg35
I11
ssg10
I182
sg36
g4
sg37
(dp1865
sg39
(dp1866
sg41
I997
sg42
g21
sg43
g21
sg44
I182
sg45
VKenyan
p1867
sg47
I182
sg48
I1003
sbag0
(g23
g2
Ntp1868
Rp1869
(dp1870
g27
(dp1871
g29
Vand
p1872
sg31
VO
p1873
sg33
VCC
p1874
sg35
I12
ssg10
I183
sg36
g4
sg37
(dp1875
sg39
(dp1876
sg41
I1004
sg42
g21
sg43
g21
sg44
I183
sg45
Vand
p1877
sg47
I183
sg48
I1007
sbag0
(g23
g2
Ntp1878
Rp1879
(dp1880
g27
(dp1881
g29
Vinternational
p1882
sg31
VO
p1883
sg33
VJJ
p1884
sg35
I13
ssg10
I184
sg36
g4
sg37
(dp1885
sg39
(dp1886
sg41
I1008
sg42
g21
sg43
g21
sg44
I184
sg45
Vinternational
p1887
sg47
I184
sg48
I1021
sbag0
(g23
g2
Ntp1888
Rp1889
(dp1890
g27
(dp1891
g29
Vnewspaper
p1892
sg31
VO
p1893
sg33
VNNS
p1894
sg35
I14
ssg10
I185
sg36
g4
sg37
(dp1895
sg39
(dp1896
sg41
I1022
sg42
g21
sg43
g21
sg44
I185
sg45
Vnewspapers
p1897
sg47
I185
sg48
I1032
sbag0
(g23
g2
Ntp1898
Rp1899
(dp1900
g27
(dp1901
g29
V,
p1902
sg31
VO
p1903
sg33
V,
p1904
sg35
I15
ssg10
I186
sg36
g4
sg37
(dp1905
sg39
(dp1906
sg41
I1032
sg42
g21
sg43
g21
sg44
I186
sg45
V,
p1907
sg47
I186
sg48
I1033
sbag0
(g23
g2
Ntp1908
Rp1909
(dp1910
g27
(dp1911
g29
Vmagazine
p1912
sg31
VO
p1913
sg33
VNNS
p1914
sg35
I16
ssg10
I187
sg36
g4
sg37
(dp1915
sg39
(dp1916
sg41
I1034
sg42
g21
sg43
g21
sg44
I187
sg45
Vmagazines
p1917
sg47
I187
sg48
I1043
sbag0
(g23
g2
Ntp1918
Rp1919
(dp1920
g27
(dp1921
g29
V,
p1922
sg31
VO
p1923
sg33
V,
p1924
sg35
I17
ssg10
I188
sg36
g4
sg37
(dp1925
sg39
(dp1926
sg41
I1043
sg42
g21
sg43
g21
sg44
I188
sg45
V,
p1927
sg47
I188
sg48
I1044
sbag0
(g23
g2
Ntp1928
Rp1929
(dp1930
g27
(dp1931
g29
Vsuch
p1932
sg31
VO
p1933
sg33
VJJ
p1934
sg35
I18
ssg10
I189
sg36
g4
sg37
(dp1935
sg39
(dp1936
sg41
I1045
sg42
g21
sg43
g21
sg44
I189
sg45
Vsuch
p1937
sg47
I189
sg48
I1049
sbag0
(g23
g2
Ntp1938
Rp1939
(dp1940
g27
(dp1941
g29
Vas
p1942
sg31
VO
p1943
sg33
VIN
p1944
sg35
I19
ssg10
I190
sg36
g4
sg37
(dp1945
sg39
(dp1946
sg41
I1050
sg42
g21
sg43
g21
sg44
I190
sg45
Vas
p1947
sg47
I190
sg48
I1052
sbag0
(g23
g2
Ntp1948
Rp1949
(dp1950
g27
(dp1951
g29
Vthe
p1952
sg31
VO
p1953
sg33
VDT
p1954
sg35
I20
ssg10
I191
sg36
g4
sg37
(dp1955
sg39
(dp1956
sg41
I1053
sg42
g21
sg43
g21
sg44
I191
sg45
VThe
p1957
sg47
I191
sg48
I1056
sbag0
(g23
g2
Ntp1958
Rp1959
(dp1960
g27
(dp1961
g29
VTimes
p1962
sg31
VO
p1963
sg33
VNNP
p1964
sg35
I21
ssg10
I192
sg36
g4
sg37
(dp1965
sg39
(dp1966
sg41
I1057
sg42
g21
sg43
g21
sg44
I192
sg45
VTimes
p1967
sg47
I192
sg48
I1062
sbag0
(g23
g2
Ntp1968
Rp1969
(dp1970
g27
(dp1971
g29
V,
p1972
sg31
VO
p1973
sg33
V,
p1974
sg35
I22
ssg10
I193
sg36
g4
sg37
(dp1975
sg39
(dp1976
sg41
I1062
sg42
g21
sg43
g21
sg44
I193
sg45
V,
p1977
sg47
I193
sg48
I1063
sbag0
(g23
g2
Ntp1978
Rp1979
(dp1980
g27
(dp1981
g29
Vthe
p1982
sg31
VO
p1983
sg33
VDT
p1984
sg35
I23
ssg10
I194
sg36
g4
sg37
(dp1985
sg39
(dp1986
sg41
I1064
sg42
g21
sg43
g21
sg44
I194
sg45
VThe
p1987
sg47
I194
sg48
I1067
sbag0
(g23
g2
Ntp1988
Rp1989
(dp1990
g27
(dp1991
g29
VGuardian
p1992
sg31
VO
p1993
sg33
VNNP
p1994
sg35
I24
ssg10
I195
sg36
g4
sg37
(dp1995
sg39
(dp1996
sg41
I1068
sg42
g21
sg43
g21
sg44
I195
sg45
VGuardian
p1997
sg47
I195
sg48
I1076
sbag0
(g23
g2
Ntp1998
Rp1999
(dp2000
g27
(dp2001
g29
V,
p2002
sg31
VO
p2003
sg33
V,
p2004
sg35
I25
ssg10
I196
sg36
g4
sg37
(dp2005
sg39
(dp2006
sg41
I1076
sg42
g21
sg43
g21
sg44
I196
sg45
V,
p2007
sg47
I196
sg48
I1077
sbag0
(g23
g2
Ntp2008
Rp2009
(dp2010
g27
(dp2011
g29
VThe
p2012
sg31
VO
p2013
sg33
VNNP
p2014
sg35
I26
ssg10
I197
sg36
g4
sg37
(dp2015
sg39
(dp2016
sg41
I1078
sg42
g21
sg43
g21
sg44
I197
sg45
VThe
p2017
sg47
I197
sg48
I1081
sbag0
(g23
g2
Ntp2018
Rp2019
(dp2020
g27
(dp2021
g29
VWall
p2022
sg31
VORGANIZATION
p2023
sg33
VNNP
p2024
sg35
I27
ssg10
I198
sg36
g4
sg37
(dp2025
sg39
(dp2026
sg41
I1082
sg42
g21
sg43
g21
sg44
I198
sg45
VWall
p2027
sg47
I198
sg48
I1086
sbag0
(g23
g2
Ntp2028
Rp2029
(dp2030
g27
(dp2031
g29
VStreet
p2032
sg31
VORGANIZATION
p2033
sg33
VNNP
p2034
sg35
I28
ssg10
I199
sg36
g4
sg37
(dp2035
sg39
(dp2036
sg41
I1087
sg42
g21
sg43
g21
sg44
I199
sg45
VStreet
p2037
sg47
I199
sg48
I1093
sbag0
(g23
g2
Ntp2038
Rp2039
(dp2040
g27
(dp2041
g29
VJournal
p2042
sg31
VORGANIZATION
p2043
sg33
VNNP
p2044
sg35
I29
ssg10
I200
sg36
g4
sg37
(dp2045
sg39
(dp2046
sg41
I1094
sg42
g21
sg43
g21
sg44
I200
sg45
VJournal
p2047
sg47
I200
sg48
I1101
sbag0
(g23
g2
Ntp2048
Rp2049
(dp2050
g27
(dp2051
g29
V,
p2052
sg31
VO
p2053
sg33
V,
p2054
sg35
I30
ssg10
I201
sg36
g4
sg37
(dp2055
sg39
(dp2056
sg41
I1101
sg42
g21
sg43
g21
sg44
I201
sg45
V,
p2057
sg47
I201
sg48
I1102
sbag0
(g23
g2
Ntp2058
Rp2059
(dp2060
g27
(dp2061
g29
Vthe
p2062
sg31
VO
p2063
sg33
VDT
p2064
sg35
I31
ssg10
I202
sg36
g4
sg37
(dp2065
sg39
(dp2066
sg41
I1103
sg42
g21
sg43
g21
sg44
I202
sg45
VThe
p2067
sg47
I202
sg48
I1106
sbag0
(g23
g2
Ntp2068
Rp2069
(dp2070
g27
(dp2071
g29
VWashington
p2072
sg31
VORGANIZATION
p2073
sg33
VNNP
p2074
sg35
I32
ssg10
I203
sg36
g4
sg37
(dp2075
sg39
(dp2076
sg41
I1107
sg42
g21
sg43
g21
sg44
I203
sg45
VWashington
p2077
sg47
I203
sg48
I1117
sbag0
(g23
g2
Ntp2078
Rp2079
(dp2080
g27
(dp2081
g29
VPost
p2082
sg31
VORGANIZATION
p2083
sg33
VNNP
p2084
sg35
I33
ssg10
I204
sg36
g4
sg37
(dp2085
sg39
(dp2086
sg41
I1118
sg42
g21
sg43
g21
sg44
I204
sg45
VPost
p2087
sg47
I204
sg48
I1122
sbag0
(g23
g2
Ntp2088
Rp2089
(dp2090
g27
(dp2091
g29
V,
p2092
sg31
VO
p2093
sg33
V,
p2094
sg35
I34
ssg10
I205
sg36
g4
sg37
(dp2095
sg39
(dp2096
sg41
I1122
sg42
g21
sg43
g21
sg44
I205
sg45
V,
p2097
sg47
I205
sg48
I1123
sbag0
(g23
g2
Ntp2098
Rp2099
(dp2100
g27
(dp2101
g29
Vthe
p2102
sg31
VO
p2103
sg33
VDT
p2104
sg35
I35
ssg10
I206
sg36
g4
sg37
(dp2105
sg39
(dp2106
sg41
I1124
sg42
g21
sg43
g21
sg44
I206
sg45
VThe
p2107
sg47
I206
sg48
I1127
sbag0
(g23
g2
Ntp2108
Rp2109
(dp2110
g27
(dp2111
g29
VSydney
p2112
sg31
VLOCATION
p2113
sg33
VNNP
p2114
sg35
I36
ssg10
I207
sg36
g4
sg37
(dp2115
sg39
(dp2116
sg41
I1128
sg42
g21
sg43
g21
sg44
I207
sg45
VSydney
p2117
sg47
I207
sg48
I1134
sbag0
(g23
g2
Ntp2118
Rp2119
(dp2120
g27
(dp2121
g29
Vmorning
p2122
sg31
VTIME
p2123
sg33
VNN
p2124
sg35
I37
ssg10
I208
sg36
g4
sg37
(dp2125
sg39
(dp2126
sg41
I1135
sg42
g21
sg43
g21
sg44
I208
sg45
VMorning
p2127
sg47
I208
sg48
I1142
sbag0
(g23
g2
Ntp2128
Rp2129
(dp2130
g27
(dp2131
g29
VHerald
p2132
sg31
VO
p2133
sg33
VNNP
p2134
sg35
I38
ssg10
I209
sg36
g4
sg37
(dp2135
sg39
(dp2136
sg41
I1143
sg42
g21
sg43
g21
sg44
I209
sg45
VHerald
p2137
sg47
I209
sg48
I1149
sbag0
(g23
g2
Ntp2138
Rp2139
(dp2140
g27
(dp2141
g29
V,
p2142
sg31
VO
p2143
sg33
V,
p2144
sg35
I39
ssg10
I210
sg36
g4
sg37
(dp2145
sg39
(dp2146
sg41
I1149
sg42
g21
sg43
g21
sg44
I210
sg45
V,
p2147
sg47
I210
sg48
I1150
sbag0
(g23
g2
Ntp2148
Rp2149
(dp2150
g27
(dp2151
g29
VThe
p2152
sg31
VO
p2153
sg33
VNNP
p2154
sg35
I40
ssg10
I211
sg36
g4
sg37
(dp2155
sg39
(dp2156
sg41
I1151
sg42
g21
sg43
g21
sg44
I211
sg45
VThe
p2157
sg47
I211
sg48
I1154
sbag0
(g23
g2
Ntp2158
Rp2159
(dp2160
g27
(dp2161
g29
VBusiness
p2162
sg31
VO
p2163
sg33
VNNP
p2164
sg35
I41
ssg10
I212
sg36
g4
sg37
(dp2165
sg39
(dp2166
sg41
I1155
sg42
g21
sg43
g21
sg44
I212
sg45
VBusiness
p2167
sg47
I212
sg48
I1163
sbag0
(g23
g2
Ntp2168
Rp2169
(dp2170
g27
(dp2171
g29
VNews
p2172
sg31
VO
p2173
sg33
VNNP
p2174
sg35
I42
ssg10
I213
sg36
g4
sg37
(dp2175
sg39
(dp2176
sg41
I1164
sg42
g21
sg43
g21
sg44
I213
sg45
VNews
p2177
sg47
I213
sg48
I1168
sbag0
(g23
g2
Ntp2178
Rp2179
(dp2180
g27
(dp2181
g29
V,
p2182
sg31
VO
p2183
sg33
V,
p2184
sg35
I43
ssg10
I214
sg36
g4
sg37
(dp2185
sg39
(dp2186
sg41
I1168
sg42
g21
sg43
g21
sg44
I214
sg45
V,
p2187
sg47
I214
sg48
I1169
sbag0
(g23
g2
Ntp2188
Rp2189
(dp2190
g27
(dp2191
g29
Vthe
p2192
sg31
VO
p2193
sg33
VDT
p2194
sg35
I44
ssg10
I215
sg36
g4
sg37
(dp2195
sg39
(dp2196
sg41
I1170
sg42
g21
sg43
g21
sg44
I215
sg45
VThe
p2197
sg47
I215
sg48
I1173
sbag0
(g23
g2
Ntp2198
Rp2199
(dp2200
g27
(dp2201
g29
VDaily
p2202
sg31
VSET
p2203
sg33
VNNP
p2204
sg35
I45
ssg10
I216
sg36
g4
sg37
(dp2205
sg39
(dp2206
sg41
I1174
sg42
g21
sg43
g21
sg44
I216
sg45
VDaily
p2207
sg47
I216
sg48
I1179
sbag0
(g23
g2
Ntp2208
Rp2209
(dp2210
g27
(dp2211
g29
VNation
p2212
sg31
VO
p2213
sg33
VNNP
p2214
sg35
I46
ssg10
I217
sg36
g4
sg37
(dp2215
sg39
(dp2216
sg41
I1180
sg42
g21
sg43
g21
sg44
I217
sg45
VNation
p2217
sg47
I217
sg48
I1186
sbag0
(g23
g2
Ntp2218
Rp2219
(dp2220
g27
(dp2221
g29
V,
p2222
sg31
VO
p2223
sg33
V,
p2224
sg35
I47
ssg10
I218
sg36
g4
sg37
(dp2225
sg39
(dp2226
sg41
I1186
sg42
g21
sg43
g21
sg44
I218
sg45
V,
p2227
sg47
I218
sg48
I1187
sbag0
(g23
g2
Ntp2228
Rp2229
(dp2230
g27
(dp2231
g29
VThe
p2232
sg31
VO
p2233
sg33
VNNP
p2234
sg35
I48
ssg10
I219
sg36
g4
sg37
(dp2235
sg39
(dp2236
sg41
I1188
sg42
g21
sg43
g21
sg44
I219
sg45
VThe
p2237
sg47
I219
sg48
I1191
sbag0
(g23
g2
Ntp2238
Rp2239
(dp2240
g27
(dp2241
g29
VEast
p2242
sg31
VMISC
p2243
sg33
VNNP
p2244
sg35
I49
ssg10
I220
sg36
g4
sg37
(dp2245
sg39
(dp2246
sg41
I1192
sg42
g21
sg43
g21
sg44
I220
sg45
VEast
p2247
sg47
I220
sg48
I1196
sbag0
(g23
g2
Ntp2248
Rp2249
(dp2250
g27
(dp2251
g29
VAfrican
p2252
sg31
VMISC
p2253
sg33
VNNP
p2254
sg35
I50
ssg10
I221
sg36
g4
sg37
(dp2255
sg39
(dp2256
sg41
I1197
sg42
g21
sg43
g21
sg44
I221
sg45
VAfrican
p2257
sg47
I221
sg48
I1204
sbag0
(g23
g2
Ntp2258
Rp2259
(dp2260
g27
(dp2261
g29
VStandard
p2262
sg31
VMISC
p2263
sg33
VNNP
p2264
sg35
I51
ssg10
I222
sg36
g4
sg37
(dp2265
sg39
(dp2266
sg41
I1205
sg42
g21
sg43
g21
sg44
I222
sg45
VStandard
p2267
sg47
I222
sg48
I1213
sbag0
(g23
g2
Ntp2268
Rp2269
(dp2270
g27
(dp2271
g29
Vand
p2272
sg31
VO
p2273
sg33
VCC
p2274
sg35
I52
ssg10
I223
sg36
g4
sg37
(dp2275
sg39
(dp2276
sg41
I1207
sg42
g21
sg43
g21
sg44
I223
sg45
Vand
p2277
sg47
I223
sg48
I1210
sbag0
(g23
g2
Ntp2278
Rp2279
(dp2280
g27
(dp2281
g29
Vthe
p2282
sg31
VO
p2283
sg33
VDT
p2284
sg35
I53
ssg10
I224
sg36
g4
sg37
(dp2285
sg39
(dp2286
sg41
I1218
sg42
g21
sg43
g21
sg44
I224
sg45
VThe
p2287
sg47
I224
sg48
I1221
sbag0
(g23
g2
Ntp2288
Rp2289
(dp2290
g27
(dp2291
g29
VAfrican
p2292
sg31
VO
p2293
sg33
VNNP
p2294
sg35
I54
ssg10
I225
sg36
g4
sg37
(dp2295
sg39
(dp2296
sg41
I1222
sg42
g21
sg43
g21
sg44
I225
sg45
VAfrican
p2297
sg47
I225
sg48
I1229
sbag0
(g23
g2
Ntp2298
Rp2299
(dp2300
g27
(dp2301
g29
VExecutive
p2302
sg31
VO
p2303
sg33
VNNP
p2304
sg35
I55
ssg10
I226
sg36
g4
sg37
(dp2305
sg39
(dp2306
sg41
I1230
sg42
g21
sg43
g21
sg44
I226
sg45
VExecutive
p2307
sg47
I226
sg48
I1239
sbag0
(g23
g2
Ntp2308
Rp2309
(dp2310
g27
(dp2311
g29
V.
p2312
sg31
VO
p2313
sg33
V.
p2314
sg35
I56
ssg10
I227
sg36
g4
sg37
(dp2315
sg39
(dp2316
sg41
I1239
sg42
g21
sg43
g21
sg44
I227
sg45
V.
p2317
sg47
I227
sg48
I1240
sbag0
(g23
g2
Ntp2318
Rp2319
(dp2320
g27
(dp2321
g29
VMr.
p2322
sg31
VO
p2323
sg33
VNNP
p2324
sg35
I1
ssg10
I228
sg36
g4
sg37
(dp2325
sg39
(dp2326
sg41
I1243
sg42
g21
sg43
g21
sg44
I228
sg45
VMr.
p2327
sg47
I228
sg48
I1246
sbag0
(g23
g2
Ntp2328
Rp2329
(dp2330
g27
(dp2331
g29
VShikwati
p2332
sg31
VPERSON
p2333
sg33
VNNP
p2334
sg35
I2
ssg10
I229
sg36
g4
sg37
(dp2335
sg39
(dp2336
sg41
I1247
sg42
g21
sg43
g21
sg44
I229
sg45
VShikwati
p2337
sg47
I229
sg48
I1255
sbag0
(g23
g2
Ntp2338
Rp2339
(dp2340
g27
(dp2341
g29
Vbe
p2342
sg31
VO
p2343
sg33
VVBD
p2344
sg35
I3
ssg10
I230
sg36
g4
sg37
(dp2345
sg39
(dp2346
sg41
I1256
sg42
g21
sg43
g21
sg44
I230
sg45
Vwas
p2347
sg47
I230
sg48
I1259
sbag0
(g23
g2
Ntp2348
Rp2349
(dp2350
g27
(dp2351
g29
Valso
p2352
sg31
VO
p2353
sg33
VRB
p2354
sg35
I4
ssg10
I231
sg36
g4
sg37
(dp2355
sg39
(dp2356
sg41
I1260
sg42
g21
sg43
g21
sg44
I231
sg45
Valso
p2357
sg47
I231
sg48
I1264
sbag0
(g23
g2
Ntp2358
Rp2359
(dp2360
g27
(dp2361
g29
Vfeature
p2362
sg31
VO
p2363
sg33
VVBN
p2364
sg35
I5
ssg10
I232
sg36
g4
sg37
(dp2365
sg39
(dp2366
sg41
I1265
sg42
g21
sg43
g21
sg44
I232
sg45
Vfeatured
p2367
sg47
I232
sg48
I1273
sbag0
(g23
g2
Ntp2368
Rp2369
(dp2370
g27
(dp2371
g29
Vin
p2372
sg31
VO
p2373
sg33
VIN
p2374
sg35
I6
ssg10
I233
sg36
g4
sg37
(dp2375
sg39
(dp2376
sg41
I1274
sg42
g21
sg43
g21
sg44
I233
sg45
Vin
p2377
sg47
I233
sg48
I1276
sbag0
(g23
g2
Ntp2378
Rp2379
(dp2380
g27
(dp2381
g29
Va
p2382
sg31
VO
p2383
sg33
VDT
p2384
sg35
I7
ssg10
I234
sg36
g4
sg37
(dp2385
sg39
(dp2386
sg41
I1277
sg42
g21
sg43
g21
sg44
I234
sg45
Va
p2387
sg47
I234
sg48
I1278
sbag0
(g23
g2
Ntp2388
Rp2389
(dp2390
g27
(dp2391
g29
VNovember
p2392
sg31
VDATE
p2393
sg33
VNNP
p2394
sg35
I8
ssg10
I235
sg36
g4
sg37
(dp2395
sg39
(dp2396
sg41
I1279
sg42
g21
sg43
g21
sg44
I235
sg45
VNovember
p2397
sg47
I235
sg48
I1287
sbag0
(g23
g2
Ntp2398
Rp2399
(dp2400
g27
(dp2401
g29
V18
p2402
sg31
VDATE
p2403
sg33
VCD
p2404
sg35
I9
ssg10
I236
sg36
g4
sg37
(dp2405
sg39
(dp2406
sg41
I1288
sg42
g21
sg43
g21
sg44
I236
sg45
V18
p2407
sg47
I236
sg48
I1290
sbag0
(g23
g2
Ntp2408
Rp2409
(dp2410
g27
(dp2411
g29
V,
p2412
sg31
VDATE
p2413
sg33
V,
p2414
sg35
I10
ssg10
I237
sg36
g4
sg37
(dp2415
sg39
(dp2416
sg41
I1290
sg42
g21
sg43
g21
sg44
I237
sg45
V,
p2417
sg47
I237
sg48
I1291
sbag0
(g23
g2
Ntp2418
Rp2419
(dp2420
g27
(dp2421
g29
V2006
p2422
sg31
VDATE
p2423
sg33
VCD
p2424
sg35
I11
ssg10
I238
sg36
g4
sg37
(dp2425
sg39
(dp2426
sg41
I1292
sg42
g21
sg43
g21
sg44
I238
sg45
V2006
p2427
sg47
I238
sg48
I1296
sbag0
(g23
g2
Ntp2428
Rp2429
(dp2430
g27
(dp2431
g29
Varticle
p2432
sg31
VO
p2433
sg33
VNN
p2434
sg35
I12
ssg10
I239
sg36
g4
sg37
(dp2435
sg39
(dp2436
sg41
I1297
sg42
g21
sg43
g21
sg44
I239
sg45
Varticle
p2437
sg47
I239
sg48
I1304
sbag0
(g23
g2
Ntp2438
Rp2439
(dp2440
g27
(dp2441
g29
Vin
p2442
sg31
VO
p2443
sg33
VIN
p2444
sg35
I13
ssg10
I240
sg36
g4
sg37
(dp2445
sg39
(dp2446
sg41
I1305
sg42
g21
sg43
g21
sg44
I240
sg45
Vin
p2447
sg47
I240
sg48
I1307
sbag0
(g23
g2
Ntp2448
Rp2449
(dp2450
g27
(dp2451
g29
Vthe
p2452
sg31
VO
p2453
sg33
VDT
p2454
sg35
I14
ssg10
I241
sg36
g4
sg37
(dp2455
sg39
(dp2456
sg41
I1308
sg42
g21
sg43
g21
sg44
I241
sg45
Vthe
p2457
sg47
I241
sg48
I1311
sbag0
(g23
g2
Ntp2458
Rp2459
(dp2460
g27
(dp2461
g29
VNew
p2462
sg31
VORGANIZATION
p2463
sg33
VNNP
p2464
sg35
I15
ssg10
I242
sg36
g4
sg37
(dp2465
sg39
(dp2466
sg41
I1312
sg42
g21
sg43
g21
sg44
I242
sg45
VNew
p2467
sg47
I242
sg48
I1315
sbag0
(g23
g2
Ntp2468
Rp2469
(dp2470
g27
(dp2471
g29
VYork
p2472
sg31
VORGANIZATION
p2473
sg33
VNNP
p2474
sg35
I16
ssg10
I243
sg36
g4
sg37
(dp2475
sg39
(dp2476
sg41
I1316
sg42
g21
sg43
g21
sg44
I243
sg45
VYork
p2477
sg47
I243
sg48
I1320
sbag0
(g23
g2
Ntp2478
Rp2479
(dp2480
g27
(dp2481
g29
VTimes
p2482
sg31
VORGANIZATION
p2483
sg33
VNNP
p2484
sg35
I17
ssg10
I244
sg36
g4
sg37
(dp2485
sg39
(dp2486
sg41
I1321
sg42
g21
sg43
g21
sg44
I244
sg45
VTimes
p2487
sg47
I244
sg48
I1326
sbag0
(g23
g2
Ntp2488
Rp2489
(dp2490
g27
(dp2491
g29
V:
p2492
sg31
VO
p2493
sg33
V:
p2494
sg35
I18
ssg10
I245
sg36
g4
sg37
(dp2495
sg39
(dp2496
sg41
I1326
sg42
g21
sg43
g21
sg44
I245
sg45
V:
p2497
sg47
I245
sg48
I1327
sbag0
(g23
g2
Ntp2498
Rp2499
(dp2500
g27
(dp2501
g29
V-lsb-
p2502
sg31
VO
p2503
sg33
V-LRB-
p2504
sg35
I19
ssg10
I246
sg36
g4
sg37
(dp2505
sg39
(dp2506
sg41
I1327
sg42
g21
sg43
g21
sg44
I246
sg45
V[
p2507
sg47
I246
sg48
I1328
sbag0
(g23
g2
Ntp2508
Rp2509
(dp2510
g27
(dp2511
g29
Vref
p2512
sg31
VO
p2513
sg33
VNN
p2514
sg35
I20
ssg10
I247
sg36
g4
sg37
(dp2515
sg39
(dp2516
sg41
I1328
sg42
g21
sg43
g21
sg44
I247
sg45
VREF
p2517
sg47
I247
sg48
I1331
sbag0
(g23
g2
Ntp2518
Rp2519
(dp2520
g27
(dp2521
g29
V-rsb-
p2522
sg31
VO
p2523
sg33
V-RRB-
p2524
sg35
I21
ssg10
I248
sg36
g4
sg37
(dp2525
sg39
(dp2526
sg41
I1331
sg42
g21
sg43
g21
sg44
I248
sg45
V]
p2527
sg47
I248
sg48
I1332
sbag0
(g23
g2
Ntp2528
Rp2529
(dp2530
g27
(dp2531
g29
V.
p2532
sg31
VO
p2533
sg33
V.
p2534
sg35
I22
ssg10
I249
sg36
g4
sg37
(dp2535
sg39
(dp2536
sg41
I1333
sg42
g21
sg43
g21
sg44
I249
sg45
V.
p2537
sg47
I249
sg48
I1334
sbag0
(g23
g2
Ntp2538
Rp2539
(dp2540
g27
(dp2541
g29
VJeffrey
p2542
sg31
VPERSON
p2543
sg33
VNNP
p2544
sg35
I1
ssg10
I250
sg36
g4
sg37
(dp2545
sg39
(dp2546
sg41
I1337
sg42
g21
sg43
g21
sg44
I250
sg45
VJeffrey
p2547
sg47
I250
sg48
I1344
sbag0
(g23
g2
Ntp2548
Rp2549
(dp2550
g27
(dp2551
g29
VD.
p2552
sg31
VPERSON
p2553
sg33
VNNP
p2554
sg35
I2
ssg10
I251
sg36
g4
sg37
(dp2555
sg39
(dp2556
sg41
I1345
sg42
g21
sg43
g21
sg44
I251
sg45
VD.
p2557
sg47
I251
sg48
I1347
sbag0
(g23
g2
Ntp2558
Rp2559
(dp2560
g27
(dp2561
g29
VSachs
p2562
sg31
VPERSON
p2563
sg33
VNNP
p2564
sg35
I3
ssg10
I252
sg36
g4
sg37
(dp2565
sg39
(dp2566
sg41
I1348
sg42
g21
sg43
g21
sg44
I252
sg45
VSachs
p2567
sg47
I252
sg48
I1353
sbag0
(g23
g2
Ntp2568
Rp2569
(dp2570
g27
(dp2571
g29
V,
p2572
sg31
VO
p2573
sg33
V,
p2574
sg35
I4
ssg10
I253
sg36
g4
sg37
(dp2575
sg39
(dp2576
sg41
I1353
sg42
g21
sg43
g21
sg44
I253
sg45
V,
p2577
sg47
I253
sg48
I1354
sbag0
(g23
g2
Ntp2578
Rp2579
(dp2580
g27
(dp2581
g29
Va
p2582
sg31
VO
p2583
sg33
VDT
p2584
sg35
I5
ssg10
I254
sg36
g4
sg37
(dp2585
sg39
(dp2586
sg41
I1355
sg42
g21
sg43
g21
sg44
I254
sg45
Va
p2587
sg47
I254
sg48
I1356
sbag0
(g23
g2
Ntp2588
Rp2589
(dp2590
g27
(dp2591
g29
VColumbia
p2592
sg31
VORGANIZATION
p2593
sg33
VNNP
p2594
sg35
I6
ssg10
I255
sg36
g4
sg37
(dp2595
sg39
(dp2596
sg41
I1357
sg42
g21
sg43
g21
sg44
I255
sg45
VColumbia
p2597
sg47
I255
sg48
I1365
sbag0
(g23
g2
Ntp2598
Rp2599
(dp2600
g27
(dp2601
g29
VUniversity
p2602
sg31
VORGANIZATION
p2603
sg33
VNNP
p2604
sg35
I7
ssg10
I256
sg36
g4
sg37
(dp2605
sg39
(dp2606
sg41
I1366
sg42
g21
sg43
g21
sg44
I256
sg45
VUniversity
p2607
sg47
I256
sg48
I1376
sbag0
(g23
g2
Ntp2608
Rp2609
(dp2610
g27
(dp2611
g29
Vprofessor
p2612
sg31
VO
p2613
sg33
VNN
p2614
sg35
I8
ssg10
I257
sg36
g4
sg37
(dp2615
sg39
(dp2616
sg41
I1377
sg42
g21
sg43
g21
sg44
I257
sg45
Vprofessor
p2617
sg47
I257
sg48
I1386
sbag0
(g23
g2
Ntp2618
Rp2619
(dp2620
g27
(dp2621
g29
Vwho
p2622
sg31
VO
p2623
sg33
VWP
p2624
sg35
I9
ssg10
I258
sg36
g4
sg37
(dp2625
sg39
(dp2626
sg41
I1387
sg42
g21
sg43
g21
sg44
I258
sg45
Vwho
p2627
sg47
I258
sg48
I1390
sbag0
(g23
g2
Ntp2628
Rp2629
(dp2630
g27
(dp2631
g29
Vbe
p2632
sg31
VO
p2633
sg33
VVBZ
p2634
sg35
I10
ssg10
I259
sg36
g4
sg37
(dp2635
sg39
(dp2636
sg41
I1391
sg42
g21
sg43
g21
sg44
I259
sg45
Vis
p2637
sg47
I259
sg48
I1393
sbag0
(g23
g2
Ntp2638
Rp2639
(dp2640
g27
(dp2641
g29
Va
p2642
sg31
VO
p2643
sg33
VDT
p2644
sg35
I11
ssg10
I260
sg36
g4
sg37
(dp2645
sg39
(dp2646
sg41
I1394
sg42
g21
sg43
g21
sg44
I260
sg45
Va
p2647
sg47
I260
sg48
I1395
sbag0
(g23
g2
Ntp2648
Rp2649
(dp2650
g27
(dp2651
g29
Vleading
p2652
sg31
VO
p2653
sg33
VJJ
p2654
sg35
I12
ssg10
I261
sg36
g4
sg37
(dp2655
sg39
(dp2656
sg41
I1396
sg42
g21
sg43
g21
sg44
I261
sg45
Vleading
p2657
sg47
I261
sg48
I1403
sbag0
(g23
g2
Ntp2658
Rp2659
(dp2660
g27
(dp2661
g29
Vaid
p2662
sg31
VO
p2663
sg33
VNN
p2664
sg35
I13
ssg10
I262
sg36
g4
sg37
(dp2665
sg39
(dp2666
sg41
I1404
sg42
g21
sg43
g21
sg44
I262
sg45
Vaid
p2667
sg47
I262
sg48
I1407
sbag0
(g23
g2
Ntp2668
Rp2669
(dp2670
g27
(dp2671
g29
Vadvocate
p2672
sg31
VO
p2673
sg33
VNN
p2674
sg35
I14
ssg10
I263
sg36
g4
sg37
(dp2675
sg39
(dp2676
sg41
I1408
sg42
g21
sg43
g21
sg44
I263
sg45
Vadvocate
p2677
sg47
I263
sg48
I1416
sbag0
(g23
g2
Ntp2678
Rp2679
(dp2680
g27
(dp2681
g29
V,
p2682
sg31
VO
p2683
sg33
V,
p2684
sg35
I15
ssg10
I264
sg36
g4
sg37
(dp2685
sg39
(dp2686
sg41
I1416
sg42
g21
sg43
g21
sg44
I264
sg45
V,
p2687
sg47
I264
sg48
I1417
sbag0
(g23
g2
Ntp2688
Rp2689
(dp2690
g27
(dp2691
g29
Vcall
p2692
sg31
VO
p2693
sg33
VVBZ
p2694
sg35
I16
ssg10
I265
sg36
g4
sg37
(dp2695
sg39
(dp2696
sg41
I1418
sg42
g21
sg43
g21
sg44
I265
sg45
Vcalls
p2697
sg47
I265
sg48
I1423
sbag0
(g23
g2
Ntp2698
Rp2699
(dp2700
g27
(dp2701
g29
VMr.
p2702
sg31
VO
p2703
sg33
VNNP
p2704
sg35
I17
ssg10
I266
sg36
g4
sg37
(dp2705
sg39
(dp2706
sg41
I1424
sg42
g21
sg43
g21
sg44
I266
sg45
VMr.
p2707
sg47
I266
sg48
I1427
sbag0
(g23
g2
Ntp2708
Rp2709
(dp2710
g27
(dp2711
g29
VShikwati
p2712
sg31
VPERSON
p2713
sg33
VNNP
p2714
sg35
I18
ssg10
I267
sg36
g4
sg37
(dp2715
sg39
(dp2716
sg41
I1428
sg42
g21
sg43
g21
sg44
I267
sg45
VShikwati
p2717
sg47
I267
sg48
I1436
sbag0
(g23
g2
Ntp2718
Rp2719
(dp2720
g27
(dp2721
g29
V's
p2722
sg31
VO
p2723
sg33
VPOS
p2724
sg35
I19
ssg10
I268
sg36
g4
sg37
(dp2725
sg39
(dp2726
sg41
I1436
sg42
g21
sg43
g21
sg44
I268
sg45
V\u2019s
p2727
sg47
I268
sg48
I1438
sbag0
(g23
g2
Ntp2728
Rp2729
(dp2730
g27
(dp2731
g29
Vcriticism
p2732
sg31
VO
p2733
sg33
VNNS
p2734
sg35
I20
ssg10
I269
sg36
g4
sg37
(dp2735
sg39
(dp2736
sg41
I1439
sg42
g21
sg43
g21
sg44
I269
sg45
Vcriticisms
p2737
sg47
I269
sg48
I1449
sbag0
(g23
g2
Ntp2738
Rp2739
(dp2740
g27
(dp2741
g29
Vof
p2742
sg31
VO
p2743
sg33
VIN
p2744
sg35
I21
ssg10
I270
sg36
g4
sg37
(dp2745
sg39
(dp2746
sg41
I1450
sg42
g21
sg43
g21
sg44
I270
sg45
Vof
p2747
sg47
I270
sg48
I1452
sbag0
(g23
g2
Ntp2748
Rp2749
(dp2750
g27
(dp2751
g29
Vforeign
p2752
sg31
VO
p2753
sg33
VJJ
p2754
sg35
I22
ssg10
I271
sg36
g4
sg37
(dp2755
sg39
(dp2756
sg41
I1453
sg42
g21
sg43
g21
sg44
I271
sg45
Vforeign
p2757
sg47
I271
sg48
I1460
sbag0
(g23
g2
Ntp2758
Rp2759
(dp2760
g27
(dp2761
g29
Vassistance
p2762
sg31
VO
p2763
sg33
VNN
p2764
sg35
I23
ssg10
I272
sg36
g4
sg37
(dp2765
sg39
(dp2766
sg41
I1461
sg42
g21
sg43
g21
sg44
I272
sg45
Vassistance
p2767
sg47
I272
sg48
I1471
sbag0
(g23
g2
Ntp2768
Rp2769
(dp2770
g27
(dp2771
g29
V``
p2772
sg31
VO
p2773
sg33
V``
p2774
sg35
I24
ssg10
I273
sg36
g4
sg37
(dp2775
sg39
(dp2776
sg41
I1472
sg42
g21
sg43
g21
sg44
I273
sg45
V\u201c
p2777
sg47
I273
sg48
I1473
sbag0
(g23
g2
Ntp2778
Rp2779
(dp2780
g27
(dp2781
g29
Vshockingly
p2782
sg31
VO
p2783
sg33
VRB
p2784
sg35
I25
ssg10
I274
sg36
g4
sg37
(dp2785
sg39
(dp2786
sg41
I1473
sg42
g21
sg43
g21
sg44
I274
sg45
Vshockingly
p2787
sg47
I274
sg48
I1483
sbag0
(g23
g2
Ntp2788
Rp2789
(dp2790
g27
(dp2791
g29
Vmisguided
p2792
sg31
VO
p2793
sg33
VJJ
p2794
sg35
I26
ssg10
I275
sg36
g4
sg37
(dp2795
sg39
(dp2796
sg41
I1484
sg42
g21
sg43
g21
sg44
I275
sg45
Vmisguided
p2797
sg47
I275
sg48
I1493
sbag0
(g23
g2
Ntp2798
Rp2799
(dp2800
g27
(dp2801
g29
V''
p2802
sg31
VO
p2803
sg33
V''
p2804
sg35
I27
ssg10
I276
sg36
g4
sg37
(dp2805
sg39
(dp2806
sg41
I1493
sg42
g21
sg43
g21
sg44
I276
sg45
V\u201d
p2807
sg47
I276
sg48
I1494
sbag0
(g23
g2
Ntp2808
Rp2809
(dp2810
g27
(dp2811
g29
Vand
p2812
sg31
VO
p2813
sg33
VCC
p2814
sg35
I28
ssg10
I277
sg36
g4
sg37
(dp2815
sg39
(dp2816
sg41
I1495
sg42
g21
sg43
g21
sg44
I277
sg45
Vand
p2817
sg47
I277
sg48
I1498
sbag0
(g23
g2
Ntp2818
Rp2819
(dp2820
g27
(dp2821
g29
V``
p2822
sg31
VO
p2823
sg33
V``
p2824
sg35
I29
ssg10
I278
sg36
g4
sg37
(dp2825
sg39
(dp2826
sg41
I1499
sg42
g21
sg43
g21
sg44
I278
sg45
V\u201c
p2827
sg47
I278
sg48
I1500
sbag0
(g23
g2
Ntp2828
Rp2829
(dp2830
g27
(dp2831
g29
Vamazingly
p2832
sg31
VO
p2833
sg33
VRB
p2834
sg35
I30
ssg10
I279
sg36
g4
sg37
(dp2835
sg39
(dp2836
sg41
I1500
sg42
g21
sg43
g21
sg44
I279
sg45
Vamazingly
p2837
sg47
I279
sg48
I1509
sbag0
(g23
g2
Ntp2838
Rp2839
(dp2840
g27
(dp2841
g29
Vwrong
p2842
sg31
VO
p2843
sg33
VJJ
p2844
sg35
I31
ssg10
I280
sg36
g4
sg37
(dp2845
sg39
(dp2846
sg41
I1510
sg42
g21
sg43
g21
sg44
I280
sg45
Vwrong
p2847
sg47
I280
sg48
I1515
sbag0
(g23
g2
Ntp2848
Rp2849
(dp2850
g27
(dp2851
g29
V.
p2852
sg31
VO
p2853
sg33
V.
p2854
sg35
I32
ssg10
I281
sg36
g4
sg37
(dp2855
sg39
(dp2856
sg41
I1515
sg42
g21
sg43
g21
sg44
I281
sg45
V.
p2857
sg47
I281
sg48
I1516
sbag0
(g23
g2
Ntp2858
Rp2859
(dp2860
g27
(dp2861
g29
V''
p2862
sg31
VO
p2863
sg33
V''
p2864
sg35
I33
ssg10
I282
sg36
g4
sg37
(dp2865
sg39
(dp2866
sg41
I1516
sg42
g21
sg43
g21
sg44
I282
sg45
V\u201d
p2867
sg47
I282
sg48
I1517
sbag0
(g23
g2
Ntp2868
Rp2869
(dp2870
g27
(dp2871
g29
V``
p2872
sg31
VO
p2873
sg33
V``
p2874
sg35
I1
ssg10
I283
sg36
g4
sg37
(dp2875
sg39
(dp2876
sg41
I1518
sg42
g21
sg43
g21
sg44
I283
sg45
V\u201c
p2877
sg47
I283
sg48
I1519
sbag0
(g23
g2
Ntp2878
Rp2879
(dp2880
g27
(dp2881
g29
Vthis
p2882
sg31
VO
p2883
sg33
VDT
p2884
sg35
I2
ssg10
I284
sg36
g4
sg37
(dp2885
sg39
(dp2886
sg41
I1519
sg42
g21
sg43
g21
sg44
I284
sg45
VThis
p2887
sg47
I284
sg48
I1523
sbag0
(g23
g2
Ntp2888
Rp2889
(dp2890
g27
(dp2891
g29
Vhappen
p2892
sg31
VO
p2893
sg33
VVBZ
p2894
sg35
I3
ssg10
I285
sg36
g4
sg37
(dp2895
sg39
(dp2896
sg41
I1524
sg42
g21
sg43
g21
sg44
I285
sg45
Vhappens
p2897
sg47
I285
sg48
I1531
sbag0
(g23
g2
Ntp2898
Rp2899
(dp2900
g27
(dp2901
g29
Vto
p2902
sg31
VO
p2903
sg33
VTO
p2904
sg35
I4
ssg10
I286
sg36
g4
sg37
(dp2905
sg39
(dp2906
sg41
I1532
sg42
g21
sg43
g21
sg44
I286
sg45
Vto
p2907
sg47
I286
sg48
I1534
sbag0
(g23
g2
Ntp2908
Rp2909
(dp2910
g27
(dp2911
g29
Vbe
p2912
sg31
VO
p2913
sg33
VVB
p2914
sg35
I5
ssg10
I287
sg36
g4
sg37
(dp2915
sg39
(dp2916
sg41
I1535
sg42
g21
sg43
g21
sg44
I287
sg45
Vbe
p2917
sg47
I287
sg48
I1537
sbag0
(g23
g2
Ntp2918
Rp2919
(dp2920
g27
(dp2921
g29
Va
p2922
sg31
VO
p2923
sg33
VDT
p2924
sg35
I6
ssg10
I288
sg36
g4
sg37
(dp2925
sg39
(dp2926
sg41
I1538
sg42
g21
sg43
g21
sg44
I288
sg45
Va
p2927
sg47
I288
sg48
I1539
sbag0
(g23
g2
Ntp2928
Rp2929
(dp2930
g27
(dp2931
g29
Vmatter
p2932
sg31
VO
p2933
sg33
VNN
p2934
sg35
I7
ssg10
I289
sg36
g4
sg37
(dp2935
sg39
(dp2936
sg41
I1540
sg42
g21
sg43
g21
sg44
I289
sg45
Vmatter
p2937
sg47
I289
sg48
I1546
sbag0
(g23
g2
Ntp2938
Rp2939
(dp2940
g27
(dp2941
g29
Vof
p2942
sg31
VO
p2943
sg33
VIN
p2944
sg35
I8
ssg10
I290
sg36
g4
sg37
(dp2945
sg39
(dp2946
sg41
I1547
sg42
g21
sg43
g21
sg44
I290
sg45
Vof
p2947
sg47
I290
sg48
I1549
sbag0
(g23
g2
Ntp2948
Rp2949
(dp2950
g27
(dp2951
g29
Vlife
p2952
sg31
VO
p2953
sg33
VNN
p2954
sg35
I9
ssg10
I291
sg36
g4
sg37
(dp2955
sg39
(dp2956
sg41
I1550
sg42
g21
sg43
g21
sg44
I291
sg45
Vlife
p2957
sg47
I291
sg48
I1554
sbag0
(g23
g2
Ntp2958
Rp2959
(dp2960
g27
(dp2961
g29
Vand
p2962
sg31
VO
p2963
sg33
VCC
p2964
sg35
I10
ssg10
I292
sg36
g4
sg37
(dp2965
sg39
(dp2966
sg41
I1555
sg42
g21
sg43
g21
sg44
I292
sg45
Vand
p2967
sg47
I292
sg48
I1558
sbag0
(g23
g2
Ntp2968
Rp2969
(dp2970
g27
(dp2971
g29
Vdeath
p2972
sg31
VO
p2973
sg33
VNN
p2974
sg35
I11
ssg10
I293
sg36
g4
sg37
(dp2975
sg39
(dp2976
sg41
I1559
sg42
g21
sg43
g21
sg44
I293
sg45
Vdeath
p2977
sg47
I293
sg48
I1564
sbag0
(g23
g2
Ntp2978
Rp2979
(dp2980
g27
(dp2981
g29
Vfor
p2982
sg31
VO
p2983
sg33
VIN
p2984
sg35
I12
ssg10
I294
sg36
g4
sg37
(dp2985
sg39
(dp2986
sg41
I1565
sg42
g21
sg43
g21
sg44
I294
sg45
Vfor
p2987
sg47
I294
sg48
I1568
sbag0
(g23
g2
Ntp2988
Rp2989
(dp2990
g27
(dp2991
g29
Vmillion
p2992
sg31
VO
p2993
sg33
VNNS
p2994
sg35
I13
ssg10
I295
sg36
g4
sg37
(dp2995
sg39
(dp2996
sg41
I1569
sg42
g21
sg43
g21
sg44
I295
sg45
Vmillions
p2997
sg47
I295
sg48
I1577
sbag0
(g23
g2
Ntp2998
Rp2999
(dp3000
g27
(dp3001
g29
Vof
p3002
sg31
VO
p3003
sg33
VIN
p3004
sg35
I14
ssg10
I296
sg36
g4
sg37
(dp3005
sg39
(dp3006
sg41
I1578
sg42
g21
sg43
g21
sg44
I296
sg45
Vof
p3007
sg47
I296
sg48
I1580
sbag0
(g23
g2
Ntp3008
Rp3009
(dp3010
g27
(dp3011
g29
Vpeople
p3012
sg31
VO
p3013
sg33
VNNS
p3014
sg35
I15
ssg10
I297
sg36
g4
sg37
(dp3015
sg39
(dp3016
sg41
I1581
sg42
g21
sg43
g21
sg44
I297
sg45
Vpeople
p3017
sg47
I297
sg48
I1587
sbag0
(g23
g2
Ntp3018
Rp3019
(dp3020
g27
(dp3021
g29
V,
p3022
sg31
VO
p3023
sg33
V,
p3024
sg35
I16
ssg10
I298
sg36
g4
sg37
(dp3025
sg39
(dp3026
sg41
I1587
sg42
g21
sg43
g21
sg44
I298
sg45
V,
p3027
sg47
I298
sg48
I1588
sbag0
(g23
g2
Ntp3028
Rp3029
(dp3030
g27
(dp3031
g29
Vso
p3032
sg31
VO
p3033
sg33
VIN
p3034
sg35
I17
ssg10
I299
sg36
g4
sg37
(dp3035
sg39
(dp3036
sg41
I1589
sg42
g21
sg43
g21
sg44
I299
sg45
Vso
p3037
sg47
I299
sg48
I1591
sbag0
(g23
g2
Ntp3038
Rp3039
(dp3040
g27
(dp3041
g29
Vget
p3042
sg31
VO
p3043
sg33
VVBG
p3044
sg35
I18
ssg10
I300
sg36
g4
sg37
(dp3045
sg39
(dp3046
sg41
I1592
sg42
g21
sg43
g21
sg44
I300
sg45
Vgetting
p3047
sg47
I300
sg48
I1599
sbag0
(g23
g2
Ntp3048
Rp3049
(dp3050
g27
(dp3051
g29
Vit
p3052
sg31
VO
p3053
sg33
VPRP
p3054
sg35
I19
ssg10
I301
sg36
g4
sg37
(dp3055
sg39
(dp3056
sg41
I1600
sg42
g21
sg43
g21
sg44
I301
sg45
Vit
p3057
sg47
I301
sg48
I1602
sbag0
(g23
g2
Ntp3058
Rp3059
(dp3060
g27
(dp3061
g29
Vwrong
p3062
sg31
VO
p3063
sg33
VJJ
p3064
sg35
I20
ssg10
I302
sg36
g4
sg37
(dp3065
sg39
(dp3066
sg41
I1603
sg42
g21
sg43
g21
sg44
I302
sg45
Vwrong
p3067
sg47
I302
sg48
I1608
sbag0
(g23
g2
Ntp3068
Rp3069
(dp3070
g27
(dp3071
g29
Vhave
p3072
sg31
VO
p3073
sg33
VVBZ
p3074
sg35
I21
ssg10
I303
sg36
g4
sg37
(dp3075
sg39
(dp3076
sg41
I1609
sg42
g21
sg43
g21
sg44
I303
sg45
Vhas
p3077
sg47
I303
sg48
I1612
sbag0
(g23
g2
Ntp3078
Rp3079
(dp3080
g27
(dp3081
g29
Vhuge
p3082
sg31
VO
p3083
sg33
VJJ
p3084
sg35
I22
ssg10
I304
sg36
g4
sg37
(dp3085
sg39
(dp3086
sg41
I1613
sg42
g21
sg43
g21
sg44
I304
sg45
Vhuge
p3087
sg47
I304
sg48
I1617
sbag0
(g23
g2
Ntp3088
Rp3089
(dp3090
g27
(dp3091
g29
Vconsequence
p3092
sg31
VO
p3093
sg33
VNNS
p3094
sg35
I23
ssg10
I305
sg36
g4
sg37
(dp3095
sg39
(dp3096
sg41
I1618
sg42
g21
sg43
g21
sg44
I305
sg45
Vconsequences
p3097
sg47
I305
sg48
I1630
sbag0
(g23
g2
Ntp3098
Rp3099
(dp3100
g27
(dp3101
g29
V,
p3102
sg31
VO
p3103
sg33
V,
p3104
sg35
I24
ssg10
I306
sg36
g4
sg37
(dp3105
sg39
(dp3106
sg41
I1630
sg42
g21
sg43
g21
sg44
I306
sg45
V,
p3107
sg47
I306
sg48
I1631
sbag0
(g23
g2
Ntp3108
Rp3109
(dp3110
g27
(dp3111
g29
V''
p3112
sg31
VO
p3113
sg33
V''
p3114
sg35
I25
ssg10
I307
sg36
g4
sg37
(dp3115
sg39
(dp3116
sg41
I1631
sg42
g21
sg43
g21
sg44
I307
sg45
V\u201d
p3117
sg47
I307
sg48
I1632
sbag0
(g23
g2
Ntp3118
Rp3119
(dp3120
g27
(dp3121
g29
VMr.
p3122
sg31
VO
p3123
sg33
VNNP
p3124
sg35
I26
ssg10
I308
sg36
g4
sg37
(dp3125
sg39
(dp3126
sg41
I1633
sg42
g21
sg43
g21
sg44
I308
sg45
VMr.
p3127
sg47
I308
sg48
I1636
sbag0
(g23
g2
Ntp3128
Rp3129
(dp3130
g27
(dp3131
g29
VSachs
p3132
sg31
VPERSON
p3133
sg33
VNNP
p3134
sg35
I27
ssg10
I309
sg36
g4
sg37
(dp3135
sg39
(dp3136
sg41
I1637
sg42
g21
sg43
g21
sg44
I309
sg45
VSachs
p3137
sg47
I309
sg48
I1642
sbag0
(g23
g2
Ntp3138
Rp3139
(dp3140
g27
(dp3141
g29
Vsay
p3142
sg31
VO
p3143
sg33
VVBD
p3144
sg35
I28
ssg10
I310
sg36
g4
sg37
(dp3145
sg39
(dp3146
sg41
I1643
sg42
g21
sg43
g21
sg44
I310
sg45
Vsaid
p3147
sg47
I310
sg48
I1647
sbag0
(g23
g2
Ntp3148
Rp3149
(dp3150
g27
(dp3151
g29
V.
p3152
sg31
VO
p3153
sg33
V.
p3154
sg35
I29
ssg10
I311
sg36
g4
sg37
(dp3155
sg39
(dp3156
sg41
I1647
sg42
g21
sg43
g21
sg44
I311
sg45
V.
p3157
sg47
I311
sg48
I1648
sbag0
(g23
g2
Ntp3158
Rp3159
(dp3160
g27
(dp3161
g29
Vhe
p3162
sg31
VO
p3163
sg33
VPRP
p3164
sg35
I1
ssg10
I312
sg36
g4
sg37
(dp3165
sg39
(dp3166
sg41
I1651
sg42
g21
sg43
g21
sg44
I312
sg45
VHe
p3167
sg47
I312
sg48
I1653
sbag0
(g23
g2
Ntp3168
Rp3169
(dp3170
g27
(dp3171
g29
Vhave
p3172
sg31
VO
p3173
sg33
VVBZ
p3174
sg35
I2
ssg10
I313
sg36
g4
sg37
(dp3175
sg39
(dp3176
sg41
I1654
sg42
g21
sg43
g21
sg44
I313
sg45
Vhas
p3177
sg47
I313
sg48
I1657
sbag0
(g23
g2
Ntp3178
Rp3179
(dp3180
g27
(dp3181
g29
Vwork
p3182
sg31
VO
p3183
sg33
VVBN
p3184
sg35
I3
ssg10
I314
sg36
g4
sg37
(dp3185
sg39
(dp3186
sg41
I1658
sg42
g21
sg43
g21
sg44
I314
sg45
Vworked
p3187
sg47
I314
sg48
I1664
sbag0
(g23
g2
Ntp3188
Rp3189
(dp3190
g27
(dp3191
g29
Vextensively
p3192
sg31
VO
p3193
sg33
VRB
p3194
sg35
I4
ssg10
I315
sg36
g4
sg37
(dp3195
sg39
(dp3196
sg41
I1665
sg42
g21
sg43
g21
sg44
I315
sg45
Vextensively
p3197
sg47
I315
sg48
I1676
sbag0
(g23
g2
Ntp3198
Rp3199
(dp3200
g27
(dp3201
g29
Vwith
p3202
sg31
VO
p3203
sg33
VIN
p3204
sg35
I5
ssg10
I316
sg36
g4
sg37
(dp3205
sg39
(dp3206
sg41
I1677
sg42
g21
sg43
g21
sg44
I316
sg45
Vwith
p3207
sg47
I316
sg48
I1681
sbag0
(g23
g2
Ntp3208
Rp3209
(dp3210
g27
(dp3211
g29
Vinternationally
p3212
sg31
VO
p3213
sg33
VRB
p3214
sg35
I6
ssg10
I317
sg36
g4
sg37
(dp3215
sg39
(dp3216
sg41
I1682
sg42
g21
sg43
g21
sg44
I317
sg45
Vinternationally
p3217
sg47
I317
sg48
I1697
sbag0
(g23
g2
Ntp3218
Rp3219
(dp3220
g27
(dp3221
g29
Vacclaimed
p3222
sg31
VO
p3223
sg33
VJJ
p3224
sg35
I7
ssg10
I318
sg36
g4
sg37
(dp3225
sg39
(dp3226
sg41
I1698
sg42
g21
sg43
g21
sg44
I318
sg45
Vacclaimed
p3227
sg47
I318
sg48
I1707
sbag0
(g23
g2
Ntp3228
Rp3229
(dp3230
g27
(dp3231
g29
Vopinion
p3232
sg31
VO
p3233
sg33
VNN
p3234
sg35
I8
ssg10
I319
sg36
g4
sg37
(dp3235
sg39
(dp3236
sg41
I1708
sg42
g21
sg43
g21
sg44
I319
sg45
Vopinion
p3237
sg47
I319
sg48
I1715
sbag0
(g23
g2
Ntp3238
Rp3239
(dp3240
g27
(dp3241
g29
Vleader
p3242
sg31
VO
p3243
sg33
VNNS
p3244
sg35
I9
ssg10
I320
sg36
g4
sg37
(dp3245
sg39
(dp3246
sg41
I1716
sg42
g21
sg43
g21
sg44
I320
sg45
Vleaders
p3247
sg47
I320
sg48
I1723
sbag0
(g23
g2
Ntp3248
Rp3249
(dp3250
g27
(dp3251
g29
Vto
p3252
sg31
VO
p3253
sg33
VTO
p3254
sg35
I10
ssg10
I321
sg36
g4
sg37
(dp3255
sg39
(dp3256
sg41
I1724
sg42
g21
sg43
g21
sg44
I321
sg45
Vto
p3257
sg47
I321
sg48
I1726
sbag0
(g23
g2
Ntp3258
Rp3259
(dp3260
g27
(dp3261
g29
Vpromote
p3262
sg31
VO
p3263
sg33
VVB
p3264
sg35
I11
ssg10
I322
sg36
g4
sg37
(dp3265
sg39
(dp3266
sg41
I1727
sg42
g21
sg43
g21
sg44
I322
sg45
Vpromote
p3267
sg47
I322
sg48
I1734
sbag0
(g23
g2
Ntp3268
Rp3269
(dp3270
g27
(dp3271
g29
Videa
p3272
sg31
VO
p3273
sg33
VNNS
p3274
sg35
I12
ssg10
I323
sg36
g4
sg37
(dp3275
sg39
(dp3276
sg41
I1735
sg42
g21
sg43
g21
sg44
I323
sg45
Videas
p3277
sg47
I323
sg48
I1740
sbag0
(g23
g2
Ntp3278
Rp3279
(dp3280
g27
(dp3281
g29
Vthat
p3282
sg31
VO
p3283
sg33
VWDT
p3284
sg35
I13
ssg10
I324
sg36
g4
sg37
(dp3285
sg39
(dp3286
sg41
I1741
sg42
g21
sg43
g21
sg44
I324
sg45
Vthat
p3287
sg47
I324
sg48
I1745
sbag0
(g23
g2
Ntp3288
Rp3289
(dp3290
g27
(dp3291
g29
Vimprove
p3292
sg31
VO
p3293
sg33
VVBP
p3294
sg35
I14
ssg10
I325
sg36
g4
sg37
(dp3295
sg39
(dp3296
sg41
I1746
sg42
g21
sg43
g21
sg44
I325
sg45
Vimprove
p3297
sg47
I325
sg48
I1753
sbag0
(g23
g2
Ntp3298
Rp3299
(dp3300
g27
(dp3301
g29
Vproductivity
p3302
sg31
VO
p3303
sg33
VNN
p3304
sg35
I15
ssg10
I326
sg36
g4
sg37
(dp3305
sg39
(dp3306
sg41
I1754
sg42
g21
sg43
g21
sg44
I326
sg45
Vproductivity
p3307
sg47
I326
sg48
I1766
sbag0
(g23
g2
Ntp3308
Rp3309
(dp3310
g27
(dp3311
g29
V,
p3312
sg31
VO
p3313
sg33
V,
p3314
sg35
I16
ssg10
I327
sg36
g4
sg37
(dp3315
sg39
(dp3316
sg41
I1766
sg42
g21
sg43
g21
sg44
I327
sg45
V,
p3317
sg47
I327
sg48
I1767
sbag0
(g23
g2
Ntp3318
Rp3319
(dp3320
g27
(dp3321
g29
Vand
p3322
sg31
VO
p3323
sg33
VCC
p3324
sg35
I17
ssg10
I328
sg36
g4
sg37
(dp3325
sg39
(dp3326
sg41
I1768
sg42
g21
sg43
g21
sg44
I328
sg45
Vand
p3327
sg47
I328
sg48
I1771
sbag0
(g23
g2
Ntp3328
Rp3329
(dp3330
g27
(dp3331
g29
Vincrease
p3332
sg31
VO
p3333
sg33
VNN
p3334
sg35
I18
ssg10
I329
sg36
g4
sg37
(dp3335
sg39
(dp3336
sg41
I1772
sg42
g21
sg43
g21
sg44
I329
sg45
Vincrease
p3337
sg47
I329
sg48
I1780
sbag0
(g23
g2
Ntp3338
Rp3339
(dp3340
g27
(dp3341
g29
Vfreedom
p3342
sg31
VO
p3343
sg33
VNN
p3344
sg35
I19
ssg10
I330
sg36
g4
sg37
(dp3345
sg39
(dp3346
sg41
I1781
sg42
g21
sg43
g21
sg44
I330
sg45
Vfreedom
p3347
sg47
I330
sg48
I1788
sbag0
(g23
g2
Ntp3348
Rp3349
(dp3350
g27
(dp3351
g29
Vto
p3352
sg31
VO
p3353
sg33
VTO
p3354
sg35
I20
ssg10
I331
sg36
g4
sg37
(dp3355
sg39
(dp3356
sg41
I1789
sg42
g21
sg43
g21
sg44
I331
sg45
Vto
p3357
sg47
I331
sg48
I1791
sbag0
(g23
g2
Ntp3358
Rp3359
(dp3360
g27
(dp3361
g29
Vtrade
p3362
sg31
VO
p3363
sg33
VVB
p3364
sg35
I21
ssg10
I332
sg36
g4
sg37
(dp3365
sg39
(dp3366
sg41
I1792
sg42
g21
sg43
g21
sg44
I332
sg45
Vtrade
p3367
sg47
I332
sg48
I1797
sbag0
(g23
g2
Ntp3368
Rp3369
(dp3370
g27
(dp3371
g29
Vas
p3372
sg31
VO
p3373
sg33
VIN
p3374
sg35
I22
ssg10
I333
sg36
g4
sg37
(dp3375
sg39
(dp3376
sg41
I1798
sg42
g21
sg43
g21
sg44
I333
sg45
Vas
p3377
sg47
I333
sg48
I1800
sbag0
(g23
g2
Ntp3378
Rp3379
(dp3380
g27
(dp3381
g29
Va
p3382
sg31
VO
p3383
sg33
VDT
p3384
sg35
I23
ssg10
I334
sg36
g4
sg37
(dp3385
sg39
(dp3386
sg41
I1798
sg42
g21
sg43
g21
sg44
I334
sg45
Va
p3387
sg47
I334
sg48
I1799
sbag0
(g23
g2
Ntp3388
Rp3389
(dp3390
g27
(dp3391
g29
Vway
p3392
sg31
VO
p3393
sg33
VNN
p3394
sg35
I24
ssg10
I335
sg36
g4
sg37
(dp3395
sg39
(dp3396
sg41
I1803
sg42
g21
sg43
g21
sg44
I335
sg45
Vway
p3397
sg47
I335
sg48
I1806
sbag0
(g23
g2
Ntp3398
Rp3399
(dp3400
g27
(dp3401
g29
Vto
p3402
sg31
VO
p3403
sg33
VTO
p3404
sg35
I25
ssg10
I336
sg36
g4
sg37
(dp3405
sg39
(dp3406
sg41
I1807
sg42
g21
sg43
g21
sg44
I336
sg45
Vto
p3407
sg47
I336
sg48
I1809
sbag0
(g23
g2
Ntp3408
Rp3409
(dp3410
g27
(dp3411
g29
Valleviate
p3412
sg31
VO
p3413
sg33
VVB
p3414
sg35
I26
ssg10
I337
sg36
g4
sg37
(dp3415
sg39
(dp3416
sg41
I1810
sg42
g21
sg43
g21
sg44
I337
sg45
Valleviate
p3417
sg47
I337
sg48
I1819
sbag0
(g23
g2
Ntp3418
Rp3419
(dp3420
g27
(dp3421
g29
Vpoverty
p3422
sg31
VO
p3423
sg33
VNN
p3424
sg35
I27
ssg10
I338
sg36
g4
sg37
(dp3425
sg39
(dp3426
sg41
I1820
sg42
g21
sg43
g21
sg44
I338
sg45
Vpoverty
p3427
sg47
I338
sg48
I1827
sbag0
(g23
g2
Ntp3428
Rp3429
(dp3430
g27
(dp3431
g29
V.
p3432
sg31
VO
p3433
sg33
V.
p3434
sg35
I28
ssg10
I339
sg36
g4
sg37
(dp3435
sg39
(dp3436
sg41
I1827
sg42
g21
sg43
g21
sg44
I339
sg45
V.
p3437
sg47
I339
sg48
I1828
sbag0
(g23
g2
Ntp3438
Rp3439
(dp3440
g27
(dp3441
g29
Vhe
p3442
sg31
VO
p3443
sg33
VPRP
p3444
sg35
I1
ssg10
I340
sg36
g4
sg37
(dp3445
sg39
(dp3446
sg41
I1829
sg42
g21
sg43
g21
sg44
I340
sg45
VHe
p3447
sg47
I340
sg48
I1831
sbag0
(g23
g2
Ntp3448
Rp3449
(dp3450
g27
(dp3451
g29
Vfacilitate
p3452
sg31
VO
p3453
sg33
VVBZ
p3454
sg35
I2
ssg10
I341
sg36
g4
sg37
(dp3455
sg39
(dp3456
sg41
I1832
sg42
g21
sg43
g21
sg44
I341
sg45
Vfacilitates
p3457
sg47
I341
sg48
I1843
sbag0
(g23
g2
Ntp3458
Rp3459
(dp3460
g27
(dp3461
g29
Vseveral
p3462
sg31
VO
p3463
sg33
VJJ
p3464
sg35
I3
ssg10
I342
sg36
g4
sg37
(dp3465
sg39
(dp3466
sg41
I1844
sg42
g21
sg43
g21
sg44
I342
sg45
Vseveral
p3467
sg47
I342
sg48
I1851
sbag0
(g23
g2
Ntp3468
Rp3469
(dp3470
g27
(dp3471
g29
Vworkshop
p3472
sg31
VO
p3473
sg33
VNNS
p3474
sg35
I4
ssg10
I343
sg36
g4
sg37
(dp3475
sg39
(dp3476
sg41
I1852
sg42
g21
sg43
g21
sg44
I343
sg45
Vworkshops
p3477
sg47
I343
sg48
I1861
sbag0
(g23
g2
Ntp3478
Rp3479
(dp3480
g27
(dp3481
g29
Vevery
p3482
sg31
VSET
p3483
sg33
VDT
p3484
sg35
I5
ssg10
I344
sg36
g4
sg37
(dp3485
sg39
(dp3486
sg41
I1862
sg42
g21
sg43
g21
sg44
I344
sg45
Vevery
p3487
sg47
I344
sg48
I1867
sbag0
(g23
g2
Ntp3488
Rp3489
(dp3490
g27
(dp3491
g29
Vyear
p3492
sg31
VSET
p3493
sg33
VNN
p3494
sg35
I6
ssg10
I345
sg36
g4
sg37
(dp3495
sg39
(dp3496
sg41
I1868
sg42
g21
sg43
g21
sg44
I345
sg45
Vyear
p3497
sg47
I345
sg48
I1872
sbag0
(g23
g2
Ntp3498
Rp3499
(dp3500
g27
(dp3501
g29
Vthroughout
p3502
sg31
VO
p3503
sg33
VIN
p3504
sg35
I7
ssg10
I346
sg36
g4
sg37
(dp3505
sg39
(dp3506
sg41
I1873
sg42
g21
sg43
g21
sg44
I346
sg45
Vthroughout
p3507
sg47
I346
sg48
I1883
sbag0
(g23
g2
Ntp3508
Rp3509
(dp3510
g27
(dp3511
g29
VAfrica
p3512
sg31
VLOCATION
p3513
sg33
VNNP
p3514
sg35
I8
ssg10
I347
sg36
g4
sg37
(dp3515
sg39
(dp3516
sg41
I1884
sg42
g21
sg43
g21
sg44
I347
sg45
VAfrica
p3517
sg47
I347
sg48
I1890
sbag0
(g23
g2
Ntp3518
Rp3519
(dp3520
g27
(dp3521
g29
Vgear
p3522
sg31
VO
p3523
sg33
VVBD
p3524
sg35
I9
ssg10
I348
sg36
g4
sg37
(dp3525
sg39
(dp3526
sg41
I1891
sg42
g21
sg43
g21
sg44
I348
sg45
Vgeared
p3527
sg47
I348
sg48
I1897
sbag0
(g23
g2
Ntp3528
Rp3529
(dp3530
g27
(dp3531
g29
Vtowards
p3532
sg31
VO
p3533
sg33
VIN
p3534
sg35
I10
ssg10
I349
sg36
g4
sg37
(dp3535
sg39
(dp3536
sg41
I1898
sg42
g21
sg43
g21
sg44
I349
sg45
Vtowards
p3537
sg47
I349
sg48
I1905
sbag0
(g23
g2
Ntp3538
Rp3539
(dp3540
g27
(dp3541
g29
Vpromote
p3542
sg31
VO
p3543
sg33
VVBG
p3544
sg35
I11
ssg10
I350
sg36
g4
sg37
(dp3545
sg39
(dp3546
sg41
I1906
sg42
g21
sg43
g21
sg44
I350
sg45
Vpromoting
p3547
sg47
I350
sg48
I1915
sbag0
(g23
g2
Ntp3548
Rp3549
(dp3550
g27
(dp3551
g29
Vproductivity
p3552
sg31
VO
p3553
sg33
VNN
p3554
sg35
I12
ssg10
I351
sg36
g4
sg37
(dp3555
sg39
(dp3556
sg41
I1916
sg42
g21
sg43
g21
sg44
I351
sg45
Vproductivity
p3557
sg47
I351
sg48
I1928
sbag0
(g23
g2
Ntp3558
Rp3559
(dp3560
g27
(dp3561
g29
Vand
p3562
sg31
VO
p3563
sg33
VCC
p3564
sg35
I13
ssg10
I352
sg36
g4
sg37
(dp3565
sg39
(dp3566
sg41
I1929
sg42
g21
sg43
g21
sg44
I352
sg45
Vand
p3567
sg47
I352
sg48
I1932
sbag0
(g23
g2
Ntp3568
Rp3569
(dp3570
g27
(dp3571
g29
Vtrade
p3572
sg31
VO
p3573
sg33
VNN
p3574
sg35
I14
ssg10
I353
sg36
g4
sg37
(dp3575
sg39
(dp3576
sg41
I1933
sg42
g21
sg43
g21
sg44
I353
sg45
Vtrade
p3577
sg47
I353
sg48
I1938
sbag0
(g23
g2
Ntp3578
Rp3579
(dp3580
g27
(dp3581
g29
V.
p3582
sg31
VO
p3583
sg33
V.
p3584
sg35
I15
ssg10
I354
sg36
g4
sg37
(dp3585
sg39
(dp3586
sg41
I1938
sg42
g21
sg43
g21
sg44
I354
sg45
V.
p3587
sg47
I354
sg48
I1939
sbag0
(g23
g2
Ntp3588
Rp3589
(dp3590
g27
(dp3591
g29
Vhe
p3592
sg31
VO
p3593
sg33
VPRP
p3594
sg35
I1
ssg10
I355
sg36
g4
sg37
(dp3595
sg39
(dp3596
sg41
I1940
sg42
g21
sg43
g21
sg44
I355
sg45
VHe
p3597
sg47
I355
sg48
I1942
sbag0
(g23
g2
Ntp3598
Rp3599
(dp3600
g27
(dp3601
g29
Vrecently
p3602
sg31
VDATE
p3603
sg33
VRB
p3604
sg35
I2
ssg10
I356
sg36
g4
sg37
(dp3605
sg39
(dp3606
sg41
I1943
sg42
g21
sg43
g21
sg44
I356
sg45
Vrecently
p3607
sg47
I356
sg48
I1951
sbag0
(g23
g2
Ntp3608
Rp3609
(dp3610
g27
(dp3611
g29
Vargue
p3612
sg31
VO
p3613
sg33
VVBD
p3614
sg35
I3
ssg10
I357
sg36
g4
sg37
(dp3615
sg39
(dp3616
sg41
I1952
sg42
g21
sg43
g21
sg44
I357
sg45
Vargued
p3617
sg47
I357
sg48
I1958
sbag0
(g23
g2
Ntp3618
Rp3619
(dp3620
g27
(dp3621
g29
Vthat
p3622
sg31
VO
p3623
sg33
VIN
p3624
sg35
I4
ssg10
I358
sg36
g4
sg37
(dp3625
sg39
(dp3626
sg41
I1959
sg42
g21
sg43
g21
sg44
I358
sg45
Vthat
p3627
sg47
I358
sg48
I1963
sbag0
(g23
g2
Ntp3628
Rp3629
(dp3630
g27
(dp3631
g29
Vdevelopment
p3632
sg31
VO
p3633
sg33
VNN
p3634
sg35
I5
ssg10
I359
sg36
g4
sg37
(dp3635
sg39
(dp3636
sg41
I1964
sg42
g21
sg43
g21
sg44
I359
sg45
Vdevelopment
p3637
sg47
I359
sg48
I1975
sbag0
(g23
g2
Ntp3638
Rp3639
(dp3640
g27
(dp3641
g29
Vbe
p3642
sg31
VO
p3643
sg33
VVBZ
p3644
sg35
I6
ssg10
I360
sg36
g4
sg37
(dp3645
sg39
(dp3646
sg41
I1976
sg42
g21
sg43
g21
sg44
I360
sg45
Vis
p3647
sg47
I360
sg48
I1978
sbag0
(g23
g2
Ntp3648
Rp3649
(dp3650
g27
(dp3651
g29
Vthe
p3652
sg31
VO
p3653
sg33
VDT
p3654
sg35
I7
ssg10
I361
sg36
g4
sg37
(dp3655
sg39
(dp3656
sg41
I1979
sg42
g21
sg43
g21
sg44
I361
sg45
Vthe
p3657
sg47
I361
sg48
I1982
sbag0
(g23
g2
Ntp3658
Rp3659
(dp3660
g27
(dp3661
g29
Vability
p3662
sg31
VO
p3663
sg33
VNN
p3664
sg35
I8
ssg10
I362
sg36
g4
sg37
(dp3665
sg39
(dp3666
sg41
I1983
sg42
g21
sg43
g21
sg44
I362
sg45
Vability
p3667
sg47
I362
sg48
I1990
sbag0
(g23
g2
Ntp3668
Rp3669
(dp3670
g27
(dp3671
g29
Vof
p3672
sg31
VO
p3673
sg33
VIN
p3674
sg35
I9
ssg10
I363
sg36
g4
sg37
(dp3675
sg39
(dp3676
sg41
I1991
sg42
g21
sg43
g21
sg44
I363
sg45
Vof
p3677
sg47
I363
sg48
I1993
sbag0
(g23
g2
Ntp3678
Rp3679
(dp3680
g27
(dp3681
g29
Vindividual
p3682
sg31
VO
p3683
sg33
VNNS
p3684
sg35
I10
ssg10
I364
sg36
g4
sg37
(dp3685
sg39
(dp3686
sg41
I1994
sg42
g21
sg43
g21
sg44
I364
sg45
Vindividuals
p3687
sg47
I364
sg48
I2005
sbag0
(g23
g2
Ntp3688
Rp3689
(dp3690
g27
(dp3691
g29
Vto
p3692
sg31
VO
p3693
sg33
VTO
p3694
sg35
I11
ssg10
I365
sg36
g4
sg37
(dp3695
sg39
(dp3696
sg41
I2006
sg42
g21
sg43
g21
sg44
I365
sg45
Vto
p3697
sg47
I365
sg48
I2008
sbag0
(g23
g2
Ntp3698
Rp3699
(dp3700
g27
(dp3701
g29
Vunderstand
p3702
sg31
VO
p3703
sg33
VVB
p3704
sg35
I12
ssg10
I366
sg36
g4
sg37
(dp3705
sg39
(dp3706
sg41
I2009
sg42
g21
sg43
g21
sg44
I366
sg45
Vunderstand
p3707
sg47
I366
sg48
I2019
sbag0
(g23
g2
Ntp3708
Rp3709
(dp3710
g27
(dp3711
g29
Vthe
p3712
sg31
VO
p3713
sg33
VDT
p3714
sg35
I13
ssg10
I367
sg36
g4
sg37
(dp3715
sg39
(dp3716
sg41
I2020
sg42
g21
sg43
g21
sg44
I367
sg45
Vthe
p3717
sg47
I367
sg48
I2023
sbag0
(g23
g2
Ntp3718
Rp3719
(dp3720
g27
(dp3721
g29
Vworld
p3722
sg31
VO
p3723
sg33
VNN
p3724
sg35
I14
ssg10
I368
sg36
g4
sg37
(dp3725
sg39
(dp3726
sg41
I2024
sg42
g21
sg43
g21
sg44
I368
sg45
Vworld
p3727
sg47
I368
sg48
I2029
sbag0
(g23
g2
Ntp3728
Rp3729
(dp3730
g27
(dp3731
g29
Vand
p3732
sg31
VO
p3733
sg33
VCC
p3734
sg35
I15
ssg10
I369
sg36
g4
sg37
(dp3735
sg39
(dp3736
sg41
I2030
sg42
g21
sg43
g21
sg44
I369
sg45
Vand
p3737
sg47
I369
sg48
I2033
sbag0
(g23
g2
Ntp3738
Rp3739
(dp3740
g27
(dp3741
g29
Vcreatively
p3742
sg31
VO
p3743
sg33
VRB
p3744
sg35
I16
ssg10
I370
sg36
g4
sg37
(dp3745
sg39
(dp3746
sg41
I2034
sg42
g21
sg43
g21
sg44
I370
sg45
Vcreatively
p3747
sg47
I370
sg48
I2044
sbag0
(g23
g2
Ntp3748
Rp3749
(dp3750
g27
(dp3751
g29
Vrespond
p3752
sg31
VO
p3753
sg33
VVBP
p3754
sg35
I17
ssg10
I371
sg36
g4
sg37
(dp3755
sg39
(dp3756
sg41
I2045
sg42
g21
sg43
g21
sg44
I371
sg45
Vrespond
p3757
sg47
I371
sg48
I2052
sbag0
(g23
g2
Ntp3758
Rp3759
(dp3760
g27
(dp3761
g29
Vto
p3762
sg31
VO
p3763
sg33
VTO
p3764
sg35
I18
ssg10
I372
sg36
g4
sg37
(dp3765
sg39
(dp3766
sg41
I2053
sg42
g21
sg43
g21
sg44
I372
sg45
Vto
p3767
sg47
I372
sg48
I2055
sbag0
(g23
g2
Ntp3768
Rp3769
(dp3770
g27
(dp3771
g29
Vchallenge
p3772
sg31
VO
p3773
sg33
VNNS
p3774
sg35
I19
ssg10
I373
sg36
g4
sg37
(dp3775
sg39
(dp3776
sg41
I2056
sg42
g21
sg43
g21
sg44
I373
sg45
Vchallenges
p3777
sg47
I373
sg48
I2066
sbag0
(g23
g2
Ntp3778
Rp3779
(dp3780
g27
(dp3781
g29
Vthat
p3782
sg31
VO
p3783
sg33
VIN
p3784
sg35
I20
ssg10
I374
sg36
g4
sg37
(dp3785
sg39
(dp3786
sg41
I2067
sg42
g21
sg43
g21
sg44
I374
sg45
Vthat
p3787
sg47
I374
sg48
I2071
sbag0
(g23
g2
Ntp3788
Rp3789
(dp3790
g27
(dp3791
g29
Vconfront
p3792
sg31
VO
p3793
sg33
VVBP
p3794
sg35
I21
ssg10
I375
sg36
g4
sg37
(dp3795
sg39
(dp3796
sg41
I2072
sg42
g21
sg43
g21
sg44
I375
sg45
Vconfront
p3797
sg47
I375
sg48
I2080
sbag0
(g23
g2
Ntp3798
Rp3799
(dp3800
g27
(dp3801
g29
Vhumanity
p3802
sg31
VO
p3803
sg33
VNN
p3804
sg35
I22
ssg10
I376
sg36
g4
sg37
(dp3805
sg39
(dp3806
sg41
I2081
sg42
g21
sg43
g21
sg44
I376
sg45
Vhumanity
p3807
sg47
I376
sg48
I2089
sbag0
(g23
g2
Ntp3808
Rp3809
(dp3810
g27
(dp3811
g29
Vin
p3812
sg31
VO
p3813
sg33
VIN
p3814
sg35
I23
ssg10
I377
sg36
g4
sg37
(dp3815
sg39
(dp3816
sg41
I2090
sg42
g21
sg43
g21
sg44
I377
sg45
Vin
p3817
sg47
I377
sg48
I2092
sbag0
(g23
g2
Ntp3818
Rp3819
(dp3820
g27
(dp3821
g29
Va
p3822
sg31
VO
p3823
sg33
VDT
p3824
sg35
I24
ssg10
I378
sg36
g4
sg37
(dp3825
sg39
(dp3826
sg41
I2093
sg42
g21
sg43
g21
sg44
I378
sg45
Va
p3827
sg47
I378
sg48
I2094
sbag0
(g23
g2
Ntp3828
Rp3829
(dp3830
g27
(dp3831
g29
Vmanner
p3832
sg31
VO
p3833
sg33
VNN
p3834
sg35
I25
ssg10
I379
sg36
g4
sg37
(dp3835
sg39
(dp3836
sg41
I2095
sg42
g21
sg43
g21
sg44
I379
sg45
Vmanner
p3837
sg47
I379
sg48
I2101
sbag0
(g23
g2
Ntp3838
Rp3839
(dp3840
g27
(dp3841
g29
Vthat
p3842
sg31
VO
p3843
sg33
VWDT
p3844
sg35
I26
ssg10
I380
sg36
g4
sg37
(dp3845
sg39
(dp3846
sg41
I2102
sg42
g21
sg43
g21
sg44
I380
sg45
Vthat
p3847
sg47
I380
sg48
I2106
sbag0
(g23
g2
Ntp3848
Rp3849
(dp3850
g27
(dp3851
g29
Vincrease
p3852
sg31
VO
p3853
sg33
VVBZ
p3854
sg35
I27
ssg10
I381
sg36
g4
sg37
(dp3855
sg39
(dp3856
sg41
I2107
sg42
g21
sg43
g21
sg44
I381
sg45
Vincreases
p3857
sg47
I381
sg48
I2116
sbag0
(g23
g2
Ntp3858
Rp3859
(dp3860
g27
(dp3861
g29
Vlevel
p3862
sg31
VO
p3863
sg33
VNNS
p3864
sg35
I28
ssg10
I382
sg36
g4
sg37
(dp3865
sg39
(dp3866
sg41
I2117
sg42
g21
sg43
g21
sg44
I382
sg45
Vlevels
p3867
sg47
I382
sg48
I2123
sbag0
(g23
g2
Ntp3868
Rp3869
(dp3870
g27
(dp3871
g29
Vof
p3872
sg31
VO
p3873
sg33
VIN
p3874
sg35
I29
ssg10
I383
sg36
g4
sg37
(dp3875
sg39
(dp3876
sg41
I2124
sg42
g21
sg43
g21
sg44
I383
sg45
Vof
p3877
sg47
I383
sg48
I2126
sbag0
(g23
g2
Ntp3878
Rp3879
(dp3880
g27
(dp3881
g29
Vhuman
p3882
sg31
VO
p3883
sg33
VJJ
p3884
sg35
I30
ssg10
I384
sg36
g4
sg37
(dp3885
sg39
(dp3886
sg41
I2127
sg42
g21
sg43
g21
sg44
I384
sg45
Vhuman
p3887
sg47
I384
sg48
I2132
sbag0
(g23
g2
Ntp3888
Rp3889
(dp3890
g27
(dp3891
g29
Vcomfort
p3892
sg31
VO
p3893
sg33
VNN
p3894
sg35
I31
ssg10
I385
sg36
g4
sg37
(dp3895
sg39
(dp3896
sg41
I2133
sg42
g21
sg43
g21
sg44
I385
sg45
Vcomfort
p3897
sg47
I385
sg48
I2140
sbag0
(g23
g2
Ntp3898
Rp3899
(dp3900
g27
(dp3901
g29
Von
p3902
sg31
VO
p3903
sg33
VIN
p3904
sg35
I32
ssg10
I386
sg36
g4
sg37
(dp3905
sg39
(dp3906
sg41
I2141
sg42
g21
sg43
g21
sg44
I386
sg45
Von
p3907
sg47
I386
sg48
I2143
sbag0
(g23
g2
Ntp3908
Rp3909
(dp3910
g27
(dp3911
g29
Vearth
p3912
sg31
VO
p3913
sg33
VNN
p3914
sg35
I33
ssg10
I387
sg36
g4
sg37
(dp3915
sg39
(dp3916
sg41
I2144
sg42
g21
sg43
g21
sg44
I387
sg45
Vearth
p3917
sg47
I387
sg48
I2149
sbag0
(g23
g2
Ntp3918
Rp3919
(dp3920
g27
(dp3921
g29
V.
p3922
sg31
VO
p3923
sg33
V.
p3924
sg35
I34
ssg10
I388
sg36
g4
sg37
(dp3925
sg39
(dp3926
sg41
I2149
sg42
g21
sg43
g21
sg44
I388
sg45
V.
p3927
sg47
I388
sg48
I2150
sbag0
(g23
g2
Ntp3928
Rp3929
(dp3930
g27
(dp3931
g29
Vhe
p3932
sg31
VO
p3933
sg33
VPRP
p3934
sg35
I1
ssg10
I389
sg36
g4
sg37
(dp3935
sg39
(dp3936
sg41
I2153
sg42
g21
sg43
g21
sg44
I389
sg45
VHe
p3937
sg47
I389
sg48
I2155
sbag0
(g23
g2
Ntp3938
Rp3939
(dp3940
g27
(dp3941
g29
Vbe
p3942
sg31
VO
p3943
sg33
VVBZ
p3944
sg35
I2
ssg10
I390
sg36
g4
sg37
(dp3945
sg39
(dp3946
sg41
I2156
sg42
g21
sg43
g21
sg44
I390
sg45
Vis
p3947
sg47
I390
sg48
I2158
sbag0
(g23
g2
Ntp3948
Rp3949
(dp3950
g27
(dp3951
g29
Vthe
p3952
sg31
VO
p3953
sg33
VDT
p3954
sg35
I3
ssg10
I391
sg36
g4
sg37
(dp3955
sg39
(dp3956
sg41
I2159
sg42
g21
sg43
g21
sg44
I391
sg45
Vthe
p3957
sg47
I391
sg48
I2162
sbag0
(g23
g2
Ntp3958
Rp3959
(dp3960
g27
(dp3961
g29
Vfounder
p3962
sg31
VO
p3963
sg33
VNN
p3964
sg35
I4
ssg10
I392
sg36
g4
sg37
(dp3965
sg39
(dp3966
sg41
I2163
sg42
g21
sg43
g21
sg44
I392
sg45
Vfounder
p3967
sg47
I392
sg48
I2170
sbag0
(g23
g2
Ntp3968
Rp3969
(dp3970
g27
(dp3971
g29
Vand
p3972
sg31
VO
p3973
sg33
VCC
p3974
sg35
I5
ssg10
I393
sg36
g4
sg37
(dp3975
sg39
(dp3976
sg41
I2171
sg42
g21
sg43
g21
sg44
I393
sg45
Vand
p3977
sg47
I393
sg48
I2174
sbag0
(g23
g2
Ntp3978
Rp3979
(dp3980
g27
(dp3981
g29
VExecutive
p3982
sg31
VO
p3983
sg33
VNNP
p3984
sg35
I6
ssg10
I394
sg36
g4
sg37
(dp3985
sg39
(dp3986
sg41
I2175
sg42
g21
sg43
g21
sg44
I394
sg45
VExecutive
p3987
sg47
I394
sg48
I2184
sbag0
(g23
g2
Ntp3988
Rp3989
(dp3990
g27
(dp3991
g29
VDirector
p3992
sg31
VO
p3993
sg33
VNNP
p3994
sg35
I7
ssg10
I395
sg36
g4
sg37
(dp3995
sg39
(dp3996
sg41
I2185
sg42
g21
sg43
g21
sg44
I395
sg45
VDirector
p3997
sg47
I395
sg48
I2193
sbag0
(g23
g2
Ntp3998
Rp3999
(dp4000
g27
(dp4001
g29
Vof
p4002
sg31
VO
p4003
sg33
VIN
p4004
sg35
I8
ssg10
I396
sg36
g4
sg37
(dp4005
sg39
(dp4006
sg41
I2194
sg42
g21
sg43
g21
sg44
I396
sg45
Vof
p4007
sg47
I396
sg48
I2196
sbag0
(g23
g2
Ntp4008
Rp4009
(dp4010
g27
(dp4011
g29
Vthe
p4012
sg31
VO
p4013
sg33
VDT
p4014
sg35
I9
ssg10
I397
sg36
g4
sg37
(dp4015
sg39
(dp4016
sg41
I2197
sg42
g21
sg43
g21
sg44
I397
sg45
Vthe
p4017
sg47
I397
sg48
I2200
sbag0
(g23
g2
Ntp4018
Rp4019
(dp4020
g27
(dp4021
g29
VInter
p4022
sg31
VORGANIZATION
p4023
sg33
VNNP
p4024
sg35
I10
ssg10
I398
sg36
g4
sg37
(dp4025
sg39
(dp4026
sg41
I2201
sg42
g21
sg43
g21
sg44
I398
sg45
VInter
p4027
sg47
I398
sg48
I2206
sbag0
(g23
g2
Ntp4028
Rp4029
(dp4030
g27
(dp4031
g29
VRegion
p4032
sg31
VORGANIZATION
p4033
sg33
VNNP
p4034
sg35
I11
ssg10
I399
sg36
g4
sg37
(dp4035
sg39
(dp4036
sg41
I2207
sg42
g21
sg43
g21
sg44
I399
sg45
VRegion
p4037
sg47
I399
sg48
I2213
sbag0
(g23
g2
Ntp4038
Rp4039
(dp4040
g27
(dp4041
g29
VEconomic
p4042
sg31
VORGANIZATION
p4043
sg33
VNNP
p4044
sg35
I12
ssg10
I400
sg36
g4
sg37
(dp4045
sg39
(dp4046
sg41
I2214
sg42
g21
sg43
g21
sg44
I400
sg45
VEconomic
p4047
sg47
I400
sg48
I2222
sbag0
(g23
g2
Ntp4048
Rp4049
(dp4050
g27
(dp4051
g29
VNetwork
p4052
sg31
VORGANIZATION
p4053
sg33
VNNP
p4054
sg35
I13
ssg10
I401
sg36
g4
sg37
(dp4055
sg39
(dp4056
sg41
I2223
sg42
g21
sg43
g21
sg44
I401
sg45
VNetwork
p4057
sg47
I401
sg48
I2230
sbag0
(g23
g2
Ntp4058
Rp4059
(dp4060
g27
(dp4061
g29
V-lsb-
p4062
sg31
VO
p4063
sg33
V-LRB-
p4064
sg35
I14
ssg10
I402
sg36
g4
sg37
(dp4065
sg39
(dp4066
sg41
I2231
sg42
g21
sg43
g21
sg44
I402
sg45
V[
p4067
sg47
I402
sg48
I2232
sbag0
(g23
g2
Ntp4068
Rp4069
(dp4070
g27
(dp4071
g29
VIREN
p4072
sg31
VO
p4073
sg33
VNNP
p4074
sg35
I15
ssg10
I403
sg36
g4
sg37
(dp4075
sg39
(dp4076
sg41
I2232
sg42
g21
sg43
g21
sg44
I403
sg45
VIREN
p4077
sg47
I403
sg48
I2236
sbag0
(g23
g2
Ntp4078
Rp4079
(dp4080
g27
(dp4081
g29
V-rsb-
p4082
sg31
VO
p4083
sg33
V-RRB-
p4084
sg35
I16
ssg10
I404
sg36
g4
sg37
(dp4085
sg39
(dp4086
sg41
I2236
sg42
g21
sg43
g21
sg44
I404
sg45
V]
p4087
sg47
I404
sg48
I2237
sbag0
(g23
g2
Ntp4088
Rp4089
(dp4090
g27
(dp4091
g29
V,
p4092
sg31
VO
p4093
sg33
V,
p4094
sg35
I17
ssg10
I405
sg36
g4
sg37
(dp4095
sg39
(dp4096
sg41
I2237
sg42
g21
sg43
g21
sg44
I405
sg45
V,
p4097
sg47
I405
sg48
I2238
sbag0
(g23
g2
Ntp4098
Rp4099
(dp4100
g27
(dp4101
g29
Va
p4102
sg31
VO
p4103
sg33
VDT
p4104
sg35
I18
ssg10
I406
sg36
g4
sg37
(dp4105
sg39
(dp4106
sg41
I2239
sg42
g21
sg43
g21
sg44
I406
sg45
Van
p4107
sg47
I406
sg48
I2241
sbag0
(g23
g2
Ntp4108
Rp4109
(dp4110
g27
(dp4111
g29
Vindependent
p4112
sg31
VO
p4113
sg33
VJJ
p4114
sg35
I19
ssg10
I407
sg36
g4
sg37
(dp4115
sg39
(dp4116
sg41
I2242
sg42
g21
sg43
g21
sg44
I407
sg45
Vindependent
p4117
sg47
I407
sg48
I2253
sbag0
(g23
g2
Ntp4118
Rp4119
(dp4120
g27
(dp4121
g29
Vand
p4122
sg31
VO
p4123
sg33
VCC
p4124
sg35
I20
ssg10
I408
sg36
g4
sg37
(dp4125
sg39
(dp4126
sg41
I2254
sg42
g21
sg43
g21
sg44
I408
sg45
Vand
p4127
sg47
I408
sg48
I2257
sbag0
(g23
g2
Ntp4128
Rp4129
(dp4130
g27
(dp4131
g29
Vnon-partisan
p4132
sg31
VO
p4133
sg33
VJJ
p4134
sg35
I21
ssg10
I409
sg36
g4
sg37
(dp4135
sg39
(dp4136
sg41
I2258
sg42
g21
sg43
g21
sg44
I409
sg45
Vnon-partisan
p4137
sg47
I409
sg48
I2270
sbag0
(g23
g2
Ntp4138
Rp4139
(dp4140
g27
(dp4141
g29
Vthink
p4142
sg31
VO
p4143
sg33
VNN
p4144
sg35
I22
ssg10
I410
sg36
g4
sg37
(dp4145
sg39
(dp4146
sg41
I2271
sg42
g21
sg43
g21
sg44
I410
sg45
Vthink
p4147
sg47
I410
sg48
I2276
sbag0
(g23
g2
Ntp4148
Rp4149
(dp4150
g27
(dp4151
g29
Vtank
p4152
sg31
VO
p4153
sg33
VNN
p4154
sg35
I23
ssg10
I411
sg36
g4
sg37
(dp4155
sg39
(dp4156
sg41
I2277
sg42
g21
sg43
g21
sg44
I411
sg45
Vtank
p4157
sg47
I411
sg48
I2281
sbag0
(g23
g2
Ntp4158
Rp4159
(dp4160
g27
(dp4161
g29
Vthat
p4162
sg31
VO
p4163
sg33
VWDT
p4164
sg35
I24
ssg10
I412
sg36
g4
sg37
(dp4165
sg39
(dp4166
sg41
I2282
sg42
g21
sg43
g21
sg44
I412
sg45
Vthat
p4167
sg47
I412
sg48
I2286
sbag0
(g23
g2
Ntp4168
Rp4169
(dp4170
g27
(dp4171
g29
Vpromote
p4172
sg31
VO
p4173
sg33
VVBZ
p4174
sg35
I25
ssg10
I413
sg36
g4
sg37
(dp4175
sg39
(dp4176
sg41
I2287
sg42
g21
sg43
g21
sg44
I413
sg45
Vpromotes
p4177
sg47
I413
sg48
I2295
sbag0
(g23
g2
Ntp4178
Rp4179
(dp4180
g27
(dp4181
g29
Vpolicy
p4182
sg31
VO
p4183
sg33
VNNS
p4184
sg35
I26
ssg10
I414
sg36
g4
sg37
(dp4185
sg39
(dp4186
sg41
I2296
sg42
g21
sg43
g21
sg44
I414
sg45
Vpolicies
p4187
sg47
I414
sg48
I2304
sbag0
(g23
g2
Ntp4188
Rp4189
(dp4190
g27
(dp4191
g29
Vgear
p4192
sg31
VO
p4193
sg33
VVBN
p4194
sg35
I27
ssg10
I415
sg36
g4
sg37
(dp4195
sg39
(dp4196
sg41
I2305
sg42
g21
sg43
g21
sg44
I415
sg45
Vgeared
p4197
sg47
I415
sg48
I2311
sbag0
(g23
g2
Ntp4198
Rp4199
(dp4200
g27
(dp4201
g29
Vtowards
p4202
sg31
VO
p4203
sg33
VIN
p4204
sg35
I28
ssg10
I416
sg36
g4
sg37
(dp4205
sg39
(dp4206
sg41
I2312
sg42
g21
sg43
g21
sg44
I416
sg45
Vtowards
p4207
sg47
I416
sg48
I2319
sbag0
(g23
g2
Ntp4208
Rp4209
(dp4210
g27
(dp4211
g29
Vthe
p4212
sg31
VO
p4213
sg33
VDT
p4214
sg35
I29
ssg10
I417
sg36
g4
sg37
(dp4215
sg39
(dp4216
sg41
I2320
sg42
g21
sg43
g21
sg44
I417
sg45
Vthe
p4217
sg47
I417
sg48
I2323
sbag0
(g23
g2
Ntp4218
Rp4219
(dp4220
g27
(dp4221
g29
Vcreation
p4222
sg31
VO
p4223
sg33
VNN
p4224
sg35
I30
ssg10
I418
sg36
g4
sg37
(dp4225
sg39
(dp4226
sg41
I2324
sg42
g21
sg43
g21
sg44
I418
sg45
Vcreation
p4227
sg47
I418
sg48
I2332
sbag0
(g23
g2
Ntp4228
Rp4229
(dp4230
g27
(dp4231
g29
Vof
p4232
sg31
VO
p4233
sg33
VIN
p4234
sg35
I31
ssg10
I419
sg36
g4
sg37
(dp4235
sg39
(dp4236
sg41
I2333
sg42
g21
sg43
g21
sg44
I419
sg45
Vof
p4237
sg47
I419
sg48
I2335
sbag0
(g23
g2
Ntp4238
Rp4239
(dp4240
g27
(dp4241
g29
Va
p4242
sg31
VO
p4243
sg33
VDT
p4244
sg35
I32
ssg10
I420
sg36
g4
sg37
(dp4245
sg39
(dp4246
sg41
I2336
sg42
g21
sg43
g21
sg44
I420
sg45
Va
p4247
sg47
I420
sg48
I2337
sbag0
(g23
g2
Ntp4248
Rp4249
(dp4250
g27
(dp4251
g29
Vfree
p4252
sg31
VO
p4253
sg33
VJJ
p4254
sg35
I33
ssg10
I421
sg36
g4
sg37
(dp4255
sg39
(dp4256
sg41
I2338
sg42
g21
sg43
g21
sg44
I421
sg45
Vfree
p4257
sg47
I421
sg48
I2342
sbag0
(g23
g2
Ntp4258
Rp4259
(dp4260
g27
(dp4261
g29
VAfrica
p4262
sg31
VLOCATION
p4263
sg33
VNNP
p4264
sg35
I34
ssg10
I422
sg36
g4
sg37
(dp4265
sg39
(dp4266
sg41
I2343
sg42
g21
sg43
g21
sg44
I422
sg45
VAfrica
p4267
sg47
I422
sg48
I2349
sbag0
(g23
g2
Ntp4268
Rp4269
(dp4270
g27
(dp4271
g29
V.
p4272
sg31
VO
p4273
sg33
V.
p4274
sg35
I35
ssg10
I423
sg36
g4
sg37
(dp4275
sg39
(dp4276
sg41
I2349
sg42
g21
sg43
g21
sg44
I423
sg45
V.
p4277
sg47
I423
sg48
I2350
sbag0
(g23
g2
Ntp4278
Rp4279
(dp4280
g27
(dp4281
g29
Vhe
p4282
sg31
VO
p4283
sg33
VPRP
p4284
sg35
I1
ssg10
I424
sg36
g4
sg37
(dp4285
sg39
(dp4286
sg41
I2351
sg42
g21
sg43
g21
sg44
I424
sg45
VHe
p4287
sg47
I424
sg48
I2353
sbag0
(g23
g2
Ntp4288
Rp4289
(dp4290
g27
(dp4291
g29
Vbe
p4292
sg31
VO
p4293
sg33
VVBZ
p4294
sg35
I2
ssg10
I425
sg36
g4
sg37
(dp4295
sg39
(dp4296
sg41
I2354
sg42
g21
sg43
g21
sg44
I425
sg45
Vis
p4297
sg47
I425
sg48
I2356
sbag0
(g23
g2
Ntp4298
Rp4299
(dp4300
g27
(dp4301
g29
Valso
p4302
sg31
VO
p4303
sg33
VRB
p4304
sg35
I3
ssg10
I426
sg36
g4
sg37
(dp4305
sg39
(dp4306
sg41
I2357
sg42
g21
sg43
g21
sg44
I426
sg45
Valso
p4307
sg47
I426
sg48
I2361
sbag0
(g23
g2
Ntp4308
Rp4309
(dp4310
g27
(dp4311
g29
Vthe
p4312
sg31
VO
p4313
sg33
VDT
p4314
sg35
I4
ssg10
I427
sg36
g4
sg37
(dp4315
sg39
(dp4316
sg41
I2362
sg42
g21
sg43
g21
sg44
I427
sg45
Vthe
p4317
sg47
I427
sg48
I2365
sbag0
(g23
g2
Ntp4318
Rp4319
(dp4320
g27
(dp4321
g29
Vcountry
p4322
sg31
VO
p4323
sg33
VNN
p4324
sg35
I5
ssg10
I428
sg36
g4
sg37
(dp4325
sg39
(dp4326
sg41
I2366
sg42
g21
sg43
g21
sg44
I428
sg45
VCountry
p4327
sg47
I428
sg48
I2373
sbag0
(g23
g2
Ntp4328
Rp4329
(dp4330
g27
(dp4331
g29
Vdirector
p4332
sg31
VO
p4333
sg33
VNN
p4334
sg35
I6
ssg10
I429
sg36
g4
sg37
(dp4335
sg39
(dp4336
sg41
I2374
sg42
g21
sg43
g21
sg44
I429
sg45
VDirector
p4337
sg47
I429
sg48
I2382
sbag0
(g23
g2
Ntp4338
Rp4339
(dp4340
g27
(dp4341
g29
Vfor
p4342
sg31
VO
p4343
sg33
VIN
p4344
sg35
I7
ssg10
I430
sg36
g4
sg37
(dp4345
sg39
(dp4346
sg41
I2383
sg42
g21
sg43
g21
sg44
I430
sg45
Vfor
p4347
sg47
I430
sg48
I2386
sbag0
(g23
g2
Ntp4348
Rp4349
(dp4350
g27
(dp4351
g29
Vstudent
p4352
sg31
VO
p4353
sg33
VNNS
p4354
sg35
I8
ssg10
I431
sg36
g4
sg37
(dp4355
sg39
(dp4356
sg41
I2387
sg42
g21
sg43
g21
sg44
I431
sg45
VStudents
p4357
sg47
I431
sg48
I2395
sbag0
(g23
g2
Ntp4358
Rp4359
(dp4360
g27
(dp4361
g29
Vin
p4362
sg31
VO
p4363
sg33
VIN
p4364
sg35
I9
ssg10
I432
sg36
g4
sg37
(dp4365
sg39
(dp4366
sg41
I2396
sg42
g21
sg43
g21
sg44
I432
sg45
VIn
p4367
sg47
I432
sg48
I2398
sbag0
(g23
g2
Ntp4368
Rp4369
(dp4370
g27
(dp4371
g29
VFree
p4372
sg31
VO
p4373
sg33
VNNP
p4374
sg35
I10
ssg10
I433
sg36
g4
sg37
(dp4375
sg39
(dp4376
sg41
I2399
sg42
g21
sg43
g21
sg44
I433
sg45
VFree
p4377
sg47
I433
sg48
I2403
sbag0
(g23
g2
Ntp4378
Rp4379
(dp4380
g27
(dp4381
g29
VEnterprise
p4382
sg31
VO
p4383
sg33
VNNP
p4384
sg35
I11
ssg10
I434
sg36
g4
sg37
(dp4385
sg39
(dp4386
sg41
I2404
sg42
g21
sg43
g21
sg44
I434
sg45
VEnterprise
p4387
sg47
I434
sg48
I2414
sbag0
(g23
g2
Ntp4388
Rp4389
(dp4390
g27
(dp4391
g29
V-lsb-
p4392
sg31
VO
p4393
sg33
V-LRB-
p4394
sg35
I12
ssg10
I435
sg36
g4
sg37
(dp4395
sg39
(dp4396
sg41
I2415
sg42
g21
sg43
g21
sg44
I435
sg45
V[
p4397
sg47
I435
sg48
I2416
sbag0
(g23
g2
Ntp4398
Rp4399
(dp4400
g27
(dp4401
g29
VSIFE
p4402
sg31
VO
p4403
sg33
VNNP
p4404
sg35
I13
ssg10
I436
sg36
g4
sg37
(dp4405
sg39
(dp4406
sg41
I2416
sg42
g21
sg43
g21
sg44
I436
sg45
VSIFE
p4407
sg47
I436
sg48
I2420
sbag0
(g23
g2
Ntp4408
Rp4409
(dp4410
g27
(dp4411
g29
VKenya
p4412
sg31
VLOCATION
p4413
sg33
VNNP
p4414
sg35
I14
ssg10
I437
sg36
g4
sg37
(dp4415
sg39
(dp4416
sg41
I2421
sg42
g21
sg43
g21
sg44
I437
sg45
VKenya
p4417
sg47
I437
sg48
I2426
sbag0
(g23
g2
Ntp4418
Rp4419
(dp4420
g27
(dp4421
g29
V-rsb-
p4422
sg31
VO
p4423
sg33
V-RRB-
p4424
sg35
I15
ssg10
I438
sg36
g4
sg37
(dp4425
sg39
(dp4426
sg41
I2426
sg42
g21
sg43
g21
sg44
I438
sg45
V]
p4427
sg47
I438
sg48
I2427
sbag0
(g23
g2
Ntp4428
Rp4429
(dp4430
g27
(dp4431
g29
Vand
p4432
sg31
VO
p4433
sg33
VCC
p4434
sg35
I16
ssg10
I439
sg36
g4
sg37
(dp4435
sg39
(dp4436
sg41
I2428
sg42
g21
sg43
g21
sg44
I439
sg45
Vand
p4437
sg47
I439
sg48
I2431
sbag0
(g23
g2
Ntp4438
Rp4439
(dp4440
g27
(dp4441
g29
VChief
p4442
sg31
VO
p4443
sg33
VNNP
p4444
sg35
I17
ssg10
I440
sg36
g4
sg37
(dp4445
sg39
(dp4446
sg41
I2432
sg42
g21
sg43
g21
sg44
I440
sg45
VChief
p4447
sg47
I440
sg48
I2437
sbag0
(g23
g2
Ntp4448
Rp4449
(dp4450
g27
(dp4451
g29
VExecutive
p4452
sg31
VO
p4453
sg33
VNNP
p4454
sg35
I18
ssg10
I441
sg36
g4
sg37
(dp4455
sg39
(dp4456
sg41
I2438
sg42
g21
sg43
g21
sg44
I441
sg45
VExecutive
p4457
sg47
I441
sg48
I2447
sbag0
(g23
g2
Ntp4458
Rp4459
(dp4460
g27
(dp4461
g29
VOfficer
p4462
sg31
VO
p4463
sg33
VNNP
p4464
sg35
I19
ssg10
I442
sg36
g4
sg37
(dp4465
sg39
(dp4466
sg41
I2448
sg42
g21
sg43
g21
sg44
I442
sg45
VOfficer
p4467
sg47
I442
sg48
I2455
sbag0
(g23
g2
Ntp4468
Rp4469
(dp4470
g27
(dp4471
g29
V-lrb-
p4472
sg31
VO
p4473
sg33
V-LRB-
p4474
sg35
I20
ssg10
I443
sg36
g4
sg37
(dp4475
sg39
(dp4476
sg41
I2456
sg42
g21
sg43
g21
sg44
I443
sg45
V(
p4477
sg47
I443
sg48
I2457
sbag0
(g23
g2
Ntp4478
Rp4479
(dp4480
g27
(dp4481
g29
VCEO
p4482
sg31
VO
p4483
sg33
VNNP
p4484
sg35
I21
ssg10
I444
sg36
g4
sg37
(dp4485
sg39
(dp4486
sg41
I2457
sg42
g21
sg43
g21
sg44
I444
sg45
VCEO
p4487
sg47
I444
sg48
I2460
sbag0
(g23
g2
Ntp4488
Rp4489
(dp4490
g27
(dp4491
g29
V-rrb-
p4492
sg31
VO
p4493
sg33
V-RRB-
p4494
sg35
I22
ssg10
I445
sg36
g4
sg37
(dp4495
sg39
(dp4496
sg41
I2460
sg42
g21
sg43
g21
sg44
I445
sg45
V)
p4497
sg47
I445
sg48
I2461
sbag0
(g23
g2
Ntp4498
Rp4499
(dp4500
g27
(dp4501
g29
Vof
p4502
sg31
VO
p4503
sg33
VIN
p4504
sg35
I23
ssg10
I446
sg36
g4
sg37
(dp4505
sg39
(dp4506
sg41
I2462
sg42
g21
sg43
g21
sg44
I446
sg45
Vof
p4507
sg47
I446
sg48
I2464
sbag0
(g23
g2
Ntp4508
Rp4509
(dp4510
g27
(dp4511
g29
Va
p4512
sg31
VO
p4513
sg33
VDT
p4514
sg35
I24
ssg10
I447
sg36
g4
sg37
(dp4515
sg39
(dp4516
sg41
I2465
sg42
g21
sg43
g21
sg44
I447
sg45
Van
p4517
sg47
I447
sg48
I2467
sbag0
(g23
g2
Ntp4518
Rp4519
(dp4520
g27
(dp4521
g29
Vonline
p4522
sg31
VO
p4523
sg33
VJJ
p4524
sg35
I25
ssg10
I448
sg36
g4
sg37
(dp4525
sg39
(dp4526
sg41
I2468
sg42
g21
sg43
g21
sg44
I448
sg45
Vonline
p4527
sg47
I448
sg48
I2474
sbag0
(g23
g2
Ntp4528
Rp4529
(dp4530
g27
(dp4531
g29
Vbusiness
p4532
sg31
VO
p4533
sg33
VNN
p4534
sg35
I26
ssg10
I449
sg36
g4
sg37
(dp4535
sg39
(dp4536
sg41
I2475
sg42
g21
sg43
g21
sg44
I449
sg45
Vbusiness
p4537
sg47
I449
sg48
I2483
sbag0
(g23
g2
Ntp4538
Rp4539
(dp4540
g27
(dp4541
g29
Vmagazine
p4542
sg31
VO
p4543
sg33
VNN
p4544
sg35
I27
ssg10
I450
sg36
g4
sg37
(dp4545
sg39
(dp4546
sg41
I2484
sg42
g21
sg43
g21
sg44
I450
sg45
Vmagazine
p4547
sg47
I450
sg48
I2492
sbag0
(g23
g2
Ntp4548
Rp4549
(dp4550
g27
(dp4551
g29
Vthe
p4552
sg31
VO
p4553
sg33
VDT
p4554
sg35
I28
ssg10
I451
sg36
g4
sg37
(dp4555
sg39
(dp4556
sg41
I2493
sg42
g21
sg43
g21
sg44
I451
sg45
VThe
p4557
sg47
I451
sg48
I2496
sbag0
(g23
g2
Ntp4558
Rp4559
(dp4560
g27
(dp4561
g29
VAfrican
p4562
sg31
VMISC
p4563
sg33
VNNP
p4564
sg35
I29
ssg10
I452
sg36
g4
sg37
(dp4565
sg39
(dp4566
sg41
I2497
sg42
g21
sg43
g21
sg44
I452
sg45
VAfrican
p4567
sg47
I452
sg48
I2504
sbag0
(g23
g2
Ntp4568
Rp4569
(dp4570
g27
(dp4571
g29
VExecutive
p4572
sg31
VO
p4573
sg33
VNNP
p4574
sg35
I30
ssg10
I453
sg36
g4
sg37
(dp4575
sg39
(dp4576
sg41
I2505
sg42
g21
sg43
g21
sg44
I453
sg45
VExecutive
p4577
sg47
I453
sg48
I2514
sbag0
(g23
g2
Ntp4578
Rp4579
(dp4580
g27
(dp4581
g29
Vthat
p4582
sg31
VO
p4583
sg33
VWDT
p4584
sg35
I31
ssg10
I454
sg36
g4
sg37
(dp4585
sg39
(dp4586
sg41
I2515
sg42
g21
sg43
g21
sg44
I454
sg45
Vthat
p4587
sg47
I454
sg48
I2519
sbag0
(g23
g2
Ntp4588
Rp4589
(dp4590
g27
(dp4591
g29
Vbe
p4592
sg31
VO
p4593
sg33
VVBZ
p4594
sg35
I32
ssg10
I455
sg36
g4
sg37
(dp4595
sg39
(dp4596
sg41
I2520
sg42
g21
sg43
g21
sg44
I455
sg45
Vis
p4597
sg47
I455
sg48
I2522
sbag0
(g23
g2
Ntp4598
Rp4599
(dp4600
g27
(dp4601
g29
Vpublish
p4602
sg31
VO
p4603
sg33
VVBN
p4604
sg35
I33
ssg10
I456
sg36
g4
sg37
(dp4605
sg39
(dp4606
sg41
I2523
sg42
g21
sg43
g21
sg44
I456
sg45
Vpublished
p4607
sg47
I456
sg48
I2532
sbag0
(g23
g2
Ntp4608
Rp4609
(dp4610
g27
(dp4611
g29
Vweekly
p4612
sg31
VSET
p4613
sg33
VJJ
p4614
sg35
I34
ssg10
I457
sg36
g4
sg37
(dp4615
sg39
(dp4616
sg41
I2533
sg42
g21
sg43
g21
sg44
I457
sg45
Vweekly
p4617
sg47
I457
sg48
I2539
sbag0
(g23
g2
Ntp4618
Rp4619
(dp4620
g27
(dp4621
g29
Vby
p4622
sg31
VO
p4623
sg33
VIN
p4624
sg35
I35
ssg10
I458
sg36
g4
sg37
(dp4625
sg39
(dp4626
sg41
I2540
sg42
g21
sg43
g21
sg44
I458
sg45
Vby
p4627
sg47
I458
sg48
I2542
sbag0
(g23
g2
Ntp4628
Rp4629
(dp4630
g27
(dp4631
g29
VIREN
p4632
sg31
VORGANIZATION
p4633
sg33
VNNP
p4634
sg35
I36
ssg10
I459
sg36
g4
sg37
(dp4635
sg39
(dp4636
sg41
I2543
sg42
g21
sg43
g21
sg44
I459
sg45
VIREN
p4637
sg47
I459
sg48
I2547
sbag0
(g23
g2
Ntp4638
Rp4639
(dp4640
g27
(dp4641
g29
V.
p4642
sg31
VO
p4643
sg33
V.
p4644
sg35
I37
ssg10
I460
sg36
g4
sg37
(dp4645
sg39
(dp4646
sg41
I2547
sg42
g21
sg43
g21
sg44
I460
sg45
V.
p4647
sg47
I460
sg48
I2548
sbag0
(g23
g2
Ntp4648
Rp4649
(dp4650
g27
(dp4651
g29
Von
p4652
sg31
VO
p4653
sg33
VIN
p4654
sg35
I1
ssg10
I461
sg36
g4
sg37
(dp4655
sg39
(dp4656
sg41
I2550
sg42
g21
sg43
g21
sg44
I461
sg45
VOn
p4657
sg47
I461
sg48
I2552
sbag0
(g23
g2
Ntp4658
Rp4659
(dp4660
g27
(dp4661
g29
V6
p4662
sg31
VDATE
p4663
sg33
VCD
p4664
sg35
I2
ssg10
I462
sg36
g4
sg37
(dp4665
sg39
(dp4666
sg41
I2553
sg42
g21
sg43
g21
sg44
I462
sg45
V6
p4667
sg47
I462
sg48
I2554
sbag0
(g23
g2
Ntp4668
Rp4669
(dp4670
g27
(dp4671
g29
VJuly
p4672
sg31
VDATE
p4673
sg33
VNNP
p4674
sg35
I3
ssg10
I463
sg36
g4
sg37
(dp4675
sg39
(dp4676
sg41
I2555
sg42
g21
sg43
g21
sg44
I463
sg45
VJuly
p4677
sg47
I463
sg48
I2559
sbag0
(g23
g2
Ntp4678
Rp4679
(dp4680
g27
(dp4681
g29
V2007
p4682
sg31
VDATE
p4683
sg33
VCD
p4684
sg35
I4
ssg10
I464
sg36
g4
sg37
(dp4685
sg39
(dp4686
sg41
I2560
sg42
g21
sg43
g21
sg44
I464
sg45
V2007
p4687
sg47
I464
sg48
I2564
sbag0
(g23
g2
Ntp4688
Rp4689
(dp4690
g27
(dp4691
g29
V,
p4692
sg31
VO
p4693
sg33
V,
p4694
sg35
I5
ssg10
I465
sg36
g4
sg37
(dp4695
sg39
(dp4696
sg41
I2564
sg42
g21
sg43
g21
sg44
I465
sg45
V,
p4697
sg47
I465
sg48
I2565
sbag0
(g23
g2
Ntp4698
Rp4699
(dp4700
g27
(dp4701
g29
VMr.
p4702
sg31
VO
p4703
sg33
VNNP
p4704
sg35
I6
ssg10
I466
sg36
g4
sg37
(dp4705
sg39
(dp4706
sg41
I2566
sg42
g21
sg43
g21
sg44
I466
sg45
VMr.
p4707
sg47
I466
sg48
I2569
sbag0
(g23
g2
Ntp4708
Rp4709
(dp4710
g27
(dp4711
g29
VJames
p4712
sg31
VPERSON
p4713
sg33
VNNP
p4714
sg35
I7
ssg10
I467
sg36
g4
sg37
(dp4715
sg39
(dp4716
sg41
I2570
sg42
g21
sg43
g21
sg44
I467
sg45
VJames
p4717
sg47
I467
sg48
I2575
sbag0
(g23
g2
Ntp4718
Rp4719
(dp4720
g27
(dp4721
g29
VShikwati
p4722
sg31
VPERSON
p4723
sg33
VNNP
p4724
sg35
I8
ssg10
I468
sg36
g4
sg37
(dp4725
sg39
(dp4726
sg41
I2576
sg42
g21
sg43
g21
sg44
I468
sg45
VShikwati
p4727
sg47
I468
sg48
I2584
sbag0
(g23
g2
Ntp4728
Rp4729
(dp4730
g27
(dp4731
g29
Vbe
p4732
sg31
VO
p4733
sg33
VVBD
p4734
sg35
I9
ssg10
I469
sg36
g4
sg37
(dp4735
sg39
(dp4736
sg41
I2585
sg42
g21
sg43
g21
sg44
I469
sg45
Vwas
p4737
sg47
I469
sg48
I2588
sbag0
(g23
g2
Ntp4738
Rp4739
(dp4740
g27
(dp4741
g29
Vname
p4742
sg31
VO
p4743
sg33
VVBN
p4744
sg35
I10
ssg10
I470
sg36
g4
sg37
(dp4745
sg39
(dp4746
sg41
I2589
sg42
g21
sg43
g21
sg44
I470
sg45
Vnamed
p4747
sg47
I470
sg48
I2594
sbag0
(g23
g2
Ntp4748
Rp4749
(dp4750
g27
(dp4751
g29
Vamong
p4752
sg31
VO
p4753
sg33
VIN
p4754
sg35
I11
ssg10
I471
sg36
g4
sg37
(dp4755
sg39
(dp4756
sg41
I2595
sg42
g21
sg43
g21
sg44
I471
sg45
Vamong
p4757
sg47
I471
sg48
I2600
sbag0
(g23
g2
Ntp4758
Rp4759
(dp4760
g27
(dp4761
g29
Vtop
p4762
sg31
VO
p4763
sg33
VJJ
p4764
sg35
I12
ssg10
I472
sg36
g4
sg37
(dp4765
sg39
(dp4766
sg41
I2601
sg42
g21
sg43
g21
sg44
I472
sg45
Vtop
p4767
sg47
I472
sg48
I2604
sbag0
(g23
g2
Ntp4768
Rp4769
(dp4770
g27
(dp4771
g29
V100
p4772
sg31
VNUMBER
p4773
sg33
VCD
p4774
sg35
I13
ssg10
I473
sg36
g4
sg37
(dp4775
sg39
(dp4776
sg41
I2605
sg42
g21
sg43
g21
sg44
I473
sg45
V100
p4777
sg47
I473
sg48
I2608
sbag0
(g23
g2
Ntp4778
Rp4779
(dp4780
g27
(dp4781
g29
Vmost
p4782
sg31
VO
p4783
sg33
VRBS
p4784
sg35
I14
ssg10
I474
sg36
g4
sg37
(dp4785
sg39
(dp4786
sg41
I2609
sg42
g21
sg43
g21
sg44
I474
sg45
Vmost
p4787
sg47
I474
sg48
I2613
sbag0
(g23
g2
Ntp4788
Rp4789
(dp4790
g27
(dp4791
g29
Vinfluential
p4792
sg31
VO
p4793
sg33
VJJ
p4794
sg35
I15
ssg10
I475
sg36
g4
sg37
(dp4795
sg39
(dp4796
sg41
I2614
sg42
g21
sg43
g21
sg44
I475
sg45
Vinfluential
p4797
sg47
I475
sg48
I2625
sbag0
(g23
g2
Ntp4798
Rp4799
(dp4800
g27
(dp4801
g29
VKenyans
p4802
sg31
VMISC
p4803
sg33
VNNPS
p4804
sg35
I16
ssg10
I476
sg36
g4
sg37
(dp4805
sg39
(dp4806
sg41
I2626
sg42
g21
sg43
g21
sg44
I476
sg45
VKenyans
p4807
sg47
I476
sg48
I2633
sbag0
(g23
g2
Ntp4808
Rp4809
(dp4810
g27
(dp4811
g29
Vin
p4812
sg31
VO
p4813
sg33
VIN
p4814
sg35
I17
ssg10
I477
sg36
g4
sg37
(dp4815
sg39
(dp4816
sg41
I2634
sg42
g21
sg43
g21
sg44
I477
sg45
Vin
p4817
sg47
I477
sg48
I2636
sbag0
(g23
g2
Ntp4818
Rp4819
(dp4820
g27
(dp4821
g29
Va
p4822
sg31
VO
p4823
sg33
VDT
p4824
sg35
I18
ssg10
I478
sg36
g4
sg37
(dp4825
sg39
(dp4826
sg41
I2637
sg42
g21
sg43
g21
sg44
I478
sg45
Va
p4827
sg47
I478
sg48
I2638
sbag0
(g23
g2
Ntp4828
Rp4829
(dp4830
g27
(dp4831
g29
Vstudy
p4832
sg31
VO
p4833
sg33
VNN
p4834
sg35
I19
ssg10
I479
sg36
g4
sg37
(dp4835
sg39
(dp4836
sg41
I2639
sg42
g21
sg43
g21
sg44
I479
sg45
Vstudy
p4837
sg47
I479
sg48
I2644
sbag0
(g23
g2
Ntp4838
Rp4839
(dp4840
g27
(dp4841
g29
Vthat
p4842
sg31
VO
p4843
sg33
VWDT
p4844
sg35
I20
ssg10
I480
sg36
g4
sg37
(dp4845
sg39
(dp4846
sg41
I2645
sg42
g21
sg43
g21
sg44
I480
sg45
Vthat
p4847
sg47
I480
sg48
I2649
sbag0
(g23
g2
Ntp4848
Rp4849
(dp4850
g27
(dp4851
g29
Vbe
p4852
sg31
VO
p4853
sg33
VVBD
p4854
sg35
I21
ssg10
I481
sg36
g4
sg37
(dp4855
sg39
(dp4856
sg41
I2650
sg42
g21
sg43
g21
sg44
I481
sg45
Vwas
p4857
sg47
I481
sg48
I2653
sbag0
(g23
g2
Ntp4858
Rp4859
(dp4860
g27
(dp4861
g29
Vconduct
p4862
sg31
VO
p4863
sg33
VVBN
p4864
sg35
I22
ssg10
I482
sg36
g4
sg37
(dp4865
sg39
(dp4866
sg41
I2654
sg42
g21
sg43
g21
sg44
I482
sg45
Vconducted
p4867
sg47
I482
sg48
I2663
sbag0
(g23
g2
Ntp4868
Rp4869
(dp4870
g27
(dp4871
g29
Vby
p4872
sg31
VO
p4873
sg33
VIN
p4874
sg35
I23
ssg10
I483
sg36
g4
sg37
(dp4875
sg39
(dp4876
sg41
I2664
sg42
g21
sg43
g21
sg44
I483
sg45
Vby
p4877
sg47
I483
sg48
I2666
sbag0
(g23
g2
Ntp4878
Rp4879
(dp4880
g27
(dp4881
g29
Vthe
p4882
sg31
VO
p4883
sg33
VDT
p4884
sg35
I24
ssg10
I484
sg36
g4
sg37
(dp4885
sg39
(dp4886
sg41
I2667
sg42
g21
sg43
g21
sg44
I484
sg45
VThe
p4887
sg47
I484
sg48
I2670
sbag0
(g23
g2
Ntp4888
Rp4889
(dp4890
g27
(dp4891
g29
VStandard
p4892
sg31
VORGANIZATION
p4893
sg33
VNNP
p4894
sg35
I25
ssg10
I485
sg36
g4
sg37
(dp4895
sg39
(dp4896
sg41
I2671
sg42
g21
sg43
g21
sg44
I485
sg45
VStandard
p4897
sg47
I485
sg48
I2679
sbag0
(g23
g2
Ntp4898
Rp4899
(dp4900
g27
(dp4901
g29
VGroup
p4902
sg31
VORGANIZATION
p4903
sg33
VNNP
p4904
sg35
I26
ssg10
I486
sg36
g4
sg37
(dp4905
sg39
(dp4906
sg41
I2680
sg42
g21
sg43
g21
sg44
I486
sg45
VGroup
p4907
sg47
I486
sg48
I2685
sbag0
(g23
g2
Ntp4908
Rp4909
(dp4910
g27
(dp4911
g29
V,
p4912
sg31
VO
p4913
sg33
V,
p4914
sg35
I27
ssg10
I487
sg36
g4
sg37
(dp4915
sg39
(dp4916
sg41
I2685
sg42
g21
sg43
g21
sg44
I487
sg45
V,
p4917
sg47
I487
sg48
I2686
sbag0
(g23
g2
Ntp4918
Rp4919
(dp4920
g27
(dp4921
g29
V-lsb-
p4922
sg31
VO
p4923
sg33
V-LRB-
p4924
sg35
I28
ssg10
I488
sg36
g4
sg37
(dp4925
sg39
(dp4926
sg41
I2686
sg42
g21
sg43
g21
sg44
I488
sg45
V[
p4927
sg47
I488
sg48
I2687
sbag0
(g23
g2
Ntp4928
Rp4929
(dp4930
g27
(dp4931
g29
VREF
p4932
sg31
VO
p4933
sg33
VNNP
p4934
sg35
I29
ssg10
I489
sg36
g4
sg37
(dp4935
sg39
(dp4936
sg41
I2687
sg42
g21
sg43
g21
sg44
I489
sg45
VREF
p4937
sg47
I489
sg48
I2690
sbag0
(g23
g2
Ntp4938
Rp4939
(dp4940
g27
(dp4941
g29
V-rsb-
p4942
sg31
VO
p4943
sg33
V-RRB-
p4944
sg35
I30
ssg10
I490
sg36
g4
sg37
(dp4945
sg39
(dp4946
sg41
I2690
sg42
g21
sg43
g21
sg44
I490
sg45
V]
p4947
sg47
I490
sg48
I2691
sbag0
(g23
g2
Ntp4948
Rp4949
(dp4950
g27
(dp4951
g29
Vone
p4952
sg31
VNUMBER
p4953
sg33
VCD
p4954
sg35
I31
ssg10
I491
sg36
g4
sg37
(dp4955
sg39
(dp4956
sg41
I2692
sg42
g21
sg43
g21
sg44
I491
sg45
Vone
p4957
sg47
I491
sg48
I2695
sbag0
(g23
g2
Ntp4958
Rp4959
(dp4960
g27
(dp4961
g29
Vof
p4962
sg31
VO
p4963
sg33
VIN
p4964
sg35
I32
ssg10
I492
sg36
g4
sg37
(dp4965
sg39
(dp4966
sg41
I2696
sg42
g21
sg43
g21
sg44
I492
sg45
Vof
p4967
sg47
I492
sg48
I2698
sbag0
(g23
g2
Ntp4968
Rp4969
(dp4970
g27
(dp4971
g29
Vthe
p4972
sg31
VO
p4973
sg33
VDT
p4974
sg35
I33
ssg10
I493
sg36
g4
sg37
(dp4975
sg39
(dp4976
sg41
I2699
sg42
g21
sg43
g21
sg44
I493
sg45
Vthe
p4977
sg47
I493
sg48
I2702
sbag0
(g23
g2
Ntp4978
Rp4979
(dp4980
g27
(dp4981
g29
VKenya
p4982
sg31
VLOCATION
p4983
sg33
VNNP
p4984
sg35
I34
ssg10
I494
sg36
g4
sg37
(dp4985
sg39
(dp4986
sg41
I2703
sg42
g21
sg43
g21
sg44
I494
sg45
VKenya
p4987
sg47
I494
sg48
I2708
sbag0
(g23
g2
Ntp4988
Rp4989
(dp4990
g27
(dp4991
g29
V's
p4992
sg31
VO
p4993
sg33
VPOS
p4994
sg35
I35
ssg10
I495
sg36
g4
sg37
(dp4995
sg39
(dp4996
sg41
I2708
sg42
g21
sg43
g21
sg44
I495
sg45
V\u2019s
p4997
sg47
I495
sg48
I2710
sbag0
(g23
g2
Ntp4998
Rp4999
(dp5000
g27
(dp5001
g29
Vlead
p5002
sg31
VO
p5003
sg33
VVBG
p5004
sg35
I36
ssg10
I496
sg36
g4
sg37
(dp5005
sg39
(dp5006
sg41
I2711
sg42
g21
sg43
g21
sg44
I496
sg45
Vleading
p5007
sg47
I496
sg48
I2718
sbag0
(g23
g2
Ntp5008
Rp5009
(dp5010
g27
(dp5011
g29
Vmedia
p5012
sg31
VO
p5013
sg33
VNNS
p5014
sg35
I37
ssg10
I497
sg36
g4
sg37
(dp5015
sg39
(dp5016
sg41
I2719
sg42
g21
sg43
g21
sg44
I497
sg45
Vmedia
p5017
sg47
I497
sg48
I2724
sbag0
(g23
g2
Ntp5018
Rp5019
(dp5020
g27
(dp5021
g29
Vhouse
p5022
sg31
VO
p5023
sg33
VNNS
p5024
sg35
I38
ssg10
I498
sg36
g4
sg37
(dp5025
sg39
(dp5026
sg41
I2725
sg42
g21
sg43
g21
sg44
I498
sg45
Vhouses
p5027
sg47
I498
sg48
I2731
sbag0
(g23
g2
Ntp5028
Rp5029
(dp5030
g27
(dp5031
g29
V,
p5032
sg31
VO
p5033
sg33
V,
p5034
sg35
I39
ssg10
I499
sg36
g4
sg37
(dp5035
sg39
(dp5036
sg41
I2731
sg42
g21
sg43
g21
sg44
I499
sg45
V,
p5037
sg47
I499
sg48
I2732
sbag0
(g23
g2
Ntp5038
Rp5039
(dp5040
g27
(dp5041
g29
Vhe
p5042
sg31
VO
p5043
sg33
VPRP
p5044
sg35
I40
ssg10
I500
sg36
g4
sg37
(dp5045
sg39
(dp5046
sg41
I2733
sg42
g21
sg43
g21
sg44
I500
sg45
Vhe
p5047
sg47
I500
sg48
I2735
sbag0
(g23
g2
Ntp5048
Rp5049
(dp5050
g27
(dp5051
g29
Vbe
p5052
sg31
VO
p5053
sg33
VVBD
p5054
sg35
I41
ssg10
I501
sg36
g4
sg37
(dp5055
sg39
(dp5056
sg41
I2736
sg42
g21
sg43
g21
sg44
I501
sg45
Vwas
p5057
sg47
I501
sg48
I2739
sbag0
(g23
g2
Ntp5058
Rp5059
(dp5060
g27
(dp5061
g29
Vdescribe
p5062
sg31
VO
p5063
sg33
VVBN
p5064
sg35
I42
ssg10
I502
sg36
g4
sg37
(dp5065
sg39
(dp5066
sg41
I2740
sg42
g21
sg43
g21
sg44
I502
sg45
Vdescribed
p5067
sg47
I502
sg48
I2749
sbag0
(g23
g2
Ntp5068
Rp5069
(dp5070
g27
(dp5071
g29
Vas
p5072
sg31
VO
p5073
sg33
VIN
p5074
sg35
I43
ssg10
I503
sg36
g4
sg37
(dp5075
sg39
(dp5076
sg41
I2750
sg42
g21
sg43
g21
sg44
I503
sg45
Vas
p5077
sg47
I503
sg48
I2752
sbag0
(g23
g2
Ntp5078
Rp5079
(dp5080
g27
(dp5081
g29
Vone
p5082
sg31
VNUMBER
p5083
sg33
VCD
p5084
sg35
I44
ssg10
I504
sg36
g4
sg37
(dp5085
sg39
(dp5086
sg41
I2753
sg42
g21
sg43
g21
sg44
I504
sg45
Vone
p5087
sg47
I504
sg48
I2756
sbag0
(g23
g2
Ntp5088
Rp5089
(dp5090
g27
(dp5091
g29
Vperson
p5092
sg31
VO
p5093
sg33
VNN
p5094
sg35
I45
ssg10
I505
sg36
g4
sg37
(dp5095
sg39
(dp5096
sg41
I2757
sg42
g21
sg43
g21
sg44
I505
sg45
Vperson
p5097
sg47
I505
sg48
I2763
sbag0
(g23
g2
Ntp5098
Rp5099
(dp5100
g27
(dp5101
g29
Vwhose
p5102
sg31
VO
p5103
sg33
VWP$
p5104
sg35
I46
ssg10
I506
sg36
g4
sg37
(dp5105
sg39
(dp5106
sg41
I2764
sg42
g21
sg43
g21
sg44
I506
sg45
Vwhose
p5107
sg47
I506
sg48
I2769
sbag0
(g23
g2
Ntp5108
Rp5109
(dp5110
g27
(dp5111
g29
Vdecision
p5112
sg31
VO
p5113
sg33
VNNS
p5114
sg35
I47
ssg10
I507
sg36
g4
sg37
(dp5115
sg39
(dp5116
sg41
I2770
sg42
g21
sg43
g21
sg44
I507
sg45
Vdecisions
p5117
sg47
I507
sg48
I2779
sbag0
(g23
g2
Ntp5118
Rp5119
(dp5120
g27
(dp5121
g29
Vand
p5122
sg31
VO
p5123
sg33
VCC
p5124
sg35
I48
ssg10
I508
sg36
g4
sg37
(dp5125
sg39
(dp5126
sg41
I2780
sg42
g21
sg43
g21
sg44
I508
sg45
Vand
p5127
sg47
I508
sg48
I2783
sbag0
(g23
g2
Ntp5128
Rp5129
(dp5130
g27
(dp5131
g29
Vaction
p5132
sg31
VO
p5133
sg33
VNNS
p5134
sg35
I49
ssg10
I509
sg36
g4
sg37
(dp5135
sg39
(dp5136
sg41
I2784
sg42
g21
sg43
g21
sg44
I509
sg45
Vactions
p5137
sg47
I509
sg48
I2791
sbag0
(g23
g2
Ntp5138
Rp5139
(dp5140
g27
(dp5141
g29
Vbe
p5142
sg31
VO
p5143
sg33
VVBP
p5144
sg35
I50
ssg10
I510
sg36
g4
sg37
(dp5145
sg39
(dp5146
sg41
I2792
sg42
g21
sg43
g21
sg44
I510
sg45
Vare
p5147
sg47
I510
sg48
I2795
sbag0
(g23
g2
Ntp5148
Rp5149
(dp5150
g27
(dp5151
g29
Vnot
p5152
sg31
VO
p5153
sg33
VRB
p5154
sg35
I51
ssg10
I511
sg36
g4
sg37
(dp5155
sg39
(dp5156
sg41
I2796
sg42
g21
sg43
g21
sg44
I511
sg45
Vnot
p5157
sg47
I511
sg48
I2799
sbag0
(g23
g2
Ntp5158
Rp5159
(dp5160
g27
(dp5161
g29
Vmotivate
p5162
sg31
VO
p5163
sg33
VVBN
p5164
sg35
I52
ssg10
I512
sg36
g4
sg37
(dp5165
sg39
(dp5166
sg41
I2800
sg42
g21
sg43
g21
sg44
I512
sg45
Vmotivated
p5167
sg47
I512
sg48
I2809
sbag0
(g23
g2
Ntp5168
Rp5169
(dp5170
g27
(dp5171
g29
Vby
p5172
sg31
VO
p5173
sg33
VIN
p5174
sg35
I53
ssg10
I513
sg36
g4
sg37
(dp5175
sg39
(dp5176
sg41
I2810
sg42
g21
sg43
g21
sg44
I513
sg45
Vby
p5177
sg47
I513
sg48
I2812
sbag0
(g23
g2
Ntp5178
Rp5179
(dp5180
g27
(dp5181
g29
Vthe
p5182
sg31
VO
p5183
sg33
VDT
p5184
sg35
I54
ssg10
I514
sg36
g4
sg37
(dp5185
sg39
(dp5186
sg41
I2813
sg42
g21
sg43
g21
sg44
I514
sg45
Vthe
p5187
sg47
I514
sg48
I2816
sbag0
(g23
g2
Ntp5188
Rp5189
(dp5190
g27
(dp5191
g29
Vpublicity
p5192
sg31
VO
p5193
sg33
VNN
p5194
sg35
I55
ssg10
I515
sg36
g4
sg37
(dp5195
sg39
(dp5196
sg41
I2817
sg42
g21
sg43
g21
sg44
I515
sg45
Vpublicity
p5197
sg47
I515
sg48
I2826
sbag0
(g23
g2
Ntp5198
Rp5199
(dp5200
g27
(dp5201
g29
Vthey
p5202
sg31
VO
p5203
sg33
VPRP
p5204
sg35
I56
ssg10
I516
sg36
g4
sg37
(dp5205
sg39
(dp5206
sg41
I2827
sg42
g21
sg43
g21
sg44
I516
sg45
Vthey
p5207
sg47
I516
sg48
I2831
sbag0
(g23
g2
Ntp5208
Rp5209
(dp5210
g27
(dp5211
g29
Vattract
p5212
sg31
VO
p5213
sg33
VVBP
p5214
sg35
I57
ssg10
I517
sg36
g4
sg37
(dp5215
sg39
(dp5216
sg41
I2832
sg42
g21
sg43
g21
sg44
I517
sg45
Vattract
p5217
sg47
I517
sg48
I2839
sbag0
(g23
g2
Ntp5218
Rp5219
(dp5220
g27
(dp5221
g29
Vbut
p5222
sg31
VO
p5223
sg33
VCC
p5224
sg35
I58
ssg10
I518
sg36
g4
sg37
(dp5225
sg39
(dp5226
sg41
I2840
sg42
g21
sg43
g21
sg44
I518
sg45
Vbut
p5227
sg47
I518
sg48
I2843
sbag0
(g23
g2
Ntp5228
Rp5229
(dp5230
g27
(dp5231
g29
Vby
p5232
sg31
VO
p5233
sg33
VIN
p5234
sg35
I59
ssg10
I519
sg36
g4
sg37
(dp5235
sg39
(dp5236
sg41
I2844
sg42
g21
sg43
g21
sg44
I519
sg45
Vby
p5237
sg47
I519
sg48
I2846
sbag0
(g23
g2
Ntp5238
Rp5239
(dp5240
g27
(dp5241
g29
Vpassion
p5242
sg31
VO
p5243
sg33
VNN
p5244
sg35
I60
ssg10
I520
sg36
g4
sg37
(dp5245
sg39
(dp5246
sg41
I2847
sg42
g21
sg43
g21
sg44
I520
sg45
Vpassion
p5247
sg47
I520
sg48
I2854
sbag0
(g23
g2
Ntp5248
Rp5249
(dp5250
g27
(dp5251
g29
Vfor
p5252
sg31
VO
p5253
sg33
VIN
p5254
sg35
I61
ssg10
I521
sg36
g4
sg37
(dp5255
sg39
(dp5256
sg41
I2855
sg42
g21
sg43
g21
sg44
I521
sg45
Vfor
p5257
sg47
I521
sg48
I2858
sbag0
(g23
g2
Ntp5258
Rp5259
(dp5260
g27
(dp5261
g29
Vwhat
p5262
sg31
VO
p5263
sg33
VWP
p5264
sg35
I62
ssg10
I522
sg36
g4
sg37
(dp5265
sg39
(dp5266
sg41
I2859
sg42
g21
sg43
g21
sg44
I522
sg45
Vwhat
p5267
sg47
I522
sg48
I2863
sbag0
(g23
g2
Ntp5268
Rp5269
(dp5270
g27
(dp5271
g29
Vthey
p5272
sg31
VO
p5273
sg33
VPRP
p5274
sg35
I63
ssg10
I523
sg36
g4
sg37
(dp5275
sg39
(dp5276
sg41
I2864
sg42
g21
sg43
g21
sg44
I523
sg45
Vthey
p5277
sg47
I523
sg48
I2868
sbag0
(g23
g2
Ntp5278
Rp5279
(dp5280
g27
(dp5281
g29
Vdo
p5282
sg31
VO
p5283
sg33
VVBP
p5284
sg35
I64
ssg10
I524
sg36
g4
sg37
(dp5285
sg39
(dp5286
sg41
I2869
sg42
g21
sg43
g21
sg44
I524
sg45
Vdo
p5287
sg47
I524
sg48
I2871
sbag0
(g23
g2
Ntp5288
Rp5289
(dp5290
g27
(dp5291
g29
V.
p5292
sg31
VO
p5293
sg33
V.
p5294
sg35
I65
ssg10
I525
sg36
g4
sg37
(dp5295
sg39
(dp5296
sg41
I2871
sg42
g21
sg43
g21
sg44
I525
sg45
V.
p5297
sg47
I525
sg48
I2872
sbag0
(g23
g2
Ntp5298
Rp5299
(dp5300
g27
(dp5301
g29
Von
p5302
sg31
VO
p5303
sg33
VIN
p5304
sg35
I1
ssg10
I526
sg36
g4
sg37
(dp5305
sg39
(dp5306
sg41
I2873
sg42
g21
sg43
g21
sg44
I526
sg45
VOn
p5307
sg47
I526
sg48
I2875
sbag0
(g23
g2
Ntp5308
Rp5309
(dp5310
g27
(dp5311
g29
VMarch
p5312
sg31
VDATE
p5313
sg33
VNNP
p5314
sg35
I2
ssg10
I527
sg36
g4
sg37
(dp5315
sg39
(dp5316
sg41
I2876
sg42
g21
sg43
g21
sg44
I527
sg45
VMarch
p5317
sg47
I527
sg48
I2881
sbag0
(g23
g2
Ntp5318
Rp5319
(dp5320
g27
(dp5321
g29
V11
p5322
sg31
VDATE
p5323
sg33
VCD
p5324
sg35
I3
ssg10
I528
sg36
g4
sg37
(dp5325
sg39
(dp5326
sg41
I2882
sg42
g21
sg43
g21
sg44
I528
sg45
V11
p5327
sg47
I528
sg48
I2884
sbag0
(g23
g2
Ntp5328
Rp5329
(dp5330
g27
(dp5331
g29
V,
p5332
sg31
VDATE
p5333
sg33
V,
p5334
sg35
I4
ssg10
I529
sg36
g4
sg37
(dp5335
sg39
(dp5336
sg41
I2884
sg42
g21
sg43
g21
sg44
I529
sg45
V,
p5337
sg47
I529
sg48
I2885
sbag0
(g23
g2
Ntp5338
Rp5339
(dp5340
g27
(dp5341
g29
V2008
p5342
sg31
VDATE
p5343
sg33
VCD
p5344
sg35
I5
ssg10
I530
sg36
g4
sg37
(dp5345
sg39
(dp5346
sg41
I2886
sg42
g21
sg43
g21
sg44
I530
sg45
V2008
p5347
sg47
I530
sg48
I2890
sbag0
(g23
g2
Ntp5348
Rp5349
(dp5350
g27
(dp5351
g29
V,
p5352
sg31
VO
p5353
sg33
V,
p5354
sg35
I6
ssg10
I531
sg36
g4
sg37
(dp5355
sg39
(dp5356
sg41
I2890
sg42
g21
sg43
g21
sg44
I531
sg45
V,
p5357
sg47
I531
sg48
I2891
sbag0
(g23
g2
Ntp5358
Rp5359
(dp5360
g27
(dp5361
g29
Vthe
p5362
sg31
VO
p5363
sg33
VDT
p5364
sg35
I7
ssg10
I532
sg36
g4
sg37
(dp5365
sg39
(dp5366
sg41
I2892
sg42
g21
sg43
g21
sg44
I532
sg45
VThe
p5367
sg47
I532
sg48
I2895
sbag0
(g23
g2
Ntp5368
Rp5369
(dp5370
g27
(dp5371
g29
VWorld
p5372
sg31
VORGANIZATION
p5373
sg33
VNNP
p5374
sg35
I8
ssg10
I533
sg36
g4
sg37
(dp5375
sg39
(dp5376
sg41
I2896
sg42
g21
sg43
g21
sg44
I533
sg45
VWorld
p5377
sg47
I533
sg48
I2901
sbag0
(g23
g2
Ntp5378
Rp5379
(dp5380
g27
(dp5381
g29
VEconomic
p5382
sg31
VORGANIZATION
p5383
sg33
VNNP
p5384
sg35
I9
ssg10
I534
sg36
g4
sg37
(dp5385
sg39
(dp5386
sg41
I2902
sg42
g21
sg43
g21
sg44
I534
sg45
VEconomic
p5387
sg47
I534
sg48
I2910
sbag0
(g23
g2
Ntp5388
Rp5389
(dp5390
g27
(dp5391
g29
VForum
p5392
sg31
VORGANIZATION
p5393
sg33
VNNP
p5394
sg35
I10
ssg10
I535
sg36
g4
sg37
(dp5395
sg39
(dp5396
sg41
I2911
sg42
g21
sg43
g21
sg44
I535
sg45
VForum
p5397
sg47
I535
sg48
I2916
sbag0
(g23
g2
Ntp5398
Rp5399
(dp5400
g27
(dp5401
g29
Vname
p5402
sg31
VO
p5403
sg33
VVBD
p5404
sg35
I11
ssg10
I536
sg36
g4
sg37
(dp5405
sg39
(dp5406
sg41
I2917
sg42
g21
sg43
g21
sg44
I536
sg45
Vnamed
p5407
sg47
I536
sg48
I2922
sbag0
(g23
g2
Ntp5408
Rp5409
(dp5410
g27
(dp5411
g29
VMr.
p5412
sg31
VO
p5413
sg33
VNNP
p5414
sg35
I12
ssg10
I537
sg36
g4
sg37
(dp5415
sg39
(dp5416
sg41
I2923
sg42
g21
sg43
g21
sg44
I537
sg45
VMr.
p5417
sg47
I537
sg48
I2926
sbag0
(g23
g2
Ntp5418
Rp5419
(dp5420
g27
(dp5421
g29
VShikwati
p5422
sg31
VPERSON
p5423
sg33
VNNP
p5424
sg35
I13
ssg10
I538
sg36
g4
sg37
(dp5425
sg39
(dp5426
sg41
I2927
sg42
g21
sg43
g21
sg44
I538
sg45
VShikwati
p5427
sg47
I538
sg48
I2935
sbag0
(g23
g2
Ntp5428
Rp5429
(dp5430
g27
(dp5431
g29
Vamong
p5432
sg31
VO
p5433
sg33
VIN
p5434
sg35
I14
ssg10
I539
sg36
g4
sg37
(dp5435
sg39
(dp5436
sg41
I2936
sg42
g21
sg43
g21
sg44
I539
sg45
Vamong
p5437
sg47
I539
sg48
I2941
sbag0
(g23
g2
Ntp5438
Rp5439
(dp5440
g27
(dp5441
g29
Vthe
p5442
sg31
VO
p5443
sg33
VDT
p5444
sg35
I15
ssg10
I540
sg36
g4
sg37
(dp5445
sg39
(dp5446
sg41
I2942
sg42
g21
sg43
g21
sg44
I540
sg45
Vthe
p5447
sg47
I540
sg48
I2945
sbag0
(g23
g2
Ntp5448
Rp5449
(dp5450
g27
(dp5451
g29
V250
p5452
sg31
VNUMBER
p5453
sg33
VCD
p5454
sg35
I16
ssg10
I541
sg36
g4
sg37
(dp5455
sg39
(dp5456
sg41
I2946
sg42
g21
sg43
g21
sg44
I541
sg45
V250
p5457
sg47
I541
sg48
I2949
sbag0
(g23
g2
Ntp5458
Rp5459
(dp5460
g27
(dp5461
g29
Vyoung
p5462
sg31
VO
p5463
sg33
VNN
p5464
sg35
I17
ssg10
I542
sg36
g4
sg37
(dp5465
sg39
(dp5466
sg41
I2950
sg42
g21
sg43
g21
sg44
I542
sg45
VYoung
p5467
sg47
I542
sg48
I2955
sbag0
(g23
g2
Ntp5468
Rp5469
(dp5470
g27
(dp5471
g29
Vglobal
p5472
sg31
VO
p5473
sg33
VJJ
p5474
sg35
I18
ssg10
I543
sg36
g4
sg37
(dp5475
sg39
(dp5476
sg41
I2956
sg42
g21
sg43
g21
sg44
I543
sg45
VGlobal
p5477
sg47
I543
sg48
I2962
sbag0
(g23
g2
Ntp5478
Rp5479
(dp5480
g27
(dp5481
g29
Vleader
p5482
sg31
VO
p5483
sg33
VNNS
p5484
sg35
I19
ssg10
I544
sg36
g4
sg37
(dp5485
sg39
(dp5486
sg41
I2963
sg42
g21
sg43
g21
sg44
I544
sg45
VLeaders
p5487
sg47
I544
sg48
I2970
sbag0
(g23
g2
Ntp5488
Rp5489
(dp5490
g27
(dp5491
g29
Vof
p5492
sg31
VO
p5493
sg33
VIN
p5494
sg35
I20
ssg10
I545
sg36
g4
sg37
(dp5495
sg39
(dp5496
sg41
I2971
sg42
g21
sg43
g21
sg44
I545
sg45
Vof
p5497
sg47
I545
sg48
I2973
sbag0
(g23
g2
Ntp5498
Rp5499
(dp5500
g27
(dp5501
g29
V2008
p5502
sg31
VDATE
p5503
sg33
VCD
p5504
sg35
I21
ssg10
I546
sg36
g4
sg37
(dp5505
sg39
(dp5506
sg41
I2974
sg42
g21
sg43
g21
sg44
I546
sg45
V2008
p5507
sg47
I546
sg48
I2978
sbag0
(g23
g2
Ntp5508
Rp5509
(dp5510
g27
(dp5511
g29
V.
p5512
sg31
VO
p5513
sg33
V.
p5514
sg35
I22
ssg10
I547
sg36
g4
sg37
(dp5515
sg39
(dp5516
sg41
I2978
sg42
g21
sg43
g21
sg44
I547
sg45
V.
p5517
sg47
I547
sg48
I2979
sbasS'Document'
p5518
(lp5519
g4
asS'doc-features'
p5520
g14
sS'Sentence'
p5521
(lp5522
g0
(g23
g2
Ntp5523
Rp5524
(dp5525
g27
(dp5526
S'dep-parse'
p5527
S'not implemented!'
p5528
sg35
I0
sS'constituency-parse'
p5529
V(ROOT\u000a  (S\u000a    (NP\u000a      (NP (NNP James) (NNP Shikwati))\u000a      (PRN (-LRB- -LRB-)\u000a        (VP (VBN born)\u000a          (NP (CD 1970)))\u000a        (-RRB- -RRB-)))\u000a    (VP (VBZ is)\u000a      (NP\u000a        (NP (DT a) (JJ Kenyan) (JJ libertarian) (NN economist))\u000a        (CC and)\u000a        (NP\u000a          (NP (NN Director))\u000a          (PP (IN of)\u000a            (NP (DT the) (NNP Inter) (NNP Region) (NNP Economic) (NNP Network)))\u000a          (SBAR\u000a            (WHNP (WP who))\u000a            (S\u000a              (VP (VBZ promotes)\u000a                (NP\u000a                  (NP (NN freedom))\u000a                  (PP (IN of)\u000a                    (NP (NN trade))))\u000a                (PP (IN as)\u000a                  (NP\u000a                    (NP (DT the) (VBG driving) (NN solution))\u000a                    (PP (TO to)\u000a                      (NP\u000a                        (NP (NN poverty))\u000a                        (PP (IN in)\u000a                          (NP (NNP Africa)))))))))))))\u000a    (. .)))
p5530
ssg10
I0
sg36
g4
sg37
(dp5531
sg39
(dp5532
S'tokens'
p5533
(lp5534
g25
ag50
ag60
ag70
ag80
ag90
ag100
ag110
ag120
ag130
ag140
ag150
ag160
ag170
ag180
ag190
ag200
ag210
ag220
ag230
ag240
ag250
ag260
ag270
ag280
ag290
ag300
ag310
ag320
ag330
ag340
ag350
ag360
assg41
I0
sg42
g5521
sg43
g5521
sg44
I0
sg45
VJames Shikwati (born 1970) is a Kenyan libertarian economist and Director of the Inter Region Economic Network who promotes freedom of trade as the driving solution to poverty in Africa.
p5535
sg47
I33
sg48
I186
sbag0
(g23
g2
Ntp5536
Rp5537
(dp5538
g27
(dp5539
g5527
g5528
sg35
I1
sg5529
V(X (PRP He) (VBZ has) (VBN made) (NNS comments) (WDT which) (VBP imply) (IN that) (NN aid) (IN towards) (NNP Africa) (VBZ does) (RBR more) (NN harm) (IN than) (JJ good) (TO to) (PRP$ their) (NNS people) (, ,) (VBN based) (IN on) (DT the) (JJ central) (NNS arguments) (IN that) (PRP it) (VBZ is) (RB mainly) (VBN used)\u000a  (CC either)\u000a  (IN by) (NNS politicians) (IN as) (DT a) (NN tool) (TO to) (VB manipulate) (NNS people)\u000a  (CC and)\u000a  (VB influence) (NNS votes) (, ,)\u000a  (CC or)\u000a  (IN as) (DT a) (NN mechanism) (IN for) (VBG dumping) (VBN subsidised) (JJ foreign) (JJ agricultural) (NNS products) (IN onto) (JJ local) (NNS markets) (IN at) (IN below) (NN cost) (VBG making) (PRP it) (RB nearly) (JJ impossible) (IN for) (JJ African) (NNS farmers) (TO to) (VB compete) (. .))
p5540
ssg10
I1
sg36
g4
sg37
(dp5541
sg39
(dp5542
g5533
(lp5543
g370
ag380
ag390
ag400
ag410
ag420
ag430
ag440
ag450
ag460
ag470
ag480
ag490
ag500
ag510
ag520
ag530
ag540
ag550
ag560
ag570
ag580
ag590
ag600
ag610
ag620
ag630
ag640
ag650
ag660
ag670
ag680
ag690
ag700
ag710
ag720
ag730
ag740
ag750
ag760
ag770
ag780
ag790
ag800
ag810
ag820
ag830
ag840
ag850
ag860
ag870
ag880
ag890
ag900
ag910
ag920
ag930
ag940
ag950
ag960
ag970
ag980
ag990
ag1000
ag1010
ag1020
ag1030
ag1040
assg41
I187
sg42
g5521
sg43
g5521
sg44
I33
sg45
V He has made comments which imply that aid towards Africa does more harm than good to their people, based on the central arguments that it is mainly used either by politicians as a tool to manipulate people and influence votes, or as a mechanism for dumping subsidised foreign agricultural products onto local markets at below cost making it nearly impossible for African farmers to compete.
p5544
sg47
I101
sg48
I577
sbag0
(g23
g2
Ntp5545
Rp5546
(dp5547
g27
(dp5548
g5527
g5528
sg35
I2
sg5529
V(ROOT\u000a  (S\u000a    (NP\u000a      (NP (DT A) (NN graduate))\u000a      (PP (IN from)\u000a        (NP\u000a          (NP (DT the) (NNP University))\u000a          (PP (IN of)\u000a            (NP\u000a              (NP (NNP Nairobi))\u000a              (PRN (-LRB- -LRB-)\u000a                (NP\u000a                  (NP (NNP B.ED) (NNP Arts))\u000a                  (NP (CD 1994)))\u000a                (-RRB- -RRB-)))))))\u000a    (, ,)\u000a    (VP\u000a      (VP (VBD attended)\u000a        (NP\u000a          (NP (NNP Musingu) (NNP High) (NNP School))\u000a          (PRN (-LRB- -LRB-)\u000a            (NP (CD 1989))\u000a            (-RRB- -RRB-))))\u000a      (CC and)\u000a      (VP (VBD taught)\u000a        (SBAR\u000a          (S\u000a            (NP\u000a              (NP\u000a                (NP (NNP Kiptewit) (NNP High) (NNP School))\u000a                (PRN (-LRB- -LRB-)\u000a                  (NP\u000a                    (NP (CD 1994))\u000a                    (: --)\u000a                    (NP (CD 2001)))\u000a                  (-RRB- -RRB-)))\u000a              (PP (IN in)\u000a                (NP (NNP Kericho) (NNP Rift) (NNP Valley) (NN province)))\u000a              (PP (IN in)\u000a                (NP (NN Kenya.He))))\u000a            (VP (VBZ is)\u000a              (NP (DT a)\u000a                (S (`` ``)\u000a                  (NP (NN self))\u000a                  (VP (VBD taught))\u000a                  ('' '')))))))\u000a      (NP (NN economist)))\u000a    (. .)))
p5549
ssg10
I2
sg36
g4
sg37
(dp5550
sg39
(dp5551
g5533
(lp5552
g1050
ag1060
ag1070
ag1080
ag1090
ag1100
ag1110
ag1120
ag1130
ag1140
ag1150
ag1160
ag1170
ag1180
ag1190
ag1200
ag1210
ag1220
ag1230
ag1240
ag1250
ag1260
ag1270
ag1280
ag1290
ag1300
ag1310
ag1320
ag1330
ag1340
ag1350
ag1360
ag1370
ag1380
ag1390
ag1400
ag1410
ag1420
ag1430
ag1440
ag1450
ag1460
ag1470
ag1479
ag1489
assg41
I579
sg42
g5521
sg43
g5521
sg44
I101
sg45
V\u000a\u000aA graduate from the University of Nairobi (B.ED Arts 1994), attended Musingu High School (1989) and taught Kiptewit High School (1994\u20132001) in Kericho Rift Valley province in Kenya.He is a "self taught" economist.
p5553
sg47
I146
sg48
I792
sbag0
(g23
g2
Ntp5554
Rp5555
(dp5556
g27
(dp5557
g5527
g5528
sg35
I3
sg5529
V(ROOT\u000a  (S\u000a    (NP (NNP James) (NNP Shikwati))\u000a    (VP (VBZ is)\u000a      (NP\u000a        (NP (DT a) (NN writer))\u000a        (CC and)\u000a        (NP\u000a          (NP\u000a            (NP (DT a) (NN commentator))\u000a            (PP (IN on)\u000a              (NP\u000a                (NP (JJ public) (NN policy))\u000a                (PP (IN with)\u000a                  (NP\u000a                    (NP (DT a) (JJ special) (NN interest))\u000a                    (PP (IN in)\u000a                      (NP (NN development) (, ,) (NN environment) (, ,) (NN trade)\u000a                        (CC and)\u000a                        (NN agriculture))))))))\u000a          (NP (JJ related) (NNS issues)))))\u000a    (. .)))
p5558
ssg10
I3
sg36
g4
sg37
(dp5559
sg39
(dp5560
g5533
(lp5561
g1499
ag1509
ag1519
ag1529
ag1539
ag1549
ag1559
ag1569
ag1579
ag1589
ag1599
ag1609
ag1619
ag1629
ag1639
ag1649
ag1659
ag1669
ag1679
ag1689
ag1699
ag1709
ag1719
ag1729
ag1739
ag1749
assg41
I794
sg42
g5521
sg43
g5521
sg44
I146
sg45
V\u000a\u000aJames Shikwati is a writer and a commentator on public policy with a special interest in development, environment, trade and agriculture related issues.
p5562
sg47
I172
sg48
I946
sbag0
(g23
g2
Ntp5563
Rp5564
(dp5565
g27
(dp5566
g5527
g5528
sg35
I4
sg5529
V(ROOT\u000a  (S\u000a    (NP (PRP He))\u000a    (VP (VBZ has)\u000a      (VP (VBN written)\u000a        (ADVP (RB widely))\u000a        (PP (IN on)\u000a          (NP\u000a            (NP (DT a) (NN variety))\u000a            (PP (IN of)\u000a              (NP\u000a                (NP (NNS subjects))\u000a                (PP (IN in)\u000a                  (NP\u000a                    (NP\u000a                      (NP (JJ Kenyan)\u000a                        (CC and)\u000a                        (JJ international) (NNS newspapers))\u000a                      (, ,)\u000a                      (NP (NNS magazines))\u000a                      (, ,))\u000a                    (PP (JJ such) (IN as)\u000a                      (NP\u000a                        (NP (DT The) (NNP Times))\u000a                        (, ,)\u000a                        (NP (DT The) (NNP Guardian))\u000a                        (, ,)\u000a                        (NP (NNP The) (NNP Wall) (NNP Street) (NNP Journal))\u000a                        (, ,)\u000a                        (NP (DT The) (NNP Washington) (NNP Post))\u000a                        (, ,)\u000a                        (NP (DT The) (NNP Sydney) (NN Morning) (NNP Herald))\u000a                        (, ,)\u000a                        (NP (NNP The) (NNP Business) (NNP News))\u000a                        (, ,)\u000a                        (NP (DT The) (NNP Daily) (NNP Nation))\u000a                        (, ,)\u000a                        (NP (NNP The) (NNP East) (NNP African) (NNP Standard))\u000a                        (CC and)\u000a                        (NP (DT The) (NNP African) (NNP Executive))))))))))))\u000a    (. .)))
p5567
ssg10
I4
sg36
g4
sg37
(dp5568
sg39
(dp5569
g5533
(lp5570
g1759
ag1769
ag1779
ag1789
ag1799
ag1809
ag1819
ag1829
ag1839
ag1849
ag1859
ag1869
ag1879
ag1889
ag1899
ag1909
ag1919
ag1929
ag1939
ag1949
ag1959
ag1969
ag1979
ag1989
ag1999
ag2009
ag2019
ag2029
ag2039
ag2049
ag2059
ag2069
ag2079
ag2089
ag2099
ag2109
ag2119
ag2129
ag2139
ag2149
ag2159
ag2169
ag2179
ag2189
ag2199
ag2209
ag2219
ag2229
ag2239
ag2249
ag2259
ag2269
ag2279
ag2289
ag2299
ag2309
assg41
I947
sg42
g5521
sg43
g5521
sg44
I172
sg45
V He has written widely on a variety of subjects in Kenyan and international newspapers, magazines, such as The Times, The Guardian, The Wall Street Journal, The Washington Post, The Sydney Morning Herald, The Business News, The Daily Nation, The East African Standard and The African Executive.
p5571
sg47
I228
sg48
I1240
sbag0
(g23
g2
Ntp5572
Rp5573
(dp5574
g27
(dp5575
g5527
g5528
sg35
I5
sg5529
V(ROOT\u000a  (S\u000a    (S\u000a      (NP (NNP Mr.) (NNP Shikwati))\u000a      (VP (VBD was)\u000a        (ADVP (RB also))\u000a        (VP (VBN featured)\u000a          (PP (IN in)\u000a            (NP\u000a              (NP (DT a)\u000a                (ADJP\u000a                  (NP (NNP November) (CD 18) (, ,) (CD 2006)))\u000a                (NN article))\u000a              (PP (IN in)\u000a                (NP (DT the) (NNP New) (NNP York) (NNP Times))))))))\u000a    (: :)\u000a    (S\u000a      (NP (-LRB- -LSB-) (NN REF))\u000a      (VP (-RRB- -RSB-)))\u000a    (. .)))
p5576
ssg10
I5
sg36
g4
sg37
(dp5577
sg39
(dp5578
g5533
(lp5579
g2319
ag2329
ag2339
ag2349
ag2359
ag2369
ag2379
ag2389
ag2399
ag2409
ag2419
ag2429
ag2439
ag2449
ag2459
ag2469
ag2479
ag2489
ag2499
ag2509
ag2519
ag2529
assg41
I1243
sg42
g5521
sg43
g5521
sg44
I228
sg45
V \u000a\u000aMr. Shikwati was also featured in a November 18, 2006 article in the New York Times:[REF] .
p5580
sg47
I250
sg48
I1334
sbag0
(g23
g2
Ntp5581
Rp5582
(dp5583
g27
(dp5584
g5527
g5528
sg35
I6
sg5529
V(ROOT\u000a  (S\u000a    (NP\u000a      (NP (NNP Jeffrey) (NNP D.) (NNP Sachs))\u000a      (, ,)\u000a      (NP\u000a        (NP (DT a) (NNP Columbia) (NNP University) (NN professor))\u000a        (SBAR\u000a          (WHNP (WP who))\u000a          (S\u000a            (VP (VBZ is)\u000a              (NP (DT a) (JJ leading) (NN aid) (NN advocate))))))\u000a      (, ,))\u000a    (VP (VBZ calls)\u000a      (S\u000a        (NP\u000a          (NP\u000a            (NP (NNP Mr.) (NNP Shikwati) (POS 's))\u000a            (NNS criticisms))\u000a          (PP (IN of)\u000a            (NP\u000a              (NP (JJ foreign) (NN assistance))\u000a              (UCP (`` ``)\u000a                (ADJP (RB shockingly) (JJ misguided))\u000a                ('' '')\u000a                (CC and)\u000a                (`` ``)\u000a                (NP (RB amazingly))))))\u000a        (ADJP (JJ wrong))))\u000a    (. .) ('' '')))
p5585
ssg10
I6
sg36
g4
sg37
(dp5586
sg39
(dp5587
g5533
(lp5588
g2539
ag2549
ag2559
ag2569
ag2579
ag2589
ag2599
ag2609
ag2619
ag2629
ag2639
ag2649
ag2659
ag2669
ag2679
ag2689
ag2699
ag2709
ag2719
ag2729
ag2739
ag2749
ag2759
ag2769
ag2779
ag2789
ag2799
ag2809
ag2819
ag2829
ag2839
ag2849
ag2859
assg41
I1337
sg42
g5521
sg43
g5521
sg44
I250
sg45
V \u000a\u000aJeffrey D. Sachs, a Columbia University professor who is a leading aid advocate, calls Mr. Shikwati\u2019s criticisms of foreign assistance \u201cshockingly misguided\u201d and \u201camazingly wrong.\u201d
p5589
sg47
I283
sg48
I1517
sbag0
(g23
g2
Ntp5590
Rp5591
(dp5592
g27
(dp5593
g5527
g5528
sg35
I7
sg5529
V(ROOT\u000a  (S (`` ``)\u000a    (S\u000a      (S\u000a        (NP (DT This))\u000a        (VP (VBZ happens)\u000a          (S\u000a            (VP (TO to)\u000a              (VP (VB be)\u000a                (NP\u000a                  (NP (DT a) (NN matter))\u000a                  (PP (IN of)\u000a                    (NP (NN life)\u000a                      (CC and)\u000a                      (NN death))))\u000a                (PP (IN for)\u000a                  (NP\u000a                    (NP (NNS millions))\u000a                    (PP (IN of)\u000a                      (NP (NNS people))))))))))\u000a      (, ,) (IN so)\u000a      (S\u000a        (S\u000a          (VP (VBG getting)\u000a            (S\u000a              (NP (PRP it))\u000a              (ADJP (JJ wrong)))))\u000a        (VP (VBZ has)\u000a          (NP (JJ huge) (NNS consequences)))))\u000a    (, ,) ('' '')\u000a    (NP (NNP Mr.) (NNP Sachs))\u000a    (VP (VBD said))\u000a    (. .)))
p5594
ssg10
I7
sg36
g4
sg37
(dp5595
sg39
(dp5596
g5533
(lp5597
g2869
ag2879
ag2889
ag2899
ag2909
ag2919
ag2929
ag2939
ag2949
ag2959
ag2969
ag2979
ag2989
ag2999
ag3009
ag3019
ag3029
ag3039
ag3049
ag3059
ag3069
ag3079
ag3089
ag3099
ag3109
ag3119
ag3129
ag3139
ag3149
assg41
I1518
sg42
g5521
sg43
g5521
sg44
I283
sg45
V \u201cThis happens to be a matter of life and death for millions of people, so getting it wrong has huge consequences,\u201d Mr. Sachs said.
p5598
sg47
I312
sg48
I1648
sbag0
(g23
g2
Ntp5599
Rp5600
(dp5601
g27
(dp5602
g5527
g5528
sg35
I8
sg5529
V(ROOT\u000a  (S\u000a    (NP (PRP He))\u000a    (VP (VBZ has)\u000a      (VP (VBN worked)\u000a        (ADVP (RB extensively))\u000a        (PP (IN with)\u000a          (NP\u000a            (ADJP (RB internationally) (JJ acclaimed))\u000a            (NN opinion) (NNS leaders)))\u000a        (S\u000a          (VP (TO to)\u000a            (VP (VB promote)\u000a              (NP\u000a                (NP\u000a                  (NP (NNS ideas))\u000a                  (SBAR\u000a                    (WHNP (WDT that))\u000a                    (S\u000a                      (VP (VBP improve)\u000a                        (NP (NN productivity))))))\u000a                (, ,)\u000a                (CC and)\u000a                (NP\u000a                  (NP (NN increase) (NN freedom))\u000a                  (SBAR\u000a                    (S\u000a                      (VP (TO to)\u000a                        (VP (VB trade)\u000a                          (PP (IN as)\u000a                            (NP (DT a) (NN way)\u000a                              (S\u000a                                (VP (TO to)\u000a                                  (VP (VB alleviate)\u000a                                    (NP (NN poverty))))))))))))))))))\u000a    (. .)))
p5603
ssg10
I8
sg36
g4
sg37
(dp5604
sg39
(dp5605
g5533
(lp5606
g3159
ag3169
ag3179
ag3189
ag3199
ag3209
ag3219
ag3229
ag3239
ag3249
ag3259
ag3269
ag3279
ag3289
ag3299
ag3309
ag3319
ag3329
ag3339
ag3349
ag3359
ag3369
ag3379
ag3389
ag3399
ag3409
ag3419
ag3429
assg41
I1651
sg42
g5521
sg43
g5521
sg44
I312
sg45
V \u000a\u000aHe has worked extensively with internationally acclaimed opinion leaders to promote ideas that improve productivity, and increase freedom to trade as a way to alleviate poverty.
p5607
sg47
I340
sg48
I1828
sbag0
(g23
g2
Ntp5608
Rp5609
(dp5610
g27
(dp5611
g5527
g5528
sg35
I9
sg5529
V(ROOT\u000a  (S\u000a    (NP (PRP He))\u000a    (VP (VBZ facilitates)\u000a      (SBAR\u000a        (S\u000a          (NP\u000a            (NP (JJ several) (NNS workshops))\u000a            (NP-TMP (DT every) (NN year))\u000a            (PP (IN throughout)\u000a              (NP (NNP Africa))))\u000a          (VP (VBD geared)\u000a            (PP (IN towards)\u000a              (S\u000a                (VP (VBG promoting)\u000a                  (NP (NN productivity)\u000a                    (CC and)\u000a                    (NN trade)))))))))\u000a    (. .)))
p5612
ssg10
I9
sg36
g4
sg37
(dp5613
sg39
(dp5614
g5533
(lp5615
g3439
ag3449
ag3459
ag3469
ag3479
ag3489
ag3499
ag3509
ag3519
ag3529
ag3539
ag3549
ag3559
ag3569
ag3579
assg41
I1829
sg42
g5521
sg43
g5521
sg44
I340
sg45
V He facilitates several workshops every year throughout Africa geared towards promoting productivity and trade.
p5616
sg47
I355
sg48
I1939
sbag0
(g23
g2
Ntp5617
Rp5618
(dp5619
g27
(dp5620
g5527
g5528
sg35
I10
sg5529
V(ROOT\u000a  (S\u000a    (NP (PRP He))\u000a    (ADVP (RB recently))\u000a    (VP\u000a      (VP (VBD argued)\u000a        (SBAR (IN that)\u000a          (S\u000a            (NP (NN development))\u000a            (VP (VBZ is)\u000a              (NP\u000a                (NP (DT the) (NN ability))\u000a                (PP (IN of)\u000a                  (NP (NNS individuals)\u000a                    (S\u000a                      (VP (TO to)\u000a                        (VP (VB understand)\u000a                          (NP (DT the) (NN world))))))))))))\u000a      (CC and)\u000a      (ADVP (RB creatively))\u000a      (VP (VBP respond)\u000a        (PP (TO to)\u000a          (NP\u000a            (NP (NNS challenges))\u000a            (SBAR\u000a              (WHNP (IN that))\u000a              (S\u000a                (VP (VBP confront)\u000a                  (NP (NN humanity))\u000a                  (PP (IN in)\u000a                    (NP\u000a                      (NP (DT a) (NN manner))\u000a                      (SBAR\u000a                        (WHNP (WDT that))\u000a                        (S\u000a                          (VP (VBZ increases)\u000a                            (NP\u000a                              (NP (NNS levels))\u000a                              (PP (IN of)\u000a                                (NP\u000a                                  (NP (JJ human) (NN comfort))\u000a                                  (PP (IN on)\u000a                                    (NP (NN earth))))))))))))))))))\u000a    (. .)))
p5621
ssg10
I10
sg36
g4
sg37
(dp5622
sg39
(dp5623
g5533
(lp5624
g3589
ag3599
ag3609
ag3619
ag3629
ag3639
ag3649
ag3659
ag3669
ag3679
ag3689
ag3699
ag3709
ag3719
ag3729
ag3739
ag3749
ag3759
ag3769
ag3779
ag3789
ag3799
ag3809
ag3819
ag3829
ag3839
ag3849
ag3859
ag3869
ag3879
ag3889
ag3899
ag3909
ag3919
assg41
I1940
sg42
g5521
sg43
g5521
sg44
I355
sg45
V He recently argued that development is the ability of individuals to understand the world and creatively respond to challenges that confront humanity in a manner that increases levels of human comfort on earth.
p5625
sg47
I389
sg48
I2150
sbag0
(g23
g2
Ntp5626
Rp5627
(dp5628
g27
(dp5629
g5527
g5528
sg35
I11
sg5529
V(ROOT\u000a  (S\u000a    (NP (PRP He))\u000a    (VP (VBZ is)\u000a      (NP\u000a        (NP\u000a          (NP (DT the) (NN founder))\u000a          (CC and)\u000a          (NP\u000a            (NP (NNP Executive) (NNP Director))\u000a            (PP (IN of)\u000a              (NP (DT the) (NNP Inter) (NNP Region) (NNP Economic) (NNP Network) (-LRB- -LSB-) (NNP IREN) (-RRB- -RSB-)))))\u000a        (, ,)\u000a        (NP\u000a          (NP (DT an)\u000a            (ADJP (JJ independent)\u000a              (CC and)\u000a              (JJ non-partisan))\u000a            (NN think) (NN tank))\u000a          (SBAR\u000a            (WHNP (WDT that))\u000a            (S\u000a              (VP (VBZ promotes)\u000a                (NP\u000a                  (NP (NNS policies))\u000a                  (VP (VBN geared)\u000a                    (PP (IN towards)\u000a                      (NP\u000a                        (NP (DT the) (NN creation))\u000a                        (PP (IN of)\u000a                          (NP (DT a) (JJ free) (NNP Africa)))))))))))))\u000a    (. .)))
p5630
ssg10
I11
sg36
g4
sg37
(dp5631
sg39
(dp5632
g5533
(lp5633
g3929
ag3939
ag3949
ag3959
ag3969
ag3979
ag3989
ag3999
ag4009
ag4019
ag4029
ag4039
ag4049
ag4059
ag4069
ag4079
ag4089
ag4099
ag4109
ag4119
ag4129
ag4139
ag4149
ag4159
ag4169
ag4179
ag4189
ag4199
ag4209
ag4219
ag4229
ag4239
ag4249
ag4259
ag4269
assg41
I2153
sg42
g5521
sg43
g5521
sg44
I389
sg45
V \u000a\u000aHe is the founder and Executive Director of the Inter Region Economic Network [IREN], an independent and non-partisan think tank that promotes policies geared towards the creation of a free Africa.
p5634
sg47
I424
sg48
I2350
sbag0
(g23
g2
Ntp5635
Rp5636
(dp5637
g27
(dp5638
g5527
g5528
sg35
I12
sg5529
V(ROOT\u000a  (S\u000a    (NP (PRP He))\u000a    (VP (VBZ is)\u000a      (ADVP (RB also))\u000a      (NP (DT the) (NN Country) (NN Director))\u000a      (PP (IN for)\u000a        (NP\u000a          (NP (NNS Students))\u000a          (PP (IN In)\u000a            (NP\u000a              (NP\u000a                (NP (NNP Free) (NNP Enterprise) (-LRB- -LSB-))\u000a                (NNP SIFE) (NNP Kenya) (-RRB- -RSB-)\u000a                (CC and)\u000a                (NNP Chief) (NNP Executive) (NNP Officer))\u000a              (PRN (-LRB- -LRB-)\u000a                (NP (NNP CEO))\u000a                (-RRB- -RRB-))))\u000a          (PP (IN of)\u000a            (NP (DT an) (JJ online) (NN business) (NN magazine)))))\u000a      (NP-TMP\u000a        (NP (DT The) (NNP African) (NNP Executive))\u000a        (SBAR\u000a          (WHNP (WDT that))\u000a          (S\u000a            (VP (VBZ is)\u000a              (VP (VBN published)\u000a                (NP (JJ weekly))\u000a                (PP (IN by)\u000a                  (NP (NNP IREN)))))))))\u000a    (. .)))
p5639
ssg10
I12
sg36
g4
sg37
(dp5640
sg39
(dp5641
g5533
(lp5642
g4279
ag4289
ag4299
ag4309
ag4319
ag4329
ag4339
ag4349
ag4359
ag4369
ag4379
ag4389
ag4399
ag4409
ag4419
ag4429
ag4439
ag4449
ag4459
ag4469
ag4479
ag4489
ag4499
ag4509
ag4519
ag4529
ag4539
ag4549
ag4559
ag4569
ag4579
ag4589
ag4599
ag4609
ag4619
ag4629
ag4639
assg41
I2351
sg42
g5521
sg43
g5521
sg44
I424
sg45
V He is also the Country Director for Students In Free Enterprise [SIFE Kenya] and Chief Executive Officer (CEO) of an online business magazine The African Executive that is published weekly by IREN.
p5643
sg47
I461
sg48
I2548
sbag0
(g23
g2
Ntp5644
Rp5645
(dp5646
g27
(dp5647
g5527
g5528
sg35
I13
sg5529
V(X (IN On) (CD 6) (NNP July) (CD 2007) (, ,) (NNP Mr.) (NNP James) (NNP Shikwati) (VBD was) (VBN named) (IN among) (JJ top) (CD 100) (RBS most) (JJ influential) (NNPS Kenyans) (IN in) (DT a) (NN study) (WDT that) (VBD was) (VBN conducted) (IN by) (DT The) (NNP Standard) (NNP Group) (, ,) (-LRB- -LSB-) (NNP REF) (-RRB- -RSB-) (CD one) (IN of) (DT the) (NNP Kenya) (POS 's) (VBG leading) (NNS media) (NNS houses) (, ,) (PRP he) (VBD was) (VBN described) (IN as) (CD one) (NN person) (WP$ whose) (NNS decisions)\u000a  (CC and)\u000a  (NNS actions) (VBP are) (RB not) (VBN motivated) (IN by) (DT the) (NN publicity) (PRP they) (VBP attract)\u000a  (CC but)\u000a  (IN by) (NN passion) (IN for) (WP what) (PRP they) (VBP do) (. .))
p5648
ssg10
I13
sg36
g4
sg37
(dp5649
sg39
(dp5650
g5533
(lp5651
g4649
ag4659
ag4669
ag4679
ag4689
ag4699
ag4709
ag4719
ag4729
ag4739
ag4749
ag4759
ag4769
ag4779
ag4789
ag4799
ag4809
ag4819
ag4829
ag4839
ag4849
ag4859
ag4869
ag4879
ag4889
ag4899
ag4909
ag4919
ag4929
ag4939
ag4949
ag4959
ag4969
ag4979
ag4989
ag4999
ag5009
ag5019
ag5029
ag5039
ag5049
ag5059
ag5069
ag5079
ag5089
ag5099
ag5109
ag5119
ag5129
ag5139
ag5149
ag5159
ag5169
ag5179
ag5189
ag5199
ag5209
ag5219
ag5229
ag5239
ag5249
ag5259
ag5269
ag5279
ag5289
assg41
I2550
sg42
g5521
sg43
g5521
sg44
I461
sg45
V\u000a\u000aOn 6 July 2007, Mr. James Shikwati was named among top 100 most influential Kenyans in a study that was conducted by The Standard Group,[REF] one of the Kenya\u2019s leading media houses, he was described as one person whose decisions and actions are not motivated by the publicity they attract but by passion for what they do.
p5652
sg47
I526
sg48
I2872
sbag0
(g23
g2
Ntp5653
Rp5654
(dp5655
g27
(dp5656
g5527
g5528
sg35
I14
sg5529
V(ROOT\u000a  (S\u000a    (PP (IN On)\u000a      (NP (NNP March) (CD 11) (, ,) (CD 2008)))\u000a    (, ,)\u000a    (NP (DT The) (NNP World) (NNP Economic) (NNP Forum))\u000a    (VP (VBD named)\u000a      (NP\u000a        (NP (NNP Mr.) (NNP Shikwati))\u000a        (PP (IN among)\u000a          (NP (DT the) (CD 250) (NN Young) (JJ Global) (NNS Leaders)))\u000a        (PP (IN of)\u000a          (NP (CD 2008)))))\u000a    (. .)))
p5657
ssg10
I14
sg36
g4
sg37
(dp5658
sg39
(dp5659
g5533
(lp5660
g5299
ag5309
ag5319
ag5329
ag5339
ag5349
ag5359
ag5369
ag5379
ag5389
ag5399
ag5409
ag5419
ag5429
ag5439
ag5449
ag5459
ag5469
ag5479
ag5489
ag5499
ag5509
assg41
I2873
sg42
g5521
sg43
g5521
sg44
I526
sg45
V On March 11, 2008, The World Economic Forum named Mr. Shikwati among the 250 Young Global Leaders of 2008.
p5661
sg47
I548
sg48
I2979
sbassg37
(dp5662
sg39
(dp5663
sg47
I-1
sg5533
g22
sg42
g5518
sg36
Nsg27
(dp5664
sg44
I0
sg45
VJames Shikwati (born 1970) is a Kenyan libertarian economist and Director of the Inter Region Economic Network who promotes freedom of trade as the driving solution to poverty in Africa. He has made comments which imply that aid towards Africa does more harm than good to their people, based on the central arguments that it is mainly used either by politicians as a tool to manipulate people and influence votes, or as a mechanism for dumping subsidised foreign agricultural products onto local markets at below cost making it nearly impossible for African farmers to compete.\u000a\u000aA graduate from the University of Nairobi (B.ED Arts 1994), attended Musingu High School (1989) and taught Kiptewit High School (1994\u20132001) in Kericho Rift Valley province in Kenya.He is a "self taught" economist.\u000a\u000aJames Shikwati is a writer and a commentator on public policy with a special interest in development, environment, trade and agriculture related issues. He has written widely on a variety of subjects in Kenyan and international newspapers, magazines, such as The Times, The Guardian, The Wall Street Journal, The Washington Post, The Sydney Morning Herald, The Business News, The Daily Nation, The East African Standard and The African Executive. \u000a\u000aMr. Shikwati was also featured in a November 18, 2006 article in the New York Times:[REF] . \u000a\u000aJeffrey D. Sachs, a Columbia University professor who is a leading aid advocate, calls Mr. Shikwati\u2019s criticisms of foreign assistance \u201cshockingly misguided\u201d and \u201camazingly wrong.\u201d \u201cThis happens to be a matter of life and death for millions of people, so getting it wrong has huge consequences,\u201d Mr. Sachs said. \u000a\u000aHe has worked extensively with internationally acclaimed opinion leaders to promote ideas that improve productivity, and increase freedom to trade as a way to alleviate poverty. He facilitates several workshops every year throughout Africa geared towards promoting productivity and trade. He recently argued that development is the ability of individuals to understand the world and creatively respond to challenges that confront humanity in a manner that increases levels of human comfort on earth. \u000a\u000aHe is the founder and Executive Director of the Inter Region Economic Network [IREN], an independent and non-partisan think tank that promotes policies geared towards the creation of a free Africa. He is also the Country Director for Students In Free Enterprise [SIFE Kenya] and Chief Executive Officer (CEO) of an online business magazine The African Executive that is published weekly by IREN.\u000a\u000aOn 6 July 2007, Mr. James Shikwati was named among top 100 most influential Kenyans in a study that was conducted by The Standard Group,[REF] one of the Kenya\u2019s leading media houses, he was described as one person whose decisions and actions are not motivated by the publicity they attract but by passion for what they do. On March 11, 2008, The World Economic Forum named Mr. Shikwati among the 250 Young Global Leaders of 2008.
p5665
sS'sents'
p5666
g5522
sg43
g5518
sg41
I0
sS'id'
p5667
g16
sg48
I2979
sS'sentFeatures'
p5668
(lp5669
sb.