ccopy_reg
_reconstructor
p0
(cpygate.doc
Document
p1
c__builtin__
object
p2
Ntp3
Rp4
(dp5
S'src'
p6
V. \u000a\u000aThe Missionary Church of Kopimism (in Swedish Missionerande Kopimistsamfundet), founded by 19-year-old philosophy student Isak Gerson,[REF] is a congregation of file sharers who claim that copying information is a sacred virtue [REF]. The Church, based in Sweden, has been officially recognized by the Swedish Legal, Financial and Administrative Services Agency ("kammarkollegiet") as a religious community, after three application attempts [REF]. \u000a\u000aAlthough it has been reported that The Pirate Bay is now operating under the auspices of the Church, Gerson himself denied any connection whatsoever between the two organizations [REF].\u000a\u000aThe followers of the religion are called Kopimists from copy me, the idea of which was inspired by a phrase in the Bible[REF]:\u000a\u000aA "Kopimist" or "Kopimist intellectual" is a person who has the philosophical belief that all information should be freely distributed and unrestricted. This philosophy opposes the privatization of knowledge in all its forms, such as copyright, and encourages piracy of all types of media including music, movies, TV shows, and software [REF]. \u000a\u000aAccording to the church, "In our belief, communication is sacred."[REF] No belief in gods or supernatural phenomena is mentioned on their web site. CTRL+C and CTRL+V, the computer shortcut keys for "Copy" and "Paste," are considered sacred symbols. \u000a\u000aKopimism made simple[REF]:\u000a\u000aAll knowledge to all \u000aThe search for knowledge is sacred \u000aThe circulation of knowledge is sacred \u000aThe act of copying is sacred. \u000a\u000aAccording to the Kopimist constitution[REF]:\u000a\u000aCopying of information is ethically right. \u000aDissemination of information is ethically right. \u000aCopymixing is a sacred kind of copying, moreso than the perfect, digital copying, because it expands and enhances the existing wealth of information \u000aCopying or remixing information communicated by another person is seen as an act of respect and a strong expression of acceptance and Kopimistic faith. \u000aThe Internet is holy. \u000aCode is law. \u000a\u000aOn January 5, 2012, Kopimism was accepted by Sweden as a legitimate religion. The religion's association with illegal file sharing has been said not to be a sign that illegal file-sharing will be excused from Sweden's zero-tolerance approach to the matter [REF].
p7
sS'string'
p8
S'. \n\nThe Missionary Church of Kopimism (in Swedish Missionerande Kopimistsamfundet), founded by 19-year-old philosophy student Isak Gerson,[REF] is a congregation of file sharers who claim that copying information is a sacred virtue [REF]. The Church, based in Sweden, has been officially recognized by the Swedish Legal, Financial and Administrative Services Agency ("kammarkollegiet") as a religious community, after three application attempts [REF]. \n\nAlthough it has been reported that The Pirate Bay is now operating under the auspices of the Church, Gerson himself denied any connection whatsoever between the two organizations [REF].\n\nThe followers of the religion are called Kopimists from copy me, the idea of which was inspired by a phrase in the Bible[REF]:\n\nA "Kopimist" or "Kopimist intellectual" is a person who has the philosophical belief that all information should be freely distributed and unrestricted. This philosophy opposes the privatization of knowledge in all its forms, such as copyright, and encourages piracy of all types of media including music, movies, TV shows, and software [REF]. \n\nAccording to the church, "In our belief, communication is sacred."[REF] No belief in gods or supernatural phenomena is mentioned on their web site. CTRL+C and CTRL+V, the computer shortcut keys for "Copy" and "Paste," are considered sacred symbols. \n\nKopimism made simple[REF]:\n\nAll knowledge to all \nThe search for knowledge is sacred \nThe circulation of knowledge is sacred \nThe act of copying is sacred. \n\nAccording to the Kopimist constitution[REF]:\n\nCopying of information is ethically right. \nDissemination of information is ethically right. \nCopymixing is a sacred kind of copying, moreso than the perfect, digital copying, because it expands and enhances the existing wealth of information \nCopying or remixing information communicated by another person is seen as an act of respect and a strong expression of acceptance and Kopimistic faith. \nThe Internet is holy. \nCode is law. \n\nOn January 5, 2012, Kopimism was accepted by Sweden as a legitimate religion. The religion\'s association with illegal file sharing has been said not to be a sign that illegal file-sharing will be excused from Sweden\'s zero-tolerance approach to the matter [REF].'
p9
sS'idx'
p10
I0
sS'tknFeatures'
p11
(lp12
sS'docFeatures'
p13
(dp14
S'file_id'
p15
S'Missionary_Church_of_Kopimism'
p16
ssS'items'
p17
(dp18
S'raw'
p19
V. \u000a\u000aThe Missionary Church of Kopimism (in Swedish Missionerande Kopimistsamfundet), founded by 19-year-old philosophy student Isak Gerson,[REF] is a congregation of file sharers who claim that copying information is a sacred virtue [REF]. The Church, based in Sweden, has been officially recognized by the Swedish Legal, Financial and Administrative Services Agency ("kammarkollegiet") as a religious community, after three application attempts [REF]. \u000a\u000aAlthough it has been reported that The Pirate Bay is now operating under the auspices of the Church, Gerson himself denied any connection whatsoever between the two organizations [REF].\u000a\u000aThe followers of the religion are called Kopimists from copy me, the idea of which was inspired by a phrase in the Bible[REF]:\u000a\u000aA "Kopimist" or "Kopimist intellectual" is a person who has the philosophical belief that all information should be freely distributed and unrestricted. This philosophy opposes the privatization of knowledge in all its forms, such as copyright, and encourages piracy of all types of media including music, movies, TV shows, and software [REF]. \u000a\u000aAccording to the church, "In our belief, communication is sacred."[REF] No belief in gods or supernatural phenomena is mentioned on their web site. CTRL+C and CTRL+V, the computer shortcut keys for "Copy" and "Paste," are considered sacred symbols. \u000a\u000aKopimism made simple[REF]:\u000a\u000aAll knowledge to all \u000aThe search for knowledge is sacred \u000aThe circulation of knowledge is sacred \u000aThe act of copying is sacred. \u000a\u000aAccording to the Kopimist constitution[REF]:\u000a\u000aCopying of information is ethically right. \u000aDissemination of information is ethically right. \u000aCopymixing is a sacred kind of copying, moreso than the perfect, digital copying, because it expands and enhances the existing wealth of information \u000aCopying or remixing information communicated by another person is seen as an act of respect and a strong expression of acceptance and Kopimistic faith. \u000aThe Internet is holy. \u000aCode is law. \u000a\u000aOn January 5, 2012, Kopimism was accepted by Sweden as a legitimate religion. The religion's association with illegal file sharing has been said not to be a sign that illegal file-sharing will be excused from Sweden's zero-tolerance approach to the matter [REF].
p20
sS'Token'
p21
(lp22
g0
(cpygate.annotation
Annotation
p23
g2
Ntp24
Rp25
(dp26
S'features'
p27
(dp28
S'lemma'
p29
V.
p30
sS'ner'
p31
VO
p32
sS'pos'
p33
V.
p34
sS'index'
p35
I1
ssg10
I0
sS'doc'
p36
g4
sS'labels'
p37
(dp38
sS'relations'
p39
(dp40
sS'cStart'
p41
I0
sS'subType'
p42
g21
sS'annoType'
p43
g21
sS'tStart'
p44
I0
sS'text'
p45
V.
p46
sS'tEnd'
p47
I0
sS'cEnd'
p48
I1
sbag0
(g23
g2
Ntp49
Rp50
(dp51
g27
(dp52
g29
Vthe
p53
sg31
VO
p54
sg33
VDT
p55
sg35
I1
ssg10
I1
sg36
g4
sg37
(dp56
sg39
(dp57
sg41
I4
sg42
g21
sg43
g21
sg44
I1
sg45
VThe
p58
sg47
I1
sg48
I7
sbag0
(g23
g2
Ntp59
Rp60
(dp61
g27
(dp62
g29
VMissionary
p63
sg31
VORGANIZATION
p64
sg33
VNNP
p65
sg35
I2
ssg10
I2
sg36
g4
sg37
(dp66
sg39
(dp67
sg41
I8
sg42
g21
sg43
g21
sg44
I2
sg45
VMissionary
p68
sg47
I2
sg48
I18
sbag0
(g23
g2
Ntp69
Rp70
(dp71
g27
(dp72
g29
VChurch
p73
sg31
VORGANIZATION
p74
sg33
VNNP
p75
sg35
I3
ssg10
I3
sg36
g4
sg37
(dp76
sg39
(dp77
sg41
I19
sg42
g21
sg43
g21
sg44
I3
sg45
VChurch
p78
sg47
I3
sg48
I25
sbag0
(g23
g2
Ntp79
Rp80
(dp81
g27
(dp82
g29
Vof
p83
sg31
VORGANIZATION
p84
sg33
VIN
p85
sg35
I4
ssg10
I4
sg36
g4
sg37
(dp86
sg39
(dp87
sg41
I26
sg42
g21
sg43
g21
sg44
I4
sg45
Vof
p88
sg47
I4
sg48
I28
sbag0
(g23
g2
Ntp89
Rp90
(dp91
g27
(dp92
g29
VKopimism
p93
sg31
VORGANIZATION
p94
sg33
VNNP
p95
sg35
I5
ssg10
I5
sg36
g4
sg37
(dp96
sg39
(dp97
sg41
I29
sg42
g21
sg43
g21
sg44
I5
sg45
VKopimism
p98
sg47
I5
sg48
I37
sbag0
(g23
g2
Ntp99
Rp100
(dp101
g27
(dp102
g29
V-lrb-
p103
sg31
VO
p104
sg33
V-LRB-
p105
sg35
I6
ssg10
I6
sg36
g4
sg37
(dp106
sg39
(dp107
sg41
I38
sg42
g21
sg43
g21
sg44
I6
sg45
V(
p108
sg47
I6
sg48
I39
sbag0
(g23
g2
Ntp109
Rp110
(dp111
g27
(dp112
g29
Vin
p113
sg31
VO
p114
sg33
VIN
p115
sg35
I7
ssg10
I7
sg36
g4
sg37
(dp116
sg39
(dp117
sg41
I39
sg42
g21
sg43
g21
sg44
I7
sg45
Vin
p118
sg47
I7
sg48
I41
sbag0
(g23
g2
Ntp119
Rp120
(dp121
g27
(dp122
g29
VSwedish
p123
sg31
VMISC
p124
sg33
VNNP
p125
sg35
I8
ssg10
I8
sg36
g4
sg37
(dp126
sg39
(dp127
sg41
I42
sg42
g21
sg43
g21
sg44
I8
sg45
VSwedish
p128
sg47
I8
sg48
I49
sbag0
(g23
g2
Ntp129
Rp130
(dp131
g27
(dp132
g29
VMissionerande
p133
sg31
VO
p134
sg33
VNNP
p135
sg35
I9
ssg10
I9
sg36
g4
sg37
(dp136
sg39
(dp137
sg41
I50
sg42
g21
sg43
g21
sg44
I9
sg45
VMissionerande
p138
sg47
I9
sg48
I63
sbag0
(g23
g2
Ntp139
Rp140
(dp141
g27
(dp142
g29
VKopimistsamfundet
p143
sg31
VO
p144
sg33
VNNP
p145
sg35
I10
ssg10
I10
sg36
g4
sg37
(dp146
sg39
(dp147
sg41
I64
sg42
g21
sg43
g21
sg44
I10
sg45
VKopimistsamfundet
p148
sg47
I10
sg48
I81
sbag0
(g23
g2
Ntp149
Rp150
(dp151
g27
(dp152
g29
V-rrb-
p153
sg31
VO
p154
sg33
V-RRB-
p155
sg35
I11
ssg10
I11
sg36
g4
sg37
(dp156
sg39
(dp157
sg41
I81
sg42
g21
sg43
g21
sg44
I11
sg45
V)
p158
sg47
I11
sg48
I82
sbag0
(g23
g2
Ntp159
Rp160
(dp161
g27
(dp162
g29
V,
p163
sg31
VO
p164
sg33
V,
p165
sg35
I12
ssg10
I12
sg36
g4
sg37
(dp166
sg39
(dp167
sg41
I82
sg42
g21
sg43
g21
sg44
I12
sg45
V,
p168
sg47
I12
sg48
I83
sbag0
(g23
g2
Ntp169
Rp170
(dp171
g27
(dp172
g29
Vfound
p173
sg31
VO
p174
sg33
VVBN
p175
sg35
I13
ssg10
I13
sg36
g4
sg37
(dp176
sg39
(dp177
sg41
I84
sg42
g21
sg43
g21
sg44
I13
sg45
Vfounded
p178
sg47
I13
sg48
I91
sbag0
(g23
g2
Ntp179
Rp180
(dp181
g27
(dp182
g29
Vby
p183
sg31
VO
p184
sg33
VIN
p185
sg35
I14
ssg10
I14
sg36
g4
sg37
(dp186
sg39
(dp187
sg41
I92
sg42
g21
sg43
g21
sg44
I14
sg45
Vby
p188
sg47
I14
sg48
I94
sbag0
(g23
g2
Ntp189
Rp190
(dp191
g27
(dp192
g29
V19-year-old
p193
sg31
VDURATION
p194
sg33
VJJ
p195
sg35
I15
ssg10
I15
sg36
g4
sg37
(dp196
sg39
(dp197
sg41
I95
sg42
g21
sg43
g21
sg44
I15
sg45
V19-year-old
p198
sg47
I15
sg48
I106
sbag0
(g23
g2
Ntp199
Rp200
(dp201
g27
(dp202
g29
Vphilosophy
p203
sg31
VO
p204
sg33
VNN
p205
sg35
I16
ssg10
I16
sg36
g4
sg37
(dp206
sg39
(dp207
sg41
I107
sg42
g21
sg43
g21
sg44
I16
sg45
Vphilosophy
p208
sg47
I16
sg48
I117
sbag0
(g23
g2
Ntp209
Rp210
(dp211
g27
(dp212
g29
Vstudent
p213
sg31
VO
p214
sg33
VNN
p215
sg35
I17
ssg10
I17
sg36
g4
sg37
(dp216
sg39
(dp217
sg41
I118
sg42
g21
sg43
g21
sg44
I17
sg45
Vstudent
p218
sg47
I17
sg48
I125
sbag0
(g23
g2
Ntp219
Rp220
(dp221
g27
(dp222
g29
VIsak
p223
sg31
VPERSON
p224
sg33
VNNP
p225
sg35
I18
ssg10
I18
sg36
g4
sg37
(dp226
sg39
(dp227
sg41
I126
sg42
g21
sg43
g21
sg44
I18
sg45
VIsak
p228
sg47
I18
sg48
I130
sbag0
(g23
g2
Ntp229
Rp230
(dp231
g27
(dp232
g29
VGerson
p233
sg31
VPERSON
p234
sg33
VNNP
p235
sg35
I19
ssg10
I19
sg36
g4
sg37
(dp236
sg39
(dp237
sg41
I131
sg42
g21
sg43
g21
sg44
I19
sg45
VGerson
p238
sg47
I19
sg48
I137
sbag0
(g23
g2
Ntp239
Rp240
(dp241
g27
(dp242
g29
V,
p243
sg31
VO
p244
sg33
V,
p245
sg35
I20
ssg10
I20
sg36
g4
sg37
(dp246
sg39
(dp247
sg41
I137
sg42
g21
sg43
g21
sg44
I20
sg45
V,
p248
sg47
I20
sg48
I138
sbag0
(g23
g2
Ntp249
Rp250
(dp251
g27
(dp252
g29
V-lsb-
p253
sg31
VO
p254
sg33
V-LRB-
p255
sg35
I21
ssg10
I21
sg36
g4
sg37
(dp256
sg39
(dp257
sg41
I138
sg42
g21
sg43
g21
sg44
I21
sg45
V[
p258
sg47
I21
sg48
I139
sbag0
(g23
g2
Ntp259
Rp260
(dp261
g27
(dp262
g29
VREF
p263
sg31
VO
p264
sg33
VNNP
p265
sg35
I22
ssg10
I22
sg36
g4
sg37
(dp266
sg39
(dp267
sg41
I139
sg42
g21
sg43
g21
sg44
I22
sg45
VREF
p268
sg47
I22
sg48
I142
sbag0
(g23
g2
Ntp269
Rp270
(dp271
g27
(dp272
g29
V-rsb-
p273
sg31
VO
p274
sg33
V-RRB-
p275
sg35
I23
ssg10
I23
sg36
g4
sg37
(dp276
sg39
(dp277
sg41
I142
sg42
g21
sg43
g21
sg44
I23
sg45
V]
p278
sg47
I23
sg48
I143
sbag0
(g23
g2
Ntp279
Rp280
(dp281
g27
(dp282
g29
Vbe
p283
sg31
VO
p284
sg33
VVBZ
p285
sg35
I24
ssg10
I24
sg36
g4
sg37
(dp286
sg39
(dp287
sg41
I144
sg42
g21
sg43
g21
sg44
I24
sg45
Vis
p288
sg47
I24
sg48
I146
sbag0
(g23
g2
Ntp289
Rp290
(dp291
g27
(dp292
g29
Va
p293
sg31
VO
p294
sg33
VDT
p295
sg35
I25
ssg10
I25
sg36
g4
sg37
(dp296
sg39
(dp297
sg41
I147
sg42
g21
sg43
g21
sg44
I25
sg45
Va
p298
sg47
I25
sg48
I148
sbag0
(g23
g2
Ntp299
Rp300
(dp301
g27
(dp302
g29
Vcongregation
p303
sg31
VO
p304
sg33
VNN
p305
sg35
I26
ssg10
I26
sg36
g4
sg37
(dp306
sg39
(dp307
sg41
I149
sg42
g21
sg43
g21
sg44
I26
sg45
Vcongregation
p308
sg47
I26
sg48
I161
sbag0
(g23
g2
Ntp309
Rp310
(dp311
g27
(dp312
g29
Vof
p313
sg31
VO
p314
sg33
VIN
p315
sg35
I27
ssg10
I27
sg36
g4
sg37
(dp316
sg39
(dp317
sg41
I162
sg42
g21
sg43
g21
sg44
I27
sg45
Vof
p318
sg47
I27
sg48
I164
sbag0
(g23
g2
Ntp319
Rp320
(dp321
g27
(dp322
g29
Vfile
p323
sg31
VO
p324
sg33
VNN
p325
sg35
I28
ssg10
I28
sg36
g4
sg37
(dp326
sg39
(dp327
sg41
I165
sg42
g21
sg43
g21
sg44
I28
sg45
Vfile
p328
sg47
I28
sg48
I169
sbag0
(g23
g2
Ntp329
Rp330
(dp331
g27
(dp332
g29
Vsharer
p333
sg31
VO
p334
sg33
VNNS
p335
sg35
I29
ssg10
I29
sg36
g4
sg37
(dp336
sg39
(dp337
sg41
I170
sg42
g21
sg43
g21
sg44
I29
sg45
Vsharers
p338
sg47
I29
sg48
I177
sbag0
(g23
g2
Ntp339
Rp340
(dp341
g27
(dp342
g29
Vwho
p343
sg31
VO
p344
sg33
VWP
p345
sg35
I30
ssg10
I30
sg36
g4
sg37
(dp346
sg39
(dp347
sg41
I178
sg42
g21
sg43
g21
sg44
I30
sg45
Vwho
p348
sg47
I30
sg48
I181
sbag0
(g23
g2
Ntp349
Rp350
(dp351
g27
(dp352
g29
Vclaim
p353
sg31
VO
p354
sg33
VVBP
p355
sg35
I31
ssg10
I31
sg36
g4
sg37
(dp356
sg39
(dp357
sg41
I182
sg42
g21
sg43
g21
sg44
I31
sg45
Vclaim
p358
sg47
I31
sg48
I187
sbag0
(g23
g2
Ntp359
Rp360
(dp361
g27
(dp362
g29
Vthat
p363
sg31
VO
p364
sg33
VIN
p365
sg35
I32
ssg10
I32
sg36
g4
sg37
(dp366
sg39
(dp367
sg41
I188
sg42
g21
sg43
g21
sg44
I32
sg45
Vthat
p368
sg47
I32
sg48
I192
sbag0
(g23
g2
Ntp369
Rp370
(dp371
g27
(dp372
g29
Vcopy
p373
sg31
VO
p374
sg33
VVBG
p375
sg35
I33
ssg10
I33
sg36
g4
sg37
(dp376
sg39
(dp377
sg41
I193
sg42
g21
sg43
g21
sg44
I33
sg45
Vcopying
p378
sg47
I33
sg48
I200
sbag0
(g23
g2
Ntp379
Rp380
(dp381
g27
(dp382
g29
Vinformation
p383
sg31
VO
p384
sg33
VNN
p385
sg35
I34
ssg10
I34
sg36
g4
sg37
(dp386
sg39
(dp387
sg41
I201
sg42
g21
sg43
g21
sg44
I34
sg45
Vinformation
p388
sg47
I34
sg48
I212
sbag0
(g23
g2
Ntp389
Rp390
(dp391
g27
(dp392
g29
Vbe
p393
sg31
VO
p394
sg33
VVBZ
p395
sg35
I35
ssg10
I35
sg36
g4
sg37
(dp396
sg39
(dp397
sg41
I213
sg42
g21
sg43
g21
sg44
I35
sg45
Vis
p398
sg47
I35
sg48
I215
sbag0
(g23
g2
Ntp399
Rp400
(dp401
g27
(dp402
g29
Va
p403
sg31
VO
p404
sg33
VDT
p405
sg35
I36
ssg10
I36
sg36
g4
sg37
(dp406
sg39
(dp407
sg41
I216
sg42
g21
sg43
g21
sg44
I36
sg45
Va
p408
sg47
I36
sg48
I217
sbag0
(g23
g2
Ntp409
Rp410
(dp411
g27
(dp412
g29
Vsacred
p413
sg31
VO
p414
sg33
VJJ
p415
sg35
I37
ssg10
I37
sg36
g4
sg37
(dp416
sg39
(dp417
sg41
I218
sg42
g21
sg43
g21
sg44
I37
sg45
Vsacred
p418
sg47
I37
sg48
I224
sbag0
(g23
g2
Ntp419
Rp420
(dp421
g27
(dp422
g29
Vvirtue
p423
sg31
VO
p424
sg33
VNN
p425
sg35
I38
ssg10
I38
sg36
g4
sg37
(dp426
sg39
(dp427
sg41
I225
sg42
g21
sg43
g21
sg44
I38
sg45
Vvirtue
p428
sg47
I38
sg48
I231
sbag0
(g23
g2
Ntp429
Rp430
(dp431
g27
(dp432
g29
V-lsb-
p433
sg31
VO
p434
sg33
V-LRB-
p435
sg35
I39
ssg10
I39
sg36
g4
sg37
(dp436
sg39
(dp437
sg41
I232
sg42
g21
sg43
g21
sg44
I39
sg45
V[
p438
sg47
I39
sg48
I233
sbag0
(g23
g2
Ntp439
Rp440
(dp441
g27
(dp442
g29
Vref
p443
sg31
VO
p444
sg33
VNN
p445
sg35
I40
ssg10
I40
sg36
g4
sg37
(dp446
sg39
(dp447
sg41
I233
sg42
g21
sg43
g21
sg44
I40
sg45
VREF
p448
sg47
I40
sg48
I236
sbag0
(g23
g2
Ntp449
Rp450
(dp451
g27
(dp452
g29
V-rsb-
p453
sg31
VO
p454
sg33
V-RRB-
p455
sg35
I41
ssg10
I41
sg36
g4
sg37
(dp456
sg39
(dp457
sg41
I236
sg42
g21
sg43
g21
sg44
I41
sg45
V]
p458
sg47
I41
sg48
I237
sbag0
(g23
g2
Ntp459
Rp460
(dp461
g27
(dp462
g29
V.
p463
sg31
VO
p464
sg33
V.
p465
sg35
I42
ssg10
I42
sg36
g4
sg37
(dp466
sg39
(dp467
sg41
I237
sg42
g21
sg43
g21
sg44
I42
sg45
V.
p468
sg47
I42
sg48
I238
sbag0
(g23
g2
Ntp469
Rp470
(dp471
g27
(dp472
g29
Vthe
p473
sg31
VO
p474
sg33
VDT
p475
sg35
I1
ssg10
I43
sg36
g4
sg37
(dp476
sg39
(dp477
sg41
I239
sg42
g21
sg43
g21
sg44
I43
sg45
VThe
p478
sg47
I43
sg48
I242
sbag0
(g23
g2
Ntp479
Rp480
(dp481
g27
(dp482
g29
VChurch
p483
sg31
VORGANIZATION
p484
sg33
VNNP
p485
sg35
I2
ssg10
I44
sg36
g4
sg37
(dp486
sg39
(dp487
sg41
I243
sg42
g21
sg43
g21
sg44
I44
sg45
VChurch
p488
sg47
I44
sg48
I249
sbag0
(g23
g2
Ntp489
Rp490
(dp491
g27
(dp492
g29
V,
p493
sg31
VO
p494
sg33
V,
p495
sg35
I3
ssg10
I45
sg36
g4
sg37
(dp496
sg39
(dp497
sg41
I249
sg42
g21
sg43
g21
sg44
I45
sg45
V,
p498
sg47
I45
sg48
I250
sbag0
(g23
g2
Ntp499
Rp500
(dp501
g27
(dp502
g29
Vbase
p503
sg31
VO
p504
sg33
VVBN
p505
sg35
I4
ssg10
I46
sg36
g4
sg37
(dp506
sg39
(dp507
sg41
I251
sg42
g21
sg43
g21
sg44
I46
sg45
Vbased
p508
sg47
I46
sg48
I256
sbag0
(g23
g2
Ntp509
Rp510
(dp511
g27
(dp512
g29
Vin
p513
sg31
VO
p514
sg33
VIN
p515
sg35
I5
ssg10
I47
sg36
g4
sg37
(dp516
sg39
(dp517
sg41
I257
sg42
g21
sg43
g21
sg44
I47
sg45
Vin
p518
sg47
I47
sg48
I259
sbag0
(g23
g2
Ntp519
Rp520
(dp521
g27
(dp522
g29
VSweden
p523
sg31
VLOCATION
p524
sg33
VNNP
p525
sg35
I6
ssg10
I48
sg36
g4
sg37
(dp526
sg39
(dp527
sg41
I260
sg42
g21
sg43
g21
sg44
I48
sg45
VSweden
p528
sg47
I48
sg48
I266
sbag0
(g23
g2
Ntp529
Rp530
(dp531
g27
(dp532
g29
V,
p533
sg31
VO
p534
sg33
V,
p535
sg35
I7
ssg10
I49
sg36
g4
sg37
(dp536
sg39
(dp537
sg41
I266
sg42
g21
sg43
g21
sg44
I49
sg45
V,
p538
sg47
I49
sg48
I267
sbag0
(g23
g2
Ntp539
Rp540
(dp541
g27
(dp542
g29
Vhave
p543
sg31
VO
p544
sg33
VVBZ
p545
sg35
I8
ssg10
I50
sg36
g4
sg37
(dp546
sg39
(dp547
sg41
I268
sg42
g21
sg43
g21
sg44
I50
sg45
Vhas
p548
sg47
I50
sg48
I271
sbag0
(g23
g2
Ntp549
Rp550
(dp551
g27
(dp552
g29
Vbe
p553
sg31
VO
p554
sg33
VVBN
p555
sg35
I9
ssg10
I51
sg36
g4
sg37
(dp556
sg39
(dp557
sg41
I272
sg42
g21
sg43
g21
sg44
I51
sg45
Vbeen
p558
sg47
I51
sg48
I276
sbag0
(g23
g2
Ntp559
Rp560
(dp561
g27
(dp562
g29
Vofficially
p563
sg31
VO
p564
sg33
VRB
p565
sg35
I10
ssg10
I52
sg36
g4
sg37
(dp566
sg39
(dp567
sg41
I277
sg42
g21
sg43
g21
sg44
I52
sg45
Vofficially
p568
sg47
I52
sg48
I287
sbag0
(g23
g2
Ntp569
Rp570
(dp571
g27
(dp572
g29
Vrecognize
p573
sg31
VO
p574
sg33
VVBN
p575
sg35
I11
ssg10
I53
sg36
g4
sg37
(dp576
sg39
(dp577
sg41
I288
sg42
g21
sg43
g21
sg44
I53
sg45
Vrecognized
p578
sg47
I53
sg48
I298
sbag0
(g23
g2
Ntp579
Rp580
(dp581
g27
(dp582
g29
Vby
p583
sg31
VO
p584
sg33
VIN
p585
sg35
I12
ssg10
I54
sg36
g4
sg37
(dp586
sg39
(dp587
sg41
I299
sg42
g21
sg43
g21
sg44
I54
sg45
Vby
p588
sg47
I54
sg48
I301
sbag0
(g23
g2
Ntp589
Rp590
(dp591
g27
(dp592
g29
Vthe
p593
sg31
VO
p594
sg33
VDT
p595
sg35
I13
ssg10
I55
sg36
g4
sg37
(dp596
sg39
(dp597
sg41
I302
sg42
g21
sg43
g21
sg44
I55
sg45
Vthe
p598
sg47
I55
sg48
I305
sbag0
(g23
g2
Ntp599
Rp600
(dp601
g27
(dp602
g29
VSwedish
p603
sg31
VMISC
p604
sg33
VNNP
p605
sg35
I14
ssg10
I56
sg36
g4
sg37
(dp606
sg39
(dp607
sg41
I306
sg42
g21
sg43
g21
sg44
I56
sg45
VSwedish
p608
sg47
I56
sg48
I313
sbag0
(g23
g2
Ntp609
Rp610
(dp611
g27
(dp612
g29
VLegal
p613
sg31
VO
p614
sg33
VNNP
p615
sg35
I15
ssg10
I57
sg36
g4
sg37
(dp616
sg39
(dp617
sg41
I314
sg42
g21
sg43
g21
sg44
I57
sg45
VLegal
p618
sg47
I57
sg48
I319
sbag0
(g23
g2
Ntp619
Rp620
(dp621
g27
(dp622
g29
V,
p623
sg31
VO
p624
sg33
V,
p625
sg35
I16
ssg10
I58
sg36
g4
sg37
(dp626
sg39
(dp627
sg41
I319
sg42
g21
sg43
g21
sg44
I58
sg45
V,
p628
sg47
I58
sg48
I320
sbag0
(g23
g2
Ntp629
Rp630
(dp631
g27
(dp632
g29
VFinancial
p633
sg31
VORGANIZATION
p634
sg33
VNNP
p635
sg35
I17
ssg10
I59
sg36
g4
sg37
(dp636
sg39
(dp637
sg41
I321
sg42
g21
sg43
g21
sg44
I59
sg45
VFinancial
p638
sg47
I59
sg48
I330
sbag0
(g23
g2
Ntp639
Rp640
(dp641
g27
(dp642
g29
Vand
p643
sg31
VORGANIZATION
p644
sg33
VCC
p645
sg35
I18
ssg10
I60
sg36
g4
sg37
(dp646
sg39
(dp647
sg41
I331
sg42
g21
sg43
g21
sg44
I60
sg45
Vand
p648
sg47
I60
sg48
I334
sbag0
(g23
g2
Ntp649
Rp650
(dp651
g27
(dp652
g29
VAdministrative
p653
sg31
VORGANIZATION
p654
sg33
VNNP
p655
sg35
I19
ssg10
I61
sg36
g4
sg37
(dp656
sg39
(dp657
sg41
I335
sg42
g21
sg43
g21
sg44
I61
sg45
VAdministrative
p658
sg47
I61
sg48
I349
sbag0
(g23
g2
Ntp659
Rp660
(dp661
g27
(dp662
g29
VServices
p663
sg31
VORGANIZATION
p664
sg33
VNNP
p665
sg35
I20
ssg10
I62
sg36
g4
sg37
(dp666
sg39
(dp667
sg41
I350
sg42
g21
sg43
g21
sg44
I62
sg45
VServices
p668
sg47
I62
sg48
I358
sbag0
(g23
g2
Ntp669
Rp670
(dp671
g27
(dp672
g29
VAgency
p673
sg31
VORGANIZATION
p674
sg33
VNNP
p675
sg35
I21
ssg10
I63
sg36
g4
sg37
(dp676
sg39
(dp677
sg41
I359
sg42
g21
sg43
g21
sg44
I63
sg45
VAgency
p678
sg47
I63
sg48
I365
sbag0
(g23
g2
Ntp679
Rp680
(dp681
g27
(dp682
g29
V-lrb-
p683
sg31
VO
p684
sg33
V-LRB-
p685
sg35
I22
ssg10
I64
sg36
g4
sg37
(dp686
sg39
(dp687
sg41
I366
sg42
g21
sg43
g21
sg44
I64
sg45
V(
p688
sg47
I64
sg48
I367
sbag0
(g23
g2
Ntp689
Rp690
(dp691
g27
(dp692
g29
V``
p693
sg31
VO
p694
sg33
V``
p695
sg35
I23
ssg10
I65
sg36
g4
sg37
(dp696
sg39
(dp697
sg41
I367
sg42
g21
sg43
g21
sg44
I65
sg45
V"
p698
sg47
I65
sg48
I368
sbag0
(g23
g2
Ntp699
Rp700
(dp701
g27
(dp702
g29
Vkammarkollegiet
p703
sg31
VO
p704
sg33
VNN
p705
sg35
I24
ssg10
I66
sg36
g4
sg37
(dp706
sg39
(dp707
sg41
I368
sg42
g21
sg43
g21
sg44
I66
sg45
Vkammarkollegiet
p708
sg47
I66
sg48
I383
sbag0
(g23
g2
Ntp709
Rp710
(dp711
g27
(dp712
g29
V''
p713
sg31
VO
p714
sg33
V''
p715
sg35
I25
ssg10
I67
sg36
g4
sg37
(dp716
sg39
(dp717
sg41
I383
sg42
g21
sg43
g21
sg44
I67
sg45
g698
sg47
I67
sg48
I384
sbag0
(g23
g2
Ntp718
Rp719
(dp720
g27
(dp721
g29
V-rrb-
p722
sg31
VO
p723
sg33
V-RRB-
p724
sg35
I26
ssg10
I68
sg36
g4
sg37
(dp725
sg39
(dp726
sg41
I384
sg42
g21
sg43
g21
sg44
I68
sg45
V)
p727
sg47
I68
sg48
I385
sbag0
(g23
g2
Ntp728
Rp729
(dp730
g27
(dp731
g29
Vas
p732
sg31
VO
p733
sg33
VIN
p734
sg35
I27
ssg10
I69
sg36
g4
sg37
(dp735
sg39
(dp736
sg41
I386
sg42
g21
sg43
g21
sg44
I69
sg45
Vas
p737
sg47
I69
sg48
I388
sbag0
(g23
g2
Ntp738
Rp739
(dp740
g27
(dp741
g29
Va
p742
sg31
VO
p743
sg33
VDT
p744
sg35
I28
ssg10
I70
sg36
g4
sg37
(dp745
sg39
(dp746
sg41
I386
sg42
g21
sg43
g21
sg44
I70
sg45
Va
p747
sg47
I70
sg48
I387
sbag0
(g23
g2
Ntp748
Rp749
(dp750
g27
(dp751
g29
Vreligious
p752
sg31
VO
p753
sg33
VJJ
p754
sg35
I29
ssg10
I71
sg36
g4
sg37
(dp755
sg39
(dp756
sg41
I391
sg42
g21
sg43
g21
sg44
I71
sg45
Vreligious
p757
sg47
I71
sg48
I400
sbag0
(g23
g2
Ntp758
Rp759
(dp760
g27
(dp761
g29
Vcommunity
p762
sg31
VO
p763
sg33
VNN
p764
sg35
I30
ssg10
I72
sg36
g4
sg37
(dp765
sg39
(dp766
sg41
I401
sg42
g21
sg43
g21
sg44
I72
sg45
Vcommunity
p767
sg47
I72
sg48
I410
sbag0
(g23
g2
Ntp768
Rp769
(dp770
g27
(dp771
g29
V,
p772
sg31
VO
p773
sg33
V,
p774
sg35
I31
ssg10
I73
sg36
g4
sg37
(dp775
sg39
(dp776
sg41
I410
sg42
g21
sg43
g21
sg44
I73
sg45
V,
p777
sg47
I73
sg48
I411
sbag0
(g23
g2
Ntp778
Rp779
(dp780
g27
(dp781
g29
Vafter
p782
sg31
VO
p783
sg33
VIN
p784
sg35
I32
ssg10
I74
sg36
g4
sg37
(dp785
sg39
(dp786
sg41
I412
sg42
g21
sg43
g21
sg44
I74
sg45
Vafter
p787
sg47
I74
sg48
I417
sbag0
(g23
g2
Ntp788
Rp789
(dp790
g27
(dp791
g29
Vthree
p792
sg31
VNUMBER
p793
sg33
VCD
p794
sg35
I33
ssg10
I75
sg36
g4
sg37
(dp795
sg39
(dp796
sg41
I418
sg42
g21
sg43
g21
sg44
I75
sg45
Vthree
p797
sg47
I75
sg48
I423
sbag0
(g23
g2
Ntp798
Rp799
(dp800
g27
(dp801
g29
Vapplication
p802
sg31
VO
p803
sg33
VNN
p804
sg35
I34
ssg10
I76
sg36
g4
sg37
(dp805
sg39
(dp806
sg41
I424
sg42
g21
sg43
g21
sg44
I76
sg45
Vapplication
p807
sg47
I76
sg48
I435
sbag0
(g23
g2
Ntp808
Rp809
(dp810
g27
(dp811
g29
Vattempt
p812
sg31
VO
p813
sg33
VNNS
p814
sg35
I35
ssg10
I77
sg36
g4
sg37
(dp815
sg39
(dp816
sg41
I436
sg42
g21
sg43
g21
sg44
I77
sg45
Vattempts
p817
sg47
I77
sg48
I444
sbag0
(g23
g2
Ntp818
Rp819
(dp820
g27
(dp821
g29
V-lsb-
p822
sg31
VO
p823
sg33
V-LRB-
p824
sg35
I36
ssg10
I78
sg36
g4
sg37
(dp825
sg39
(dp826
sg41
I445
sg42
g21
sg43
g21
sg44
I78
sg45
V[
p827
sg47
I78
sg48
I446
sbag0
(g23
g2
Ntp828
Rp829
(dp830
g27
(dp831
g29
Vref
p832
sg31
VO
p833
sg33
VNN
p834
sg35
I37
ssg10
I79
sg36
g4
sg37
(dp835
sg39
(dp836
sg41
I446
sg42
g21
sg43
g21
sg44
I79
sg45
VREF
p837
sg47
I79
sg48
I449
sbag0
(g23
g2
Ntp838
Rp839
(dp840
g27
(dp841
g29
V-rsb-
p842
sg31
VO
p843
sg33
V-RRB-
p844
sg35
I38
ssg10
I80
sg36
g4
sg37
(dp845
sg39
(dp846
sg41
I449
sg42
g21
sg43
g21
sg44
I80
sg45
V]
p847
sg47
I80
sg48
I450
sbag0
(g23
g2
Ntp848
Rp849
(dp850
g27
(dp851
g29
V.
p852
sg31
VO
p853
sg33
V.
p854
sg35
I39
ssg10
I81
sg36
g4
sg37
(dp855
sg39
(dp856
sg41
I450
sg42
g21
sg43
g21
sg44
I81
sg45
V.
p857
sg47
I81
sg48
I451
sbag0
(g23
g2
Ntp858
Rp859
(dp860
g27
(dp861
g29
Valthough
p862
sg31
VO
p863
sg33
VIN
p864
sg35
I1
ssg10
I82
sg36
g4
sg37
(dp865
sg39
(dp866
sg41
I454
sg42
g21
sg43
g21
sg44
I82
sg45
VAlthough
p867
sg47
I82
sg48
I462
sbag0
(g23
g2
Ntp868
Rp869
(dp870
g27
(dp871
g29
Vit
p872
sg31
VO
p873
sg33
VPRP
p874
sg35
I2
ssg10
I83
sg36
g4
sg37
(dp875
sg39
(dp876
sg41
I463
sg42
g21
sg43
g21
sg44
I83
sg45
Vit
p877
sg47
I83
sg48
I465
sbag0
(g23
g2
Ntp878
Rp879
(dp880
g27
(dp881
g29
Vhave
p882
sg31
VO
p883
sg33
VVBZ
p884
sg35
I3
ssg10
I84
sg36
g4
sg37
(dp885
sg39
(dp886
sg41
I466
sg42
g21
sg43
g21
sg44
I84
sg45
Vhas
p887
sg47
I84
sg48
I469
sbag0
(g23
g2
Ntp888
Rp889
(dp890
g27
(dp891
g29
Vbe
p892
sg31
VO
p893
sg33
VVBN
p894
sg35
I4
ssg10
I85
sg36
g4
sg37
(dp895
sg39
(dp896
sg41
I470
sg42
g21
sg43
g21
sg44
I85
sg45
Vbeen
p897
sg47
I85
sg48
I474
sbag0
(g23
g2
Ntp898
Rp899
(dp900
g27
(dp901
g29
Vreport
p902
sg31
VO
p903
sg33
VVBN
p904
sg35
I5
ssg10
I86
sg36
g4
sg37
(dp905
sg39
(dp906
sg41
I475
sg42
g21
sg43
g21
sg44
I86
sg45
Vreported
p907
sg47
I86
sg48
I483
sbag0
(g23
g2
Ntp908
Rp909
(dp910
g27
(dp911
g29
Vthat
p912
sg31
VO
p913
sg33
VIN
p914
sg35
I6
ssg10
I87
sg36
g4
sg37
(dp915
sg39
(dp916
sg41
I484
sg42
g21
sg43
g21
sg44
I87
sg45
Vthat
p917
sg47
I87
sg48
I488
sbag0
(g23
g2
Ntp918
Rp919
(dp920
g27
(dp921
g29
Vthe
p922
sg31
VO
p923
sg33
VDT
p924
sg35
I7
ssg10
I88
sg36
g4
sg37
(dp925
sg39
(dp926
sg41
I489
sg42
g21
sg43
g21
sg44
I88
sg45
VThe
p927
sg47
I88
sg48
I492
sbag0
(g23
g2
Ntp928
Rp929
(dp930
g27
(dp931
g29
VPirate
p932
sg31
VO
p933
sg33
VNNP
p934
sg35
I8
ssg10
I89
sg36
g4
sg37
(dp935
sg39
(dp936
sg41
I493
sg42
g21
sg43
g21
sg44
I89
sg45
VPirate
p937
sg47
I89
sg48
I499
sbag0
(g23
g2
Ntp938
Rp939
(dp940
g27
(dp941
g29
VBay
p942
sg31
VO
p943
sg33
VNNP
p944
sg35
I9
ssg10
I90
sg36
g4
sg37
(dp945
sg39
(dp946
sg41
I500
sg42
g21
sg43
g21
sg44
I90
sg45
VBay
p947
sg47
I90
sg48
I503
sbag0
(g23
g2
Ntp948
Rp949
(dp950
g27
(dp951
g29
Vbe
p952
sg31
VO
p953
sg33
VVBZ
p954
sg35
I10
ssg10
I91
sg36
g4
sg37
(dp955
sg39
(dp956
sg41
I504
sg42
g21
sg43
g21
sg44
I91
sg45
Vis
p957
sg47
I91
sg48
I506
sbag0
(g23
g2
Ntp958
Rp959
(dp960
g27
(dp961
g29
Vnow
p962
sg31
VDATE
p963
sg33
VRB
p964
sg35
I11
ssg10
I92
sg36
g4
sg37
(dp965
sg39
(dp966
sg41
I507
sg42
g21
sg43
g21
sg44
I92
sg45
Vnow
p967
sg47
I92
sg48
I510
sbag0
(g23
g2
Ntp968
Rp969
(dp970
g27
(dp971
g29
Voperate
p972
sg31
VO
p973
sg33
VVBG
p974
sg35
I12
ssg10
I93
sg36
g4
sg37
(dp975
sg39
(dp976
sg41
I511
sg42
g21
sg43
g21
sg44
I93
sg45
Voperating
p977
sg47
I93
sg48
I520
sbag0
(g23
g2
Ntp978
Rp979
(dp980
g27
(dp981
g29
Vunder
p982
sg31
VO
p983
sg33
VIN
p984
sg35
I13
ssg10
I94
sg36
g4
sg37
(dp985
sg39
(dp986
sg41
I521
sg42
g21
sg43
g21
sg44
I94
sg45
Vunder
p987
sg47
I94
sg48
I526
sbag0
(g23
g2
Ntp988
Rp989
(dp990
g27
(dp991
g29
Vthe
p992
sg31
VO
p993
sg33
VDT
p994
sg35
I14
ssg10
I95
sg36
g4
sg37
(dp995
sg39
(dp996
sg41
I527
sg42
g21
sg43
g21
sg44
I95
sg45
Vthe
p997
sg47
I95
sg48
I530
sbag0
(g23
g2
Ntp998
Rp999
(dp1000
g27
(dp1001
g29
Vauspices
p1002
sg31
VO
p1003
sg33
VNNS
p1004
sg35
I15
ssg10
I96
sg36
g4
sg37
(dp1005
sg39
(dp1006
sg41
I531
sg42
g21
sg43
g21
sg44
I96
sg45
Vauspices
p1007
sg47
I96
sg48
I539
sbag0
(g23
g2
Ntp1008
Rp1009
(dp1010
g27
(dp1011
g29
Vof
p1012
sg31
VO
p1013
sg33
VIN
p1014
sg35
I16
ssg10
I97
sg36
g4
sg37
(dp1015
sg39
(dp1016
sg41
I540
sg42
g21
sg43
g21
sg44
I97
sg45
Vof
p1017
sg47
I97
sg48
I542
sbag0
(g23
g2
Ntp1018
Rp1019
(dp1020
g27
(dp1021
g29
Vthe
p1022
sg31
VO
p1023
sg33
VDT
p1024
sg35
I17
ssg10
I98
sg36
g4
sg37
(dp1025
sg39
(dp1026
sg41
I543
sg42
g21
sg43
g21
sg44
I98
sg45
Vthe
p1027
sg47
I98
sg48
I546
sbag0
(g23
g2
Ntp1028
Rp1029
(dp1030
g27
(dp1031
g29
VChurch
p1032
sg31
VORGANIZATION
p1033
sg33
VNNP
p1034
sg35
I18
ssg10
I99
sg36
g4
sg37
(dp1035
sg39
(dp1036
sg41
I547
sg42
g21
sg43
g21
sg44
I99
sg45
VChurch
p1037
sg47
I99
sg48
I553
sbag0
(g23
g2
Ntp1038
Rp1039
(dp1040
g27
(dp1041
g29
V,
p1042
sg31
VO
p1043
sg33
V,
p1044
sg35
I19
ssg10
I100
sg36
g4
sg37
(dp1045
sg39
(dp1046
sg41
I553
sg42
g21
sg43
g21
sg44
I100
sg45
V,
p1047
sg47
I100
sg48
I554
sbag0
(g23
g2
Ntp1048
Rp1049
(dp1050
g27
(dp1051
g29
VGerson
p1052
sg31
VPERSON
p1053
sg33
VNNP
p1054
sg35
I20
ssg10
I101
sg36
g4
sg37
(dp1055
sg39
(dp1056
sg41
I555
sg42
g21
sg43
g21
sg44
I101
sg45
VGerson
p1057
sg47
I101
sg48
I561
sbag0
(g23
g2
Ntp1058
Rp1059
(dp1060
g27
(dp1061
g29
Vhimself
p1062
sg31
VO
p1063
sg33
VPRP
p1064
sg35
I21
ssg10
I102
sg36
g4
sg37
(dp1065
sg39
(dp1066
sg41
I562
sg42
g21
sg43
g21
sg44
I102
sg45
Vhimself
p1067
sg47
I102
sg48
I569
sbag0
(g23
g2
Ntp1068
Rp1069
(dp1070
g27
(dp1071
g29
Vdeny
p1072
sg31
VO
p1073
sg33
VVBD
p1074
sg35
I22
ssg10
I103
sg36
g4
sg37
(dp1075
sg39
(dp1076
sg41
I570
sg42
g21
sg43
g21
sg44
I103
sg45
Vdenied
p1077
sg47
I103
sg48
I576
sbag0
(g23
g2
Ntp1078
Rp1079
(dp1080
g27
(dp1081
g29
Vany
p1082
sg31
VO
p1083
sg33
VDT
p1084
sg35
I23
ssg10
I104
sg36
g4
sg37
(dp1085
sg39
(dp1086
sg41
I577
sg42
g21
sg43
g21
sg44
I104
sg45
Vany
p1087
sg47
I104
sg48
I580
sbag0
(g23
g2
Ntp1088
Rp1089
(dp1090
g27
(dp1091
g29
Vconnection
p1092
sg31
VO
p1093
sg33
VNN
p1094
sg35
I24
ssg10
I105
sg36
g4
sg37
(dp1095
sg39
(dp1096
sg41
I581
sg42
g21
sg43
g21
sg44
I105
sg45
Vconnection
p1097
sg47
I105
sg48
I591
sbag0
(g23
g2
Ntp1098
Rp1099
(dp1100
g27
(dp1101
g29
Vwhatsoever
p1102
sg31
VO
p1103
sg33
VRB
p1104
sg35
I25
ssg10
I106
sg36
g4
sg37
(dp1105
sg39
(dp1106
sg41
I592
sg42
g21
sg43
g21
sg44
I106
sg45
Vwhatsoever
p1107
sg47
I106
sg48
I602
sbag0
(g23
g2
Ntp1108
Rp1109
(dp1110
g27
(dp1111
g29
Vbetween
p1112
sg31
VO
p1113
sg33
VIN
p1114
sg35
I26
ssg10
I107
sg36
g4
sg37
(dp1115
sg39
(dp1116
sg41
I603
sg42
g21
sg43
g21
sg44
I107
sg45
Vbetween
p1117
sg47
I107
sg48
I610
sbag0
(g23
g2
Ntp1118
Rp1119
(dp1120
g27
(dp1121
g29
Vthe
p1122
sg31
VO
p1123
sg33
VDT
p1124
sg35
I27
ssg10
I108
sg36
g4
sg37
(dp1125
sg39
(dp1126
sg41
I611
sg42
g21
sg43
g21
sg44
I108
sg45
Vthe
p1127
sg47
I108
sg48
I614
sbag0
(g23
g2
Ntp1128
Rp1129
(dp1130
g27
(dp1131
g29
Vtwo
p1132
sg31
VNUMBER
p1133
sg33
VCD
p1134
sg35
I28
ssg10
I109
sg36
g4
sg37
(dp1135
sg39
(dp1136
sg41
I615
sg42
g21
sg43
g21
sg44
I109
sg45
Vtwo
p1137
sg47
I109
sg48
I618
sbag0
(g23
g2
Ntp1138
Rp1139
(dp1140
g27
(dp1141
g29
Vorganization
p1142
sg31
VO
p1143
sg33
VNNS
p1144
sg35
I29
ssg10
I110
sg36
g4
sg37
(dp1145
sg39
(dp1146
sg41
I619
sg42
g21
sg43
g21
sg44
I110
sg45
Vorganizations
p1147
sg47
I110
sg48
I632
sbag0
(g23
g2
Ntp1148
Rp1149
(dp1150
g27
(dp1151
g29
V-lsb-
p1152
sg31
VO
p1153
sg33
V-LRB-
p1154
sg35
I30
ssg10
I111
sg36
g4
sg37
(dp1155
sg39
(dp1156
sg41
I633
sg42
g21
sg43
g21
sg44
I111
sg45
V[
p1157
sg47
I111
sg48
I634
sbag0
(g23
g2
Ntp1158
Rp1159
(dp1160
g27
(dp1161
g29
Vref
p1162
sg31
VO
p1163
sg33
VNN
p1164
sg35
I31
ssg10
I112
sg36
g4
sg37
(dp1165
sg39
(dp1166
sg41
I634
sg42
g21
sg43
g21
sg44
I112
sg45
VREF
p1167
sg47
I112
sg48
I637
sbag0
(g23
g2
Ntp1168
Rp1169
(dp1170
g27
(dp1171
g29
V-rsb-
p1172
sg31
VO
p1173
sg33
V-RRB-
p1174
sg35
I32
ssg10
I113
sg36
g4
sg37
(dp1175
sg39
(dp1176
sg41
I637
sg42
g21
sg43
g21
sg44
I113
sg45
V]
p1177
sg47
I113
sg48
I638
sbag0
(g23
g2
Ntp1178
Rp1179
(dp1180
g27
(dp1181
g29
V.
p1182
sg31
VO
p1183
sg33
V.
p1184
sg35
I33
ssg10
I114
sg36
g4
sg37
(dp1185
sg39
(dp1186
sg41
I638
sg42
g21
sg43
g21
sg44
I114
sg45
V.
p1187
sg47
I114
sg48
I639
sbag0
(g23
g2
Ntp1188
Rp1189
(dp1190
g27
(dp1191
g29
Vthe
p1192
sg31
VO
p1193
sg33
VDT
p1194
sg35
I1
ssg10
I115
sg36
g4
sg37
(dp1195
sg39
(dp1196
sg41
I641
sg42
g21
sg43
g21
sg44
I115
sg45
VThe
p1197
sg47
I115
sg48
I644
sbag0
(g23
g2
Ntp1198
Rp1199
(dp1200
g27
(dp1201
g29
Vfollower
p1202
sg31
VO
p1203
sg33
VNNS
p1204
sg35
I2
ssg10
I116
sg36
g4
sg37
(dp1205
sg39
(dp1206
sg41
I645
sg42
g21
sg43
g21
sg44
I116
sg45
Vfollowers
p1207
sg47
I116
sg48
I654
sbag0
(g23
g2
Ntp1208
Rp1209
(dp1210
g27
(dp1211
g29
Vof
p1212
sg31
VO
p1213
sg33
VIN
p1214
sg35
I3
ssg10
I117
sg36
g4
sg37
(dp1215
sg39
(dp1216
sg41
I655
sg42
g21
sg43
g21
sg44
I117
sg45
Vof
p1217
sg47
I117
sg48
I657
sbag0
(g23
g2
Ntp1218
Rp1219
(dp1220
g27
(dp1221
g29
Vthe
p1222
sg31
VO
p1223
sg33
VDT
p1224
sg35
I4
ssg10
I118
sg36
g4
sg37
(dp1225
sg39
(dp1226
sg41
I658
sg42
g21
sg43
g21
sg44
I118
sg45
Vthe
p1227
sg47
I118
sg48
I661
sbag0
(g23
g2
Ntp1228
Rp1229
(dp1230
g27
(dp1231
g29
Vreligion
p1232
sg31
VO
p1233
sg33
VNN
p1234
sg35
I5
ssg10
I119
sg36
g4
sg37
(dp1235
sg39
(dp1236
sg41
I662
sg42
g21
sg43
g21
sg44
I119
sg45
Vreligion
p1237
sg47
I119
sg48
I670
sbag0
(g23
g2
Ntp1238
Rp1239
(dp1240
g27
(dp1241
g29
Vbe
p1242
sg31
VO
p1243
sg33
VVBP
p1244
sg35
I6
ssg10
I120
sg36
g4
sg37
(dp1245
sg39
(dp1246
sg41
I671
sg42
g21
sg43
g21
sg44
I120
sg45
Vare
p1247
sg47
I120
sg48
I674
sbag0
(g23
g2
Ntp1248
Rp1249
(dp1250
g27
(dp1251
g29
Vcall
p1252
sg31
VO
p1253
sg33
VVBN
p1254
sg35
I7
ssg10
I121
sg36
g4
sg37
(dp1255
sg39
(dp1256
sg41
I675
sg42
g21
sg43
g21
sg44
I121
sg45
Vcalled
p1257
sg47
I121
sg48
I681
sbag0
(g23
g2
Ntp1258
Rp1259
(dp1260
g27
(dp1261
g29
VKopimists
p1262
sg31
VMISC
p1263
sg33
VNNP
p1264
sg35
I8
ssg10
I122
sg36
g4
sg37
(dp1265
sg39
(dp1266
sg41
I682
sg42
g21
sg43
g21
sg44
I122
sg45
VKopimists
p1267
sg47
I122
sg48
I691
sbag0
(g23
g2
Ntp1268
Rp1269
(dp1270
g27
(dp1271
g29
Vfrom
p1272
sg31
VO
p1273
sg33
VIN
p1274
sg35
I9
ssg10
I123
sg36
g4
sg37
(dp1275
sg39
(dp1276
sg41
I692
sg42
g21
sg43
g21
sg44
I123
sg45
Vfrom
p1277
sg47
I123
sg48
I696
sbag0
(g23
g2
Ntp1278
Rp1279
(dp1280
g27
(dp1281
g29
Vcopy
p1282
sg31
VO
p1283
sg33
VNN
p1284
sg35
I10
ssg10
I124
sg36
g4
sg37
(dp1285
sg39
(dp1286
sg41
I697
sg42
g21
sg43
g21
sg44
I124
sg45
Vcopy
p1287
sg47
I124
sg48
I701
sbag0
(g23
g2
Ntp1288
Rp1289
(dp1290
g27
(dp1291
g29
VI
p1292
sg31
VO
p1293
sg33
VPRP
p1294
sg35
I11
ssg10
I125
sg36
g4
sg37
(dp1295
sg39
(dp1296
sg41
I702
sg42
g21
sg43
g21
sg44
I125
sg45
Vme
p1297
sg47
I125
sg48
I704
sbag0
(g23
g2
Ntp1298
Rp1299
(dp1300
g27
(dp1301
g29
V,
p1302
sg31
VO
p1303
sg33
V,
p1304
sg35
I12
ssg10
I126
sg36
g4
sg37
(dp1305
sg39
(dp1306
sg41
I704
sg42
g21
sg43
g21
sg44
I126
sg45
V,
p1307
sg47
I126
sg48
I705
sbag0
(g23
g2
Ntp1308
Rp1309
(dp1310
g27
(dp1311
g29
Vthe
p1312
sg31
VO
p1313
sg33
VDT
p1314
sg35
I13
ssg10
I127
sg36
g4
sg37
(dp1315
sg39
(dp1316
sg41
I706
sg42
g21
sg43
g21
sg44
I127
sg45
Vthe
p1317
sg47
I127
sg48
I709
sbag0
(g23
g2
Ntp1318
Rp1319
(dp1320
g27
(dp1321
g29
Videa
p1322
sg31
VO
p1323
sg33
VNN
p1324
sg35
I14
ssg10
I128
sg36
g4
sg37
(dp1325
sg39
(dp1326
sg41
I710
sg42
g21
sg43
g21
sg44
I128
sg45
Videa
p1327
sg47
I128
sg48
I714
sbag0
(g23
g2
Ntp1328
Rp1329
(dp1330
g27
(dp1331
g29
Vof
p1332
sg31
VO
p1333
sg33
VIN
p1334
sg35
I15
ssg10
I129
sg36
g4
sg37
(dp1335
sg39
(dp1336
sg41
I715
sg42
g21
sg43
g21
sg44
I129
sg45
Vof
p1337
sg47
I129
sg48
I717
sbag0
(g23
g2
Ntp1338
Rp1339
(dp1340
g27
(dp1341
g29
Vwhich
p1342
sg31
VO
p1343
sg33
VWDT
p1344
sg35
I16
ssg10
I130
sg36
g4
sg37
(dp1345
sg39
(dp1346
sg41
I718
sg42
g21
sg43
g21
sg44
I130
sg45
Vwhich
p1347
sg47
I130
sg48
I723
sbag0
(g23
g2
Ntp1348
Rp1349
(dp1350
g27
(dp1351
g29
Vbe
p1352
sg31
VO
p1353
sg33
VVBD
p1354
sg35
I17
ssg10
I131
sg36
g4
sg37
(dp1355
sg39
(dp1356
sg41
I724
sg42
g21
sg43
g21
sg44
I131
sg45
Vwas
p1357
sg47
I131
sg48
I727
sbag0
(g23
g2
Ntp1358
Rp1359
(dp1360
g27
(dp1361
g29
Vinspire
p1362
sg31
VO
p1363
sg33
VVBN
p1364
sg35
I18
ssg10
I132
sg36
g4
sg37
(dp1365
sg39
(dp1366
sg41
I728
sg42
g21
sg43
g21
sg44
I132
sg45
Vinspired
p1367
sg47
I132
sg48
I736
sbag0
(g23
g2
Ntp1368
Rp1369
(dp1370
g27
(dp1371
g29
Vby
p1372
sg31
VO
p1373
sg33
VIN
p1374
sg35
I19
ssg10
I133
sg36
g4
sg37
(dp1375
sg39
(dp1376
sg41
I737
sg42
g21
sg43
g21
sg44
I133
sg45
Vby
p1377
sg47
I133
sg48
I739
sbag0
(g23
g2
Ntp1378
Rp1379
(dp1380
g27
(dp1381
g29
Va
p1382
sg31
VO
p1383
sg33
VDT
p1384
sg35
I20
ssg10
I134
sg36
g4
sg37
(dp1385
sg39
(dp1386
sg41
I740
sg42
g21
sg43
g21
sg44
I134
sg45
Va
p1387
sg47
I134
sg48
I741
sbag0
(g23
g2
Ntp1388
Rp1389
(dp1390
g27
(dp1391
g29
Vphrase
p1392
sg31
VO
p1393
sg33
VNN
p1394
sg35
I21
ssg10
I135
sg36
g4
sg37
(dp1395
sg39
(dp1396
sg41
I742
sg42
g21
sg43
g21
sg44
I135
sg45
Vphrase
p1397
sg47
I135
sg48
I748
sbag0
(g23
g2
Ntp1398
Rp1399
(dp1400
g27
(dp1401
g29
Vin
p1402
sg31
VO
p1403
sg33
VIN
p1404
sg35
I22
ssg10
I136
sg36
g4
sg37
(dp1405
sg39
(dp1406
sg41
I749
sg42
g21
sg43
g21
sg44
I136
sg45
Vin
p1407
sg47
I136
sg48
I751
sbag0
(g23
g2
Ntp1408
Rp1409
(dp1410
g27
(dp1411
g29
Vthe
p1412
sg31
VO
p1413
sg33
VDT
p1414
sg35
I23
ssg10
I137
sg36
g4
sg37
(dp1415
sg39
(dp1416
sg41
I752
sg42
g21
sg43
g21
sg44
I137
sg45
Vthe
p1417
sg47
I137
sg48
I755
sbag0
(g23
g2
Ntp1418
Rp1419
(dp1420
g27
(dp1421
g29
VBible
p1422
sg31
VMISC
p1423
sg33
VNNP
p1424
sg35
I24
ssg10
I138
sg36
g4
sg37
(dp1425
sg39
(dp1426
sg41
I756
sg42
g21
sg43
g21
sg44
I138
sg45
VBible
p1427
sg47
I138
sg48
I761
sbag0
(g23
g2
Ntp1428
Rp1429
(dp1430
g27
(dp1431
g29
V-lsb-
p1432
sg31
VO
p1433
sg33
V-LRB-
p1434
sg35
I25
ssg10
I139
sg36
g4
sg37
(dp1435
sg39
(dp1436
sg41
I761
sg42
g21
sg43
g21
sg44
I139
sg45
V[
p1437
sg47
I139
sg48
I762
sbag0
(g23
g2
Ntp1438
Rp1439
(dp1440
g27
(dp1441
g29
VREF
p1442
sg31
VO
p1443
sg33
VNNP
p1444
sg35
I26
ssg10
I140
sg36
g4
sg37
(dp1445
sg39
(dp1446
sg41
I762
sg42
g21
sg43
g21
sg44
I140
sg45
VREF
p1447
sg47
I140
sg48
I765
sbag0
(g23
g2
Ntp1448
Rp1449
(dp1450
g27
(dp1451
g29
V-rsb-
p1452
sg31
VO
p1453
sg33
V-RRB-
p1454
sg35
I27
ssg10
I141
sg36
g4
sg37
(dp1455
sg39
(dp1456
sg41
I765
sg42
g21
sg43
g21
sg44
I141
sg45
V]
p1457
sg47
I141
sg48
I766
sbag0
(g23
g2
Ntp1458
Rp1459
(dp1460
g27
(dp1461
g29
V:
p1462
sg31
VO
p1463
sg33
V:
p1464
sg35
I28
ssg10
I142
sg36
g4
sg37
(dp1465
sg39
(dp1466
sg41
I766
sg42
g21
sg43
g21
sg44
I142
sg45
V:
p1467
sg47
I142
sg48
I767
sbag0
(g23
g2
Ntp1468
Rp1469
(dp1470
g27
(dp1471
g29
Va
p1472
sg31
VO
p1473
sg33
VDT
p1474
sg35
I29
ssg10
I143
sg36
g4
sg37
(dp1475
sg39
(dp1476
sg41
I769
sg42
g21
sg43
g21
sg44
I143
sg45
VA
p1477
sg47
I143
sg48
I770
sbag0
(g23
g2
Ntp1478
Rp1479
(dp1480
g27
(dp1481
g29
V``
p1482
sg31
VO
p1483
sg33
V``
p1484
sg35
I30
ssg10
I144
sg36
g4
sg37
(dp1485
sg39
(dp1486
sg41
I771
sg42
g21
sg43
g21
sg44
I144
sg45
g698
sg47
I144
sg48
I772
sbag0
(g23
g2
Ntp1487
Rp1488
(dp1489
g27
(dp1490
g29
VKopimist
p1491
sg31
VO
p1492
sg33
VNNP
p1493
sg35
I31
ssg10
I145
sg36
g4
sg37
(dp1494
sg39
(dp1495
sg41
I772
sg42
g21
sg43
g21
sg44
I145
sg45
VKopimist
p1496
sg47
I145
sg48
I780
sbag0
(g23
g2
Ntp1497
Rp1498
(dp1499
g27
(dp1500
g29
V''
p1501
sg31
VO
p1502
sg33
V''
p1503
sg35
I32
ssg10
I146
sg36
g4
sg37
(dp1504
sg39
(dp1505
sg41
I780
sg42
g21
sg43
g21
sg44
I146
sg45
g698
sg47
I146
sg48
I781
sbag0
(g23
g2
Ntp1506
Rp1507
(dp1508
g27
(dp1509
g29
Vor
p1510
sg31
VO
p1511
sg33
VCC
p1512
sg35
I33
ssg10
I147
sg36
g4
sg37
(dp1513
sg39
(dp1514
sg41
I782
sg42
g21
sg43
g21
sg44
I147
sg45
Vor
p1515
sg47
I147
sg48
I784
sbag0
(g23
g2
Ntp1516
Rp1517
(dp1518
g27
(dp1519
g29
V``
p1520
sg31
VO
p1521
sg33
V``
p1522
sg35
I34
ssg10
I148
sg36
g4
sg37
(dp1523
sg39
(dp1524
sg41
I785
sg42
g21
sg43
g21
sg44
I148
sg45
g698
sg47
I148
sg48
I786
sbag0
(g23
g2
Ntp1525
Rp1526
(dp1527
g27
(dp1528
g29
VKopimist
p1529
sg31
VO
p1530
sg33
VNNP
p1531
sg35
I35
ssg10
I149
sg36
g4
sg37
(dp1532
sg39
(dp1533
sg41
I786
sg42
g21
sg43
g21
sg44
I149
sg45
VKopimist
p1534
sg47
I149
sg48
I794
sbag0
(g23
g2
Ntp1535
Rp1536
(dp1537
g27
(dp1538
g29
Vintellectual
p1539
sg31
VO
p1540
sg33
VJJ
p1541
sg35
I36
ssg10
I150
sg36
g4
sg37
(dp1542
sg39
(dp1543
sg41
I795
sg42
g21
sg43
g21
sg44
I150
sg45
Vintellectual
p1544
sg47
I150
sg48
I807
sbag0
(g23
g2
Ntp1545
Rp1546
(dp1547
g27
(dp1548
g29
V''
p1549
sg31
VO
p1550
sg33
V''
p1551
sg35
I37
ssg10
I151
sg36
g4
sg37
(dp1552
sg39
(dp1553
sg41
I807
sg42
g21
sg43
g21
sg44
I151
sg45
g698
sg47
I151
sg48
I808
sbag0
(g23
g2
Ntp1554
Rp1555
(dp1556
g27
(dp1557
g29
Vbe
p1558
sg31
VO
p1559
sg33
VVBZ
p1560
sg35
I38
ssg10
I152
sg36
g4
sg37
(dp1561
sg39
(dp1562
sg41
I809
sg42
g21
sg43
g21
sg44
I152
sg45
Vis
p1563
sg47
I152
sg48
I811
sbag0
(g23
g2
Ntp1564
Rp1565
(dp1566
g27
(dp1567
g29
Va
p1568
sg31
VO
p1569
sg33
VDT
p1570
sg35
I39
ssg10
I153
sg36
g4
sg37
(dp1571
sg39
(dp1572
sg41
I812
sg42
g21
sg43
g21
sg44
I153
sg45
Va
p1573
sg47
I153
sg48
I813
sbag0
(g23
g2
Ntp1574
Rp1575
(dp1576
g27
(dp1577
g29
Vperson
p1578
sg31
VO
p1579
sg33
VNN
p1580
sg35
I40
ssg10
I154
sg36
g4
sg37
(dp1581
sg39
(dp1582
sg41
I814
sg42
g21
sg43
g21
sg44
I154
sg45
Vperson
p1583
sg47
I154
sg48
I820
sbag0
(g23
g2
Ntp1584
Rp1585
(dp1586
g27
(dp1587
g29
Vwho
p1588
sg31
VO
p1589
sg33
VWP
p1590
sg35
I41
ssg10
I155
sg36
g4
sg37
(dp1591
sg39
(dp1592
sg41
I821
sg42
g21
sg43
g21
sg44
I155
sg45
Vwho
p1593
sg47
I155
sg48
I824
sbag0
(g23
g2
Ntp1594
Rp1595
(dp1596
g27
(dp1597
g29
Vhave
p1598
sg31
VO
p1599
sg33
VVBZ
p1600
sg35
I42
ssg10
I156
sg36
g4
sg37
(dp1601
sg39
(dp1602
sg41
I825
sg42
g21
sg43
g21
sg44
I156
sg45
Vhas
p1603
sg47
I156
sg48
I828
sbag0
(g23
g2
Ntp1604
Rp1605
(dp1606
g27
(dp1607
g29
Vthe
p1608
sg31
VO
p1609
sg33
VDT
p1610
sg35
I43
ssg10
I157
sg36
g4
sg37
(dp1611
sg39
(dp1612
sg41
I829
sg42
g21
sg43
g21
sg44
I157
sg45
Vthe
p1613
sg47
I157
sg48
I832
sbag0
(g23
g2
Ntp1614
Rp1615
(dp1616
g27
(dp1617
g29
Vphilosophical
p1618
sg31
VO
p1619
sg33
VJJ
p1620
sg35
I44
ssg10
I158
sg36
g4
sg37
(dp1621
sg39
(dp1622
sg41
I833
sg42
g21
sg43
g21
sg44
I158
sg45
Vphilosophical
p1623
sg47
I158
sg48
I846
sbag0
(g23
g2
Ntp1624
Rp1625
(dp1626
g27
(dp1627
g29
Vbelief
p1628
sg31
VO
p1629
sg33
VNN
p1630
sg35
I45
ssg10
I159
sg36
g4
sg37
(dp1631
sg39
(dp1632
sg41
I847
sg42
g21
sg43
g21
sg44
I159
sg45
Vbelief
p1633
sg47
I159
sg48
I853
sbag0
(g23
g2
Ntp1634
Rp1635
(dp1636
g27
(dp1637
g29
Vthat
p1638
sg31
VO
p1639
sg33
VIN
p1640
sg35
I46
ssg10
I160
sg36
g4
sg37
(dp1641
sg39
(dp1642
sg41
I854
sg42
g21
sg43
g21
sg44
I160
sg45
Vthat
p1643
sg47
I160
sg48
I858
sbag0
(g23
g2
Ntp1644
Rp1645
(dp1646
g27
(dp1647
g29
Vall
p1648
sg31
VO
p1649
sg33
VDT
p1650
sg35
I47
ssg10
I161
sg36
g4
sg37
(dp1651
sg39
(dp1652
sg41
I859
sg42
g21
sg43
g21
sg44
I161
sg45
Vall
p1653
sg47
I161
sg48
I862
sbag0
(g23
g2
Ntp1654
Rp1655
(dp1656
g27
(dp1657
g29
Vinformation
p1658
sg31
VO
p1659
sg33
VNN
p1660
sg35
I48
ssg10
I162
sg36
g4
sg37
(dp1661
sg39
(dp1662
sg41
I863
sg42
g21
sg43
g21
sg44
I162
sg45
Vinformation
p1663
sg47
I162
sg48
I874
sbag0
(g23
g2
Ntp1664
Rp1665
(dp1666
g27
(dp1667
g29
Vshould
p1668
sg31
VO
p1669
sg33
VMD
p1670
sg35
I49
ssg10
I163
sg36
g4
sg37
(dp1671
sg39
(dp1672
sg41
I875
sg42
g21
sg43
g21
sg44
I163
sg45
Vshould
p1673
sg47
I163
sg48
I881
sbag0
(g23
g2
Ntp1674
Rp1675
(dp1676
g27
(dp1677
g29
Vbe
p1678
sg31
VO
p1679
sg33
VVB
p1680
sg35
I50
ssg10
I164
sg36
g4
sg37
(dp1681
sg39
(dp1682
sg41
I882
sg42
g21
sg43
g21
sg44
I164
sg45
Vbe
p1683
sg47
I164
sg48
I884
sbag0
(g23
g2
Ntp1684
Rp1685
(dp1686
g27
(dp1687
g29
Vfreely
p1688
sg31
VO
p1689
sg33
VRB
p1690
sg35
I51
ssg10
I165
sg36
g4
sg37
(dp1691
sg39
(dp1692
sg41
I885
sg42
g21
sg43
g21
sg44
I165
sg45
Vfreely
p1693
sg47
I165
sg48
I891
sbag0
(g23
g2
Ntp1694
Rp1695
(dp1696
g27
(dp1697
g29
Vdistribute
p1698
sg31
VO
p1699
sg33
VVBN
p1700
sg35
I52
ssg10
I166
sg36
g4
sg37
(dp1701
sg39
(dp1702
sg41
I892
sg42
g21
sg43
g21
sg44
I166
sg45
Vdistributed
p1703
sg47
I166
sg48
I903
sbag0
(g23
g2
Ntp1704
Rp1705
(dp1706
g27
(dp1707
g29
Vand
p1708
sg31
VO
p1709
sg33
VCC
p1710
sg35
I53
ssg10
I167
sg36
g4
sg37
(dp1711
sg39
(dp1712
sg41
I904
sg42
g21
sg43
g21
sg44
I167
sg45
Vand
p1713
sg47
I167
sg48
I907
sbag0
(g23
g2
Ntp1714
Rp1715
(dp1716
g27
(dp1717
g29
Vunrestricted
p1718
sg31
VO
p1719
sg33
VJJ
p1720
sg35
I54
ssg10
I168
sg36
g4
sg37
(dp1721
sg39
(dp1722
sg41
I908
sg42
g21
sg43
g21
sg44
I168
sg45
Vunrestricted
p1723
sg47
I168
sg48
I920
sbag0
(g23
g2
Ntp1724
Rp1725
(dp1726
g27
(dp1727
g29
V.
p1728
sg31
VO
p1729
sg33
V.
p1730
sg35
I55
ssg10
I169
sg36
g4
sg37
(dp1731
sg39
(dp1732
sg41
I920
sg42
g21
sg43
g21
sg44
I169
sg45
V.
p1733
sg47
I169
sg48
I921
sbag0
(g23
g2
Ntp1734
Rp1735
(dp1736
g27
(dp1737
g29
Vthis
p1738
sg31
VO
p1739
sg33
VDT
p1740
sg35
I1
ssg10
I170
sg36
g4
sg37
(dp1741
sg39
(dp1742
sg41
I922
sg42
g21
sg43
g21
sg44
I170
sg45
VThis
p1743
sg47
I170
sg48
I926
sbag0
(g23
g2
Ntp1744
Rp1745
(dp1746
g27
(dp1747
g29
Vphilosophy
p1748
sg31
VO
p1749
sg33
VNN
p1750
sg35
I2
ssg10
I171
sg36
g4
sg37
(dp1751
sg39
(dp1752
sg41
I927
sg42
g21
sg43
g21
sg44
I171
sg45
Vphilosophy
p1753
sg47
I171
sg48
I937
sbag0
(g23
g2
Ntp1754
Rp1755
(dp1756
g27
(dp1757
g29
Voppose
p1758
sg31
VO
p1759
sg33
VVBZ
p1760
sg35
I3
ssg10
I172
sg36
g4
sg37
(dp1761
sg39
(dp1762
sg41
I938
sg42
g21
sg43
g21
sg44
I172
sg45
Vopposes
p1763
sg47
I172
sg48
I945
sbag0
(g23
g2
Ntp1764
Rp1765
(dp1766
g27
(dp1767
g29
Vthe
p1768
sg31
VO
p1769
sg33
VDT
p1770
sg35
I4
ssg10
I173
sg36
g4
sg37
(dp1771
sg39
(dp1772
sg41
I946
sg42
g21
sg43
g21
sg44
I173
sg45
Vthe
p1773
sg47
I173
sg48
I949
sbag0
(g23
g2
Ntp1774
Rp1775
(dp1776
g27
(dp1777
g29
Vprivatization
p1778
sg31
VO
p1779
sg33
VNN
p1780
sg35
I5
ssg10
I174
sg36
g4
sg37
(dp1781
sg39
(dp1782
sg41
I950
sg42
g21
sg43
g21
sg44
I174
sg45
Vprivatization
p1783
sg47
I174
sg48
I963
sbag0
(g23
g2
Ntp1784
Rp1785
(dp1786
g27
(dp1787
g29
Vof
p1788
sg31
VO
p1789
sg33
VIN
p1790
sg35
I6
ssg10
I175
sg36
g4
sg37
(dp1791
sg39
(dp1792
sg41
I964
sg42
g21
sg43
g21
sg44
I175
sg45
Vof
p1793
sg47
I175
sg48
I966
sbag0
(g23
g2
Ntp1794
Rp1795
(dp1796
g27
(dp1797
g29
Vknowledge
p1798
sg31
VO
p1799
sg33
VNN
p1800
sg35
I7
ssg10
I176
sg36
g4
sg37
(dp1801
sg39
(dp1802
sg41
I967
sg42
g21
sg43
g21
sg44
I176
sg45
Vknowledge
p1803
sg47
I176
sg48
I976
sbag0
(g23
g2
Ntp1804
Rp1805
(dp1806
g27
(dp1807
g29
Vin
p1808
sg31
VO
p1809
sg33
VIN
p1810
sg35
I8
ssg10
I177
sg36
g4
sg37
(dp1811
sg39
(dp1812
sg41
I977
sg42
g21
sg43
g21
sg44
I177
sg45
Vin
p1813
sg47
I177
sg48
I979
sbag0
(g23
g2
Ntp1814
Rp1815
(dp1816
g27
(dp1817
g29
Vall
p1818
sg31
VO
p1819
sg33
VDT
p1820
sg35
I9
ssg10
I178
sg36
g4
sg37
(dp1821
sg39
(dp1822
sg41
I980
sg42
g21
sg43
g21
sg44
I178
sg45
Vall
p1823
sg47
I178
sg48
I983
sbag0
(g23
g2
Ntp1824
Rp1825
(dp1826
g27
(dp1827
g29
Vits
p1828
sg31
VO
p1829
sg33
VPRP$
p1830
sg35
I10
ssg10
I179
sg36
g4
sg37
(dp1831
sg39
(dp1832
sg41
I984
sg42
g21
sg43
g21
sg44
I179
sg45
Vits
p1833
sg47
I179
sg48
I987
sbag0
(g23
g2
Ntp1834
Rp1835
(dp1836
g27
(dp1837
g29
Vform
p1838
sg31
VO
p1839
sg33
VNNS
p1840
sg35
I11
ssg10
I180
sg36
g4
sg37
(dp1841
sg39
(dp1842
sg41
I988
sg42
g21
sg43
g21
sg44
I180
sg45
Vforms
p1843
sg47
I180
sg48
I993
sbag0
(g23
g2
Ntp1844
Rp1845
(dp1846
g27
(dp1847
g29
V,
p1848
sg31
VO
p1849
sg33
V,
p1850
sg35
I12
ssg10
I181
sg36
g4
sg37
(dp1851
sg39
(dp1852
sg41
I993
sg42
g21
sg43
g21
sg44
I181
sg45
V,
p1853
sg47
I181
sg48
I994
sbag0
(g23
g2
Ntp1854
Rp1855
(dp1856
g27
(dp1857
g29
Vsuch
p1858
sg31
VO
p1859
sg33
VJJ
p1860
sg35
I13
ssg10
I182
sg36
g4
sg37
(dp1861
sg39
(dp1862
sg41
I995
sg42
g21
sg43
g21
sg44
I182
sg45
Vsuch
p1863
sg47
I182
sg48
I999
sbag0
(g23
g2
Ntp1864
Rp1865
(dp1866
g27
(dp1867
g29
Vas
p1868
sg31
VO
p1869
sg33
VIN
p1870
sg35
I14
ssg10
I183
sg36
g4
sg37
(dp1871
sg39
(dp1872
sg41
I1000
sg42
g21
sg43
g21
sg44
I183
sg45
Vas
p1873
sg47
I183
sg48
I1002
sbag0
(g23
g2
Ntp1874
Rp1875
(dp1876
g27
(dp1877
g29
Vcopyright
p1878
sg31
VO
p1879
sg33
VNN
p1880
sg35
I15
ssg10
I184
sg36
g4
sg37
(dp1881
sg39
(dp1882
sg41
I1003
sg42
g21
sg43
g21
sg44
I184
sg45
Vcopyright
p1883
sg47
I184
sg48
I1012
sbag0
(g23
g2
Ntp1884
Rp1885
(dp1886
g27
(dp1887
g29
V,
p1888
sg31
VO
p1889
sg33
V,
p1890
sg35
I16
ssg10
I185
sg36
g4
sg37
(dp1891
sg39
(dp1892
sg41
I1012
sg42
g21
sg43
g21
sg44
I185
sg45
V,
p1893
sg47
I185
sg48
I1013
sbag0
(g23
g2
Ntp1894
Rp1895
(dp1896
g27
(dp1897
g29
Vand
p1898
sg31
VO
p1899
sg33
VCC
p1900
sg35
I17
ssg10
I186
sg36
g4
sg37
(dp1901
sg39
(dp1902
sg41
I1014
sg42
g21
sg43
g21
sg44
I186
sg45
Vand
p1903
sg47
I186
sg48
I1017
sbag0
(g23
g2
Ntp1904
Rp1905
(dp1906
g27
(dp1907
g29
Vencourage
p1908
sg31
VO
p1909
sg33
VVBZ
p1910
sg35
I18
ssg10
I187
sg36
g4
sg37
(dp1911
sg39
(dp1912
sg41
I1018
sg42
g21
sg43
g21
sg44
I187
sg45
Vencourages
p1913
sg47
I187
sg48
I1028
sbag0
(g23
g2
Ntp1914
Rp1915
(dp1916
g27
(dp1917
g29
Vpiracy
p1918
sg31
VO
p1919
sg33
VNN
p1920
sg35
I19
ssg10
I188
sg36
g4
sg37
(dp1921
sg39
(dp1922
sg41
I1029
sg42
g21
sg43
g21
sg44
I188
sg45
Vpiracy
p1923
sg47
I188
sg48
I1035
sbag0
(g23
g2
Ntp1924
Rp1925
(dp1926
g27
(dp1927
g29
Vof
p1928
sg31
VO
p1929
sg33
VIN
p1930
sg35
I20
ssg10
I189
sg36
g4
sg37
(dp1931
sg39
(dp1932
sg41
I1036
sg42
g21
sg43
g21
sg44
I189
sg45
Vof
p1933
sg47
I189
sg48
I1038
sbag0
(g23
g2
Ntp1934
Rp1935
(dp1936
g27
(dp1937
g29
Vall
p1938
sg31
VO
p1939
sg33
VDT
p1940
sg35
I21
ssg10
I190
sg36
g4
sg37
(dp1941
sg39
(dp1942
sg41
I1039
sg42
g21
sg43
g21
sg44
I190
sg45
Vall
p1943
sg47
I190
sg48
I1042
sbag0
(g23
g2
Ntp1944
Rp1945
(dp1946
g27
(dp1947
g29
Vtype
p1948
sg31
VO
p1949
sg33
VNNS
p1950
sg35
I22
ssg10
I191
sg36
g4
sg37
(dp1951
sg39
(dp1952
sg41
I1043
sg42
g21
sg43
g21
sg44
I191
sg45
Vtypes
p1953
sg47
I191
sg48
I1048
sbag0
(g23
g2
Ntp1954
Rp1955
(dp1956
g27
(dp1957
g29
Vof
p1958
sg31
VO
p1959
sg33
VIN
p1960
sg35
I23
ssg10
I192
sg36
g4
sg37
(dp1961
sg39
(dp1962
sg41
I1049
sg42
g21
sg43
g21
sg44
I192
sg45
Vof
p1963
sg47
I192
sg48
I1051
sbag0
(g23
g2
Ntp1964
Rp1965
(dp1966
g27
(dp1967
g29
Vmedia
p1968
sg31
VO
p1969
sg33
VNNS
p1970
sg35
I24
ssg10
I193
sg36
g4
sg37
(dp1971
sg39
(dp1972
sg41
I1052
sg42
g21
sg43
g21
sg44
I193
sg45
Vmedia
p1973
sg47
I193
sg48
I1057
sbag0
(g23
g2
Ntp1974
Rp1975
(dp1976
g27
(dp1977
g29
Vinclude
p1978
sg31
VO
p1979
sg33
VVBG
p1980
sg35
I25
ssg10
I194
sg36
g4
sg37
(dp1981
sg39
(dp1982
sg41
I1058
sg42
g21
sg43
g21
sg44
I194
sg45
Vincluding
p1983
sg47
I194
sg48
I1067
sbag0
(g23
g2
Ntp1984
Rp1985
(dp1986
g27
(dp1987
g29
Vmusic
p1988
sg31
VO
p1989
sg33
VNN
p1990
sg35
I26
ssg10
I195
sg36
g4
sg37
(dp1991
sg39
(dp1992
sg41
I1068
sg42
g21
sg43
g21
sg44
I195
sg45
Vmusic
p1993
sg47
I195
sg48
I1073
sbag0
(g23
g2
Ntp1994
Rp1995
(dp1996
g27
(dp1997
g29
V,
p1998
sg31
VO
p1999
sg33
V,
p2000
sg35
I27
ssg10
I196
sg36
g4
sg37
(dp2001
sg39
(dp2002
sg41
I1073
sg42
g21
sg43
g21
sg44
I196
sg45
V,
p2003
sg47
I196
sg48
I1074
sbag0
(g23
g2
Ntp2004
Rp2005
(dp2006
g27
(dp2007
g29
Vmovie
p2008
sg31
VO
p2009
sg33
VNNS
p2010
sg35
I28
ssg10
I197
sg36
g4
sg37
(dp2011
sg39
(dp2012
sg41
I1075
sg42
g21
sg43
g21
sg44
I197
sg45
Vmovies
p2013
sg47
I197
sg48
I1081
sbag0
(g23
g2
Ntp2014
Rp2015
(dp2016
g27
(dp2017
g29
V,
p2018
sg31
VO
p2019
sg33
V,
p2020
sg35
I29
ssg10
I198
sg36
g4
sg37
(dp2021
sg39
(dp2022
sg41
I1081
sg42
g21
sg43
g21
sg44
I198
sg45
V,
p2023
sg47
I198
sg48
I1082
sbag0
(g23
g2
Ntp2024
Rp2025
(dp2026
g27
(dp2027
g29
Vtv
p2028
sg31
VO
p2029
sg33
VNN
p2030
sg35
I30
ssg10
I199
sg36
g4
sg37
(dp2031
sg39
(dp2032
sg41
I1083
sg42
g21
sg43
g21
sg44
I199
sg45
VTV
p2033
sg47
I199
sg48
I1085
sbag0
(g23
g2
Ntp2034
Rp2035
(dp2036
g27
(dp2037
g29
Vshow
p2038
sg31
VO
p2039
sg33
VNNS
p2040
sg35
I31
ssg10
I200
sg36
g4
sg37
(dp2041
sg39
(dp2042
sg41
I1086
sg42
g21
sg43
g21
sg44
I200
sg45
Vshows
p2043
sg47
I200
sg48
I1091
sbag0
(g23
g2
Ntp2044
Rp2045
(dp2046
g27
(dp2047
g29
V,
p2048
sg31
VO
p2049
sg33
V,
p2050
sg35
I32
ssg10
I201
sg36
g4
sg37
(dp2051
sg39
(dp2052
sg41
I1091
sg42
g21
sg43
g21
sg44
I201
sg45
V,
p2053
sg47
I201
sg48
I1092
sbag0
(g23
g2
Ntp2054
Rp2055
(dp2056
g27
(dp2057
g29
Vand
p2058
sg31
VO
p2059
sg33
VCC
p2060
sg35
I33
ssg10
I202
sg36
g4
sg37
(dp2061
sg39
(dp2062
sg41
I1093
sg42
g21
sg43
g21
sg44
I202
sg45
Vand
p2063
sg47
I202
sg48
I1096
sbag0
(g23
g2
Ntp2064
Rp2065
(dp2066
g27
(dp2067
g29
Vsoftware
p2068
sg31
VO
p2069
sg33
VNN
p2070
sg35
I34
ssg10
I203
sg36
g4
sg37
(dp2071
sg39
(dp2072
sg41
I1097
sg42
g21
sg43
g21
sg44
I203
sg45
Vsoftware
p2073
sg47
I203
sg48
I1105
sbag0
(g23
g2
Ntp2074
Rp2075
(dp2076
g27
(dp2077
g29
V-lsb-
p2078
sg31
VO
p2079
sg33
V-LRB-
p2080
sg35
I35
ssg10
I204
sg36
g4
sg37
(dp2081
sg39
(dp2082
sg41
I1106
sg42
g21
sg43
g21
sg44
I204
sg45
V[
p2083
sg47
I204
sg48
I1107
sbag0
(g23
g2
Ntp2084
Rp2085
(dp2086
g27
(dp2087
g29
Vref
p2088
sg31
VO
p2089
sg33
VNN
p2090
sg35
I36
ssg10
I205
sg36
g4
sg37
(dp2091
sg39
(dp2092
sg41
I1107
sg42
g21
sg43
g21
sg44
I205
sg45
VREF
p2093
sg47
I205
sg48
I1110
sbag0
(g23
g2
Ntp2094
Rp2095
(dp2096
g27
(dp2097
g29
V-rsb-
p2098
sg31
VO
p2099
sg33
V-RRB-
p2100
sg35
I37
ssg10
I206
sg36
g4
sg37
(dp2101
sg39
(dp2102
sg41
I1110
sg42
g21
sg43
g21
sg44
I206
sg45
V]
p2103
sg47
I206
sg48
I1111
sbag0
(g23
g2
Ntp2104
Rp2105
(dp2106
g27
(dp2107
g29
V.
p2108
sg31
VO
p2109
sg33
V.
p2110
sg35
I38
ssg10
I207
sg36
g4
sg37
(dp2111
sg39
(dp2112
sg41
I1111
sg42
g21
sg43
g21
sg44
I207
sg45
V.
p2113
sg47
I207
sg48
I1112
sbag0
(g23
g2
Ntp2114
Rp2115
(dp2116
g27
(dp2117
g29
Vaccord
p2118
sg31
VO
p2119
sg33
VVBG
p2120
sg35
I1
ssg10
I208
sg36
g4
sg37
(dp2121
sg39
(dp2122
sg41
I1115
sg42
g21
sg43
g21
sg44
I208
sg45
VAccording
p2123
sg47
I208
sg48
I1124
sbag0
(g23
g2
Ntp2124
Rp2125
(dp2126
g27
(dp2127
g29
Vto
p2128
sg31
VO
p2129
sg33
VTO
p2130
sg35
I2
ssg10
I209
sg36
g4
sg37
(dp2131
sg39
(dp2132
sg41
I1125
sg42
g21
sg43
g21
sg44
I209
sg45
Vto
p2133
sg47
I209
sg48
I1127
sbag0
(g23
g2
Ntp2134
Rp2135
(dp2136
g27
(dp2137
g29
Vthe
p2138
sg31
VO
p2139
sg33
VDT
p2140
sg35
I3
ssg10
I210
sg36
g4
sg37
(dp2141
sg39
(dp2142
sg41
I1128
sg42
g21
sg43
g21
sg44
I210
sg45
Vthe
p2143
sg47
I210
sg48
I1131
sbag0
(g23
g2
Ntp2144
Rp2145
(dp2146
g27
(dp2147
g29
Vchurch
p2148
sg31
VO
p2149
sg33
VNN
p2150
sg35
I4
ssg10
I211
sg36
g4
sg37
(dp2151
sg39
(dp2152
sg41
I1132
sg42
g21
sg43
g21
sg44
I211
sg45
Vchurch
p2153
sg47
I211
sg48
I1138
sbag0
(g23
g2
Ntp2154
Rp2155
(dp2156
g27
(dp2157
g29
V,
p2158
sg31
VO
p2159
sg33
V,
p2160
sg35
I5
ssg10
I212
sg36
g4
sg37
(dp2161
sg39
(dp2162
sg41
I1138
sg42
g21
sg43
g21
sg44
I212
sg45
V,
p2163
sg47
I212
sg48
I1139
sbag0
(g23
g2
Ntp2164
Rp2165
(dp2166
g27
(dp2167
g29
V``
p2168
sg31
VO
p2169
sg33
V``
p2170
sg35
I6
ssg10
I213
sg36
g4
sg37
(dp2171
sg39
(dp2172
sg41
I1140
sg42
g21
sg43
g21
sg44
I213
sg45
g698
sg47
I213
sg48
I1141
sbag0
(g23
g2
Ntp2173
Rp2174
(dp2175
g27
(dp2176
g29
Vin
p2177
sg31
VO
p2178
sg33
VIN
p2179
sg35
I7
ssg10
I214
sg36
g4
sg37
(dp2180
sg39
(dp2181
sg41
I1141
sg42
g21
sg43
g21
sg44
I214
sg45
VIn
p2182
sg47
I214
sg48
I1143
sbag0
(g23
g2
Ntp2183
Rp2184
(dp2185
g27
(dp2186
g29
Vwe
p2187
sg31
VO
p2188
sg33
VPRP$
p2189
sg35
I8
ssg10
I215
sg36
g4
sg37
(dp2190
sg39
(dp2191
sg41
I1144
sg42
g21
sg43
g21
sg44
I215
sg45
Vour
p2192
sg47
I215
sg48
I1147
sbag0
(g23
g2
Ntp2193
Rp2194
(dp2195
g27
(dp2196
g29
Vbelief
p2197
sg31
VO
p2198
sg33
VNN
p2199
sg35
I9
ssg10
I216
sg36
g4
sg37
(dp2200
sg39
(dp2201
sg41
I1148
sg42
g21
sg43
g21
sg44
I216
sg45
Vbelief
p2202
sg47
I216
sg48
I1154
sbag0
(g23
g2
Ntp2203
Rp2204
(dp2205
g27
(dp2206
g29
V,
p2207
sg31
VO
p2208
sg33
V,
p2209
sg35
I10
ssg10
I217
sg36
g4
sg37
(dp2210
sg39
(dp2211
sg41
I1154
sg42
g21
sg43
g21
sg44
I217
sg45
V,
p2212
sg47
I217
sg48
I1155
sbag0
(g23
g2
Ntp2213
Rp2214
(dp2215
g27
(dp2216
g29
Vcommunication
p2217
sg31
VO
p2218
sg33
VNN
p2219
sg35
I11
ssg10
I218
sg36
g4
sg37
(dp2220
sg39
(dp2221
sg41
I1156
sg42
g21
sg43
g21
sg44
I218
sg45
Vcommunication
p2222
sg47
I218
sg48
I1169
sbag0
(g23
g2
Ntp2223
Rp2224
(dp2225
g27
(dp2226
g29
Vbe
p2227
sg31
VO
p2228
sg33
VVBZ
p2229
sg35
I12
ssg10
I219
sg36
g4
sg37
(dp2230
sg39
(dp2231
sg41
I1170
sg42
g21
sg43
g21
sg44
I219
sg45
Vis
p2232
sg47
I219
sg48
I1172
sbag0
(g23
g2
Ntp2233
Rp2234
(dp2235
g27
(dp2236
g29
Vsacred
p2237
sg31
VO
p2238
sg33
VJJ
p2239
sg35
I13
ssg10
I220
sg36
g4
sg37
(dp2240
sg39
(dp2241
sg41
I1173
sg42
g21
sg43
g21
sg44
I220
sg45
Vsacred
p2242
sg47
I220
sg48
I1179
sbag0
(g23
g2
Ntp2243
Rp2244
(dp2245
g27
(dp2246
g29
V.
p2247
sg31
VO
p2248
sg33
V.
p2249
sg35
I14
ssg10
I221
sg36
g4
sg37
(dp2250
sg39
(dp2251
sg41
I1179
sg42
g21
sg43
g21
sg44
I221
sg45
V.
p2252
sg47
I221
sg48
I1180
sbag0
(g23
g2
Ntp2253
Rp2254
(dp2255
g27
(dp2256
g29
V''
p2257
sg31
VO
p2258
sg33
V''
p2259
sg35
I15
ssg10
I222
sg36
g4
sg37
(dp2260
sg39
(dp2261
sg41
I1180
sg42
g21
sg43
g21
sg44
I222
sg45
g698
sg47
I222
sg48
I1181
sbag0
(g23
g2
Ntp2262
Rp2263
(dp2264
g27
(dp2265
g29
V-lsb-
p2266
sg31
VO
p2267
sg33
V-LRB-
p2268
sg35
I1
ssg10
I223
sg36
g4
sg37
(dp2269
sg39
(dp2270
sg41
I1181
sg42
g21
sg43
g21
sg44
I223
sg45
V[
p2271
sg47
I223
sg48
I1182
sbag0
(g23
g2
Ntp2272
Rp2273
(dp2274
g27
(dp2275
g29
Vref
p2276
sg31
VO
p2277
sg33
VNN
p2278
sg35
I2
ssg10
I224
sg36
g4
sg37
(dp2279
sg39
(dp2280
sg41
I1182
sg42
g21
sg43
g21
sg44
I224
sg45
VREF
p2281
sg47
I224
sg48
I1185
sbag0
(g23
g2
Ntp2282
Rp2283
(dp2284
g27
(dp2285
g29
V-rsb-
p2286
sg31
VO
p2287
sg33
V-RRB-
p2288
sg35
I3
ssg10
I225
sg36
g4
sg37
(dp2289
sg39
(dp2290
sg41
I1185
sg42
g21
sg43
g21
sg44
I225
sg45
V]
p2291
sg47
I225
sg48
I1186
sbag0
(g23
g2
Ntp2292
Rp2293
(dp2294
g27
(dp2295
g29
Vno
p2296
sg31
VO
p2297
sg33
VDT
p2298
sg35
I4
ssg10
I226
sg36
g4
sg37
(dp2299
sg39
(dp2300
sg41
I1187
sg42
g21
sg43
g21
sg44
I226
sg45
VNo
p2301
sg47
I226
sg48
I1189
sbag0
(g23
g2
Ntp2302
Rp2303
(dp2304
g27
(dp2305
g29
Vbelief
p2306
sg31
VO
p2307
sg33
VNN
p2308
sg35
I5
ssg10
I227
sg36
g4
sg37
(dp2309
sg39
(dp2310
sg41
I1190
sg42
g21
sg43
g21
sg44
I227
sg45
Vbelief
p2311
sg47
I227
sg48
I1196
sbag0
(g23
g2
Ntp2312
Rp2313
(dp2314
g27
(dp2315
g29
Vin
p2316
sg31
VO
p2317
sg33
VIN
p2318
sg35
I6
ssg10
I228
sg36
g4
sg37
(dp2319
sg39
(dp2320
sg41
I1197
sg42
g21
sg43
g21
sg44
I228
sg45
Vin
p2321
sg47
I228
sg48
I1199
sbag0
(g23
g2
Ntp2322
Rp2323
(dp2324
g27
(dp2325
g29
Vgod
p2326
sg31
VO
p2327
sg33
VNNS
p2328
sg35
I7
ssg10
I229
sg36
g4
sg37
(dp2329
sg39
(dp2330
sg41
I1200
sg42
g21
sg43
g21
sg44
I229
sg45
Vgods
p2331
sg47
I229
sg48
I1204
sbag0
(g23
g2
Ntp2332
Rp2333
(dp2334
g27
(dp2335
g29
Vor
p2336
sg31
VO
p2337
sg33
VCC
p2338
sg35
I8
ssg10
I230
sg36
g4
sg37
(dp2339
sg39
(dp2340
sg41
I1205
sg42
g21
sg43
g21
sg44
I230
sg45
Vor
p2341
sg47
I230
sg48
I1207
sbag0
(g23
g2
Ntp2342
Rp2343
(dp2344
g27
(dp2345
g29
Vsupernatural
p2346
sg31
VO
p2347
sg33
VJJ
p2348
sg35
I9
ssg10
I231
sg36
g4
sg37
(dp2349
sg39
(dp2350
sg41
I1208
sg42
g21
sg43
g21
sg44
I231
sg45
Vsupernatural
p2351
sg47
I231
sg48
I1220
sbag0
(g23
g2
Ntp2352
Rp2353
(dp2354
g27
(dp2355
g29
Vphenomenon
p2356
sg31
VO
p2357
sg33
VNNS
p2358
sg35
I10
ssg10
I232
sg36
g4
sg37
(dp2359
sg39
(dp2360
sg41
I1221
sg42
g21
sg43
g21
sg44
I232
sg45
Vphenomena
p2361
sg47
I232
sg48
I1230
sbag0
(g23
g2
Ntp2362
Rp2363
(dp2364
g27
(dp2365
g29
Vbe
p2366
sg31
VO
p2367
sg33
VVBZ
p2368
sg35
I11
ssg10
I233
sg36
g4
sg37
(dp2369
sg39
(dp2370
sg41
I1231
sg42
g21
sg43
g21
sg44
I233
sg45
Vis
p2371
sg47
I233
sg48
I1233
sbag0
(g23
g2
Ntp2372
Rp2373
(dp2374
g27
(dp2375
g29
Vmention
p2376
sg31
VO
p2377
sg33
VVBN
p2378
sg35
I12
ssg10
I234
sg36
g4
sg37
(dp2379
sg39
(dp2380
sg41
I1234
sg42
g21
sg43
g21
sg44
I234
sg45
Vmentioned
p2381
sg47
I234
sg48
I1243
sbag0
(g23
g2
Ntp2382
Rp2383
(dp2384
g27
(dp2385
g29
Von
p2386
sg31
VO
p2387
sg33
VIN
p2388
sg35
I13
ssg10
I235
sg36
g4
sg37
(dp2389
sg39
(dp2390
sg41
I1239
sg42
g21
sg43
g21
sg44
I235
sg45
Von
p2391
sg47
I235
sg48
I1241
sbag0
(g23
g2
Ntp2392
Rp2393
(dp2394
g27
(dp2395
g29
Vthey
p2396
sg31
VO
p2397
sg33
VPRP$
p2398
sg35
I14
ssg10
I236
sg36
g4
sg37
(dp2399
sg39
(dp2400
sg41
I1247
sg42
g21
sg43
g21
sg44
I236
sg45
Vtheir
p2401
sg47
I236
sg48
I1252
sbag0
(g23
g2
Ntp2402
Rp2403
(dp2404
g27
(dp2405
g29
Vweb
p2406
sg31
VO
p2407
sg33
VNN
p2408
sg35
I15
ssg10
I237
sg36
g4
sg37
(dp2409
sg39
(dp2410
sg41
I1253
sg42
g21
sg43
g21
sg44
I237
sg45
Vweb
p2411
sg47
I237
sg48
I1256
sbag0
(g23
g2
Ntp2412
Rp2413
(dp2414
g27
(dp2415
g29
Vsite
p2416
sg31
VO
p2417
sg33
VNN
p2418
sg35
I16
ssg10
I238
sg36
g4
sg37
(dp2419
sg39
(dp2420
sg41
I1257
sg42
g21
sg43
g21
sg44
I238
sg45
Vsite
p2421
sg47
I238
sg48
I1261
sbag0
(g23
g2
Ntp2422
Rp2423
(dp2424
g27
(dp2425
g29
V.
p2426
sg31
VO
p2427
sg33
V.
p2428
sg35
I17
ssg10
I239
sg36
g4
sg37
(dp2429
sg39
(dp2430
sg41
I1261
sg42
g21
sg43
g21
sg44
I239
sg45
V.
p2431
sg47
I239
sg48
I1262
sbag0
(g23
g2
Ntp2432
Rp2433
(dp2434
g27
(dp2435
g29
Vctrl+c
p2436
sg31
VO
p2437
sg33
VNN
p2438
sg35
I1
ssg10
I240
sg36
g4
sg37
(dp2439
sg39
(dp2440
sg41
I1263
sg42
g21
sg43
g21
sg44
I240
sg45
VCTRL+C
p2441
sg47
I240
sg48
I1269
sbag0
(g23
g2
Ntp2442
Rp2443
(dp2444
g27
(dp2445
g29
Vand
p2446
sg31
VO
p2447
sg33
VCC
p2448
sg35
I2
ssg10
I241
sg36
g4
sg37
(dp2449
sg39
(dp2450
sg41
I1270
sg42
g21
sg43
g21
sg44
I241
sg45
Vand
p2451
sg47
I241
sg48
I1273
sbag0
(g23
g2
Ntp2452
Rp2453
(dp2454
g27
(dp2455
g29
Vctrl+v
p2456
sg31
VO
p2457
sg33
VNN
p2458
sg35
I3
ssg10
I242
sg36
g4
sg37
(dp2459
sg39
(dp2460
sg41
I1274
sg42
g21
sg43
g21
sg44
I242
sg45
VCTRL+V
p2461
sg47
I242
sg48
I1280
sbag0
(g23
g2
Ntp2462
Rp2463
(dp2464
g27
(dp2465
g29
V,
p2466
sg31
VO
p2467
sg33
V,
p2468
sg35
I4
ssg10
I243
sg36
g4
sg37
(dp2469
sg39
(dp2470
sg41
I1280
sg42
g21
sg43
g21
sg44
I243
sg45
V,
p2471
sg47
I243
sg48
I1281
sbag0
(g23
g2
Ntp2472
Rp2473
(dp2474
g27
(dp2475
g29
Vthe
p2476
sg31
VO
p2477
sg33
VDT
p2478
sg35
I5
ssg10
I244
sg36
g4
sg37
(dp2479
sg39
(dp2480
sg41
I1282
sg42
g21
sg43
g21
sg44
I244
sg45
Vthe
p2481
sg47
I244
sg48
I1285
sbag0
(g23
g2
Ntp2482
Rp2483
(dp2484
g27
(dp2485
g29
Vcomputer
p2486
sg31
VO
p2487
sg33
VNN
p2488
sg35
I6
ssg10
I245
sg36
g4
sg37
(dp2489
sg39
(dp2490
sg41
I1286
sg42
g21
sg43
g21
sg44
I245
sg45
Vcomputer
p2491
sg47
I245
sg48
I1294
sbag0
(g23
g2
Ntp2492
Rp2493
(dp2494
g27
(dp2495
g29
Vshortcut
p2496
sg31
VO
p2497
sg33
VNN
p2498
sg35
I7
ssg10
I246
sg36
g4
sg37
(dp2499
sg39
(dp2500
sg41
I1295
sg42
g21
sg43
g21
sg44
I246
sg45
Vshortcut
p2501
sg47
I246
sg48
I1303
sbag0
(g23
g2
Ntp2502
Rp2503
(dp2504
g27
(dp2505
g29
Vkey
p2506
sg31
VO
p2507
sg33
VNNS
p2508
sg35
I8
ssg10
I247
sg36
g4
sg37
(dp2509
sg39
(dp2510
sg41
I1304
sg42
g21
sg43
g21
sg44
I247
sg45
Vkeys
p2511
sg47
I247
sg48
I1308
sbag0
(g23
g2
Ntp2512
Rp2513
(dp2514
g27
(dp2515
g29
Vfor
p2516
sg31
VO
p2517
sg33
VIN
p2518
sg35
I9
ssg10
I248
sg36
g4
sg37
(dp2519
sg39
(dp2520
sg41
I1309
sg42
g21
sg43
g21
sg44
I248
sg45
Vfor
p2521
sg47
I248
sg48
I1312
sbag0
(g23
g2
Ntp2522
Rp2523
(dp2524
g27
(dp2525
g29
V``
p2526
sg31
VO
p2527
sg33
V``
p2528
sg35
I10
ssg10
I249
sg36
g4
sg37
(dp2529
sg39
(dp2530
sg41
I1313
sg42
g21
sg43
g21
sg44
I249
sg45
g698
sg47
I249
sg48
I1314
sbag0
(g23
g2
Ntp2531
Rp2532
(dp2533
g27
(dp2534
g29
Vcopy
p2535
sg31
VO
p2536
sg33
VVB
p2537
sg35
I11
ssg10
I250
sg36
g4
sg37
(dp2538
sg39
(dp2539
sg41
I1314
sg42
g21
sg43
g21
sg44
I250
sg45
VCopy
p2540
sg47
I250
sg48
I1318
sbag0
(g23
g2
Ntp2541
Rp2542
(dp2543
g27
(dp2544
g29
V''
p2545
sg31
VO
p2546
sg33
V''
p2547
sg35
I12
ssg10
I251
sg36
g4
sg37
(dp2548
sg39
(dp2549
sg41
I1318
sg42
g21
sg43
g21
sg44
I251
sg45
g698
sg47
I251
sg48
I1319
sbag0
(g23
g2
Ntp2550
Rp2551
(dp2552
g27
(dp2553
g29
Vand
p2554
sg31
VO
p2555
sg33
VCC
p2556
sg35
I13
ssg10
I252
sg36
g4
sg37
(dp2557
sg39
(dp2558
sg41
I1320
sg42
g21
sg43
g21
sg44
I252
sg45
Vand
p2559
sg47
I252
sg48
I1323
sbag0
(g23
g2
Ntp2560
Rp2561
(dp2562
g27
(dp2563
g29
V``
p2564
sg31
VO
p2565
sg33
V``
p2566
sg35
I14
ssg10
I253
sg36
g4
sg37
(dp2567
sg39
(dp2568
sg41
I1324
sg42
g21
sg43
g21
sg44
I253
sg45
g698
sg47
I253
sg48
I1325
sbag0
(g23
g2
Ntp2569
Rp2570
(dp2571
g27
(dp2572
g29
VPaste
p2573
sg31
VO
p2574
sg33
VNNP
p2575
sg35
I15
ssg10
I254
sg36
g4
sg37
(dp2576
sg39
(dp2577
sg41
I1325
sg42
g21
sg43
g21
sg44
I254
sg45
VPaste
p2578
sg47
I254
sg48
I1330
sbag0
(g23
g2
Ntp2579
Rp2580
(dp2581
g27
(dp2582
g29
V,
p2583
sg31
VO
p2584
sg33
V,
p2585
sg35
I16
ssg10
I255
sg36
g4
sg37
(dp2586
sg39
(dp2587
sg41
I1330
sg42
g21
sg43
g21
sg44
I255
sg45
V,
p2588
sg47
I255
sg48
I1331
sbag0
(g23
g2
Ntp2589
Rp2590
(dp2591
g27
(dp2592
g29
V''
p2593
sg31
VO
p2594
sg33
V''
p2595
sg35
I17
ssg10
I256
sg36
g4
sg37
(dp2596
sg39
(dp2597
sg41
I1331
sg42
g21
sg43
g21
sg44
I256
sg45
g698
sg47
I256
sg48
I1332
sbag0
(g23
g2
Ntp2598
Rp2599
(dp2600
g27
(dp2601
g29
Vbe
p2602
sg31
VO
p2603
sg33
VVBP
p2604
sg35
I18
ssg10
I257
sg36
g4
sg37
(dp2605
sg39
(dp2606
sg41
I1333
sg42
g21
sg43
g21
sg44
I257
sg45
Vare
p2607
sg47
I257
sg48
I1336
sbag0
(g23
g2
Ntp2608
Rp2609
(dp2610
g27
(dp2611
g29
Vconsider
p2612
sg31
VO
p2613
sg33
VVBN
p2614
sg35
I19
ssg10
I258
sg36
g4
sg37
(dp2615
sg39
(dp2616
sg41
I1337
sg42
g21
sg43
g21
sg44
I258
sg45
Vconsidered
p2617
sg47
I258
sg48
I1347
sbag0
(g23
g2
Ntp2618
Rp2619
(dp2620
g27
(dp2621
g29
Vsacred
p2622
sg31
VO
p2623
sg33
VJJ
p2624
sg35
I20
ssg10
I259
sg36
g4
sg37
(dp2625
sg39
(dp2626
sg41
I1348
sg42
g21
sg43
g21
sg44
I259
sg45
Vsacred
p2627
sg47
I259
sg48
I1354
sbag0
(g23
g2
Ntp2628
Rp2629
(dp2630
g27
(dp2631
g29
Vsymbol
p2632
sg31
VO
p2633
sg33
VNNS
p2634
sg35
I21
ssg10
I260
sg36
g4
sg37
(dp2635
sg39
(dp2636
sg41
I1355
sg42
g21
sg43
g21
sg44
I260
sg45
Vsymbols
p2637
sg47
I260
sg48
I1362
sbag0
(g23
g2
Ntp2638
Rp2639
(dp2640
g27
(dp2641
g29
V.
p2642
sg31
VO
p2643
sg33
V.
p2644
sg35
I22
ssg10
I261
sg36
g4
sg37
(dp2645
sg39
(dp2646
sg41
I1362
sg42
g21
sg43
g21
sg44
I261
sg45
V.
p2647
sg47
I261
sg48
I1363
sbag0
(g23
g2
Ntp2648
Rp2649
(dp2650
g27
(dp2651
g29
VKopimism
p2652
sg31
VPERSON
p2653
sg33
VNNP
p2654
sg35
I1
ssg10
I262
sg36
g4
sg37
(dp2655
sg39
(dp2656
sg41
I1366
sg42
g21
sg43
g21
sg44
I262
sg45
VKopimism
p2657
sg47
I262
sg48
I1374
sbag0
(g23
g2
Ntp2658
Rp2659
(dp2660
g27
(dp2661
g29
Vmake
p2662
sg31
VO
p2663
sg33
VVBD
p2664
sg35
I2
ssg10
I263
sg36
g4
sg37
(dp2665
sg39
(dp2666
sg41
I1375
sg42
g21
sg43
g21
sg44
I263
sg45
Vmade
p2667
sg47
I263
sg48
I1379
sbag0
(g23
g2
Ntp2668
Rp2669
(dp2670
g27
(dp2671
g29
Vsimple
p2672
sg31
VO
p2673
sg33
VJJ
p2674
sg35
I3
ssg10
I264
sg36
g4
sg37
(dp2675
sg39
(dp2676
sg41
I1380
sg42
g21
sg43
g21
sg44
I264
sg45
Vsimple
p2677
sg47
I264
sg48
I1386
sbag0
(g23
g2
Ntp2678
Rp2679
(dp2680
g27
(dp2681
g29
V-lsb-
p2682
sg31
VO
p2683
sg33
V-LRB-
p2684
sg35
I4
ssg10
I265
sg36
g4
sg37
(dp2685
sg39
(dp2686
sg41
I1386
sg42
g21
sg43
g21
sg44
I265
sg45
V[
p2687
sg47
I265
sg48
I1387
sbag0
(g23
g2
Ntp2688
Rp2689
(dp2690
g27
(dp2691
g29
Vref
p2692
sg31
VO
p2693
sg33
VNN
p2694
sg35
I5
ssg10
I266
sg36
g4
sg37
(dp2695
sg39
(dp2696
sg41
I1387
sg42
g21
sg43
g21
sg44
I266
sg45
VREF
p2697
sg47
I266
sg48
I1390
sbag0
(g23
g2
Ntp2698
Rp2699
(dp2700
g27
(dp2701
g29
V-rsb-
p2702
sg31
VO
p2703
sg33
V-RRB-
p2704
sg35
I6
ssg10
I267
sg36
g4
sg37
(dp2705
sg39
(dp2706
sg41
I1390
sg42
g21
sg43
g21
sg44
I267
sg45
V]
p2707
sg47
I267
sg48
I1391
sbag0
(g23
g2
Ntp2708
Rp2709
(dp2710
g27
(dp2711
g29
V:
p2712
sg31
VO
p2713
sg33
V:
p2714
sg35
I7
ssg10
I268
sg36
g4
sg37
(dp2715
sg39
(dp2716
sg41
I1391
sg42
g21
sg43
g21
sg44
I268
sg45
V:
p2717
sg47
I268
sg48
I1392
sbag0
(g23
g2
Ntp2718
Rp2719
(dp2720
g27
(dp2721
g29
Vall
p2722
sg31
VO
p2723
sg33
VDT
p2724
sg35
I8
ssg10
I269
sg36
g4
sg37
(dp2725
sg39
(dp2726
sg41
I1394
sg42
g21
sg43
g21
sg44
I269
sg45
VAll
p2727
sg47
I269
sg48
I1397
sbag0
(g23
g2
Ntp2728
Rp2729
(dp2730
g27
(dp2731
g29
Vknowledge
p2732
sg31
VO
p2733
sg33
VNN
p2734
sg35
I9
ssg10
I270
sg36
g4
sg37
(dp2735
sg39
(dp2736
sg41
I1398
sg42
g21
sg43
g21
sg44
I270
sg45
Vknowledge
p2737
sg47
I270
sg48
I1407
sbag0
(g23
g2
Ntp2738
Rp2739
(dp2740
g27
(dp2741
g29
Vto
p2742
sg31
VO
p2743
sg33
VTO
p2744
sg35
I10
ssg10
I271
sg36
g4
sg37
(dp2745
sg39
(dp2746
sg41
I1408
sg42
g21
sg43
g21
sg44
I271
sg45
Vto
p2747
sg47
I271
sg48
I1410
sbag0
(g23
g2
Ntp2748
Rp2749
(dp2750
g27
(dp2751
g29
Vall
p2752
sg31
VO
p2753
sg33
VDT
p2754
sg35
I11
ssg10
I272
sg36
g4
sg37
(dp2755
sg39
(dp2756
sg41
I1411
sg42
g21
sg43
g21
sg44
I272
sg45
Vall
p2757
sg47
I272
sg48
I1414
sbag0
(g23
g2
Ntp2758
Rp2759
(dp2760
g27
(dp2761
g29
Vthe
p2762
sg31
VO
p2763
sg33
VDT
p2764
sg35
I12
ssg10
I273
sg36
g4
sg37
(dp2765
sg39
(dp2766
sg41
I1416
sg42
g21
sg43
g21
sg44
I273
sg45
VThe
p2767
sg47
I273
sg48
I1419
sbag0
(g23
g2
Ntp2768
Rp2769
(dp2770
g27
(dp2771
g29
Vsearch
p2772
sg31
VO
p2773
sg33
VNN
p2774
sg35
I13
ssg10
I274
sg36
g4
sg37
(dp2775
sg39
(dp2776
sg41
I1420
sg42
g21
sg43
g21
sg44
I274
sg45
Vsearch
p2777
sg47
I274
sg48
I1426
sbag0
(g23
g2
Ntp2778
Rp2779
(dp2780
g27
(dp2781
g29
Vfor
p2782
sg31
VO
p2783
sg33
VIN
p2784
sg35
I14
ssg10
I275
sg36
g4
sg37
(dp2785
sg39
(dp2786
sg41
I1427
sg42
g21
sg43
g21
sg44
I275
sg45
Vfor
p2787
sg47
I275
sg48
I1430
sbag0
(g23
g2
Ntp2788
Rp2789
(dp2790
g27
(dp2791
g29
Vknowledge
p2792
sg31
VO
p2793
sg33
VNN
p2794
sg35
I15
ssg10
I276
sg36
g4
sg37
(dp2795
sg39
(dp2796
sg41
I1431
sg42
g21
sg43
g21
sg44
I276
sg45
Vknowledge
p2797
sg47
I276
sg48
I1440
sbag0
(g23
g2
Ntp2798
Rp2799
(dp2800
g27
(dp2801
g29
Vbe
p2802
sg31
VO
p2803
sg33
VVBZ
p2804
sg35
I16
ssg10
I277
sg36
g4
sg37
(dp2805
sg39
(dp2806
sg41
I1441
sg42
g21
sg43
g21
sg44
I277
sg45
Vis
p2807
sg47
I277
sg48
I1443
sbag0
(g23
g2
Ntp2808
Rp2809
(dp2810
g27
(dp2811
g29
Vsacred
p2812
sg31
VO
p2813
sg33
VJJ
p2814
sg35
I17
ssg10
I278
sg36
g4
sg37
(dp2815
sg39
(dp2816
sg41
I1444
sg42
g21
sg43
g21
sg44
I278
sg45
Vsacred
p2817
sg47
I278
sg48
I1450
sbag0
(g23
g2
Ntp2818
Rp2819
(dp2820
g27
(dp2821
g29
Vthe
p2822
sg31
VO
p2823
sg33
VDT
p2824
sg35
I18
ssg10
I279
sg36
g4
sg37
(dp2825
sg39
(dp2826
sg41
I1452
sg42
g21
sg43
g21
sg44
I279
sg45
VThe
p2827
sg47
I279
sg48
I1455
sbag0
(g23
g2
Ntp2828
Rp2829
(dp2830
g27
(dp2831
g29
Vcirculation
p2832
sg31
VO
p2833
sg33
VNN
p2834
sg35
I19
ssg10
I280
sg36
g4
sg37
(dp2835
sg39
(dp2836
sg41
I1456
sg42
g21
sg43
g21
sg44
I280
sg45
Vcirculation
p2837
sg47
I280
sg48
I1467
sbag0
(g23
g2
Ntp2838
Rp2839
(dp2840
g27
(dp2841
g29
Vof
p2842
sg31
VO
p2843
sg33
VIN
p2844
sg35
I20
ssg10
I281
sg36
g4
sg37
(dp2845
sg39
(dp2846
sg41
I1468
sg42
g21
sg43
g21
sg44
I281
sg45
Vof
p2847
sg47
I281
sg48
I1470
sbag0
(g23
g2
Ntp2848
Rp2849
(dp2850
g27
(dp2851
g29
Vknowledge
p2852
sg31
VO
p2853
sg33
VNN
p2854
sg35
I21
ssg10
I282
sg36
g4
sg37
(dp2855
sg39
(dp2856
sg41
I1471
sg42
g21
sg43
g21
sg44
I282
sg45
Vknowledge
p2857
sg47
I282
sg48
I1480
sbag0
(g23
g2
Ntp2858
Rp2859
(dp2860
g27
(dp2861
g29
Vbe
p2862
sg31
VO
p2863
sg33
VVBZ
p2864
sg35
I22
ssg10
I283
sg36
g4
sg37
(dp2865
sg39
(dp2866
sg41
I1481
sg42
g21
sg43
g21
sg44
I283
sg45
Vis
p2867
sg47
I283
sg48
I1483
sbag0
(g23
g2
Ntp2868
Rp2869
(dp2870
g27
(dp2871
g29
Vsacred
p2872
sg31
VO
p2873
sg33
VJJ
p2874
sg35
I23
ssg10
I284
sg36
g4
sg37
(dp2875
sg39
(dp2876
sg41
I1484
sg42
g21
sg43
g21
sg44
I284
sg45
Vsacred
p2877
sg47
I284
sg48
I1490
sbag0
(g23
g2
Ntp2878
Rp2879
(dp2880
g27
(dp2881
g29
Vthe
p2882
sg31
VO
p2883
sg33
VDT
p2884
sg35
I24
ssg10
I285
sg36
g4
sg37
(dp2885
sg39
(dp2886
sg41
I1492
sg42
g21
sg43
g21
sg44
I285
sg45
VThe
p2887
sg47
I285
sg48
I1495
sbag0
(g23
g2
Ntp2888
Rp2889
(dp2890
g27
(dp2891
g29
Vact
p2892
sg31
VO
p2893
sg33
VNN
p2894
sg35
I25
ssg10
I286
sg36
g4
sg37
(dp2895
sg39
(dp2896
sg41
I1496
sg42
g21
sg43
g21
sg44
I286
sg45
Vact
p2897
sg47
I286
sg48
I1499
sbag0
(g23
g2
Ntp2898
Rp2899
(dp2900
g27
(dp2901
g29
Vof
p2902
sg31
VO
p2903
sg33
VIN
p2904
sg35
I26
ssg10
I287
sg36
g4
sg37
(dp2905
sg39
(dp2906
sg41
I1500
sg42
g21
sg43
g21
sg44
I287
sg45
Vof
p2907
sg47
I287
sg48
I1502
sbag0
(g23
g2
Ntp2908
Rp2909
(dp2910
g27
(dp2911
g29
Vcopying
p2912
sg31
VO
p2913
sg33
VNN
p2914
sg35
I27
ssg10
I288
sg36
g4
sg37
(dp2915
sg39
(dp2916
sg41
I1503
sg42
g21
sg43
g21
sg44
I288
sg45
Vcopying
p2917
sg47
I288
sg48
I1510
sbag0
(g23
g2
Ntp2918
Rp2919
(dp2920
g27
(dp2921
g29
Vbe
p2922
sg31
VO
p2923
sg33
VVBZ
p2924
sg35
I28
ssg10
I289
sg36
g4
sg37
(dp2925
sg39
(dp2926
sg41
I1511
sg42
g21
sg43
g21
sg44
I289
sg45
Vis
p2927
sg47
I289
sg48
I1513
sbag0
(g23
g2
Ntp2928
Rp2929
(dp2930
g27
(dp2931
g29
Vsacred
p2932
sg31
VO
p2933
sg33
VJJ
p2934
sg35
I29
ssg10
I290
sg36
g4
sg37
(dp2935
sg39
(dp2936
sg41
I1514
sg42
g21
sg43
g21
sg44
I290
sg45
Vsacred
p2937
sg47
I290
sg48
I1520
sbag0
(g23
g2
Ntp2938
Rp2939
(dp2940
g27
(dp2941
g29
V.
p2942
sg31
VO
p2943
sg33
V.
p2944
sg35
I30
ssg10
I291
sg36
g4
sg37
(dp2945
sg39
(dp2946
sg41
I1520
sg42
g21
sg43
g21
sg44
I291
sg45
V.
p2947
sg47
I291
sg48
I1521
sbag0
(g23
g2
Ntp2948
Rp2949
(dp2950
g27
(dp2951
g29
Vaccord
p2952
sg31
VO
p2953
sg33
VVBG
p2954
sg35
I1
ssg10
I292
sg36
g4
sg37
(dp2955
sg39
(dp2956
sg41
I1524
sg42
g21
sg43
g21
sg44
I292
sg45
VAccording
p2957
sg47
I292
sg48
I1533
sbag0
(g23
g2
Ntp2958
Rp2959
(dp2960
g27
(dp2961
g29
Vto
p2962
sg31
VO
p2963
sg33
VTO
p2964
sg35
I2
ssg10
I293
sg36
g4
sg37
(dp2965
sg39
(dp2966
sg41
I1534
sg42
g21
sg43
g21
sg44
I293
sg45
Vto
p2967
sg47
I293
sg48
I1536
sbag0
(g23
g2
Ntp2968
Rp2969
(dp2970
g27
(dp2971
g29
Vthe
p2972
sg31
VO
p2973
sg33
VDT
p2974
sg35
I3
ssg10
I294
sg36
g4
sg37
(dp2975
sg39
(dp2976
sg41
I1537
sg42
g21
sg43
g21
sg44
I294
sg45
Vthe
p2977
sg47
I294
sg48
I1540
sbag0
(g23
g2
Ntp2978
Rp2979
(dp2980
g27
(dp2981
g29
VKopimist
p2982
sg31
VO
p2983
sg33
VNNP
p2984
sg35
I4
ssg10
I295
sg36
g4
sg37
(dp2985
sg39
(dp2986
sg41
I1541
sg42
g21
sg43
g21
sg44
I295
sg45
VKopimist
p2987
sg47
I295
sg48
I1549
sbag0
(g23
g2
Ntp2988
Rp2989
(dp2990
g27
(dp2991
g29
Vconstitution
p2992
sg31
VO
p2993
sg33
VNN
p2994
sg35
I5
ssg10
I296
sg36
g4
sg37
(dp2995
sg39
(dp2996
sg41
I1550
sg42
g21
sg43
g21
sg44
I296
sg45
Vconstitution
p2997
sg47
I296
sg48
I1562
sbag0
(g23
g2
Ntp2998
Rp2999
(dp3000
g27
(dp3001
g29
V-lsb-
p3002
sg31
VO
p3003
sg33
V-LRB-
p3004
sg35
I6
ssg10
I297
sg36
g4
sg37
(dp3005
sg39
(dp3006
sg41
I1562
sg42
g21
sg43
g21
sg44
I297
sg45
V[
p3007
sg47
I297
sg48
I1563
sbag0
(g23
g2
Ntp3008
Rp3009
(dp3010
g27
(dp3011
g29
Vref
p3012
sg31
VO
p3013
sg33
VNN
p3014
sg35
I7
ssg10
I298
sg36
g4
sg37
(dp3015
sg39
(dp3016
sg41
I1563
sg42
g21
sg43
g21
sg44
I298
sg45
VREF
p3017
sg47
I298
sg48
I1566
sbag0
(g23
g2
Ntp3018
Rp3019
(dp3020
g27
(dp3021
g29
V-rsb-
p3022
sg31
VO
p3023
sg33
V-RRB-
p3024
sg35
I8
ssg10
I299
sg36
g4
sg37
(dp3025
sg39
(dp3026
sg41
I1566
sg42
g21
sg43
g21
sg44
I299
sg45
V]
p3027
sg47
I299
sg48
I1567
sbag0
(g23
g2
Ntp3028
Rp3029
(dp3030
g27
(dp3031
g29
V:
p3032
sg31
VO
p3033
sg33
V:
p3034
sg35
I9
ssg10
I300
sg36
g4
sg37
(dp3035
sg39
(dp3036
sg41
I1567
sg42
g21
sg43
g21
sg44
I300
sg45
V:
p3037
sg47
I300
sg48
I1568
sbag0
(g23
g2
Ntp3038
Rp3039
(dp3040
g27
(dp3041
g29
VCopying
p3042
sg31
VO
p3043
sg33
VNNP
p3044
sg35
I10
ssg10
I301
sg36
g4
sg37
(dp3045
sg39
(dp3046
sg41
I1570
sg42
g21
sg43
g21
sg44
I301
sg45
VCopying
p3047
sg47
I301
sg48
I1577
sbag0
(g23
g2
Ntp3048
Rp3049
(dp3050
g27
(dp3051
g29
Vof
p3052
sg31
VO
p3053
sg33
VIN
p3054
sg35
I11
ssg10
I302
sg36
g4
sg37
(dp3055
sg39
(dp3056
sg41
I1578
sg42
g21
sg43
g21
sg44
I302
sg45
Vof
p3057
sg47
I302
sg48
I1580
sbag0
(g23
g2
Ntp3058
Rp3059
(dp3060
g27
(dp3061
g29
Vinformation
p3062
sg31
VO
p3063
sg33
VNN
p3064
sg35
I12
ssg10
I303
sg36
g4
sg37
(dp3065
sg39
(dp3066
sg41
I1581
sg42
g21
sg43
g21
sg44
I303
sg45
Vinformation
p3067
sg47
I303
sg48
I1592
sbag0
(g23
g2
Ntp3068
Rp3069
(dp3070
g27
(dp3071
g29
Vbe
p3072
sg31
VO
p3073
sg33
VVBZ
p3074
sg35
I13
ssg10
I304
sg36
g4
sg37
(dp3075
sg39
(dp3076
sg41
I1593
sg42
g21
sg43
g21
sg44
I304
sg45
Vis
p3077
sg47
I304
sg48
I1595
sbag0
(g23
g2
Ntp3078
Rp3079
(dp3080
g27
(dp3081
g29
Vethically
p3082
sg31
VO
p3083
sg33
VRB
p3084
sg35
I14
ssg10
I305
sg36
g4
sg37
(dp3085
sg39
(dp3086
sg41
I1596
sg42
g21
sg43
g21
sg44
I305
sg45
Vethically
p3087
sg47
I305
sg48
I1605
sbag0
(g23
g2
Ntp3088
Rp3089
(dp3090
g27
(dp3091
g29
Vright
p3092
sg31
VO
p3093
sg33
VJJ
p3094
sg35
I15
ssg10
I306
sg36
g4
sg37
(dp3095
sg39
(dp3096
sg41
I1606
sg42
g21
sg43
g21
sg44
I306
sg45
Vright
p3097
sg47
I306
sg48
I1611
sbag0
(g23
g2
Ntp3098
Rp3099
(dp3100
g27
(dp3101
g29
V.
p3102
sg31
VO
p3103
sg33
V.
p3104
sg35
I16
ssg10
I307
sg36
g4
sg37
(dp3105
sg39
(dp3106
sg41
I1611
sg42
g21
sg43
g21
sg44
I307
sg45
V.
p3107
sg47
I307
sg48
I1612
sbag0
(g23
g2
Ntp3108
Rp3109
(dp3110
g27
(dp3111
g29
Vdissemination
p3112
sg31
VO
p3113
sg33
VNN
p3114
sg35
I1
ssg10
I308
sg36
g4
sg37
(dp3115
sg39
(dp3116
sg41
I1614
sg42
g21
sg43
g21
sg44
I308
sg45
VDissemination
p3117
sg47
I308
sg48
I1627
sbag0
(g23
g2
Ntp3118
Rp3119
(dp3120
g27
(dp3121
g29
Vof
p3122
sg31
VO
p3123
sg33
VIN
p3124
sg35
I2
ssg10
I309
sg36
g4
sg37
(dp3125
sg39
(dp3126
sg41
I1628
sg42
g21
sg43
g21
sg44
I309
sg45
Vof
p3127
sg47
I309
sg48
I1630
sbag0
(g23
g2
Ntp3128
Rp3129
(dp3130
g27
(dp3131
g29
Vinformation
p3132
sg31
VO
p3133
sg33
VNN
p3134
sg35
I3
ssg10
I310
sg36
g4
sg37
(dp3135
sg39
(dp3136
sg41
I1631
sg42
g21
sg43
g21
sg44
I310
sg45
Vinformation
p3137
sg47
I310
sg48
I1642
sbag0
(g23
g2
Ntp3138
Rp3139
(dp3140
g27
(dp3141
g29
Vbe
p3142
sg31
VO
p3143
sg33
VVBZ
p3144
sg35
I4
ssg10
I311
sg36
g4
sg37
(dp3145
sg39
(dp3146
sg41
I1643
sg42
g21
sg43
g21
sg44
I311
sg45
Vis
p3147
sg47
I311
sg48
I1645
sbag0
(g23
g2
Ntp3148
Rp3149
(dp3150
g27
(dp3151
g29
Vethically
p3152
sg31
VO
p3153
sg33
VRB
p3154
sg35
I5
ssg10
I312
sg36
g4
sg37
(dp3155
sg39
(dp3156
sg41
I1646
sg42
g21
sg43
g21
sg44
I312
sg45
Vethically
p3157
sg47
I312
sg48
I1655
sbag0
(g23
g2
Ntp3158
Rp3159
(dp3160
g27
(dp3161
g29
Vright
p3162
sg31
VO
p3163
sg33
VJJ
p3164
sg35
I6
ssg10
I313
sg36
g4
sg37
(dp3165
sg39
(dp3166
sg41
I1656
sg42
g21
sg43
g21
sg44
I313
sg45
Vright
p3167
sg47
I313
sg48
I1661
sbag0
(g23
g2
Ntp3168
Rp3169
(dp3170
g27
(dp3171
g29
V.
p3172
sg31
VO
p3173
sg33
V.
p3174
sg35
I7
ssg10
I314
sg36
g4
sg37
(dp3175
sg39
(dp3176
sg41
I1661
sg42
g21
sg43
g21
sg44
I314
sg45
V.
p3177
sg47
I314
sg48
I1662
sbag0
(g23
g2
Ntp3178
Rp3179
(dp3180
g27
(dp3181
g29
Vcopymixing
p3182
sg31
VO
p3183
sg33
VNN
p3184
sg35
I1
ssg10
I315
sg36
g4
sg37
(dp3185
sg39
(dp3186
sg41
I1664
sg42
g21
sg43
g21
sg44
I315
sg45
VCopymixing
p3187
sg47
I315
sg48
I1674
sbag0
(g23
g2
Ntp3188
Rp3189
(dp3190
g27
(dp3191
g29
Vbe
p3192
sg31
VO
p3193
sg33
VVBZ
p3194
sg35
I2
ssg10
I316
sg36
g4
sg37
(dp3195
sg39
(dp3196
sg41
I1675
sg42
g21
sg43
g21
sg44
I316
sg45
Vis
p3197
sg47
I316
sg48
I1677
sbag0
(g23
g2
Ntp3198
Rp3199
(dp3200
g27
(dp3201
g29
Va
p3202
sg31
VO
p3203
sg33
VDT
p3204
sg35
I3
ssg10
I317
sg36
g4
sg37
(dp3205
sg39
(dp3206
sg41
I1678
sg42
g21
sg43
g21
sg44
I317
sg45
Va
p3207
sg47
I317
sg48
I1679
sbag0
(g23
g2
Ntp3208
Rp3209
(dp3210
g27
(dp3211
g29
Vsacred
p3212
sg31
VO
p3213
sg33
VJJ
p3214
sg35
I4
ssg10
I318
sg36
g4
sg37
(dp3215
sg39
(dp3216
sg41
I1680
sg42
g21
sg43
g21
sg44
I318
sg45
Vsacred
p3217
sg47
I318
sg48
I1686
sbag0
(g23
g2
Ntp3218
Rp3219
(dp3220
g27
(dp3221
g29
Vkind
p3222
sg31
VO
p3223
sg33
VNN
p3224
sg35
I5
ssg10
I319
sg36
g4
sg37
(dp3225
sg39
(dp3226
sg41
I1687
sg42
g21
sg43
g21
sg44
I319
sg45
Vkind
p3227
sg47
I319
sg48
I1691
sbag0
(g23
g2
Ntp3228
Rp3229
(dp3230
g27
(dp3231
g29
Vof
p3232
sg31
VO
p3233
sg33
VIN
p3234
sg35
I6
ssg10
I320
sg36
g4
sg37
(dp3235
sg39
(dp3236
sg41
I1692
sg42
g21
sg43
g21
sg44
I320
sg45
Vof
p3237
sg47
I320
sg48
I1694
sbag0
(g23
g2
Ntp3238
Rp3239
(dp3240
g27
(dp3241
g29
Vcopying
p3242
sg31
VO
p3243
sg33
VNN
p3244
sg35
I7
ssg10
I321
sg36
g4
sg37
(dp3245
sg39
(dp3246
sg41
I1695
sg42
g21
sg43
g21
sg44
I321
sg45
Vcopying
p3247
sg47
I321
sg48
I1702
sbag0
(g23
g2
Ntp3248
Rp3249
(dp3250
g27
(dp3251
g29
V,
p3252
sg31
VO
p3253
sg33
V,
p3254
sg35
I8
ssg10
I322
sg36
g4
sg37
(dp3255
sg39
(dp3256
sg41
I1702
sg42
g21
sg43
g21
sg44
I322
sg45
V,
p3257
sg47
I322
sg48
I1703
sbag0
(g23
g2
Ntp3258
Rp3259
(dp3260
g27
(dp3261
g29
Vmoreso
p3262
sg31
VO
p3263
sg33
VJJR
p3264
sg35
I9
ssg10
I323
sg36
g4
sg37
(dp3265
sg39
(dp3266
sg41
I1704
sg42
g21
sg43
g21
sg44
I323
sg45
Vmoreso
p3267
sg47
I323
sg48
I1710
sbag0
(g23
g2
Ntp3268
Rp3269
(dp3270
g27
(dp3271
g29
Vthan
p3272
sg31
VO
p3273
sg33
VIN
p3274
sg35
I10
ssg10
I324
sg36
g4
sg37
(dp3275
sg39
(dp3276
sg41
I1711
sg42
g21
sg43
g21
sg44
I324
sg45
Vthan
p3277
sg47
I324
sg48
I1715
sbag0
(g23
g2
Ntp3278
Rp3279
(dp3280
g27
(dp3281
g29
Vthe
p3282
sg31
VO
p3283
sg33
VDT
p3284
sg35
I11
ssg10
I325
sg36
g4
sg37
(dp3285
sg39
(dp3286
sg41
I1716
sg42
g21
sg43
g21
sg44
I325
sg45
Vthe
p3287
sg47
I325
sg48
I1719
sbag0
(g23
g2
Ntp3288
Rp3289
(dp3290
g27
(dp3291
g29
Vperfect
p3292
sg31
VO
p3293
sg33
VJJ
p3294
sg35
I12
ssg10
I326
sg36
g4
sg37
(dp3295
sg39
(dp3296
sg41
I1720
sg42
g21
sg43
g21
sg44
I326
sg45
Vperfect
p3297
sg47
I326
sg48
I1727
sbag0
(g23
g2
Ntp3298
Rp3299
(dp3300
g27
(dp3301
g29
V,
p3302
sg31
VO
p3303
sg33
V,
p3304
sg35
I13
ssg10
I327
sg36
g4
sg37
(dp3305
sg39
(dp3306
sg41
I1727
sg42
g21
sg43
g21
sg44
I327
sg45
V,
p3307
sg47
I327
sg48
I1728
sbag0
(g23
g2
Ntp3308
Rp3309
(dp3310
g27
(dp3311
g29
Vdigital
p3312
sg31
VO
p3313
sg33
VJJ
p3314
sg35
I14
ssg10
I328
sg36
g4
sg37
(dp3315
sg39
(dp3316
sg41
I1729
sg42
g21
sg43
g21
sg44
I328
sg45
Vdigital
p3317
sg47
I328
sg48
I1736
sbag0
(g23
g2
Ntp3318
Rp3319
(dp3320
g27
(dp3321
g29
Vcopying
p3322
sg31
VO
p3323
sg33
VNN
p3324
sg35
I15
ssg10
I329
sg36
g4
sg37
(dp3325
sg39
(dp3326
sg41
I1737
sg42
g21
sg43
g21
sg44
I329
sg45
Vcopying
p3327
sg47
I329
sg48
I1744
sbag0
(g23
g2
Ntp3328
Rp3329
(dp3330
g27
(dp3331
g29
V,
p3332
sg31
VO
p3333
sg33
V,
p3334
sg35
I16
ssg10
I330
sg36
g4
sg37
(dp3335
sg39
(dp3336
sg41
I1744
sg42
g21
sg43
g21
sg44
I330
sg45
V,
p3337
sg47
I330
sg48
I1745
sbag0
(g23
g2
Ntp3338
Rp3339
(dp3340
g27
(dp3341
g29
Vbecause
p3342
sg31
VO
p3343
sg33
VIN
p3344
sg35
I17
ssg10
I331
sg36
g4
sg37
(dp3345
sg39
(dp3346
sg41
I1746
sg42
g21
sg43
g21
sg44
I331
sg45
Vbecause
p3347
sg47
I331
sg48
I1753
sbag0
(g23
g2
Ntp3348
Rp3349
(dp3350
g27
(dp3351
g29
Vit
p3352
sg31
VO
p3353
sg33
VPRP
p3354
sg35
I18
ssg10
I332
sg36
g4
sg37
(dp3355
sg39
(dp3356
sg41
I1754
sg42
g21
sg43
g21
sg44
I332
sg45
Vit
p3357
sg47
I332
sg48
I1756
sbag0
(g23
g2
Ntp3358
Rp3359
(dp3360
g27
(dp3361
g29
Vexpand
p3362
sg31
VO
p3363
sg33
VVBZ
p3364
sg35
I19
ssg10
I333
sg36
g4
sg37
(dp3365
sg39
(dp3366
sg41
I1757
sg42
g21
sg43
g21
sg44
I333
sg45
Vexpands
p3367
sg47
I333
sg48
I1764
sbag0
(g23
g2
Ntp3368
Rp3369
(dp3370
g27
(dp3371
g29
Vand
p3372
sg31
VO
p3373
sg33
VCC
p3374
sg35
I20
ssg10
I334
sg36
g4
sg37
(dp3375
sg39
(dp3376
sg41
I1760
sg42
g21
sg43
g21
sg44
I334
sg45
Vand
p3377
sg47
I334
sg48
I1763
sbag0
(g23
g2
Ntp3378
Rp3379
(dp3380
g27
(dp3381
g29
Venhance
p3382
sg31
VO
p3383
sg33
VVBZ
p3384
sg35
I21
ssg10
I335
sg36
g4
sg37
(dp3385
sg39
(dp3386
sg41
I1769
sg42
g21
sg43
g21
sg44
I335
sg45
Venhances
p3387
sg47
I335
sg48
I1777
sbag0
(g23
g2
Ntp3388
Rp3389
(dp3390
g27
(dp3391
g29
Vthe
p3392
sg31
VO
p3393
sg33
VDT
p3394
sg35
I22
ssg10
I336
sg36
g4
sg37
(dp3395
sg39
(dp3396
sg41
I1778
sg42
g21
sg43
g21
sg44
I336
sg45
Vthe
p3397
sg47
I336
sg48
I1781
sbag0
(g23
g2
Ntp3398
Rp3399
(dp3400
g27
(dp3401
g29
Vexist
p3402
sg31
VO
p3403
sg33
VVBG
p3404
sg35
I23
ssg10
I337
sg36
g4
sg37
(dp3405
sg39
(dp3406
sg41
I1782
sg42
g21
sg43
g21
sg44
I337
sg45
Vexisting
p3407
sg47
I337
sg48
I1790
sbag0
(g23
g2
Ntp3408
Rp3409
(dp3410
g27
(dp3411
g29
Vwealth
p3412
sg31
VO
p3413
sg33
VNN
p3414
sg35
I24
ssg10
I338
sg36
g4
sg37
(dp3415
sg39
(dp3416
sg41
I1791
sg42
g21
sg43
g21
sg44
I338
sg45
Vwealth
p3417
sg47
I338
sg48
I1797
sbag0
(g23
g2
Ntp3418
Rp3419
(dp3420
g27
(dp3421
g29
Vof
p3422
sg31
VO
p3423
sg33
VIN
p3424
sg35
I25
ssg10
I339
sg36
g4
sg37
(dp3425
sg39
(dp3426
sg41
I1798
sg42
g21
sg43
g21
sg44
I339
sg45
Vof
p3427
sg47
I339
sg48
I1800
sbag0
(g23
g2
Ntp3428
Rp3429
(dp3430
g27
(dp3431
g29
Vinformation
p3432
sg31
VO
p3433
sg33
VNN
p3434
sg35
I26
ssg10
I340
sg36
g4
sg37
(dp3435
sg39
(dp3436
sg41
I1801
sg42
g21
sg43
g21
sg44
I340
sg45
Vinformation
p3437
sg47
I340
sg48
I1812
sbag0
(g23
g2
Ntp3438
Rp3439
(dp3440
g27
(dp3441
g29
VCopying
p3442
sg31
VO
p3443
sg33
VNNP
p3444
sg35
I27
ssg10
I341
sg36
g4
sg37
(dp3445
sg39
(dp3446
sg41
I1814
sg42
g21
sg43
g21
sg44
I341
sg45
VCopying
p3447
sg47
I341
sg48
I1821
sbag0
(g23
g2
Ntp3448
Rp3449
(dp3450
g27
(dp3451
g29
Vor
p3452
sg31
VO
p3453
sg33
VCC
p3454
sg35
I28
ssg10
I342
sg36
g4
sg37
(dp3455
sg39
(dp3456
sg41
I1822
sg42
g21
sg43
g21
sg44
I342
sg45
Vor
p3457
sg47
I342
sg48
I1824
sbag0
(g23
g2
Ntp3458
Rp3459
(dp3460
g27
(dp3461
g29
Vremix
p3462
sg31
VO
p3463
sg33
VVBG
p3464
sg35
I29
ssg10
I343
sg36
g4
sg37
(dp3465
sg39
(dp3466
sg41
I1825
sg42
g21
sg43
g21
sg44
I343
sg45
Vremixing
p3467
sg47
I343
sg48
I1833
sbag0
(g23
g2
Ntp3468
Rp3469
(dp3470
g27
(dp3471
g29
Vinformation
p3472
sg31
VO
p3473
sg33
VNN
p3474
sg35
I30
ssg10
I344
sg36
g4
sg37
(dp3475
sg39
(dp3476
sg41
I1834
sg42
g21
sg43
g21
sg44
I344
sg45
Vinformation
p3477
sg47
I344
sg48
I1845
sbag0
(g23
g2
Ntp3478
Rp3479
(dp3480
g27
(dp3481
g29
Vcommunicate
p3482
sg31
VO
p3483
sg33
VVBN
p3484
sg35
I31
ssg10
I345
sg36
g4
sg37
(dp3485
sg39
(dp3486
sg41
I1846
sg42
g21
sg43
g21
sg44
I345
sg45
Vcommunicated
p3487
sg47
I345
sg48
I1858
sbag0
(g23
g2
Ntp3488
Rp3489
(dp3490
g27
(dp3491
g29
Vby
p3492
sg31
VO
p3493
sg33
VIN
p3494
sg35
I32
ssg10
I346
sg36
g4
sg37
(dp3495
sg39
(dp3496
sg41
I1859
sg42
g21
sg43
g21
sg44
I346
sg45
Vby
p3497
sg47
I346
sg48
I1861
sbag0
(g23
g2
Ntp3498
Rp3499
(dp3500
g27
(dp3501
g29
Vanother
p3502
sg31
VO
p3503
sg33
VDT
p3504
sg35
I33
ssg10
I347
sg36
g4
sg37
(dp3505
sg39
(dp3506
sg41
I1862
sg42
g21
sg43
g21
sg44
I347
sg45
Vanother
p3507
sg47
I347
sg48
I1869
sbag0
(g23
g2
Ntp3508
Rp3509
(dp3510
g27
(dp3511
g29
Vperson
p3512
sg31
VO
p3513
sg33
VNN
p3514
sg35
I34
ssg10
I348
sg36
g4
sg37
(dp3515
sg39
(dp3516
sg41
I1870
sg42
g21
sg43
g21
sg44
I348
sg45
Vperson
p3517
sg47
I348
sg48
I1876
sbag0
(g23
g2
Ntp3518
Rp3519
(dp3520
g27
(dp3521
g29
Vbe
p3522
sg31
VO
p3523
sg33
VVBZ
p3524
sg35
I35
ssg10
I349
sg36
g4
sg37
(dp3525
sg39
(dp3526
sg41
I1877
sg42
g21
sg43
g21
sg44
I349
sg45
Vis
p3527
sg47
I349
sg48
I1879
sbag0
(g23
g2
Ntp3528
Rp3529
(dp3530
g27
(dp3531
g29
Vsee
p3532
sg31
VO
p3533
sg33
VVBN
p3534
sg35
I36
ssg10
I350
sg36
g4
sg37
(dp3535
sg39
(dp3536
sg41
I1880
sg42
g21
sg43
g21
sg44
I350
sg45
Vseen
p3537
sg47
I350
sg48
I1884
sbag0
(g23
g2
Ntp3538
Rp3539
(dp3540
g27
(dp3541
g29
Vas
p3542
sg31
VO
p3543
sg33
VIN
p3544
sg35
I37
ssg10
I351
sg36
g4
sg37
(dp3545
sg39
(dp3546
sg41
I1885
sg42
g21
sg43
g21
sg44
I351
sg45
Vas
p3547
sg47
I351
sg48
I1887
sbag0
(g23
g2
Ntp3548
Rp3549
(dp3550
g27
(dp3551
g29
Va
p3552
sg31
VO
p3553
sg33
VDT
p3554
sg35
I38
ssg10
I352
sg36
g4
sg37
(dp3555
sg39
(dp3556
sg41
I1888
sg42
g21
sg43
g21
sg44
I352
sg45
Van
p3557
sg47
I352
sg48
I1890
sbag0
(g23
g2
Ntp3558
Rp3559
(dp3560
g27
(dp3561
g29
Vact
p3562
sg31
VO
p3563
sg33
VNN
p3564
sg35
I39
ssg10
I353
sg36
g4
sg37
(dp3565
sg39
(dp3566
sg41
I1891
sg42
g21
sg43
g21
sg44
I353
sg45
Vact
p3567
sg47
I353
sg48
I1894
sbag0
(g23
g2
Ntp3568
Rp3569
(dp3570
g27
(dp3571
g29
Vof
p3572
sg31
VO
p3573
sg33
VIN
p3574
sg35
I40
ssg10
I354
sg36
g4
sg37
(dp3575
sg39
(dp3576
sg41
I1895
sg42
g21
sg43
g21
sg44
I354
sg45
Vof
p3577
sg47
I354
sg48
I1897
sbag0
(g23
g2
Ntp3578
Rp3579
(dp3580
g27
(dp3581
g29
Vrespect
p3582
sg31
VO
p3583
sg33
VNN
p3584
sg35
I41
ssg10
I355
sg36
g4
sg37
(dp3585
sg39
(dp3586
sg41
I1898
sg42
g21
sg43
g21
sg44
I355
sg45
Vrespect
p3587
sg47
I355
sg48
I1905
sbag0
(g23
g2
Ntp3588
Rp3589
(dp3590
g27
(dp3591
g29
Vand
p3592
sg31
VO
p3593
sg33
VCC
p3594
sg35
I42
ssg10
I356
sg36
g4
sg37
(dp3595
sg39
(dp3596
sg41
I1906
sg42
g21
sg43
g21
sg44
I356
sg45
Vand
p3597
sg47
I356
sg48
I1909
sbag0
(g23
g2
Ntp3598
Rp3599
(dp3600
g27
(dp3601
g29
Va
p3602
sg31
VO
p3603
sg33
VDT
p3604
sg35
I43
ssg10
I357
sg36
g4
sg37
(dp3605
sg39
(dp3606
sg41
I1906
sg42
g21
sg43
g21
sg44
I357
sg45
Va
p3607
sg47
I357
sg48
I1907
sbag0
(g23
g2
Ntp3608
Rp3609
(dp3610
g27
(dp3611
g29
Vstrong
p3612
sg31
VO
p3613
sg33
VJJ
p3614
sg35
I44
ssg10
I358
sg36
g4
sg37
(dp3615
sg39
(dp3616
sg41
I1912
sg42
g21
sg43
g21
sg44
I358
sg45
Vstrong
p3617
sg47
I358
sg48
I1918
sbag0
(g23
g2
Ntp3618
Rp3619
(dp3620
g27
(dp3621
g29
Vexpression
p3622
sg31
VO
p3623
sg33
VNN
p3624
sg35
I45
ssg10
I359
sg36
g4
sg37
(dp3625
sg39
(dp3626
sg41
I1919
sg42
g21
sg43
g21
sg44
I359
sg45
Vexpression
p3627
sg47
I359
sg48
I1929
sbag0
(g23
g2
Ntp3628
Rp3629
(dp3630
g27
(dp3631
g29
Vof
p3632
sg31
VO
p3633
sg33
VIN
p3634
sg35
I46
ssg10
I360
sg36
g4
sg37
(dp3635
sg39
(dp3636
sg41
I1930
sg42
g21
sg43
g21
sg44
I360
sg45
Vof
p3637
sg47
I360
sg48
I1932
sbag0
(g23
g2
Ntp3638
Rp3639
(dp3640
g27
(dp3641
g29
Vacceptance
p3642
sg31
VO
p3643
sg33
VNN
p3644
sg35
I47
ssg10
I361
sg36
g4
sg37
(dp3645
sg39
(dp3646
sg41
I1933
sg42
g21
sg43
g21
sg44
I361
sg45
Vacceptance
p3647
sg47
I361
sg48
I1943
sbag0
(g23
g2
Ntp3648
Rp3649
(dp3650
g27
(dp3651
g29
Vand
p3652
sg31
VO
p3653
sg33
VCC
p3654
sg35
I48
ssg10
I362
sg36
g4
sg37
(dp3655
sg39
(dp3656
sg41
I1944
sg42
g21
sg43
g21
sg44
I362
sg45
Vand
p3657
sg47
I362
sg48
I1947
sbag0
(g23
g2
Ntp3658
Rp3659
(dp3660
g27
(dp3661
g29
Vkopimistic
p3662
sg31
VO
p3663
sg33
VJJ
p3664
sg35
I49
ssg10
I363
sg36
g4
sg37
(dp3665
sg39
(dp3666
sg41
I1948
sg42
g21
sg43
g21
sg44
I363
sg45
VKopimistic
p3667
sg47
I363
sg48
I1958
sbag0
(g23
g2
Ntp3668
Rp3669
(dp3670
g27
(dp3671
g29
Vfaith
p3672
sg31
VO
p3673
sg33
VNN
p3674
sg35
I50
ssg10
I364
sg36
g4
sg37
(dp3675
sg39
(dp3676
sg41
I1959
sg42
g21
sg43
g21
sg44
I364
sg45
Vfaith
p3677
sg47
I364
sg48
I1964
sbag0
(g23
g2
Ntp3678
Rp3679
(dp3680
g27
(dp3681
g29
V.
p3682
sg31
VO
p3683
sg33
V.
p3684
sg35
I51
ssg10
I365
sg36
g4
sg37
(dp3685
sg39
(dp3686
sg41
I1964
sg42
g21
sg43
g21
sg44
I365
sg45
V.
p3687
sg47
I365
sg48
I1965
sbag0
(g23
g2
Ntp3688
Rp3689
(dp3690
g27
(dp3691
g29
Vthe
p3692
sg31
VO
p3693
sg33
VDT
p3694
sg35
I1
ssg10
I366
sg36
g4
sg37
(dp3695
sg39
(dp3696
sg41
I1967
sg42
g21
sg43
g21
sg44
I366
sg45
VThe
p3697
sg47
I366
sg48
I1970
sbag0
(g23
g2
Ntp3698
Rp3699
(dp3700
g27
(dp3701
g29
Vinternet
p3702
sg31
VMISC
p3703
sg33
VNN
p3704
sg35
I2
ssg10
I367
sg36
g4
sg37
(dp3705
sg39
(dp3706
sg41
I1971
sg42
g21
sg43
g21
sg44
I367
sg45
VInternet
p3707
sg47
I367
sg48
I1979
sbag0
(g23
g2
Ntp3708
Rp3709
(dp3710
g27
(dp3711
g29
Vbe
p3712
sg31
VO
p3713
sg33
VVBZ
p3714
sg35
I3
ssg10
I368
sg36
g4
sg37
(dp3715
sg39
(dp3716
sg41
I1980
sg42
g21
sg43
g21
sg44
I368
sg45
Vis
p3717
sg47
I368
sg48
I1982
sbag0
(g23
g2
Ntp3718
Rp3719
(dp3720
g27
(dp3721
g29
Vholy
p3722
sg31
VO
p3723
sg33
VJJ
p3724
sg35
I4
ssg10
I369
sg36
g4
sg37
(dp3725
sg39
(dp3726
sg41
I1983
sg42
g21
sg43
g21
sg44
I369
sg45
Vholy
p3727
sg47
I369
sg48
I1987
sbag0
(g23
g2
Ntp3728
Rp3729
(dp3730
g27
(dp3731
g29
V.
p3732
sg31
VO
p3733
sg33
V.
p3734
sg35
I5
ssg10
I370
sg36
g4
sg37
(dp3735
sg39
(dp3736
sg41
I1987
sg42
g21
sg43
g21
sg44
I370
sg45
V.
p3737
sg47
I370
sg48
I1988
sbag0
(g23
g2
Ntp3738
Rp3739
(dp3740
g27
(dp3741
g29
VCode
p3742
sg31
VO
p3743
sg33
VNNP
p3744
sg35
I1
ssg10
I371
sg36
g4
sg37
(dp3745
sg39
(dp3746
sg41
I1990
sg42
g21
sg43
g21
sg44
I371
sg45
VCode
p3747
sg47
I371
sg48
I1994
sbag0
(g23
g2
Ntp3748
Rp3749
(dp3750
g27
(dp3751
g29
Vbe
p3752
sg31
VO
p3753
sg33
VVBZ
p3754
sg35
I2
ssg10
I372
sg36
g4
sg37
(dp3755
sg39
(dp3756
sg41
I1995
sg42
g21
sg43
g21
sg44
I372
sg45
Vis
p3757
sg47
I372
sg48
I1997
sbag0
(g23
g2
Ntp3758
Rp3759
(dp3760
g27
(dp3761
g29
Vlaw
p3762
sg31
VO
p3763
sg33
VNN
p3764
sg35
I3
ssg10
I373
sg36
g4
sg37
(dp3765
sg39
(dp3766
sg41
I1998
sg42
g21
sg43
g21
sg44
I373
sg45
Vlaw
p3767
sg47
I373
sg48
I2001
sbag0
(g23
g2
Ntp3768
Rp3769
(dp3770
g27
(dp3771
g29
V.
p3772
sg31
VO
p3773
sg33
V.
p3774
sg35
I4
ssg10
I374
sg36
g4
sg37
(dp3775
sg39
(dp3776
sg41
I2001
sg42
g21
sg43
g21
sg44
I374
sg45
V.
p3777
sg47
I374
sg48
I2002
sbag0
(g23
g2
Ntp3778
Rp3779
(dp3780
g27
(dp3781
g29
Von
p3782
sg31
VO
p3783
sg33
VIN
p3784
sg35
I1
ssg10
I375
sg36
g4
sg37
(dp3785
sg39
(dp3786
sg41
I2005
sg42
g21
sg43
g21
sg44
I375
sg45
VOn
p3787
sg47
I375
sg48
I2007
sbag0
(g23
g2
Ntp3788
Rp3789
(dp3790
g27
(dp3791
g29
VJanuary
p3792
sg31
VDATE
p3793
sg33
VNNP
p3794
sg35
I2
ssg10
I376
sg36
g4
sg37
(dp3795
sg39
(dp3796
sg41
I2008
sg42
g21
sg43
g21
sg44
I376
sg45
VJanuary
p3797
sg47
I376
sg48
I2015
sbag0
(g23
g2
Ntp3798
Rp3799
(dp3800
g27
(dp3801
g29
V5
p3802
sg31
VDATE
p3803
sg33
VCD
p3804
sg35
I3
ssg10
I377
sg36
g4
sg37
(dp3805
sg39
(dp3806
sg41
I2016
sg42
g21
sg43
g21
sg44
I377
sg45
V5
p3807
sg47
I377
sg48
I2017
sbag0
(g23
g2
Ntp3808
Rp3809
(dp3810
g27
(dp3811
g29
V,
p3812
sg31
VDATE
p3813
sg33
V,
p3814
sg35
I4
ssg10
I378
sg36
g4
sg37
(dp3815
sg39
(dp3816
sg41
I2017
sg42
g21
sg43
g21
sg44
I378
sg45
V,
p3817
sg47
I378
sg48
I2018
sbag0
(g23
g2
Ntp3818
Rp3819
(dp3820
g27
(dp3821
g29
V2012
p3822
sg31
VDATE
p3823
sg33
VCD
p3824
sg35
I5
ssg10
I379
sg36
g4
sg37
(dp3825
sg39
(dp3826
sg41
I2019
sg42
g21
sg43
g21
sg44
I379
sg45
V2012
p3827
sg47
I379
sg48
I2023
sbag0
(g23
g2
Ntp3828
Rp3829
(dp3830
g27
(dp3831
g29
V,
p3832
sg31
VO
p3833
sg33
V,
p3834
sg35
I6
ssg10
I380
sg36
g4
sg37
(dp3835
sg39
(dp3836
sg41
I2023
sg42
g21
sg43
g21
sg44
I380
sg45
V,
p3837
sg47
I380
sg48
I2024
sbag0
(g23
g2
Ntp3838
Rp3839
(dp3840
g27
(dp3841
g29
VKopimism
p3842
sg31
VPERSON
p3843
sg33
VNNP
p3844
sg35
I7
ssg10
I381
sg36
g4
sg37
(dp3845
sg39
(dp3846
sg41
I2025
sg42
g21
sg43
g21
sg44
I381
sg45
VKopimism
p3847
sg47
I381
sg48
I2033
sbag0
(g23
g2
Ntp3848
Rp3849
(dp3850
g27
(dp3851
g29
Vbe
p3852
sg31
VO
p3853
sg33
VVBD
p3854
sg35
I8
ssg10
I382
sg36
g4
sg37
(dp3855
sg39
(dp3856
sg41
I2034
sg42
g21
sg43
g21
sg44
I382
sg45
Vwas
p3857
sg47
I382
sg48
I2037
sbag0
(g23
g2
Ntp3858
Rp3859
(dp3860
g27
(dp3861
g29
Vaccept
p3862
sg31
VO
p3863
sg33
VVBN
p3864
sg35
I9
ssg10
I383
sg36
g4
sg37
(dp3865
sg39
(dp3866
sg41
I2038
sg42
g21
sg43
g21
sg44
I383
sg45
Vaccepted
p3867
sg47
I383
sg48
I2046
sbag0
(g23
g2
Ntp3868
Rp3869
(dp3870
g27
(dp3871
g29
Vby
p3872
sg31
VO
p3873
sg33
VIN
p3874
sg35
I10
ssg10
I384
sg36
g4
sg37
(dp3875
sg39
(dp3876
sg41
I2047
sg42
g21
sg43
g21
sg44
I384
sg45
Vby
p3877
sg47
I384
sg48
I2049
sbag0
(g23
g2
Ntp3878
Rp3879
(dp3880
g27
(dp3881
g29
VSweden
p3882
sg31
VLOCATION
p3883
sg33
VNNP
p3884
sg35
I11
ssg10
I385
sg36
g4
sg37
(dp3885
sg39
(dp3886
sg41
I2050
sg42
g21
sg43
g21
sg44
I385
sg45
VSweden
p3887
sg47
I385
sg48
I2056
sbag0
(g23
g2
Ntp3888
Rp3889
(dp3890
g27
(dp3891
g29
Vas
p3892
sg31
VO
p3893
sg33
VIN
p3894
sg35
I12
ssg10
I386
sg36
g4
sg37
(dp3895
sg39
(dp3896
sg41
I2057
sg42
g21
sg43
g21
sg44
I386
sg45
Vas
p3897
sg47
I386
sg48
I2059
sbag0
(g23
g2
Ntp3898
Rp3899
(dp3900
g27
(dp3901
g29
Va
p3902
sg31
VO
p3903
sg33
VDT
p3904
sg35
I13
ssg10
I387
sg36
g4
sg37
(dp3905
sg39
(dp3906
sg41
I2057
sg42
g21
sg43
g21
sg44
I387
sg45
Va
p3907
sg47
I387
sg48
I2058
sbag0
(g23
g2
Ntp3908
Rp3909
(dp3910
g27
(dp3911
g29
Vlegitimate
p3912
sg31
VO
p3913
sg33
VJJ
p3914
sg35
I14
ssg10
I388
sg36
g4
sg37
(dp3915
sg39
(dp3916
sg41
I2062
sg42
g21
sg43
g21
sg44
I388
sg45
Vlegitimate
p3917
sg47
I388
sg48
I2072
sbag0
(g23
g2
Ntp3918
Rp3919
(dp3920
g27
(dp3921
g29
Vreligion
p3922
sg31
VO
p3923
sg33
VNN
p3924
sg35
I15
ssg10
I389
sg36
g4
sg37
(dp3925
sg39
(dp3926
sg41
I2073
sg42
g21
sg43
g21
sg44
I389
sg45
Vreligion
p3927
sg47
I389
sg48
I2081
sbag0
(g23
g2
Ntp3928
Rp3929
(dp3930
g27
(dp3931
g29
V.
p3932
sg31
VO
p3933
sg33
V.
p3934
sg35
I16
ssg10
I390
sg36
g4
sg37
(dp3935
sg39
(dp3936
sg41
I2081
sg42
g21
sg43
g21
sg44
I390
sg45
V.
p3937
sg47
I390
sg48
I2082
sbag0
(g23
g2
Ntp3938
Rp3939
(dp3940
g27
(dp3941
g29
Vthe
p3942
sg31
VO
p3943
sg33
VDT
p3944
sg35
I1
ssg10
I391
sg36
g4
sg37
(dp3945
sg39
(dp3946
sg41
I2083
sg42
g21
sg43
g21
sg44
I391
sg45
VThe
p3947
sg47
I391
sg48
I2086
sbag0
(g23
g2
Ntp3948
Rp3949
(dp3950
g27
(dp3951
g29
Vreligion
p3952
sg31
VO
p3953
sg33
VNN
p3954
sg35
I2
ssg10
I392
sg36
g4
sg37
(dp3955
sg39
(dp3956
sg41
I2087
sg42
g21
sg43
g21
sg44
I392
sg45
Vreligion
p3957
sg47
I392
sg48
I2095
sbag0
(g23
g2
Ntp3958
Rp3959
(dp3960
g27
(dp3961
g29
V's
p3962
sg31
VO
p3963
sg33
VPOS
p3964
sg35
I3
ssg10
I393
sg36
g4
sg37
(dp3965
sg39
(dp3966
sg41
I2095
sg42
g21
sg43
g21
sg44
I393
sg45
V's
p3967
sg47
I393
sg48
I2097
sbag0
(g23
g2
Ntp3968
Rp3969
(dp3970
g27
(dp3971
g29
Vassociation
p3972
sg31
VO
p3973
sg33
VNN
p3974
sg35
I4
ssg10
I394
sg36
g4
sg37
(dp3975
sg39
(dp3976
sg41
I2098
sg42
g21
sg43
g21
sg44
I394
sg45
Vassociation
p3977
sg47
I394
sg48
I2109
sbag0
(g23
g2
Ntp3978
Rp3979
(dp3980
g27
(dp3981
g29
Vwith
p3982
sg31
VO
p3983
sg33
VIN
p3984
sg35
I5
ssg10
I395
sg36
g4
sg37
(dp3985
sg39
(dp3986
sg41
I2110
sg42
g21
sg43
g21
sg44
I395
sg45
Vwith
p3987
sg47
I395
sg48
I2114
sbag0
(g23
g2
Ntp3988
Rp3989
(dp3990
g27
(dp3991
g29
Villegal
p3992
sg31
VO
p3993
sg33
VJJ
p3994
sg35
I6
ssg10
I396
sg36
g4
sg37
(dp3995
sg39
(dp3996
sg41
I2115
sg42
g21
sg43
g21
sg44
I396
sg45
Villegal
p3997
sg47
I396
sg48
I2122
sbag0
(g23
g2
Ntp3998
Rp3999
(dp4000
g27
(dp4001
g29
Vfile
p4002
sg31
VO
p4003
sg33
VNN
p4004
sg35
I7
ssg10
I397
sg36
g4
sg37
(dp4005
sg39
(dp4006
sg41
I2123
sg42
g21
sg43
g21
sg44
I397
sg45
Vfile
p4007
sg47
I397
sg48
I2127
sbag0
(g23
g2
Ntp4008
Rp4009
(dp4010
g27
(dp4011
g29
Vsharing
p4012
sg31
VO
p4013
sg33
VNN
p4014
sg35
I8
ssg10
I398
sg36
g4
sg37
(dp4015
sg39
(dp4016
sg41
I2128
sg42
g21
sg43
g21
sg44
I398
sg45
Vsharing
p4017
sg47
I398
sg48
I2135
sbag0
(g23
g2
Ntp4018
Rp4019
(dp4020
g27
(dp4021
g29
Vhave
p4022
sg31
VO
p4023
sg33
VVBZ
p4024
sg35
I9
ssg10
I399
sg36
g4
sg37
(dp4025
sg39
(dp4026
sg41
I2136
sg42
g21
sg43
g21
sg44
I399
sg45
Vhas
p4027
sg47
I399
sg48
I2139
sbag0
(g23
g2
Ntp4028
Rp4029
(dp4030
g27
(dp4031
g29
Vbe
p4032
sg31
VO
p4033
sg33
VVBN
p4034
sg35
I10
ssg10
I400
sg36
g4
sg37
(dp4035
sg39
(dp4036
sg41
I2140
sg42
g21
sg43
g21
sg44
I400
sg45
Vbeen
p4037
sg47
I400
sg48
I2144
sbag0
(g23
g2
Ntp4038
Rp4039
(dp4040
g27
(dp4041
g29
Vsay
p4042
sg31
VO
p4043
sg33
VVBD
p4044
sg35
I11
ssg10
I401
sg36
g4
sg37
(dp4045
sg39
(dp4046
sg41
I2145
sg42
g21
sg43
g21
sg44
I401
sg45
Vsaid
p4047
sg47
I401
sg48
I2149
sbag0
(g23
g2
Ntp4048
Rp4049
(dp4050
g27
(dp4051
g29
Vnot
p4052
sg31
VO
p4053
sg33
VRB
p4054
sg35
I12
ssg10
I402
sg36
g4
sg37
(dp4055
sg39
(dp4056
sg41
I2150
sg42
g21
sg43
g21
sg44
I402
sg45
Vnot
p4057
sg47
I402
sg48
I2153
sbag0
(g23
g2
Ntp4058
Rp4059
(dp4060
g27
(dp4061
g29
Vto
p4062
sg31
VO
p4063
sg33
VTO
p4064
sg35
I13
ssg10
I403
sg36
g4
sg37
(dp4065
sg39
(dp4066
sg41
I2154
sg42
g21
sg43
g21
sg44
I403
sg45
Vto
p4067
sg47
I403
sg48
I2156
sbag0
(g23
g2
Ntp4068
Rp4069
(dp4070
g27
(dp4071
g29
Vbe
p4072
sg31
VO
p4073
sg33
VVB
p4074
sg35
I14
ssg10
I404
sg36
g4
sg37
(dp4075
sg39
(dp4076
sg41
I2157
sg42
g21
sg43
g21
sg44
I404
sg45
Vbe
p4077
sg47
I404
sg48
I2159
sbag0
(g23
g2
Ntp4078
Rp4079
(dp4080
g27
(dp4081
g29
Va
p4082
sg31
VO
p4083
sg33
VDT
p4084
sg35
I15
ssg10
I405
sg36
g4
sg37
(dp4085
sg39
(dp4086
sg41
I2160
sg42
g21
sg43
g21
sg44
I405
sg45
Va
p4087
sg47
I405
sg48
I2161
sbag0
(g23
g2
Ntp4088
Rp4089
(dp4090
g27
(dp4091
g29
Vsign
p4092
sg31
VO
p4093
sg33
VNN
p4094
sg35
I16
ssg10
I406
sg36
g4
sg37
(dp4095
sg39
(dp4096
sg41
I2162
sg42
g21
sg43
g21
sg44
I406
sg45
Vsign
p4097
sg47
I406
sg48
I2166
sbag0
(g23
g2
Ntp4098
Rp4099
(dp4100
g27
(dp4101
g29
Vthat
p4102
sg31
VO
p4103
sg33
VIN
p4104
sg35
I17
ssg10
I407
sg36
g4
sg37
(dp4105
sg39
(dp4106
sg41
I2167
sg42
g21
sg43
g21
sg44
I407
sg45
Vthat
p4107
sg47
I407
sg48
I2171
sbag0
(g23
g2
Ntp4108
Rp4109
(dp4110
g27
(dp4111
g29
Villegal
p4112
sg31
VO
p4113
sg33
VJJ
p4114
sg35
I18
ssg10
I408
sg36
g4
sg37
(dp4115
sg39
(dp4116
sg41
I2172
sg42
g21
sg43
g21
sg44
I408
sg45
Villegal
p4117
sg47
I408
sg48
I2179
sbag0
(g23
g2
Ntp4118
Rp4119
(dp4120
g27
(dp4121
g29
Vfile-sharing
p4122
sg31
VO
p4123
sg33
VNN
p4124
sg35
I19
ssg10
I409
sg36
g4
sg37
(dp4125
sg39
(dp4126
sg41
I2180
sg42
g21
sg43
g21
sg44
I409
sg45
Vfile-sharing
p4127
sg47
I409
sg48
I2192
sbag0
(g23
g2
Ntp4128
Rp4129
(dp4130
g27
(dp4131
g29
Vwill
p4132
sg31
VO
p4133
sg33
VMD
p4134
sg35
I20
ssg10
I410
sg36
g4
sg37
(dp4135
sg39
(dp4136
sg41
I2193
sg42
g21
sg43
g21
sg44
I410
sg45
Vwill
p4137
sg47
I410
sg48
I2197
sbag0
(g23
g2
Ntp4138
Rp4139
(dp4140
g27
(dp4141
g29
Vbe
p4142
sg31
VO
p4143
sg33
VVB
p4144
sg35
I21
ssg10
I411
sg36
g4
sg37
(dp4145
sg39
(dp4146
sg41
I2198
sg42
g21
sg43
g21
sg44
I411
sg45
Vbe
p4147
sg47
I411
sg48
I2200
sbag0
(g23
g2
Ntp4148
Rp4149
(dp4150
g27
(dp4151
g29
Vexcuse
p4152
sg31
VO
p4153
sg33
VVBN
p4154
sg35
I22
ssg10
I412
sg36
g4
sg37
(dp4155
sg39
(dp4156
sg41
I2201
sg42
g21
sg43
g21
sg44
I412
sg45
Vexcused
p4157
sg47
I412
sg48
I2208
sbag0
(g23
g2
Ntp4158
Rp4159
(dp4160
g27
(dp4161
g29
Vfrom
p4162
sg31
VO
p4163
sg33
VIN
p4164
sg35
I23
ssg10
I413
sg36
g4
sg37
(dp4165
sg39
(dp4166
sg41
I2209
sg42
g21
sg43
g21
sg44
I413
sg45
Vfrom
p4167
sg47
I413
sg48
I2213
sbag0
(g23
g2
Ntp4168
Rp4169
(dp4170
g27
(dp4171
g29
VSweden
p4172
sg31
VLOCATION
p4173
sg33
VNNP
p4174
sg35
I24
ssg10
I414
sg36
g4
sg37
(dp4175
sg39
(dp4176
sg41
I2214
sg42
g21
sg43
g21
sg44
I414
sg45
VSweden
p4177
sg47
I414
sg48
I2220
sbag0
(g23
g2
Ntp4178
Rp4179
(dp4180
g27
(dp4181
g29
V's
p4182
sg31
VO
p4183
sg33
VPOS
p4184
sg35
I25
ssg10
I415
sg36
g4
sg37
(dp4185
sg39
(dp4186
sg41
I2220
sg42
g21
sg43
g21
sg44
I415
sg45
V's
p4187
sg47
I415
sg48
I2222
sbag0
(g23
g2
Ntp4188
Rp4189
(dp4190
g27
(dp4191
g29
Vzero-tolerance
p4192
sg31
VO
p4193
sg33
VNN
p4194
sg35
I26
ssg10
I416
sg36
g4
sg37
(dp4195
sg39
(dp4196
sg41
I2223
sg42
g21
sg43
g21
sg44
I416
sg45
Vzero-tolerance
p4197
sg47
I416
sg48
I2237
sbag0
(g23
g2
Ntp4198
Rp4199
(dp4200
g27
(dp4201
g29
Vapproach
p4202
sg31
VO
p4203
sg33
VNN
p4204
sg35
I27
ssg10
I417
sg36
g4
sg37
(dp4205
sg39
(dp4206
sg41
I2238
sg42
g21
sg43
g21
sg44
I417
sg45
Vapproach
p4207
sg47
I417
sg48
I2246
sbag0
(g23
g2
Ntp4208
Rp4209
(dp4210
g27
(dp4211
g29
Vto
p4212
sg31
VO
p4213
sg33
VTO
p4214
sg35
I28
ssg10
I418
sg36
g4
sg37
(dp4215
sg39
(dp4216
sg41
I2247
sg42
g21
sg43
g21
sg44
I418
sg45
Vto
p4217
sg47
I418
sg48
I2249
sbag0
(g23
g2
Ntp4218
Rp4219
(dp4220
g27
(dp4221
g29
Vthe
p4222
sg31
VO
p4223
sg33
VDT
p4224
sg35
I29
ssg10
I419
sg36
g4
sg37
(dp4225
sg39
(dp4226
sg41
I2250
sg42
g21
sg43
g21
sg44
I419
sg45
Vthe
p4227
sg47
I419
sg48
I2253
sbag0
(g23
g2
Ntp4228
Rp4229
(dp4230
g27
(dp4231
g29
Vmatter
p4232
sg31
VO
p4233
sg33
VNN
p4234
sg35
I30
ssg10
I420
sg36
g4
sg37
(dp4235
sg39
(dp4236
sg41
I2254
sg42
g21
sg43
g21
sg44
I420
sg45
Vmatter
p4237
sg47
I420
sg48
I2260
sbag0
(g23
g2
Ntp4238
Rp4239
(dp4240
g27
(dp4241
g29
V-lsb-
p4242
sg31
VO
p4243
sg33
V-LRB-
p4244
sg35
I31
ssg10
I421
sg36
g4
sg37
(dp4245
sg39
(dp4246
sg41
I2261
sg42
g21
sg43
g21
sg44
I421
sg45
V[
p4247
sg47
I421
sg48
I2262
sbag0
(g23
g2
Ntp4248
Rp4249
(dp4250
g27
(dp4251
g29
Vref
p4252
sg31
VO
p4253
sg33
VNN
p4254
sg35
I32
ssg10
I422
sg36
g4
sg37
(dp4255
sg39
(dp4256
sg41
I2262
sg42
g21
sg43
g21
sg44
I422
sg45
VREF
p4257
sg47
I422
sg48
I2265
sbag0
(g23
g2
Ntp4258
Rp4259
(dp4260
g27
(dp4261
g29
V-rsb-
p4262
sg31
VO
p4263
sg33
V-RRB-
p4264
sg35
I33
ssg10
I423
sg36
g4
sg37
(dp4265
sg39
(dp4266
sg41
I2265
sg42
g21
sg43
g21
sg44
I423
sg45
V]
p4267
sg47
I423
sg48
I2266
sbag0
(g23
g2
Ntp4268
Rp4269
(dp4270
g27
(dp4271
g29
V.
p4272
sg31
VO
p4273
sg33
V.
p4274
sg35
I34
ssg10
I424
sg36
g4
sg37
(dp4275
sg39
(dp4276
sg41
I2266
sg42
g21
sg43
g21
sg44
I424
sg45
V.
p4277
sg47
I424
sg48
I2267
sbasS'Document'
p4278
(lp4279
g4
asS'doc-features'
p4280
g14
sS'Sentence'
p4281
(lp4282
g0
(g23
g2
Ntp4283
Rp4284
(dp4285
g27
(dp4286
S'dep-parse'
p4287
S'not implemented!'
p4288
sg35
I0
sS'constituency-parse'
p4289
V(ROOT\u000a  (NP (. .)))
p4290
ssg10
I0
sg36
g4
sg37
(dp4291
sg39
(dp4292
S'tokens'
p4293
(lp4294
g25
assg41
I0
sg42
g4281
sg43
g4281
sg44
I0
sg45
V.
p4295
sg47
I1
sg48
I1
sbag0
(g23
g2
Ntp4296
Rp4297
(dp4298
g27
(dp4299
g4287
g4288
sg35
I1
sg4289
V(ROOT\u000a  (S\u000a    (NP\u000a      (NP (DT The) (NNP Missionary) (NNP Church))\u000a      (PP (IN of)\u000a        (NP\u000a          (NP (NNP Kopimism))\u000a          (PRN (-LRB- -LRB-)\u000a            (PP (IN in)\u000a              (NP (NNP Swedish) (NNP Missionerande) (NNP Kopimistsamfundet)))\u000a            (-RRB- -RRB-))))\u000a      (, ,)\u000a      (VP (VBN founded)\u000a        (PP (IN by)\u000a          (NP (JJ 19-year-old) (NN philosophy) (NN student) (NNP Isak) (NNP Gerson))))\u000a      (, ,))\u000a    (VP (-LRB- -LSB-)\u000a      (SBAR\u000a        (S\u000a          (NP (NNP REF) (-RRB- -RSB-))\u000a          (VP (VBZ is)\u000a            (NP\u000a              (NP (DT a) (NN congregation))\u000a              (PP (IN of)\u000a                (NP (NN file) (NNS sharers)))\u000a              (SBAR\u000a                (WHNP (WP who))\u000a                (S\u000a                  (VP (VBP claim)\u000a                    (SBAR (IN that)\u000a                      (S\u000a                        (S\u000a                          (VP (VBG copying)\u000a                            (NP (NN information))))\u000a                        (VP (VBZ is)\u000a                          (NP\u000a                            (NP (DT a) (JJ sacred) (NN virtue))\u000a                            (PP (-LRB- -LSB-)\u000a                              (NP (NN REF) (-RRB- -RSB-)))))))))))))))\u000a    (. .)))
p4300
ssg10
I1
sg36
g4
sg37
(dp4301
sg39
(dp4302
g4293
(lp4303
g50
ag60
ag70
ag80
ag90
ag100
ag110
ag120
ag130
ag140
ag150
ag160
ag170
ag180
ag190
ag200
ag210
ag220
ag230
ag240
ag250
ag260
ag270
ag280
ag290
ag300
ag310
ag320
ag330
ag340
ag350
ag360
ag370
ag380
ag390
ag400
ag410
ag420
ag430
ag440
ag450
ag460
assg41
I4
sg42
g4281
sg43
g4281
sg44
I1
sg45
V \u000a\u000aThe Missionary Church of Kopimism (in Swedish Missionerande Kopimistsamfundet), founded by 19-year-old philosophy student Isak Gerson,[REF] is a congregation of file sharers who claim that copying information is a sacred virtue [REF].
p4304
sg47
I43
sg48
I238
sbag0
(g23
g2
Ntp4305
Rp4306
(dp4307
g27
(dp4308
g4287
g4288
sg35
I2
sg4289
V(ROOT\u000a  (S\u000a    (NP\u000a      (NP (DT The) (NNP Church))\u000a      (, ,)\u000a      (VP (VBN based)\u000a        (PP (IN in)\u000a          (NP (NNP Sweden))))\u000a      (, ,))\u000a    (VP (VBZ has)\u000a      (VP (VBN been)\u000a        (ADVP (RB officially))\u000a        (VP (VBN recognized)\u000a          (PP (IN by)\u000a            (NP\u000a              (NP (DT the) (NNP Swedish) (NNP Legal))\u000a              (, ,)\u000a              (NP (NNP Financial))\u000a              (CC and)\u000a              (NP (NNP Administrative) (NNP Services) (NNP Agency))\u000a              (PRN (-LRB- -LRB-) (`` ``)\u000a                (NP (NN kammarkollegiet))\u000a                ('' '') (-RRB- -RRB-))))\u000a          (PP (IN as)\u000a            (NP (DT a) (JJ religious) (NN community)))\u000a          (, ,)\u000a          (PP (IN after)\u000a            (NP\u000a              (NP (CD three) (NN application) (NNS attempts))\u000a              (PP (-LRB- -LSB-)\u000a                (NP (NN REF) (-RRB- -RSB-))))))))\u000a    (. .)))
p4309
ssg10
I2
sg36
g4
sg37
(dp4310
sg39
(dp4311
g4293
(lp4312
g470
ag480
ag490
ag500
ag510
ag520
ag530
ag540
ag550
ag560
ag570
ag580
ag590
ag600
ag610
ag620
ag630
ag640
ag650
ag660
ag670
ag680
ag690
ag700
ag710
ag719
ag729
ag739
ag749
ag759
ag769
ag779
ag789
ag799
ag809
ag819
ag829
ag839
ag849
assg41
I239
sg42
g4281
sg43
g4281
sg44
I43
sg45
V The Church, based in Sweden, has been officially recognized by the Swedish Legal, Financial and Administrative Services Agency ("kammarkollegiet") as a religious community, after three application attempts [REF].
p4313
sg47
I82
sg48
I451
sbag0
(g23
g2
Ntp4314
Rp4315
(dp4316
g27
(dp4317
g4287
g4288
sg35
I3
sg4289
V(ROOT\u000a  (S\u000a    (SBAR (IN Although)\u000a      (S\u000a        (NP (PRP it))\u000a        (VP (VBZ has)\u000a          (VP (VBN been)\u000a            (VP (VBN reported)\u000a              (SBAR (IN that)\u000a                (S\u000a                  (NP (DT The) (NNP Pirate) (NNP Bay))\u000a                  (VP (VBZ is)\u000a                    (ADVP (RB now))\u000a                    (VP (VBG operating)\u000a                      (PP (IN under)\u000a                        (NP\u000a                          (NP (DT the) (NNS auspices))\u000a                          (PP (IN of)\u000a                            (NP (DT the) (NNP Church))))))))))))))\u000a    (, ,)\u000a    (NP (NNP Gerson) (PRP himself))\u000a    (VP (VBD denied)\u000a      (NP\u000a        (NP (DT any) (NN connection) (RB whatsoever))\u000a        (PP (IN between)\u000a          (NP (DT the) (CD two) (NNS organizations))))\u000a      (PP (-LRB- -LSB-)\u000a        (NP (NN REF) (-RRB- -RSB-))))\u000a    (. .)))
p4318
ssg10
I3
sg36
g4
sg37
(dp4319
sg39
(dp4320
g4293
(lp4321
g859
ag869
ag879
ag889
ag899
ag909
ag919
ag929
ag939
ag949
ag959
ag969
ag979
ag989
ag999
ag1009
ag1019
ag1029
ag1039
ag1049
ag1059
ag1069
ag1079
ag1089
ag1099
ag1109
ag1119
ag1129
ag1139
ag1149
ag1159
ag1169
ag1179
assg41
I454
sg42
g4281
sg43
g4281
sg44
I82
sg45
V \u000a\u000aAlthough it has been reported that The Pirate Bay is now operating under the auspices of the Church, Gerson himself denied any connection whatsoever between the two organizations [REF].
p4322
sg47
I115
sg48
I639
sbag0
(g23
g2
Ntp4323
Rp4324
(dp4325
g27
(dp4326
g4287
g4288
sg35
I4
sg4289
V(ROOT\u000a  (S\u000a    (S\u000a      (NP\u000a        (NP (DT The) (NNS followers))\u000a        (PP (IN of)\u000a          (NP (DT the) (NN religion))))\u000a      (VP (VBP are)\u000a        (VP (VBN called)\u000a          (NP (NNP Kopimists))\u000a          (PP (IN from)\u000a            (NP\u000a              (NP\u000a                (NP (NN copy))\u000a                (NP (PRP me)))\u000a              (, ,)\u000a              (NP\u000a                (NP (DT the) (NN idea))\u000a                (PP (IN of)\u000a                  (NP\u000a                    (SBAR\u000a                      (WHNP (WDT which))\u000a                      (S\u000a                        (VP (VBD was)\u000a                          (VP (VBN inspired)\u000a                            (PP (IN by)\u000a                              (NP\u000a                                (NP (DT a) (NN phrase))\u000a                                (PP (IN in)\u000a                                  (NP (DT the) (NNP Bible) (-LRB- -LSB-) (NNP REF) (-RRB- -RSB-)))))))))\u000a                    (: :)\u000a                    (NP (DT A) (`` ``) (NNP Kopimist) ('' ''))))))))))\u000a    (CC or)\u000a    (S (`` ``)\u000a      (NP (NNP Kopimist) (JJ intellectual))\u000a      ('' '')\u000a      (VP (VBZ is)\u000a        (NP\u000a          (NP (DT a) (NN person))\u000a          (SBAR\u000a            (WHNP (WP who))\u000a            (S\u000a              (VP\u000a                (VP (VBZ has)\u000a                  (NP (DT the) (JJ philosophical) (NN belief))\u000a                  (SBAR (IN that)\u000a                    (S\u000a                      (NP (DT all) (NN information))\u000a                      (VP (MD should)\u000a                        (VP (VB be)\u000a                          (VP\u000a                            (ADVP (RB freely))\u000a                            (VBN distributed)))))))\u000a                (CC and)\u000a                (VP (JJ unrestricted))))))))\u000a    (. .)))
p4327
ssg10
I4
sg36
g4
sg37
(dp4328
sg39
(dp4329
g4293
(lp4330
g1189
ag1199
ag1209
ag1219
ag1229
ag1239
ag1249
ag1259
ag1269
ag1279
ag1289
ag1299
ag1309
ag1319
ag1329
ag1339
ag1349
ag1359
ag1369
ag1379
ag1389
ag1399
ag1409
ag1419
ag1429
ag1439
ag1449
ag1459
ag1469
ag1479
ag1488
ag1498
ag1507
ag1517
ag1526
ag1536
ag1546
ag1555
ag1565
ag1575
ag1585
ag1595
ag1605
ag1615
ag1625
ag1635
ag1645
ag1655
ag1665
ag1675
ag1685
ag1695
ag1705
ag1715
ag1725
assg41
I641
sg42
g4281
sg43
g4281
sg44
I115
sg45
V\u000a\u000aThe followers of the religion are called Kopimists from copy me, the idea of which was inspired by a phrase in the Bible[REF]:\u000a\u000aA "Kopimist" or "Kopimist intellectual" is a person who has the philosophical belief that all information should be freely distributed and unrestricted.
p4331
sg47
I170
sg48
I921
sbag0
(g23
g2
Ntp4332
Rp4333
(dp4334
g27
(dp4335
g4287
g4288
sg35
I5
sg4289
V(ROOT\u000a  (S\u000a    (NP (DT This) (NN philosophy))\u000a    (VP\u000a      (VP (VBZ opposes)\u000a        (NP\u000a          (NP (DT the) (NN privatization))\u000a          (PP (IN of)\u000a            (NP\u000a              (NP (NN knowledge))\u000a              (PP (IN in)\u000a                (NP (DT all) (PRP$ its) (NNS forms)))\u000a              (, ,)\u000a              (PP (JJ such) (IN as)\u000a                (NP (NN copyright)))))))\u000a      (, ,)\u000a      (CC and)\u000a      (VP (VBZ encourages)\u000a        (NP\u000a          (NP (NN piracy))\u000a          (PP (IN of)\u000a            (NP\u000a              (NP (DT all) (NNS types))\u000a              (PP (IN of)\u000a                (NP\u000a                  (NP (NNS media))\u000a                  (PP (VBG including)\u000a                    (NP\u000a                      (NP (NN music))\u000a                      (, ,)\u000a                      (NP (NNS movies))\u000a                      (, ,)\u000a                      (NP (NN TV) (NNS shows))\u000a                      (, ,)\u000a                      (CC and)\u000a                      (NP (NN software) (-LRB- -LSB-) (NN REF) (-RRB- -RSB-)))))))))))\u000a    (. .)))
p4336
ssg10
I5
sg36
g4
sg37
(dp4337
sg39
(dp4338
g4293
(lp4339
g1735
ag1745
ag1755
ag1765
ag1775
ag1785
ag1795
ag1805
ag1815
ag1825
ag1835
ag1845
ag1855
ag1865
ag1875
ag1885
ag1895
ag1905
ag1915
ag1925
ag1935
ag1945
ag1955
ag1965
ag1975
ag1985
ag1995
ag2005
ag2015
ag2025
ag2035
ag2045
ag2055
ag2065
ag2075
ag2085
ag2095
ag2105
assg41
I922
sg42
g4281
sg43
g4281
sg44
I170
sg45
V This philosophy opposes the privatization of knowledge in all its forms, such as copyright, and encourages piracy of all types of media including music, movies, TV shows, and software [REF].
p4340
sg47
I208
sg48
I1112
sbag0
(g23
g2
Ntp4341
Rp4342
(dp4343
g27
(dp4344
g4287
g4288
sg35
I6
sg4289
V(ROOT\u000a  (S\u000a    (PP (VBG According)\u000a      (PP (TO to)\u000a        (NP (DT the) (NN church))))\u000a    (, ,) (`` ``)\u000a    (PP (IN In)\u000a      (NP (PRP$ our) (NN belief)))\u000a    (, ,)\u000a    (NP (NN communication))\u000a    (VP (VBZ is)\u000a      (ADJP (JJ sacred)))\u000a    (. .) ('' '')))
p4345
ssg10
I6
sg36
g4
sg37
(dp4346
sg39
(dp4347
g4293
(lp4348
g2115
ag2125
ag2135
ag2145
ag2155
ag2165
ag2174
ag2184
ag2194
ag2204
ag2214
ag2224
ag2234
ag2244
ag2254
assg41
I1115
sg42
g4281
sg43
g4281
sg44
I208
sg45
V \u000a\u000aAccording to the church, "In our belief, communication is sacred."
p4349
sg47
I223
sg48
I1181
sbag0
(g23
g2
Ntp4350
Rp4351
(dp4352
g27
(dp4353
g4287
g4288
sg35
I7
sg4289
V(ROOT\u000a  (S\u000a    (NP\u000a      (NP (-LRB- -LSB-) (NN REF))\u000a      (PP (-RRB- -RSB-)\u000a        (NP\u000a          (NP (DT No) (NN belief))\u000a          (PP (IN in)\u000a            (NP\u000a              (NP (NNS gods))\u000a              (CC or)\u000a              (NP (JJ supernatural) (NNS phenomena)))))))\u000a    (VP (VBZ is)\u000a      (VP (VBN mentioned)\u000a        (PP (IN on)\u000a          (NP (PRP$ their) (NN web) (NN site)))))\u000a    (. .)))
p4354
ssg10
I7
sg36
g4
sg37
(dp4355
sg39
(dp4356
g4293
(lp4357
g2263
ag2273
ag2283
ag2293
ag2303
ag2313
ag2323
ag2333
ag2343
ag2353
ag2363
ag2373
ag2383
ag2393
ag2403
ag2413
ag2423
assg41
I1181
sg42
g4281
sg43
g4281
sg44
I223
sg45
V[REF] No belief in gods or supernatural phenomena is mentioned on their web site.
p4358
sg47
I240
sg48
I1262
sbag0
(g23
g2
Ntp4359
Rp4360
(dp4361
g27
(dp4362
g4287
g4288
sg35
I8
sg4289
V(ROOT\u000a  (S\u000a    (NP\u000a      (NP (NN CTRL+C)\u000a        (CC and)\u000a        (NN CTRL+V))\u000a      (, ,)\u000a      (NP\u000a        (NP\u000a          (NP (DT the) (NN computer) (NN shortcut) (NNS keys))\u000a          (PP (IN for) (`` ``)\u000a            (S\u000a              (VP (VB Copy)))\u000a            ('' '')))\u000a        (CC and)\u000a        (NP (`` ``) (NNP Paste)))\u000a      (, ,) ('' ''))\u000a    (VP (VBP are)\u000a      (VP (VBN considered)\u000a        (NP (JJ sacred) (NNS symbols))))\u000a    (. .)))
p4363
ssg10
I8
sg36
g4
sg37
(dp4364
sg39
(dp4365
g4293
(lp4366
g2433
ag2443
ag2453
ag2463
ag2473
ag2483
ag2493
ag2503
ag2513
ag2523
ag2532
ag2542
ag2551
ag2561
ag2570
ag2580
ag2590
ag2599
ag2609
ag2619
ag2629
ag2639
assg41
I1263
sg42
g4281
sg43
g4281
sg44
I240
sg45
V CTRL+C and CTRL+V, the computer shortcut keys for "Copy" and "Paste," are considered sacred symbols.
p4367
sg47
I262
sg48
I1363
sbag0
(g23
g2
Ntp4368
Rp4369
(dp4370
g27
(dp4371
g4287
g4288
sg35
I9
sg4289
V(ROOT\u000a  (S\u000a    (S\u000a      (NP (NNP Kopimism))\u000a      (VP (VBD made)\u000a        (NP (JJ simple) (-LRB- -LSB-) (NN REF) (-RRB- -RSB-))))\u000a    (: :)\u000a    (S\u000a      (NP\u000a        (NP (DT All) (NN knowledge))\u000a        (PP (TO to)\u000a          (NP\u000a            (NP (DT all))\u000a            (SBAR\u000a              (S\u000a                (NP\u000a                  (NP (DT The) (NN search))\u000a                  (PP (IN for)\u000a                    (NP (NN knowledge))))\u000a                (VP (VBZ is)\u000a                  (NP\u000a                    (NP (JJ sacred))\u000a                    (SBAR\u000a                      (S\u000a                        (NP\u000a                          (NP (DT The) (NN circulation))\u000a                          (PP (IN of)\u000a                            (NP (NN knowledge))))\u000a                        (VP (VBZ is)\u000a                          (NP\u000a                            (NP (JJ sacred) (DT The) (NN act))\u000a                            (PP (IN of)\u000a                              (NP (NN copying))))))))))))))\u000a      (VP (VBZ is)\u000a        (ADJP (JJ sacred))))\u000a    (. .)))
p4372
ssg10
I9
sg36
g4
sg37
(dp4373
sg39
(dp4374
g4293
(lp4375
g2649
ag2659
ag2669
ag2679
ag2689
ag2699
ag2709
ag2719
ag2729
ag2739
ag2749
ag2759
ag2769
ag2779
ag2789
ag2799
ag2809
ag2819
ag2829
ag2839
ag2849
ag2859
ag2869
ag2879
ag2889
ag2899
ag2909
ag2919
ag2929
ag2939
assg41
I1366
sg42
g4281
sg43
g4281
sg44
I262
sg45
V \u000a\u000aKopimism made simple[REF]:\u000a\u000aAll knowledge to all \u000aThe search for knowledge is sacred \u000aThe circulation of knowledge is sacred \u000aThe act of copying is sacred.
p4376
sg47
I292
sg48
I1521
sbag0
(g23
g2
Ntp4377
Rp4378
(dp4379
g27
(dp4380
g4287
g4288
sg35
I10
sg4289
V(ROOT\u000a  (S\u000a    (PP (VBG According)\u000a      (PP (TO to)\u000a        (NP\u000a          (NP (DT the) (NNP Kopimist) (NN constitution))\u000a          (PP (-LRB- -LSB-)\u000a            (NP (NN REF) (-RRB- -RSB-))))))\u000a    (: :)\u000a    (NP\u000a      (NP (NNP Copying))\u000a      (PP (IN of)\u000a        (NP (NN information))))\u000a    (VP (VBZ is)\u000a      (ADJP (RB ethically) (JJ right)))\u000a    (. .)))
p4381
ssg10
I10
sg36
g4
sg37
(dp4382
sg39
(dp4383
g4293
(lp4384
g2949
ag2959
ag2969
ag2979
ag2989
ag2999
ag3009
ag3019
ag3029
ag3039
ag3049
ag3059
ag3069
ag3079
ag3089
ag3099
assg41
I1524
sg42
g4281
sg43
g4281
sg44
I292
sg45
V \u000a\u000aAccording to the Kopimist constitution[REF]:\u000a\u000aCopying of information is ethically right.
p4385
sg47
I308
sg48
I1612
sbag0
(g23
g2
Ntp4386
Rp4387
(dp4388
g27
(dp4389
g4287
g4288
sg35
I11
sg4289
V(ROOT\u000a  (S\u000a    (NP\u000a      (NP (NN Dissemination))\u000a      (PP (IN of)\u000a        (NP (NN information))))\u000a    (VP (VBZ is)\u000a      (ADJP (RB ethically) (JJ right)))\u000a    (. .)))
p4390
ssg10
I11
sg36
g4
sg37
(dp4391
sg39
(dp4392
g4293
(lp4393
g3109
ag3119
ag3129
ag3139
ag3149
ag3159
ag3169
assg41
I1614
sg42
g4281
sg43
g4281
sg44
I308
sg45
V \u000aDissemination of information is ethically right.
p4394
sg47
I315
sg48
I1662
sbag0
(g23
g2
Ntp4395
Rp4396
(dp4397
g27
(dp4398
g4287
g4288
sg35
I12
sg4289
V(ROOT\u000a  (S\u000a    (NP (NN Copymixing))\u000a    (VP (VBZ is)\u000a      (NP\u000a        (NP\u000a          (NP (DT a) (JJ sacred) (NN kind))\u000a          (PP (IN of)\u000a            (NP (NN copying))))\u000a        (, ,)\u000a        (NP\u000a          (ADJP (JJR moreso)\u000a            (PP (IN than)\u000a              (NP\u000a                (NP (DT the) (JJ perfect) (, ,) (JJ digital) (NN copying))\u000a                (, ,)\u000a                (SBAR (IN because)\u000a                  (S\u000a                    (NP (PRP it))\u000a                    (VP (VBZ expands)\u000a                      (CC and)\u000a                      (VBZ enhances)\u000a                      (NP\u000a                        (NP (DT the) (VBG existing) (NN wealth))\u000a                        (PP (IN of)\u000a                          (NP (NN information))))))))))\u000a          (NNP Copying))\u000a        (CC or)\u000a        (NP\u000a          (NP (VBG remixing) (NN information))\u000a          (VP (VBN communicated)\u000a            (PP (IN by)\u000a              (NP\u000a                (NP (DT another) (NN person))\u000a                (SBAR\u000a                  (S\u000a                    (VP (VBZ is)\u000a                      (VP (VBN seen)\u000a                        (PP (IN as)\u000a                          (NP\u000a                            (NP\u000a                              (NP (DT an) (NN act))\u000a                              (PP (IN of)\u000a                                (NP (NN respect))))\u000a                            (CC and)\u000a                            (NP\u000a                              (NP (DT a) (JJ strong) (NN expression))\u000a                              (PP (IN of)\u000a                                (NP (NN acceptance)\u000a                                  (CC and)\u000a                                  (JJ Kopimistic) (NN faith))))))))))))))))\u000a    (. .)))
p4399
ssg10
I12
sg36
g4
sg37
(dp4400
sg39
(dp4401
g4293
(lp4402
g3179
ag3189
ag3199
ag3209
ag3219
ag3229
ag3239
ag3249
ag3259
ag3269
ag3279
ag3289
ag3299
ag3309
ag3319
ag3329
ag3339
ag3349
ag3359
ag3369
ag3379
ag3389
ag3399
ag3409
ag3419
ag3429
ag3439
ag3449
ag3459
ag3469
ag3479
ag3489
ag3499
ag3509
ag3519
ag3529
ag3539
ag3549
ag3559
ag3569
ag3579
ag3589
ag3599
ag3609
ag3619
ag3629
ag3639
ag3649
ag3659
ag3669
ag3679
assg41
I1664
sg42
g4281
sg43
g4281
sg44
I315
sg45
V \u000aCopymixing is a sacred kind of copying, moreso than the perfect, digital copying, because it expands and enhances the existing wealth of information \u000aCopying or remixing information communicated by another person is seen as an act of respect and a strong expression of acceptance and Kopimistic faith.
p4403
sg47
I366
sg48
I1965
sbag0
(g23
g2
Ntp4404
Rp4405
(dp4406
g27
(dp4407
g4287
g4288
sg35
I13
sg4289
V(ROOT\u000a  (S\u000a    (NP (DT The) (NN Internet))\u000a    (VP (VBZ is)\u000a      (ADJP (JJ holy)))\u000a    (. .)))
p4408
ssg10
I13
sg36
g4
sg37
(dp4409
sg39
(dp4410
g4293
(lp4411
g3689
ag3699
ag3709
ag3719
ag3729
assg41
I1967
sg42
g4281
sg43
g4281
sg44
I366
sg45
V \u000aThe Internet is holy.
p4412
sg47
I371
sg48
I1988
sbag0
(g23
g2
Ntp4413
Rp4414
(dp4415
g27
(dp4416
g4287
g4288
sg35
I14
sg4289
V(ROOT\u000a  (S\u000a    (NP (NNP Code))\u000a    (VP (VBZ is)\u000a      (NP (NN law)))\u000a    (. .)))
p4417
ssg10
I14
sg36
g4
sg37
(dp4418
sg39
(dp4419
g4293
(lp4420
g3739
ag3749
ag3759
ag3769
assg41
I1990
sg42
g4281
sg43
g4281
sg44
I371
sg45
V \u000aCode is law.
p4421
sg47
I375
sg48
I2002
sbag0
(g23
g2
Ntp4422
Rp4423
(dp4424
g27
(dp4425
g4287
g4288
sg35
I15
sg4289
V(ROOT\u000a  (S\u000a    (PP (IN On)\u000a      (NP (NNP January) (CD 5) (, ,) (CD 2012)))\u000a    (, ,)\u000a    (NP (NNP Kopimism))\u000a    (VP (VBD was)\u000a      (VP (VBN accepted)\u000a        (PP (IN by)\u000a          (NP (NNP Sweden)))\u000a        (PP (IN as)\u000a          (NP (DT a) (JJ legitimate) (NN religion)))))\u000a    (. .)))
p4426
ssg10
I15
sg36
g4
sg37
(dp4427
sg39
(dp4428
g4293
(lp4429
g3779
ag3789
ag3799
ag3809
ag3819
ag3829
ag3839
ag3849
ag3859
ag3869
ag3879
ag3889
ag3899
ag3909
ag3919
ag3929
assg41
I2005
sg42
g4281
sg43
g4281
sg44
I375
sg45
V \u000a\u000aOn January 5, 2012, Kopimism was accepted by Sweden as a legitimate religion.
p4430
sg47
I391
sg48
I2082
sbag0
(g23
g2
Ntp4431
Rp4432
(dp4433
g27
(dp4434
g4287
g4288
sg35
I16
sg4289
V(ROOT\u000a  (S\u000a    (NP\u000a      (NP\u000a        (NP (DT The) (NN religion) (POS 's))\u000a        (NN association))\u000a      (PP (IN with)\u000a        (NP (JJ illegal) (NN file) (NN sharing))))\u000a    (VP (VBZ has)\u000a      (VP (VBN been)\u000a        (VP (VBD said)\u000a          (S (RB not)\u000a            (VP (TO to)\u000a              (VP (VB be)\u000a                (NP (DT a) (NN sign))\u000a                (SBAR (IN that)\u000a                  (S\u000a                    (NP (JJ illegal) (NN file-sharing))\u000a                    (VP (MD will)\u000a                      (VP (VB be)\u000a                        (VP (VBN excused)\u000a                          (PP (IN from)\u000a                            (NP\u000a                              (NP (NNP Sweden) (POS 's))\u000a                              (NN zero-tolerance) (NN approach)))\u000a                          (PP (TO to)\u000a                            (NP\u000a                              (NP (DT the) (NN matter) (-LRB- -LSB-))\u000a                              (NN REF) (-RRB- -RSB-))))))))))))))\u000a    (. .)))
p4435
ssg10
I16
sg36
g4
sg37
(dp4436
sg39
(dp4437
g4293
(lp4438
g3939
ag3949
ag3959
ag3969
ag3979
ag3989
ag3999
ag4009
ag4019
ag4029
ag4039
ag4049
ag4059
ag4069
ag4079
ag4089
ag4099
ag4109
ag4119
ag4129
ag4139
ag4149
ag4159
ag4169
ag4179
ag4189
ag4199
ag4209
ag4219
ag4229
ag4239
ag4249
ag4259
ag4269
assg41
I2083
sg42
g4281
sg43
g4281
sg44
I391
sg45
V The religion's association with illegal file sharing has been said not to be a sign that illegal file-sharing will be excused from Sweden's zero-tolerance approach to the matter [REF].
p4439
sg47
I425
sg48
I2267
sbassg37
(dp4440
sg39
(dp4441
sg47
I-1
sg4293
g22
sg42
g4278
sg36
Nsg27
(dp4442
sg44
I0
sg45
V. \u000a\u000aThe Missionary Church of Kopimism (in Swedish Missionerande Kopimistsamfundet), founded by 19-year-old philosophy student Isak Gerson,[REF] is a congregation of file sharers who claim that copying information is a sacred virtue [REF]. The Church, based in Sweden, has been officially recognized by the Swedish Legal, Financial and Administrative Services Agency ("kammarkollegiet") as a religious community, after three application attempts [REF]. \u000a\u000aAlthough it has been reported that The Pirate Bay is now operating under the auspices of the Church, Gerson himself denied any connection whatsoever between the two organizations [REF].\u000a\u000aThe followers of the religion are called Kopimists from copy me, the idea of which was inspired by a phrase in the Bible[REF]:\u000a\u000aA "Kopimist" or "Kopimist intellectual" is a person who has the philosophical belief that all information should be freely distributed and unrestricted. This philosophy opposes the privatization of knowledge in all its forms, such as copyright, and encourages piracy of all types of media including music, movies, TV shows, and software [REF]. \u000a\u000aAccording to the church, "In our belief, communication is sacred."[REF] No belief in gods or supernatural phenomena is mentioned on their web site. CTRL+C and CTRL+V, the computer shortcut keys for "Copy" and "Paste," are considered sacred symbols. \u000a\u000aKopimism made simple[REF]:\u000a\u000aAll knowledge to all \u000aThe search for knowledge is sacred \u000aThe circulation of knowledge is sacred \u000aThe act of copying is sacred. \u000a\u000aAccording to the Kopimist constitution[REF]:\u000a\u000aCopying of information is ethically right. \u000aDissemination of information is ethically right. \u000aCopymixing is a sacred kind of copying, moreso than the perfect, digital copying, because it expands and enhances the existing wealth of information \u000aCopying or remixing information communicated by another person is seen as an act of respect and a strong expression of acceptance and Kopimistic faith. \u000aThe Internet is holy. \u000aCode is law. \u000a\u000aOn January 5, 2012, Kopimism was accepted by Sweden as a legitimate religion. The religion's association with illegal file sharing has been said not to be a sign that illegal file-sharing will be excused from Sweden's zero-tolerance approach to the matter [REF].
p4443
sS'sents'
p4444
g4282
sg43
g4278
sg41
I0
sS'id'
p4445
g16
sg48
I2267
sS'sentFeatures'
p4446
(lp4447
sb.