ccopy_reg
_reconstructor
p0
(cpygate.doc
Document
p1
c__builtin__
object
p2
Ntp3
Rp4
(dp5
S'src'
p6
V. \u000a\u000aThe relationship between multiculturalism and Islam is an important aspect in the overall debate on the soundness of the modern doctrine of multiculturalism.\u000a\u000aIn an article in the Hudson Review, Bruce Bawer, writes about what he sees as a developing distaste toward the idea and policies of multiculturalism in Europe, especially, as stated earlier, in the Netherlands, Denmark, United Kingdom, Norway, Sweden, Austria and Germany. The belief behind this backlash on multiculturalism is that it creates friction within society [REF].\u000a\u000aIncompatibility with secular society has been influenced by a stance against multiculturalism advocated by recent philosophers, closely linked to the heritage of New Philosophers [REF]. Fiery polemic on the subject by proponents like Pascal Bruckner,[REF] and Paul Cliteur has kindled international debate [REF]. \u000a\u000aOpinion polls among first and second generation muslim immigrants in western Europe show relatively little acceptance of secular ideas such as separation of religion and state, religious freedom, LGBT rights, gender equality and woman rights. In the UK, a Gallup poll showed that none of the 500 British Muslims polled believed homosexuality to be "morally acceptable", compared with 35% of the 1001 French Muslims polled [REF]. A 2007 survey of British muslims showed that 61 % believe homosexuality should be illegal, with up to 71 % of young British muslims holding this belief. 43% of polled muslims believed muslim woman should not be allowed to marry without the consent of her guardian, and 31% believed apostasy should be forbidden and punishable by death[REF] .\u000a\u000aIn Canada, the possible introduction of sharia family courts became a contentious issue, and received much media attention [REF]. London is far more segregated on religious grounds than by race. 25% of London's seven million residents live in religiously segregated neighbourhoods [REF].\u000a\u000aA survey showed that 18% in Britain think that "a large proportion of British Muslims feel no sense of loyalty to this country and are prepared to condone or even carry out acts of terrorism" [REF]. A TNS/Global poll showed that 79% in Britain would feel "uncomfortable living next to a Muslim" [REF]. There have also been notable tensions in Britain between established Muslim communities and newly-arrived Eastern European immigrants [REF]. A major attitude survey of teenagers in Flanders showed that 75% refuse to have a relationship with a black person, a Muslim, or an immigrant. Half want all immigration stopped, and 41% say they distrust anyone from another ethnic background [REF]. \u000a\u000aBritish cabinet ministers had been criticized in October 2006 for helping to "unleash a public anti-Muslim backlash" in the United Kingdom by blaming the Muslim community over issues of integration despite a study commissioned by the Home Office on white and Asian-Muslim youths demonstrating "White youths are more likely to believe they are superior to those from other races, and their attitudes are more of a barrier to integration than those of Muslims" [REF]. A Europe-wide survey by Gallup in May 2009 also found that the Muslim communities in Britain, Germany and France felt more patriotic towards those countries compared to the general populations as a whole,[REF][REF] while another survey found that Muslims supported the role of Christianity in British life more so than Christians themselves [REF].
p7
sS'string'
p8
S'. \n\nThe relationship between multiculturalism and Islam is an important aspect in the overall debate on the soundness of the modern doctrine of multiculturalism.\n\nIn an article in the Hudson Review, Bruce Bawer, writes about what he sees as a developing distaste toward the idea and policies of multiculturalism in Europe, especially, as stated earlier, in the Netherlands, Denmark, United Kingdom, Norway, Sweden, Austria and Germany. The belief behind this backlash on multiculturalism is that it creates friction within society [REF].\n\nIncompatibility with secular society has been influenced by a stance against multiculturalism advocated by recent philosophers, closely linked to the heritage of New Philosophers [REF]. Fiery polemic on the subject by proponents like Pascal Bruckner,[REF] and Paul Cliteur has kindled international debate [REF]. \n\nOpinion polls among first and second generation muslim immigrants in western Europe show relatively little acceptance of secular ideas such as separation of religion and state, religious freedom, LGBT rights, gender equality and woman rights. In the UK, a Gallup poll showed that none of the 500 British Muslims polled believed homosexuality to be "morally acceptable", compared with 35% of the 1001 French Muslims polled [REF]. A 2007 survey of British muslims showed that 61 % believe homosexuality should be illegal, with up to 71 % of young British muslims holding this belief. 43% of polled muslims believed muslim woman should not be allowed to marry without the consent of her guardian, and 31% believed apostasy should be forbidden and punishable by death[REF] .\n\nIn Canada, the possible introduction of sharia family courts became a contentious issue, and received much media attention [REF]. London is far more segregated on religious grounds than by race. 25% of London\'s seven million residents live in religiously segregated neighbourhoods [REF].\n\nA survey showed that 18% in Britain think that "a large proportion of British Muslims feel no sense of loyalty to this country and are prepared to condone or even carry out acts of terrorism" [REF]. A TNS/Global poll showed that 79% in Britain would feel "uncomfortable living next to a Muslim" [REF]. There have also been notable tensions in Britain between established Muslim communities and newly-arrived Eastern European immigrants [REF]. A major attitude survey of teenagers in Flanders showed that 75% refuse to have a relationship with a black person, a Muslim, or an immigrant. Half want all immigration stopped, and 41% say they distrust anyone from another ethnic background [REF]. \n\nBritish cabinet ministers had been criticized in October 2006 for helping to "unleash a public anti-Muslim backlash" in the United Kingdom by blaming the Muslim community over issues of integration despite a study commissioned by the Home Office on white and Asian-Muslim youths demonstrating "White youths are more likely to believe they are superior to those from other races, and their attitudes are more of a barrier to integration than those of Muslims" [REF]. A Europe-wide survey by Gallup in May 2009 also found that the Muslim communities in Britain, Germany and France felt more patriotic towards those countries compared to the general populations as a whole,[REF][REF] while another survey found that Muslims supported the role of Christianity in British life more so than Christians themselves [REF].'
p9
sS'idx'
p10
I0
sS'tknFeatures'
p11
(lp12
sS'docFeatures'
p13
(dp14
S'file_id'
p15
S'Multiculturalism_and_Islam'
p16
ssS'items'
p17
(dp18
S'raw'
p19
V. \u000a\u000aThe relationship between multiculturalism and Islam is an important aspect in the overall debate on the soundness of the modern doctrine of multiculturalism.\u000a\u000aIn an article in the Hudson Review, Bruce Bawer, writes about what he sees as a developing distaste toward the idea and policies of multiculturalism in Europe, especially, as stated earlier, in the Netherlands, Denmark, United Kingdom, Norway, Sweden, Austria and Germany. The belief behind this backlash on multiculturalism is that it creates friction within society [REF].\u000a\u000aIncompatibility with secular society has been influenced by a stance against multiculturalism advocated by recent philosophers, closely linked to the heritage of New Philosophers [REF]. Fiery polemic on the subject by proponents like Pascal Bruckner,[REF] and Paul Cliteur has kindled international debate [REF]. \u000a\u000aOpinion polls among first and second generation muslim immigrants in western Europe show relatively little acceptance of secular ideas such as separation of religion and state, religious freedom, LGBT rights, gender equality and woman rights. In the UK, a Gallup poll showed that none of the 500 British Muslims polled believed homosexuality to be "morally acceptable", compared with 35% of the 1001 French Muslims polled [REF]. A 2007 survey of British muslims showed that 61 % believe homosexuality should be illegal, with up to 71 % of young British muslims holding this belief. 43% of polled muslims believed muslim woman should not be allowed to marry without the consent of her guardian, and 31% believed apostasy should be forbidden and punishable by death[REF] .\u000a\u000aIn Canada, the possible introduction of sharia family courts became a contentious issue, and received much media attention [REF]. London is far more segregated on religious grounds than by race. 25% of London's seven million residents live in religiously segregated neighbourhoods [REF].\u000a\u000aA survey showed that 18% in Britain think that "a large proportion of British Muslims feel no sense of loyalty to this country and are prepared to condone or even carry out acts of terrorism" [REF]. A TNS/Global poll showed that 79% in Britain would feel "uncomfortable living next to a Muslim" [REF]. There have also been notable tensions in Britain between established Muslim communities and newly-arrived Eastern European immigrants [REF]. A major attitude survey of teenagers in Flanders showed that 75% refuse to have a relationship with a black person, a Muslim, or an immigrant. Half want all immigration stopped, and 41% say they distrust anyone from another ethnic background [REF]. \u000a\u000aBritish cabinet ministers had been criticized in October 2006 for helping to "unleash a public anti-Muslim backlash" in the United Kingdom by blaming the Muslim community over issues of integration despite a study commissioned by the Home Office on white and Asian-Muslim youths demonstrating "White youths are more likely to believe they are superior to those from other races, and their attitudes are more of a barrier to integration than those of Muslims" [REF]. A Europe-wide survey by Gallup in May 2009 also found that the Muslim communities in Britain, Germany and France felt more patriotic towards those countries compared to the general populations as a whole,[REF][REF] while another survey found that Muslims supported the role of Christianity in British life more so than Christians themselves [REF].
p20
sS'Token'
p21
(lp22
g0
(cpygate.annotation
Annotation
p23
g2
Ntp24
Rp25
(dp26
S'features'
p27
(dp28
S'lemma'
p29
V.
p30
sS'ner'
p31
VO
p32
sS'pos'
p33
V.
p34
sS'index'
p35
I1
ssg10
I0
sS'doc'
p36
g4
sS'labels'
p37
(dp38
sS'relations'
p39
(dp40
sS'cStart'
p41
I0
sS'subType'
p42
g21
sS'annoType'
p43
g21
sS'tStart'
p44
I0
sS'text'
p45
V.
p46
sS'tEnd'
p47
I0
sS'cEnd'
p48
I1
sbag0
(g23
g2
Ntp49
Rp50
(dp51
g27
(dp52
g29
Vthe
p53
sg31
VO
p54
sg33
VDT
p55
sg35
I1
ssg10
I1
sg36
g4
sg37
(dp56
sg39
(dp57
sg41
I4
sg42
g21
sg43
g21
sg44
I1
sg45
VThe
p58
sg47
I1
sg48
I7
sbag0
(g23
g2
Ntp59
Rp60
(dp61
g27
(dp62
g29
Vrelationship
p63
sg31
VO
p64
sg33
VNN
p65
sg35
I2
ssg10
I2
sg36
g4
sg37
(dp66
sg39
(dp67
sg41
I8
sg42
g21
sg43
g21
sg44
I2
sg45
Vrelationship
p68
sg47
I2
sg48
I20
sbag0
(g23
g2
Ntp69
Rp70
(dp71
g27
(dp72
g29
Vbetween
p73
sg31
VO
p74
sg33
VIN
p75
sg35
I3
ssg10
I3
sg36
g4
sg37
(dp76
sg39
(dp77
sg41
I21
sg42
g21
sg43
g21
sg44
I3
sg45
Vbetween
p78
sg47
I3
sg48
I28
sbag0
(g23
g2
Ntp79
Rp80
(dp81
g27
(dp82
g29
Vmulticulturalism
p83
sg31
VO
p84
sg33
VNN
p85
sg35
I4
ssg10
I4
sg36
g4
sg37
(dp86
sg39
(dp87
sg41
I29
sg42
g21
sg43
g21
sg44
I4
sg45
Vmulticulturalism
p88
sg47
I4
sg48
I45
sbag0
(g23
g2
Ntp89
Rp90
(dp91
g27
(dp92
g29
Vand
p93
sg31
VO
p94
sg33
VCC
p95
sg35
I5
ssg10
I5
sg36
g4
sg37
(dp96
sg39
(dp97
sg41
I46
sg42
g21
sg43
g21
sg44
I5
sg45
Vand
p98
sg47
I5
sg48
I49
sbag0
(g23
g2
Ntp99
Rp100
(dp101
g27
(dp102
g29
VIslam
p103
sg31
VMISC
p104
sg33
VNNP
p105
sg35
I6
ssg10
I6
sg36
g4
sg37
(dp106
sg39
(dp107
sg41
I50
sg42
g21
sg43
g21
sg44
I6
sg45
VIslam
p108
sg47
I6
sg48
I55
sbag0
(g23
g2
Ntp109
Rp110
(dp111
g27
(dp112
g29
Vbe
p113
sg31
VO
p114
sg33
VVBZ
p115
sg35
I7
ssg10
I7
sg36
g4
sg37
(dp116
sg39
(dp117
sg41
I56
sg42
g21
sg43
g21
sg44
I7
sg45
Vis
p118
sg47
I7
sg48
I58
sbag0
(g23
g2
Ntp119
Rp120
(dp121
g27
(dp122
g29
Va
p123
sg31
VO
p124
sg33
VDT
p125
sg35
I8
ssg10
I8
sg36
g4
sg37
(dp126
sg39
(dp127
sg41
I59
sg42
g21
sg43
g21
sg44
I8
sg45
Van
p128
sg47
I8
sg48
I61
sbag0
(g23
g2
Ntp129
Rp130
(dp131
g27
(dp132
g29
Vimportant
p133
sg31
VO
p134
sg33
VJJ
p135
sg35
I9
ssg10
I9
sg36
g4
sg37
(dp136
sg39
(dp137
sg41
I62
sg42
g21
sg43
g21
sg44
I9
sg45
Vimportant
p138
sg47
I9
sg48
I71
sbag0
(g23
g2
Ntp139
Rp140
(dp141
g27
(dp142
g29
Vaspect
p143
sg31
VO
p144
sg33
VNN
p145
sg35
I10
ssg10
I10
sg36
g4
sg37
(dp146
sg39
(dp147
sg41
I72
sg42
g21
sg43
g21
sg44
I10
sg45
Vaspect
p148
sg47
I10
sg48
I78
sbag0
(g23
g2
Ntp149
Rp150
(dp151
g27
(dp152
g29
Vin
p153
sg31
VO
p154
sg33
VIN
p155
sg35
I11
ssg10
I11
sg36
g4
sg37
(dp156
sg39
(dp157
sg41
I79
sg42
g21
sg43
g21
sg44
I11
sg45
Vin
p158
sg47
I11
sg48
I81
sbag0
(g23
g2
Ntp159
Rp160
(dp161
g27
(dp162
g29
Vthe
p163
sg31
VO
p164
sg33
VDT
p165
sg35
I12
ssg10
I12
sg36
g4
sg37
(dp166
sg39
(dp167
sg41
I82
sg42
g21
sg43
g21
sg44
I12
sg45
Vthe
p168
sg47
I12
sg48
I85
sbag0
(g23
g2
Ntp169
Rp170
(dp171
g27
(dp172
g29
Voverall
p173
sg31
VO
p174
sg33
VJJ
p175
sg35
I13
ssg10
I13
sg36
g4
sg37
(dp176
sg39
(dp177
sg41
I86
sg42
g21
sg43
g21
sg44
I13
sg45
Voverall
p178
sg47
I13
sg48
I93
sbag0
(g23
g2
Ntp179
Rp180
(dp181
g27
(dp182
g29
Vdebate
p183
sg31
VO
p184
sg33
VNN
p185
sg35
I14
ssg10
I14
sg36
g4
sg37
(dp186
sg39
(dp187
sg41
I94
sg42
g21
sg43
g21
sg44
I14
sg45
Vdebate
p188
sg47
I14
sg48
I100
sbag0
(g23
g2
Ntp189
Rp190
(dp191
g27
(dp192
g29
Von
p193
sg31
VO
p194
sg33
VIN
p195
sg35
I15
ssg10
I15
sg36
g4
sg37
(dp196
sg39
(dp197
sg41
I101
sg42
g21
sg43
g21
sg44
I15
sg45
Von
p198
sg47
I15
sg48
I103
sbag0
(g23
g2
Ntp199
Rp200
(dp201
g27
(dp202
g29
Vthe
p203
sg31
VO
p204
sg33
VDT
p205
sg35
I16
ssg10
I16
sg36
g4
sg37
(dp206
sg39
(dp207
sg41
I104
sg42
g21
sg43
g21
sg44
I16
sg45
Vthe
p208
sg47
I16
sg48
I107
sbag0
(g23
g2
Ntp209
Rp210
(dp211
g27
(dp212
g29
Vsoundness
p213
sg31
VO
p214
sg33
VNN
p215
sg35
I17
ssg10
I17
sg36
g4
sg37
(dp216
sg39
(dp217
sg41
I108
sg42
g21
sg43
g21
sg44
I17
sg45
Vsoundness
p218
sg47
I17
sg48
I117
sbag0
(g23
g2
Ntp219
Rp220
(dp221
g27
(dp222
g29
Vof
p223
sg31
VO
p224
sg33
VIN
p225
sg35
I18
ssg10
I18
sg36
g4
sg37
(dp226
sg39
(dp227
sg41
I118
sg42
g21
sg43
g21
sg44
I18
sg45
Vof
p228
sg47
I18
sg48
I120
sbag0
(g23
g2
Ntp229
Rp230
(dp231
g27
(dp232
g29
Vthe
p233
sg31
VO
p234
sg33
VDT
p235
sg35
I19
ssg10
I19
sg36
g4
sg37
(dp236
sg39
(dp237
sg41
I121
sg42
g21
sg43
g21
sg44
I19
sg45
Vthe
p238
sg47
I19
sg48
I124
sbag0
(g23
g2
Ntp239
Rp240
(dp241
g27
(dp242
g29
Vmodern
p243
sg31
VO
p244
sg33
VJJ
p245
sg35
I20
ssg10
I20
sg36
g4
sg37
(dp246
sg39
(dp247
sg41
I125
sg42
g21
sg43
g21
sg44
I20
sg45
Vmodern
p248
sg47
I20
sg48
I131
sbag0
(g23
g2
Ntp249
Rp250
(dp251
g27
(dp252
g29
Vdoctrine
p253
sg31
VO
p254
sg33
VNN
p255
sg35
I21
ssg10
I21
sg36
g4
sg37
(dp256
sg39
(dp257
sg41
I132
sg42
g21
sg43
g21
sg44
I21
sg45
Vdoctrine
p258
sg47
I21
sg48
I140
sbag0
(g23
g2
Ntp259
Rp260
(dp261
g27
(dp262
g29
Vof
p263
sg31
VO
p264
sg33
VIN
p265
sg35
I22
ssg10
I22
sg36
g4
sg37
(dp266
sg39
(dp267
sg41
I141
sg42
g21
sg43
g21
sg44
I22
sg45
Vof
p268
sg47
I22
sg48
I143
sbag0
(g23
g2
Ntp269
Rp270
(dp271
g27
(dp272
g29
Vmulticulturalism
p273
sg31
VO
p274
sg33
VNN
p275
sg35
I23
ssg10
I23
sg36
g4
sg37
(dp276
sg39
(dp277
sg41
I144
sg42
g21
sg43
g21
sg44
I23
sg45
Vmulticulturalism
p278
sg47
I23
sg48
I160
sbag0
(g23
g2
Ntp279
Rp280
(dp281
g27
(dp282
g29
V.
p283
sg31
VO
p284
sg33
V.
p285
sg35
I24
ssg10
I24
sg36
g4
sg37
(dp286
sg39
(dp287
sg41
I160
sg42
g21
sg43
g21
sg44
I24
sg45
V.
p288
sg47
I24
sg48
I161
sbag0
(g23
g2
Ntp289
Rp290
(dp291
g27
(dp292
g29
Vin
p293
sg31
VO
p294
sg33
VIN
p295
sg35
I1
ssg10
I25
sg36
g4
sg37
(dp296
sg39
(dp297
sg41
I163
sg42
g21
sg43
g21
sg44
I25
sg45
VIn
p298
sg47
I25
sg48
I165
sbag0
(g23
g2
Ntp299
Rp300
(dp301
g27
(dp302
g29
Va
p303
sg31
VO
p304
sg33
VDT
p305
sg35
I2
ssg10
I26
sg36
g4
sg37
(dp306
sg39
(dp307
sg41
I166
sg42
g21
sg43
g21
sg44
I26
sg45
Van
p308
sg47
I26
sg48
I168
sbag0
(g23
g2
Ntp309
Rp310
(dp311
g27
(dp312
g29
Varticle
p313
sg31
VO
p314
sg33
VNN
p315
sg35
I3
ssg10
I27
sg36
g4
sg37
(dp316
sg39
(dp317
sg41
I169
sg42
g21
sg43
g21
sg44
I27
sg45
Varticle
p318
sg47
I27
sg48
I176
sbag0
(g23
g2
Ntp319
Rp320
(dp321
g27
(dp322
g29
Vin
p323
sg31
VO
p324
sg33
VIN
p325
sg35
I4
ssg10
I28
sg36
g4
sg37
(dp326
sg39
(dp327
sg41
I177
sg42
g21
sg43
g21
sg44
I28
sg45
Vin
p328
sg47
I28
sg48
I179
sbag0
(g23
g2
Ntp329
Rp330
(dp331
g27
(dp332
g29
Vthe
p333
sg31
VO
p334
sg33
VDT
p335
sg35
I5
ssg10
I29
sg36
g4
sg37
(dp336
sg39
(dp337
sg41
I180
sg42
g21
sg43
g21
sg44
I29
sg45
Vthe
p338
sg47
I29
sg48
I183
sbag0
(g23
g2
Ntp339
Rp340
(dp341
g27
(dp342
g29
VHudson
p343
sg31
VORGANIZATION
p344
sg33
VNNP
p345
sg35
I6
ssg10
I30
sg36
g4
sg37
(dp346
sg39
(dp347
sg41
I184
sg42
g21
sg43
g21
sg44
I30
sg45
VHudson
p348
sg47
I30
sg48
I190
sbag0
(g23
g2
Ntp349
Rp350
(dp351
g27
(dp352
g29
VReview
p353
sg31
VORGANIZATION
p354
sg33
VNNP
p355
sg35
I7
ssg10
I31
sg36
g4
sg37
(dp356
sg39
(dp357
sg41
I191
sg42
g21
sg43
g21
sg44
I31
sg45
VReview
p358
sg47
I31
sg48
I197
sbag0
(g23
g2
Ntp359
Rp360
(dp361
g27
(dp362
g29
V,
p363
sg31
VO
p364
sg33
V,
p365
sg35
I8
ssg10
I32
sg36
g4
sg37
(dp366
sg39
(dp367
sg41
I197
sg42
g21
sg43
g21
sg44
I32
sg45
V,
p368
sg47
I32
sg48
I198
sbag0
(g23
g2
Ntp369
Rp370
(dp371
g27
(dp372
g29
VBruce
p373
sg31
VPERSON
p374
sg33
VNNP
p375
sg35
I9
ssg10
I33
sg36
g4
sg37
(dp376
sg39
(dp377
sg41
I199
sg42
g21
sg43
g21
sg44
I33
sg45
VBruce
p378
sg47
I33
sg48
I204
sbag0
(g23
g2
Ntp379
Rp380
(dp381
g27
(dp382
g29
VBawer
p383
sg31
VPERSON
p384
sg33
VNNP
p385
sg35
I10
ssg10
I34
sg36
g4
sg37
(dp386
sg39
(dp387
sg41
I205
sg42
g21
sg43
g21
sg44
I34
sg45
VBawer
p388
sg47
I34
sg48
I210
sbag0
(g23
g2
Ntp389
Rp390
(dp391
g27
(dp392
g29
V,
p393
sg31
VO
p394
sg33
V,
p395
sg35
I11
ssg10
I35
sg36
g4
sg37
(dp396
sg39
(dp397
sg41
I210
sg42
g21
sg43
g21
sg44
I35
sg45
V,
p398
sg47
I35
sg48
I211
sbag0
(g23
g2
Ntp399
Rp400
(dp401
g27
(dp402
g29
Vwrite
p403
sg31
VO
p404
sg33
VVBZ
p405
sg35
I12
ssg10
I36
sg36
g4
sg37
(dp406
sg39
(dp407
sg41
I212
sg42
g21
sg43
g21
sg44
I36
sg45
Vwrites
p408
sg47
I36
sg48
I218
sbag0
(g23
g2
Ntp409
Rp410
(dp411
g27
(dp412
g29
Vabout
p413
sg31
VO
p414
sg33
VIN
p415
sg35
I13
ssg10
I37
sg36
g4
sg37
(dp416
sg39
(dp417
sg41
I219
sg42
g21
sg43
g21
sg44
I37
sg45
Vabout
p418
sg47
I37
sg48
I224
sbag0
(g23
g2
Ntp419
Rp420
(dp421
g27
(dp422
g29
Vwhat
p423
sg31
VO
p424
sg33
VWP
p425
sg35
I14
ssg10
I38
sg36
g4
sg37
(dp426
sg39
(dp427
sg41
I225
sg42
g21
sg43
g21
sg44
I38
sg45
Vwhat
p428
sg47
I38
sg48
I229
sbag0
(g23
g2
Ntp429
Rp430
(dp431
g27
(dp432
g29
Vhe
p433
sg31
VO
p434
sg33
VPRP
p435
sg35
I15
ssg10
I39
sg36
g4
sg37
(dp436
sg39
(dp437
sg41
I230
sg42
g21
sg43
g21
sg44
I39
sg45
Vhe
p438
sg47
I39
sg48
I232
sbag0
(g23
g2
Ntp439
Rp440
(dp441
g27
(dp442
g29
Vsee
p443
sg31
VO
p444
sg33
VVBZ
p445
sg35
I16
ssg10
I40
sg36
g4
sg37
(dp446
sg39
(dp447
sg41
I233
sg42
g21
sg43
g21
sg44
I40
sg45
Vsees
p448
sg47
I40
sg48
I237
sbag0
(g23
g2
Ntp449
Rp450
(dp451
g27
(dp452
g29
Vas
p453
sg31
VO
p454
sg33
VIN
p455
sg35
I17
ssg10
I41
sg36
g4
sg37
(dp456
sg39
(dp457
sg41
I238
sg42
g21
sg43
g21
sg44
I41
sg45
Vas
p458
sg47
I41
sg48
I240
sbag0
(g23
g2
Ntp459
Rp460
(dp461
g27
(dp462
g29
Va
p463
sg31
VO
p464
sg33
VDT
p465
sg35
I18
ssg10
I42
sg36
g4
sg37
(dp466
sg39
(dp467
sg41
I238
sg42
g21
sg43
g21
sg44
I42
sg45
Va
p468
sg47
I42
sg48
I239
sbag0
(g23
g2
Ntp469
Rp470
(dp471
g27
(dp472
g29
Vdevelop
p473
sg31
VO
p474
sg33
VVBG
p475
sg35
I19
ssg10
I43
sg36
g4
sg37
(dp476
sg39
(dp477
sg41
I243
sg42
g21
sg43
g21
sg44
I43
sg45
Vdeveloping
p478
sg47
I43
sg48
I253
sbag0
(g23
g2
Ntp479
Rp480
(dp481
g27
(dp482
g29
Vdistaste
p483
sg31
VO
p484
sg33
VNN
p485
sg35
I20
ssg10
I44
sg36
g4
sg37
(dp486
sg39
(dp487
sg41
I254
sg42
g21
sg43
g21
sg44
I44
sg45
Vdistaste
p488
sg47
I44
sg48
I262
sbag0
(g23
g2
Ntp489
Rp490
(dp491
g27
(dp492
g29
Vtoward
p493
sg31
VO
p494
sg33
VIN
p495
sg35
I21
ssg10
I45
sg36
g4
sg37
(dp496
sg39
(dp497
sg41
I263
sg42
g21
sg43
g21
sg44
I45
sg45
Vtoward
p498
sg47
I45
sg48
I269
sbag0
(g23
g2
Ntp499
Rp500
(dp501
g27
(dp502
g29
Vthe
p503
sg31
VO
p504
sg33
VDT
p505
sg35
I22
ssg10
I46
sg36
g4
sg37
(dp506
sg39
(dp507
sg41
I270
sg42
g21
sg43
g21
sg44
I46
sg45
Vthe
p508
sg47
I46
sg48
I273
sbag0
(g23
g2
Ntp509
Rp510
(dp511
g27
(dp512
g29
Videa
p513
sg31
VO
p514
sg33
VNN
p515
sg35
I23
ssg10
I47
sg36
g4
sg37
(dp516
sg39
(dp517
sg41
I274
sg42
g21
sg43
g21
sg44
I47
sg45
Videa
p518
sg47
I47
sg48
I278
sbag0
(g23
g2
Ntp519
Rp520
(dp521
g27
(dp522
g29
Vand
p523
sg31
VO
p524
sg33
VCC
p525
sg35
I24
ssg10
I48
sg36
g4
sg37
(dp526
sg39
(dp527
sg41
I279
sg42
g21
sg43
g21
sg44
I48
sg45
Vand
p528
sg47
I48
sg48
I282
sbag0
(g23
g2
Ntp529
Rp530
(dp531
g27
(dp532
g29
Vpolicy
p533
sg31
VO
p534
sg33
VNNS
p535
sg35
I25
ssg10
I49
sg36
g4
sg37
(dp536
sg39
(dp537
sg41
I283
sg42
g21
sg43
g21
sg44
I49
sg45
Vpolicies
p538
sg47
I49
sg48
I291
sbag0
(g23
g2
Ntp539
Rp540
(dp541
g27
(dp542
g29
Vof
p543
sg31
VO
p544
sg33
VIN
p545
sg35
I26
ssg10
I50
sg36
g4
sg37
(dp546
sg39
(dp547
sg41
I292
sg42
g21
sg43
g21
sg44
I50
sg45
Vof
p548
sg47
I50
sg48
I294
sbag0
(g23
g2
Ntp549
Rp550
(dp551
g27
(dp552
g29
Vmulticulturalism
p553
sg31
VO
p554
sg33
VNN
p555
sg35
I27
ssg10
I51
sg36
g4
sg37
(dp556
sg39
(dp557
sg41
I295
sg42
g21
sg43
g21
sg44
I51
sg45
Vmulticulturalism
p558
sg47
I51
sg48
I311
sbag0
(g23
g2
Ntp559
Rp560
(dp561
g27
(dp562
g29
Vin
p563
sg31
VO
p564
sg33
VIN
p565
sg35
I28
ssg10
I52
sg36
g4
sg37
(dp566
sg39
(dp567
sg41
I312
sg42
g21
sg43
g21
sg44
I52
sg45
Vin
p568
sg47
I52
sg48
I314
sbag0
(g23
g2
Ntp569
Rp570
(dp571
g27
(dp572
g29
VEurope
p573
sg31
VLOCATION
p574
sg33
VNNP
p575
sg35
I29
ssg10
I53
sg36
g4
sg37
(dp576
sg39
(dp577
sg41
I315
sg42
g21
sg43
g21
sg44
I53
sg45
VEurope
p578
sg47
I53
sg48
I321
sbag0
(g23
g2
Ntp579
Rp580
(dp581
g27
(dp582
g29
V,
p583
sg31
VO
p584
sg33
V,
p585
sg35
I30
ssg10
I54
sg36
g4
sg37
(dp586
sg39
(dp587
sg41
I321
sg42
g21
sg43
g21
sg44
I54
sg45
V,
p588
sg47
I54
sg48
I322
sbag0
(g23
g2
Ntp589
Rp590
(dp591
g27
(dp592
g29
Vespecially
p593
sg31
VO
p594
sg33
VRB
p595
sg35
I31
ssg10
I55
sg36
g4
sg37
(dp596
sg39
(dp597
sg41
I323
sg42
g21
sg43
g21
sg44
I55
sg45
Vespecially
p598
sg47
I55
sg48
I333
sbag0
(g23
g2
Ntp599
Rp600
(dp601
g27
(dp602
g29
V,
p603
sg31
VO
p604
sg33
V,
p605
sg35
I32
ssg10
I56
sg36
g4
sg37
(dp606
sg39
(dp607
sg41
I333
sg42
g21
sg43
g21
sg44
I56
sg45
V,
p608
sg47
I56
sg48
I334
sbag0
(g23
g2
Ntp609
Rp610
(dp611
g27
(dp612
g29
Vas
p613
sg31
VO
p614
sg33
VIN
p615
sg35
I33
ssg10
I57
sg36
g4
sg37
(dp616
sg39
(dp617
sg41
I335
sg42
g21
sg43
g21
sg44
I57
sg45
Vas
p618
sg47
I57
sg48
I337
sbag0
(g23
g2
Ntp619
Rp620
(dp621
g27
(dp622
g29
Vstate
p623
sg31
VO
p624
sg33
VVBN
p625
sg35
I34
ssg10
I58
sg36
g4
sg37
(dp626
sg39
(dp627
sg41
I338
sg42
g21
sg43
g21
sg44
I58
sg45
Vstated
p628
sg47
I58
sg48
I344
sbag0
(g23
g2
Ntp629
Rp630
(dp631
g27
(dp632
g29
Vearlier
p633
sg31
VO
p634
sg33
VRBR
p635
sg35
I35
ssg10
I59
sg36
g4
sg37
(dp636
sg39
(dp637
sg41
I345
sg42
g21
sg43
g21
sg44
I59
sg45
Vearlier
p638
sg47
I59
sg48
I352
sbag0
(g23
g2
Ntp639
Rp640
(dp641
g27
(dp642
g29
V,
p643
sg31
VO
p644
sg33
V,
p645
sg35
I36
ssg10
I60
sg36
g4
sg37
(dp646
sg39
(dp647
sg41
I352
sg42
g21
sg43
g21
sg44
I60
sg45
V,
p648
sg47
I60
sg48
I353
sbag0
(g23
g2
Ntp649
Rp650
(dp651
g27
(dp652
g29
Vin
p653
sg31
VO
p654
sg33
VIN
p655
sg35
I37
ssg10
I61
sg36
g4
sg37
(dp656
sg39
(dp657
sg41
I354
sg42
g21
sg43
g21
sg44
I61
sg45
Vin
p658
sg47
I61
sg48
I356
sbag0
(g23
g2
Ntp659
Rp660
(dp661
g27
(dp662
g29
Vthe
p663
sg31
VO
p664
sg33
VDT
p665
sg35
I38
ssg10
I62
sg36
g4
sg37
(dp666
sg39
(dp667
sg41
I357
sg42
g21
sg43
g21
sg44
I62
sg45
Vthe
p668
sg47
I62
sg48
I360
sbag0
(g23
g2
Ntp669
Rp670
(dp671
g27
(dp672
g29
VNetherlands
p673
sg31
VLOCATION
p674
sg33
VNNP
p675
sg35
I39
ssg10
I63
sg36
g4
sg37
(dp676
sg39
(dp677
sg41
I361
sg42
g21
sg43
g21
sg44
I63
sg45
VNetherlands
p678
sg47
I63
sg48
I372
sbag0
(g23
g2
Ntp679
Rp680
(dp681
g27
(dp682
g29
V,
p683
sg31
VO
p684
sg33
V,
p685
sg35
I40
ssg10
I64
sg36
g4
sg37
(dp686
sg39
(dp687
sg41
I372
sg42
g21
sg43
g21
sg44
I64
sg45
V,
p688
sg47
I64
sg48
I373
sbag0
(g23
g2
Ntp689
Rp690
(dp691
g27
(dp692
g29
VDenmark
p693
sg31
VLOCATION
p694
sg33
VNNP
p695
sg35
I41
ssg10
I65
sg36
g4
sg37
(dp696
sg39
(dp697
sg41
I374
sg42
g21
sg43
g21
sg44
I65
sg45
VDenmark
p698
sg47
I65
sg48
I381
sbag0
(g23
g2
Ntp699
Rp700
(dp701
g27
(dp702
g29
V,
p703
sg31
VO
p704
sg33
V,
p705
sg35
I42
ssg10
I66
sg36
g4
sg37
(dp706
sg39
(dp707
sg41
I381
sg42
g21
sg43
g21
sg44
I66
sg45
V,
p708
sg47
I66
sg48
I382
sbag0
(g23
g2
Ntp709
Rp710
(dp711
g27
(dp712
g29
VUnited
p713
sg31
VLOCATION
p714
sg33
VNNP
p715
sg35
I43
ssg10
I67
sg36
g4
sg37
(dp716
sg39
(dp717
sg41
I383
sg42
g21
sg43
g21
sg44
I67
sg45
VUnited
p718
sg47
I67
sg48
I389
sbag0
(g23
g2
Ntp719
Rp720
(dp721
g27
(dp722
g29
VKingdom
p723
sg31
VLOCATION
p724
sg33
VNNP
p725
sg35
I44
ssg10
I68
sg36
g4
sg37
(dp726
sg39
(dp727
sg41
I390
sg42
g21
sg43
g21
sg44
I68
sg45
VKingdom
p728
sg47
I68
sg48
I397
sbag0
(g23
g2
Ntp729
Rp730
(dp731
g27
(dp732
g29
V,
p733
sg31
VO
p734
sg33
V,
p735
sg35
I45
ssg10
I69
sg36
g4
sg37
(dp736
sg39
(dp737
sg41
I397
sg42
g21
sg43
g21
sg44
I69
sg45
V,
p738
sg47
I69
sg48
I398
sbag0
(g23
g2
Ntp739
Rp740
(dp741
g27
(dp742
g29
VNorway
p743
sg31
VLOCATION
p744
sg33
VNNP
p745
sg35
I46
ssg10
I70
sg36
g4
sg37
(dp746
sg39
(dp747
sg41
I399
sg42
g21
sg43
g21
sg44
I70
sg45
VNorway
p748
sg47
I70
sg48
I405
sbag0
(g23
g2
Ntp749
Rp750
(dp751
g27
(dp752
g29
V,
p753
sg31
VO
p754
sg33
V,
p755
sg35
I47
ssg10
I71
sg36
g4
sg37
(dp756
sg39
(dp757
sg41
I405
sg42
g21
sg43
g21
sg44
I71
sg45
V,
p758
sg47
I71
sg48
I406
sbag0
(g23
g2
Ntp759
Rp760
(dp761
g27
(dp762
g29
VSweden
p763
sg31
VLOCATION
p764
sg33
VNNP
p765
sg35
I48
ssg10
I72
sg36
g4
sg37
(dp766
sg39
(dp767
sg41
I407
sg42
g21
sg43
g21
sg44
I72
sg45
VSweden
p768
sg47
I72
sg48
I413
sbag0
(g23
g2
Ntp769
Rp770
(dp771
g27
(dp772
g29
V,
p773
sg31
VO
p774
sg33
V,
p775
sg35
I49
ssg10
I73
sg36
g4
sg37
(dp776
sg39
(dp777
sg41
I413
sg42
g21
sg43
g21
sg44
I73
sg45
V,
p778
sg47
I73
sg48
I414
sbag0
(g23
g2
Ntp779
Rp780
(dp781
g27
(dp782
g29
VAustria
p783
sg31
VLOCATION
p784
sg33
VNNP
p785
sg35
I50
ssg10
I74
sg36
g4
sg37
(dp786
sg39
(dp787
sg41
I415
sg42
g21
sg43
g21
sg44
I74
sg45
VAustria
p788
sg47
I74
sg48
I422
sbag0
(g23
g2
Ntp789
Rp790
(dp791
g27
(dp792
g29
Vand
p793
sg31
VO
p794
sg33
VCC
p795
sg35
I51
ssg10
I75
sg36
g4
sg37
(dp796
sg39
(dp797
sg41
I423
sg42
g21
sg43
g21
sg44
I75
sg45
Vand
p798
sg47
I75
sg48
I426
sbag0
(g23
g2
Ntp799
Rp800
(dp801
g27
(dp802
g29
VGermany
p803
sg31
VLOCATION
p804
sg33
VNNP
p805
sg35
I52
ssg10
I76
sg36
g4
sg37
(dp806
sg39
(dp807
sg41
I427
sg42
g21
sg43
g21
sg44
I76
sg45
VGermany
p808
sg47
I76
sg48
I434
sbag0
(g23
g2
Ntp809
Rp810
(dp811
g27
(dp812
g29
V.
p813
sg31
VO
p814
sg33
V.
p815
sg35
I53
ssg10
I77
sg36
g4
sg37
(dp816
sg39
(dp817
sg41
I434
sg42
g21
sg43
g21
sg44
I77
sg45
V.
p818
sg47
I77
sg48
I435
sbag0
(g23
g2
Ntp819
Rp820
(dp821
g27
(dp822
g29
Vthe
p823
sg31
VO
p824
sg33
VDT
p825
sg35
I1
ssg10
I78
sg36
g4
sg37
(dp826
sg39
(dp827
sg41
I436
sg42
g21
sg43
g21
sg44
I78
sg45
VThe
p828
sg47
I78
sg48
I439
sbag0
(g23
g2
Ntp829
Rp830
(dp831
g27
(dp832
g29
Vbelief
p833
sg31
VO
p834
sg33
VNN
p835
sg35
I2
ssg10
I79
sg36
g4
sg37
(dp836
sg39
(dp837
sg41
I440
sg42
g21
sg43
g21
sg44
I79
sg45
Vbelief
p838
sg47
I79
sg48
I446
sbag0
(g23
g2
Ntp839
Rp840
(dp841
g27
(dp842
g29
Vbehind
p843
sg31
VO
p844
sg33
VIN
p845
sg35
I3
ssg10
I80
sg36
g4
sg37
(dp846
sg39
(dp847
sg41
I447
sg42
g21
sg43
g21
sg44
I80
sg45
Vbehind
p848
sg47
I80
sg48
I453
sbag0
(g23
g2
Ntp849
Rp850
(dp851
g27
(dp852
g29
Vthis
p853
sg31
VO
p854
sg33
VDT
p855
sg35
I4
ssg10
I81
sg36
g4
sg37
(dp856
sg39
(dp857
sg41
I454
sg42
g21
sg43
g21
sg44
I81
sg45
Vthis
p858
sg47
I81
sg48
I458
sbag0
(g23
g2
Ntp859
Rp860
(dp861
g27
(dp862
g29
Vbacklash
p863
sg31
VO
p864
sg33
VNN
p865
sg35
I5
ssg10
I82
sg36
g4
sg37
(dp866
sg39
(dp867
sg41
I459
sg42
g21
sg43
g21
sg44
I82
sg45
Vbacklash
p868
sg47
I82
sg48
I467
sbag0
(g23
g2
Ntp869
Rp870
(dp871
g27
(dp872
g29
Von
p873
sg31
VO
p874
sg33
VIN
p875
sg35
I6
ssg10
I83
sg36
g4
sg37
(dp876
sg39
(dp877
sg41
I468
sg42
g21
sg43
g21
sg44
I83
sg45
Von
p878
sg47
I83
sg48
I470
sbag0
(g23
g2
Ntp879
Rp880
(dp881
g27
(dp882
g29
Vmulticulturalism
p883
sg31
VO
p884
sg33
VNN
p885
sg35
I7
ssg10
I84
sg36
g4
sg37
(dp886
sg39
(dp887
sg41
I471
sg42
g21
sg43
g21
sg44
I84
sg45
Vmulticulturalism
p888
sg47
I84
sg48
I487
sbag0
(g23
g2
Ntp889
Rp890
(dp891
g27
(dp892
g29
Vbe
p893
sg31
VO
p894
sg33
VVBZ
p895
sg35
I8
ssg10
I85
sg36
g4
sg37
(dp896
sg39
(dp897
sg41
I484
sg42
g21
sg43
g21
sg44
I85
sg45
Vis
p898
sg47
I85
sg48
I486
sbag0
(g23
g2
Ntp899
Rp900
(dp901
g27
(dp902
g29
Vthat
p903
sg31
VO
p904
sg33
VIN
p905
sg35
I9
ssg10
I86
sg36
g4
sg37
(dp906
sg39
(dp907
sg41
I491
sg42
g21
sg43
g21
sg44
I86
sg45
Vthat
p908
sg47
I86
sg48
I495
sbag0
(g23
g2
Ntp909
Rp910
(dp911
g27
(dp912
g29
Vit
p913
sg31
VO
p914
sg33
VPRP
p915
sg35
I10
ssg10
I87
sg36
g4
sg37
(dp916
sg39
(dp917
sg41
I496
sg42
g21
sg43
g21
sg44
I87
sg45
Vit
p918
sg47
I87
sg48
I498
sbag0
(g23
g2
Ntp919
Rp920
(dp921
g27
(dp922
g29
Vcreate
p923
sg31
VO
p924
sg33
VVBZ
p925
sg35
I11
ssg10
I88
sg36
g4
sg37
(dp926
sg39
(dp927
sg41
I499
sg42
g21
sg43
g21
sg44
I88
sg45
Vcreates
p928
sg47
I88
sg48
I506
sbag0
(g23
g2
Ntp929
Rp930
(dp931
g27
(dp932
g29
Vfriction
p933
sg31
VO
p934
sg33
VNN
p935
sg35
I12
ssg10
I89
sg36
g4
sg37
(dp936
sg39
(dp937
sg41
I507
sg42
g21
sg43
g21
sg44
I89
sg45
Vfriction
p938
sg47
I89
sg48
I515
sbag0
(g23
g2
Ntp939
Rp940
(dp941
g27
(dp942
g29
Vwithin
p943
sg31
VO
p944
sg33
VIN
p945
sg35
I13
ssg10
I90
sg36
g4
sg37
(dp946
sg39
(dp947
sg41
I516
sg42
g21
sg43
g21
sg44
I90
sg45
Vwithin
p948
sg47
I90
sg48
I522
sbag0
(g23
g2
Ntp949
Rp950
(dp951
g27
(dp952
g29
Vsociety
p953
sg31
VO
p954
sg33
VNN
p955
sg35
I14
ssg10
I91
sg36
g4
sg37
(dp956
sg39
(dp957
sg41
I523
sg42
g21
sg43
g21
sg44
I91
sg45
Vsociety
p958
sg47
I91
sg48
I530
sbag0
(g23
g2
Ntp959
Rp960
(dp961
g27
(dp962
g29
V-lsb-
p963
sg31
VO
p964
sg33
V-LRB-
p965
sg35
I15
ssg10
I92
sg36
g4
sg37
(dp966
sg39
(dp967
sg41
I531
sg42
g21
sg43
g21
sg44
I92
sg45
V[
p968
sg47
I92
sg48
I532
sbag0
(g23
g2
Ntp969
Rp970
(dp971
g27
(dp972
g29
Vref
p973
sg31
VO
p974
sg33
VNN
p975
sg35
I16
ssg10
I93
sg36
g4
sg37
(dp976
sg39
(dp977
sg41
I532
sg42
g21
sg43
g21
sg44
I93
sg45
VREF
p978
sg47
I93
sg48
I535
sbag0
(g23
g2
Ntp979
Rp980
(dp981
g27
(dp982
g29
V-rsb-
p983
sg31
VO
p984
sg33
V-RRB-
p985
sg35
I17
ssg10
I94
sg36
g4
sg37
(dp986
sg39
(dp987
sg41
I535
sg42
g21
sg43
g21
sg44
I94
sg45
V]
p988
sg47
I94
sg48
I536
sbag0
(g23
g2
Ntp989
Rp990
(dp991
g27
(dp992
g29
V.
p993
sg31
VO
p994
sg33
V.
p995
sg35
I18
ssg10
I95
sg36
g4
sg37
(dp996
sg39
(dp997
sg41
I536
sg42
g21
sg43
g21
sg44
I95
sg45
V.
p998
sg47
I95
sg48
I537
sbag0
(g23
g2
Ntp999
Rp1000
(dp1001
g27
(dp1002
g29
Vincompatibility
p1003
sg31
VO
p1004
sg33
VNN
p1005
sg35
I1
ssg10
I96
sg36
g4
sg37
(dp1006
sg39
(dp1007
sg41
I539
sg42
g21
sg43
g21
sg44
I96
sg45
VIncompatibility
p1008
sg47
I96
sg48
I554
sbag0
(g23
g2
Ntp1009
Rp1010
(dp1011
g27
(dp1012
g29
Vwith
p1013
sg31
VO
p1014
sg33
VIN
p1015
sg35
I2
ssg10
I97
sg36
g4
sg37
(dp1016
sg39
(dp1017
sg41
I555
sg42
g21
sg43
g21
sg44
I97
sg45
Vwith
p1018
sg47
I97
sg48
I559
sbag0
(g23
g2
Ntp1019
Rp1020
(dp1021
g27
(dp1022
g29
Vsecular
p1023
sg31
VO
p1024
sg33
VJJ
p1025
sg35
I3
ssg10
I98
sg36
g4
sg37
(dp1026
sg39
(dp1027
sg41
I560
sg42
g21
sg43
g21
sg44
I98
sg45
Vsecular
p1028
sg47
I98
sg48
I567
sbag0
(g23
g2
Ntp1029
Rp1030
(dp1031
g27
(dp1032
g29
Vsociety
p1033
sg31
VO
p1034
sg33
VNN
p1035
sg35
I4
ssg10
I99
sg36
g4
sg37
(dp1036
sg39
(dp1037
sg41
I568
sg42
g21
sg43
g21
sg44
I99
sg45
Vsociety
p1038
sg47
I99
sg48
I575
sbag0
(g23
g2
Ntp1039
Rp1040
(dp1041
g27
(dp1042
g29
Vhave
p1043
sg31
VO
p1044
sg33
VVBZ
p1045
sg35
I5
ssg10
I100
sg36
g4
sg37
(dp1046
sg39
(dp1047
sg41
I576
sg42
g21
sg43
g21
sg44
I100
sg45
Vhas
p1048
sg47
I100
sg48
I579
sbag0
(g23
g2
Ntp1049
Rp1050
(dp1051
g27
(dp1052
g29
Vbe
p1053
sg31
VO
p1054
sg33
VVBN
p1055
sg35
I6
ssg10
I101
sg36
g4
sg37
(dp1056
sg39
(dp1057
sg41
I580
sg42
g21
sg43
g21
sg44
I101
sg45
Vbeen
p1058
sg47
I101
sg48
I584
sbag0
(g23
g2
Ntp1059
Rp1060
(dp1061
g27
(dp1062
g29
Vinfluence
p1063
sg31
VO
p1064
sg33
VVBN
p1065
sg35
I7
ssg10
I102
sg36
g4
sg37
(dp1066
sg39
(dp1067
sg41
I585
sg42
g21
sg43
g21
sg44
I102
sg45
Vinfluenced
p1068
sg47
I102
sg48
I595
sbag0
(g23
g2
Ntp1069
Rp1070
(dp1071
g27
(dp1072
g29
Vby
p1073
sg31
VO
p1074
sg33
VIN
p1075
sg35
I8
ssg10
I103
sg36
g4
sg37
(dp1076
sg39
(dp1077
sg41
I596
sg42
g21
sg43
g21
sg44
I103
sg45
Vby
p1078
sg47
I103
sg48
I598
sbag0
(g23
g2
Ntp1079
Rp1080
(dp1081
g27
(dp1082
g29
Va
p1083
sg31
VO
p1084
sg33
VDT
p1085
sg35
I9
ssg10
I104
sg36
g4
sg37
(dp1086
sg39
(dp1087
sg41
I599
sg42
g21
sg43
g21
sg44
I104
sg45
Va
p1088
sg47
I104
sg48
I600
sbag0
(g23
g2
Ntp1089
Rp1090
(dp1091
g27
(dp1092
g29
Vstance
p1093
sg31
VO
p1094
sg33
VNN
p1095
sg35
I10
ssg10
I105
sg36
g4
sg37
(dp1096
sg39
(dp1097
sg41
I601
sg42
g21
sg43
g21
sg44
I105
sg45
Vstance
p1098
sg47
I105
sg48
I607
sbag0
(g23
g2
Ntp1099
Rp1100
(dp1101
g27
(dp1102
g29
Vagainst
p1103
sg31
VO
p1104
sg33
VIN
p1105
sg35
I11
ssg10
I106
sg36
g4
sg37
(dp1106
sg39
(dp1107
sg41
I608
sg42
g21
sg43
g21
sg44
I106
sg45
Vagainst
p1108
sg47
I106
sg48
I615
sbag0
(g23
g2
Ntp1109
Rp1110
(dp1111
g27
(dp1112
g29
Vmulticulturalism
p1113
sg31
VO
p1114
sg33
VNN
p1115
sg35
I12
ssg10
I107
sg36
g4
sg37
(dp1116
sg39
(dp1117
sg41
I616
sg42
g21
sg43
g21
sg44
I107
sg45
Vmulticulturalism
p1118
sg47
I107
sg48
I632
sbag0
(g23
g2
Ntp1119
Rp1120
(dp1121
g27
(dp1122
g29
Vadvocate
p1123
sg31
VO
p1124
sg33
VVBN
p1125
sg35
I13
ssg10
I108
sg36
g4
sg37
(dp1126
sg39
(dp1127
sg41
I633
sg42
g21
sg43
g21
sg44
I108
sg45
Vadvocated
p1128
sg47
I108
sg48
I642
sbag0
(g23
g2
Ntp1129
Rp1130
(dp1131
g27
(dp1132
g29
Vby
p1133
sg31
VO
p1134
sg33
VIN
p1135
sg35
I14
ssg10
I109
sg36
g4
sg37
(dp1136
sg39
(dp1137
sg41
I643
sg42
g21
sg43
g21
sg44
I109
sg45
Vby
p1138
sg47
I109
sg48
I645
sbag0
(g23
g2
Ntp1139
Rp1140
(dp1141
g27
(dp1142
g29
Vrecent
p1143
sg31
VO
p1144
sg33
VJJ
p1145
sg35
I15
ssg10
I110
sg36
g4
sg37
(dp1146
sg39
(dp1147
sg41
I646
sg42
g21
sg43
g21
sg44
I110
sg45
Vrecent
p1148
sg47
I110
sg48
I652
sbag0
(g23
g2
Ntp1149
Rp1150
(dp1151
g27
(dp1152
g29
Vphilosopher
p1153
sg31
VO
p1154
sg33
VNNS
p1155
sg35
I16
ssg10
I111
sg36
g4
sg37
(dp1156
sg39
(dp1157
sg41
I653
sg42
g21
sg43
g21
sg44
I111
sg45
Vphilosophers
p1158
sg47
I111
sg48
I665
sbag0
(g23
g2
Ntp1159
Rp1160
(dp1161
g27
(dp1162
g29
V,
p1163
sg31
VO
p1164
sg33
V,
p1165
sg35
I17
ssg10
I112
sg36
g4
sg37
(dp1166
sg39
(dp1167
sg41
I665
sg42
g21
sg43
g21
sg44
I112
sg45
V,
p1168
sg47
I112
sg48
I666
sbag0
(g23
g2
Ntp1169
Rp1170
(dp1171
g27
(dp1172
g29
Vclosely
p1173
sg31
VO
p1174
sg33
VRB
p1175
sg35
I18
ssg10
I113
sg36
g4
sg37
(dp1176
sg39
(dp1177
sg41
I667
sg42
g21
sg43
g21
sg44
I113
sg45
Vclosely
p1178
sg47
I113
sg48
I674
sbag0
(g23
g2
Ntp1179
Rp1180
(dp1181
g27
(dp1182
g29
Vlink
p1183
sg31
VO
p1184
sg33
VVBN
p1185
sg35
I19
ssg10
I114
sg36
g4
sg37
(dp1186
sg39
(dp1187
sg41
I675
sg42
g21
sg43
g21
sg44
I114
sg45
Vlinked
p1188
sg47
I114
sg48
I681
sbag0
(g23
g2
Ntp1189
Rp1190
(dp1191
g27
(dp1192
g29
Vto
p1193
sg31
VO
p1194
sg33
VTO
p1195
sg35
I20
ssg10
I115
sg36
g4
sg37
(dp1196
sg39
(dp1197
sg41
I682
sg42
g21
sg43
g21
sg44
I115
sg45
Vto
p1198
sg47
I115
sg48
I684
sbag0
(g23
g2
Ntp1199
Rp1200
(dp1201
g27
(dp1202
g29
Vthe
p1203
sg31
VO
p1204
sg33
VDT
p1205
sg35
I21
ssg10
I116
sg36
g4
sg37
(dp1206
sg39
(dp1207
sg41
I685
sg42
g21
sg43
g21
sg44
I116
sg45
Vthe
p1208
sg47
I116
sg48
I688
sbag0
(g23
g2
Ntp1209
Rp1210
(dp1211
g27
(dp1212
g29
Vheritage
p1213
sg31
VO
p1214
sg33
VNN
p1215
sg35
I22
ssg10
I117
sg36
g4
sg37
(dp1216
sg39
(dp1217
sg41
I689
sg42
g21
sg43
g21
sg44
I117
sg45
Vheritage
p1218
sg47
I117
sg48
I697
sbag0
(g23
g2
Ntp1219
Rp1220
(dp1221
g27
(dp1222
g29
Vof
p1223
sg31
VO
p1224
sg33
VIN
p1225
sg35
I23
ssg10
I118
sg36
g4
sg37
(dp1226
sg39
(dp1227
sg41
I698
sg42
g21
sg43
g21
sg44
I118
sg45
Vof
p1228
sg47
I118
sg48
I700
sbag0
(g23
g2
Ntp1229
Rp1230
(dp1231
g27
(dp1232
g29
VNew
p1233
sg31
VO
p1234
sg33
VNNP
p1235
sg35
I24
ssg10
I119
sg36
g4
sg37
(dp1236
sg39
(dp1237
sg41
I701
sg42
g21
sg43
g21
sg44
I119
sg45
VNew
p1238
sg47
I119
sg48
I704
sbag0
(g23
g2
Ntp1239
Rp1240
(dp1241
g27
(dp1242
g29
VPhilosophers
p1243
sg31
VO
p1244
sg33
VNNPS
p1245
sg35
I25
ssg10
I120
sg36
g4
sg37
(dp1246
sg39
(dp1247
sg41
I705
sg42
g21
sg43
g21
sg44
I120
sg45
VPhilosophers
p1248
sg47
I120
sg48
I717
sbag0
(g23
g2
Ntp1249
Rp1250
(dp1251
g27
(dp1252
g29
V-lsb-
p1253
sg31
VO
p1254
sg33
V-LRB-
p1255
sg35
I26
ssg10
I121
sg36
g4
sg37
(dp1256
sg39
(dp1257
sg41
I718
sg42
g21
sg43
g21
sg44
I121
sg45
V[
p1258
sg47
I121
sg48
I719
sbag0
(g23
g2
Ntp1259
Rp1260
(dp1261
g27
(dp1262
g29
Vref
p1263
sg31
VO
p1264
sg33
VNN
p1265
sg35
I27
ssg10
I122
sg36
g4
sg37
(dp1266
sg39
(dp1267
sg41
I719
sg42
g21
sg43
g21
sg44
I122
sg45
VREF
p1268
sg47
I122
sg48
I722
sbag0
(g23
g2
Ntp1269
Rp1270
(dp1271
g27
(dp1272
g29
V-rsb-
p1273
sg31
VO
p1274
sg33
V-RRB-
p1275
sg35
I28
ssg10
I123
sg36
g4
sg37
(dp1276
sg39
(dp1277
sg41
I722
sg42
g21
sg43
g21
sg44
I123
sg45
V]
p1278
sg47
I123
sg48
I723
sbag0
(g23
g2
Ntp1279
Rp1280
(dp1281
g27
(dp1282
g29
V.
p1283
sg31
VO
p1284
sg33
V.
p1285
sg35
I29
ssg10
I124
sg36
g4
sg37
(dp1286
sg39
(dp1287
sg41
I723
sg42
g21
sg43
g21
sg44
I124
sg45
V.
p1288
sg47
I124
sg48
I724
sbag0
(g23
g2
Ntp1289
Rp1290
(dp1291
g27
(dp1292
g29
Vfiery
p1293
sg31
VO
p1294
sg33
VJJ
p1295
sg35
I1
ssg10
I125
sg36
g4
sg37
(dp1296
sg39
(dp1297
sg41
I725
sg42
g21
sg43
g21
sg44
I125
sg45
VFiery
p1298
sg47
I125
sg48
I730
sbag0
(g23
g2
Ntp1299
Rp1300
(dp1301
g27
(dp1302
g29
Vpolemic
p1303
sg31
VO
p1304
sg33
VNN
p1305
sg35
I2
ssg10
I126
sg36
g4
sg37
(dp1306
sg39
(dp1307
sg41
I731
sg42
g21
sg43
g21
sg44
I126
sg45
Vpolemic
p1308
sg47
I126
sg48
I738
sbag0
(g23
g2
Ntp1309
Rp1310
(dp1311
g27
(dp1312
g29
Von
p1313
sg31
VO
p1314
sg33
VIN
p1315
sg35
I3
ssg10
I127
sg36
g4
sg37
(dp1316
sg39
(dp1317
sg41
I739
sg42
g21
sg43
g21
sg44
I127
sg45
Von
p1318
sg47
I127
sg48
I741
sbag0
(g23
g2
Ntp1319
Rp1320
(dp1321
g27
(dp1322
g29
Vthe
p1323
sg31
VO
p1324
sg33
VDT
p1325
sg35
I4
ssg10
I128
sg36
g4
sg37
(dp1326
sg39
(dp1327
sg41
I742
sg42
g21
sg43
g21
sg44
I128
sg45
Vthe
p1328
sg47
I128
sg48
I745
sbag0
(g23
g2
Ntp1329
Rp1330
(dp1331
g27
(dp1332
g29
Vsubject
p1333
sg31
VO
p1334
sg33
VNN
p1335
sg35
I5
ssg10
I129
sg36
g4
sg37
(dp1336
sg39
(dp1337
sg41
I746
sg42
g21
sg43
g21
sg44
I129
sg45
Vsubject
p1338
sg47
I129
sg48
I753
sbag0
(g23
g2
Ntp1339
Rp1340
(dp1341
g27
(dp1342
g29
Vby
p1343
sg31
VO
p1344
sg33
VIN
p1345
sg35
I6
ssg10
I130
sg36
g4
sg37
(dp1346
sg39
(dp1347
sg41
I754
sg42
g21
sg43
g21
sg44
I130
sg45
Vby
p1348
sg47
I130
sg48
I756
sbag0
(g23
g2
Ntp1349
Rp1350
(dp1351
g27
(dp1352
g29
Vproponent
p1353
sg31
VO
p1354
sg33
VNNS
p1355
sg35
I7
ssg10
I131
sg36
g4
sg37
(dp1356
sg39
(dp1357
sg41
I757
sg42
g21
sg43
g21
sg44
I131
sg45
Vproponents
p1358
sg47
I131
sg48
I767
sbag0
(g23
g2
Ntp1359
Rp1360
(dp1361
g27
(dp1362
g29
Vlike
p1363
sg31
VO
p1364
sg33
VIN
p1365
sg35
I8
ssg10
I132
sg36
g4
sg37
(dp1366
sg39
(dp1367
sg41
I768
sg42
g21
sg43
g21
sg44
I132
sg45
Vlike
p1368
sg47
I132
sg48
I772
sbag0
(g23
g2
Ntp1369
Rp1370
(dp1371
g27
(dp1372
g29
VPascal
p1373
sg31
VPERSON
p1374
sg33
VNNP
p1375
sg35
I9
ssg10
I133
sg36
g4
sg37
(dp1376
sg39
(dp1377
sg41
I773
sg42
g21
sg43
g21
sg44
I133
sg45
VPascal
p1378
sg47
I133
sg48
I779
sbag0
(g23
g2
Ntp1379
Rp1380
(dp1381
g27
(dp1382
g29
VBruckner
p1383
sg31
VPERSON
p1384
sg33
VNNP
p1385
sg35
I10
ssg10
I134
sg36
g4
sg37
(dp1386
sg39
(dp1387
sg41
I780
sg42
g21
sg43
g21
sg44
I134
sg45
VBruckner
p1388
sg47
I134
sg48
I788
sbag0
(g23
g2
Ntp1389
Rp1390
(dp1391
g27
(dp1392
g29
V,
p1393
sg31
VO
p1394
sg33
V,
p1395
sg35
I11
ssg10
I135
sg36
g4
sg37
(dp1396
sg39
(dp1397
sg41
I788
sg42
g21
sg43
g21
sg44
I135
sg45
V,
p1398
sg47
I135
sg48
I789
sbag0
(g23
g2
Ntp1399
Rp1400
(dp1401
g27
(dp1402
g29
V-lsb-
p1403
sg31
VO
p1404
sg33
V-LRB-
p1405
sg35
I12
ssg10
I136
sg36
g4
sg37
(dp1406
sg39
(dp1407
sg41
I789
sg42
g21
sg43
g21
sg44
I136
sg45
V[
p1408
sg47
I136
sg48
I790
sbag0
(g23
g2
Ntp1409
Rp1410
(dp1411
g27
(dp1412
g29
VREF
p1413
sg31
VO
p1414
sg33
VNNP
p1415
sg35
I13
ssg10
I137
sg36
g4
sg37
(dp1416
sg39
(dp1417
sg41
I790
sg42
g21
sg43
g21
sg44
I137
sg45
VREF
p1418
sg47
I137
sg48
I793
sbag0
(g23
g2
Ntp1419
Rp1420
(dp1421
g27
(dp1422
g29
V-rsb-
p1423
sg31
VO
p1424
sg33
V-RRB-
p1425
sg35
I14
ssg10
I138
sg36
g4
sg37
(dp1426
sg39
(dp1427
sg41
I793
sg42
g21
sg43
g21
sg44
I138
sg45
V]
p1428
sg47
I138
sg48
I794
sbag0
(g23
g2
Ntp1429
Rp1430
(dp1431
g27
(dp1432
g29
Vand
p1433
sg31
VO
p1434
sg33
VCC
p1435
sg35
I15
ssg10
I139
sg36
g4
sg37
(dp1436
sg39
(dp1437
sg41
I795
sg42
g21
sg43
g21
sg44
I139
sg45
Vand
p1438
sg47
I139
sg48
I798
sbag0
(g23
g2
Ntp1439
Rp1440
(dp1441
g27
(dp1442
g29
VPaul
p1443
sg31
VPERSON
p1444
sg33
VNNP
p1445
sg35
I16
ssg10
I140
sg36
g4
sg37
(dp1446
sg39
(dp1447
sg41
I799
sg42
g21
sg43
g21
sg44
I140
sg45
VPaul
p1448
sg47
I140
sg48
I803
sbag0
(g23
g2
Ntp1449
Rp1450
(dp1451
g27
(dp1452
g29
VCliteur
p1453
sg31
VPERSON
p1454
sg33
VNNP
p1455
sg35
I17
ssg10
I141
sg36
g4
sg37
(dp1456
sg39
(dp1457
sg41
I804
sg42
g21
sg43
g21
sg44
I141
sg45
VCliteur
p1458
sg47
I141
sg48
I811
sbag0
(g23
g2
Ntp1459
Rp1460
(dp1461
g27
(dp1462
g29
Vhave
p1463
sg31
VO
p1464
sg33
VVBZ
p1465
sg35
I18
ssg10
I142
sg36
g4
sg37
(dp1466
sg39
(dp1467
sg41
I812
sg42
g21
sg43
g21
sg44
I142
sg45
Vhas
p1468
sg47
I142
sg48
I815
sbag0
(g23
g2
Ntp1469
Rp1470
(dp1471
g27
(dp1472
g29
Vkindle
p1473
sg31
VO
p1474
sg33
VVBN
p1475
sg35
I19
ssg10
I143
sg36
g4
sg37
(dp1476
sg39
(dp1477
sg41
I816
sg42
g21
sg43
g21
sg44
I143
sg45
Vkindled
p1478
sg47
I143
sg48
I823
sbag0
(g23
g2
Ntp1479
Rp1480
(dp1481
g27
(dp1482
g29
Vinternational
p1483
sg31
VO
p1484
sg33
VJJ
p1485
sg35
I20
ssg10
I144
sg36
g4
sg37
(dp1486
sg39
(dp1487
sg41
I824
sg42
g21
sg43
g21
sg44
I144
sg45
Vinternational
p1488
sg47
I144
sg48
I837
sbag0
(g23
g2
Ntp1489
Rp1490
(dp1491
g27
(dp1492
g29
Vdebate
p1493
sg31
VO
p1494
sg33
VNN
p1495
sg35
I21
ssg10
I145
sg36
g4
sg37
(dp1496
sg39
(dp1497
sg41
I838
sg42
g21
sg43
g21
sg44
I145
sg45
Vdebate
p1498
sg47
I145
sg48
I844
sbag0
(g23
g2
Ntp1499
Rp1500
(dp1501
g27
(dp1502
g29
V-lsb-
p1503
sg31
VO
p1504
sg33
V-LRB-
p1505
sg35
I22
ssg10
I146
sg36
g4
sg37
(dp1506
sg39
(dp1507
sg41
I845
sg42
g21
sg43
g21
sg44
I146
sg45
V[
p1508
sg47
I146
sg48
I846
sbag0
(g23
g2
Ntp1509
Rp1510
(dp1511
g27
(dp1512
g29
Vref
p1513
sg31
VO
p1514
sg33
VNN
p1515
sg35
I23
ssg10
I147
sg36
g4
sg37
(dp1516
sg39
(dp1517
sg41
I846
sg42
g21
sg43
g21
sg44
I147
sg45
VREF
p1518
sg47
I147
sg48
I849
sbag0
(g23
g2
Ntp1519
Rp1520
(dp1521
g27
(dp1522
g29
V-rsb-
p1523
sg31
VO
p1524
sg33
V-RRB-
p1525
sg35
I24
ssg10
I148
sg36
g4
sg37
(dp1526
sg39
(dp1527
sg41
I849
sg42
g21
sg43
g21
sg44
I148
sg45
V]
p1528
sg47
I148
sg48
I850
sbag0
(g23
g2
Ntp1529
Rp1530
(dp1531
g27
(dp1532
g29
V.
p1533
sg31
VO
p1534
sg33
V.
p1535
sg35
I25
ssg10
I149
sg36
g4
sg37
(dp1536
sg39
(dp1537
sg41
I850
sg42
g21
sg43
g21
sg44
I149
sg45
V.
p1538
sg47
I149
sg48
I851
sbag0
(g23
g2
Ntp1539
Rp1540
(dp1541
g27
(dp1542
g29
Vopinion
p1543
sg31
VO
p1544
sg33
VNN
p1545
sg35
I1
ssg10
I150
sg36
g4
sg37
(dp1546
sg39
(dp1547
sg41
I854
sg42
g21
sg43
g21
sg44
I150
sg45
VOpinion
p1548
sg47
I150
sg48
I861
sbag0
(g23
g2
Ntp1549
Rp1550
(dp1551
g27
(dp1552
g29
Vpoll
p1553
sg31
VO
p1554
sg33
VNNS
p1555
sg35
I2
ssg10
I151
sg36
g4
sg37
(dp1556
sg39
(dp1557
sg41
I862
sg42
g21
sg43
g21
sg44
I151
sg45
Vpolls
p1558
sg47
I151
sg48
I867
sbag0
(g23
g2
Ntp1559
Rp1560
(dp1561
g27
(dp1562
g29
Vamong
p1563
sg31
VO
p1564
sg33
VIN
p1565
sg35
I3
ssg10
I152
sg36
g4
sg37
(dp1566
sg39
(dp1567
sg41
I868
sg42
g21
sg43
g21
sg44
I152
sg45
Vamong
p1568
sg47
I152
sg48
I873
sbag0
(g23
g2
Ntp1569
Rp1570
(dp1571
g27
(dp1572
g29
Vfirst
p1573
sg31
VORDINAL
p1574
sg33
VJJ
p1575
sg35
I4
ssg10
I153
sg36
g4
sg37
(dp1576
sg39
(dp1577
sg41
I874
sg42
g21
sg43
g21
sg44
I153
sg45
Vfirst
p1578
sg47
I153
sg48
I879
sbag0
(g23
g2
Ntp1579
Rp1580
(dp1581
g27
(dp1582
g29
Vand
p1583
sg31
VORDINAL
p1584
sg33
VCC
p1585
sg35
I5
ssg10
I154
sg36
g4
sg37
(dp1586
sg39
(dp1587
sg41
I880
sg42
g21
sg43
g21
sg44
I154
sg45
Vand
p1588
sg47
I154
sg48
I883
sbag0
(g23
g2
Ntp1589
Rp1590
(dp1591
g27
(dp1592
g29
Vsecond
p1593
sg31
VORDINAL
p1594
sg33
VJJ
p1595
sg35
I6
ssg10
I155
sg36
g4
sg37
(dp1596
sg39
(dp1597
sg41
I884
sg42
g21
sg43
g21
sg44
I155
sg45
Vsecond
p1598
sg47
I155
sg48
I890
sbag0
(g23
g2
Ntp1599
Rp1600
(dp1601
g27
(dp1602
g29
Vgeneration
p1603
sg31
VO
p1604
sg33
VNN
p1605
sg35
I7
ssg10
I156
sg36
g4
sg37
(dp1606
sg39
(dp1607
sg41
I891
sg42
g21
sg43
g21
sg44
I156
sg45
Vgeneration
p1608
sg47
I156
sg48
I901
sbag0
(g23
g2
Ntp1609
Rp1610
(dp1611
g27
(dp1612
g29
Vmuslim
p1613
sg31
VO
p1614
sg33
VNN
p1615
sg35
I8
ssg10
I157
sg36
g4
sg37
(dp1616
sg39
(dp1617
sg41
I902
sg42
g21
sg43
g21
sg44
I157
sg45
Vmuslim
p1618
sg47
I157
sg48
I908
sbag0
(g23
g2
Ntp1619
Rp1620
(dp1621
g27
(dp1622
g29
Vimmigrant
p1623
sg31
VO
p1624
sg33
VNNS
p1625
sg35
I9
ssg10
I158
sg36
g4
sg37
(dp1626
sg39
(dp1627
sg41
I909
sg42
g21
sg43
g21
sg44
I158
sg45
Vimmigrants
p1628
sg47
I158
sg48
I919
sbag0
(g23
g2
Ntp1629
Rp1630
(dp1631
g27
(dp1632
g29
Vin
p1633
sg31
VO
p1634
sg33
VIN
p1635
sg35
I10
ssg10
I159
sg36
g4
sg37
(dp1636
sg39
(dp1637
sg41
I920
sg42
g21
sg43
g21
sg44
I159
sg45
Vin
p1638
sg47
I159
sg48
I922
sbag0
(g23
g2
Ntp1639
Rp1640
(dp1641
g27
(dp1642
g29
Vwestern
p1643
sg31
VO
p1644
sg33
VJJ
p1645
sg35
I11
ssg10
I160
sg36
g4
sg37
(dp1646
sg39
(dp1647
sg41
I923
sg42
g21
sg43
g21
sg44
I160
sg45
Vwestern
p1648
sg47
I160
sg48
I930
sbag0
(g23
g2
Ntp1649
Rp1650
(dp1651
g27
(dp1652
g29
VEurope
p1653
sg31
VLOCATION
p1654
sg33
VNNP
p1655
sg35
I12
ssg10
I161
sg36
g4
sg37
(dp1656
sg39
(dp1657
sg41
I931
sg42
g21
sg43
g21
sg44
I161
sg45
VEurope
p1658
sg47
I161
sg48
I937
sbag0
(g23
g2
Ntp1659
Rp1660
(dp1661
g27
(dp1662
g29
Vshow
p1663
sg31
VO
p1664
sg33
VNN
p1665
sg35
I13
ssg10
I162
sg36
g4
sg37
(dp1666
sg39
(dp1667
sg41
I938
sg42
g21
sg43
g21
sg44
I162
sg45
Vshow
p1668
sg47
I162
sg48
I942
sbag0
(g23
g2
Ntp1669
Rp1670
(dp1671
g27
(dp1672
g29
Vrelatively
p1673
sg31
VO
p1674
sg33
VRB
p1675
sg35
I14
ssg10
I163
sg36
g4
sg37
(dp1676
sg39
(dp1677
sg41
I943
sg42
g21
sg43
g21
sg44
I163
sg45
Vrelatively
p1678
sg47
I163
sg48
I953
sbag0
(g23
g2
Ntp1679
Rp1680
(dp1681
g27
(dp1682
g29
Vlittle
p1683
sg31
VO
p1684
sg33
VJJ
p1685
sg35
I15
ssg10
I164
sg36
g4
sg37
(dp1686
sg39
(dp1687
sg41
I954
sg42
g21
sg43
g21
sg44
I164
sg45
Vlittle
p1688
sg47
I164
sg48
I960
sbag0
(g23
g2
Ntp1689
Rp1690
(dp1691
g27
(dp1692
g29
Vacceptance
p1693
sg31
VO
p1694
sg33
VNN
p1695
sg35
I16
ssg10
I165
sg36
g4
sg37
(dp1696
sg39
(dp1697
sg41
I961
sg42
g21
sg43
g21
sg44
I165
sg45
Vacceptance
p1698
sg47
I165
sg48
I971
sbag0
(g23
g2
Ntp1699
Rp1700
(dp1701
g27
(dp1702
g29
Vof
p1703
sg31
VO
p1704
sg33
VIN
p1705
sg35
I17
ssg10
I166
sg36
g4
sg37
(dp1706
sg39
(dp1707
sg41
I972
sg42
g21
sg43
g21
sg44
I166
sg45
Vof
p1708
sg47
I166
sg48
I974
sbag0
(g23
g2
Ntp1709
Rp1710
(dp1711
g27
(dp1712
g29
Vsecular
p1713
sg31
VO
p1714
sg33
VJJ
p1715
sg35
I18
ssg10
I167
sg36
g4
sg37
(dp1716
sg39
(dp1717
sg41
I975
sg42
g21
sg43
g21
sg44
I167
sg45
Vsecular
p1718
sg47
I167
sg48
I982
sbag0
(g23
g2
Ntp1719
Rp1720
(dp1721
g27
(dp1722
g29
Videa
p1723
sg31
VO
p1724
sg33
VNNS
p1725
sg35
I19
ssg10
I168
sg36
g4
sg37
(dp1726
sg39
(dp1727
sg41
I983
sg42
g21
sg43
g21
sg44
I168
sg45
Videas
p1728
sg47
I168
sg48
I988
sbag0
(g23
g2
Ntp1729
Rp1730
(dp1731
g27
(dp1732
g29
Vsuch
p1733
sg31
VO
p1734
sg33
VJJ
p1735
sg35
I20
ssg10
I169
sg36
g4
sg37
(dp1736
sg39
(dp1737
sg41
I989
sg42
g21
sg43
g21
sg44
I169
sg45
Vsuch
p1738
sg47
I169
sg48
I993
sbag0
(g23
g2
Ntp1739
Rp1740
(dp1741
g27
(dp1742
g29
Vas
p1743
sg31
VO
p1744
sg33
VIN
p1745
sg35
I21
ssg10
I170
sg36
g4
sg37
(dp1746
sg39
(dp1747
sg41
I994
sg42
g21
sg43
g21
sg44
I170
sg45
Vas
p1748
sg47
I170
sg48
I996
sbag0
(g23
g2
Ntp1749
Rp1750
(dp1751
g27
(dp1752
g29
Vseparation
p1753
sg31
VO
p1754
sg33
VNN
p1755
sg35
I22
ssg10
I171
sg36
g4
sg37
(dp1756
sg39
(dp1757
sg41
I997
sg42
g21
sg43
g21
sg44
I171
sg45
Vseparation
p1758
sg47
I171
sg48
I1007
sbag0
(g23
g2
Ntp1759
Rp1760
(dp1761
g27
(dp1762
g29
Vof
p1763
sg31
VO
p1764
sg33
VIN
p1765
sg35
I23
ssg10
I172
sg36
g4
sg37
(dp1766
sg39
(dp1767
sg41
I1008
sg42
g21
sg43
g21
sg44
I172
sg45
Vof
p1768
sg47
I172
sg48
I1010
sbag0
(g23
g2
Ntp1769
Rp1770
(dp1771
g27
(dp1772
g29
Vreligion
p1773
sg31
VO
p1774
sg33
VNN
p1775
sg35
I24
ssg10
I173
sg36
g4
sg37
(dp1776
sg39
(dp1777
sg41
I1011
sg42
g21
sg43
g21
sg44
I173
sg45
Vreligion
p1778
sg47
I173
sg48
I1019
sbag0
(g23
g2
Ntp1779
Rp1780
(dp1781
g27
(dp1782
g29
Vand
p1783
sg31
VO
p1784
sg33
VCC
p1785
sg35
I25
ssg10
I174
sg36
g4
sg37
(dp1786
sg39
(dp1787
sg41
I1020
sg42
g21
sg43
g21
sg44
I174
sg45
Vand
p1788
sg47
I174
sg48
I1023
sbag0
(g23
g2
Ntp1789
Rp1790
(dp1791
g27
(dp1792
g29
Vstate
p1793
sg31
VO
p1794
sg33
VNN
p1795
sg35
I26
ssg10
I175
sg36
g4
sg37
(dp1796
sg39
(dp1797
sg41
I1024
sg42
g21
sg43
g21
sg44
I175
sg45
Vstate
p1798
sg47
I175
sg48
I1029
sbag0
(g23
g2
Ntp1799
Rp1800
(dp1801
g27
(dp1802
g29
V,
p1803
sg31
VO
p1804
sg33
V,
p1805
sg35
I27
ssg10
I176
sg36
g4
sg37
(dp1806
sg39
(dp1807
sg41
I1029
sg42
g21
sg43
g21
sg44
I176
sg45
V,
p1808
sg47
I176
sg48
I1030
sbag0
(g23
g2
Ntp1809
Rp1810
(dp1811
g27
(dp1812
g29
Vreligious
p1813
sg31
VO
p1814
sg33
VJJ
p1815
sg35
I28
ssg10
I177
sg36
g4
sg37
(dp1816
sg39
(dp1817
sg41
I1031
sg42
g21
sg43
g21
sg44
I177
sg45
Vreligious
p1818
sg47
I177
sg48
I1040
sbag0
(g23
g2
Ntp1819
Rp1820
(dp1821
g27
(dp1822
g29
Vfreedom
p1823
sg31
VO
p1824
sg33
VNN
p1825
sg35
I29
ssg10
I178
sg36
g4
sg37
(dp1826
sg39
(dp1827
sg41
I1041
sg42
g21
sg43
g21
sg44
I178
sg45
Vfreedom
p1828
sg47
I178
sg48
I1048
sbag0
(g23
g2
Ntp1829
Rp1830
(dp1831
g27
(dp1832
g29
V,
p1833
sg31
VO
p1834
sg33
V,
p1835
sg35
I30
ssg10
I179
sg36
g4
sg37
(dp1836
sg39
(dp1837
sg41
I1048
sg42
g21
sg43
g21
sg44
I179
sg45
V,
p1838
sg47
I179
sg48
I1049
sbag0
(g23
g2
Ntp1839
Rp1840
(dp1841
g27
(dp1842
g29
Vlgbt
p1843
sg31
VMISC
p1844
sg33
VNN
p1845
sg35
I31
ssg10
I180
sg36
g4
sg37
(dp1846
sg39
(dp1847
sg41
I1050
sg42
g21
sg43
g21
sg44
I180
sg45
VLGBT
p1848
sg47
I180
sg48
I1054
sbag0
(g23
g2
Ntp1849
Rp1850
(dp1851
g27
(dp1852
g29
Vrights
p1853
sg31
VO
p1854
sg33
VNNS
p1855
sg35
I32
ssg10
I181
sg36
g4
sg37
(dp1856
sg39
(dp1857
sg41
I1055
sg42
g21
sg43
g21
sg44
I181
sg45
Vrights
p1858
sg47
I181
sg48
I1061
sbag0
(g23
g2
Ntp1859
Rp1860
(dp1861
g27
(dp1862
g29
V,
p1863
sg31
VO
p1864
sg33
V,
p1865
sg35
I33
ssg10
I182
sg36
g4
sg37
(dp1866
sg39
(dp1867
sg41
I1061
sg42
g21
sg43
g21
sg44
I182
sg45
V,
p1868
sg47
I182
sg48
I1062
sbag0
(g23
g2
Ntp1869
Rp1870
(dp1871
g27
(dp1872
g29
Vgender
p1873
sg31
VO
p1874
sg33
VNN
p1875
sg35
I34
ssg10
I183
sg36
g4
sg37
(dp1876
sg39
(dp1877
sg41
I1063
sg42
g21
sg43
g21
sg44
I183
sg45
Vgender
p1878
sg47
I183
sg48
I1069
sbag0
(g23
g2
Ntp1879
Rp1880
(dp1881
g27
(dp1882
g29
Vequality
p1883
sg31
VO
p1884
sg33
VNN
p1885
sg35
I35
ssg10
I184
sg36
g4
sg37
(dp1886
sg39
(dp1887
sg41
I1070
sg42
g21
sg43
g21
sg44
I184
sg45
Vequality
p1888
sg47
I184
sg48
I1078
sbag0
(g23
g2
Ntp1889
Rp1890
(dp1891
g27
(dp1892
g29
Vand
p1893
sg31
VO
p1894
sg33
VCC
p1895
sg35
I36
ssg10
I185
sg36
g4
sg37
(dp1896
sg39
(dp1897
sg41
I1079
sg42
g21
sg43
g21
sg44
I185
sg45
Vand
p1898
sg47
I185
sg48
I1082
sbag0
(g23
g2
Ntp1899
Rp1900
(dp1901
g27
(dp1902
g29
Vwoman
p1903
sg31
VO
p1904
sg33
VNN
p1905
sg35
I37
ssg10
I186
sg36
g4
sg37
(dp1906
sg39
(dp1907
sg41
I1083
sg42
g21
sg43
g21
sg44
I186
sg45
Vwoman
p1908
sg47
I186
sg48
I1088
sbag0
(g23
g2
Ntp1909
Rp1910
(dp1911
g27
(dp1912
g29
Vrights
p1913
sg31
VO
p1914
sg33
VNNS
p1915
sg35
I38
ssg10
I187
sg36
g4
sg37
(dp1916
sg39
(dp1917
sg41
I1089
sg42
g21
sg43
g21
sg44
I187
sg45
Vrights
p1918
sg47
I187
sg48
I1095
sbag0
(g23
g2
Ntp1919
Rp1920
(dp1921
g27
(dp1922
g29
V.
p1923
sg31
VO
p1924
sg33
V.
p1925
sg35
I39
ssg10
I188
sg36
g4
sg37
(dp1926
sg39
(dp1927
sg41
I1095
sg42
g21
sg43
g21
sg44
I188
sg45
V.
p1928
sg47
I188
sg48
I1096
sbag0
(g23
g2
Ntp1929
Rp1930
(dp1931
g27
(dp1932
g29
Vin
p1933
sg31
VO
p1934
sg33
VIN
p1935
sg35
I1
ssg10
I189
sg36
g4
sg37
(dp1936
sg39
(dp1937
sg41
I1097
sg42
g21
sg43
g21
sg44
I189
sg45
VIn
p1938
sg47
I189
sg48
I1099
sbag0
(g23
g2
Ntp1939
Rp1940
(dp1941
g27
(dp1942
g29
Vthe
p1943
sg31
VO
p1944
sg33
VDT
p1945
sg35
I2
ssg10
I190
sg36
g4
sg37
(dp1946
sg39
(dp1947
sg41
I1100
sg42
g21
sg43
g21
sg44
I190
sg45
Vthe
p1948
sg47
I190
sg48
I1103
sbag0
(g23
g2
Ntp1949
Rp1950
(dp1951
g27
(dp1952
g29
VUK
p1953
sg31
VLOCATION
p1954
sg33
VNNP
p1955
sg35
I3
ssg10
I191
sg36
g4
sg37
(dp1956
sg39
(dp1957
sg41
I1104
sg42
g21
sg43
g21
sg44
I191
sg45
VUK
p1958
sg47
I191
sg48
I1106
sbag0
(g23
g2
Ntp1959
Rp1960
(dp1961
g27
(dp1962
g29
V,
p1963
sg31
VO
p1964
sg33
V,
p1965
sg35
I4
ssg10
I192
sg36
g4
sg37
(dp1966
sg39
(dp1967
sg41
I1106
sg42
g21
sg43
g21
sg44
I192
sg45
V,
p1968
sg47
I192
sg48
I1107
sbag0
(g23
g2
Ntp1969
Rp1970
(dp1971
g27
(dp1972
g29
Va
p1973
sg31
VO
p1974
sg33
VDT
p1975
sg35
I5
ssg10
I193
sg36
g4
sg37
(dp1976
sg39
(dp1977
sg41
I1108
sg42
g21
sg43
g21
sg44
I193
sg45
Va
p1978
sg47
I193
sg48
I1109
sbag0
(g23
g2
Ntp1979
Rp1980
(dp1981
g27
(dp1982
g29
VGallup
p1983
sg31
VORGANIZATION
p1984
sg33
VNNP
p1985
sg35
I6
ssg10
I194
sg36
g4
sg37
(dp1986
sg39
(dp1987
sg41
I1110
sg42
g21
sg43
g21
sg44
I194
sg45
VGallup
p1988
sg47
I194
sg48
I1116
sbag0
(g23
g2
Ntp1989
Rp1990
(dp1991
g27
(dp1992
g29
Vpoll
p1993
sg31
VO
p1994
sg33
VNN
p1995
sg35
I7
ssg10
I195
sg36
g4
sg37
(dp1996
sg39
(dp1997
sg41
I1117
sg42
g21
sg43
g21
sg44
I195
sg45
Vpoll
p1998
sg47
I195
sg48
I1121
sbag0
(g23
g2
Ntp1999
Rp2000
(dp2001
g27
(dp2002
g29
Vshow
p2003
sg31
VO
p2004
sg33
VVBD
p2005
sg35
I8
ssg10
I196
sg36
g4
sg37
(dp2006
sg39
(dp2007
sg41
I1122
sg42
g21
sg43
g21
sg44
I196
sg45
Vshowed
p2008
sg47
I196
sg48
I1128
sbag0
(g23
g2
Ntp2009
Rp2010
(dp2011
g27
(dp2012
g29
Vthat
p2013
sg31
VO
p2014
sg33
VIN
p2015
sg35
I9
ssg10
I197
sg36
g4
sg37
(dp2016
sg39
(dp2017
sg41
I1129
sg42
g21
sg43
g21
sg44
I197
sg45
Vthat
p2018
sg47
I197
sg48
I1133
sbag0
(g23
g2
Ntp2019
Rp2020
(dp2021
g27
(dp2022
g29
Vnone
p2023
sg31
VO
p2024
sg33
VNN
p2025
sg35
I10
ssg10
I198
sg36
g4
sg37
(dp2026
sg39
(dp2027
sg41
I1134
sg42
g21
sg43
g21
sg44
I198
sg45
Vnone
p2028
sg47
I198
sg48
I1138
sbag0
(g23
g2
Ntp2029
Rp2030
(dp2031
g27
(dp2032
g29
Vof
p2033
sg31
VO
p2034
sg33
VIN
p2035
sg35
I11
ssg10
I199
sg36
g4
sg37
(dp2036
sg39
(dp2037
sg41
I1139
sg42
g21
sg43
g21
sg44
I199
sg45
Vof
p2038
sg47
I199
sg48
I1141
sbag0
(g23
g2
Ntp2039
Rp2040
(dp2041
g27
(dp2042
g29
Vthe
p2043
sg31
VO
p2044
sg33
VDT
p2045
sg35
I12
ssg10
I200
sg36
g4
sg37
(dp2046
sg39
(dp2047
sg41
I1142
sg42
g21
sg43
g21
sg44
I200
sg45
Vthe
p2048
sg47
I200
sg48
I1145
sbag0
(g23
g2
Ntp2049
Rp2050
(dp2051
g27
(dp2052
g29
V500
p2053
sg31
VNUMBER
p2054
sg33
VCD
p2055
sg35
I13
ssg10
I201
sg36
g4
sg37
(dp2056
sg39
(dp2057
sg41
I1146
sg42
g21
sg43
g21
sg44
I201
sg45
V500
p2058
sg47
I201
sg48
I1149
sbag0
(g23
g2
Ntp2059
Rp2060
(dp2061
g27
(dp2062
g29
Vbritish
p2063
sg31
VMISC
p2064
sg33
VJJ
p2065
sg35
I14
ssg10
I202
sg36
g4
sg37
(dp2066
sg39
(dp2067
sg41
I1150
sg42
g21
sg43
g21
sg44
I202
sg45
VBritish
p2068
sg47
I202
sg48
I1157
sbag0
(g23
g2
Ntp2069
Rp2070
(dp2071
g27
(dp2072
g29
VMuslims
p2073
sg31
VMISC
p2074
sg33
VNNPS
p2075
sg35
I15
ssg10
I203
sg36
g4
sg37
(dp2076
sg39
(dp2077
sg41
I1158
sg42
g21
sg43
g21
sg44
I203
sg45
VMuslims
p2078
sg47
I203
sg48
I1165
sbag0
(g23
g2
Ntp2079
Rp2080
(dp2081
g27
(dp2082
g29
Vpoll
p2083
sg31
VO
p2084
sg33
VVBN
p2085
sg35
I16
ssg10
I204
sg36
g4
sg37
(dp2086
sg39
(dp2087
sg41
I1166
sg42
g21
sg43
g21
sg44
I204
sg45
Vpolled
p2088
sg47
I204
sg48
I1172
sbag0
(g23
g2
Ntp2089
Rp2090
(dp2091
g27
(dp2092
g29
Vbelieve
p2093
sg31
VO
p2094
sg33
VVBN
p2095
sg35
I17
ssg10
I205
sg36
g4
sg37
(dp2096
sg39
(dp2097
sg41
I1173
sg42
g21
sg43
g21
sg44
I205
sg45
Vbelieved
p2098
sg47
I205
sg48
I1181
sbag0
(g23
g2
Ntp2099
Rp2100
(dp2101
g27
(dp2102
g29
Vhomosexuality
p2103
sg31
VO
p2104
sg33
VNN
p2105
sg35
I18
ssg10
I206
sg36
g4
sg37
(dp2106
sg39
(dp2107
sg41
I1182
sg42
g21
sg43
g21
sg44
I206
sg45
Vhomosexuality
p2108
sg47
I206
sg48
I1195
sbag0
(g23
g2
Ntp2109
Rp2110
(dp2111
g27
(dp2112
g29
Vto
p2113
sg31
VO
p2114
sg33
VTO
p2115
sg35
I19
ssg10
I207
sg36
g4
sg37
(dp2116
sg39
(dp2117
sg41
I1196
sg42
g21
sg43
g21
sg44
I207
sg45
Vto
p2118
sg47
I207
sg48
I1198
sbag0
(g23
g2
Ntp2119
Rp2120
(dp2121
g27
(dp2122
g29
Vbe
p2123
sg31
VO
p2124
sg33
VVB
p2125
sg35
I20
ssg10
I208
sg36
g4
sg37
(dp2126
sg39
(dp2127
sg41
I1199
sg42
g21
sg43
g21
sg44
I208
sg45
Vbe
p2128
sg47
I208
sg48
I1201
sbag0
(g23
g2
Ntp2129
Rp2130
(dp2131
g27
(dp2132
g29
V``
p2133
sg31
VO
p2134
sg33
V``
p2135
sg35
I21
ssg10
I209
sg36
g4
sg37
(dp2136
sg39
(dp2137
sg41
I1202
sg42
g21
sg43
g21
sg44
I209
sg45
V"
p2138
sg47
I209
sg48
I1203
sbag0
(g23
g2
Ntp2139
Rp2140
(dp2141
g27
(dp2142
g29
Vmorally
p2143
sg31
VO
p2144
sg33
VRB
p2145
sg35
I22
ssg10
I210
sg36
g4
sg37
(dp2146
sg39
(dp2147
sg41
I1203
sg42
g21
sg43
g21
sg44
I210
sg45
Vmorally
p2148
sg47
I210
sg48
I1210
sbag0
(g23
g2
Ntp2149
Rp2150
(dp2151
g27
(dp2152
g29
Vacceptable
p2153
sg31
VO
p2154
sg33
VJJ
p2155
sg35
I23
ssg10
I211
sg36
g4
sg37
(dp2156
sg39
(dp2157
sg41
I1211
sg42
g21
sg43
g21
sg44
I211
sg45
Vacceptable
p2158
sg47
I211
sg48
I1221
sbag0
(g23
g2
Ntp2159
Rp2160
(dp2161
g27
(dp2162
g29
V''
p2163
sg31
VO
p2164
sg33
V''
p2165
sg35
I24
ssg10
I212
sg36
g4
sg37
(dp2166
sg39
(dp2167
sg41
I1221
sg42
g21
sg43
g21
sg44
I212
sg45
g2138
sg47
I212
sg48
I1222
sbag0
(g23
g2
Ntp2168
Rp2169
(dp2170
g27
(dp2171
g29
V,
p2172
sg31
VO
p2173
sg33
V,
p2174
sg35
I25
ssg10
I213
sg36
g4
sg37
(dp2175
sg39
(dp2176
sg41
I1222
sg42
g21
sg43
g21
sg44
I213
sg45
V,
p2177
sg47
I213
sg48
I1223
sbag0
(g23
g2
Ntp2178
Rp2179
(dp2180
g27
(dp2181
g29
Vcompare
p2182
sg31
VO
p2183
sg33
VVBN
p2184
sg35
I26
ssg10
I214
sg36
g4
sg37
(dp2185
sg39
(dp2186
sg41
I1224
sg42
g21
sg43
g21
sg44
I214
sg45
Vcompared
p2187
sg47
I214
sg48
I1232
sbag0
(g23
g2
Ntp2188
Rp2189
(dp2190
g27
(dp2191
g29
Vwith
p2192
sg31
VO
p2193
sg33
VIN
p2194
sg35
I27
ssg10
I215
sg36
g4
sg37
(dp2195
sg39
(dp2196
sg41
I1233
sg42
g21
sg43
g21
sg44
I215
sg45
Vwith
p2197
sg47
I215
sg48
I1237
sbag0
(g23
g2
Ntp2198
Rp2199
(dp2200
g27
(dp2201
g29
V35
p2202
sg31
VPERCENT
p2203
sg33
VCD
p2204
sg35
I28
ssg10
I216
sg36
g4
sg37
(dp2205
sg39
(dp2206
sg41
I1238
sg42
g21
sg43
g21
sg44
I216
sg45
V35
p2207
sg47
I216
sg48
I1240
sbag0
(g23
g2
Ntp2208
Rp2209
(dp2210
g27
(dp2211
g29
V%
p2212
sg31
VPERCENT
p2213
sg33
VNN
p2214
sg35
I29
ssg10
I217
sg36
g4
sg37
(dp2215
sg39
(dp2216
sg41
I1240
sg42
g21
sg43
g21
sg44
I217
sg45
V%
p2217
sg47
I217
sg48
I1241
sbag0
(g23
g2
Ntp2218
Rp2219
(dp2220
g27
(dp2221
g29
Vof
p2222
sg31
VO
p2223
sg33
VIN
p2224
sg35
I30
ssg10
I218
sg36
g4
sg37
(dp2225
sg39
(dp2226
sg41
I1242
sg42
g21
sg43
g21
sg44
I218
sg45
Vof
p2227
sg47
I218
sg48
I1244
sbag0
(g23
g2
Ntp2228
Rp2229
(dp2230
g27
(dp2231
g29
Vthe
p2232
sg31
VO
p2233
sg33
VDT
p2234
sg35
I31
ssg10
I219
sg36
g4
sg37
(dp2235
sg39
(dp2236
sg41
I1245
sg42
g21
sg43
g21
sg44
I219
sg45
Vthe
p2237
sg47
I219
sg48
I1248
sbag0
(g23
g2
Ntp2238
Rp2239
(dp2240
g27
(dp2241
g29
V1001
p2242
sg31
VDATE
p2243
sg33
VCD
p2244
sg35
I32
ssg10
I220
sg36
g4
sg37
(dp2245
sg39
(dp2246
sg41
I1249
sg42
g21
sg43
g21
sg44
I220
sg45
V1001
p2247
sg47
I220
sg48
I1253
sbag0
(g23
g2
Ntp2248
Rp2249
(dp2250
g27
(dp2251
g29
Vfrench
p2252
sg31
VMISC
p2253
sg33
VJJ
p2254
sg35
I33
ssg10
I221
sg36
g4
sg37
(dp2255
sg39
(dp2256
sg41
I1254
sg42
g21
sg43
g21
sg44
I221
sg45
VFrench
p2257
sg47
I221
sg48
I1260
sbag0
(g23
g2
Ntp2258
Rp2259
(dp2260
g27
(dp2261
g29
VMuslims
p2262
sg31
VMISC
p2263
sg33
VNNPS
p2264
sg35
I34
ssg10
I222
sg36
g4
sg37
(dp2265
sg39
(dp2266
sg41
I1261
sg42
g21
sg43
g21
sg44
I222
sg45
VMuslims
p2267
sg47
I222
sg48
I1268
sbag0
(g23
g2
Ntp2268
Rp2269
(dp2270
g27
(dp2271
g29
Vpoll
p2272
sg31
VO
p2273
sg33
VVBN
p2274
sg35
I35
ssg10
I223
sg36
g4
sg37
(dp2275
sg39
(dp2276
sg41
I1269
sg42
g21
sg43
g21
sg44
I223
sg45
Vpolled
p2277
sg47
I223
sg48
I1275
sbag0
(g23
g2
Ntp2278
Rp2279
(dp2280
g27
(dp2281
g29
V-lsb-
p2282
sg31
VO
p2283
sg33
V-LRB-
p2284
sg35
I36
ssg10
I224
sg36
g4
sg37
(dp2285
sg39
(dp2286
sg41
I1276
sg42
g21
sg43
g21
sg44
I224
sg45
V[
p2287
sg47
I224
sg48
I1277
sbag0
(g23
g2
Ntp2288
Rp2289
(dp2290
g27
(dp2291
g29
Vref
p2292
sg31
VO
p2293
sg33
VNN
p2294
sg35
I37
ssg10
I225
sg36
g4
sg37
(dp2295
sg39
(dp2296
sg41
I1277
sg42
g21
sg43
g21
sg44
I225
sg45
VREF
p2297
sg47
I225
sg48
I1280
sbag0
(g23
g2
Ntp2298
Rp2299
(dp2300
g27
(dp2301
g29
V-rsb-
p2302
sg31
VO
p2303
sg33
V-RRB-
p2304
sg35
I38
ssg10
I226
sg36
g4
sg37
(dp2305
sg39
(dp2306
sg41
I1280
sg42
g21
sg43
g21
sg44
I226
sg45
V]
p2307
sg47
I226
sg48
I1281
sbag0
(g23
g2
Ntp2308
Rp2309
(dp2310
g27
(dp2311
g29
V.
p2312
sg31
VO
p2313
sg33
V.
p2314
sg35
I39
ssg10
I227
sg36
g4
sg37
(dp2315
sg39
(dp2316
sg41
I1281
sg42
g21
sg43
g21
sg44
I227
sg45
V.
p2317
sg47
I227
sg48
I1282
sbag0
(g23
g2
Ntp2318
Rp2319
(dp2320
g27
(dp2321
g29
Va
p2322
sg31
VO
p2323
sg33
VDT
p2324
sg35
I1
ssg10
I228
sg36
g4
sg37
(dp2325
sg39
(dp2326
sg41
I1283
sg42
g21
sg43
g21
sg44
I228
sg45
VA
p2327
sg47
I228
sg48
I1284
sbag0
(g23
g2
Ntp2328
Rp2329
(dp2330
g27
(dp2331
g29
V2007
p2332
sg31
VDATE
p2333
sg33
VCD
p2334
sg35
I2
ssg10
I229
sg36
g4
sg37
(dp2335
sg39
(dp2336
sg41
I1285
sg42
g21
sg43
g21
sg44
I229
sg45
V2007
p2337
sg47
I229
sg48
I1289
sbag0
(g23
g2
Ntp2338
Rp2339
(dp2340
g27
(dp2341
g29
Vsurvey
p2342
sg31
VO
p2343
sg33
VNN
p2344
sg35
I3
ssg10
I230
sg36
g4
sg37
(dp2345
sg39
(dp2346
sg41
I1290
sg42
g21
sg43
g21
sg44
I230
sg45
Vsurvey
p2347
sg47
I230
sg48
I1296
sbag0
(g23
g2
Ntp2348
Rp2349
(dp2350
g27
(dp2351
g29
Vof
p2352
sg31
VO
p2353
sg33
VIN
p2354
sg35
I4
ssg10
I231
sg36
g4
sg37
(dp2355
sg39
(dp2356
sg41
I1297
sg42
g21
sg43
g21
sg44
I231
sg45
Vof
p2357
sg47
I231
sg48
I1299
sbag0
(g23
g2
Ntp2358
Rp2359
(dp2360
g27
(dp2361
g29
Vbritish
p2362
sg31
VMISC
p2363
sg33
VJJ
p2364
sg35
I5
ssg10
I232
sg36
g4
sg37
(dp2365
sg39
(dp2366
sg41
I1300
sg42
g21
sg43
g21
sg44
I232
sg45
VBritish
p2367
sg47
I232
sg48
I1307
sbag0
(g23
g2
Ntp2368
Rp2369
(dp2370
g27
(dp2371
g29
Vmuslim
p2372
sg31
VO
p2373
sg33
VNNS
p2374
sg35
I6
ssg10
I233
sg36
g4
sg37
(dp2375
sg39
(dp2376
sg41
I1308
sg42
g21
sg43
g21
sg44
I233
sg45
Vmuslims
p2377
sg47
I233
sg48
I1315
sbag0
(g23
g2
Ntp2378
Rp2379
(dp2380
g27
(dp2381
g29
Vshow
p2382
sg31
VO
p2383
sg33
VVBD
p2384
sg35
I7
ssg10
I234
sg36
g4
sg37
(dp2385
sg39
(dp2386
sg41
I1316
sg42
g21
sg43
g21
sg44
I234
sg45
Vshowed
p2387
sg47
I234
sg48
I1322
sbag0
(g23
g2
Ntp2388
Rp2389
(dp2390
g27
(dp2391
g29
Vthat
p2392
sg31
VO
p2393
sg33
VIN
p2394
sg35
I8
ssg10
I235
sg36
g4
sg37
(dp2395
sg39
(dp2396
sg41
I1323
sg42
g21
sg43
g21
sg44
I235
sg45
Vthat
p2397
sg47
I235
sg48
I1327
sbag0
(g23
g2
Ntp2398
Rp2399
(dp2400
g27
(dp2401
g29
V61
p2402
sg31
VPERCENT
p2403
sg33
VCD
p2404
sg35
I9
ssg10
I236
sg36
g4
sg37
(dp2405
sg39
(dp2406
sg41
I1328
sg42
g21
sg43
g21
sg44
I236
sg45
V61
p2407
sg47
I236
sg48
I1330
sbag0
(g23
g2
Ntp2408
Rp2409
(dp2410
g27
(dp2411
g29
V%
p2412
sg31
VPERCENT
p2413
sg33
VNN
p2414
sg35
I10
ssg10
I237
sg36
g4
sg37
(dp2415
sg39
(dp2416
sg41
I1331
sg42
g21
sg43
g21
sg44
I237
sg45
V%
p2417
sg47
I237
sg48
I1332
sbag0
(g23
g2
Ntp2418
Rp2419
(dp2420
g27
(dp2421
g29
Vbelieve
p2422
sg31
VO
p2423
sg33
VVBP
p2424
sg35
I11
ssg10
I238
sg36
g4
sg37
(dp2425
sg39
(dp2426
sg41
I1333
sg42
g21
sg43
g21
sg44
I238
sg45
Vbelieve
p2427
sg47
I238
sg48
I1340
sbag0
(g23
g2
Ntp2428
Rp2429
(dp2430
g27
(dp2431
g29
Vhomosexuality
p2432
sg31
VO
p2433
sg33
VNN
p2434
sg35
I12
ssg10
I239
sg36
g4
sg37
(dp2435
sg39
(dp2436
sg41
I1341
sg42
g21
sg43
g21
sg44
I239
sg45
Vhomosexuality
p2437
sg47
I239
sg48
I1354
sbag0
(g23
g2
Ntp2438
Rp2439
(dp2440
g27
(dp2441
g29
Vshould
p2442
sg31
VO
p2443
sg33
VMD
p2444
sg35
I13
ssg10
I240
sg36
g4
sg37
(dp2445
sg39
(dp2446
sg41
I1355
sg42
g21
sg43
g21
sg44
I240
sg45
Vshould
p2447
sg47
I240
sg48
I1361
sbag0
(g23
g2
Ntp2448
Rp2449
(dp2450
g27
(dp2451
g29
Vbe
p2452
sg31
VO
p2453
sg33
VVB
p2454
sg35
I14
ssg10
I241
sg36
g4
sg37
(dp2455
sg39
(dp2456
sg41
I1362
sg42
g21
sg43
g21
sg44
I241
sg45
Vbe
p2457
sg47
I241
sg48
I1364
sbag0
(g23
g2
Ntp2458
Rp2459
(dp2460
g27
(dp2461
g29
Villegal
p2462
sg31
VO
p2463
sg33
VJJ
p2464
sg35
I15
ssg10
I242
sg36
g4
sg37
(dp2465
sg39
(dp2466
sg41
I1365
sg42
g21
sg43
g21
sg44
I242
sg45
Villegal
p2467
sg47
I242
sg48
I1372
sbag0
(g23
g2
Ntp2468
Rp2469
(dp2470
g27
(dp2471
g29
V,
p2472
sg31
VO
p2473
sg33
V,
p2474
sg35
I16
ssg10
I243
sg36
g4
sg37
(dp2475
sg39
(dp2476
sg41
I1372
sg42
g21
sg43
g21
sg44
I243
sg45
V,
p2477
sg47
I243
sg48
I1373
sbag0
(g23
g2
Ntp2478
Rp2479
(dp2480
g27
(dp2481
g29
Vwith
p2482
sg31
VO
p2483
sg33
VIN
p2484
sg35
I17
ssg10
I244
sg36
g4
sg37
(dp2485
sg39
(dp2486
sg41
I1374
sg42
g21
sg43
g21
sg44
I244
sg45
Vwith
p2487
sg47
I244
sg48
I1378
sbag0
(g23
g2
Ntp2488
Rp2489
(dp2490
g27
(dp2491
g29
Vup
p2492
sg31
VO
p2493
sg33
VRB
p2494
sg35
I18
ssg10
I245
sg36
g4
sg37
(dp2495
sg39
(dp2496
sg41
I1379
sg42
g21
sg43
g21
sg44
I245
sg45
Vup
p2497
sg47
I245
sg48
I1381
sbag0
(g23
g2
Ntp2498
Rp2499
(dp2500
g27
(dp2501
g29
Vto
p2502
sg31
VO
p2503
sg33
VTO
p2504
sg35
I19
ssg10
I246
sg36
g4
sg37
(dp2505
sg39
(dp2506
sg41
I1382
sg42
g21
sg43
g21
sg44
I246
sg45
Vto
p2507
sg47
I246
sg48
I1384
sbag0
(g23
g2
Ntp2508
Rp2509
(dp2510
g27
(dp2511
g29
V71
p2512
sg31
VPERCENT
p2513
sg33
VCD
p2514
sg35
I20
ssg10
I247
sg36
g4
sg37
(dp2515
sg39
(dp2516
sg41
I1385
sg42
g21
sg43
g21
sg44
I247
sg45
V71
p2517
sg47
I247
sg48
I1387
sbag0
(g23
g2
Ntp2518
Rp2519
(dp2520
g27
(dp2521
g29
V%
p2522
sg31
VPERCENT
p2523
sg33
VNN
p2524
sg35
I21
ssg10
I248
sg36
g4
sg37
(dp2525
sg39
(dp2526
sg41
I1388
sg42
g21
sg43
g21
sg44
I248
sg45
V%
p2527
sg47
I248
sg48
I1389
sbag0
(g23
g2
Ntp2528
Rp2529
(dp2530
g27
(dp2531
g29
Vof
p2532
sg31
VO
p2533
sg33
VIN
p2534
sg35
I22
ssg10
I249
sg36
g4
sg37
(dp2535
sg39
(dp2536
sg41
I1390
sg42
g21
sg43
g21
sg44
I249
sg45
Vof
p2537
sg47
I249
sg48
I1392
sbag0
(g23
g2
Ntp2538
Rp2539
(dp2540
g27
(dp2541
g29
Vyoung
p2542
sg31
VO
p2543
sg33
VJJ
p2544
sg35
I23
ssg10
I250
sg36
g4
sg37
(dp2545
sg39
(dp2546
sg41
I1393
sg42
g21
sg43
g21
sg44
I250
sg45
Vyoung
p2547
sg47
I250
sg48
I1398
sbag0
(g23
g2
Ntp2548
Rp2549
(dp2550
g27
(dp2551
g29
Vbritish
p2552
sg31
VMISC
p2553
sg33
VJJ
p2554
sg35
I24
ssg10
I251
sg36
g4
sg37
(dp2555
sg39
(dp2556
sg41
I1399
sg42
g21
sg43
g21
sg44
I251
sg45
VBritish
p2557
sg47
I251
sg48
I1406
sbag0
(g23
g2
Ntp2558
Rp2559
(dp2560
g27
(dp2561
g29
Vmuslim
p2562
sg31
VO
p2563
sg33
VNNS
p2564
sg35
I25
ssg10
I252
sg36
g4
sg37
(dp2565
sg39
(dp2566
sg41
I1407
sg42
g21
sg43
g21
sg44
I252
sg45
Vmuslims
p2567
sg47
I252
sg48
I1414
sbag0
(g23
g2
Ntp2568
Rp2569
(dp2570
g27
(dp2571
g29
Vhold
p2572
sg31
VO
p2573
sg33
VVBG
p2574
sg35
I26
ssg10
I253
sg36
g4
sg37
(dp2575
sg39
(dp2576
sg41
I1415
sg42
g21
sg43
g21
sg44
I253
sg45
Vholding
p2577
sg47
I253
sg48
I1422
sbag0
(g23
g2
Ntp2578
Rp2579
(dp2580
g27
(dp2581
g29
Vthis
p2582
sg31
VO
p2583
sg33
VDT
p2584
sg35
I27
ssg10
I254
sg36
g4
sg37
(dp2585
sg39
(dp2586
sg41
I1423
sg42
g21
sg43
g21
sg44
I254
sg45
Vthis
p2587
sg47
I254
sg48
I1427
sbag0
(g23
g2
Ntp2588
Rp2589
(dp2590
g27
(dp2591
g29
Vbelief
p2592
sg31
VO
p2593
sg33
VNN
p2594
sg35
I28
ssg10
I255
sg36
g4
sg37
(dp2595
sg39
(dp2596
sg41
I1428
sg42
g21
sg43
g21
sg44
I255
sg45
Vbelief
p2597
sg47
I255
sg48
I1434
sbag0
(g23
g2
Ntp2598
Rp2599
(dp2600
g27
(dp2601
g29
V.
p2602
sg31
VO
p2603
sg33
V.
p2604
sg35
I29
ssg10
I256
sg36
g4
sg37
(dp2605
sg39
(dp2606
sg41
I1434
sg42
g21
sg43
g21
sg44
I256
sg45
V.
p2607
sg47
I256
sg48
I1435
sbag0
(g23
g2
Ntp2608
Rp2609
(dp2610
g27
(dp2611
g29
V43
p2612
sg31
VPERCENT
p2613
sg33
VCD
p2614
sg35
I1
ssg10
I257
sg36
g4
sg37
(dp2615
sg39
(dp2616
sg41
I1436
sg42
g21
sg43
g21
sg44
I257
sg45
V43
p2617
sg47
I257
sg48
I1438
sbag0
(g23
g2
Ntp2618
Rp2619
(dp2620
g27
(dp2621
g29
V%
p2622
sg31
VPERCENT
p2623
sg33
VNN
p2624
sg35
I2
ssg10
I258
sg36
g4
sg37
(dp2625
sg39
(dp2626
sg41
I1438
sg42
g21
sg43
g21
sg44
I258
sg45
V%
p2627
sg47
I258
sg48
I1439
sbag0
(g23
g2
Ntp2628
Rp2629
(dp2630
g27
(dp2631
g29
Vof
p2632
sg31
VO
p2633
sg33
VIN
p2634
sg35
I3
ssg10
I259
sg36
g4
sg37
(dp2635
sg39
(dp2636
sg41
I1440
sg42
g21
sg43
g21
sg44
I259
sg45
Vof
p2637
sg47
I259
sg48
I1442
sbag0
(g23
g2
Ntp2638
Rp2639
(dp2640
g27
(dp2641
g29
Vpoll
p2642
sg31
VO
p2643
sg33
VVBN
p2644
sg35
I4
ssg10
I260
sg36
g4
sg37
(dp2645
sg39
(dp2646
sg41
I1443
sg42
g21
sg43
g21
sg44
I260
sg45
Vpolled
p2647
sg47
I260
sg48
I1449
sbag0
(g23
g2
Ntp2648
Rp2649
(dp2650
g27
(dp2651
g29
Vmuslim
p2652
sg31
VO
p2653
sg33
VNNS
p2654
sg35
I5
ssg10
I261
sg36
g4
sg37
(dp2655
sg39
(dp2656
sg41
I1450
sg42
g21
sg43
g21
sg44
I261
sg45
Vmuslims
p2657
sg47
I261
sg48
I1457
sbag0
(g23
g2
Ntp2658
Rp2659
(dp2660
g27
(dp2661
g29
Vbelieve
p2662
sg31
VO
p2663
sg33
VVBD
p2664
sg35
I6
ssg10
I262
sg36
g4
sg37
(dp2665
sg39
(dp2666
sg41
I1458
sg42
g21
sg43
g21
sg44
I262
sg45
Vbelieved
p2667
sg47
I262
sg48
I1466
sbag0
(g23
g2
Ntp2668
Rp2669
(dp2670
g27
(dp2671
g29
Vmuslim
p2672
sg31
VO
p2673
sg33
VJJ
p2674
sg35
I7
ssg10
I263
sg36
g4
sg37
(dp2675
sg39
(dp2676
sg41
I1467
sg42
g21
sg43
g21
sg44
I263
sg45
Vmuslim
p2677
sg47
I263
sg48
I1473
sbag0
(g23
g2
Ntp2678
Rp2679
(dp2680
g27
(dp2681
g29
Vwoman
p2682
sg31
VO
p2683
sg33
VNN
p2684
sg35
I8
ssg10
I264
sg36
g4
sg37
(dp2685
sg39
(dp2686
sg41
I1474
sg42
g21
sg43
g21
sg44
I264
sg45
Vwoman
p2687
sg47
I264
sg48
I1479
sbag0
(g23
g2
Ntp2688
Rp2689
(dp2690
g27
(dp2691
g29
Vshould
p2692
sg31
VO
p2693
sg33
VMD
p2694
sg35
I9
ssg10
I265
sg36
g4
sg37
(dp2695
sg39
(dp2696
sg41
I1480
sg42
g21
sg43
g21
sg44
I265
sg45
Vshould
p2697
sg47
I265
sg48
I1486
sbag0
(g23
g2
Ntp2698
Rp2699
(dp2700
g27
(dp2701
g29
Vnot
p2702
sg31
VO
p2703
sg33
VRB
p2704
sg35
I10
ssg10
I266
sg36
g4
sg37
(dp2705
sg39
(dp2706
sg41
I1487
sg42
g21
sg43
g21
sg44
I266
sg45
Vnot
p2707
sg47
I266
sg48
I1490
sbag0
(g23
g2
Ntp2708
Rp2709
(dp2710
g27
(dp2711
g29
Vbe
p2712
sg31
VO
p2713
sg33
VVB
p2714
sg35
I11
ssg10
I267
sg36
g4
sg37
(dp2715
sg39
(dp2716
sg41
I1491
sg42
g21
sg43
g21
sg44
I267
sg45
Vbe
p2717
sg47
I267
sg48
I1493
sbag0
(g23
g2
Ntp2718
Rp2719
(dp2720
g27
(dp2721
g29
Vallow
p2722
sg31
VO
p2723
sg33
VVBN
p2724
sg35
I12
ssg10
I268
sg36
g4
sg37
(dp2725
sg39
(dp2726
sg41
I1494
sg42
g21
sg43
g21
sg44
I268
sg45
Vallowed
p2727
sg47
I268
sg48
I1501
sbag0
(g23
g2
Ntp2728
Rp2729
(dp2730
g27
(dp2731
g29
Vto
p2732
sg31
VO
p2733
sg33
VTO
p2734
sg35
I13
ssg10
I269
sg36
g4
sg37
(dp2735
sg39
(dp2736
sg41
I1502
sg42
g21
sg43
g21
sg44
I269
sg45
Vto
p2737
sg47
I269
sg48
I1504
sbag0
(g23
g2
Ntp2738
Rp2739
(dp2740
g27
(dp2741
g29
Vmarry
p2742
sg31
VO
p2743
sg33
VVB
p2744
sg35
I14
ssg10
I270
sg36
g4
sg37
(dp2745
sg39
(dp2746
sg41
I1505
sg42
g21
sg43
g21
sg44
I270
sg45
Vmarry
p2747
sg47
I270
sg48
I1510
sbag0
(g23
g2
Ntp2748
Rp2749
(dp2750
g27
(dp2751
g29
Vwithout
p2752
sg31
VO
p2753
sg33
VIN
p2754
sg35
I15
ssg10
I271
sg36
g4
sg37
(dp2755
sg39
(dp2756
sg41
I1511
sg42
g21
sg43
g21
sg44
I271
sg45
Vwithout
p2757
sg47
I271
sg48
I1518
sbag0
(g23
g2
Ntp2758
Rp2759
(dp2760
g27
(dp2761
g29
Vthe
p2762
sg31
VO
p2763
sg33
VDT
p2764
sg35
I16
ssg10
I272
sg36
g4
sg37
(dp2765
sg39
(dp2766
sg41
I1519
sg42
g21
sg43
g21
sg44
I272
sg45
Vthe
p2767
sg47
I272
sg48
I1522
sbag0
(g23
g2
Ntp2768
Rp2769
(dp2770
g27
(dp2771
g29
Vconsent
p2772
sg31
VO
p2773
sg33
VNN
p2774
sg35
I17
ssg10
I273
sg36
g4
sg37
(dp2775
sg39
(dp2776
sg41
I1523
sg42
g21
sg43
g21
sg44
I273
sg45
Vconsent
p2777
sg47
I273
sg48
I1530
sbag0
(g23
g2
Ntp2778
Rp2779
(dp2780
g27
(dp2781
g29
Vof
p2782
sg31
VO
p2783
sg33
VIN
p2784
sg35
I18
ssg10
I274
sg36
g4
sg37
(dp2785
sg39
(dp2786
sg41
I1531
sg42
g21
sg43
g21
sg44
I274
sg45
Vof
p2787
sg47
I274
sg48
I1533
sbag0
(g23
g2
Ntp2788
Rp2789
(dp2790
g27
(dp2791
g29
Vshe
p2792
sg31
VO
p2793
sg33
VPRP$
p2794
sg35
I19
ssg10
I275
sg36
g4
sg37
(dp2795
sg39
(dp2796
sg41
I1534
sg42
g21
sg43
g21
sg44
I275
sg45
Vher
p2797
sg47
I275
sg48
I1537
sbag0
(g23
g2
Ntp2798
Rp2799
(dp2800
g27
(dp2801
g29
Vguardian
p2802
sg31
VO
p2803
sg33
VNN
p2804
sg35
I20
ssg10
I276
sg36
g4
sg37
(dp2805
sg39
(dp2806
sg41
I1538
sg42
g21
sg43
g21
sg44
I276
sg45
Vguardian
p2807
sg47
I276
sg48
I1546
sbag0
(g23
g2
Ntp2808
Rp2809
(dp2810
g27
(dp2811
g29
V,
p2812
sg31
VO
p2813
sg33
V,
p2814
sg35
I21
ssg10
I277
sg36
g4
sg37
(dp2815
sg39
(dp2816
sg41
I1546
sg42
g21
sg43
g21
sg44
I277
sg45
V,
p2817
sg47
I277
sg48
I1547
sbag0
(g23
g2
Ntp2818
Rp2819
(dp2820
g27
(dp2821
g29
Vand
p2822
sg31
VO
p2823
sg33
VCC
p2824
sg35
I22
ssg10
I278
sg36
g4
sg37
(dp2825
sg39
(dp2826
sg41
I1548
sg42
g21
sg43
g21
sg44
I278
sg45
Vand
p2827
sg47
I278
sg48
I1551
sbag0
(g23
g2
Ntp2828
Rp2829
(dp2830
g27
(dp2831
g29
V31
p2832
sg31
VPERCENT
p2833
sg33
VCD
p2834
sg35
I23
ssg10
I279
sg36
g4
sg37
(dp2835
sg39
(dp2836
sg41
I1552
sg42
g21
sg43
g21
sg44
I279
sg45
V31
p2837
sg47
I279
sg48
I1554
sbag0
(g23
g2
Ntp2838
Rp2839
(dp2840
g27
(dp2841
g29
V%
p2842
sg31
VPERCENT
p2843
sg33
VNN
p2844
sg35
I24
ssg10
I280
sg36
g4
sg37
(dp2845
sg39
(dp2846
sg41
I1554
sg42
g21
sg43
g21
sg44
I280
sg45
V%
p2847
sg47
I280
sg48
I1555
sbag0
(g23
g2
Ntp2848
Rp2849
(dp2850
g27
(dp2851
g29
Vbelieve
p2852
sg31
VO
p2853
sg33
VVBD
p2854
sg35
I25
ssg10
I281
sg36
g4
sg37
(dp2855
sg39
(dp2856
sg41
I1556
sg42
g21
sg43
g21
sg44
I281
sg45
Vbelieved
p2857
sg47
I281
sg48
I1564
sbag0
(g23
g2
Ntp2858
Rp2859
(dp2860
g27
(dp2861
g29
Vapostasy
p2862
sg31
VO
p2863
sg33
VNN
p2864
sg35
I26
ssg10
I282
sg36
g4
sg37
(dp2865
sg39
(dp2866
sg41
I1565
sg42
g21
sg43
g21
sg44
I282
sg45
Vapostasy
p2867
sg47
I282
sg48
I1573
sbag0
(g23
g2
Ntp2868
Rp2869
(dp2870
g27
(dp2871
g29
Vshould
p2872
sg31
VO
p2873
sg33
VMD
p2874
sg35
I27
ssg10
I283
sg36
g4
sg37
(dp2875
sg39
(dp2876
sg41
I1574
sg42
g21
sg43
g21
sg44
I283
sg45
Vshould
p2877
sg47
I283
sg48
I1580
sbag0
(g23
g2
Ntp2878
Rp2879
(dp2880
g27
(dp2881
g29
Vbe
p2882
sg31
VO
p2883
sg33
VVB
p2884
sg35
I28
ssg10
I284
sg36
g4
sg37
(dp2885
sg39
(dp2886
sg41
I1581
sg42
g21
sg43
g21
sg44
I284
sg45
Vbe
p2887
sg47
I284
sg48
I1583
sbag0
(g23
g2
Ntp2888
Rp2889
(dp2890
g27
(dp2891
g29
Vforbid
p2892
sg31
VO
p2893
sg33
VVBN
p2894
sg35
I29
ssg10
I285
sg36
g4
sg37
(dp2895
sg39
(dp2896
sg41
I1584
sg42
g21
sg43
g21
sg44
I285
sg45
Vforbidden
p2897
sg47
I285
sg48
I1593
sbag0
(g23
g2
Ntp2898
Rp2899
(dp2900
g27
(dp2901
g29
Vand
p2902
sg31
VO
p2903
sg33
VCC
p2904
sg35
I30
ssg10
I286
sg36
g4
sg37
(dp2905
sg39
(dp2906
sg41
I1594
sg42
g21
sg43
g21
sg44
I286
sg45
Vand
p2907
sg47
I286
sg48
I1597
sbag0
(g23
g2
Ntp2908
Rp2909
(dp2910
g27
(dp2911
g29
Vpunishable
p2912
sg31
VO
p2913
sg33
VJJ
p2914
sg35
I31
ssg10
I287
sg36
g4
sg37
(dp2915
sg39
(dp2916
sg41
I1598
sg42
g21
sg43
g21
sg44
I287
sg45
Vpunishable
p2917
sg47
I287
sg48
I1608
sbag0
(g23
g2
Ntp2918
Rp2919
(dp2920
g27
(dp2921
g29
Vby
p2922
sg31
VO
p2923
sg33
VIN
p2924
sg35
I32
ssg10
I288
sg36
g4
sg37
(dp2925
sg39
(dp2926
sg41
I1609
sg42
g21
sg43
g21
sg44
I288
sg45
Vby
p2927
sg47
I288
sg48
I1611
sbag0
(g23
g2
Ntp2928
Rp2929
(dp2930
g27
(dp2931
g29
Vdeath
p2932
sg31
VO
p2933
sg33
VNN
p2934
sg35
I33
ssg10
I289
sg36
g4
sg37
(dp2935
sg39
(dp2936
sg41
I1612
sg42
g21
sg43
g21
sg44
I289
sg45
Vdeath
p2937
sg47
I289
sg48
I1617
sbag0
(g23
g2
Ntp2938
Rp2939
(dp2940
g27
(dp2941
g29
V-lsb-
p2942
sg31
VO
p2943
sg33
V-LRB-
p2944
sg35
I34
ssg10
I290
sg36
g4
sg37
(dp2945
sg39
(dp2946
sg41
I1617
sg42
g21
sg43
g21
sg44
I290
sg45
V[
p2947
sg47
I290
sg48
I1618
sbag0
(g23
g2
Ntp2948
Rp2949
(dp2950
g27
(dp2951
g29
Vref
p2952
sg31
VO
p2953
sg33
VNN
p2954
sg35
I35
ssg10
I291
sg36
g4
sg37
(dp2955
sg39
(dp2956
sg41
I1618
sg42
g21
sg43
g21
sg44
I291
sg45
VREF
p2957
sg47
I291
sg48
I1621
sbag0
(g23
g2
Ntp2958
Rp2959
(dp2960
g27
(dp2961
g29
V-rsb-
p2962
sg31
VO
p2963
sg33
V-RRB-
p2964
sg35
I36
ssg10
I292
sg36
g4
sg37
(dp2965
sg39
(dp2966
sg41
I1621
sg42
g21
sg43
g21
sg44
I292
sg45
V]
p2967
sg47
I292
sg48
I1622
sbag0
(g23
g2
Ntp2968
Rp2969
(dp2970
g27
(dp2971
g29
V.
p2972
sg31
VO
p2973
sg33
V.
p2974
sg35
I37
ssg10
I293
sg36
g4
sg37
(dp2975
sg39
(dp2976
sg41
I1623
sg42
g21
sg43
g21
sg44
I293
sg45
V.
p2977
sg47
I293
sg48
I1624
sbag0
(g23
g2
Ntp2978
Rp2979
(dp2980
g27
(dp2981
g29
Vin
p2982
sg31
VO
p2983
sg33
VIN
p2984
sg35
I1
ssg10
I294
sg36
g4
sg37
(dp2985
sg39
(dp2986
sg41
I1626
sg42
g21
sg43
g21
sg44
I294
sg45
VIn
p2987
sg47
I294
sg48
I1628
sbag0
(g23
g2
Ntp2988
Rp2989
(dp2990
g27
(dp2991
g29
VCanada
p2992
sg31
VLOCATION
p2993
sg33
VNNP
p2994
sg35
I2
ssg10
I295
sg36
g4
sg37
(dp2995
sg39
(dp2996
sg41
I1629
sg42
g21
sg43
g21
sg44
I295
sg45
VCanada
p2997
sg47
I295
sg48
I1635
sbag0
(g23
g2
Ntp2998
Rp2999
(dp3000
g27
(dp3001
g29
V,
p3002
sg31
VO
p3003
sg33
V,
p3004
sg35
I3
ssg10
I296
sg36
g4
sg37
(dp3005
sg39
(dp3006
sg41
I1635
sg42
g21
sg43
g21
sg44
I296
sg45
V,
p3007
sg47
I296
sg48
I1636
sbag0
(g23
g2
Ntp3008
Rp3009
(dp3010
g27
(dp3011
g29
Vthe
p3012
sg31
VO
p3013
sg33
VDT
p3014
sg35
I4
ssg10
I297
sg36
g4
sg37
(dp3015
sg39
(dp3016
sg41
I1637
sg42
g21
sg43
g21
sg44
I297
sg45
Vthe
p3017
sg47
I297
sg48
I1640
sbag0
(g23
g2
Ntp3018
Rp3019
(dp3020
g27
(dp3021
g29
Vpossible
p3022
sg31
VO
p3023
sg33
VJJ
p3024
sg35
I5
ssg10
I298
sg36
g4
sg37
(dp3025
sg39
(dp3026
sg41
I1641
sg42
g21
sg43
g21
sg44
I298
sg45
Vpossible
p3027
sg47
I298
sg48
I1649
sbag0
(g23
g2
Ntp3028
Rp3029
(dp3030
g27
(dp3031
g29
Vintroduction
p3032
sg31
VO
p3033
sg33
VNN
p3034
sg35
I6
ssg10
I299
sg36
g4
sg37
(dp3035
sg39
(dp3036
sg41
I1650
sg42
g21
sg43
g21
sg44
I299
sg45
Vintroduction
p3037
sg47
I299
sg48
I1662
sbag0
(g23
g2
Ntp3038
Rp3039
(dp3040
g27
(dp3041
g29
Vof
p3042
sg31
VO
p3043
sg33
VIN
p3044
sg35
I7
ssg10
I300
sg36
g4
sg37
(dp3045
sg39
(dp3046
sg41
I1663
sg42
g21
sg43
g21
sg44
I300
sg45
Vof
p3047
sg47
I300
sg48
I1665
sbag0
(g23
g2
Ntp3048
Rp3049
(dp3050
g27
(dp3051
g29
Vsharia
p3052
sg31
VO
p3053
sg33
VNN
p3054
sg35
I8
ssg10
I301
sg36
g4
sg37
(dp3055
sg39
(dp3056
sg41
I1666
sg42
g21
sg43
g21
sg44
I301
sg45
Vsharia
p3057
sg47
I301
sg48
I1672
sbag0
(g23
g2
Ntp3058
Rp3059
(dp3060
g27
(dp3061
g29
Vfamily
p3062
sg31
VO
p3063
sg33
VNN
p3064
sg35
I9
ssg10
I302
sg36
g4
sg37
(dp3065
sg39
(dp3066
sg41
I1673
sg42
g21
sg43
g21
sg44
I302
sg45
Vfamily
p3067
sg47
I302
sg48
I1679
sbag0
(g23
g2
Ntp3068
Rp3069
(dp3070
g27
(dp3071
g29
Vcourt
p3072
sg31
VO
p3073
sg33
VNNS
p3074
sg35
I10
ssg10
I303
sg36
g4
sg37
(dp3075
sg39
(dp3076
sg41
I1680
sg42
g21
sg43
g21
sg44
I303
sg45
Vcourts
p3077
sg47
I303
sg48
I1686
sbag0
(g23
g2
Ntp3078
Rp3079
(dp3080
g27
(dp3081
g29
Vbecome
p3082
sg31
VO
p3083
sg33
VVBD
p3084
sg35
I11
ssg10
I304
sg36
g4
sg37
(dp3085
sg39
(dp3086
sg41
I1687
sg42
g21
sg43
g21
sg44
I304
sg45
Vbecame
p3087
sg47
I304
sg48
I1693
sbag0
(g23
g2
Ntp3088
Rp3089
(dp3090
g27
(dp3091
g29
Va
p3092
sg31
VO
p3093
sg33
VDT
p3094
sg35
I12
ssg10
I305
sg36
g4
sg37
(dp3095
sg39
(dp3096
sg41
I1690
sg42
g21
sg43
g21
sg44
I305
sg45
Va
p3097
sg47
I305
sg48
I1691
sbag0
(g23
g2
Ntp3098
Rp3099
(dp3100
g27
(dp3101
g29
Vcontentious
p3102
sg31
VO
p3103
sg33
VJJ
p3104
sg35
I13
ssg10
I306
sg36
g4
sg37
(dp3105
sg39
(dp3106
sg41
I1696
sg42
g21
sg43
g21
sg44
I306
sg45
Vcontentious
p3107
sg47
I306
sg48
I1707
sbag0
(g23
g2
Ntp3108
Rp3109
(dp3110
g27
(dp3111
g29
Vissue
p3112
sg31
VO
p3113
sg33
VNN
p3114
sg35
I14
ssg10
I307
sg36
g4
sg37
(dp3115
sg39
(dp3116
sg41
I1708
sg42
g21
sg43
g21
sg44
I307
sg45
Vissue
p3117
sg47
I307
sg48
I1713
sbag0
(g23
g2
Ntp3118
Rp3119
(dp3120
g27
(dp3121
g29
V,
p3122
sg31
VO
p3123
sg33
V,
p3124
sg35
I15
ssg10
I308
sg36
g4
sg37
(dp3125
sg39
(dp3126
sg41
I1713
sg42
g21
sg43
g21
sg44
I308
sg45
V,
p3127
sg47
I308
sg48
I1714
sbag0
(g23
g2
Ntp3128
Rp3129
(dp3130
g27
(dp3131
g29
Vand
p3132
sg31
VO
p3133
sg33
VCC
p3134
sg35
I16
ssg10
I309
sg36
g4
sg37
(dp3135
sg39
(dp3136
sg41
I1715
sg42
g21
sg43
g21
sg44
I309
sg45
Vand
p3137
sg47
I309
sg48
I1718
sbag0
(g23
g2
Ntp3138
Rp3139
(dp3140
g27
(dp3141
g29
Vreceive
p3142
sg31
VO
p3143
sg33
VVBD
p3144
sg35
I17
ssg10
I310
sg36
g4
sg37
(dp3145
sg39
(dp3146
sg41
I1719
sg42
g21
sg43
g21
sg44
I310
sg45
Vreceived
p3147
sg47
I310
sg48
I1727
sbag0
(g23
g2
Ntp3148
Rp3149
(dp3150
g27
(dp3151
g29
Vmuch
p3152
sg31
VO
p3153
sg33
VJJ
p3154
sg35
I18
ssg10
I311
sg36
g4
sg37
(dp3155
sg39
(dp3156
sg41
I1728
sg42
g21
sg43
g21
sg44
I311
sg45
Vmuch
p3157
sg47
I311
sg48
I1732
sbag0
(g23
g2
Ntp3158
Rp3159
(dp3160
g27
(dp3161
g29
Vmedia
p3162
sg31
VO
p3163
sg33
VNNS
p3164
sg35
I19
ssg10
I312
sg36
g4
sg37
(dp3165
sg39
(dp3166
sg41
I1733
sg42
g21
sg43
g21
sg44
I312
sg45
Vmedia
p3167
sg47
I312
sg48
I1738
sbag0
(g23
g2
Ntp3168
Rp3169
(dp3170
g27
(dp3171
g29
Vattention
p3172
sg31
VO
p3173
sg33
VNN
p3174
sg35
I20
ssg10
I313
sg36
g4
sg37
(dp3175
sg39
(dp3176
sg41
I1739
sg42
g21
sg43
g21
sg44
I313
sg45
Vattention
p3177
sg47
I313
sg48
I1748
sbag0
(g23
g2
Ntp3178
Rp3179
(dp3180
g27
(dp3181
g29
V-lsb-
p3182
sg31
VO
p3183
sg33
V-LRB-
p3184
sg35
I21
ssg10
I314
sg36
g4
sg37
(dp3185
sg39
(dp3186
sg41
I1749
sg42
g21
sg43
g21
sg44
I314
sg45
V[
p3187
sg47
I314
sg48
I1750
sbag0
(g23
g2
Ntp3188
Rp3189
(dp3190
g27
(dp3191
g29
Vref
p3192
sg31
VO
p3193
sg33
VNN
p3194
sg35
I22
ssg10
I315
sg36
g4
sg37
(dp3195
sg39
(dp3196
sg41
I1750
sg42
g21
sg43
g21
sg44
I315
sg45
VREF
p3197
sg47
I315
sg48
I1753
sbag0
(g23
g2
Ntp3198
Rp3199
(dp3200
g27
(dp3201
g29
V-rsb-
p3202
sg31
VO
p3203
sg33
V-RRB-
p3204
sg35
I23
ssg10
I316
sg36
g4
sg37
(dp3205
sg39
(dp3206
sg41
I1753
sg42
g21
sg43
g21
sg44
I316
sg45
V]
p3207
sg47
I316
sg48
I1754
sbag0
(g23
g2
Ntp3208
Rp3209
(dp3210
g27
(dp3211
g29
V.
p3212
sg31
VO
p3213
sg33
V.
p3214
sg35
I24
ssg10
I317
sg36
g4
sg37
(dp3215
sg39
(dp3216
sg41
I1754
sg42
g21
sg43
g21
sg44
I317
sg45
V.
p3217
sg47
I317
sg48
I1755
sbag0
(g23
g2
Ntp3218
Rp3219
(dp3220
g27
(dp3221
g29
VLondon
p3222
sg31
VLOCATION
p3223
sg33
VNNP
p3224
sg35
I1
ssg10
I318
sg36
g4
sg37
(dp3225
sg39
(dp3226
sg41
I1756
sg42
g21
sg43
g21
sg44
I318
sg45
VLondon
p3227
sg47
I318
sg48
I1762
sbag0
(g23
g2
Ntp3228
Rp3229
(dp3230
g27
(dp3231
g29
Vbe
p3232
sg31
VO
p3233
sg33
VVBZ
p3234
sg35
I2
ssg10
I319
sg36
g4
sg37
(dp3235
sg39
(dp3236
sg41
I1763
sg42
g21
sg43
g21
sg44
I319
sg45
Vis
p3237
sg47
I319
sg48
I1765
sbag0
(g23
g2
Ntp3238
Rp3239
(dp3240
g27
(dp3241
g29
Vfar
p3242
sg31
VO
p3243
sg33
VRB
p3244
sg35
I3
ssg10
I320
sg36
g4
sg37
(dp3245
sg39
(dp3246
sg41
I1766
sg42
g21
sg43
g21
sg44
I320
sg45
Vfar
p3247
sg47
I320
sg48
I1769
sbag0
(g23
g2
Ntp3248
Rp3249
(dp3250
g27
(dp3251
g29
Vmore
p3252
sg31
VO
p3253
sg33
VRBR
p3254
sg35
I4
ssg10
I321
sg36
g4
sg37
(dp3255
sg39
(dp3256
sg41
I1770
sg42
g21
sg43
g21
sg44
I321
sg45
Vmore
p3257
sg47
I321
sg48
I1774
sbag0
(g23
g2
Ntp3258
Rp3259
(dp3260
g27
(dp3261
g29
Vsegregate
p3262
sg31
VO
p3263
sg33
VVBN
p3264
sg35
I5
ssg10
I322
sg36
g4
sg37
(dp3265
sg39
(dp3266
sg41
I1775
sg42
g21
sg43
g21
sg44
I322
sg45
Vsegregated
p3267
sg47
I322
sg48
I1785
sbag0
(g23
g2
Ntp3268
Rp3269
(dp3270
g27
(dp3271
g29
Von
p3272
sg31
VO
p3273
sg33
VIN
p3274
sg35
I6
ssg10
I323
sg36
g4
sg37
(dp3275
sg39
(dp3276
sg41
I1786
sg42
g21
sg43
g21
sg44
I323
sg45
Von
p3277
sg47
I323
sg48
I1788
sbag0
(g23
g2
Ntp3278
Rp3279
(dp3280
g27
(dp3281
g29
Vreligious
p3282
sg31
VO
p3283
sg33
VJJ
p3284
sg35
I7
ssg10
I324
sg36
g4
sg37
(dp3285
sg39
(dp3286
sg41
I1789
sg42
g21
sg43
g21
sg44
I324
sg45
Vreligious
p3287
sg47
I324
sg48
I1798
sbag0
(g23
g2
Ntp3288
Rp3289
(dp3290
g27
(dp3291
g29
Vgrounds
p3292
sg31
VO
p3293
sg33
VNNS
p3294
sg35
I8
ssg10
I325
sg36
g4
sg37
(dp3295
sg39
(dp3296
sg41
I1799
sg42
g21
sg43
g21
sg44
I325
sg45
Vgrounds
p3297
sg47
I325
sg48
I1806
sbag0
(g23
g2
Ntp3298
Rp3299
(dp3300
g27
(dp3301
g29
Vthan
p3302
sg31
VO
p3303
sg33
VIN
p3304
sg35
I9
ssg10
I326
sg36
g4
sg37
(dp3305
sg39
(dp3306
sg41
I1807
sg42
g21
sg43
g21
sg44
I326
sg45
Vthan
p3307
sg47
I326
sg48
I1811
sbag0
(g23
g2
Ntp3308
Rp3309
(dp3310
g27
(dp3311
g29
Vby
p3312
sg31
VO
p3313
sg33
VIN
p3314
sg35
I10
ssg10
I327
sg36
g4
sg37
(dp3315
sg39
(dp3316
sg41
I1812
sg42
g21
sg43
g21
sg44
I327
sg45
Vby
p3317
sg47
I327
sg48
I1814
sbag0
(g23
g2
Ntp3318
Rp3319
(dp3320
g27
(dp3321
g29
Vrace
p3322
sg31
VO
p3323
sg33
VNN
p3324
sg35
I11
ssg10
I328
sg36
g4
sg37
(dp3325
sg39
(dp3326
sg41
I1815
sg42
g21
sg43
g21
sg44
I328
sg45
Vrace
p3327
sg47
I328
sg48
I1819
sbag0
(g23
g2
Ntp3328
Rp3329
(dp3330
g27
(dp3331
g29
V.
p3332
sg31
VO
p3333
sg33
V.
p3334
sg35
I12
ssg10
I329
sg36
g4
sg37
(dp3335
sg39
(dp3336
sg41
I1819
sg42
g21
sg43
g21
sg44
I329
sg45
V.
p3337
sg47
I329
sg48
I1820
sbag0
(g23
g2
Ntp3338
Rp3339
(dp3340
g27
(dp3341
g29
V25
p3342
sg31
VPERCENT
p3343
sg33
VCD
p3344
sg35
I1
ssg10
I330
sg36
g4
sg37
(dp3345
sg39
(dp3346
sg41
I1821
sg42
g21
sg43
g21
sg44
I330
sg45
V25
p3347
sg47
I330
sg48
I1823
sbag0
(g23
g2
Ntp3348
Rp3349
(dp3350
g27
(dp3351
g29
V%
p3352
sg31
VPERCENT
p3353
sg33
VNN
p3354
sg35
I2
ssg10
I331
sg36
g4
sg37
(dp3355
sg39
(dp3356
sg41
I1823
sg42
g21
sg43
g21
sg44
I331
sg45
V%
p3357
sg47
I331
sg48
I1824
sbag0
(g23
g2
Ntp3358
Rp3359
(dp3360
g27
(dp3361
g29
Vof
p3362
sg31
VO
p3363
sg33
VIN
p3364
sg35
I3
ssg10
I332
sg36
g4
sg37
(dp3365
sg39
(dp3366
sg41
I1825
sg42
g21
sg43
g21
sg44
I332
sg45
Vof
p3367
sg47
I332
sg48
I1827
sbag0
(g23
g2
Ntp3368
Rp3369
(dp3370
g27
(dp3371
g29
VLondon
p3372
sg31
VLOCATION
p3373
sg33
VNNP
p3374
sg35
I4
ssg10
I333
sg36
g4
sg37
(dp3375
sg39
(dp3376
sg41
I1828
sg42
g21
sg43
g21
sg44
I333
sg45
VLondon
p3377
sg47
I333
sg48
I1834
sbag0
(g23
g2
Ntp3378
Rp3379
(dp3380
g27
(dp3381
g29
V's
p3382
sg31
VO
p3383
sg33
VPOS
p3384
sg35
I5
ssg10
I334
sg36
g4
sg37
(dp3385
sg39
(dp3386
sg41
I1834
sg42
g21
sg43
g21
sg44
I334
sg45
V's
p3387
sg47
I334
sg48
I1836
sbag0
(g23
g2
Ntp3388
Rp3389
(dp3390
g27
(dp3391
g29
Vseven
p3392
sg31
VNUMBER
p3393
sg33
VCD
p3394
sg35
I6
ssg10
I335
sg36
g4
sg37
(dp3395
sg39
(dp3396
sg41
I1837
sg42
g21
sg43
g21
sg44
I335
sg45
Vseven
p3397
sg47
I335
sg48
I1842
sbag0
(g23
g2
Ntp3398
Rp3399
(dp3400
g27
(dp3401
g29
Vmillion
p3402
sg31
VNUMBER
p3403
sg33
VCD
p3404
sg35
I7
ssg10
I336
sg36
g4
sg37
(dp3405
sg39
(dp3406
sg41
I1843
sg42
g21
sg43
g21
sg44
I336
sg45
Vmillion
p3407
sg47
I336
sg48
I1850
sbag0
(g23
g2
Ntp3408
Rp3409
(dp3410
g27
(dp3411
g29
Vresident
p3412
sg31
VO
p3413
sg33
VNNS
p3414
sg35
I8
ssg10
I337
sg36
g4
sg37
(dp3415
sg39
(dp3416
sg41
I1851
sg42
g21
sg43
g21
sg44
I337
sg45
Vresidents
p3417
sg47
I337
sg48
I1860
sbag0
(g23
g2
Ntp3418
Rp3419
(dp3420
g27
(dp3421
g29
Vlive
p3422
sg31
VO
p3423
sg33
VVBP
p3424
sg35
I9
ssg10
I338
sg36
g4
sg37
(dp3425
sg39
(dp3426
sg41
I1861
sg42
g21
sg43
g21
sg44
I338
sg45
Vlive
p3427
sg47
I338
sg48
I1865
sbag0
(g23
g2
Ntp3428
Rp3429
(dp3430
g27
(dp3431
g29
Vin
p3432
sg31
VO
p3433
sg33
VIN
p3434
sg35
I10
ssg10
I339
sg36
g4
sg37
(dp3435
sg39
(dp3436
sg41
I1866
sg42
g21
sg43
g21
sg44
I339
sg45
Vin
p3437
sg47
I339
sg48
I1868
sbag0
(g23
g2
Ntp3438
Rp3439
(dp3440
g27
(dp3441
g29
Vreligiously
p3442
sg31
VO
p3443
sg33
VRB
p3444
sg35
I11
ssg10
I340
sg36
g4
sg37
(dp3445
sg39
(dp3446
sg41
I1869
sg42
g21
sg43
g21
sg44
I340
sg45
Vreligiously
p3447
sg47
I340
sg48
I1880
sbag0
(g23
g2
Ntp3448
Rp3449
(dp3450
g27
(dp3451
g29
Vsegregate
p3452
sg31
VO
p3453
sg33
VVBN
p3454
sg35
I12
ssg10
I341
sg36
g4
sg37
(dp3455
sg39
(dp3456
sg41
I1881
sg42
g21
sg43
g21
sg44
I341
sg45
Vsegregated
p3457
sg47
I341
sg48
I1891
sbag0
(g23
g2
Ntp3458
Rp3459
(dp3460
g27
(dp3461
g29
Vneighbourhood
p3462
sg31
VO
p3463
sg33
VNNS
p3464
sg35
I13
ssg10
I342
sg36
g4
sg37
(dp3465
sg39
(dp3466
sg41
I1892
sg42
g21
sg43
g21
sg44
I342
sg45
Vneighbourhoods
p3467
sg47
I342
sg48
I1906
sbag0
(g23
g2
Ntp3468
Rp3469
(dp3470
g27
(dp3471
g29
V-lsb-
p3472
sg31
VO
p3473
sg33
V-LRB-
p3474
sg35
I14
ssg10
I343
sg36
g4
sg37
(dp3475
sg39
(dp3476
sg41
I1907
sg42
g21
sg43
g21
sg44
I343
sg45
V[
p3477
sg47
I343
sg48
I1908
sbag0
(g23
g2
Ntp3478
Rp3479
(dp3480
g27
(dp3481
g29
Vref
p3482
sg31
VO
p3483
sg33
VNN
p3484
sg35
I15
ssg10
I344
sg36
g4
sg37
(dp3485
sg39
(dp3486
sg41
I1908
sg42
g21
sg43
g21
sg44
I344
sg45
VREF
p3487
sg47
I344
sg48
I1911
sbag0
(g23
g2
Ntp3488
Rp3489
(dp3490
g27
(dp3491
g29
V-rsb-
p3492
sg31
VO
p3493
sg33
V-RRB-
p3494
sg35
I16
ssg10
I345
sg36
g4
sg37
(dp3495
sg39
(dp3496
sg41
I1911
sg42
g21
sg43
g21
sg44
I345
sg45
V]
p3497
sg47
I345
sg48
I1912
sbag0
(g23
g2
Ntp3498
Rp3499
(dp3500
g27
(dp3501
g29
V.
p3502
sg31
VO
p3503
sg33
V.
p3504
sg35
I17
ssg10
I346
sg36
g4
sg37
(dp3505
sg39
(dp3506
sg41
I1912
sg42
g21
sg43
g21
sg44
I346
sg45
V.
p3507
sg47
I346
sg48
I1913
sbag0
(g23
g2
Ntp3508
Rp3509
(dp3510
g27
(dp3511
g29
Va
p3512
sg31
VO
p3513
sg33
VDT
p3514
sg35
I1
ssg10
I347
sg36
g4
sg37
(dp3515
sg39
(dp3516
sg41
I1915
sg42
g21
sg43
g21
sg44
I347
sg45
VA
p3517
sg47
I347
sg48
I1916
sbag0
(g23
g2
Ntp3518
Rp3519
(dp3520
g27
(dp3521
g29
Vsurvey
p3522
sg31
VO
p3523
sg33
VNN
p3524
sg35
I2
ssg10
I348
sg36
g4
sg37
(dp3525
sg39
(dp3526
sg41
I1917
sg42
g21
sg43
g21
sg44
I348
sg45
Vsurvey
p3527
sg47
I348
sg48
I1923
sbag0
(g23
g2
Ntp3528
Rp3529
(dp3530
g27
(dp3531
g29
Vshow
p3532
sg31
VO
p3533
sg33
VVBD
p3534
sg35
I3
ssg10
I349
sg36
g4
sg37
(dp3535
sg39
(dp3536
sg41
I1924
sg42
g21
sg43
g21
sg44
I349
sg45
Vshowed
p3537
sg47
I349
sg48
I1930
sbag0
(g23
g2
Ntp3538
Rp3539
(dp3540
g27
(dp3541
g29
Vthat
p3542
sg31
VO
p3543
sg33
VIN
p3544
sg35
I4
ssg10
I350
sg36
g4
sg37
(dp3545
sg39
(dp3546
sg41
I1931
sg42
g21
sg43
g21
sg44
I350
sg45
Vthat
p3547
sg47
I350
sg48
I1935
sbag0
(g23
g2
Ntp3548
Rp3549
(dp3550
g27
(dp3551
g29
V18
p3552
sg31
VPERCENT
p3553
sg33
VCD
p3554
sg35
I5
ssg10
I351
sg36
g4
sg37
(dp3555
sg39
(dp3556
sg41
I1936
sg42
g21
sg43
g21
sg44
I351
sg45
V18
p3557
sg47
I351
sg48
I1938
sbag0
(g23
g2
Ntp3558
Rp3559
(dp3560
g27
(dp3561
g29
V%
p3562
sg31
VPERCENT
p3563
sg33
VNN
p3564
sg35
I6
ssg10
I352
sg36
g4
sg37
(dp3565
sg39
(dp3566
sg41
I1938
sg42
g21
sg43
g21
sg44
I352
sg45
V%
p3567
sg47
I352
sg48
I1939
sbag0
(g23
g2
Ntp3568
Rp3569
(dp3570
g27
(dp3571
g29
Vin
p3572
sg31
VO
p3573
sg33
VIN
p3574
sg35
I7
ssg10
I353
sg36
g4
sg37
(dp3575
sg39
(dp3576
sg41
I1940
sg42
g21
sg43
g21
sg44
I353
sg45
Vin
p3577
sg47
I353
sg48
I1942
sbag0
(g23
g2
Ntp3578
Rp3579
(dp3580
g27
(dp3581
g29
VBritain
p3582
sg31
VLOCATION
p3583
sg33
VNNP
p3584
sg35
I8
ssg10
I354
sg36
g4
sg37
(dp3585
sg39
(dp3586
sg41
I1943
sg42
g21
sg43
g21
sg44
I354
sg45
VBritain
p3587
sg47
I354
sg48
I1950
sbag0
(g23
g2
Ntp3588
Rp3589
(dp3590
g27
(dp3591
g29
Vthink
p3592
sg31
VO
p3593
sg33
VVBP
p3594
sg35
I9
ssg10
I355
sg36
g4
sg37
(dp3595
sg39
(dp3596
sg41
I1951
sg42
g21
sg43
g21
sg44
I355
sg45
Vthink
p3597
sg47
I355
sg48
I1956
sbag0
(g23
g2
Ntp3598
Rp3599
(dp3600
g27
(dp3601
g29
Vthat
p3602
sg31
VO
p3603
sg33
VIN
p3604
sg35
I10
ssg10
I356
sg36
g4
sg37
(dp3605
sg39
(dp3606
sg41
I1957
sg42
g21
sg43
g21
sg44
I356
sg45
Vthat
p3607
sg47
I356
sg48
I1961
sbag0
(g23
g2
Ntp3608
Rp3609
(dp3610
g27
(dp3611
g29
V``
p3612
sg31
VO
p3613
sg33
V``
p3614
sg35
I11
ssg10
I357
sg36
g4
sg37
(dp3615
sg39
(dp3616
sg41
I1962
sg42
g21
sg43
g21
sg44
I357
sg45
g2138
sg47
I357
sg48
I1963
sbag0
(g23
g2
Ntp3617
Rp3618
(dp3619
g27
(dp3620
g29
Va
p3621
sg31
VO
p3622
sg33
VDT
p3623
sg35
I12
ssg10
I358
sg36
g4
sg37
(dp3624
sg39
(dp3625
sg41
I1963
sg42
g21
sg43
g21
sg44
I358
sg45
Va
p3626
sg47
I358
sg48
I1964
sbag0
(g23
g2
Ntp3627
Rp3628
(dp3629
g27
(dp3630
g29
Vlarge
p3631
sg31
VO
p3632
sg33
VJJ
p3633
sg35
I13
ssg10
I359
sg36
g4
sg37
(dp3634
sg39
(dp3635
sg41
I1965
sg42
g21
sg43
g21
sg44
I359
sg45
Vlarge
p3636
sg47
I359
sg48
I1970
sbag0
(g23
g2
Ntp3637
Rp3638
(dp3639
g27
(dp3640
g29
Vproportion
p3641
sg31
VO
p3642
sg33
VNN
p3643
sg35
I14
ssg10
I360
sg36
g4
sg37
(dp3644
sg39
(dp3645
sg41
I1971
sg42
g21
sg43
g21
sg44
I360
sg45
Vproportion
p3646
sg47
I360
sg48
I1981
sbag0
(g23
g2
Ntp3647
Rp3648
(dp3649
g27
(dp3650
g29
Vof
p3651
sg31
VO
p3652
sg33
VIN
p3653
sg35
I15
ssg10
I361
sg36
g4
sg37
(dp3654
sg39
(dp3655
sg41
I1982
sg42
g21
sg43
g21
sg44
I361
sg45
Vof
p3656
sg47
I361
sg48
I1984
sbag0
(g23
g2
Ntp3657
Rp3658
(dp3659
g27
(dp3660
g29
Vbritish
p3661
sg31
VMISC
p3662
sg33
VJJ
p3663
sg35
I16
ssg10
I362
sg36
g4
sg37
(dp3664
sg39
(dp3665
sg41
I1985
sg42
g21
sg43
g21
sg44
I362
sg45
VBritish
p3666
sg47
I362
sg48
I1992
sbag0
(g23
g2
Ntp3667
Rp3668
(dp3669
g27
(dp3670
g29
VMuslims
p3671
sg31
VMISC
p3672
sg33
VNNPS
p3673
sg35
I17
ssg10
I363
sg36
g4
sg37
(dp3674
sg39
(dp3675
sg41
I1993
sg42
g21
sg43
g21
sg44
I363
sg45
VMuslims
p3676
sg47
I363
sg48
I2000
sbag0
(g23
g2
Ntp3677
Rp3678
(dp3679
g27
(dp3680
g29
Vfeel
p3681
sg31
VO
p3682
sg33
VVBP
p3683
sg35
I18
ssg10
I364
sg36
g4
sg37
(dp3684
sg39
(dp3685
sg41
I2001
sg42
g21
sg43
g21
sg44
I364
sg45
Vfeel
p3686
sg47
I364
sg48
I2005
sbag0
(g23
g2
Ntp3687
Rp3688
(dp3689
g27
(dp3690
g29
Vno
p3691
sg31
VO
p3692
sg33
VDT
p3693
sg35
I19
ssg10
I365
sg36
g4
sg37
(dp3694
sg39
(dp3695
sg41
I2006
sg42
g21
sg43
g21
sg44
I365
sg45
Vno
p3696
sg47
I365
sg48
I2008
sbag0
(g23
g2
Ntp3697
Rp3698
(dp3699
g27
(dp3700
g29
Vsense
p3701
sg31
VO
p3702
sg33
VNN
p3703
sg35
I20
ssg10
I366
sg36
g4
sg37
(dp3704
sg39
(dp3705
sg41
I2009
sg42
g21
sg43
g21
sg44
I366
sg45
Vsense
p3706
sg47
I366
sg48
I2014
sbag0
(g23
g2
Ntp3707
Rp3708
(dp3709
g27
(dp3710
g29
Vof
p3711
sg31
VO
p3712
sg33
VIN
p3713
sg35
I21
ssg10
I367
sg36
g4
sg37
(dp3714
sg39
(dp3715
sg41
I2015
sg42
g21
sg43
g21
sg44
I367
sg45
Vof
p3716
sg47
I367
sg48
I2017
sbag0
(g23
g2
Ntp3717
Rp3718
(dp3719
g27
(dp3720
g29
Vloyalty
p3721
sg31
VO
p3722
sg33
VNN
p3723
sg35
I22
ssg10
I368
sg36
g4
sg37
(dp3724
sg39
(dp3725
sg41
I2018
sg42
g21
sg43
g21
sg44
I368
sg45
Vloyalty
p3726
sg47
I368
sg48
I2025
sbag0
(g23
g2
Ntp3727
Rp3728
(dp3729
g27
(dp3730
g29
Vto
p3731
sg31
VO
p3732
sg33
VTO
p3733
sg35
I23
ssg10
I369
sg36
g4
sg37
(dp3734
sg39
(dp3735
sg41
I2026
sg42
g21
sg43
g21
sg44
I369
sg45
Vto
p3736
sg47
I369
sg48
I2028
sbag0
(g23
g2
Ntp3737
Rp3738
(dp3739
g27
(dp3740
g29
Vthis
p3741
sg31
VO
p3742
sg33
VDT
p3743
sg35
I24
ssg10
I370
sg36
g4
sg37
(dp3744
sg39
(dp3745
sg41
I2029
sg42
g21
sg43
g21
sg44
I370
sg45
Vthis
p3746
sg47
I370
sg48
I2033
sbag0
(g23
g2
Ntp3747
Rp3748
(dp3749
g27
(dp3750
g29
Vcountry
p3751
sg31
VO
p3752
sg33
VNN
p3753
sg35
I25
ssg10
I371
sg36
g4
sg37
(dp3754
sg39
(dp3755
sg41
I2034
sg42
g21
sg43
g21
sg44
I371
sg45
Vcountry
p3756
sg47
I371
sg48
I2041
sbag0
(g23
g2
Ntp3757
Rp3758
(dp3759
g27
(dp3760
g29
Vand
p3761
sg31
VO
p3762
sg33
VCC
p3763
sg35
I26
ssg10
I372
sg36
g4
sg37
(dp3764
sg39
(dp3765
sg41
I2042
sg42
g21
sg43
g21
sg44
I372
sg45
Vand
p3766
sg47
I372
sg48
I2045
sbag0
(g23
g2
Ntp3767
Rp3768
(dp3769
g27
(dp3770
g29
Vbe
p3771
sg31
VO
p3772
sg33
VVBP
p3773
sg35
I27
ssg10
I373
sg36
g4
sg37
(dp3774
sg39
(dp3775
sg41
I2046
sg42
g21
sg43
g21
sg44
I373
sg45
Vare
p3776
sg47
I373
sg48
I2049
sbag0
(g23
g2
Ntp3777
Rp3778
(dp3779
g27
(dp3780
g29
Vprepare
p3781
sg31
VO
p3782
sg33
VVBN
p3783
sg35
I28
ssg10
I374
sg36
g4
sg37
(dp3784
sg39
(dp3785
sg41
I2050
sg42
g21
sg43
g21
sg44
I374
sg45
Vprepared
p3786
sg47
I374
sg48
I2058
sbag0
(g23
g2
Ntp3787
Rp3788
(dp3789
g27
(dp3790
g29
Vto
p3791
sg31
VO
p3792
sg33
VTO
p3793
sg35
I29
ssg10
I375
sg36
g4
sg37
(dp3794
sg39
(dp3795
sg41
I2059
sg42
g21
sg43
g21
sg44
I375
sg45
Vto
p3796
sg47
I375
sg48
I2061
sbag0
(g23
g2
Ntp3797
Rp3798
(dp3799
g27
(dp3800
g29
Vcondone
p3801
sg31
VO
p3802
sg33
VVB
p3803
sg35
I30
ssg10
I376
sg36
g4
sg37
(dp3804
sg39
(dp3805
sg41
I2062
sg42
g21
sg43
g21
sg44
I376
sg45
Vcondone
p3806
sg47
I376
sg48
I2069
sbag0
(g23
g2
Ntp3807
Rp3808
(dp3809
g27
(dp3810
g29
Vor
p3811
sg31
VO
p3812
sg33
VCC
p3813
sg35
I31
ssg10
I377
sg36
g4
sg37
(dp3814
sg39
(dp3815
sg41
I2070
sg42
g21
sg43
g21
sg44
I377
sg45
Vor
p3816
sg47
I377
sg48
I2072
sbag0
(g23
g2
Ntp3817
Rp3818
(dp3819
g27
(dp3820
g29
Veven
p3821
sg31
VO
p3822
sg33
VRB
p3823
sg35
I32
ssg10
I378
sg36
g4
sg37
(dp3824
sg39
(dp3825
sg41
I2073
sg42
g21
sg43
g21
sg44
I378
sg45
Veven
p3826
sg47
I378
sg48
I2077
sbag0
(g23
g2
Ntp3827
Rp3828
(dp3829
g27
(dp3830
g29
Vcarry
p3831
sg31
VO
p3832
sg33
VVB
p3833
sg35
I33
ssg10
I379
sg36
g4
sg37
(dp3834
sg39
(dp3835
sg41
I2078
sg42
g21
sg43
g21
sg44
I379
sg45
Vcarry
p3836
sg47
I379
sg48
I2083
sbag0
(g23
g2
Ntp3837
Rp3838
(dp3839
g27
(dp3840
g29
Vout
p3841
sg31
VO
p3842
sg33
VRP
p3843
sg35
I34
ssg10
I380
sg36
g4
sg37
(dp3844
sg39
(dp3845
sg41
I2084
sg42
g21
sg43
g21
sg44
I380
sg45
Vout
p3846
sg47
I380
sg48
I2087
sbag0
(g23
g2
Ntp3847
Rp3848
(dp3849
g27
(dp3850
g29
Vact
p3851
sg31
VO
p3852
sg33
VNNS
p3853
sg35
I35
ssg10
I381
sg36
g4
sg37
(dp3854
sg39
(dp3855
sg41
I2088
sg42
g21
sg43
g21
sg44
I381
sg45
Vacts
p3856
sg47
I381
sg48
I2092
sbag0
(g23
g2
Ntp3857
Rp3858
(dp3859
g27
(dp3860
g29
Vof
p3861
sg31
VO
p3862
sg33
VIN
p3863
sg35
I36
ssg10
I382
sg36
g4
sg37
(dp3864
sg39
(dp3865
sg41
I2093
sg42
g21
sg43
g21
sg44
I382
sg45
Vof
p3866
sg47
I382
sg48
I2095
sbag0
(g23
g2
Ntp3867
Rp3868
(dp3869
g27
(dp3870
g29
Vterrorism
p3871
sg31
VO
p3872
sg33
VNN
p3873
sg35
I37
ssg10
I383
sg36
g4
sg37
(dp3874
sg39
(dp3875
sg41
I2096
sg42
g21
sg43
g21
sg44
I383
sg45
Vterrorism
p3876
sg47
I383
sg48
I2105
sbag0
(g23
g2
Ntp3877
Rp3878
(dp3879
g27
(dp3880
g29
V''
p3881
sg31
VO
p3882
sg33
V''
p3883
sg35
I38
ssg10
I384
sg36
g4
sg37
(dp3884
sg39
(dp3885
sg41
I2105
sg42
g21
sg43
g21
sg44
I384
sg45
g2138
sg47
I384
sg48
I2106
sbag0
(g23
g2
Ntp3886
Rp3887
(dp3888
g27
(dp3889
g29
V-lsb-
p3890
sg31
VO
p3891
sg33
V-LRB-
p3892
sg35
I39
ssg10
I385
sg36
g4
sg37
(dp3893
sg39
(dp3894
sg41
I2107
sg42
g21
sg43
g21
sg44
I385
sg45
V[
p3895
sg47
I385
sg48
I2108
sbag0
(g23
g2
Ntp3896
Rp3897
(dp3898
g27
(dp3899
g29
Vref
p3900
sg31
VO
p3901
sg33
VNN
p3902
sg35
I40
ssg10
I386
sg36
g4
sg37
(dp3903
sg39
(dp3904
sg41
I2108
sg42
g21
sg43
g21
sg44
I386
sg45
VREF
p3905
sg47
I386
sg48
I2111
sbag0
(g23
g2
Ntp3906
Rp3907
(dp3908
g27
(dp3909
g29
V-rsb-
p3910
sg31
VO
p3911
sg33
V-RRB-
p3912
sg35
I41
ssg10
I387
sg36
g4
sg37
(dp3913
sg39
(dp3914
sg41
I2111
sg42
g21
sg43
g21
sg44
I387
sg45
V]
p3915
sg47
I387
sg48
I2112
sbag0
(g23
g2
Ntp3916
Rp3917
(dp3918
g27
(dp3919
g29
V.
p3920
sg31
VO
p3921
sg33
V.
p3922
sg35
I42
ssg10
I388
sg36
g4
sg37
(dp3923
sg39
(dp3924
sg41
I2112
sg42
g21
sg43
g21
sg44
I388
sg45
V.
p3925
sg47
I388
sg48
I2113
sbag0
(g23
g2
Ntp3926
Rp3927
(dp3928
g27
(dp3929
g29
Va
p3930
sg31
VO
p3931
sg33
VDT
p3932
sg35
I1
ssg10
I389
sg36
g4
sg37
(dp3933
sg39
(dp3934
sg41
I2114
sg42
g21
sg43
g21
sg44
I389
sg45
VA
p3935
sg47
I389
sg48
I2115
sbag0
(g23
g2
Ntp3936
Rp3937
(dp3938
g27
(dp3939
g29
VTNS/Global
p3940
sg31
VO
p3941
sg33
VNNP
p3942
sg35
I2
ssg10
I390
sg36
g4
sg37
(dp3943
sg39
(dp3944
sg41
I2116
sg42
g21
sg43
g21
sg44
I390
sg45
VTNS/Global
p3945
sg47
I390
sg48
I2126
sbag0
(g23
g2
Ntp3946
Rp3947
(dp3948
g27
(dp3949
g29
Vpoll
p3950
sg31
VO
p3951
sg33
VNN
p3952
sg35
I3
ssg10
I391
sg36
g4
sg37
(dp3953
sg39
(dp3954
sg41
I2127
sg42
g21
sg43
g21
sg44
I391
sg45
Vpoll
p3955
sg47
I391
sg48
I2131
sbag0
(g23
g2
Ntp3956
Rp3957
(dp3958
g27
(dp3959
g29
Vshow
p3960
sg31
VO
p3961
sg33
VVBD
p3962
sg35
I4
ssg10
I392
sg36
g4
sg37
(dp3963
sg39
(dp3964
sg41
I2132
sg42
g21
sg43
g21
sg44
I392
sg45
Vshowed
p3965
sg47
I392
sg48
I2138
sbag0
(g23
g2
Ntp3966
Rp3967
(dp3968
g27
(dp3969
g29
Vthat
p3970
sg31
VO
p3971
sg33
VIN
p3972
sg35
I5
ssg10
I393
sg36
g4
sg37
(dp3973
sg39
(dp3974
sg41
I2139
sg42
g21
sg43
g21
sg44
I393
sg45
Vthat
p3975
sg47
I393
sg48
I2143
sbag0
(g23
g2
Ntp3976
Rp3977
(dp3978
g27
(dp3979
g29
V79
p3980
sg31
VPERCENT
p3981
sg33
VCD
p3982
sg35
I6
ssg10
I394
sg36
g4
sg37
(dp3983
sg39
(dp3984
sg41
I2144
sg42
g21
sg43
g21
sg44
I394
sg45
V79
p3985
sg47
I394
sg48
I2146
sbag0
(g23
g2
Ntp3986
Rp3987
(dp3988
g27
(dp3989
g29
V%
p3990
sg31
VPERCENT
p3991
sg33
VNN
p3992
sg35
I7
ssg10
I395
sg36
g4
sg37
(dp3993
sg39
(dp3994
sg41
I2146
sg42
g21
sg43
g21
sg44
I395
sg45
V%
p3995
sg47
I395
sg48
I2147
sbag0
(g23
g2
Ntp3996
Rp3997
(dp3998
g27
(dp3999
g29
Vin
p4000
sg31
VO
p4001
sg33
VIN
p4002
sg35
I8
ssg10
I396
sg36
g4
sg37
(dp4003
sg39
(dp4004
sg41
I2148
sg42
g21
sg43
g21
sg44
I396
sg45
Vin
p4005
sg47
I396
sg48
I2150
sbag0
(g23
g2
Ntp4006
Rp4007
(dp4008
g27
(dp4009
g29
VBritain
p4010
sg31
VLOCATION
p4011
sg33
VNNP
p4012
sg35
I9
ssg10
I397
sg36
g4
sg37
(dp4013
sg39
(dp4014
sg41
I2151
sg42
g21
sg43
g21
sg44
I397
sg45
VBritain
p4015
sg47
I397
sg48
I2158
sbag0
(g23
g2
Ntp4016
Rp4017
(dp4018
g27
(dp4019
g29
Vwould
p4020
sg31
VO
p4021
sg33
VMD
p4022
sg35
I10
ssg10
I398
sg36
g4
sg37
(dp4023
sg39
(dp4024
sg41
I2159
sg42
g21
sg43
g21
sg44
I398
sg45
Vwould
p4025
sg47
I398
sg48
I2164
sbag0
(g23
g2
Ntp4026
Rp4027
(dp4028
g27
(dp4029
g29
Vfeel
p4030
sg31
VO
p4031
sg33
VVB
p4032
sg35
I11
ssg10
I399
sg36
g4
sg37
(dp4033
sg39
(dp4034
sg41
I2165
sg42
g21
sg43
g21
sg44
I399
sg45
Vfeel
p4035
sg47
I399
sg48
I2169
sbag0
(g23
g2
Ntp4036
Rp4037
(dp4038
g27
(dp4039
g29
V``
p4040
sg31
VO
p4041
sg33
V``
p4042
sg35
I12
ssg10
I400
sg36
g4
sg37
(dp4043
sg39
(dp4044
sg41
I2170
sg42
g21
sg43
g21
sg44
I400
sg45
g2138
sg47
I400
sg48
I2171
sbag0
(g23
g2
Ntp4045
Rp4046
(dp4047
g27
(dp4048
g29
Vuncomfortable
p4049
sg31
VO
p4050
sg33
VJJ
p4051
sg35
I13
ssg10
I401
sg36
g4
sg37
(dp4052
sg39
(dp4053
sg41
I2171
sg42
g21
sg43
g21
sg44
I401
sg45
Vuncomfortable
p4054
sg47
I401
sg48
I2184
sbag0
(g23
g2
Ntp4055
Rp4056
(dp4057
g27
(dp4058
g29
Vliving
p4059
sg31
VO
p4060
sg33
VNN
p4061
sg35
I14
ssg10
I402
sg36
g4
sg37
(dp4062
sg39
(dp4063
sg41
I2185
sg42
g21
sg43
g21
sg44
I402
sg45
Vliving
p4064
sg47
I402
sg48
I2191
sbag0
(g23
g2
Ntp4065
Rp4066
(dp4067
g27
(dp4068
g29
Vnext
p4069
sg31
VO
p4070
sg33
VIN
p4071
sg35
I15
ssg10
I403
sg36
g4
sg37
(dp4072
sg39
(dp4073
sg41
I2192
sg42
g21
sg43
g21
sg44
I403
sg45
Vnext
p4074
sg47
I403
sg48
I2196
sbag0
(g23
g2
Ntp4075
Rp4076
(dp4077
g27
(dp4078
g29
Vto
p4079
sg31
VO
p4080
sg33
VTO
p4081
sg35
I16
ssg10
I404
sg36
g4
sg37
(dp4082
sg39
(dp4083
sg41
I2197
sg42
g21
sg43
g21
sg44
I404
sg45
Vto
p4084
sg47
I404
sg48
I2199
sbag0
(g23
g2
Ntp4085
Rp4086
(dp4087
g27
(dp4088
g29
Va
p4089
sg31
VO
p4090
sg33
VDT
p4091
sg35
I17
ssg10
I405
sg36
g4
sg37
(dp4092
sg39
(dp4093
sg41
I2200
sg42
g21
sg43
g21
sg44
I405
sg45
Va
p4094
sg47
I405
sg48
I2201
sbag0
(g23
g2
Ntp4095
Rp4096
(dp4097
g27
(dp4098
g29
Vmuslim
p4099
sg31
VMISC
p4100
sg33
VJJ
p4101
sg35
I18
ssg10
I406
sg36
g4
sg37
(dp4102
sg39
(dp4103
sg41
I2202
sg42
g21
sg43
g21
sg44
I406
sg45
VMuslim
p4104
sg47
I406
sg48
I2208
sbag0
(g23
g2
Ntp4105
Rp4106
(dp4107
g27
(dp4108
g29
V''
p4109
sg31
VO
p4110
sg33
V''
p4111
sg35
I19
ssg10
I407
sg36
g4
sg37
(dp4112
sg39
(dp4113
sg41
I2208
sg42
g21
sg43
g21
sg44
I407
sg45
g2138
sg47
I407
sg48
I2209
sbag0
(g23
g2
Ntp4114
Rp4115
(dp4116
g27
(dp4117
g29
V-lsb-
p4118
sg31
VO
p4119
sg33
V-LRB-
p4120
sg35
I20
ssg10
I408
sg36
g4
sg37
(dp4121
sg39
(dp4122
sg41
I2210
sg42
g21
sg43
g21
sg44
I408
sg45
V[
p4123
sg47
I408
sg48
I2211
sbag0
(g23
g2
Ntp4124
Rp4125
(dp4126
g27
(dp4127
g29
Vref
p4128
sg31
VO
p4129
sg33
VNN
p4130
sg35
I21
ssg10
I409
sg36
g4
sg37
(dp4131
sg39
(dp4132
sg41
I2211
sg42
g21
sg43
g21
sg44
I409
sg45
VREF
p4133
sg47
I409
sg48
I2214
sbag0
(g23
g2
Ntp4134
Rp4135
(dp4136
g27
(dp4137
g29
V-rsb-
p4138
sg31
VO
p4139
sg33
V-RRB-
p4140
sg35
I22
ssg10
I410
sg36
g4
sg37
(dp4141
sg39
(dp4142
sg41
I2214
sg42
g21
sg43
g21
sg44
I410
sg45
V]
p4143
sg47
I410
sg48
I2215
sbag0
(g23
g2
Ntp4144
Rp4145
(dp4146
g27
(dp4147
g29
V.
p4148
sg31
VO
p4149
sg33
V.
p4150
sg35
I23
ssg10
I411
sg36
g4
sg37
(dp4151
sg39
(dp4152
sg41
I2215
sg42
g21
sg43
g21
sg44
I411
sg45
V.
p4153
sg47
I411
sg48
I2216
sbag0
(g23
g2
Ntp4154
Rp4155
(dp4156
g27
(dp4157
g29
Vthere
p4158
sg31
VO
p4159
sg33
VEX
p4160
sg35
I1
ssg10
I412
sg36
g4
sg37
(dp4161
sg39
(dp4162
sg41
I2217
sg42
g21
sg43
g21
sg44
I412
sg45
VThere
p4163
sg47
I412
sg48
I2222
sbag0
(g23
g2
Ntp4164
Rp4165
(dp4166
g27
(dp4167
g29
Vhave
p4168
sg31
VO
p4169
sg33
VVBP
p4170
sg35
I2
ssg10
I413
sg36
g4
sg37
(dp4171
sg39
(dp4172
sg41
I2223
sg42
g21
sg43
g21
sg44
I413
sg45
Vhave
p4173
sg47
I413
sg48
I2227
sbag0
(g23
g2
Ntp4174
Rp4175
(dp4176
g27
(dp4177
g29
Valso
p4178
sg31
VO
p4179
sg33
VRB
p4180
sg35
I3
ssg10
I414
sg36
g4
sg37
(dp4181
sg39
(dp4182
sg41
I2228
sg42
g21
sg43
g21
sg44
I414
sg45
Valso
p4183
sg47
I414
sg48
I2232
sbag0
(g23
g2
Ntp4184
Rp4185
(dp4186
g27
(dp4187
g29
Vbe
p4188
sg31
VO
p4189
sg33
VVBN
p4190
sg35
I4
ssg10
I415
sg36
g4
sg37
(dp4191
sg39
(dp4192
sg41
I2233
sg42
g21
sg43
g21
sg44
I415
sg45
Vbeen
p4193
sg47
I415
sg48
I2237
sbag0
(g23
g2
Ntp4194
Rp4195
(dp4196
g27
(dp4197
g29
Vnotable
p4198
sg31
VO
p4199
sg33
VJJ
p4200
sg35
I5
ssg10
I416
sg36
g4
sg37
(dp4201
sg39
(dp4202
sg41
I2238
sg42
g21
sg43
g21
sg44
I416
sg45
Vnotable
p4203
sg47
I416
sg48
I2245
sbag0
(g23
g2
Ntp4204
Rp4205
(dp4206
g27
(dp4207
g29
Vtension
p4208
sg31
VO
p4209
sg33
VNNS
p4210
sg35
I6
ssg10
I417
sg36
g4
sg37
(dp4211
sg39
(dp4212
sg41
I2246
sg42
g21
sg43
g21
sg44
I417
sg45
Vtensions
p4213
sg47
I417
sg48
I2254
sbag0
(g23
g2
Ntp4214
Rp4215
(dp4216
g27
(dp4217
g29
Vin
p4218
sg31
VO
p4219
sg33
VIN
p4220
sg35
I7
ssg10
I418
sg36
g4
sg37
(dp4221
sg39
(dp4222
sg41
I2255
sg42
g21
sg43
g21
sg44
I418
sg45
Vin
p4223
sg47
I418
sg48
I2257
sbag0
(g23
g2
Ntp4224
Rp4225
(dp4226
g27
(dp4227
g29
VBritain
p4228
sg31
VLOCATION
p4229
sg33
VNNP
p4230
sg35
I8
ssg10
I419
sg36
g4
sg37
(dp4231
sg39
(dp4232
sg41
I2258
sg42
g21
sg43
g21
sg44
I419
sg45
VBritain
p4233
sg47
I419
sg48
I2265
sbag0
(g23
g2
Ntp4234
Rp4235
(dp4236
g27
(dp4237
g29
Vbetween
p4238
sg31
VO
p4239
sg33
VIN
p4240
sg35
I9
ssg10
I420
sg36
g4
sg37
(dp4241
sg39
(dp4242
sg41
I2266
sg42
g21
sg43
g21
sg44
I420
sg45
Vbetween
p4243
sg47
I420
sg48
I2273
sbag0
(g23
g2
Ntp4244
Rp4245
(dp4246
g27
(dp4247
g29
Vestablished
p4248
sg31
VO
p4249
sg33
VJJ
p4250
sg35
I10
ssg10
I421
sg36
g4
sg37
(dp4251
sg39
(dp4252
sg41
I2274
sg42
g21
sg43
g21
sg44
I421
sg45
Vestablished
p4253
sg47
I421
sg48
I2285
sbag0
(g23
g2
Ntp4254
Rp4255
(dp4256
g27
(dp4257
g29
Vmuslim
p4258
sg31
VMISC
p4259
sg33
VJJ
p4260
sg35
I11
ssg10
I422
sg36
g4
sg37
(dp4261
sg39
(dp4262
sg41
I2286
sg42
g21
sg43
g21
sg44
I422
sg45
VMuslim
p4263
sg47
I422
sg48
I2292
sbag0
(g23
g2
Ntp4264
Rp4265
(dp4266
g27
(dp4267
g29
Vcommunity
p4268
sg31
VO
p4269
sg33
VNNS
p4270
sg35
I12
ssg10
I423
sg36
g4
sg37
(dp4271
sg39
(dp4272
sg41
I2293
sg42
g21
sg43
g21
sg44
I423
sg45
Vcommunities
p4273
sg47
I423
sg48
I2304
sbag0
(g23
g2
Ntp4274
Rp4275
(dp4276
g27
(dp4277
g29
Vand
p4278
sg31
VO
p4279
sg33
VCC
p4280
sg35
I13
ssg10
I424
sg36
g4
sg37
(dp4281
sg39
(dp4282
sg41
I2305
sg42
g21
sg43
g21
sg44
I424
sg45
Vand
p4283
sg47
I424
sg48
I2308
sbag0
(g23
g2
Ntp4284
Rp4285
(dp4286
g27
(dp4287
g29
Vnewly-arrived
p4288
sg31
VO
p4289
sg33
VJJ
p4290
sg35
I14
ssg10
I425
sg36
g4
sg37
(dp4291
sg39
(dp4292
sg41
I2309
sg42
g21
sg43
g21
sg44
I425
sg45
Vnewly-arrived
p4293
sg47
I425
sg48
I2322
sbag0
(g23
g2
Ntp4294
Rp4295
(dp4296
g27
(dp4297
g29
Veastern
p4298
sg31
VMISC
p4299
sg33
VJJ
p4300
sg35
I15
ssg10
I426
sg36
g4
sg37
(dp4301
sg39
(dp4302
sg41
I2323
sg42
g21
sg43
g21
sg44
I426
sg45
VEastern
p4303
sg47
I426
sg48
I2330
sbag0
(g23
g2
Ntp4304
Rp4305
(dp4306
g27
(dp4307
g29
Veuropean
p4308
sg31
VMISC
p4309
sg33
VJJ
p4310
sg35
I16
ssg10
I427
sg36
g4
sg37
(dp4311
sg39
(dp4312
sg41
I2331
sg42
g21
sg43
g21
sg44
I427
sg45
VEuropean
p4313
sg47
I427
sg48
I2339
sbag0
(g23
g2
Ntp4314
Rp4315
(dp4316
g27
(dp4317
g29
Vimmigrant
p4318
sg31
VO
p4319
sg33
VNNS
p4320
sg35
I17
ssg10
I428
sg36
g4
sg37
(dp4321
sg39
(dp4322
sg41
I2340
sg42
g21
sg43
g21
sg44
I428
sg45
Vimmigrants
p4323
sg47
I428
sg48
I2350
sbag0
(g23
g2
Ntp4324
Rp4325
(dp4326
g27
(dp4327
g29
V-lsb-
p4328
sg31
VO
p4329
sg33
V-LRB-
p4330
sg35
I18
ssg10
I429
sg36
g4
sg37
(dp4331
sg39
(dp4332
sg41
I2351
sg42
g21
sg43
g21
sg44
I429
sg45
V[
p4333
sg47
I429
sg48
I2352
sbag0
(g23
g2
Ntp4334
Rp4335
(dp4336
g27
(dp4337
g29
Vref
p4338
sg31
VO
p4339
sg33
VNN
p4340
sg35
I19
ssg10
I430
sg36
g4
sg37
(dp4341
sg39
(dp4342
sg41
I2352
sg42
g21
sg43
g21
sg44
I430
sg45
VREF
p4343
sg47
I430
sg48
I2355
sbag0
(g23
g2
Ntp4344
Rp4345
(dp4346
g27
(dp4347
g29
V-rsb-
p4348
sg31
VO
p4349
sg33
V-RRB-
p4350
sg35
I20
ssg10
I431
sg36
g4
sg37
(dp4351
sg39
(dp4352
sg41
I2355
sg42
g21
sg43
g21
sg44
I431
sg45
V]
p4353
sg47
I431
sg48
I2356
sbag0
(g23
g2
Ntp4354
Rp4355
(dp4356
g27
(dp4357
g29
V.
p4358
sg31
VO
p4359
sg33
V.
p4360
sg35
I21
ssg10
I432
sg36
g4
sg37
(dp4361
sg39
(dp4362
sg41
I2356
sg42
g21
sg43
g21
sg44
I432
sg45
V.
p4363
sg47
I432
sg48
I2357
sbag0
(g23
g2
Ntp4364
Rp4365
(dp4366
g27
(dp4367
g29
Va
p4368
sg31
VO
p4369
sg33
VDT
p4370
sg35
I1
ssg10
I433
sg36
g4
sg37
(dp4371
sg39
(dp4372
sg41
I2358
sg42
g21
sg43
g21
sg44
I433
sg45
VA
p4373
sg47
I433
sg48
I2359
sbag0
(g23
g2
Ntp4374
Rp4375
(dp4376
g27
(dp4377
g29
Vmajor
p4378
sg31
VO
p4379
sg33
VJJ
p4380
sg35
I2
ssg10
I434
sg36
g4
sg37
(dp4381
sg39
(dp4382
sg41
I2360
sg42
g21
sg43
g21
sg44
I434
sg45
Vmajor
p4383
sg47
I434
sg48
I2365
sbag0
(g23
g2
Ntp4384
Rp4385
(dp4386
g27
(dp4387
g29
Vattitude
p4388
sg31
VO
p4389
sg33
VNN
p4390
sg35
I3
ssg10
I435
sg36
g4
sg37
(dp4391
sg39
(dp4392
sg41
I2366
sg42
g21
sg43
g21
sg44
I435
sg45
Vattitude
p4393
sg47
I435
sg48
I2374
sbag0
(g23
g2
Ntp4394
Rp4395
(dp4396
g27
(dp4397
g29
Vsurvey
p4398
sg31
VO
p4399
sg33
VNN
p4400
sg35
I4
ssg10
I436
sg36
g4
sg37
(dp4401
sg39
(dp4402
sg41
I2375
sg42
g21
sg43
g21
sg44
I436
sg45
Vsurvey
p4403
sg47
I436
sg48
I2381
sbag0
(g23
g2
Ntp4404
Rp4405
(dp4406
g27
(dp4407
g29
Vof
p4408
sg31
VO
p4409
sg33
VIN
p4410
sg35
I5
ssg10
I437
sg36
g4
sg37
(dp4411
sg39
(dp4412
sg41
I2382
sg42
g21
sg43
g21
sg44
I437
sg45
Vof
p4413
sg47
I437
sg48
I2384
sbag0
(g23
g2
Ntp4414
Rp4415
(dp4416
g27
(dp4417
g29
Vteenager
p4418
sg31
VO
p4419
sg33
VNNS
p4420
sg35
I6
ssg10
I438
sg36
g4
sg37
(dp4421
sg39
(dp4422
sg41
I2385
sg42
g21
sg43
g21
sg44
I438
sg45
Vteenagers
p4423
sg47
I438
sg48
I2394
sbag0
(g23
g2
Ntp4424
Rp4425
(dp4426
g27
(dp4427
g29
Vin
p4428
sg31
VO
p4429
sg33
VIN
p4430
sg35
I7
ssg10
I439
sg36
g4
sg37
(dp4431
sg39
(dp4432
sg41
I2395
sg42
g21
sg43
g21
sg44
I439
sg45
Vin
p4433
sg47
I439
sg48
I2397
sbag0
(g23
g2
Ntp4434
Rp4435
(dp4436
g27
(dp4437
g29
VFlanders
p4438
sg31
VLOCATION
p4439
sg33
VNNP
p4440
sg35
I8
ssg10
I440
sg36
g4
sg37
(dp4441
sg39
(dp4442
sg41
I2398
sg42
g21
sg43
g21
sg44
I440
sg45
VFlanders
p4443
sg47
I440
sg48
I2406
sbag0
(g23
g2
Ntp4444
Rp4445
(dp4446
g27
(dp4447
g29
Vshow
p4448
sg31
VO
p4449
sg33
VVBD
p4450
sg35
I9
ssg10
I441
sg36
g4
sg37
(dp4451
sg39
(dp4452
sg41
I2407
sg42
g21
sg43
g21
sg44
I441
sg45
Vshowed
p4453
sg47
I441
sg48
I2413
sbag0
(g23
g2
Ntp4454
Rp4455
(dp4456
g27
(dp4457
g29
Vthat
p4458
sg31
VO
p4459
sg33
VIN
p4460
sg35
I10
ssg10
I442
sg36
g4
sg37
(dp4461
sg39
(dp4462
sg41
I2414
sg42
g21
sg43
g21
sg44
I442
sg45
Vthat
p4463
sg47
I442
sg48
I2418
sbag0
(g23
g2
Ntp4464
Rp4465
(dp4466
g27
(dp4467
g29
V75
p4468
sg31
VPERCENT
p4469
sg33
VCD
p4470
sg35
I11
ssg10
I443
sg36
g4
sg37
(dp4471
sg39
(dp4472
sg41
I2419
sg42
g21
sg43
g21
sg44
I443
sg45
V75
p4473
sg47
I443
sg48
I2421
sbag0
(g23
g2
Ntp4474
Rp4475
(dp4476
g27
(dp4477
g29
V%
p4478
sg31
VPERCENT
p4479
sg33
VNN
p4480
sg35
I12
ssg10
I444
sg36
g4
sg37
(dp4481
sg39
(dp4482
sg41
I2421
sg42
g21
sg43
g21
sg44
I444
sg45
V%
p4483
sg47
I444
sg48
I2422
sbag0
(g23
g2
Ntp4484
Rp4485
(dp4486
g27
(dp4487
g29
Vrefuse
p4488
sg31
VO
p4489
sg33
VNN
p4490
sg35
I13
ssg10
I445
sg36
g4
sg37
(dp4491
sg39
(dp4492
sg41
I2423
sg42
g21
sg43
g21
sg44
I445
sg45
Vrefuse
p4493
sg47
I445
sg48
I2429
sbag0
(g23
g2
Ntp4494
Rp4495
(dp4496
g27
(dp4497
g29
Vto
p4498
sg31
VO
p4499
sg33
VTO
p4500
sg35
I14
ssg10
I446
sg36
g4
sg37
(dp4501
sg39
(dp4502
sg41
I2430
sg42
g21
sg43
g21
sg44
I446
sg45
Vto
p4503
sg47
I446
sg48
I2432
sbag0
(g23
g2
Ntp4504
Rp4505
(dp4506
g27
(dp4507
g29
Vhave
p4508
sg31
VO
p4509
sg33
VVB
p4510
sg35
I15
ssg10
I447
sg36
g4
sg37
(dp4511
sg39
(dp4512
sg41
I2433
sg42
g21
sg43
g21
sg44
I447
sg45
Vhave
p4513
sg47
I447
sg48
I2437
sbag0
(g23
g2
Ntp4514
Rp4515
(dp4516
g27
(dp4517
g29
Va
p4518
sg31
VO
p4519
sg33
VDT
p4520
sg35
I16
ssg10
I448
sg36
g4
sg37
(dp4521
sg39
(dp4522
sg41
I2434
sg42
g21
sg43
g21
sg44
I448
sg45
Va
p4523
sg47
I448
sg48
I2435
sbag0
(g23
g2
Ntp4524
Rp4525
(dp4526
g27
(dp4527
g29
Vrelationship
p4528
sg31
VO
p4529
sg33
VNN
p4530
sg35
I17
ssg10
I449
sg36
g4
sg37
(dp4531
sg39
(dp4532
sg41
I2440
sg42
g21
sg43
g21
sg44
I449
sg45
Vrelationship
p4533
sg47
I449
sg48
I2452
sbag0
(g23
g2
Ntp4534
Rp4535
(dp4536
g27
(dp4537
g29
Vwith
p4538
sg31
VO
p4539
sg33
VIN
p4540
sg35
I18
ssg10
I450
sg36
g4
sg37
(dp4541
sg39
(dp4542
sg41
I2453
sg42
g21
sg43
g21
sg44
I450
sg45
Vwith
p4543
sg47
I450
sg48
I2457
sbag0
(g23
g2
Ntp4544
Rp4545
(dp4546
g27
(dp4547
g29
Va
p4548
sg31
VO
p4549
sg33
VDT
p4550
sg35
I19
ssg10
I451
sg36
g4
sg37
(dp4551
sg39
(dp4552
sg41
I2458
sg42
g21
sg43
g21
sg44
I451
sg45
Va
p4553
sg47
I451
sg48
I2459
sbag0
(g23
g2
Ntp4554
Rp4555
(dp4556
g27
(dp4557
g29
Vblack
p4558
sg31
VO
p4559
sg33
VJJ
p4560
sg35
I20
ssg10
I452
sg36
g4
sg37
(dp4561
sg39
(dp4562
sg41
I2460
sg42
g21
sg43
g21
sg44
I452
sg45
Vblack
p4563
sg47
I452
sg48
I2465
sbag0
(g23
g2
Ntp4564
Rp4565
(dp4566
g27
(dp4567
g29
Vperson
p4568
sg31
VO
p4569
sg33
VNN
p4570
sg35
I21
ssg10
I453
sg36
g4
sg37
(dp4571
sg39
(dp4572
sg41
I2466
sg42
g21
sg43
g21
sg44
I453
sg45
Vperson
p4573
sg47
I453
sg48
I2472
sbag0
(g23
g2
Ntp4574
Rp4575
(dp4576
g27
(dp4577
g29
V,
p4578
sg31
VO
p4579
sg33
V,
p4580
sg35
I22
ssg10
I454
sg36
g4
sg37
(dp4581
sg39
(dp4582
sg41
I2472
sg42
g21
sg43
g21
sg44
I454
sg45
V,
p4583
sg47
I454
sg48
I2473
sbag0
(g23
g2
Ntp4584
Rp4585
(dp4586
g27
(dp4587
g29
Va
p4588
sg31
VO
p4589
sg33
VDT
p4590
sg35
I23
ssg10
I455
sg36
g4
sg37
(dp4591
sg39
(dp4592
sg41
I2474
sg42
g21
sg43
g21
sg44
I455
sg45
Va
p4593
sg47
I455
sg48
I2475
sbag0
(g23
g2
Ntp4594
Rp4595
(dp4596
g27
(dp4597
g29
Vmuslim
p4598
sg31
VMISC
p4599
sg33
VJJ
p4600
sg35
I24
ssg10
I456
sg36
g4
sg37
(dp4601
sg39
(dp4602
sg41
I2476
sg42
g21
sg43
g21
sg44
I456
sg45
VMuslim
p4603
sg47
I456
sg48
I2482
sbag0
(g23
g2
Ntp4604
Rp4605
(dp4606
g27
(dp4607
g29
V,
p4608
sg31
VO
p4609
sg33
V,
p4610
sg35
I25
ssg10
I457
sg36
g4
sg37
(dp4611
sg39
(dp4612
sg41
I2482
sg42
g21
sg43
g21
sg44
I457
sg45
V,
p4613
sg47
I457
sg48
I2483
sbag0
(g23
g2
Ntp4614
Rp4615
(dp4616
g27
(dp4617
g29
Vor
p4618
sg31
VO
p4619
sg33
VCC
p4620
sg35
I26
ssg10
I458
sg36
g4
sg37
(dp4621
sg39
(dp4622
sg41
I2484
sg42
g21
sg43
g21
sg44
I458
sg45
Vor
p4623
sg47
I458
sg48
I2486
sbag0
(g23
g2
Ntp4624
Rp4625
(dp4626
g27
(dp4627
g29
Va
p4628
sg31
VO
p4629
sg33
VDT
p4630
sg35
I27
ssg10
I459
sg36
g4
sg37
(dp4631
sg39
(dp4632
sg41
I2487
sg42
g21
sg43
g21
sg44
I459
sg45
Van
p4633
sg47
I459
sg48
I2489
sbag0
(g23
g2
Ntp4634
Rp4635
(dp4636
g27
(dp4637
g29
Vimmigrant
p4638
sg31
VO
p4639
sg33
VJJ
p4640
sg35
I28
ssg10
I460
sg36
g4
sg37
(dp4641
sg39
(dp4642
sg41
I2490
sg42
g21
sg43
g21
sg44
I460
sg45
Vimmigrant
p4643
sg47
I460
sg48
I2499
sbag0
(g23
g2
Ntp4644
Rp4645
(dp4646
g27
(dp4647
g29
V.
p4648
sg31
VO
p4649
sg33
V.
p4650
sg35
I29
ssg10
I461
sg36
g4
sg37
(dp4651
sg39
(dp4652
sg41
I2499
sg42
g21
sg43
g21
sg44
I461
sg45
V.
p4653
sg47
I461
sg48
I2500
sbag0
(g23
g2
Ntp4654
Rp4655
(dp4656
g27
(dp4657
g29
Vhalf
p4658
sg31
VO
p4659
sg33
VNN
p4660
sg35
I1
ssg10
I462
sg36
g4
sg37
(dp4661
sg39
(dp4662
sg41
I2501
sg42
g21
sg43
g21
sg44
I462
sg45
VHalf
p4663
sg47
I462
sg48
I2505
sbag0
(g23
g2
Ntp4664
Rp4665
(dp4666
g27
(dp4667
g29
Vwant
p4668
sg31
VO
p4669
sg33
VVBP
p4670
sg35
I2
ssg10
I463
sg36
g4
sg37
(dp4671
sg39
(dp4672
sg41
I2506
sg42
g21
sg43
g21
sg44
I463
sg45
Vwant
p4673
sg47
I463
sg48
I2510
sbag0
(g23
g2
Ntp4674
Rp4675
(dp4676
g27
(dp4677
g29
Vall
p4678
sg31
VO
p4679
sg33
VDT
p4680
sg35
I3
ssg10
I464
sg36
g4
sg37
(dp4681
sg39
(dp4682
sg41
I2511
sg42
g21
sg43
g21
sg44
I464
sg45
Vall
p4683
sg47
I464
sg48
I2514
sbag0
(g23
g2
Ntp4684
Rp4685
(dp4686
g27
(dp4687
g29
Vimmigration
p4688
sg31
VO
p4689
sg33
VNN
p4690
sg35
I4
ssg10
I465
sg36
g4
sg37
(dp4691
sg39
(dp4692
sg41
I2515
sg42
g21
sg43
g21
sg44
I465
sg45
Vimmigration
p4693
sg47
I465
sg48
I2526
sbag0
(g23
g2
Ntp4694
Rp4695
(dp4696
g27
(dp4697
g29
Vstop
p4698
sg31
VO
p4699
sg33
VVBD
p4700
sg35
I5
ssg10
I466
sg36
g4
sg37
(dp4701
sg39
(dp4702
sg41
I2527
sg42
g21
sg43
g21
sg44
I466
sg45
Vstopped
p4703
sg47
I466
sg48
I2534
sbag0
(g23
g2
Ntp4704
Rp4705
(dp4706
g27
(dp4707
g29
V,
p4708
sg31
VO
p4709
sg33
V,
p4710
sg35
I6
ssg10
I467
sg36
g4
sg37
(dp4711
sg39
(dp4712
sg41
I2534
sg42
g21
sg43
g21
sg44
I467
sg45
V,
p4713
sg47
I467
sg48
I2535
sbag0
(g23
g2
Ntp4714
Rp4715
(dp4716
g27
(dp4717
g29
Vand
p4718
sg31
VO
p4719
sg33
VCC
p4720
sg35
I7
ssg10
I468
sg36
g4
sg37
(dp4721
sg39
(dp4722
sg41
I2536
sg42
g21
sg43
g21
sg44
I468
sg45
Vand
p4723
sg47
I468
sg48
I2539
sbag0
(g23
g2
Ntp4724
Rp4725
(dp4726
g27
(dp4727
g29
V41
p4728
sg31
VPERCENT
p4729
sg33
VCD
p4730
sg35
I8
ssg10
I469
sg36
g4
sg37
(dp4731
sg39
(dp4732
sg41
I2540
sg42
g21
sg43
g21
sg44
I469
sg45
V41
p4733
sg47
I469
sg48
I2542
sbag0
(g23
g2
Ntp4734
Rp4735
(dp4736
g27
(dp4737
g29
V%
p4738
sg31
VPERCENT
p4739
sg33
VNN
p4740
sg35
I9
ssg10
I470
sg36
g4
sg37
(dp4741
sg39
(dp4742
sg41
I2542
sg42
g21
sg43
g21
sg44
I470
sg45
V%
p4743
sg47
I470
sg48
I2543
sbag0
(g23
g2
Ntp4744
Rp4745
(dp4746
g27
(dp4747
g29
Vsay
p4748
sg31
VO
p4749
sg33
VVBP
p4750
sg35
I10
ssg10
I471
sg36
g4
sg37
(dp4751
sg39
(dp4752
sg41
I2544
sg42
g21
sg43
g21
sg44
I471
sg45
Vsay
p4753
sg47
I471
sg48
I2547
sbag0
(g23
g2
Ntp4754
Rp4755
(dp4756
g27
(dp4757
g29
Vthey
p4758
sg31
VO
p4759
sg33
VPRP
p4760
sg35
I11
ssg10
I472
sg36
g4
sg37
(dp4761
sg39
(dp4762
sg41
I2548
sg42
g21
sg43
g21
sg44
I472
sg45
Vthey
p4763
sg47
I472
sg48
I2552
sbag0
(g23
g2
Ntp4764
Rp4765
(dp4766
g27
(dp4767
g29
Vdistrust
p4768
sg31
VO
p4769
sg33
VVB
p4770
sg35
I12
ssg10
I473
sg36
g4
sg37
(dp4771
sg39
(dp4772
sg41
I2553
sg42
g21
sg43
g21
sg44
I473
sg45
Vdistrust
p4773
sg47
I473
sg48
I2561
sbag0
(g23
g2
Ntp4774
Rp4775
(dp4776
g27
(dp4777
g29
Vanyone
p4778
sg31
VO
p4779
sg33
VNN
p4780
sg35
I13
ssg10
I474
sg36
g4
sg37
(dp4781
sg39
(dp4782
sg41
I2562
sg42
g21
sg43
g21
sg44
I474
sg45
Vanyone
p4783
sg47
I474
sg48
I2568
sbag0
(g23
g2
Ntp4784
Rp4785
(dp4786
g27
(dp4787
g29
Vfrom
p4788
sg31
VO
p4789
sg33
VIN
p4790
sg35
I14
ssg10
I475
sg36
g4
sg37
(dp4791
sg39
(dp4792
sg41
I2569
sg42
g21
sg43
g21
sg44
I475
sg45
Vfrom
p4793
sg47
I475
sg48
I2573
sbag0
(g23
g2
Ntp4794
Rp4795
(dp4796
g27
(dp4797
g29
Vanother
p4798
sg31
VO
p4799
sg33
VDT
p4800
sg35
I15
ssg10
I476
sg36
g4
sg37
(dp4801
sg39
(dp4802
sg41
I2574
sg42
g21
sg43
g21
sg44
I476
sg45
Vanother
p4803
sg47
I476
sg48
I2581
sbag0
(g23
g2
Ntp4804
Rp4805
(dp4806
g27
(dp4807
g29
Vethnic
p4808
sg31
VO
p4809
sg33
VJJ
p4810
sg35
I16
ssg10
I477
sg36
g4
sg37
(dp4811
sg39
(dp4812
sg41
I2582
sg42
g21
sg43
g21
sg44
I477
sg45
Vethnic
p4813
sg47
I477
sg48
I2588
sbag0
(g23
g2
Ntp4814
Rp4815
(dp4816
g27
(dp4817
g29
Vbackground
p4818
sg31
VO
p4819
sg33
VNN
p4820
sg35
I17
ssg10
I478
sg36
g4
sg37
(dp4821
sg39
(dp4822
sg41
I2589
sg42
g21
sg43
g21
sg44
I478
sg45
Vbackground
p4823
sg47
I478
sg48
I2599
sbag0
(g23
g2
Ntp4824
Rp4825
(dp4826
g27
(dp4827
g29
V-lsb-
p4828
sg31
VO
p4829
sg33
V-LRB-
p4830
sg35
I18
ssg10
I479
sg36
g4
sg37
(dp4831
sg39
(dp4832
sg41
I2600
sg42
g21
sg43
g21
sg44
I479
sg45
V[
p4833
sg47
I479
sg48
I2601
sbag0
(g23
g2
Ntp4834
Rp4835
(dp4836
g27
(dp4837
g29
Vref
p4838
sg31
VO
p4839
sg33
VNN
p4840
sg35
I19
ssg10
I480
sg36
g4
sg37
(dp4841
sg39
(dp4842
sg41
I2601
sg42
g21
sg43
g21
sg44
I480
sg45
VREF
p4843
sg47
I480
sg48
I2604
sbag0
(g23
g2
Ntp4844
Rp4845
(dp4846
g27
(dp4847
g29
V-rsb-
p4848
sg31
VO
p4849
sg33
V-RRB-
p4850
sg35
I20
ssg10
I481
sg36
g4
sg37
(dp4851
sg39
(dp4852
sg41
I2604
sg42
g21
sg43
g21
sg44
I481
sg45
V]
p4853
sg47
I481
sg48
I2605
sbag0
(g23
g2
Ntp4854
Rp4855
(dp4856
g27
(dp4857
g29
V.
p4858
sg31
VO
p4859
sg33
V.
p4860
sg35
I21
ssg10
I482
sg36
g4
sg37
(dp4861
sg39
(dp4862
sg41
I2605
sg42
g21
sg43
g21
sg44
I482
sg45
V.
p4863
sg47
I482
sg48
I2606
sbag0
(g23
g2
Ntp4864
Rp4865
(dp4866
g27
(dp4867
g29
Vbritish
p4868
sg31
VMISC
p4869
sg33
VJJ
p4870
sg35
I1
ssg10
I483
sg36
g4
sg37
(dp4871
sg39
(dp4872
sg41
I2609
sg42
g21
sg43
g21
sg44
I483
sg45
VBritish
p4873
sg47
I483
sg48
I2616
sbag0
(g23
g2
Ntp4874
Rp4875
(dp4876
g27
(dp4877
g29
Vcabinet
p4878
sg31
VO
p4879
sg33
VNN
p4880
sg35
I2
ssg10
I484
sg36
g4
sg37
(dp4881
sg39
(dp4882
sg41
I2617
sg42
g21
sg43
g21
sg44
I484
sg45
Vcabinet
p4883
sg47
I484
sg48
I2624
sbag0
(g23
g2
Ntp4884
Rp4885
(dp4886
g27
(dp4887
g29
Vminister
p4888
sg31
VO
p4889
sg33
VNNS
p4890
sg35
I3
ssg10
I485
sg36
g4
sg37
(dp4891
sg39
(dp4892
sg41
I2625
sg42
g21
sg43
g21
sg44
I485
sg45
Vministers
p4893
sg47
I485
sg48
I2634
sbag0
(g23
g2
Ntp4894
Rp4895
(dp4896
g27
(dp4897
g29
Vhave
p4898
sg31
VO
p4899
sg33
VVBD
p4900
sg35
I4
ssg10
I486
sg36
g4
sg37
(dp4901
sg39
(dp4902
sg41
I2635
sg42
g21
sg43
g21
sg44
I486
sg45
Vhad
p4903
sg47
I486
sg48
I2638
sbag0
(g23
g2
Ntp4904
Rp4905
(dp4906
g27
(dp4907
g29
Vbe
p4908
sg31
VO
p4909
sg33
VVBN
p4910
sg35
I5
ssg10
I487
sg36
g4
sg37
(dp4911
sg39
(dp4912
sg41
I2639
sg42
g21
sg43
g21
sg44
I487
sg45
Vbeen
p4913
sg47
I487
sg48
I2643
sbag0
(g23
g2
Ntp4914
Rp4915
(dp4916
g27
(dp4917
g29
Vcriticize
p4918
sg31
VO
p4919
sg33
VVBN
p4920
sg35
I6
ssg10
I488
sg36
g4
sg37
(dp4921
sg39
(dp4922
sg41
I2644
sg42
g21
sg43
g21
sg44
I488
sg45
Vcriticized
p4923
sg47
I488
sg48
I2654
sbag0
(g23
g2
Ntp4924
Rp4925
(dp4926
g27
(dp4927
g29
Vin
p4928
sg31
VO
p4929
sg33
VIN
p4930
sg35
I7
ssg10
I489
sg36
g4
sg37
(dp4931
sg39
(dp4932
sg41
I2655
sg42
g21
sg43
g21
sg44
I489
sg45
Vin
p4933
sg47
I489
sg48
I2657
sbag0
(g23
g2
Ntp4934
Rp4935
(dp4936
g27
(dp4937
g29
VOctober
p4938
sg31
VDATE
p4939
sg33
VNNP
p4940
sg35
I8
ssg10
I490
sg36
g4
sg37
(dp4941
sg39
(dp4942
sg41
I2658
sg42
g21
sg43
g21
sg44
I490
sg45
VOctober
p4943
sg47
I490
sg48
I2665
sbag0
(g23
g2
Ntp4944
Rp4945
(dp4946
g27
(dp4947
g29
V2006
p4948
sg31
VDATE
p4949
sg33
VCD
p4950
sg35
I9
ssg10
I491
sg36
g4
sg37
(dp4951
sg39
(dp4952
sg41
I2666
sg42
g21
sg43
g21
sg44
I491
sg45
V2006
p4953
sg47
I491
sg48
I2670
sbag0
(g23
g2
Ntp4954
Rp4955
(dp4956
g27
(dp4957
g29
Vfor
p4958
sg31
VO
p4959
sg33
VIN
p4960
sg35
I10
ssg10
I492
sg36
g4
sg37
(dp4961
sg39
(dp4962
sg41
I2671
sg42
g21
sg43
g21
sg44
I492
sg45
Vfor
p4963
sg47
I492
sg48
I2674
sbag0
(g23
g2
Ntp4964
Rp4965
(dp4966
g27
(dp4967
g29
Vhelp
p4968
sg31
VO
p4969
sg33
VVBG
p4970
sg35
I11
ssg10
I493
sg36
g4
sg37
(dp4971
sg39
(dp4972
sg41
I2675
sg42
g21
sg43
g21
sg44
I493
sg45
Vhelping
p4973
sg47
I493
sg48
I2682
sbag0
(g23
g2
Ntp4974
Rp4975
(dp4976
g27
(dp4977
g29
Vto
p4978
sg31
VO
p4979
sg33
VTO
p4980
sg35
I12
ssg10
I494
sg36
g4
sg37
(dp4981
sg39
(dp4982
sg41
I2683
sg42
g21
sg43
g21
sg44
I494
sg45
Vto
p4983
sg47
I494
sg48
I2685
sbag0
(g23
g2
Ntp4984
Rp4985
(dp4986
g27
(dp4987
g29
V``
p4988
sg31
VO
p4989
sg33
V``
p4990
sg35
I13
ssg10
I495
sg36
g4
sg37
(dp4991
sg39
(dp4992
sg41
I2686
sg42
g21
sg43
g21
sg44
I495
sg45
g2138
sg47
I495
sg48
I2687
sbag0
(g23
g2
Ntp4993
Rp4994
(dp4995
g27
(dp4996
g29
Vunleash
p4997
sg31
VO
p4998
sg33
VVB
p4999
sg35
I14
ssg10
I496
sg36
g4
sg37
(dp5000
sg39
(dp5001
sg41
I2687
sg42
g21
sg43
g21
sg44
I496
sg45
Vunleash
p5002
sg47
I496
sg48
I2694
sbag0
(g23
g2
Ntp5003
Rp5004
(dp5005
g27
(dp5006
g29
Va
p5007
sg31
VO
p5008
sg33
VDT
p5009
sg35
I15
ssg10
I497
sg36
g4
sg37
(dp5010
sg39
(dp5011
sg41
I2691
sg42
g21
sg43
g21
sg44
I497
sg45
Va
p5012
sg47
I497
sg48
I2692
sbag0
(g23
g2
Ntp5013
Rp5014
(dp5015
g27
(dp5016
g29
Vpublic
p5017
sg31
VO
p5018
sg33
VJJ
p5019
sg35
I16
ssg10
I498
sg36
g4
sg37
(dp5020
sg39
(dp5021
sg41
I2697
sg42
g21
sg43
g21
sg44
I498
sg45
Vpublic
p5022
sg47
I498
sg48
I2703
sbag0
(g23
g2
Ntp5023
Rp5024
(dp5025
g27
(dp5026
g29
Vanti-muslim
p5027
sg31
VO
p5028
sg33
VJJ
p5029
sg35
I17
ssg10
I499
sg36
g4
sg37
(dp5030
sg39
(dp5031
sg41
I2704
sg42
g21
sg43
g21
sg44
I499
sg45
Vanti-Muslim
p5032
sg47
I499
sg48
I2715
sbag0
(g23
g2
Ntp5033
Rp5034
(dp5035
g27
(dp5036
g29
Vbacklash
p5037
sg31
VO
p5038
sg33
VNN
p5039
sg35
I18
ssg10
I500
sg36
g4
sg37
(dp5040
sg39
(dp5041
sg41
I2716
sg42
g21
sg43
g21
sg44
I500
sg45
Vbacklash
p5042
sg47
I500
sg48
I2724
sbag0
(g23
g2
Ntp5043
Rp5044
(dp5045
g27
(dp5046
g29
V''
p5047
sg31
VO
p5048
sg33
V''
p5049
sg35
I19
ssg10
I501
sg36
g4
sg37
(dp5050
sg39
(dp5051
sg41
I2724
sg42
g21
sg43
g21
sg44
I501
sg45
g2138
sg47
I501
sg48
I2725
sbag0
(g23
g2
Ntp5052
Rp5053
(dp5054
g27
(dp5055
g29
Vin
p5056
sg31
VO
p5057
sg33
VIN
p5058
sg35
I20
ssg10
I502
sg36
g4
sg37
(dp5059
sg39
(dp5060
sg41
I2726
sg42
g21
sg43
g21
sg44
I502
sg45
Vin
p5061
sg47
I502
sg48
I2728
sbag0
(g23
g2
Ntp5062
Rp5063
(dp5064
g27
(dp5065
g29
Vthe
p5066
sg31
VO
p5067
sg33
VDT
p5068
sg35
I21
ssg10
I503
sg36
g4
sg37
(dp5069
sg39
(dp5070
sg41
I2729
sg42
g21
sg43
g21
sg44
I503
sg45
Vthe
p5071
sg47
I503
sg48
I2732
sbag0
(g23
g2
Ntp5072
Rp5073
(dp5074
g27
(dp5075
g29
VUnited
p5076
sg31
VLOCATION
p5077
sg33
VNNP
p5078
sg35
I22
ssg10
I504
sg36
g4
sg37
(dp5079
sg39
(dp5080
sg41
I2733
sg42
g21
sg43
g21
sg44
I504
sg45
VUnited
p5081
sg47
I504
sg48
I2739
sbag0
(g23
g2
Ntp5082
Rp5083
(dp5084
g27
(dp5085
g29
VKingdom
p5086
sg31
VLOCATION
p5087
sg33
VNNP
p5088
sg35
I23
ssg10
I505
sg36
g4
sg37
(dp5089
sg39
(dp5090
sg41
I2740
sg42
g21
sg43
g21
sg44
I505
sg45
VKingdom
p5091
sg47
I505
sg48
I2747
sbag0
(g23
g2
Ntp5092
Rp5093
(dp5094
g27
(dp5095
g29
Vby
p5096
sg31
VO
p5097
sg33
VIN
p5098
sg35
I24
ssg10
I506
sg36
g4
sg37
(dp5099
sg39
(dp5100
sg41
I2748
sg42
g21
sg43
g21
sg44
I506
sg45
Vby
p5101
sg47
I506
sg48
I2750
sbag0
(g23
g2
Ntp5102
Rp5103
(dp5104
g27
(dp5105
g29
Vblame
p5106
sg31
VO
p5107
sg33
VVBG
p5108
sg35
I25
ssg10
I507
sg36
g4
sg37
(dp5109
sg39
(dp5110
sg41
I2751
sg42
g21
sg43
g21
sg44
I507
sg45
Vblaming
p5111
sg47
I507
sg48
I2758
sbag0
(g23
g2
Ntp5112
Rp5113
(dp5114
g27
(dp5115
g29
Vthe
p5116
sg31
VO
p5117
sg33
VDT
p5118
sg35
I26
ssg10
I508
sg36
g4
sg37
(dp5119
sg39
(dp5120
sg41
I2759
sg42
g21
sg43
g21
sg44
I508
sg45
Vthe
p5121
sg47
I508
sg48
I2762
sbag0
(g23
g2
Ntp5122
Rp5123
(dp5124
g27
(dp5125
g29
Vmuslim
p5126
sg31
VMISC
p5127
sg33
VJJ
p5128
sg35
I27
ssg10
I509
sg36
g4
sg37
(dp5129
sg39
(dp5130
sg41
I2763
sg42
g21
sg43
g21
sg44
I509
sg45
VMuslim
p5131
sg47
I509
sg48
I2769
sbag0
(g23
g2
Ntp5132
Rp5133
(dp5134
g27
(dp5135
g29
Vcommunity
p5136
sg31
VO
p5137
sg33
VNN
p5138
sg35
I28
ssg10
I510
sg36
g4
sg37
(dp5139
sg39
(dp5140
sg41
I2770
sg42
g21
sg43
g21
sg44
I510
sg45
Vcommunity
p5141
sg47
I510
sg48
I2779
sbag0
(g23
g2
Ntp5142
Rp5143
(dp5144
g27
(dp5145
g29
Vover
p5146
sg31
VO
p5147
sg33
VIN
p5148
sg35
I29
ssg10
I511
sg36
g4
sg37
(dp5149
sg39
(dp5150
sg41
I2780
sg42
g21
sg43
g21
sg44
I511
sg45
Vover
p5151
sg47
I511
sg48
I2784
sbag0
(g23
g2
Ntp5152
Rp5153
(dp5154
g27
(dp5155
g29
Vissue
p5156
sg31
VO
p5157
sg33
VNNS
p5158
sg35
I30
ssg10
I512
sg36
g4
sg37
(dp5159
sg39
(dp5160
sg41
I2785
sg42
g21
sg43
g21
sg44
I512
sg45
Vissues
p5161
sg47
I512
sg48
I2791
sbag0
(g23
g2
Ntp5162
Rp5163
(dp5164
g27
(dp5165
g29
Vof
p5166
sg31
VO
p5167
sg33
VIN
p5168
sg35
I31
ssg10
I513
sg36
g4
sg37
(dp5169
sg39
(dp5170
sg41
I2792
sg42
g21
sg43
g21
sg44
I513
sg45
Vof
p5171
sg47
I513
sg48
I2794
sbag0
(g23
g2
Ntp5172
Rp5173
(dp5174
g27
(dp5175
g29
Vintegration
p5176
sg31
VO
p5177
sg33
VNN
p5178
sg35
I32
ssg10
I514
sg36
g4
sg37
(dp5179
sg39
(dp5180
sg41
I2795
sg42
g21
sg43
g21
sg44
I514
sg45
Vintegration
p5181
sg47
I514
sg48
I2806
sbag0
(g23
g2
Ntp5182
Rp5183
(dp5184
g27
(dp5185
g29
Vdespite
p5186
sg31
VO
p5187
sg33
VIN
p5188
sg35
I33
ssg10
I515
sg36
g4
sg37
(dp5189
sg39
(dp5190
sg41
I2807
sg42
g21
sg43
g21
sg44
I515
sg45
Vdespite
p5191
sg47
I515
sg48
I2814
sbag0
(g23
g2
Ntp5192
Rp5193
(dp5194
g27
(dp5195
g29
Va
p5196
sg31
VO
p5197
sg33
VDT
p5198
sg35
I34
ssg10
I516
sg36
g4
sg37
(dp5199
sg39
(dp5200
sg41
I2815
sg42
g21
sg43
g21
sg44
I516
sg45
Va
p5201
sg47
I516
sg48
I2816
sbag0
(g23
g2
Ntp5202
Rp5203
(dp5204
g27
(dp5205
g29
Vstudy
p5206
sg31
VO
p5207
sg33
VNN
p5208
sg35
I35
ssg10
I517
sg36
g4
sg37
(dp5209
sg39
(dp5210
sg41
I2817
sg42
g21
sg43
g21
sg44
I517
sg45
Vstudy
p5211
sg47
I517
sg48
I2822
sbag0
(g23
g2
Ntp5212
Rp5213
(dp5214
g27
(dp5215
g29
Vcommission
p5216
sg31
VO
p5217
sg33
VVBN
p5218
sg35
I36
ssg10
I518
sg36
g4
sg37
(dp5219
sg39
(dp5220
sg41
I2823
sg42
g21
sg43
g21
sg44
I518
sg45
Vcommissioned
p5221
sg47
I518
sg48
I2835
sbag0
(g23
g2
Ntp5222
Rp5223
(dp5224
g27
(dp5225
g29
Vby
p5226
sg31
VO
p5227
sg33
VIN
p5228
sg35
I37
ssg10
I519
sg36
g4
sg37
(dp5229
sg39
(dp5230
sg41
I2836
sg42
g21
sg43
g21
sg44
I519
sg45
Vby
p5231
sg47
I519
sg48
I2838
sbag0
(g23
g2
Ntp5232
Rp5233
(dp5234
g27
(dp5235
g29
Vthe
p5236
sg31
VO
p5237
sg33
VDT
p5238
sg35
I38
ssg10
I520
sg36
g4
sg37
(dp5239
sg39
(dp5240
sg41
I2839
sg42
g21
sg43
g21
sg44
I520
sg45
Vthe
p5241
sg47
I520
sg48
I2842
sbag0
(g23
g2
Ntp5242
Rp5243
(dp5244
g27
(dp5245
g29
VHome
p5246
sg31
VO
p5247
sg33
VNNP
p5248
sg35
I39
ssg10
I521
sg36
g4
sg37
(dp5249
sg39
(dp5250
sg41
I2843
sg42
g21
sg43
g21
sg44
I521
sg45
VHome
p5251
sg47
I521
sg48
I2847
sbag0
(g23
g2
Ntp5252
Rp5253
(dp5254
g27
(dp5255
g29
VOffice
p5256
sg31
VO
p5257
sg33
VNNP
p5258
sg35
I40
ssg10
I522
sg36
g4
sg37
(dp5259
sg39
(dp5260
sg41
I2848
sg42
g21
sg43
g21
sg44
I522
sg45
VOffice
p5261
sg47
I522
sg48
I2854
sbag0
(g23
g2
Ntp5262
Rp5263
(dp5264
g27
(dp5265
g29
Von
p5266
sg31
VO
p5267
sg33
VIN
p5268
sg35
I41
ssg10
I523
sg36
g4
sg37
(dp5269
sg39
(dp5270
sg41
I2855
sg42
g21
sg43
g21
sg44
I523
sg45
Von
p5271
sg47
I523
sg48
I2857
sbag0
(g23
g2
Ntp5272
Rp5273
(dp5274
g27
(dp5275
g29
Vwhite
p5276
sg31
VO
p5277
sg33
VJJ
p5278
sg35
I42
ssg10
I524
sg36
g4
sg37
(dp5279
sg39
(dp5280
sg41
I2858
sg42
g21
sg43
g21
sg44
I524
sg45
Vwhite
p5281
sg47
I524
sg48
I2863
sbag0
(g23
g2
Ntp5282
Rp5283
(dp5284
g27
(dp5285
g29
Vand
p5286
sg31
VO
p5287
sg33
VCC
p5288
sg35
I43
ssg10
I525
sg36
g4
sg37
(dp5289
sg39
(dp5290
sg41
I2864
sg42
g21
sg43
g21
sg44
I525
sg45
Vand
p5291
sg47
I525
sg48
I2867
sbag0
(g23
g2
Ntp5292
Rp5293
(dp5294
g27
(dp5295
g29
Vasian-muslim
p5296
sg31
VMISC
p5297
sg33
VJJ
p5298
sg35
I44
ssg10
I526
sg36
g4
sg37
(dp5299
sg39
(dp5300
sg41
I2868
sg42
g21
sg43
g21
sg44
I526
sg45
VAsian-Muslim
p5301
sg47
I526
sg48
I2880
sbag0
(g23
g2
Ntp5302
Rp5303
(dp5304
g27
(dp5305
g29
Vyouth
p5306
sg31
VO
p5307
sg33
VNNS
p5308
sg35
I45
ssg10
I527
sg36
g4
sg37
(dp5309
sg39
(dp5310
sg41
I2881
sg42
g21
sg43
g21
sg44
I527
sg45
Vyouths
p5311
sg47
I527
sg48
I2887
sbag0
(g23
g2
Ntp5312
Rp5313
(dp5314
g27
(dp5315
g29
Vdemonstrate
p5316
sg31
VO
p5317
sg33
VVBG
p5318
sg35
I46
ssg10
I528
sg36
g4
sg37
(dp5319
sg39
(dp5320
sg41
I2888
sg42
g21
sg43
g21
sg44
I528
sg45
Vdemonstrating
p5321
sg47
I528
sg48
I2901
sbag0
(g23
g2
Ntp5322
Rp5323
(dp5324
g27
(dp5325
g29
V``
p5326
sg31
VO
p5327
sg33
V``
p5328
sg35
I47
ssg10
I529
sg36
g4
sg37
(dp5329
sg39
(dp5330
sg41
I2902
sg42
g21
sg43
g21
sg44
I529
sg45
g2138
sg47
I529
sg48
I2903
sbag0
(g23
g2
Ntp5331
Rp5332
(dp5333
g27
(dp5334
g29
VWhite
p5335
sg31
VO
p5336
sg33
VNNP
p5337
sg35
I48
ssg10
I530
sg36
g4
sg37
(dp5338
sg39
(dp5339
sg41
I2903
sg42
g21
sg43
g21
sg44
I530
sg45
VWhite
p5340
sg47
I530
sg48
I2908
sbag0
(g23
g2
Ntp5341
Rp5342
(dp5343
g27
(dp5344
g29
Vyouth
p5345
sg31
VO
p5346
sg33
VNNS
p5347
sg35
I49
ssg10
I531
sg36
g4
sg37
(dp5348
sg39
(dp5349
sg41
I2909
sg42
g21
sg43
g21
sg44
I531
sg45
Vyouths
p5350
sg47
I531
sg48
I2915
sbag0
(g23
g2
Ntp5351
Rp5352
(dp5353
g27
(dp5354
g29
Vbe
p5355
sg31
VO
p5356
sg33
VVBP
p5357
sg35
I50
ssg10
I532
sg36
g4
sg37
(dp5358
sg39
(dp5359
sg41
I2916
sg42
g21
sg43
g21
sg44
I532
sg45
Vare
p5360
sg47
I532
sg48
I2919
sbag0
(g23
g2
Ntp5361
Rp5362
(dp5363
g27
(dp5364
g29
Vmore
p5365
sg31
VO
p5366
sg33
VRBR
p5367
sg35
I51
ssg10
I533
sg36
g4
sg37
(dp5368
sg39
(dp5369
sg41
I2920
sg42
g21
sg43
g21
sg44
I533
sg45
Vmore
p5370
sg47
I533
sg48
I2924
sbag0
(g23
g2
Ntp5371
Rp5372
(dp5373
g27
(dp5374
g29
Vlikely
p5375
sg31
VO
p5376
sg33
VJJ
p5377
sg35
I52
ssg10
I534
sg36
g4
sg37
(dp5378
sg39
(dp5379
sg41
I2925
sg42
g21
sg43
g21
sg44
I534
sg45
Vlikely
p5380
sg47
I534
sg48
I2931
sbag0
(g23
g2
Ntp5381
Rp5382
(dp5383
g27
(dp5384
g29
Vto
p5385
sg31
VO
p5386
sg33
VTO
p5387
sg35
I53
ssg10
I535
sg36
g4
sg37
(dp5388
sg39
(dp5389
sg41
I2932
sg42
g21
sg43
g21
sg44
I535
sg45
Vto
p5390
sg47
I535
sg48
I2934
sbag0
(g23
g2
Ntp5391
Rp5392
(dp5393
g27
(dp5394
g29
Vbelieve
p5395
sg31
VO
p5396
sg33
VVB
p5397
sg35
I54
ssg10
I536
sg36
g4
sg37
(dp5398
sg39
(dp5399
sg41
I2935
sg42
g21
sg43
g21
sg44
I536
sg45
Vbelieve
p5400
sg47
I536
sg48
I2942
sbag0
(g23
g2
Ntp5401
Rp5402
(dp5403
g27
(dp5404
g29
Vthey
p5405
sg31
VO
p5406
sg33
VPRP
p5407
sg35
I55
ssg10
I537
sg36
g4
sg37
(dp5408
sg39
(dp5409
sg41
I2943
sg42
g21
sg43
g21
sg44
I537
sg45
Vthey
p5410
sg47
I537
sg48
I2947
sbag0
(g23
g2
Ntp5411
Rp5412
(dp5413
g27
(dp5414
g29
Vbe
p5415
sg31
VO
p5416
sg33
VVBP
p5417
sg35
I56
ssg10
I538
sg36
g4
sg37
(dp5418
sg39
(dp5419
sg41
I2948
sg42
g21
sg43
g21
sg44
I538
sg45
Vare
p5420
sg47
I538
sg48
I2951
sbag0
(g23
g2
Ntp5421
Rp5422
(dp5423
g27
(dp5424
g29
Vsuperior
p5425
sg31
VO
p5426
sg33
VJJ
p5427
sg35
I57
ssg10
I539
sg36
g4
sg37
(dp5428
sg39
(dp5429
sg41
I2952
sg42
g21
sg43
g21
sg44
I539
sg45
Vsuperior
p5430
sg47
I539
sg48
I2960
sbag0
(g23
g2
Ntp5431
Rp5432
(dp5433
g27
(dp5434
g29
Vto
p5435
sg31
VO
p5436
sg33
VTO
p5437
sg35
I58
ssg10
I540
sg36
g4
sg37
(dp5438
sg39
(dp5439
sg41
I2961
sg42
g21
sg43
g21
sg44
I540
sg45
Vto
p5440
sg47
I540
sg48
I2963
sbag0
(g23
g2
Ntp5441
Rp5442
(dp5443
g27
(dp5444
g29
Vthose
p5445
sg31
VO
p5446
sg33
VDT
p5447
sg35
I59
ssg10
I541
sg36
g4
sg37
(dp5448
sg39
(dp5449
sg41
I2964
sg42
g21
sg43
g21
sg44
I541
sg45
Vthose
p5450
sg47
I541
sg48
I2969
sbag0
(g23
g2
Ntp5451
Rp5452
(dp5453
g27
(dp5454
g29
Vfrom
p5455
sg31
VO
p5456
sg33
VIN
p5457
sg35
I60
ssg10
I542
sg36
g4
sg37
(dp5458
sg39
(dp5459
sg41
I2970
sg42
g21
sg43
g21
sg44
I542
sg45
Vfrom
p5460
sg47
I542
sg48
I2974
sbag0
(g23
g2
Ntp5461
Rp5462
(dp5463
g27
(dp5464
g29
Vother
p5465
sg31
VO
p5466
sg33
VJJ
p5467
sg35
I61
ssg10
I543
sg36
g4
sg37
(dp5468
sg39
(dp5469
sg41
I2975
sg42
g21
sg43
g21
sg44
I543
sg45
Vother
p5470
sg47
I543
sg48
I2980
sbag0
(g23
g2
Ntp5471
Rp5472
(dp5473
g27
(dp5474
g29
Vrace
p5475
sg31
VO
p5476
sg33
VNNS
p5477
sg35
I62
ssg10
I544
sg36
g4
sg37
(dp5478
sg39
(dp5479
sg41
I2981
sg42
g21
sg43
g21
sg44
I544
sg45
Vraces
p5480
sg47
I544
sg48
I2986
sbag0
(g23
g2
Ntp5481
Rp5482
(dp5483
g27
(dp5484
g29
V,
p5485
sg31
VO
p5486
sg33
V,
p5487
sg35
I63
ssg10
I545
sg36
g4
sg37
(dp5488
sg39
(dp5489
sg41
I2986
sg42
g21
sg43
g21
sg44
I545
sg45
V,
p5490
sg47
I545
sg48
I2987
sbag0
(g23
g2
Ntp5491
Rp5492
(dp5493
g27
(dp5494
g29
Vand
p5495
sg31
VO
p5496
sg33
VCC
p5497
sg35
I64
ssg10
I546
sg36
g4
sg37
(dp5498
sg39
(dp5499
sg41
I2988
sg42
g21
sg43
g21
sg44
I546
sg45
Vand
p5500
sg47
I546
sg48
I2991
sbag0
(g23
g2
Ntp5501
Rp5502
(dp5503
g27
(dp5504
g29
Vthey
p5505
sg31
VO
p5506
sg33
VPRP$
p5507
sg35
I65
ssg10
I547
sg36
g4
sg37
(dp5508
sg39
(dp5509
sg41
I2992
sg42
g21
sg43
g21
sg44
I547
sg45
Vtheir
p5510
sg47
I547
sg48
I2997
sbag0
(g23
g2
Ntp5511
Rp5512
(dp5513
g27
(dp5514
g29
Vattitude
p5515
sg31
VO
p5516
sg33
VNNS
p5517
sg35
I66
ssg10
I548
sg36
g4
sg37
(dp5518
sg39
(dp5519
sg41
I2998
sg42
g21
sg43
g21
sg44
I548
sg45
Vattitudes
p5520
sg47
I548
sg48
I3007
sbag0
(g23
g2
Ntp5521
Rp5522
(dp5523
g27
(dp5524
g29
Vbe
p5525
sg31
VO
p5526
sg33
VVBP
p5527
sg35
I67
ssg10
I549
sg36
g4
sg37
(dp5528
sg39
(dp5529
sg41
I3008
sg42
g21
sg43
g21
sg44
I549
sg45
Vare
p5530
sg47
I549
sg48
I3011
sbag0
(g23
g2
Ntp5531
Rp5532
(dp5533
g27
(dp5534
g29
Vmore
p5535
sg31
VO
p5536
sg33
VJJR
p5537
sg35
I68
ssg10
I550
sg36
g4
sg37
(dp5538
sg39
(dp5539
sg41
I3012
sg42
g21
sg43
g21
sg44
I550
sg45
Vmore
p5540
sg47
I550
sg48
I3016
sbag0
(g23
g2
Ntp5541
Rp5542
(dp5543
g27
(dp5544
g29
Vof
p5545
sg31
VO
p5546
sg33
VIN
p5547
sg35
I69
ssg10
I551
sg36
g4
sg37
(dp5548
sg39
(dp5549
sg41
I3017
sg42
g21
sg43
g21
sg44
I551
sg45
Vof
p5550
sg47
I551
sg48
I3019
sbag0
(g23
g2
Ntp5551
Rp5552
(dp5553
g27
(dp5554
g29
Va
p5555
sg31
VO
p5556
sg33
VDT
p5557
sg35
I70
ssg10
I552
sg36
g4
sg37
(dp5558
sg39
(dp5559
sg41
I3020
sg42
g21
sg43
g21
sg44
I552
sg45
Va
p5560
sg47
I552
sg48
I3021
sbag0
(g23
g2
Ntp5561
Rp5562
(dp5563
g27
(dp5564
g29
Vbarrier
p5565
sg31
VO
p5566
sg33
VNN
p5567
sg35
I71
ssg10
I553
sg36
g4
sg37
(dp5568
sg39
(dp5569
sg41
I3022
sg42
g21
sg43
g21
sg44
I553
sg45
Vbarrier
p5570
sg47
I553
sg48
I3029
sbag0
(g23
g2
Ntp5571
Rp5572
(dp5573
g27
(dp5574
g29
Vto
p5575
sg31
VO
p5576
sg33
VTO
p5577
sg35
I72
ssg10
I554
sg36
g4
sg37
(dp5578
sg39
(dp5579
sg41
I3030
sg42
g21
sg43
g21
sg44
I554
sg45
Vto
p5580
sg47
I554
sg48
I3032
sbag0
(g23
g2
Ntp5581
Rp5582
(dp5583
g27
(dp5584
g29
Vintegration
p5585
sg31
VO
p5586
sg33
VNN
p5587
sg35
I73
ssg10
I555
sg36
g4
sg37
(dp5588
sg39
(dp5589
sg41
I3033
sg42
g21
sg43
g21
sg44
I555
sg45
Vintegration
p5590
sg47
I555
sg48
I3044
sbag0
(g23
g2
Ntp5591
Rp5592
(dp5593
g27
(dp5594
g29
Vthan
p5595
sg31
VO
p5596
sg33
VIN
p5597
sg35
I74
ssg10
I556
sg36
g4
sg37
(dp5598
sg39
(dp5599
sg41
I3045
sg42
g21
sg43
g21
sg44
I556
sg45
Vthan
p5600
sg47
I556
sg48
I3049
sbag0
(g23
g2
Ntp5601
Rp5602
(dp5603
g27
(dp5604
g29
Vthose
p5605
sg31
VO
p5606
sg33
VDT
p5607
sg35
I75
ssg10
I557
sg36
g4
sg37
(dp5608
sg39
(dp5609
sg41
I3050
sg42
g21
sg43
g21
sg44
I557
sg45
Vthose
p5610
sg47
I557
sg48
I3055
sbag0
(g23
g2
Ntp5611
Rp5612
(dp5613
g27
(dp5614
g29
Vof
p5615
sg31
VO
p5616
sg33
VIN
p5617
sg35
I76
ssg10
I558
sg36
g4
sg37
(dp5618
sg39
(dp5619
sg41
I3056
sg42
g21
sg43
g21
sg44
I558
sg45
Vof
p5620
sg47
I558
sg48
I3058
sbag0
(g23
g2
Ntp5621
Rp5622
(dp5623
g27
(dp5624
g29
VMuslims
p5625
sg31
VO
p5626
sg33
VNNPS
p5627
sg35
I77
ssg10
I559
sg36
g4
sg37
(dp5628
sg39
(dp5629
sg41
I3059
sg42
g21
sg43
g21
sg44
I559
sg45
VMuslims
p5630
sg47
I559
sg48
I3066
sbag0
(g23
g2
Ntp5631
Rp5632
(dp5633
g27
(dp5634
g29
V''
p5635
sg31
VO
p5636
sg33
V''
p5637
sg35
I78
ssg10
I560
sg36
g4
sg37
(dp5638
sg39
(dp5639
sg41
I3066
sg42
g21
sg43
g21
sg44
I560
sg45
g2138
sg47
I560
sg48
I3067
sbag0
(g23
g2
Ntp5640
Rp5641
(dp5642
g27
(dp5643
g29
V-lsb-
p5644
sg31
VO
p5645
sg33
V-LRB-
p5646
sg35
I79
ssg10
I561
sg36
g4
sg37
(dp5647
sg39
(dp5648
sg41
I3068
sg42
g21
sg43
g21
sg44
I561
sg45
V[
p5649
sg47
I561
sg48
I3069
sbag0
(g23
g2
Ntp5650
Rp5651
(dp5652
g27
(dp5653
g29
Vref
p5654
sg31
VO
p5655
sg33
VNN
p5656
sg35
I80
ssg10
I562
sg36
g4
sg37
(dp5657
sg39
(dp5658
sg41
I3069
sg42
g21
sg43
g21
sg44
I562
sg45
VREF
p5659
sg47
I562
sg48
I3072
sbag0
(g23
g2
Ntp5660
Rp5661
(dp5662
g27
(dp5663
g29
V-rsb-
p5664
sg31
VO
p5665
sg33
V-RRB-
p5666
sg35
I81
ssg10
I563
sg36
g4
sg37
(dp5667
sg39
(dp5668
sg41
I3072
sg42
g21
sg43
g21
sg44
I563
sg45
V]
p5669
sg47
I563
sg48
I3073
sbag0
(g23
g2
Ntp5670
Rp5671
(dp5672
g27
(dp5673
g29
V.
p5674
sg31
VO
p5675
sg33
V.
p5676
sg35
I82
ssg10
I564
sg36
g4
sg37
(dp5677
sg39
(dp5678
sg41
I3073
sg42
g21
sg43
g21
sg44
I564
sg45
V.
p5679
sg47
I564
sg48
I3074
sbag0
(g23
g2
Ntp5680
Rp5681
(dp5682
g27
(dp5683
g29
Va
p5684
sg31
VO
p5685
sg33
VDT
p5686
sg35
I1
ssg10
I565
sg36
g4
sg37
(dp5687
sg39
(dp5688
sg41
I3075
sg42
g21
sg43
g21
sg44
I565
sg45
VA
p5689
sg47
I565
sg48
I3076
sbag0
(g23
g2
Ntp5690
Rp5691
(dp5692
g27
(dp5693
g29
Veurope-wide
p5694
sg31
VMISC
p5695
sg33
VJJ
p5696
sg35
I2
ssg10
I566
sg36
g4
sg37
(dp5697
sg39
(dp5698
sg41
I3077
sg42
g21
sg43
g21
sg44
I566
sg45
VEurope-wide
p5699
sg47
I566
sg48
I3088
sbag0
(g23
g2
Ntp5700
Rp5701
(dp5702
g27
(dp5703
g29
Vsurvey
p5704
sg31
VO
p5705
sg33
VNN
p5706
sg35
I3
ssg10
I567
sg36
g4
sg37
(dp5707
sg39
(dp5708
sg41
I3089
sg42
g21
sg43
g21
sg44
I567
sg45
Vsurvey
p5709
sg47
I567
sg48
I3095
sbag0
(g23
g2
Ntp5710
Rp5711
(dp5712
g27
(dp5713
g29
Vby
p5714
sg31
VO
p5715
sg33
VIN
p5716
sg35
I4
ssg10
I568
sg36
g4
sg37
(dp5717
sg39
(dp5718
sg41
I3096
sg42
g21
sg43
g21
sg44
I568
sg45
Vby
p5719
sg47
I568
sg48
I3098
sbag0
(g23
g2
Ntp5720
Rp5721
(dp5722
g27
(dp5723
g29
VGallup
p5724
sg31
VORGANIZATION
p5725
sg33
VNNP
p5726
sg35
I5
ssg10
I569
sg36
g4
sg37
(dp5727
sg39
(dp5728
sg41
I3099
sg42
g21
sg43
g21
sg44
I569
sg45
VGallup
p5729
sg47
I569
sg48
I3105
sbag0
(g23
g2
Ntp5730
Rp5731
(dp5732
g27
(dp5733
g29
Vin
p5734
sg31
VO
p5735
sg33
VIN
p5736
sg35
I6
ssg10
I570
sg36
g4
sg37
(dp5737
sg39
(dp5738
sg41
I3106
sg42
g21
sg43
g21
sg44
I570
sg45
Vin
p5739
sg47
I570
sg48
I3108
sbag0
(g23
g2
Ntp5740
Rp5741
(dp5742
g27
(dp5743
g29
VMay
p5744
sg31
VDATE
p5745
sg33
VNNP
p5746
sg35
I7
ssg10
I571
sg36
g4
sg37
(dp5747
sg39
(dp5748
sg41
I3109
sg42
g21
sg43
g21
sg44
I571
sg45
VMay
p5749
sg47
I571
sg48
I3112
sbag0
(g23
g2
Ntp5750
Rp5751
(dp5752
g27
(dp5753
g29
V2009
p5754
sg31
VDATE
p5755
sg33
VCD
p5756
sg35
I8
ssg10
I572
sg36
g4
sg37
(dp5757
sg39
(dp5758
sg41
I3113
sg42
g21
sg43
g21
sg44
I572
sg45
V2009
p5759
sg47
I572
sg48
I3117
sbag0
(g23
g2
Ntp5760
Rp5761
(dp5762
g27
(dp5763
g29
Valso
p5764
sg31
VO
p5765
sg33
VRB
p5766
sg35
I9
ssg10
I573
sg36
g4
sg37
(dp5767
sg39
(dp5768
sg41
I3118
sg42
g21
sg43
g21
sg44
I573
sg45
Valso
p5769
sg47
I573
sg48
I3122
sbag0
(g23
g2
Ntp5770
Rp5771
(dp5772
g27
(dp5773
g29
Vfind
p5774
sg31
VO
p5775
sg33
VVBD
p5776
sg35
I10
ssg10
I574
sg36
g4
sg37
(dp5777
sg39
(dp5778
sg41
I3123
sg42
g21
sg43
g21
sg44
I574
sg45
Vfound
p5779
sg47
I574
sg48
I3128
sbag0
(g23
g2
Ntp5780
Rp5781
(dp5782
g27
(dp5783
g29
Vthat
p5784
sg31
VO
p5785
sg33
VIN
p5786
sg35
I11
ssg10
I575
sg36
g4
sg37
(dp5787
sg39
(dp5788
sg41
I3129
sg42
g21
sg43
g21
sg44
I575
sg45
Vthat
p5789
sg47
I575
sg48
I3133
sbag0
(g23
g2
Ntp5790
Rp5791
(dp5792
g27
(dp5793
g29
Vthe
p5794
sg31
VO
p5795
sg33
VDT
p5796
sg35
I12
ssg10
I576
sg36
g4
sg37
(dp5797
sg39
(dp5798
sg41
I3134
sg42
g21
sg43
g21
sg44
I576
sg45
Vthe
p5799
sg47
I576
sg48
I3137
sbag0
(g23
g2
Ntp5800
Rp5801
(dp5802
g27
(dp5803
g29
Vmuslim
p5804
sg31
VMISC
p5805
sg33
VJJ
p5806
sg35
I13
ssg10
I577
sg36
g4
sg37
(dp5807
sg39
(dp5808
sg41
I3138
sg42
g21
sg43
g21
sg44
I577
sg45
VMuslim
p5809
sg47
I577
sg48
I3144
sbag0
(g23
g2
Ntp5810
Rp5811
(dp5812
g27
(dp5813
g29
Vcommunity
p5814
sg31
VO
p5815
sg33
VNNS
p5816
sg35
I14
ssg10
I578
sg36
g4
sg37
(dp5817
sg39
(dp5818
sg41
I3145
sg42
g21
sg43
g21
sg44
I578
sg45
Vcommunities
p5819
sg47
I578
sg48
I3156
sbag0
(g23
g2
Ntp5820
Rp5821
(dp5822
g27
(dp5823
g29
Vin
p5824
sg31
VO
p5825
sg33
VIN
p5826
sg35
I15
ssg10
I579
sg36
g4
sg37
(dp5827
sg39
(dp5828
sg41
I3157
sg42
g21
sg43
g21
sg44
I579
sg45
Vin
p5829
sg47
I579
sg48
I3159
sbag0
(g23
g2
Ntp5830
Rp5831
(dp5832
g27
(dp5833
g29
VBritain
p5834
sg31
VLOCATION
p5835
sg33
VNNP
p5836
sg35
I16
ssg10
I580
sg36
g4
sg37
(dp5837
sg39
(dp5838
sg41
I3160
sg42
g21
sg43
g21
sg44
I580
sg45
VBritain
p5839
sg47
I580
sg48
I3167
sbag0
(g23
g2
Ntp5840
Rp5841
(dp5842
g27
(dp5843
g29
V,
p5844
sg31
VO
p5845
sg33
V,
p5846
sg35
I17
ssg10
I581
sg36
g4
sg37
(dp5847
sg39
(dp5848
sg41
I3167
sg42
g21
sg43
g21
sg44
I581
sg45
V,
p5849
sg47
I581
sg48
I3168
sbag0
(g23
g2
Ntp5850
Rp5851
(dp5852
g27
(dp5853
g29
VGermany
p5854
sg31
VLOCATION
p5855
sg33
VNNP
p5856
sg35
I18
ssg10
I582
sg36
g4
sg37
(dp5857
sg39
(dp5858
sg41
I3169
sg42
g21
sg43
g21
sg44
I582
sg45
VGermany
p5859
sg47
I582
sg48
I3176
sbag0
(g23
g2
Ntp5860
Rp5861
(dp5862
g27
(dp5863
g29
Vand
p5864
sg31
VO
p5865
sg33
VCC
p5866
sg35
I19
ssg10
I583
sg36
g4
sg37
(dp5867
sg39
(dp5868
sg41
I3177
sg42
g21
sg43
g21
sg44
I583
sg45
Vand
p5869
sg47
I583
sg48
I3180
sbag0
(g23
g2
Ntp5870
Rp5871
(dp5872
g27
(dp5873
g29
VFrance
p5874
sg31
VLOCATION
p5875
sg33
VNNP
p5876
sg35
I20
ssg10
I584
sg36
g4
sg37
(dp5877
sg39
(dp5878
sg41
I3181
sg42
g21
sg43
g21
sg44
I584
sg45
VFrance
p5879
sg47
I584
sg48
I3187
sbag0
(g23
g2
Ntp5880
Rp5881
(dp5882
g27
(dp5883
g29
Vfeel
p5884
sg31
VO
p5885
sg33
VVBD
p5886
sg35
I21
ssg10
I585
sg36
g4
sg37
(dp5887
sg39
(dp5888
sg41
I3188
sg42
g21
sg43
g21
sg44
I585
sg45
Vfelt
p5889
sg47
I585
sg48
I3192
sbag0
(g23
g2
Ntp5890
Rp5891
(dp5892
g27
(dp5893
g29
Vmore
p5894
sg31
VO
p5895
sg33
VRBR
p5896
sg35
I22
ssg10
I586
sg36
g4
sg37
(dp5897
sg39
(dp5898
sg41
I3193
sg42
g21
sg43
g21
sg44
I586
sg45
Vmore
p5899
sg47
I586
sg48
I3197
sbag0
(g23
g2
Ntp5900
Rp5901
(dp5902
g27
(dp5903
g29
Vpatriotic
p5904
sg31
VO
p5905
sg33
VJJ
p5906
sg35
I23
ssg10
I587
sg36
g4
sg37
(dp5907
sg39
(dp5908
sg41
I3198
sg42
g21
sg43
g21
sg44
I587
sg45
Vpatriotic
p5909
sg47
I587
sg48
I3207
sbag0
(g23
g2
Ntp5910
Rp5911
(dp5912
g27
(dp5913
g29
Vtowards
p5914
sg31
VO
p5915
sg33
VIN
p5916
sg35
I24
ssg10
I588
sg36
g4
sg37
(dp5917
sg39
(dp5918
sg41
I3208
sg42
g21
sg43
g21
sg44
I588
sg45
Vtowards
p5919
sg47
I588
sg48
I3215
sbag0
(g23
g2
Ntp5920
Rp5921
(dp5922
g27
(dp5923
g29
Vthose
p5924
sg31
VO
p5925
sg33
VDT
p5926
sg35
I25
ssg10
I589
sg36
g4
sg37
(dp5927
sg39
(dp5928
sg41
I3216
sg42
g21
sg43
g21
sg44
I589
sg45
Vthose
p5929
sg47
I589
sg48
I3221
sbag0
(g23
g2
Ntp5930
Rp5931
(dp5932
g27
(dp5933
g29
Vcountry
p5934
sg31
VO
p5935
sg33
VNNS
p5936
sg35
I26
ssg10
I590
sg36
g4
sg37
(dp5937
sg39
(dp5938
sg41
I3222
sg42
g21
sg43
g21
sg44
I590
sg45
Vcountries
p5939
sg47
I590
sg48
I3231
sbag0
(g23
g2
Ntp5940
Rp5941
(dp5942
g27
(dp5943
g29
Vcompare
p5944
sg31
VO
p5945
sg33
VVBN
p5946
sg35
I27
ssg10
I591
sg36
g4
sg37
(dp5947
sg39
(dp5948
sg41
I3232
sg42
g21
sg43
g21
sg44
I591
sg45
Vcompared
p5949
sg47
I591
sg48
I3240
sbag0
(g23
g2
Ntp5950
Rp5951
(dp5952
g27
(dp5953
g29
Vto
p5954
sg31
VO
p5955
sg33
VTO
p5956
sg35
I28
ssg10
I592
sg36
g4
sg37
(dp5957
sg39
(dp5958
sg41
I3241
sg42
g21
sg43
g21
sg44
I592
sg45
Vto
p5959
sg47
I592
sg48
I3243
sbag0
(g23
g2
Ntp5960
Rp5961
(dp5962
g27
(dp5963
g29
Vthe
p5964
sg31
VO
p5965
sg33
VDT
p5966
sg35
I29
ssg10
I593
sg36
g4
sg37
(dp5967
sg39
(dp5968
sg41
I3244
sg42
g21
sg43
g21
sg44
I593
sg45
Vthe
p5969
sg47
I593
sg48
I3247
sbag0
(g23
g2
Ntp5970
Rp5971
(dp5972
g27
(dp5973
g29
Vgeneral
p5974
sg31
VO
p5975
sg33
VJJ
p5976
sg35
I30
ssg10
I594
sg36
g4
sg37
(dp5977
sg39
(dp5978
sg41
I3248
sg42
g21
sg43
g21
sg44
I594
sg45
Vgeneral
p5979
sg47
I594
sg48
I3255
sbag0
(g23
g2
Ntp5980
Rp5981
(dp5982
g27
(dp5983
g29
Vpopulation
p5984
sg31
VO
p5985
sg33
VNNS
p5986
sg35
I31
ssg10
I595
sg36
g4
sg37
(dp5987
sg39
(dp5988
sg41
I3256
sg42
g21
sg43
g21
sg44
I595
sg45
Vpopulations
p5989
sg47
I595
sg48
I3267
sbag0
(g23
g2
Ntp5990
Rp5991
(dp5992
g27
(dp5993
g29
Vas
p5994
sg31
VO
p5995
sg33
VIN
p5996
sg35
I32
ssg10
I596
sg36
g4
sg37
(dp5997
sg39
(dp5998
sg41
I3268
sg42
g21
sg43
g21
sg44
I596
sg45
Vas
p5999
sg47
I596
sg48
I3270
sbag0
(g23
g2
Ntp6000
Rp6001
(dp6002
g27
(dp6003
g29
Va
p6004
sg31
VO
p6005
sg33
VDT
p6006
sg35
I33
ssg10
I597
sg36
g4
sg37
(dp6007
sg39
(dp6008
sg41
I3268
sg42
g21
sg43
g21
sg44
I597
sg45
Va
p6009
sg47
I597
sg48
I3269
sbag0
(g23
g2
Ntp6010
Rp6011
(dp6012
g27
(dp6013
g29
Vwhole
p6014
sg31
VO
p6015
sg33
VJJ
p6016
sg35
I34
ssg10
I598
sg36
g4
sg37
(dp6017
sg39
(dp6018
sg41
I3273
sg42
g21
sg43
g21
sg44
I598
sg45
Vwhole
p6019
sg47
I598
sg48
I3278
sbag0
(g23
g2
Ntp6020
Rp6021
(dp6022
g27
(dp6023
g29
V,
p6024
sg31
VO
p6025
sg33
V,
p6026
sg35
I35
ssg10
I599
sg36
g4
sg37
(dp6027
sg39
(dp6028
sg41
I3278
sg42
g21
sg43
g21
sg44
I599
sg45
V,
p6029
sg47
I599
sg48
I3279
sbag0
(g23
g2
Ntp6030
Rp6031
(dp6032
g27
(dp6033
g29
V-lsb-
p6034
sg31
VO
p6035
sg33
V-LRB-
p6036
sg35
I36
ssg10
I600
sg36
g4
sg37
(dp6037
sg39
(dp6038
sg41
I3279
sg42
g21
sg43
g21
sg44
I600
sg45
V[
p6039
sg47
I600
sg48
I3280
sbag0
(g23
g2
Ntp6040
Rp6041
(dp6042
g27
(dp6043
g29
VREF
p6044
sg31
VO
p6045
sg33
VNNP
p6046
sg35
I37
ssg10
I601
sg36
g4
sg37
(dp6047
sg39
(dp6048
sg41
I3280
sg42
g21
sg43
g21
sg44
I601
sg45
VREF
p6049
sg47
I601
sg48
I3283
sbag0
(g23
g2
Ntp6050
Rp6051
(dp6052
g27
(dp6053
g29
V-rsb-
p6054
sg31
VO
p6055
sg33
V-RRB-
p6056
sg35
I38
ssg10
I602
sg36
g4
sg37
(dp6057
sg39
(dp6058
sg41
I3283
sg42
g21
sg43
g21
sg44
I602
sg45
V]
p6059
sg47
I602
sg48
I3284
sbag0
(g23
g2
Ntp6060
Rp6061
(dp6062
g27
(dp6063
g29
V-lsb-
p6064
sg31
VO
p6065
sg33
V-LRB-
p6066
sg35
I39
ssg10
I603
sg36
g4
sg37
(dp6067
sg39
(dp6068
sg41
I3284
sg42
g21
sg43
g21
sg44
I603
sg45
V[
p6069
sg47
I603
sg48
I3285
sbag0
(g23
g2
Ntp6070
Rp6071
(dp6072
g27
(dp6073
g29
Vref
p6074
sg31
VO
p6075
sg33
VNN
p6076
sg35
I40
ssg10
I604
sg36
g4
sg37
(dp6077
sg39
(dp6078
sg41
I3285
sg42
g21
sg43
g21
sg44
I604
sg45
VREF
p6079
sg47
I604
sg48
I3288
sbag0
(g23
g2
Ntp6080
Rp6081
(dp6082
g27
(dp6083
g29
V-rsb-
p6084
sg31
VO
p6085
sg33
V-RRB-
p6086
sg35
I41
ssg10
I605
sg36
g4
sg37
(dp6087
sg39
(dp6088
sg41
I3288
sg42
g21
sg43
g21
sg44
I605
sg45
V]
p6089
sg47
I605
sg48
I3289
sbag0
(g23
g2
Ntp6090
Rp6091
(dp6092
g27
(dp6093
g29
Vwhile
p6094
sg31
VO
p6095
sg33
VIN
p6096
sg35
I42
ssg10
I606
sg36
g4
sg37
(dp6097
sg39
(dp6098
sg41
I3290
sg42
g21
sg43
g21
sg44
I606
sg45
Vwhile
p6099
sg47
I606
sg48
I3295
sbag0
(g23
g2
Ntp6100
Rp6101
(dp6102
g27
(dp6103
g29
Vanother
p6104
sg31
VO
p6105
sg33
VDT
p6106
sg35
I43
ssg10
I607
sg36
g4
sg37
(dp6107
sg39
(dp6108
sg41
I3296
sg42
g21
sg43
g21
sg44
I607
sg45
Vanother
p6109
sg47
I607
sg48
I3303
sbag0
(g23
g2
Ntp6110
Rp6111
(dp6112
g27
(dp6113
g29
Vsurvey
p6114
sg31
VO
p6115
sg33
VNN
p6116
sg35
I44
ssg10
I608
sg36
g4
sg37
(dp6117
sg39
(dp6118
sg41
I3304
sg42
g21
sg43
g21
sg44
I608
sg45
Vsurvey
p6119
sg47
I608
sg48
I3310
sbag0
(g23
g2
Ntp6120
Rp6121
(dp6122
g27
(dp6123
g29
Vfind
p6124
sg31
VO
p6125
sg33
VVBD
p6126
sg35
I45
ssg10
I609
sg36
g4
sg37
(dp6127
sg39
(dp6128
sg41
I3311
sg42
g21
sg43
g21
sg44
I609
sg45
Vfound
p6129
sg47
I609
sg48
I3316
sbag0
(g23
g2
Ntp6130
Rp6131
(dp6132
g27
(dp6133
g29
Vthat
p6134
sg31
VO
p6135
sg33
VIN
p6136
sg35
I46
ssg10
I610
sg36
g4
sg37
(dp6137
sg39
(dp6138
sg41
I3317
sg42
g21
sg43
g21
sg44
I610
sg45
Vthat
p6139
sg47
I610
sg48
I3321
sbag0
(g23
g2
Ntp6140
Rp6141
(dp6142
g27
(dp6143
g29
VMuslims
p6144
sg31
VMISC
p6145
sg33
VNNPS
p6146
sg35
I47
ssg10
I611
sg36
g4
sg37
(dp6147
sg39
(dp6148
sg41
I3322
sg42
g21
sg43
g21
sg44
I611
sg45
VMuslims
p6149
sg47
I611
sg48
I3329
sbag0
(g23
g2
Ntp6150
Rp6151
(dp6152
g27
(dp6153
g29
Vsupport
p6154
sg31
VO
p6155
sg33
VVBD
p6156
sg35
I48
ssg10
I612
sg36
g4
sg37
(dp6157
sg39
(dp6158
sg41
I3330
sg42
g21
sg43
g21
sg44
I612
sg45
Vsupported
p6159
sg47
I612
sg48
I3339
sbag0
(g23
g2
Ntp6160
Rp6161
(dp6162
g27
(dp6163
g29
Vthe
p6164
sg31
VO
p6165
sg33
VDT
p6166
sg35
I49
ssg10
I613
sg36
g4
sg37
(dp6167
sg39
(dp6168
sg41
I3340
sg42
g21
sg43
g21
sg44
I613
sg45
Vthe
p6169
sg47
I613
sg48
I3343
sbag0
(g23
g2
Ntp6170
Rp6171
(dp6172
g27
(dp6173
g29
Vrole
p6174
sg31
VO
p6175
sg33
VNN
p6176
sg35
I50
ssg10
I614
sg36
g4
sg37
(dp6177
sg39
(dp6178
sg41
I3344
sg42
g21
sg43
g21
sg44
I614
sg45
Vrole
p6179
sg47
I614
sg48
I3348
sbag0
(g23
g2
Ntp6180
Rp6181
(dp6182
g27
(dp6183
g29
Vof
p6184
sg31
VO
p6185
sg33
VIN
p6186
sg35
I51
ssg10
I615
sg36
g4
sg37
(dp6187
sg39
(dp6188
sg41
I3349
sg42
g21
sg43
g21
sg44
I615
sg45
Vof
p6189
sg47
I615
sg48
I3351
sbag0
(g23
g2
Ntp6190
Rp6191
(dp6192
g27
(dp6193
g29
VChristianity
p6194
sg31
VO
p6195
sg33
VNNP
p6196
sg35
I52
ssg10
I616
sg36
g4
sg37
(dp6197
sg39
(dp6198
sg41
I3352
sg42
g21
sg43
g21
sg44
I616
sg45
VChristianity
p6199
sg47
I616
sg48
I3364
sbag0
(g23
g2
Ntp6200
Rp6201
(dp6202
g27
(dp6203
g29
Vin
p6204
sg31
VO
p6205
sg33
VIN
p6206
sg35
I53
ssg10
I617
sg36
g4
sg37
(dp6207
sg39
(dp6208
sg41
I3365
sg42
g21
sg43
g21
sg44
I617
sg45
Vin
p6209
sg47
I617
sg48
I3367
sbag0
(g23
g2
Ntp6210
Rp6211
(dp6212
g27
(dp6213
g29
VBritish
p6214
sg31
VMISC
p6215
sg33
VNNP
p6216
sg35
I54
ssg10
I618
sg36
g4
sg37
(dp6217
sg39
(dp6218
sg41
I3368
sg42
g21
sg43
g21
sg44
I618
sg45
VBritish
p6219
sg47
I618
sg48
I3375
sbag0
(g23
g2
Ntp6220
Rp6221
(dp6222
g27
(dp6223
g29
Vlife
p6224
sg31
VO
p6225
sg33
VNN
p6226
sg35
I55
ssg10
I619
sg36
g4
sg37
(dp6227
sg39
(dp6228
sg41
I3376
sg42
g21
sg43
g21
sg44
I619
sg45
Vlife
p6229
sg47
I619
sg48
I3380
sbag0
(g23
g2
Ntp6230
Rp6231
(dp6232
g27
(dp6233
g29
Vmore
p6234
sg31
VO
p6235
sg33
VRBR
p6236
sg35
I56
ssg10
I620
sg36
g4
sg37
(dp6237
sg39
(dp6238
sg41
I3381
sg42
g21
sg43
g21
sg44
I620
sg45
Vmore
p6239
sg47
I620
sg48
I3385
sbag0
(g23
g2
Ntp6240
Rp6241
(dp6242
g27
(dp6243
g29
Vso
p6244
sg31
VO
p6245
sg33
VRB
p6246
sg35
I57
ssg10
I621
sg36
g4
sg37
(dp6247
sg39
(dp6248
sg41
I3386
sg42
g21
sg43
g21
sg44
I621
sg45
Vso
p6249
sg47
I621
sg48
I3388
sbag0
(g23
g2
Ntp6250
Rp6251
(dp6252
g27
(dp6253
g29
Vthan
p6254
sg31
VO
p6255
sg33
VIN
p6256
sg35
I58
ssg10
I622
sg36
g4
sg37
(dp6257
sg39
(dp6258
sg41
I3389
sg42
g21
sg43
g21
sg44
I622
sg45
Vthan
p6259
sg47
I622
sg48
I3393
sbag0
(g23
g2
Ntp6260
Rp6261
(dp6262
g27
(dp6263
g29
Vchristian
p6264
sg31
VMISC
p6265
sg33
VNNS
p6266
sg35
I59
ssg10
I623
sg36
g4
sg37
(dp6267
sg39
(dp6268
sg41
I3394
sg42
g21
sg43
g21
sg44
I623
sg45
VChristians
p6269
sg47
I623
sg48
I3404
sbag0
(g23
g2
Ntp6270
Rp6271
(dp6272
g27
(dp6273
g29
Vthemselves
p6274
sg31
VO
p6275
sg33
VPRP
p6276
sg35
I60
ssg10
I624
sg36
g4
sg37
(dp6277
sg39
(dp6278
sg41
I3405
sg42
g21
sg43
g21
sg44
I624
sg45
Vthemselves
p6279
sg47
I624
sg48
I3415
sbag0
(g23
g2
Ntp6280
Rp6281
(dp6282
g27
(dp6283
g29
V-lsb-
p6284
sg31
VO
p6285
sg33
V-LRB-
p6286
sg35
I61
ssg10
I625
sg36
g4
sg37
(dp6287
sg39
(dp6288
sg41
I3416
sg42
g21
sg43
g21
sg44
I625
sg45
V[
p6289
sg47
I625
sg48
I3417
sbag0
(g23
g2
Ntp6290
Rp6291
(dp6292
g27
(dp6293
g29
Vref
p6294
sg31
VO
p6295
sg33
VNN
p6296
sg35
I62
ssg10
I626
sg36
g4
sg37
(dp6297
sg39
(dp6298
sg41
I3417
sg42
g21
sg43
g21
sg44
I626
sg45
VREF
p6299
sg47
I626
sg48
I3420
sbag0
(g23
g2
Ntp6300
Rp6301
(dp6302
g27
(dp6303
g29
V-rsb-
p6304
sg31
VO
p6305
sg33
V-RRB-
p6306
sg35
I63
ssg10
I627
sg36
g4
sg37
(dp6307
sg39
(dp6308
sg41
I3420
sg42
g21
sg43
g21
sg44
I627
sg45
V]
p6309
sg47
I627
sg48
I3421
sbag0
(g23
g2
Ntp6310
Rp6311
(dp6312
g27
(dp6313
g29
V.
p6314
sg31
VO
p6315
sg33
V.
p6316
sg35
I64
ssg10
I628
sg36
g4
sg37
(dp6317
sg39
(dp6318
sg41
I3421
sg42
g21
sg43
g21
sg44
I628
sg45
V.
p6319
sg47
I628
sg48
I3422
sbasS'Document'
p6320
(lp6321
g4
asS'doc-features'
p6322
g14
sS'Sentence'
p6323
(lp6324
g0
(g23
g2
Ntp6325
Rp6326
(dp6327
g27
(dp6328
S'dep-parse'
p6329
S'not implemented!'
p6330
sg35
I0
sS'constituency-parse'
p6331
V(ROOT\u000a  (NP (. .)))
p6332
ssg10
I0
sg36
g4
sg37
(dp6333
sg39
(dp6334
S'tokens'
p6335
(lp6336
g25
assg41
I0
sg42
g6323
sg43
g6323
sg44
I0
sg45
V.
p6337
sg47
I1
sg48
I1
sbag0
(g23
g2
Ntp6338
Rp6339
(dp6340
g27
(dp6341
g6329
g6330
sg35
I1
sg6331
V(ROOT\u000a  (S\u000a    (NP\u000a      (NP (DT The) (NN relationship))\u000a      (PP (IN between)\u000a        (NP\u000a          (NP (NN multiculturalism))\u000a          (CC and)\u000a          (NP (NNP Islam)))))\u000a    (VP (VBZ is)\u000a      (NP\u000a        (NP (DT an) (JJ important) (NN aspect))\u000a        (PP (IN in)\u000a          (NP\u000a            (NP (DT the) (JJ overall) (NN debate))\u000a            (PP (IN on)\u000a              (NP\u000a                (NP (DT the) (NN soundness))\u000a                (PP (IN of)\u000a                  (NP\u000a                    (NP (DT the) (JJ modern) (NN doctrine))\u000a                    (PP (IN of)\u000a                      (NP (NN multiculturalism)))))))))))\u000a    (. .)))
p6342
ssg10
I1
sg36
g4
sg37
(dp6343
sg39
(dp6344
g6335
(lp6345
g50
ag60
ag70
ag80
ag90
ag100
ag110
ag120
ag130
ag140
ag150
ag160
ag170
ag180
ag190
ag200
ag210
ag220
ag230
ag240
ag250
ag260
ag270
ag280
assg41
I4
sg42
g6323
sg43
g6323
sg44
I1
sg45
V \u000a\u000aThe relationship between multiculturalism and Islam is an important aspect in the overall debate on the soundness of the modern doctrine of multiculturalism.
p6346
sg47
I25
sg48
I161
sbag0
(g23
g2
Ntp6347
Rp6348
(dp6349
g27
(dp6350
g6329
g6330
sg35
I2
sg6331
V(ROOT\u000a  (S\u000a    (PP (IN In)\u000a      (NP (DT an) (NN article)))\u000a    (PP (IN in)\u000a      (NP\u000a        (NP (DT the) (NNP Hudson) (NNP Review))\u000a        (, ,)\u000a        (NP (NNP Bruce) (NNP Bawer))))\u000a    (, ,)\u000a    (VP (VBZ writes)\u000a      (PP (IN about)\u000a        (SBAR\u000a          (WHNP (WP what))\u000a          (S\u000a            (NP (PRP he))\u000a            (VP (VBZ sees)\u000a              (PP (IN as)\u000a                (NP\u000a                  (NP (DT a) (VBG developing) (NN distaste))\u000a                  (PP (IN toward)\u000a                    (NP\u000a                      (NP (DT the) (NN idea)\u000a                        (CC and)\u000a                        (NNS policies))\u000a                      (PP (IN of)\u000a                        (NP\u000a                          (NP (NN multiculturalism))\u000a                          (PP (IN in)\u000a                            (NP (NNP Europe)))))))))\u000a              (, ,)\u000a              (ADVP (RB especially))\u000a              (, ,)\u000a              (SBAR (IN as)\u000a                (S\u000a                  (VP (VBN stated)\u000a                    (ADVP (RBR earlier))\u000a                    (, ,)\u000a                    (PP (IN in)\u000a                      (NP\u000a                        (NP (DT the) (NNP Netherlands) (, ,) (NNP Denmark))\u000a                        (, ,)\u000a                        (NP (NNP United) (NNP Kingdom) (, ,) (NNP Norway) (, ,) (NNP Sweden) (, ,) (NNP Austria)\u000a                          (CC and)\u000a                          (NNP Germany))))))))))))\u000a    (. .)))
p6351
ssg10
I2
sg36
g4
sg37
(dp6352
sg39
(dp6353
g6335
(lp6354
g290
ag300
ag310
ag320
ag330
ag340
ag350
ag360
ag370
ag380
ag390
ag400
ag410
ag420
ag430
ag440
ag450
ag460
ag470
ag480
ag490
ag500
ag510
ag520
ag530
ag540
ag550
ag560
ag570
ag580
ag590
ag600
ag610
ag620
ag630
ag640
ag650
ag660
ag670
ag680
ag690
ag700
ag710
ag720
ag730
ag740
ag750
ag760
ag770
ag780
ag790
ag800
ag810
assg41
I163
sg42
g6323
sg43
g6323
sg44
I25
sg45
V\u000a\u000aIn an article in the Hudson Review, Bruce Bawer, writes about what he sees as a developing distaste toward the idea and policies of multiculturalism in Europe, especially, as stated earlier, in the Netherlands, Denmark, United Kingdom, Norway, Sweden, Austria and Germany.
p6355
sg47
I78
sg48
I435
sbag0
(g23
g2
Ntp6356
Rp6357
(dp6358
g27
(dp6359
g6329
g6330
sg35
I3
sg6331
V(ROOT\u000a  (S\u000a    (NP\u000a      (NP (DT The) (NN belief))\u000a      (PP (IN behind)\u000a        (NP\u000a          (NP (DT this) (NN backlash))\u000a          (PP (IN on)\u000a            (NP (NN multiculturalism))))))\u000a    (VP (VBZ is)\u000a      (SBAR (IN that)\u000a        (S\u000a          (NP (PRP it))\u000a          (VP (VBZ creates)\u000a            (NP (NN friction))\u000a            (PP (IN within)\u000a              (NP (NN society) (-LRB- -LSB-) (NN REF) (-RRB- -RSB-)))))))\u000a    (. .)))
p6360
ssg10
I3
sg36
g4
sg37
(dp6361
sg39
(dp6362
g6335
(lp6363
g820
ag830
ag840
ag850
ag860
ag870
ag880
ag890
ag900
ag910
ag920
ag930
ag940
ag950
ag960
ag970
ag980
ag990
assg41
I436
sg42
g6323
sg43
g6323
sg44
I78
sg45
V The belief behind this backlash on multiculturalism is that it creates friction within society [REF].
p6364
sg47
I96
sg48
I537
sbag0
(g23
g2
Ntp6365
Rp6366
(dp6367
g27
(dp6368
g6329
g6330
sg35
I4
sg6331
V(ROOT\u000a  (S\u000a    (NP\u000a      (NP (NN Incompatibility))\u000a      (PP (IN with)\u000a        (NP (JJ secular) (NN society))))\u000a    (VP (VBZ has)\u000a      (VP (VBN been)\u000a        (VP (VBN influenced)\u000a          (PP (IN by)\u000a            (NP\u000a              (NP (DT a) (NN stance))\u000a              (PP (IN against)\u000a                (NP\u000a                  (NP (NN multiculturalism))\u000a                  (VP (VBN advocated)\u000a                    (PP (IN by)\u000a                      (NP\u000a                        (NP (JJ recent) (NNS philosophers))\u000a                        (, ,)\u000a                        (VP\u000a                          (ADVP (RB closely))\u000a                          (VBN linked)\u000a                          (PP (TO to)\u000a                            (NP\u000a                              (NP (DT the) (NN heritage))\u000a                              (PP (IN of)\u000a                                (NP\u000a                                  (NP (NNP New) (NNPS Philosophers) (-LRB- -LSB-))\u000a                                  (NN REF))))))\u000a                        (-RRB- -RSB-)))))))))))\u000a    (. .)))
p6369
ssg10
I4
sg36
g4
sg37
(dp6370
sg39
(dp6371
g6335
(lp6372
g1000
ag1010
ag1020
ag1030
ag1040
ag1050
ag1060
ag1070
ag1080
ag1090
ag1100
ag1110
ag1120
ag1130
ag1140
ag1150
ag1160
ag1170
ag1180
ag1190
ag1200
ag1210
ag1220
ag1230
ag1240
ag1250
ag1260
ag1270
ag1280
assg41
I539
sg42
g6323
sg43
g6323
sg44
I96
sg45
V\u000a\u000aIncompatibility with secular society has been influenced by a stance against multiculturalism advocated by recent philosophers, closely linked to the heritage of New Philosophers [REF].
p6373
sg47
I125
sg48
I724
sbag0
(g23
g2
Ntp6374
Rp6375
(dp6376
g27
(dp6377
g6329
g6330
sg35
I5
sg6331
V(ROOT\u000a  (S\u000a    (NP\u000a      (NP (JJ Fiery) (NN polemic))\u000a      (PP (IN on)\u000a        (NP\u000a          (NP (DT the) (NN subject))\u000a          (PP (IN by)\u000a            (NP\u000a              (NP (NNS proponents))\u000a              (PP (IN like)\u000a                (NP\u000a                  (NP (NNP Pascal) (NNP Bruckner))\u000a                  (, ,)\u000a                  (NP (-LRB- -LSB-) (NNP REF) (-RRB- -RSB-))\u000a                  (CC and)\u000a                  (NP (NNP Paul) (NNP Cliteur)))))))))\u000a    (VP (VBZ has)\u000a      (VP (VBN kindled)\u000a        (NP\u000a          (NP (JJ international) (NN debate))\u000a          (PP (-LRB- -LSB-)\u000a            (NP (NN REF) (-RRB- -RSB-))))))\u000a    (. .)))
p6378
ssg10
I5
sg36
g4
sg37
(dp6379
sg39
(dp6380
g6335
(lp6381
g1290
ag1300
ag1310
ag1320
ag1330
ag1340
ag1350
ag1360
ag1370
ag1380
ag1390
ag1400
ag1410
ag1420
ag1430
ag1440
ag1450
ag1460
ag1470
ag1480
ag1490
ag1500
ag1510
ag1520
ag1530
assg41
I725
sg42
g6323
sg43
g6323
sg44
I125
sg45
V Fiery polemic on the subject by proponents like Pascal Bruckner,[REF] and Paul Cliteur has kindled international debate [REF].
p6382
sg47
I150
sg48
I851
sbag0
(g23
g2
Ntp6383
Rp6384
(dp6385
g27
(dp6386
g6329
g6330
sg35
I6
sg6331
V(ROOT\u000a  (NP\u000a    (NP (NN Opinion) (NNS polls))\u000a    (PP (IN among)\u000a      (NP (JJ first)\u000a        (CC and)\u000a        (JJ second) (NN generation) (NN muslim) (NNS immigrants)))\u000a    (PP (IN in)\u000a      (NP (JJ western) (NNP Europe) (NN show)\u000a        (NP\u000a          (NP\u000a            (ADJP (RB relatively) (JJ little))\u000a            (NN acceptance))\u000a          (PP (IN of)\u000a            (NP (JJ secular) (NNS ideas))))))\u000a    (PP (JJ such) (IN as)\u000a      (NP\u000a        (NP (NN separation))\u000a        (PP (IN of)\u000a          (NP\u000a            (NP (NN religion)\u000a              (CC and)\u000a              (NN state))\u000a            (, ,)\u000a            (NP (JJ religious) (NN freedom))\u000a            (, ,)\u000a            (NP (NN LGBT) (NNS rights))\u000a            (, ,)\u000a            (NP (NN gender) (NN equality))\u000a            (CC and)\u000a            (NP (NN woman) (NNS rights))))))\u000a    (. .)))
p6387
ssg10
I6
sg36
g4
sg37
(dp6388
sg39
(dp6389
g6335
(lp6390
g1540
ag1550
ag1560
ag1570
ag1580
ag1590
ag1600
ag1610
ag1620
ag1630
ag1640
ag1650
ag1660
ag1670
ag1680
ag1690
ag1700
ag1710
ag1720
ag1730
ag1740
ag1750
ag1760
ag1770
ag1780
ag1790
ag1800
ag1810
ag1820
ag1830
ag1840
ag1850
ag1860
ag1870
ag1880
ag1890
ag1900
ag1910
ag1920
assg41
I854
sg42
g6323
sg43
g6323
sg44
I150
sg45
V \u000a\u000aOpinion polls among first and second generation muslim immigrants in western Europe show relatively little acceptance of secular ideas such as separation of religion and state, religious freedom, LGBT rights, gender equality and woman rights.
p6391
sg47
I189
sg48
I1096
sbag0
(g23
g2
Ntp6392
Rp6393
(dp6394
g27
(dp6395
g6329
g6330
sg35
I7
sg6331
V(ROOT\u000a  (S\u000a    (PP (IN In)\u000a      (NP (DT the) (NNP UK)))\u000a    (, ,)\u000a    (NP (DT a) (NNP Gallup) (NN poll))\u000a    (VP (VBD showed)\u000a      (SBAR (IN that)\u000a        (S\u000a          (NP\u000a            (NP (NN none))\u000a            (PP (IN of)\u000a              (NP\u000a                (QP (DT the) (CD 500))\u000a                (JJ British) (NNPS Muslims)))\u000a            (VP (VBN polled)\u000a              (S\u000a                (VP (VBN believed)\u000a                  (NP (NN homosexuality))))\u000a              (S\u000a                (VP (TO to)\u000a                  (VP (VB be) (`` ``)\u000a                    (ADJP (RB morally) (JJ acceptable))))\u000a                ('' ''))\u000a              (, ,)\u000a              (PP (VBN compared)\u000a                (PP (IN with)\u000a                  (NP\u000a                    (NP (CD 35) (NN %))\u000a                    (PP (IN of)\u000a                      (NP\u000a                        (QP (DT the) (CD 1001))\u000a                        (JJ French) (NNPS Muslims))))))))\u000a          (VP (VBN polled)\u000a            (PP (-LRB- -LSB-)\u000a              (NP (NN REF) (-RRB- -RSB-)))))))\u000a    (. .)))
p6396
ssg10
I7
sg36
g4
sg37
(dp6397
sg39
(dp6398
g6335
(lp6399
g1930
ag1940
ag1950
ag1960
ag1970
ag1980
ag1990
ag2000
ag2010
ag2020
ag2030
ag2040
ag2050
ag2060
ag2070
ag2080
ag2090
ag2100
ag2110
ag2120
ag2130
ag2140
ag2150
ag2160
ag2169
ag2179
ag2189
ag2199
ag2209
ag2219
ag2229
ag2239
ag2249
ag2259
ag2269
ag2279
ag2289
ag2299
ag2309
assg41
I1097
sg42
g6323
sg43
g6323
sg44
I189
sg45
V In the UK, a Gallup poll showed that none of the 500 British Muslims polled believed homosexuality to be "morally acceptable", compared with 35% of the 1001 French Muslims polled [REF].
p6400
sg47
I228
sg48
I1282
sbag0
(g23
g2
Ntp6401
Rp6402
(dp6403
g27
(dp6404
g6329
g6330
sg35
I8
sg6331
V(ROOT\u000a  (S\u000a    (NP\u000a      (NP (DT A) (CD 2007) (NN survey))\u000a      (PP (IN of)\u000a        (NP (JJ British) (NNS muslims))))\u000a    (VP (VBD showed)\u000a      (SBAR (IN that)\u000a        (S\u000a          (NP (CD 61) (NN %))\u000a          (VP (VBP believe)\u000a            (SBAR\u000a              (S\u000a                (NP (NN homosexuality))\u000a                (VP (MD should)\u000a                  (VP (VB be)\u000a                    (ADJP (JJ illegal))\u000a                    (, ,)\u000a                    (PP (IN with)\u000a                      (S\u000a                        (VP\u000a                          (ADVP (RB up)\u000a                            (PP (TO to)\u000a                              (NP\u000a                                (NP (CD 71) (NN %))\u000a                                (PP (IN of)\u000a                                  (NP (JJ young) (JJ British) (NNS muslims))))))\u000a                          (VBG holding)\u000a                          (NP (DT this) (NN belief)))))))))))))\u000a    (. .)))
p6405
ssg10
I8
sg36
g4
sg37
(dp6406
sg39
(dp6407
g6335
(lp6408
g2319
ag2329
ag2339
ag2349
ag2359
ag2369
ag2379
ag2389
ag2399
ag2409
ag2419
ag2429
ag2439
ag2449
ag2459
ag2469
ag2479
ag2489
ag2499
ag2509
ag2519
ag2529
ag2539
ag2549
ag2559
ag2569
ag2579
ag2589
ag2599
assg41
I1283
sg42
g6323
sg43
g6323
sg44
I228
sg45
V A 2007 survey of British muslims showed that 61 % believe homosexuality should be illegal, with up to 71 % of young British muslims holding this belief.
p6409
sg47
I257
sg48
I1435
sbag0
(g23
g2
Ntp6410
Rp6411
(dp6412
g27
(dp6413
g6329
g6330
sg35
I9
sg6331
V(ROOT\u000a  (S\u000a    (S\u000a      (NP\u000a        (NP (CD 43) (NN %))\u000a        (PP (IN of)\u000a          (NP (VBN polled) (NNS muslims))))\u000a      (VP (VBD believed)\u000a        (SBAR\u000a          (S\u000a            (NP (JJ muslim) (NN woman))\u000a            (VP (MD should) (RB not)\u000a              (VP (VB be)\u000a                (VP (VBN allowed)\u000a                  (S\u000a                    (VP (TO to)\u000a                      (VP (VB marry)\u000a                        (PP (IN without)\u000a                          (NP\u000a                            (NP (DT the) (NN consent))\u000a                            (PP (IN of)\u000a                              (NP (PRP$ her) (NN guardian)))))))))))))))\u000a    (, ,)\u000a    (CC and)\u000a    (S\u000a      (NP (CD 31) (NN %))\u000a      (VP (VBD believed)\u000a        (SBAR\u000a          (S\u000a            (NP (NN apostasy))\u000a            (VP (MD should)\u000a              (VP (VB be)\u000a                (VP\u000a                  (VP (VBN forbidden))\u000a                  (CC and)\u000a                  (VP\u000a                    (ADJP (JJ punishable))\u000a                    (PP (IN by)\u000a                      (NP (NN death) (-LRB- -LSB-) (NN REF) (-RRB- -RSB-)))))))))))\u000a    (. .)))
p6414
ssg10
I9
sg36
g4
sg37
(dp6415
sg39
(dp6416
g6335
(lp6417
g2609
ag2619
ag2629
ag2639
ag2649
ag2659
ag2669
ag2679
ag2689
ag2699
ag2709
ag2719
ag2729
ag2739
ag2749
ag2759
ag2769
ag2779
ag2789
ag2799
ag2809
ag2819
ag2829
ag2839
ag2849
ag2859
ag2869
ag2879
ag2889
ag2899
ag2909
ag2919
ag2929
ag2939
ag2949
ag2959
ag2969
assg41
I1436
sg42
g6323
sg43
g6323
sg44
I257
sg45
V 43% of polled muslims believed muslim woman should not be allowed to marry without the consent of her guardian, and 31% believed apostasy should be forbidden and punishable by death[REF] .
p6418
sg47
I294
sg48
I1624
sbag0
(g23
g2
Ntp6419
Rp6420
(dp6421
g27
(dp6422
g6329
g6330
sg35
I10
sg6331
V(ROOT\u000a  (S\u000a    (PP (IN In)\u000a      (NP (NNP Canada)))\u000a    (, ,)\u000a    (NP\u000a      (NP (DT the) (JJ possible) (NN introduction))\u000a      (PP (IN of)\u000a        (NP (NN sharia) (NN family) (NNS courts))))\u000a    (VP\u000a      (VP (VBD became)\u000a        (NP (DT a) (JJ contentious) (NN issue)))\u000a      (, ,)\u000a      (CC and)\u000a      (VP (VBD received)\u000a        (NP (JJ much) (NNS media) (NN attention))\u000a        (PP (-LRB- -LSB-)\u000a          (NP (NN REF) (-RRB- -RSB-)))))\u000a    (. .)))
p6423
ssg10
I10
sg36
g4
sg37
(dp6424
sg39
(dp6425
g6335
(lp6426
g2979
ag2989
ag2999
ag3009
ag3019
ag3029
ag3039
ag3049
ag3059
ag3069
ag3079
ag3089
ag3099
ag3109
ag3119
ag3129
ag3139
ag3149
ag3159
ag3169
ag3179
ag3189
ag3199
ag3209
assg41
I1626
sg42
g6323
sg43
g6323
sg44
I294
sg45
V\u000a\u000aIn Canada, the possible introduction of sharia family courts became a contentious issue, and received much media attention [REF].
p6427
sg47
I318
sg48
I1755
sbag0
(g23
g2
Ntp6428
Rp6429
(dp6430
g27
(dp6431
g6329
g6330
sg35
I11
sg6331
V(ROOT\u000a  (S\u000a    (NP (NNP London))\u000a    (VP (VBZ is)\u000a      (ADJP\u000a        (ADJP\u000a          (ADVP (RB far) (RBR more))\u000a          (VBN segregated))\u000a        (PP (IN on)\u000a          (NP (JJ religious) (NNS grounds)))\u000a        (PP (IN than)\u000a          (PP (IN by)\u000a            (NP (NN race))))))\u000a    (. .)))
p6432
ssg10
I11
sg36
g4
sg37
(dp6433
sg39
(dp6434
g6335
(lp6435
g3219
ag3229
ag3239
ag3249
ag3259
ag3269
ag3279
ag3289
ag3299
ag3309
ag3319
ag3329
assg41
I1756
sg42
g6323
sg43
g6323
sg44
I318
sg45
V London is far more segregated on religious grounds than by race.
p6436
sg47
I330
sg48
I1820
sbag0
(g23
g2
Ntp6437
Rp6438
(dp6439
g27
(dp6440
g6329
g6330
sg35
I12
sg6331
V(ROOT\u000a  (S\u000a    (NP\u000a      (NP (CD 25) (NN %))\u000a      (PP (IN of)\u000a        (NP\u000a          (NP (NNP London) (POS 's))\u000a          (QP (CD seven) (CD million))\u000a          (NNS residents))))\u000a    (VP (VBP live)\u000a      (PP (IN in)\u000a        (NP\u000a          (NP\u000a            (ADJP\u000a              (ADVP (RB religiously))\u000a              (VBN segregated))\u000a            (NNS neighbourhoods))\u000a          (PP (-LRB- -LSB-)\u000a            (NP (NN REF) (-RRB- -RSB-))))))\u000a    (. .)))
p6441
ssg10
I12
sg36
g4
sg37
(dp6442
sg39
(dp6443
g6335
(lp6444
g3339
ag3349
ag3359
ag3369
ag3379
ag3389
ag3399
ag3409
ag3419
ag3429
ag3439
ag3449
ag3459
ag3469
ag3479
ag3489
ag3499
assg41
I1821
sg42
g6323
sg43
g6323
sg44
I330
sg45
V 25% of London's seven million residents live in religiously segregated neighbourhoods [REF].
p6445
sg47
I347
sg48
I1913
sbag0
(g23
g2
Ntp6446
Rp6447
(dp6448
g27
(dp6449
g6329
g6330
sg35
I13
sg6331
V(ROOT\u000a  (S\u000a    (NP (DT A) (NN survey))\u000a    (VP\u000a      (VP (VBD showed)\u000a        (SBAR (IN that)\u000a          (S\u000a            (NP\u000a              (NP (CD 18) (NN %))\u000a              (PP (IN in)\u000a                (NP (NNP Britain))))\u000a            (VP (VBP think)\u000a              (SBAR (IN that) (`` ``)\u000a                (S\u000a                  (NP\u000a                    (NP (DT a) (JJ large) (NN proportion))\u000a                    (PP (IN of)\u000a                      (NP (JJ British) (NNPS Muslims))))\u000a                  (VP (VBP feel)\u000a                    (NP\u000a                      (NP (DT no) (NN sense))\u000a                      (PP (IN of)\u000a                        (NP (NN loyalty))))\u000a                    (PP (TO to)\u000a                      (NP (DT this) (NN country))))))))))\u000a      (CC and)\u000a      (VP (VBP are)\u000a        (VP (VBN prepared)\u000a          (S\u000a            (VP (TO to)\u000a              (VP\u000a                (VP (VB condone))\u000a                (CC or)\u000a                (VP\u000a                  (ADVP (RB even))\u000a                  (VB carry)\u000a                  (PRT (RP out))\u000a                  (NP\u000a                    (NP (NNS acts))\u000a                    (PP (IN of)\u000a                      (NP (NN terrorism)))))\u000a                ('' '')\u000a                (PP (-LRB- -LSB-)\u000a                  (NP (NN REF) (-RRB- -RSB-)))))))))\u000a    (. .)))
p6450
ssg10
I13
sg36
g4
sg37
(dp6451
sg39
(dp6452
g6335
(lp6453
g3509
ag3519
ag3529
ag3539
ag3549
ag3559
ag3569
ag3579
ag3589
ag3599
ag3609
ag3618
ag3628
ag3638
ag3648
ag3658
ag3668
ag3678
ag3688
ag3698
ag3708
ag3718
ag3728
ag3738
ag3748
ag3758
ag3768
ag3778
ag3788
ag3798
ag3808
ag3818
ag3828
ag3838
ag3848
ag3858
ag3868
ag3878
ag3887
ag3897
ag3907
ag3917
assg41
I1915
sg42
g6323
sg43
g6323
sg44
I347
sg45
V\u000a\u000aA survey showed that 18% in Britain think that "a large proportion of British Muslims feel no sense of loyalty to this country and are prepared to condone or even carry out acts of terrorism" [REF].
p6454
sg47
I389
sg48
I2113
sbag0
(g23
g2
Ntp6455
Rp6456
(dp6457
g27
(dp6458
g6329
g6330
sg35
I14
sg6331
V(ROOT\u000a  (S\u000a    (NP (DT A) (NNP TNS/Global) (NN poll))\u000a    (VP (VBD showed)\u000a      (SBAR (IN that)\u000a        (S\u000a          (NP\u000a            (NP (CD 79) (NN %))\u000a            (PP (IN in)\u000a              (NP (NNP Britain))))\u000a          (VP (MD would)\u000a            (VP (VB feel) (`` ``)\u000a              (NP\u000a                (NP (JJ uncomfortable) (NN living))\u000a                (PP (IN next)\u000a                  (PP (TO to)\u000a                    (NP (DT a) (JJ Muslim) ('' '') (-LRB- -LSB-) (NN REF) (-RRB- -RSB-))))))))))\u000a    (. .)))
p6459
ssg10
I14
sg36
g4
sg37
(dp6460
sg39
(dp6461
g6335
(lp6462
g3927
ag3937
ag3947
ag3957
ag3967
ag3977
ag3987
ag3997
ag4007
ag4017
ag4027
ag4037
ag4046
ag4056
ag4066
ag4076
ag4086
ag4096
ag4106
ag4115
ag4125
ag4135
ag4145
assg41
I2114
sg42
g6323
sg43
g6323
sg44
I389
sg45
V A TNS/Global poll showed that 79% in Britain would feel "uncomfortable living next to a Muslim" [REF].
p6463
sg47
I412
sg48
I2216
sbag0
(g23
g2
Ntp6464
Rp6465
(dp6466
g27
(dp6467
g6329
g6330
sg35
I15
sg6331
V(ROOT\u000a  (S\u000a    (NP (EX There))\u000a    (VP (VBP have)\u000a      (ADVP (RB also))\u000a      (VP (VBN been)\u000a        (NP\u000a          (NP (JJ notable) (NNS tensions))\u000a          (PP (IN in)\u000a            (NP\u000a              (NP\u000a                (NP (NNP Britain))\u000a                (PP (IN between)\u000a                  (NP (JJ established) (JJ Muslim) (NNS communities))))\u000a              (CC and)\u000a              (NP\u000a                (NP (JJ newly-arrived) (JJ Eastern) (JJ European) (NNS immigrants))\u000a                (PP (-LRB- -LSB-)\u000a                  (NP (NN REF) (-RRB- -RSB-)))))))))\u000a    (. .)))
p6468
ssg10
I15
sg36
g4
sg37
(dp6469
sg39
(dp6470
g6335
(lp6471
g4155
ag4165
ag4175
ag4185
ag4195
ag4205
ag4215
ag4225
ag4235
ag4245
ag4255
ag4265
ag4275
ag4285
ag4295
ag4305
ag4315
ag4325
ag4335
ag4345
ag4355
assg41
I2217
sg42
g6323
sg43
g6323
sg44
I412
sg45
V There have also been notable tensions in Britain between established Muslim communities and newly-arrived Eastern European immigrants [REF].
p6472
sg47
I433
sg48
I2357
sbag0
(g23
g2
Ntp6473
Rp6474
(dp6475
g27
(dp6476
g6329
g6330
sg35
I16
sg6331
V(ROOT\u000a  (S\u000a    (NP\u000a      (NP (DT A) (JJ major) (NN attitude) (NN survey))\u000a      (PP (IN of)\u000a        (NP\u000a          (NP (NNS teenagers))\u000a          (PP (IN in)\u000a            (NP (NNP Flanders))))))\u000a    (VP (VBD showed)\u000a      (SBAR (IN that)\u000a        (S\u000a          (NP\u000a            (ADJP (CD 75) (NN %))\u000a            (NN refuse))\u000a          (VP (TO to)\u000a            (VP (VB have)\u000a              (NP\u000a                (NP (DT a) (NN relationship))\u000a                (PP (IN with)\u000a                  (NP\u000a                    (NP (DT a) (JJ black) (NN person))\u000a                    (, ,)\u000a                    (NP (DT a) (JJ Muslim))\u000a                    (, ,)\u000a                    (CC or)\u000a                    (NP (DT an) (JJ immigrant))))))))))\u000a    (. .)))
p6477
ssg10
I16
sg36
g4
sg37
(dp6478
sg39
(dp6479
g6335
(lp6480
g4365
ag4375
ag4385
ag4395
ag4405
ag4415
ag4425
ag4435
ag4445
ag4455
ag4465
ag4475
ag4485
ag4495
ag4505
ag4515
ag4525
ag4535
ag4545
ag4555
ag4565
ag4575
ag4585
ag4595
ag4605
ag4615
ag4625
ag4635
ag4645
assg41
I2358
sg42
g6323
sg43
g6323
sg44
I433
sg45
V A major attitude survey of teenagers in Flanders showed that 75% refuse to have a relationship with a black person, a Muslim, or an immigrant.
p6481
sg47
I462
sg48
I2500
sbag0
(g23
g2
Ntp6482
Rp6483
(dp6484
g27
(dp6485
g6329
g6330
sg35
I17
sg6331
V(ROOT\u000a  (S\u000a    (S\u000a      (NP (NN Half))\u000a      (VP (VBP want)\u000a        (SBAR\u000a          (S\u000a            (NP (DT all) (NN immigration))\u000a            (VP (VBD stopped))))))\u000a    (, ,)\u000a    (CC and)\u000a    (S\u000a      (NP (CD 41) (NN %))\u000a      (VP (VBP say)\u000a        (S\u000a          (NP (PRP they))\u000a          (VP (VB distrust)\u000a            (NP (NN anyone))\u000a            (PP (IN from)\u000a              (NP\u000a                (NP (DT another) (JJ ethnic) (NN background))\u000a                (PP (-LRB- -LSB-)\u000a                  (NP (NN REF) (-RRB- -RSB-)))))))))\u000a    (. .)))
p6486
ssg10
I17
sg36
g4
sg37
(dp6487
sg39
(dp6488
g6335
(lp6489
g4655
ag4665
ag4675
ag4685
ag4695
ag4705
ag4715
ag4725
ag4735
ag4745
ag4755
ag4765
ag4775
ag4785
ag4795
ag4805
ag4815
ag4825
ag4835
ag4845
ag4855
assg41
I2501
sg42
g6323
sg43
g6323
sg44
I462
sg45
V Half want all immigration stopped, and 41% say they distrust anyone from another ethnic background [REF].
p6490
sg47
I483
sg48
I2606
sbag0
(g23
g2
Ntp6491
Rp6492
(dp6493
g27
(dp6494
g6329
g6330
sg35
I18
sg6331
V(X (JJ British) (NN cabinet) (NNS ministers) (VBD had) (VBN been) (VBN criticized) (IN in) (NNP October) (CD 2006) (IN for) (VBG helping) (TO to) (`` ``) (VB unleash) (DT a) (JJ public) (JJ anti-Muslim) (NN backlash) ('' '') (IN in) (DT the) (NNP United) (NNP Kingdom) (IN by) (VBG blaming) (DT the) (JJ Muslim) (NN community) (IN over) (NNS issues) (IN of) (NN integration) (IN despite) (DT a) (NN study) (VBN commissioned) (IN by) (DT the) (NNP Home) (NNP Office) (IN on) (JJ white)\u000a  (CC and)\u000a  (JJ Asian-Muslim) (NNS youths) (VBG demonstrating) (`` ``) (NNP White) (NNS youths) (VBP are) (RBR more) (JJ likely) (TO to) (VB believe) (PRP they) (VBP are) (JJ superior) (TO to) (DT those) (IN from) (JJ other) (NNS races) (, ,)\u000a  (CC and)\u000a  (PRP$ their) (NNS attitudes) (VBP are) (JJR more) (IN of) (DT a) (NN barrier) (TO to) (NN integration) (IN than) (DT those) (IN of) (NNPS Muslims) ('' '') (-LRB- -LSB-) (NN REF) (-RRB- -RSB-) (. .))
p6495
ssg10
I18
sg36
g4
sg37
(dp6496
sg39
(dp6497
g6335
(lp6498
g4865
ag4875
ag4885
ag4895
ag4905
ag4915
ag4925
ag4935
ag4945
ag4955
ag4965
ag4975
ag4985
ag4994
ag5004
ag5014
ag5024
ag5034
ag5044
ag5053
ag5063
ag5073
ag5083
ag5093
ag5103
ag5113
ag5123
ag5133
ag5143
ag5153
ag5163
ag5173
ag5183
ag5193
ag5203
ag5213
ag5223
ag5233
ag5243
ag5253
ag5263
ag5273
ag5283
ag5293
ag5303
ag5313
ag5323
ag5332
ag5342
ag5352
ag5362
ag5372
ag5382
ag5392
ag5402
ag5412
ag5422
ag5432
ag5442
ag5452
ag5462
ag5472
ag5482
ag5492
ag5502
ag5512
ag5522
ag5532
ag5542
ag5552
ag5562
ag5572
ag5582
ag5592
ag5602
ag5612
ag5622
ag5632
ag5641
ag5651
ag5661
ag5671
assg41
I2609
sg42
g6323
sg43
g6323
sg44
I483
sg45
V \u000a\u000aBritish cabinet ministers had been criticized in October 2006 for helping to "unleash a public anti-Muslim backlash" in the United Kingdom by blaming the Muslim community over issues of integration despite a study commissioned by the Home Office on white and Asian-Muslim youths demonstrating "White youths are more likely to believe they are superior to those from other races, and their attitudes are more of a barrier to integration than those of Muslims" [REF].
p6499
sg47
I565
sg48
I3074
sbag0
(g23
g2
Ntp6500
Rp6501
(dp6502
g27
(dp6503
g6329
g6330
sg35
I19
sg6331
V(X (DT A) (JJ Europe-wide) (NN survey) (IN by) (NNP Gallup) (IN in) (NNP May) (CD 2009) (RB also) (VBD found) (IN that) (DT the) (JJ Muslim) (NNS communities) (IN in) (NNP Britain) (, ,) (NNP Germany)\u000a  (CC and)\u000a  (NNP France) (VBD felt) (RBR more) (JJ patriotic) (IN towards) (DT those) (NNS countries) (VBN compared) (TO to) (DT the) (JJ general) (NNS populations) (IN as) (DT a) (JJ whole) (, ,) (-LRB- -LSB-) (NNP REF) (-RRB- -RSB-) (-LRB- -LSB-) (NN REF) (-RRB- -RSB-) (IN while) (DT another) (NN survey) (VBD found) (IN that) (NNPS Muslims) (VBD supported) (DT the) (NN role) (IN of) (NNP Christianity) (IN in) (NNP British) (NN life) (RBR more) (RB so) (IN than) (NNS Christians) (PRP themselves) (-LRB- -LSB-) (NN REF) (-RRB- -RSB-) (. .))
p6504
ssg10
I19
sg36
g4
sg37
(dp6505
sg39
(dp6506
g6335
(lp6507
g5681
ag5691
ag5701
ag5711
ag5721
ag5731
ag5741
ag5751
ag5761
ag5771
ag5781
ag5791
ag5801
ag5811
ag5821
ag5831
ag5841
ag5851
ag5861
ag5871
ag5881
ag5891
ag5901
ag5911
ag5921
ag5931
ag5941
ag5951
ag5961
ag5971
ag5981
ag5991
ag6001
ag6011
ag6021
ag6031
ag6041
ag6051
ag6061
ag6071
ag6081
ag6091
ag6101
ag6111
ag6121
ag6131
ag6141
ag6151
ag6161
ag6171
ag6181
ag6191
ag6201
ag6211
ag6221
ag6231
ag6241
ag6251
ag6261
ag6271
ag6281
ag6291
ag6301
ag6311
assg41
I3075
sg42
g6323
sg43
g6323
sg44
I565
sg45
V A Europe-wide survey by Gallup in May 2009 also found that the Muslim communities in Britain, Germany and France felt more patriotic towards those countries compared to the general populations as a whole,[REF][REF] while another survey found that Muslims supported the role of Christianity in British life more so than Christians themselves [REF].
p6508
sg47
I629
sg48
I3422
sbassg37
(dp6509
sg39
(dp6510
sg47
I-1
sg6335
g22
sg42
g6320
sg36
Nsg27
(dp6511
sg44
I0
sg45
V. \u000a\u000aThe relationship between multiculturalism and Islam is an important aspect in the overall debate on the soundness of the modern doctrine of multiculturalism.\u000a\u000aIn an article in the Hudson Review, Bruce Bawer, writes about what he sees as a developing distaste toward the idea and policies of multiculturalism in Europe, especially, as stated earlier, in the Netherlands, Denmark, United Kingdom, Norway, Sweden, Austria and Germany. The belief behind this backlash on multiculturalism is that it creates friction within society [REF].\u000a\u000aIncompatibility with secular society has been influenced by a stance against multiculturalism advocated by recent philosophers, closely linked to the heritage of New Philosophers [REF]. Fiery polemic on the subject by proponents like Pascal Bruckner,[REF] and Paul Cliteur has kindled international debate [REF]. \u000a\u000aOpinion polls among first and second generation muslim immigrants in western Europe show relatively little acceptance of secular ideas such as separation of religion and state, religious freedom, LGBT rights, gender equality and woman rights. In the UK, a Gallup poll showed that none of the 500 British Muslims polled believed homosexuality to be "morally acceptable", compared with 35% of the 1001 French Muslims polled [REF]. A 2007 survey of British muslims showed that 61 % believe homosexuality should be illegal, with up to 71 % of young British muslims holding this belief. 43% of polled muslims believed muslim woman should not be allowed to marry without the consent of her guardian, and 31% believed apostasy should be forbidden and punishable by death[REF] .\u000a\u000aIn Canada, the possible introduction of sharia family courts became a contentious issue, and received much media attention [REF]. London is far more segregated on religious grounds than by race. 25% of London's seven million residents live in religiously segregated neighbourhoods [REF].\u000a\u000aA survey showed that 18% in Britain think that "a large proportion of British Muslims feel no sense of loyalty to this country and are prepared to condone or even carry out acts of terrorism" [REF]. A TNS/Global poll showed that 79% in Britain would feel "uncomfortable living next to a Muslim" [REF]. There have also been notable tensions in Britain between established Muslim communities and newly-arrived Eastern European immigrants [REF]. A major attitude survey of teenagers in Flanders showed that 75% refuse to have a relationship with a black person, a Muslim, or an immigrant. Half want all immigration stopped, and 41% say they distrust anyone from another ethnic background [REF]. \u000a\u000aBritish cabinet ministers had been criticized in October 2006 for helping to "unleash a public anti-Muslim backlash" in the United Kingdom by blaming the Muslim community over issues of integration despite a study commissioned by the Home Office on white and Asian-Muslim youths demonstrating "White youths are more likely to believe they are superior to those from other races, and their attitudes are more of a barrier to integration than those of Muslims" [REF]. A Europe-wide survey by Gallup in May 2009 also found that the Muslim communities in Britain, Germany and France felt more patriotic towards those countries compared to the general populations as a whole,[REF][REF] while another survey found that Muslims supported the role of Christianity in British life more so than Christians themselves [REF].
p6512
sS'sents'
p6513
g6324
sg43
g6320
sg41
I0
sS'id'
p6514
g16
sg48
I3422
sS'sentFeatures'
p6515
(lp6516
sb.