ccopy_reg
_reconstructor
p0
(cpygate.doc
Document
p1
c__builtin__
object
p2
Ntp3
Rp4
(dp5
S'src'
p6
VMuscular liberalism is a form of liberalism advocated by British Prime Minister David Cameron that describes his policy towards state multiculturalism [REF]. \u000a\u000aCameron coined the term in a speech in Munich on 5 February 2011. According to David Cameron, "Under the doctrine of state multiculturalism, we have encouraged different cultures to live separate lives, apart from each other and apart from the mainstream. We've failed to provide a vision of society to which they feel they want to belong."[REF] . \u000a\u000aCritics and speculators believe "muscular liberalism" will be the new "ism" which Britain will follow to tackle growing religious terrorism and extremism, subsequently adapted by all European countries including Commonwealth Nations [REF].\u000a\u000aThe theory is that multiculturalism has shifted from tolerating multiple cultures to tolerating multiple value systems, which can be hostile to liberalism [REF]. \u000a\u000aCameron delivered these principles during a speech on Radicalization and the causes of \u000aTerrorism at European Union international conference on Security Policy in Munich\u000ato tackle growing terrorism so as to be less passive towards religious hate and whip \u000aagainst growing extremist activists through Muscular Liberalism.\u000a\u000aBan preachers of hate from coming to the host country. \u000aStrictly prevent the allocation of public money and donations to groups not being used to tackle extremists. \u000aBarring organisations that incite terrorism at host country and abroad. \u000aJudging the religious organisations acceptability to operate in host country based on universal human rights, support for democracy and encourage integration with host country basic values. \u000aStrengthening national identity by allowing people to follow their religion but subscribe to the identity of their host country, by saying "I am a Muslim, I am a Hindu, I am a Christian, but I am a Londoner too". \u000aPrevention of extremism in universities and prisons.\u000a\u000aPromoting ideals of democracy where people elect their own government. \u000aPromoting universal human rights with equal rights to women and people of other faiths. \u000aFreedom of worship and speech. \u000aPromoting equal rights irrespective of race, sex or sexuality. \u000aThe rule of law.\u000a\u000aThe speech and the principles angered the Muslim group as David Cameron called for \u000aa tougher stance against islamist terrorism while differentiating Islam from Islamic terrorism as an ideology which attracted people who feel "rootless" within their own countries. \u000a\u000aAccording to Baroness Neville-Jones, Security Minister of Britain, extremism meant all forms but not just islamist extremism. Ajmal Masroor, of the Islamic Society of Britain, rejected it, saying that national identity, multiculturalism and extremism are not connected. \u000a\u000aPresident Nicolas Sarkozy of France has said that he agrees with Cameron [REF].\u000a\u000aIt is generally recognised that Cameron was influenced by Sir Karl Popper when he wrote about the "paradox of tolerance". When intolerance is tolerated, tolerance itself is threatened.
p7
sS'string'
p8
S'Muscular liberalism is a form of liberalism advocated by British Prime Minister David Cameron that describes his policy towards state multiculturalism [REF]. \n\nCameron coined the term in a speech in Munich on 5 February 2011. According to David Cameron, "Under the doctrine of state multiculturalism, we have encouraged different cultures to live separate lives, apart from each other and apart from the mainstream. We\'ve failed to provide a vision of society to which they feel they want to belong."[REF] . \n\nCritics and speculators believe "muscular liberalism" will be the new "ism" which Britain will follow to tackle growing religious terrorism and extremism, subsequently adapted by all European countries including Commonwealth Nations [REF].\n\nThe theory is that multiculturalism has shifted from tolerating multiple cultures to tolerating multiple value systems, which can be hostile to liberalism [REF]. \n\nCameron delivered these principles during a speech on Radicalization and the causes of \nTerrorism at European Union international conference on Security Policy in Munich\nto tackle growing terrorism so as to be less passive towards religious hate and whip \nagainst growing extremist activists through Muscular Liberalism.\n\nBan preachers of hate from coming to the host country. \nStrictly prevent the allocation of public money and donations to groups not being used to tackle extremists. \nBarring organisations that incite terrorism at host country and abroad. \nJudging the religious organisations acceptability to operate in host country based on universal human rights, support for democracy and encourage integration with host country basic values. \nStrengthening national identity by allowing people to follow their religion but subscribe to the identity of their host country, by saying "I am a Muslim, I am a Hindu, I am a Christian, but I am a Londoner too". \nPrevention of extremism in universities and prisons.\n\nPromoting ideals of democracy where people elect their own government. \nPromoting universal human rights with equal rights to women and people of other faiths. \nFreedom of worship and speech. \nPromoting equal rights irrespective of race, sex or sexuality. \nThe rule of law.\n\nThe speech and the principles angered the Muslim group as David Cameron called for \na tougher stance against islamist terrorism while differentiating Islam from Islamic terrorism as an ideology which attracted people who feel "rootless" within their own countries. \n\nAccording to Baroness Neville-Jones, Security Minister of Britain, extremism meant all forms but not just islamist extremism. Ajmal Masroor, of the Islamic Society of Britain, rejected it, saying that national identity, multiculturalism and extremism are not connected. \n\nPresident Nicolas Sarkozy of France has said that he agrees with Cameron [REF].\n\nIt is generally recognised that Cameron was influenced by Sir Karl Popper when he wrote about the "paradox of tolerance". When intolerance is tolerated, tolerance itself is threatened.'
p9
sS'idx'
p10
I0
sS'tknFeatures'
p11
(lp12
sS'docFeatures'
p13
(dp14
S'file_id'
p15
S'Muscular_liberalism'
p16
ssS'items'
p17
(dp18
S'raw'
p19
VMuscular liberalism is a form of liberalism advocated by British Prime Minister David Cameron that describes his policy towards state multiculturalism [REF]. \u000a\u000aCameron coined the term in a speech in Munich on 5 February 2011. According to David Cameron, "Under the doctrine of state multiculturalism, we have encouraged different cultures to live separate lives, apart from each other and apart from the mainstream. We've failed to provide a vision of society to which they feel they want to belong."[REF] . \u000a\u000aCritics and speculators believe "muscular liberalism" will be the new "ism" which Britain will follow to tackle growing religious terrorism and extremism, subsequently adapted by all European countries including Commonwealth Nations [REF].\u000a\u000aThe theory is that multiculturalism has shifted from tolerating multiple cultures to tolerating multiple value systems, which can be hostile to liberalism [REF]. \u000a\u000aCameron delivered these principles during a speech on Radicalization and the causes of \u000aTerrorism at European Union international conference on Security Policy in Munich\u000ato tackle growing terrorism so as to be less passive towards religious hate and whip \u000aagainst growing extremist activists through Muscular Liberalism.\u000a\u000aBan preachers of hate from coming to the host country. \u000aStrictly prevent the allocation of public money and donations to groups not being used to tackle extremists. \u000aBarring organisations that incite terrorism at host country and abroad. \u000aJudging the religious organisations acceptability to operate in host country based on universal human rights, support for democracy and encourage integration with host country basic values. \u000aStrengthening national identity by allowing people to follow their religion but subscribe to the identity of their host country, by saying "I am a Muslim, I am a Hindu, I am a Christian, but I am a Londoner too". \u000aPrevention of extremism in universities and prisons.\u000a\u000aPromoting ideals of democracy where people elect their own government. \u000aPromoting universal human rights with equal rights to women and people of other faiths. \u000aFreedom of worship and speech. \u000aPromoting equal rights irrespective of race, sex or sexuality. \u000aThe rule of law.\u000a\u000aThe speech and the principles angered the Muslim group as David Cameron called for \u000aa tougher stance against islamist terrorism while differentiating Islam from Islamic terrorism as an ideology which attracted people who feel "rootless" within their own countries. \u000a\u000aAccording to Baroness Neville-Jones, Security Minister of Britain, extremism meant all forms but not just islamist extremism. Ajmal Masroor, of the Islamic Society of Britain, rejected it, saying that national identity, multiculturalism and extremism are not connected. \u000a\u000aPresident Nicolas Sarkozy of France has said that he agrees with Cameron [REF].\u000a\u000aIt is generally recognised that Cameron was influenced by Sir Karl Popper when he wrote about the "paradox of tolerance". When intolerance is tolerated, tolerance itself is threatened.
p20
sS'Token'
p21
(lp22
g0
(cpygate.annotation
Annotation
p23
g2
Ntp24
Rp25
(dp26
S'features'
p27
(dp28
S'lemma'
p29
Vmuscular
p30
sS'ner'
p31
VO
p32
sS'pos'
p33
VJJ
p34
sS'index'
p35
I1
ssg10
I0
sS'doc'
p36
g4
sS'labels'
p37
(dp38
sS'relations'
p39
(dp40
sS'cStart'
p41
I0
sS'subType'
p42
g21
sS'annoType'
p43
g21
sS'tStart'
p44
I0
sS'text'
p45
VMuscular
p46
sS'tEnd'
p47
I0
sS'cEnd'
p48
I8
sbag0
(g23
g2
Ntp49
Rp50
(dp51
g27
(dp52
g29
Vliberalism
p53
sg31
VO
p54
sg33
VNN
p55
sg35
I2
ssg10
I1
sg36
g4
sg37
(dp56
sg39
(dp57
sg41
I9
sg42
g21
sg43
g21
sg44
I1
sg45
Vliberalism
p58
sg47
I1
sg48
I19
sbag0
(g23
g2
Ntp59
Rp60
(dp61
g27
(dp62
g29
Vbe
p63
sg31
VO
p64
sg33
VVBZ
p65
sg35
I3
ssg10
I2
sg36
g4
sg37
(dp66
sg39
(dp67
sg41
I16
sg42
g21
sg43
g21
sg44
I2
sg45
Vis
p68
sg47
I2
sg48
I18
sbag0
(g23
g2
Ntp69
Rp70
(dp71
g27
(dp72
g29
Va
p73
sg31
VO
p74
sg33
VDT
p75
sg35
I4
ssg10
I3
sg36
g4
sg37
(dp76
sg39
(dp77
sg41
I23
sg42
g21
sg43
g21
sg44
I3
sg45
Va
p78
sg47
I3
sg48
I24
sbag0
(g23
g2
Ntp79
Rp80
(dp81
g27
(dp82
g29
Vform
p83
sg31
VO
p84
sg33
VNN
p85
sg35
I5
ssg10
I4
sg36
g4
sg37
(dp86
sg39
(dp87
sg41
I25
sg42
g21
sg43
g21
sg44
I4
sg45
Vform
p88
sg47
I4
sg48
I29
sbag0
(g23
g2
Ntp89
Rp90
(dp91
g27
(dp92
g29
Vof
p93
sg31
VO
p94
sg33
VIN
p95
sg35
I6
ssg10
I5
sg36
g4
sg37
(dp96
sg39
(dp97
sg41
I30
sg42
g21
sg43
g21
sg44
I5
sg45
Vof
p98
sg47
I5
sg48
I32
sbag0
(g23
g2
Ntp99
Rp100
(dp101
g27
(dp102
g29
Vliberalism
p103
sg31
VO
p104
sg33
VNN
p105
sg35
I7
ssg10
I6
sg36
g4
sg37
(dp106
sg39
(dp107
sg41
I33
sg42
g21
sg43
g21
sg44
I6
sg45
Vliberalism
p108
sg47
I6
sg48
I43
sbag0
(g23
g2
Ntp109
Rp110
(dp111
g27
(dp112
g29
Vadvocate
p113
sg31
VO
p114
sg33
VVBN
p115
sg35
I8
ssg10
I7
sg36
g4
sg37
(dp116
sg39
(dp117
sg41
I44
sg42
g21
sg43
g21
sg44
I7
sg45
Vadvocated
p118
sg47
I7
sg48
I53
sbag0
(g23
g2
Ntp119
Rp120
(dp121
g27
(dp122
g29
Vby
p123
sg31
VO
p124
sg33
VIN
p125
sg35
I9
ssg10
I8
sg36
g4
sg37
(dp126
sg39
(dp127
sg41
I54
sg42
g21
sg43
g21
sg44
I8
sg45
Vby
p128
sg47
I8
sg48
I56
sbag0
(g23
g2
Ntp129
Rp130
(dp131
g27
(dp132
g29
Vbritish
p133
sg31
VMISC
p134
sg33
VJJ
p135
sg35
I10
ssg10
I9
sg36
g4
sg37
(dp136
sg39
(dp137
sg41
I57
sg42
g21
sg43
g21
sg44
I9
sg45
VBritish
p138
sg47
I9
sg48
I64
sbag0
(g23
g2
Ntp139
Rp140
(dp141
g27
(dp142
g29
VPrime
p143
sg31
VO
p144
sg33
VNNP
p145
sg35
I11
ssg10
I10
sg36
g4
sg37
(dp146
sg39
(dp147
sg41
I65
sg42
g21
sg43
g21
sg44
I10
sg45
VPrime
p148
sg47
I10
sg48
I70
sbag0
(g23
g2
Ntp149
Rp150
(dp151
g27
(dp152
g29
VMinister
p153
sg31
VO
p154
sg33
VNNP
p155
sg35
I12
ssg10
I11
sg36
g4
sg37
(dp156
sg39
(dp157
sg41
I71
sg42
g21
sg43
g21
sg44
I11
sg45
VMinister
p158
sg47
I11
sg48
I79
sbag0
(g23
g2
Ntp159
Rp160
(dp161
g27
(dp162
g29
VDavid
p163
sg31
VPERSON
p164
sg33
VNNP
p165
sg35
I13
ssg10
I12
sg36
g4
sg37
(dp166
sg39
(dp167
sg41
I80
sg42
g21
sg43
g21
sg44
I12
sg45
VDavid
p168
sg47
I12
sg48
I85
sbag0
(g23
g2
Ntp169
Rp170
(dp171
g27
(dp172
g29
VCameron
p173
sg31
VPERSON
p174
sg33
VNNP
p175
sg35
I14
ssg10
I13
sg36
g4
sg37
(dp176
sg39
(dp177
sg41
I86
sg42
g21
sg43
g21
sg44
I13
sg45
VCameron
p178
sg47
I13
sg48
I93
sbag0
(g23
g2
Ntp179
Rp180
(dp181
g27
(dp182
g29
Vthat
p183
sg31
VO
p184
sg33
VIN
p185
sg35
I15
ssg10
I14
sg36
g4
sg37
(dp186
sg39
(dp187
sg41
I94
sg42
g21
sg43
g21
sg44
I14
sg45
Vthat
p188
sg47
I14
sg48
I98
sbag0
(g23
g2
Ntp189
Rp190
(dp191
g27
(dp192
g29
Vdescribe
p193
sg31
VO
p194
sg33
VVBZ
p195
sg35
I16
ssg10
I15
sg36
g4
sg37
(dp196
sg39
(dp197
sg41
I99
sg42
g21
sg43
g21
sg44
I15
sg45
Vdescribes
p198
sg47
I15
sg48
I108
sbag0
(g23
g2
Ntp199
Rp200
(dp201
g27
(dp202
g29
Vhe
p203
sg31
VO
p204
sg33
VPRP$
p205
sg35
I17
ssg10
I16
sg36
g4
sg37
(dp206
sg39
(dp207
sg41
I109
sg42
g21
sg43
g21
sg44
I16
sg45
Vhis
p208
sg47
I16
sg48
I112
sbag0
(g23
g2
Ntp209
Rp210
(dp211
g27
(dp212
g29
Vpolicy
p213
sg31
VO
p214
sg33
VNN
p215
sg35
I18
ssg10
I17
sg36
g4
sg37
(dp216
sg39
(dp217
sg41
I113
sg42
g21
sg43
g21
sg44
I17
sg45
Vpolicy
p218
sg47
I17
sg48
I119
sbag0
(g23
g2
Ntp219
Rp220
(dp221
g27
(dp222
g29
Vtowards
p223
sg31
VO
p224
sg33
VIN
p225
sg35
I19
ssg10
I18
sg36
g4
sg37
(dp226
sg39
(dp227
sg41
I120
sg42
g21
sg43
g21
sg44
I18
sg45
Vtowards
p228
sg47
I18
sg48
I127
sbag0
(g23
g2
Ntp229
Rp230
(dp231
g27
(dp232
g29
Vstate
p233
sg31
VO
p234
sg33
VNN
p235
sg35
I20
ssg10
I19
sg36
g4
sg37
(dp236
sg39
(dp237
sg41
I128
sg42
g21
sg43
g21
sg44
I19
sg45
Vstate
p238
sg47
I19
sg48
I133
sbag0
(g23
g2
Ntp239
Rp240
(dp241
g27
(dp242
g29
Vmulticulturalism
p243
sg31
VO
p244
sg33
VNN
p245
sg35
I21
ssg10
I20
sg36
g4
sg37
(dp246
sg39
(dp247
sg41
I134
sg42
g21
sg43
g21
sg44
I20
sg45
Vmulticulturalism
p248
sg47
I20
sg48
I150
sbag0
(g23
g2
Ntp249
Rp250
(dp251
g27
(dp252
g29
V-lsb-
p253
sg31
VO
p254
sg33
V-LRB-
p255
sg35
I22
ssg10
I21
sg36
g4
sg37
(dp256
sg39
(dp257
sg41
I151
sg42
g21
sg43
g21
sg44
I21
sg45
V[
p258
sg47
I21
sg48
I152
sbag0
(g23
g2
Ntp259
Rp260
(dp261
g27
(dp262
g29
Vref
p263
sg31
VO
p264
sg33
VNN
p265
sg35
I23
ssg10
I22
sg36
g4
sg37
(dp266
sg39
(dp267
sg41
I152
sg42
g21
sg43
g21
sg44
I22
sg45
VREF
p268
sg47
I22
sg48
I155
sbag0
(g23
g2
Ntp269
Rp270
(dp271
g27
(dp272
g29
V-rsb-
p273
sg31
VO
p274
sg33
V-RRB-
p275
sg35
I24
ssg10
I23
sg36
g4
sg37
(dp276
sg39
(dp277
sg41
I155
sg42
g21
sg43
g21
sg44
I23
sg45
V]
p278
sg47
I23
sg48
I156
sbag0
(g23
g2
Ntp279
Rp280
(dp281
g27
(dp282
g29
V.
p283
sg31
VO
p284
sg33
V.
p285
sg35
I25
ssg10
I24
sg36
g4
sg37
(dp286
sg39
(dp287
sg41
I156
sg42
g21
sg43
g21
sg44
I24
sg45
V.
p288
sg47
I24
sg48
I157
sbag0
(g23
g2
Ntp289
Rp290
(dp291
g27
(dp292
g29
VCameron
p293
sg31
VPERSON
p294
sg33
VNNP
p295
sg35
I1
ssg10
I25
sg36
g4
sg37
(dp296
sg39
(dp297
sg41
I160
sg42
g21
sg43
g21
sg44
I25
sg45
VCameron
p298
sg47
I25
sg48
I167
sbag0
(g23
g2
Ntp299
Rp300
(dp301
g27
(dp302
g29
Vcoin
p303
sg31
VO
p304
sg33
VVBD
p305
sg35
I2
ssg10
I26
sg36
g4
sg37
(dp306
sg39
(dp307
sg41
I168
sg42
g21
sg43
g21
sg44
I26
sg45
Vcoined
p308
sg47
I26
sg48
I174
sbag0
(g23
g2
Ntp309
Rp310
(dp311
g27
(dp312
g29
Vthe
p313
sg31
VO
p314
sg33
VDT
p315
sg35
I3
ssg10
I27
sg36
g4
sg37
(dp316
sg39
(dp317
sg41
I175
sg42
g21
sg43
g21
sg44
I27
sg45
Vthe
p318
sg47
I27
sg48
I178
sbag0
(g23
g2
Ntp319
Rp320
(dp321
g27
(dp322
g29
Vterm
p323
sg31
VO
p324
sg33
VNN
p325
sg35
I4
ssg10
I28
sg36
g4
sg37
(dp326
sg39
(dp327
sg41
I179
sg42
g21
sg43
g21
sg44
I28
sg45
Vterm
p328
sg47
I28
sg48
I183
sbag0
(g23
g2
Ntp329
Rp330
(dp331
g27
(dp332
g29
Vin
p333
sg31
VO
p334
sg33
VIN
p335
sg35
I5
ssg10
I29
sg36
g4
sg37
(dp336
sg39
(dp337
sg41
I184
sg42
g21
sg43
g21
sg44
I29
sg45
Vin
p338
sg47
I29
sg48
I186
sbag0
(g23
g2
Ntp339
Rp340
(dp341
g27
(dp342
g29
Va
p343
sg31
VO
p344
sg33
VDT
p345
sg35
I6
ssg10
I30
sg36
g4
sg37
(dp346
sg39
(dp347
sg41
I187
sg42
g21
sg43
g21
sg44
I30
sg45
Va
p348
sg47
I30
sg48
I188
sbag0
(g23
g2
Ntp349
Rp350
(dp351
g27
(dp352
g29
Vspeech
p353
sg31
VO
p354
sg33
VNN
p355
sg35
I7
ssg10
I31
sg36
g4
sg37
(dp356
sg39
(dp357
sg41
I189
sg42
g21
sg43
g21
sg44
I31
sg45
Vspeech
p358
sg47
I31
sg48
I195
sbag0
(g23
g2
Ntp359
Rp360
(dp361
g27
(dp362
g29
Vin
p363
sg31
VO
p364
sg33
VIN
p365
sg35
I8
ssg10
I32
sg36
g4
sg37
(dp366
sg39
(dp367
sg41
I196
sg42
g21
sg43
g21
sg44
I32
sg45
Vin
p368
sg47
I32
sg48
I198
sbag0
(g23
g2
Ntp369
Rp370
(dp371
g27
(dp372
g29
VMunich
p373
sg31
VLOCATION
p374
sg33
VNNP
p375
sg35
I9
ssg10
I33
sg36
g4
sg37
(dp376
sg39
(dp377
sg41
I199
sg42
g21
sg43
g21
sg44
I33
sg45
VMunich
p378
sg47
I33
sg48
I205
sbag0
(g23
g2
Ntp379
Rp380
(dp381
g27
(dp382
g29
Von
p383
sg31
VO
p384
sg33
VIN
p385
sg35
I10
ssg10
I34
sg36
g4
sg37
(dp386
sg39
(dp387
sg41
I206
sg42
g21
sg43
g21
sg44
I34
sg45
Von
p388
sg47
I34
sg48
I208
sbag0
(g23
g2
Ntp389
Rp390
(dp391
g27
(dp392
g29
V5
p393
sg31
VDATE
p394
sg33
VCD
p395
sg35
I11
ssg10
I35
sg36
g4
sg37
(dp396
sg39
(dp397
sg41
I209
sg42
g21
sg43
g21
sg44
I35
sg45
V5
p398
sg47
I35
sg48
I210
sbag0
(g23
g2
Ntp399
Rp400
(dp401
g27
(dp402
g29
VFebruary
p403
sg31
VDATE
p404
sg33
VNNP
p405
sg35
I12
ssg10
I36
sg36
g4
sg37
(dp406
sg39
(dp407
sg41
I211
sg42
g21
sg43
g21
sg44
I36
sg45
VFebruary
p408
sg47
I36
sg48
I219
sbag0
(g23
g2
Ntp409
Rp410
(dp411
g27
(dp412
g29
V2011
p413
sg31
VDATE
p414
sg33
VCD
p415
sg35
I13
ssg10
I37
sg36
g4
sg37
(dp416
sg39
(dp417
sg41
I220
sg42
g21
sg43
g21
sg44
I37
sg45
V2011
p418
sg47
I37
sg48
I224
sbag0
(g23
g2
Ntp419
Rp420
(dp421
g27
(dp422
g29
V.
p423
sg31
VO
p424
sg33
V.
p425
sg35
I14
ssg10
I38
sg36
g4
sg37
(dp426
sg39
(dp427
sg41
I224
sg42
g21
sg43
g21
sg44
I38
sg45
V.
p428
sg47
I38
sg48
I225
sbag0
(g23
g2
Ntp429
Rp430
(dp431
g27
(dp432
g29
Vaccord
p433
sg31
VO
p434
sg33
VVBG
p435
sg35
I1
ssg10
I39
sg36
g4
sg37
(dp436
sg39
(dp437
sg41
I226
sg42
g21
sg43
g21
sg44
I39
sg45
VAccording
p438
sg47
I39
sg48
I235
sbag0
(g23
g2
Ntp439
Rp440
(dp441
g27
(dp442
g29
Vto
p443
sg31
VO
p444
sg33
VTO
p445
sg35
I2
ssg10
I40
sg36
g4
sg37
(dp446
sg39
(dp447
sg41
I236
sg42
g21
sg43
g21
sg44
I40
sg45
Vto
p448
sg47
I40
sg48
I238
sbag0
(g23
g2
Ntp449
Rp450
(dp451
g27
(dp452
g29
VDavid
p453
sg31
VPERSON
p454
sg33
VNNP
p455
sg35
I3
ssg10
I41
sg36
g4
sg37
(dp456
sg39
(dp457
sg41
I239
sg42
g21
sg43
g21
sg44
I41
sg45
VDavid
p458
sg47
I41
sg48
I244
sbag0
(g23
g2
Ntp459
Rp460
(dp461
g27
(dp462
g29
VCameron
p463
sg31
VPERSON
p464
sg33
VNNP
p465
sg35
I4
ssg10
I42
sg36
g4
sg37
(dp466
sg39
(dp467
sg41
I245
sg42
g21
sg43
g21
sg44
I42
sg45
VCameron
p468
sg47
I42
sg48
I252
sbag0
(g23
g2
Ntp469
Rp470
(dp471
g27
(dp472
g29
V,
p473
sg31
VO
p474
sg33
V,
p475
sg35
I5
ssg10
I43
sg36
g4
sg37
(dp476
sg39
(dp477
sg41
I252
sg42
g21
sg43
g21
sg44
I43
sg45
V,
p478
sg47
I43
sg48
I253
sbag0
(g23
g2
Ntp479
Rp480
(dp481
g27
(dp482
g29
V``
p483
sg31
VO
p484
sg33
V``
p485
sg35
I6
ssg10
I44
sg36
g4
sg37
(dp486
sg39
(dp487
sg41
I254
sg42
g21
sg43
g21
sg44
I44
sg45
V"
p488
sg47
I44
sg48
I255
sbag0
(g23
g2
Ntp489
Rp490
(dp491
g27
(dp492
g29
Vunder
p493
sg31
VO
p494
sg33
VIN
p495
sg35
I7
ssg10
I45
sg36
g4
sg37
(dp496
sg39
(dp497
sg41
I255
sg42
g21
sg43
g21
sg44
I45
sg45
VUnder
p498
sg47
I45
sg48
I260
sbag0
(g23
g2
Ntp499
Rp500
(dp501
g27
(dp502
g29
Vthe
p503
sg31
VO
p504
sg33
VDT
p505
sg35
I8
ssg10
I46
sg36
g4
sg37
(dp506
sg39
(dp507
sg41
I261
sg42
g21
sg43
g21
sg44
I46
sg45
Vthe
p508
sg47
I46
sg48
I264
sbag0
(g23
g2
Ntp509
Rp510
(dp511
g27
(dp512
g29
Vdoctrine
p513
sg31
VO
p514
sg33
VNN
p515
sg35
I9
ssg10
I47
sg36
g4
sg37
(dp516
sg39
(dp517
sg41
I265
sg42
g21
sg43
g21
sg44
I47
sg45
Vdoctrine
p518
sg47
I47
sg48
I273
sbag0
(g23
g2
Ntp519
Rp520
(dp521
g27
(dp522
g29
Vof
p523
sg31
VO
p524
sg33
VIN
p525
sg35
I10
ssg10
I48
sg36
g4
sg37
(dp526
sg39
(dp527
sg41
I274
sg42
g21
sg43
g21
sg44
I48
sg45
Vof
p528
sg47
I48
sg48
I276
sbag0
(g23
g2
Ntp529
Rp530
(dp531
g27
(dp532
g29
Vstate
p533
sg31
VO
p534
sg33
VNN
p535
sg35
I11
ssg10
I49
sg36
g4
sg37
(dp536
sg39
(dp537
sg41
I277
sg42
g21
sg43
g21
sg44
I49
sg45
Vstate
p538
sg47
I49
sg48
I282
sbag0
(g23
g2
Ntp539
Rp540
(dp541
g27
(dp542
g29
Vmulticulturalism
p543
sg31
VO
p544
sg33
VNN
p545
sg35
I12
ssg10
I50
sg36
g4
sg37
(dp546
sg39
(dp547
sg41
I283
sg42
g21
sg43
g21
sg44
I50
sg45
Vmulticulturalism
p548
sg47
I50
sg48
I299
sbag0
(g23
g2
Ntp549
Rp550
(dp551
g27
(dp552
g29
V,
p553
sg31
VO
p554
sg33
V,
p555
sg35
I13
ssg10
I51
sg36
g4
sg37
(dp556
sg39
(dp557
sg41
I299
sg42
g21
sg43
g21
sg44
I51
sg45
V,
p558
sg47
I51
sg48
I300
sbag0
(g23
g2
Ntp559
Rp560
(dp561
g27
(dp562
g29
Vwe
p563
sg31
VO
p564
sg33
VPRP
p565
sg35
I14
ssg10
I52
sg36
g4
sg37
(dp566
sg39
(dp567
sg41
I301
sg42
g21
sg43
g21
sg44
I52
sg45
Vwe
p568
sg47
I52
sg48
I303
sbag0
(g23
g2
Ntp569
Rp570
(dp571
g27
(dp572
g29
Vhave
p573
sg31
VO
p574
sg33
VVBP
p575
sg35
I15
ssg10
I53
sg36
g4
sg37
(dp576
sg39
(dp577
sg41
I304
sg42
g21
sg43
g21
sg44
I53
sg45
Vhave
p578
sg47
I53
sg48
I308
sbag0
(g23
g2
Ntp579
Rp580
(dp581
g27
(dp582
g29
Vencourage
p583
sg31
VO
p584
sg33
VVBN
p585
sg35
I16
ssg10
I54
sg36
g4
sg37
(dp586
sg39
(dp587
sg41
I309
sg42
g21
sg43
g21
sg44
I54
sg45
Vencouraged
p588
sg47
I54
sg48
I319
sbag0
(g23
g2
Ntp589
Rp590
(dp591
g27
(dp592
g29
Vdifferent
p593
sg31
VO
p594
sg33
VJJ
p595
sg35
I17
ssg10
I55
sg36
g4
sg37
(dp596
sg39
(dp597
sg41
I320
sg42
g21
sg43
g21
sg44
I55
sg45
Vdifferent
p598
sg47
I55
sg48
I329
sbag0
(g23
g2
Ntp599
Rp600
(dp601
g27
(dp602
g29
Vculture
p603
sg31
VO
p604
sg33
VNNS
p605
sg35
I18
ssg10
I56
sg36
g4
sg37
(dp606
sg39
(dp607
sg41
I330
sg42
g21
sg43
g21
sg44
I56
sg45
Vcultures
p608
sg47
I56
sg48
I338
sbag0
(g23
g2
Ntp609
Rp610
(dp611
g27
(dp612
g29
Vto
p613
sg31
VO
p614
sg33
VTO
p615
sg35
I19
ssg10
I57
sg36
g4
sg37
(dp616
sg39
(dp617
sg41
I339
sg42
g21
sg43
g21
sg44
I57
sg45
Vto
p618
sg47
I57
sg48
I341
sbag0
(g23
g2
Ntp619
Rp620
(dp621
g27
(dp622
g29
Vlive
p623
sg31
VO
p624
sg33
VVB
p625
sg35
I20
ssg10
I58
sg36
g4
sg37
(dp626
sg39
(dp627
sg41
I342
sg42
g21
sg43
g21
sg44
I58
sg45
Vlive
p628
sg47
I58
sg48
I346
sbag0
(g23
g2
Ntp629
Rp630
(dp631
g27
(dp632
g29
Vseparate
p633
sg31
VO
p634
sg33
VJJ
p635
sg35
I21
ssg10
I59
sg36
g4
sg37
(dp636
sg39
(dp637
sg41
I347
sg42
g21
sg43
g21
sg44
I59
sg45
Vseparate
p638
sg47
I59
sg48
I355
sbag0
(g23
g2
Ntp639
Rp640
(dp641
g27
(dp642
g29
Vlife
p643
sg31
VO
p644
sg33
VNNS
p645
sg35
I22
ssg10
I60
sg36
g4
sg37
(dp646
sg39
(dp647
sg41
I356
sg42
g21
sg43
g21
sg44
I60
sg45
Vlives
p648
sg47
I60
sg48
I361
sbag0
(g23
g2
Ntp649
Rp650
(dp651
g27
(dp652
g29
V,
p653
sg31
VO
p654
sg33
V,
p655
sg35
I23
ssg10
I61
sg36
g4
sg37
(dp656
sg39
(dp657
sg41
I361
sg42
g21
sg43
g21
sg44
I61
sg45
V,
p658
sg47
I61
sg48
I362
sbag0
(g23
g2
Ntp659
Rp660
(dp661
g27
(dp662
g29
Vapart
p663
sg31
VO
p664
sg33
VRB
p665
sg35
I24
ssg10
I62
sg36
g4
sg37
(dp666
sg39
(dp667
sg41
I363
sg42
g21
sg43
g21
sg44
I62
sg45
Vapart
p668
sg47
I62
sg48
I368
sbag0
(g23
g2
Ntp669
Rp670
(dp671
g27
(dp672
g29
Vfrom
p673
sg31
VO
p674
sg33
VIN
p675
sg35
I25
ssg10
I63
sg36
g4
sg37
(dp676
sg39
(dp677
sg41
I369
sg42
g21
sg43
g21
sg44
I63
sg45
Vfrom
p678
sg47
I63
sg48
I373
sbag0
(g23
g2
Ntp679
Rp680
(dp681
g27
(dp682
g29
Veach
p683
sg31
VO
p684
sg33
VDT
p685
sg35
I26
ssg10
I64
sg36
g4
sg37
(dp686
sg39
(dp687
sg41
I374
sg42
g21
sg43
g21
sg44
I64
sg45
Veach
p688
sg47
I64
sg48
I378
sbag0
(g23
g2
Ntp689
Rp690
(dp691
g27
(dp692
g29
Vother
p693
sg31
VO
p694
sg33
VJJ
p695
sg35
I27
ssg10
I65
sg36
g4
sg37
(dp696
sg39
(dp697
sg41
I379
sg42
g21
sg43
g21
sg44
I65
sg45
Vother
p698
sg47
I65
sg48
I384
sbag0
(g23
g2
Ntp699
Rp700
(dp701
g27
(dp702
g29
Vand
p703
sg31
VO
p704
sg33
VCC
p705
sg35
I28
ssg10
I66
sg36
g4
sg37
(dp706
sg39
(dp707
sg41
I385
sg42
g21
sg43
g21
sg44
I66
sg45
Vand
p708
sg47
I66
sg48
I388
sbag0
(g23
g2
Ntp709
Rp710
(dp711
g27
(dp712
g29
Vapart
p713
sg31
VO
p714
sg33
VRB
p715
sg35
I29
ssg10
I67
sg36
g4
sg37
(dp716
sg39
(dp717
sg41
I389
sg42
g21
sg43
g21
sg44
I67
sg45
Vapart
p718
sg47
I67
sg48
I394
sbag0
(g23
g2
Ntp719
Rp720
(dp721
g27
(dp722
g29
Vfrom
p723
sg31
VO
p724
sg33
VIN
p725
sg35
I30
ssg10
I68
sg36
g4
sg37
(dp726
sg39
(dp727
sg41
I395
sg42
g21
sg43
g21
sg44
I68
sg45
Vfrom
p728
sg47
I68
sg48
I399
sbag0
(g23
g2
Ntp729
Rp730
(dp731
g27
(dp732
g29
Vthe
p733
sg31
VO
p734
sg33
VDT
p735
sg35
I31
ssg10
I69
sg36
g4
sg37
(dp736
sg39
(dp737
sg41
I400
sg42
g21
sg43
g21
sg44
I69
sg45
Vthe
p738
sg47
I69
sg48
I403
sbag0
(g23
g2
Ntp739
Rp740
(dp741
g27
(dp742
g29
Vmainstream
p743
sg31
VO
p744
sg33
VNN
p745
sg35
I32
ssg10
I70
sg36
g4
sg37
(dp746
sg39
(dp747
sg41
I404
sg42
g21
sg43
g21
sg44
I70
sg45
Vmainstream
p748
sg47
I70
sg48
I414
sbag0
(g23
g2
Ntp749
Rp750
(dp751
g27
(dp752
g29
V.
p753
sg31
VO
p754
sg33
V.
p755
sg35
I33
ssg10
I71
sg36
g4
sg37
(dp756
sg39
(dp757
sg41
I414
sg42
g21
sg43
g21
sg44
I71
sg45
V.
p758
sg47
I71
sg48
I415
sbag0
(g23
g2
Ntp759
Rp760
(dp761
g27
(dp762
g29
Vwe
p763
sg31
VO
p764
sg33
VPRP
p765
sg35
I1
ssg10
I72
sg36
g4
sg37
(dp766
sg39
(dp767
sg41
I416
sg42
g21
sg43
g21
sg44
I72
sg45
VWe
p768
sg47
I72
sg48
I418
sbag0
(g23
g2
Ntp769
Rp770
(dp771
g27
(dp772
g29
Vhave
p773
sg31
VO
p774
sg33
VVBP
p775
sg35
I2
ssg10
I73
sg36
g4
sg37
(dp776
sg39
(dp777
sg41
I418
sg42
g21
sg43
g21
sg44
I73
sg45
V've
p778
sg47
I73
sg48
I421
sbag0
(g23
g2
Ntp779
Rp780
(dp781
g27
(dp782
g29
Vfail
p783
sg31
VO
p784
sg33
VVBN
p785
sg35
I3
ssg10
I74
sg36
g4
sg37
(dp786
sg39
(dp787
sg41
I422
sg42
g21
sg43
g21
sg44
I74
sg45
Vfailed
p788
sg47
I74
sg48
I428
sbag0
(g23
g2
Ntp789
Rp790
(dp791
g27
(dp792
g29
Vto
p793
sg31
VO
p794
sg33
VTO
p795
sg35
I4
ssg10
I75
sg36
g4
sg37
(dp796
sg39
(dp797
sg41
I429
sg42
g21
sg43
g21
sg44
I75
sg45
Vto
p798
sg47
I75
sg48
I431
sbag0
(g23
g2
Ntp799
Rp800
(dp801
g27
(dp802
g29
Vprovide
p803
sg31
VO
p804
sg33
VVB
p805
sg35
I5
ssg10
I76
sg36
g4
sg37
(dp806
sg39
(dp807
sg41
I432
sg42
g21
sg43
g21
sg44
I76
sg45
Vprovide
p808
sg47
I76
sg48
I439
sbag0
(g23
g2
Ntp809
Rp810
(dp811
g27
(dp812
g29
Va
p813
sg31
VO
p814
sg33
VDT
p815
sg35
I6
ssg10
I77
sg36
g4
sg37
(dp816
sg39
(dp817
sg41
I440
sg42
g21
sg43
g21
sg44
I77
sg45
Va
p818
sg47
I77
sg48
I441
sbag0
(g23
g2
Ntp819
Rp820
(dp821
g27
(dp822
g29
Vvision
p823
sg31
VO
p824
sg33
VNN
p825
sg35
I7
ssg10
I78
sg36
g4
sg37
(dp826
sg39
(dp827
sg41
I442
sg42
g21
sg43
g21
sg44
I78
sg45
Vvision
p828
sg47
I78
sg48
I448
sbag0
(g23
g2
Ntp829
Rp830
(dp831
g27
(dp832
g29
Vof
p833
sg31
VO
p834
sg33
VIN
p835
sg35
I8
ssg10
I79
sg36
g4
sg37
(dp836
sg39
(dp837
sg41
I449
sg42
g21
sg43
g21
sg44
I79
sg45
Vof
p838
sg47
I79
sg48
I451
sbag0
(g23
g2
Ntp839
Rp840
(dp841
g27
(dp842
g29
Vsociety
p843
sg31
VO
p844
sg33
VNN
p845
sg35
I9
ssg10
I80
sg36
g4
sg37
(dp846
sg39
(dp847
sg41
I452
sg42
g21
sg43
g21
sg44
I80
sg45
Vsociety
p848
sg47
I80
sg48
I459
sbag0
(g23
g2
Ntp849
Rp850
(dp851
g27
(dp852
g29
Vto
p853
sg31
VO
p854
sg33
VTO
p855
sg35
I10
ssg10
I81
sg36
g4
sg37
(dp856
sg39
(dp857
sg41
I460
sg42
g21
sg43
g21
sg44
I81
sg45
Vto
p858
sg47
I81
sg48
I462
sbag0
(g23
g2
Ntp859
Rp860
(dp861
g27
(dp862
g29
Vwhich
p863
sg31
VO
p864
sg33
VWDT
p865
sg35
I11
ssg10
I82
sg36
g4
sg37
(dp866
sg39
(dp867
sg41
I463
sg42
g21
sg43
g21
sg44
I82
sg45
Vwhich
p868
sg47
I82
sg48
I468
sbag0
(g23
g2
Ntp869
Rp870
(dp871
g27
(dp872
g29
Vthey
p873
sg31
VO
p874
sg33
VPRP
p875
sg35
I12
ssg10
I83
sg36
g4
sg37
(dp876
sg39
(dp877
sg41
I469
sg42
g21
sg43
g21
sg44
I83
sg45
Vthey
p878
sg47
I83
sg48
I473
sbag0
(g23
g2
Ntp879
Rp880
(dp881
g27
(dp882
g29
Vfeel
p883
sg31
VO
p884
sg33
VVBP
p885
sg35
I13
ssg10
I84
sg36
g4
sg37
(dp886
sg39
(dp887
sg41
I474
sg42
g21
sg43
g21
sg44
I84
sg45
Vfeel
p888
sg47
I84
sg48
I478
sbag0
(g23
g2
Ntp889
Rp890
(dp891
g27
(dp892
g29
Vthey
p893
sg31
VO
p894
sg33
VPRP
p895
sg35
I14
ssg10
I85
sg36
g4
sg37
(dp896
sg39
(dp897
sg41
I479
sg42
g21
sg43
g21
sg44
I85
sg45
Vthey
p898
sg47
I85
sg48
I483
sbag0
(g23
g2
Ntp899
Rp900
(dp901
g27
(dp902
g29
Vwant
p903
sg31
VO
p904
sg33
VVBP
p905
sg35
I15
ssg10
I86
sg36
g4
sg37
(dp906
sg39
(dp907
sg41
I484
sg42
g21
sg43
g21
sg44
I86
sg45
Vwant
p908
sg47
I86
sg48
I488
sbag0
(g23
g2
Ntp909
Rp910
(dp911
g27
(dp912
g29
Vto
p913
sg31
VO
p914
sg33
VTO
p915
sg35
I16
ssg10
I87
sg36
g4
sg37
(dp916
sg39
(dp917
sg41
I489
sg42
g21
sg43
g21
sg44
I87
sg45
Vto
p918
sg47
I87
sg48
I491
sbag0
(g23
g2
Ntp919
Rp920
(dp921
g27
(dp922
g29
Vbelong
p923
sg31
VO
p924
sg33
VVB
p925
sg35
I17
ssg10
I88
sg36
g4
sg37
(dp926
sg39
(dp927
sg41
I492
sg42
g21
sg43
g21
sg44
I88
sg45
Vbelong
p928
sg47
I88
sg48
I498
sbag0
(g23
g2
Ntp929
Rp930
(dp931
g27
(dp932
g29
V.
p933
sg31
VO
p934
sg33
V.
p935
sg35
I18
ssg10
I89
sg36
g4
sg37
(dp936
sg39
(dp937
sg41
I498
sg42
g21
sg43
g21
sg44
I89
sg45
V.
p938
sg47
I89
sg48
I499
sbag0
(g23
g2
Ntp939
Rp940
(dp941
g27
(dp942
g29
V''
p943
sg31
VO
p944
sg33
V''
p945
sg35
I19
ssg10
I90
sg36
g4
sg37
(dp946
sg39
(dp947
sg41
I499
sg42
g21
sg43
g21
sg44
I90
sg45
g488
sg47
I90
sg48
I500
sbag0
(g23
g2
Ntp948
Rp949
(dp950
g27
(dp951
g29
V-lsb-
p952
sg31
VO
p953
sg33
V-LRB-
p954
sg35
I1
ssg10
I91
sg36
g4
sg37
(dp955
sg39
(dp956
sg41
I500
sg42
g21
sg43
g21
sg44
I91
sg45
V[
p957
sg47
I91
sg48
I501
sbag0
(g23
g2
Ntp958
Rp959
(dp960
g27
(dp961
g29
Vref
p962
sg31
VO
p963
sg33
VNN
p964
sg35
I2
ssg10
I92
sg36
g4
sg37
(dp965
sg39
(dp966
sg41
I501
sg42
g21
sg43
g21
sg44
I92
sg45
VREF
p967
sg47
I92
sg48
I504
sbag0
(g23
g2
Ntp968
Rp969
(dp970
g27
(dp971
g29
V-rsb-
p972
sg31
VO
p973
sg33
V-RRB-
p974
sg35
I3
ssg10
I93
sg36
g4
sg37
(dp975
sg39
(dp976
sg41
I504
sg42
g21
sg43
g21
sg44
I93
sg45
V]
p977
sg47
I93
sg48
I505
sbag0
(g23
g2
Ntp978
Rp979
(dp980
g27
(dp981
g29
V.
p982
sg31
VO
p983
sg33
V.
p984
sg35
I4
ssg10
I94
sg36
g4
sg37
(dp985
sg39
(dp986
sg41
I506
sg42
g21
sg43
g21
sg44
I94
sg45
V.
p987
sg47
I94
sg48
I507
sbag0
(g23
g2
Ntp988
Rp989
(dp990
g27
(dp991
g29
Vcritic
p992
sg31
VO
p993
sg33
VNNS
p994
sg35
I1
ssg10
I95
sg36
g4
sg37
(dp995
sg39
(dp996
sg41
I510
sg42
g21
sg43
g21
sg44
I95
sg45
VCritics
p997
sg47
I95
sg48
I517
sbag0
(g23
g2
Ntp998
Rp999
(dp1000
g27
(dp1001
g29
Vand
p1002
sg31
VO
p1003
sg33
VCC
p1004
sg35
I2
ssg10
I96
sg36
g4
sg37
(dp1005
sg39
(dp1006
sg41
I518
sg42
g21
sg43
g21
sg44
I96
sg45
Vand
p1007
sg47
I96
sg48
I521
sbag0
(g23
g2
Ntp1008
Rp1009
(dp1010
g27
(dp1011
g29
Vspeculator
p1012
sg31
VO
p1013
sg33
VNNS
p1014
sg35
I3
ssg10
I97
sg36
g4
sg37
(dp1015
sg39
(dp1016
sg41
I522
sg42
g21
sg43
g21
sg44
I97
sg45
Vspeculators
p1017
sg47
I97
sg48
I533
sbag0
(g23
g2
Ntp1018
Rp1019
(dp1020
g27
(dp1021
g29
Vbelieve
p1022
sg31
VO
p1023
sg33
VVBP
p1024
sg35
I4
ssg10
I98
sg36
g4
sg37
(dp1025
sg39
(dp1026
sg41
I534
sg42
g21
sg43
g21
sg44
I98
sg45
Vbelieve
p1027
sg47
I98
sg48
I541
sbag0
(g23
g2
Ntp1028
Rp1029
(dp1030
g27
(dp1031
g29
V``
p1032
sg31
VO
p1033
sg33
V``
p1034
sg35
I5
ssg10
I99
sg36
g4
sg37
(dp1035
sg39
(dp1036
sg41
I542
sg42
g21
sg43
g21
sg44
I99
sg45
g488
sg47
I99
sg48
I543
sbag0
(g23
g2
Ntp1037
Rp1038
(dp1039
g27
(dp1040
g29
Vmuscular
p1041
sg31
VO
p1042
sg33
VJJ
p1043
sg35
I6
ssg10
I100
sg36
g4
sg37
(dp1044
sg39
(dp1045
sg41
I543
sg42
g21
sg43
g21
sg44
I100
sg45
Vmuscular
p1046
sg47
I100
sg48
I551
sbag0
(g23
g2
Ntp1047
Rp1048
(dp1049
g27
(dp1050
g29
Vliberalism
p1051
sg31
VO
p1052
sg33
VNN
p1053
sg35
I7
ssg10
I101
sg36
g4
sg37
(dp1054
sg39
(dp1055
sg41
I552
sg42
g21
sg43
g21
sg44
I101
sg45
Vliberalism
p1056
sg47
I101
sg48
I562
sbag0
(g23
g2
Ntp1057
Rp1058
(dp1059
g27
(dp1060
g29
V''
p1061
sg31
VO
p1062
sg33
V''
p1063
sg35
I8
ssg10
I102
sg36
g4
sg37
(dp1064
sg39
(dp1065
sg41
I562
sg42
g21
sg43
g21
sg44
I102
sg45
g488
sg47
I102
sg48
I563
sbag0
(g23
g2
Ntp1066
Rp1067
(dp1068
g27
(dp1069
g29
Vwill
p1070
sg31
VO
p1071
sg33
VMD
p1072
sg35
I9
ssg10
I103
sg36
g4
sg37
(dp1073
sg39
(dp1074
sg41
I564
sg42
g21
sg43
g21
sg44
I103
sg45
Vwill
p1075
sg47
I103
sg48
I568
sbag0
(g23
g2
Ntp1076
Rp1077
(dp1078
g27
(dp1079
g29
Vbe
p1080
sg31
VO
p1081
sg33
VVB
p1082
sg35
I10
ssg10
I104
sg36
g4
sg37
(dp1083
sg39
(dp1084
sg41
I569
sg42
g21
sg43
g21
sg44
I104
sg45
Vbe
p1085
sg47
I104
sg48
I571
sbag0
(g23
g2
Ntp1086
Rp1087
(dp1088
g27
(dp1089
g29
Vthe
p1090
sg31
VO
p1091
sg33
VDT
p1092
sg35
I11
ssg10
I105
sg36
g4
sg37
(dp1093
sg39
(dp1094
sg41
I572
sg42
g21
sg43
g21
sg44
I105
sg45
Vthe
p1095
sg47
I105
sg48
I575
sbag0
(g23
g2
Ntp1096
Rp1097
(dp1098
g27
(dp1099
g29
Vnew
p1100
sg31
VO
p1101
sg33
VJJ
p1102
sg35
I12
ssg10
I106
sg36
g4
sg37
(dp1103
sg39
(dp1104
sg41
I576
sg42
g21
sg43
g21
sg44
I106
sg45
Vnew
p1105
sg47
I106
sg48
I579
sbag0
(g23
g2
Ntp1106
Rp1107
(dp1108
g27
(dp1109
g29
V``
p1110
sg31
VO
p1111
sg33
V``
p1112
sg35
I13
ssg10
I107
sg36
g4
sg37
(dp1113
sg39
(dp1114
sg41
I580
sg42
g21
sg43
g21
sg44
I107
sg45
g488
sg47
I107
sg48
I581
sbag0
(g23
g2
Ntp1115
Rp1116
(dp1117
g27
(dp1118
g29
Vism
p1119
sg31
VO
p1120
sg33
VFW
p1121
sg35
I14
ssg10
I108
sg36
g4
sg37
(dp1122
sg39
(dp1123
sg41
I581
sg42
g21
sg43
g21
sg44
I108
sg45
Vism
p1124
sg47
I108
sg48
I584
sbag0
(g23
g2
Ntp1125
Rp1126
(dp1127
g27
(dp1128
g29
V''
p1129
sg31
VO
p1130
sg33
V''
p1131
sg35
I15
ssg10
I109
sg36
g4
sg37
(dp1132
sg39
(dp1133
sg41
I584
sg42
g21
sg43
g21
sg44
I109
sg45
g488
sg47
I109
sg48
I585
sbag0
(g23
g2
Ntp1134
Rp1135
(dp1136
g27
(dp1137
g29
Vwhich
p1138
sg31
VO
p1139
sg33
VWDT
p1140
sg35
I16
ssg10
I110
sg36
g4
sg37
(dp1141
sg39
(dp1142
sg41
I586
sg42
g21
sg43
g21
sg44
I110
sg45
Vwhich
p1143
sg47
I110
sg48
I591
sbag0
(g23
g2
Ntp1144
Rp1145
(dp1146
g27
(dp1147
g29
VBritain
p1148
sg31
VLOCATION
p1149
sg33
VNNP
p1150
sg35
I17
ssg10
I111
sg36
g4
sg37
(dp1151
sg39
(dp1152
sg41
I592
sg42
g21
sg43
g21
sg44
I111
sg45
VBritain
p1153
sg47
I111
sg48
I599
sbag0
(g23
g2
Ntp1154
Rp1155
(dp1156
g27
(dp1157
g29
Vwill
p1158
sg31
VO
p1159
sg33
VMD
p1160
sg35
I18
ssg10
I112
sg36
g4
sg37
(dp1161
sg39
(dp1162
sg41
I600
sg42
g21
sg43
g21
sg44
I112
sg45
Vwill
p1163
sg47
I112
sg48
I604
sbag0
(g23
g2
Ntp1164
Rp1165
(dp1166
g27
(dp1167
g29
Vfollow
p1168
sg31
VO
p1169
sg33
VVB
p1170
sg35
I19
ssg10
I113
sg36
g4
sg37
(dp1171
sg39
(dp1172
sg41
I605
sg42
g21
sg43
g21
sg44
I113
sg45
Vfollow
p1173
sg47
I113
sg48
I611
sbag0
(g23
g2
Ntp1174
Rp1175
(dp1176
g27
(dp1177
g29
Vto
p1178
sg31
VO
p1179
sg33
VTO
p1180
sg35
I20
ssg10
I114
sg36
g4
sg37
(dp1181
sg39
(dp1182
sg41
I612
sg42
g21
sg43
g21
sg44
I114
sg45
Vto
p1183
sg47
I114
sg48
I614
sbag0
(g23
g2
Ntp1184
Rp1185
(dp1186
g27
(dp1187
g29
Vtackle
p1188
sg31
VO
p1189
sg33
VVB
p1190
sg35
I21
ssg10
I115
sg36
g4
sg37
(dp1191
sg39
(dp1192
sg41
I615
sg42
g21
sg43
g21
sg44
I115
sg45
Vtackle
p1193
sg47
I115
sg48
I621
sbag0
(g23
g2
Ntp1194
Rp1195
(dp1196
g27
(dp1197
g29
Vgrow
p1198
sg31
VO
p1199
sg33
VVBG
p1200
sg35
I22
ssg10
I116
sg36
g4
sg37
(dp1201
sg39
(dp1202
sg41
I622
sg42
g21
sg43
g21
sg44
I116
sg45
Vgrowing
p1203
sg47
I116
sg48
I629
sbag0
(g23
g2
Ntp1204
Rp1205
(dp1206
g27
(dp1207
g29
Vreligious
p1208
sg31
VO
p1209
sg33
VJJ
p1210
sg35
I23
ssg10
I117
sg36
g4
sg37
(dp1211
sg39
(dp1212
sg41
I630
sg42
g21
sg43
g21
sg44
I117
sg45
Vreligious
p1213
sg47
I117
sg48
I639
sbag0
(g23
g2
Ntp1214
Rp1215
(dp1216
g27
(dp1217
g29
Vterrorism
p1218
sg31
VO
p1219
sg33
VNN
p1220
sg35
I24
ssg10
I118
sg36
g4
sg37
(dp1221
sg39
(dp1222
sg41
I640
sg42
g21
sg43
g21
sg44
I118
sg45
Vterrorism
p1223
sg47
I118
sg48
I649
sbag0
(g23
g2
Ntp1224
Rp1225
(dp1226
g27
(dp1227
g29
Vand
p1228
sg31
VO
p1229
sg33
VCC
p1230
sg35
I25
ssg10
I119
sg36
g4
sg37
(dp1231
sg39
(dp1232
sg41
I650
sg42
g21
sg43
g21
sg44
I119
sg45
Vand
p1233
sg47
I119
sg48
I653
sbag0
(g23
g2
Ntp1234
Rp1235
(dp1236
g27
(dp1237
g29
Vextremism
p1238
sg31
VO
p1239
sg33
VNN
p1240
sg35
I26
ssg10
I120
sg36
g4
sg37
(dp1241
sg39
(dp1242
sg41
I654
sg42
g21
sg43
g21
sg44
I120
sg45
Vextremism
p1243
sg47
I120
sg48
I663
sbag0
(g23
g2
Ntp1244
Rp1245
(dp1246
g27
(dp1247
g29
V,
p1248
sg31
VO
p1249
sg33
V,
p1250
sg35
I27
ssg10
I121
sg36
g4
sg37
(dp1251
sg39
(dp1252
sg41
I663
sg42
g21
sg43
g21
sg44
I121
sg45
V,
p1253
sg47
I121
sg48
I664
sbag0
(g23
g2
Ntp1254
Rp1255
(dp1256
g27
(dp1257
g29
Vsubsequently
p1258
sg31
VO
p1259
sg33
VRB
p1260
sg35
I28
ssg10
I122
sg36
g4
sg37
(dp1261
sg39
(dp1262
sg41
I665
sg42
g21
sg43
g21
sg44
I122
sg45
Vsubsequently
p1263
sg47
I122
sg48
I677
sbag0
(g23
g2
Ntp1264
Rp1265
(dp1266
g27
(dp1267
g29
Vadapt
p1268
sg31
VO
p1269
sg33
VVBN
p1270
sg35
I29
ssg10
I123
sg36
g4
sg37
(dp1271
sg39
(dp1272
sg41
I678
sg42
g21
sg43
g21
sg44
I123
sg45
Vadapted
p1273
sg47
I123
sg48
I685
sbag0
(g23
g2
Ntp1274
Rp1275
(dp1276
g27
(dp1277
g29
Vby
p1278
sg31
VO
p1279
sg33
VIN
p1280
sg35
I30
ssg10
I124
sg36
g4
sg37
(dp1281
sg39
(dp1282
sg41
I686
sg42
g21
sg43
g21
sg44
I124
sg45
Vby
p1283
sg47
I124
sg48
I688
sbag0
(g23
g2
Ntp1284
Rp1285
(dp1286
g27
(dp1287
g29
Vall
p1288
sg31
VO
p1289
sg33
VDT
p1290
sg35
I31
ssg10
I125
sg36
g4
sg37
(dp1291
sg39
(dp1292
sg41
I689
sg42
g21
sg43
g21
sg44
I125
sg45
Vall
p1293
sg47
I125
sg48
I692
sbag0
(g23
g2
Ntp1294
Rp1295
(dp1296
g27
(dp1297
g29
Veuropean
p1298
sg31
VMISC
p1299
sg33
VJJ
p1300
sg35
I32
ssg10
I126
sg36
g4
sg37
(dp1301
sg39
(dp1302
sg41
I693
sg42
g21
sg43
g21
sg44
I126
sg45
VEuropean
p1303
sg47
I126
sg48
I701
sbag0
(g23
g2
Ntp1304
Rp1305
(dp1306
g27
(dp1307
g29
Vcountry
p1308
sg31
VO
p1309
sg33
VNNS
p1310
sg35
I33
ssg10
I127
sg36
g4
sg37
(dp1311
sg39
(dp1312
sg41
I702
sg42
g21
sg43
g21
sg44
I127
sg45
Vcountries
p1313
sg47
I127
sg48
I711
sbag0
(g23
g2
Ntp1314
Rp1315
(dp1316
g27
(dp1317
g29
Vinclude
p1318
sg31
VO
p1319
sg33
VVBG
p1320
sg35
I34
ssg10
I128
sg36
g4
sg37
(dp1321
sg39
(dp1322
sg41
I712
sg42
g21
sg43
g21
sg44
I128
sg45
Vincluding
p1323
sg47
I128
sg48
I721
sbag0
(g23
g2
Ntp1324
Rp1325
(dp1326
g27
(dp1327
g29
VCommonwealth
p1328
sg31
VORGANIZATION
p1329
sg33
VNNP
p1330
sg35
I35
ssg10
I129
sg36
g4
sg37
(dp1331
sg39
(dp1332
sg41
I722
sg42
g21
sg43
g21
sg44
I129
sg45
VCommonwealth
p1333
sg47
I129
sg48
I734
sbag0
(g23
g2
Ntp1334
Rp1335
(dp1336
g27
(dp1337
g29
VNations
p1338
sg31
VORGANIZATION
p1339
sg33
VNNPS
p1340
sg35
I36
ssg10
I130
sg36
g4
sg37
(dp1341
sg39
(dp1342
sg41
I735
sg42
g21
sg43
g21
sg44
I130
sg45
VNations
p1343
sg47
I130
sg48
I742
sbag0
(g23
g2
Ntp1344
Rp1345
(dp1346
g27
(dp1347
g29
V-lsb-
p1348
sg31
VO
p1349
sg33
V-LRB-
p1350
sg35
I37
ssg10
I131
sg36
g4
sg37
(dp1351
sg39
(dp1352
sg41
I743
sg42
g21
sg43
g21
sg44
I131
sg45
V[
p1353
sg47
I131
sg48
I744
sbag0
(g23
g2
Ntp1354
Rp1355
(dp1356
g27
(dp1357
g29
Vref
p1358
sg31
VO
p1359
sg33
VNN
p1360
sg35
I38
ssg10
I132
sg36
g4
sg37
(dp1361
sg39
(dp1362
sg41
I744
sg42
g21
sg43
g21
sg44
I132
sg45
VREF
p1363
sg47
I132
sg48
I747
sbag0
(g23
g2
Ntp1364
Rp1365
(dp1366
g27
(dp1367
g29
V-rsb-
p1368
sg31
VO
p1369
sg33
V-RRB-
p1370
sg35
I39
ssg10
I133
sg36
g4
sg37
(dp1371
sg39
(dp1372
sg41
I747
sg42
g21
sg43
g21
sg44
I133
sg45
V]
p1373
sg47
I133
sg48
I748
sbag0
(g23
g2
Ntp1374
Rp1375
(dp1376
g27
(dp1377
g29
V.
p1378
sg31
VO
p1379
sg33
V.
p1380
sg35
I40
ssg10
I134
sg36
g4
sg37
(dp1381
sg39
(dp1382
sg41
I748
sg42
g21
sg43
g21
sg44
I134
sg45
V.
p1383
sg47
I134
sg48
I749
sbag0
(g23
g2
Ntp1384
Rp1385
(dp1386
g27
(dp1387
g29
Vthe
p1388
sg31
VO
p1389
sg33
VDT
p1390
sg35
I1
ssg10
I135
sg36
g4
sg37
(dp1391
sg39
(dp1392
sg41
I751
sg42
g21
sg43
g21
sg44
I135
sg45
VThe
p1393
sg47
I135
sg48
I754
sbag0
(g23
g2
Ntp1394
Rp1395
(dp1396
g27
(dp1397
g29
Vtheory
p1398
sg31
VO
p1399
sg33
VNN
p1400
sg35
I2
ssg10
I136
sg36
g4
sg37
(dp1401
sg39
(dp1402
sg41
I755
sg42
g21
sg43
g21
sg44
I136
sg45
Vtheory
p1403
sg47
I136
sg48
I761
sbag0
(g23
g2
Ntp1404
Rp1405
(dp1406
g27
(dp1407
g29
Vbe
p1408
sg31
VO
p1409
sg33
VVBZ
p1410
sg35
I3
ssg10
I137
sg36
g4
sg37
(dp1411
sg39
(dp1412
sg41
I762
sg42
g21
sg43
g21
sg44
I137
sg45
Vis
p1413
sg47
I137
sg48
I764
sbag0
(g23
g2
Ntp1414
Rp1415
(dp1416
g27
(dp1417
g29
Vthat
p1418
sg31
VO
p1419
sg33
VIN
p1420
sg35
I4
ssg10
I138
sg36
g4
sg37
(dp1421
sg39
(dp1422
sg41
I765
sg42
g21
sg43
g21
sg44
I138
sg45
Vthat
p1423
sg47
I138
sg48
I769
sbag0
(g23
g2
Ntp1424
Rp1425
(dp1426
g27
(dp1427
g29
Vmulticulturalism
p1428
sg31
VO
p1429
sg33
VNN
p1430
sg35
I5
ssg10
I139
sg36
g4
sg37
(dp1431
sg39
(dp1432
sg41
I770
sg42
g21
sg43
g21
sg44
I139
sg45
Vmulticulturalism
p1433
sg47
I139
sg48
I786
sbag0
(g23
g2
Ntp1434
Rp1435
(dp1436
g27
(dp1437
g29
Vhave
p1438
sg31
VO
p1439
sg33
VVBZ
p1440
sg35
I6
ssg10
I140
sg36
g4
sg37
(dp1441
sg39
(dp1442
sg41
I787
sg42
g21
sg43
g21
sg44
I140
sg45
Vhas
p1443
sg47
I140
sg48
I790
sbag0
(g23
g2
Ntp1444
Rp1445
(dp1446
g27
(dp1447
g29
Vshift
p1448
sg31
VO
p1449
sg33
VVBN
p1450
sg35
I7
ssg10
I141
sg36
g4
sg37
(dp1451
sg39
(dp1452
sg41
I791
sg42
g21
sg43
g21
sg44
I141
sg45
Vshifted
p1453
sg47
I141
sg48
I798
sbag0
(g23
g2
Ntp1454
Rp1455
(dp1456
g27
(dp1457
g29
Vfrom
p1458
sg31
VO
p1459
sg33
VIN
p1460
sg35
I8
ssg10
I142
sg36
g4
sg37
(dp1461
sg39
(dp1462
sg41
I799
sg42
g21
sg43
g21
sg44
I142
sg45
Vfrom
p1463
sg47
I142
sg48
I803
sbag0
(g23
g2
Ntp1464
Rp1465
(dp1466
g27
(dp1467
g29
Vtolerate
p1468
sg31
VO
p1469
sg33
VVBG
p1470
sg35
I9
ssg10
I143
sg36
g4
sg37
(dp1471
sg39
(dp1472
sg41
I804
sg42
g21
sg43
g21
sg44
I143
sg45
Vtolerating
p1473
sg47
I143
sg48
I814
sbag0
(g23
g2
Ntp1474
Rp1475
(dp1476
g27
(dp1477
g29
Vmultiple
p1478
sg31
VO
p1479
sg33
VJJ
p1480
sg35
I10
ssg10
I144
sg36
g4
sg37
(dp1481
sg39
(dp1482
sg41
I815
sg42
g21
sg43
g21
sg44
I144
sg45
Vmultiple
p1483
sg47
I144
sg48
I823
sbag0
(g23
g2
Ntp1484
Rp1485
(dp1486
g27
(dp1487
g29
Vculture
p1488
sg31
VO
p1489
sg33
VNNS
p1490
sg35
I11
ssg10
I145
sg36
g4
sg37
(dp1491
sg39
(dp1492
sg41
I824
sg42
g21
sg43
g21
sg44
I145
sg45
Vcultures
p1493
sg47
I145
sg48
I832
sbag0
(g23
g2
Ntp1494
Rp1495
(dp1496
g27
(dp1497
g29
Vto
p1498
sg31
VO
p1499
sg33
VTO
p1500
sg35
I12
ssg10
I146
sg36
g4
sg37
(dp1501
sg39
(dp1502
sg41
I833
sg42
g21
sg43
g21
sg44
I146
sg45
Vto
p1503
sg47
I146
sg48
I835
sbag0
(g23
g2
Ntp1504
Rp1505
(dp1506
g27
(dp1507
g29
Vtolerate
p1508
sg31
VO
p1509
sg33
VVBG
p1510
sg35
I13
ssg10
I147
sg36
g4
sg37
(dp1511
sg39
(dp1512
sg41
I836
sg42
g21
sg43
g21
sg44
I147
sg45
Vtolerating
p1513
sg47
I147
sg48
I846
sbag0
(g23
g2
Ntp1514
Rp1515
(dp1516
g27
(dp1517
g29
Vmultiple
p1518
sg31
VO
p1519
sg33
VJJ
p1520
sg35
I14
ssg10
I148
sg36
g4
sg37
(dp1521
sg39
(dp1522
sg41
I847
sg42
g21
sg43
g21
sg44
I148
sg45
Vmultiple
p1523
sg47
I148
sg48
I855
sbag0
(g23
g2
Ntp1524
Rp1525
(dp1526
g27
(dp1527
g29
Vvalue
p1528
sg31
VO
p1529
sg33
VNN
p1530
sg35
I15
ssg10
I149
sg36
g4
sg37
(dp1531
sg39
(dp1532
sg41
I856
sg42
g21
sg43
g21
sg44
I149
sg45
Vvalue
p1533
sg47
I149
sg48
I861
sbag0
(g23
g2
Ntp1534
Rp1535
(dp1536
g27
(dp1537
g29
Vsystem
p1538
sg31
VO
p1539
sg33
VNNS
p1540
sg35
I16
ssg10
I150
sg36
g4
sg37
(dp1541
sg39
(dp1542
sg41
I862
sg42
g21
sg43
g21
sg44
I150
sg45
Vsystems
p1543
sg47
I150
sg48
I869
sbag0
(g23
g2
Ntp1544
Rp1545
(dp1546
g27
(dp1547
g29
V,
p1548
sg31
VO
p1549
sg33
V,
p1550
sg35
I17
ssg10
I151
sg36
g4
sg37
(dp1551
sg39
(dp1552
sg41
I869
sg42
g21
sg43
g21
sg44
I151
sg45
V,
p1553
sg47
I151
sg48
I870
sbag0
(g23
g2
Ntp1554
Rp1555
(dp1556
g27
(dp1557
g29
Vwhich
p1558
sg31
VO
p1559
sg33
VWDT
p1560
sg35
I18
ssg10
I152
sg36
g4
sg37
(dp1561
sg39
(dp1562
sg41
I871
sg42
g21
sg43
g21
sg44
I152
sg45
Vwhich
p1563
sg47
I152
sg48
I876
sbag0
(g23
g2
Ntp1564
Rp1565
(dp1566
g27
(dp1567
g29
Vcan
p1568
sg31
VO
p1569
sg33
VMD
p1570
sg35
I19
ssg10
I153
sg36
g4
sg37
(dp1571
sg39
(dp1572
sg41
I877
sg42
g21
sg43
g21
sg44
I153
sg45
Vcan
p1573
sg47
I153
sg48
I880
sbag0
(g23
g2
Ntp1574
Rp1575
(dp1576
g27
(dp1577
g29
Vbe
p1578
sg31
VO
p1579
sg33
VVB
p1580
sg35
I20
ssg10
I154
sg36
g4
sg37
(dp1581
sg39
(dp1582
sg41
I881
sg42
g21
sg43
g21
sg44
I154
sg45
Vbe
p1583
sg47
I154
sg48
I883
sbag0
(g23
g2
Ntp1584
Rp1585
(dp1586
g27
(dp1587
g29
Vhostile
p1588
sg31
VO
p1589
sg33
VJJ
p1590
sg35
I21
ssg10
I155
sg36
g4
sg37
(dp1591
sg39
(dp1592
sg41
I884
sg42
g21
sg43
g21
sg44
I155
sg45
Vhostile
p1593
sg47
I155
sg48
I891
sbag0
(g23
g2
Ntp1594
Rp1595
(dp1596
g27
(dp1597
g29
Vto
p1598
sg31
VO
p1599
sg33
VTO
p1600
sg35
I22
ssg10
I156
sg36
g4
sg37
(dp1601
sg39
(dp1602
sg41
I892
sg42
g21
sg43
g21
sg44
I156
sg45
Vto
p1603
sg47
I156
sg48
I894
sbag0
(g23
g2
Ntp1604
Rp1605
(dp1606
g27
(dp1607
g29
Vliberalism
p1608
sg31
VO
p1609
sg33
VNN
p1610
sg35
I23
ssg10
I157
sg36
g4
sg37
(dp1611
sg39
(dp1612
sg41
I895
sg42
g21
sg43
g21
sg44
I157
sg45
Vliberalism
p1613
sg47
I157
sg48
I905
sbag0
(g23
g2
Ntp1614
Rp1615
(dp1616
g27
(dp1617
g29
V-lsb-
p1618
sg31
VO
p1619
sg33
V-LRB-
p1620
sg35
I24
ssg10
I158
sg36
g4
sg37
(dp1621
sg39
(dp1622
sg41
I906
sg42
g21
sg43
g21
sg44
I158
sg45
V[
p1623
sg47
I158
sg48
I907
sbag0
(g23
g2
Ntp1624
Rp1625
(dp1626
g27
(dp1627
g29
Vref
p1628
sg31
VO
p1629
sg33
VNN
p1630
sg35
I25
ssg10
I159
sg36
g4
sg37
(dp1631
sg39
(dp1632
sg41
I907
sg42
g21
sg43
g21
sg44
I159
sg45
VREF
p1633
sg47
I159
sg48
I910
sbag0
(g23
g2
Ntp1634
Rp1635
(dp1636
g27
(dp1637
g29
V-rsb-
p1638
sg31
VO
p1639
sg33
V-RRB-
p1640
sg35
I26
ssg10
I160
sg36
g4
sg37
(dp1641
sg39
(dp1642
sg41
I910
sg42
g21
sg43
g21
sg44
I160
sg45
V]
p1643
sg47
I160
sg48
I911
sbag0
(g23
g2
Ntp1644
Rp1645
(dp1646
g27
(dp1647
g29
V.
p1648
sg31
VO
p1649
sg33
V.
p1650
sg35
I27
ssg10
I161
sg36
g4
sg37
(dp1651
sg39
(dp1652
sg41
I911
sg42
g21
sg43
g21
sg44
I161
sg45
V.
p1653
sg47
I161
sg48
I912
sbag0
(g23
g2
Ntp1654
Rp1655
(dp1656
g27
(dp1657
g29
VCameron
p1658
sg31
VPERSON
p1659
sg33
VNNP
p1660
sg35
I1
ssg10
I162
sg36
g4
sg37
(dp1661
sg39
(dp1662
sg41
I915
sg42
g21
sg43
g21
sg44
I162
sg45
VCameron
p1663
sg47
I162
sg48
I922
sbag0
(g23
g2
Ntp1664
Rp1665
(dp1666
g27
(dp1667
g29
Vdeliver
p1668
sg31
VO
p1669
sg33
VVBD
p1670
sg35
I2
ssg10
I163
sg36
g4
sg37
(dp1671
sg39
(dp1672
sg41
I923
sg42
g21
sg43
g21
sg44
I163
sg45
Vdelivered
p1673
sg47
I163
sg48
I932
sbag0
(g23
g2
Ntp1674
Rp1675
(dp1676
g27
(dp1677
g29
Vthese
p1678
sg31
VO
p1679
sg33
VDT
p1680
sg35
I3
ssg10
I164
sg36
g4
sg37
(dp1681
sg39
(dp1682
sg41
I933
sg42
g21
sg43
g21
sg44
I164
sg45
Vthese
p1683
sg47
I164
sg48
I938
sbag0
(g23
g2
Ntp1684
Rp1685
(dp1686
g27
(dp1687
g29
Vprinciple
p1688
sg31
VO
p1689
sg33
VNNS
p1690
sg35
I4
ssg10
I165
sg36
g4
sg37
(dp1691
sg39
(dp1692
sg41
I939
sg42
g21
sg43
g21
sg44
I165
sg45
Vprinciples
p1693
sg47
I165
sg48
I949
sbag0
(g23
g2
Ntp1694
Rp1695
(dp1696
g27
(dp1697
g29
Vduring
p1698
sg31
VO
p1699
sg33
VIN
p1700
sg35
I5
ssg10
I166
sg36
g4
sg37
(dp1701
sg39
(dp1702
sg41
I950
sg42
g21
sg43
g21
sg44
I166
sg45
Vduring
p1703
sg47
I166
sg48
I956
sbag0
(g23
g2
Ntp1704
Rp1705
(dp1706
g27
(dp1707
g29
Va
p1708
sg31
VO
p1709
sg33
VDT
p1710
sg35
I6
ssg10
I167
sg36
g4
sg37
(dp1711
sg39
(dp1712
sg41
I957
sg42
g21
sg43
g21
sg44
I167
sg45
Va
p1713
sg47
I167
sg48
I958
sbag0
(g23
g2
Ntp1714
Rp1715
(dp1716
g27
(dp1717
g29
Vspeech
p1718
sg31
VO
p1719
sg33
VNN
p1720
sg35
I7
ssg10
I168
sg36
g4
sg37
(dp1721
sg39
(dp1722
sg41
I959
sg42
g21
sg43
g21
sg44
I168
sg45
Vspeech
p1723
sg47
I168
sg48
I965
sbag0
(g23
g2
Ntp1724
Rp1725
(dp1726
g27
(dp1727
g29
Von
p1728
sg31
VO
p1729
sg33
VIN
p1730
sg35
I8
ssg10
I169
sg36
g4
sg37
(dp1731
sg39
(dp1732
sg41
I966
sg42
g21
sg43
g21
sg44
I169
sg45
Von
p1733
sg47
I169
sg48
I968
sbag0
(g23
g2
Ntp1734
Rp1735
(dp1736
g27
(dp1737
g29
Vradicalization
p1738
sg31
VMISC
p1739
sg33
VNN
p1740
sg35
I9
ssg10
I170
sg36
g4
sg37
(dp1741
sg39
(dp1742
sg41
I969
sg42
g21
sg43
g21
sg44
I170
sg45
VRadicalization
p1743
sg47
I170
sg48
I983
sbag0
(g23
g2
Ntp1744
Rp1745
(dp1746
g27
(dp1747
g29
Vand
p1748
sg31
VO
p1749
sg33
VCC
p1750
sg35
I10
ssg10
I171
sg36
g4
sg37
(dp1751
sg39
(dp1752
sg41
I984
sg42
g21
sg43
g21
sg44
I171
sg45
Vand
p1753
sg47
I171
sg48
I987
sbag0
(g23
g2
Ntp1754
Rp1755
(dp1756
g27
(dp1757
g29
Vthe
p1758
sg31
VO
p1759
sg33
VDT
p1760
sg35
I11
ssg10
I172
sg36
g4
sg37
(dp1761
sg39
(dp1762
sg41
I988
sg42
g21
sg43
g21
sg44
I172
sg45
Vthe
p1763
sg47
I172
sg48
I991
sbag0
(g23
g2
Ntp1764
Rp1765
(dp1766
g27
(dp1767
g29
Vcause
p1768
sg31
VO
p1769
sg33
VNNS
p1770
sg35
I12
ssg10
I173
sg36
g4
sg37
(dp1771
sg39
(dp1772
sg41
I992
sg42
g21
sg43
g21
sg44
I173
sg45
Vcauses
p1773
sg47
I173
sg48
I998
sbag0
(g23
g2
Ntp1774
Rp1775
(dp1776
g27
(dp1777
g29
Vof
p1778
sg31
VO
p1779
sg33
VIN
p1780
sg35
I13
ssg10
I174
sg36
g4
sg37
(dp1781
sg39
(dp1782
sg41
I999
sg42
g21
sg43
g21
sg44
I174
sg45
Vof
p1783
sg47
I174
sg48
I1001
sbag0
(g23
g2
Ntp1784
Rp1785
(dp1786
g27
(dp1787
g29
VTerrorism
p1788
sg31
VO
p1789
sg33
VNNP
p1790
sg35
I14
ssg10
I175
sg36
g4
sg37
(dp1791
sg39
(dp1792
sg41
I1003
sg42
g21
sg43
g21
sg44
I175
sg45
VTerrorism
p1793
sg47
I175
sg48
I1012
sbag0
(g23
g2
Ntp1794
Rp1795
(dp1796
g27
(dp1797
g29
Vat
p1798
sg31
VO
p1799
sg33
VIN
p1800
sg35
I15
ssg10
I176
sg36
g4
sg37
(dp1801
sg39
(dp1802
sg41
I1013
sg42
g21
sg43
g21
sg44
I176
sg45
Vat
p1803
sg47
I176
sg48
I1015
sbag0
(g23
g2
Ntp1804
Rp1805
(dp1806
g27
(dp1807
g29
VEuropean
p1808
sg31
VORGANIZATION
p1809
sg33
VNNP
p1810
sg35
I16
ssg10
I177
sg36
g4
sg37
(dp1811
sg39
(dp1812
sg41
I1016
sg42
g21
sg43
g21
sg44
I177
sg45
VEuropean
p1813
sg47
I177
sg48
I1024
sbag0
(g23
g2
Ntp1814
Rp1815
(dp1816
g27
(dp1817
g29
VUnion
p1818
sg31
VORGANIZATION
p1819
sg33
VNNP
p1820
sg35
I17
ssg10
I178
sg36
g4
sg37
(dp1821
sg39
(dp1822
sg41
I1025
sg42
g21
sg43
g21
sg44
I178
sg45
VUnion
p1823
sg47
I178
sg48
I1030
sbag0
(g23
g2
Ntp1824
Rp1825
(dp1826
g27
(dp1827
g29
Vinternational
p1828
sg31
VO
p1829
sg33
VJJ
p1830
sg35
I18
ssg10
I179
sg36
g4
sg37
(dp1831
sg39
(dp1832
sg41
I1031
sg42
g21
sg43
g21
sg44
I179
sg45
Vinternational
p1833
sg47
I179
sg48
I1044
sbag0
(g23
g2
Ntp1834
Rp1835
(dp1836
g27
(dp1837
g29
Vconference
p1838
sg31
VO
p1839
sg33
VNN
p1840
sg35
I19
ssg10
I180
sg36
g4
sg37
(dp1841
sg39
(dp1842
sg41
I1045
sg42
g21
sg43
g21
sg44
I180
sg45
Vconference
p1843
sg47
I180
sg48
I1055
sbag0
(g23
g2
Ntp1844
Rp1845
(dp1846
g27
(dp1847
g29
Von
p1848
sg31
VO
p1849
sg33
VIN
p1850
sg35
I20
ssg10
I181
sg36
g4
sg37
(dp1851
sg39
(dp1852
sg41
I1046
sg42
g21
sg43
g21
sg44
I181
sg45
Von
p1853
sg47
I181
sg48
I1048
sbag0
(g23
g2
Ntp1854
Rp1855
(dp1856
g27
(dp1857
g29
Vsecurity
p1858
sg31
VO
p1859
sg33
VNN
p1860
sg35
I21
ssg10
I182
sg36
g4
sg37
(dp1861
sg39
(dp1862
sg41
I1059
sg42
g21
sg43
g21
sg44
I182
sg45
VSecurity
p1863
sg47
I182
sg48
I1067
sbag0
(g23
g2
Ntp1864
Rp1865
(dp1866
g27
(dp1867
g29
Vpolicy
p1868
sg31
VO
p1869
sg33
VNN
p1870
sg35
I22
ssg10
I183
sg36
g4
sg37
(dp1871
sg39
(dp1872
sg41
I1068
sg42
g21
sg43
g21
sg44
I183
sg45
VPolicy
p1873
sg47
I183
sg48
I1074
sbag0
(g23
g2
Ntp1874
Rp1875
(dp1876
g27
(dp1877
g29
Vin
p1878
sg31
VO
p1879
sg33
VIN
p1880
sg35
I23
ssg10
I184
sg36
g4
sg37
(dp1881
sg39
(dp1882
sg41
I1075
sg42
g21
sg43
g21
sg44
I184
sg45
Vin
p1883
sg47
I184
sg48
I1077
sbag0
(g23
g2
Ntp1884
Rp1885
(dp1886
g27
(dp1887
g29
VMunich
p1888
sg31
VLOCATION
p1889
sg33
VNNP
p1890
sg35
I24
ssg10
I185
sg36
g4
sg37
(dp1891
sg39
(dp1892
sg41
I1078
sg42
g21
sg43
g21
sg44
I185
sg45
VMunich
p1893
sg47
I185
sg48
I1084
sbag0
(g23
g2
Ntp1894
Rp1895
(dp1896
g27
(dp1897
g29
Vto
p1898
sg31
VO
p1899
sg33
VTO
p1900
sg35
I25
ssg10
I186
sg36
g4
sg37
(dp1901
sg39
(dp1902
sg41
I1085
sg42
g21
sg43
g21
sg44
I186
sg45
Vto
p1903
sg47
I186
sg48
I1087
sbag0
(g23
g2
Ntp1904
Rp1905
(dp1906
g27
(dp1907
g29
Vtackle
p1908
sg31
VO
p1909
sg33
VVB
p1910
sg35
I26
ssg10
I187
sg36
g4
sg37
(dp1911
sg39
(dp1912
sg41
I1088
sg42
g21
sg43
g21
sg44
I187
sg45
Vtackle
p1913
sg47
I187
sg48
I1094
sbag0
(g23
g2
Ntp1914
Rp1915
(dp1916
g27
(dp1917
g29
Vgrow
p1918
sg31
VO
p1919
sg33
VVBG
p1920
sg35
I27
ssg10
I188
sg36
g4
sg37
(dp1921
sg39
(dp1922
sg41
I1095
sg42
g21
sg43
g21
sg44
I188
sg45
Vgrowing
p1923
sg47
I188
sg48
I1102
sbag0
(g23
g2
Ntp1924
Rp1925
(dp1926
g27
(dp1927
g29
Vterrorism
p1928
sg31
VO
p1929
sg33
VNN
p1930
sg35
I28
ssg10
I189
sg36
g4
sg37
(dp1931
sg39
(dp1932
sg41
I1103
sg42
g21
sg43
g21
sg44
I189
sg45
Vterrorism
p1933
sg47
I189
sg48
I1112
sbag0
(g23
g2
Ntp1934
Rp1935
(dp1936
g27
(dp1937
g29
Vso
p1938
sg31
VO
p1939
sg33
VRB
p1940
sg35
I29
ssg10
I190
sg36
g4
sg37
(dp1941
sg39
(dp1942
sg41
I1113
sg42
g21
sg43
g21
sg44
I190
sg45
Vso
p1943
sg47
I190
sg48
I1115
sbag0
(g23
g2
Ntp1944
Rp1945
(dp1946
g27
(dp1947
g29
Vas
p1948
sg31
VO
p1949
sg33
VIN
p1950
sg35
I30
ssg10
I191
sg36
g4
sg37
(dp1951
sg39
(dp1952
sg41
I1116
sg42
g21
sg43
g21
sg44
I191
sg45
Vas
p1953
sg47
I191
sg48
I1118
sbag0
(g23
g2
Ntp1954
Rp1955
(dp1956
g27
(dp1957
g29
Vto
p1958
sg31
VO
p1959
sg33
VTO
p1960
sg35
I31
ssg10
I192
sg36
g4
sg37
(dp1961
sg39
(dp1962
sg41
I1119
sg42
g21
sg43
g21
sg44
I192
sg45
Vto
p1963
sg47
I192
sg48
I1121
sbag0
(g23
g2
Ntp1964
Rp1965
(dp1966
g27
(dp1967
g29
Vbe
p1968
sg31
VO
p1969
sg33
VVB
p1970
sg35
I32
ssg10
I193
sg36
g4
sg37
(dp1971
sg39
(dp1972
sg41
I1122
sg42
g21
sg43
g21
sg44
I193
sg45
Vbe
p1973
sg47
I193
sg48
I1124
sbag0
(g23
g2
Ntp1974
Rp1975
(dp1976
g27
(dp1977
g29
Vless
p1978
sg31
VO
p1979
sg33
VRBR
p1980
sg35
I33
ssg10
I194
sg36
g4
sg37
(dp1981
sg39
(dp1982
sg41
I1125
sg42
g21
sg43
g21
sg44
I194
sg45
Vless
p1983
sg47
I194
sg48
I1129
sbag0
(g23
g2
Ntp1984
Rp1985
(dp1986
g27
(dp1987
g29
Vpassive
p1988
sg31
VO
p1989
sg33
VJJ
p1990
sg35
I34
ssg10
I195
sg36
g4
sg37
(dp1991
sg39
(dp1992
sg41
I1130
sg42
g21
sg43
g21
sg44
I195
sg45
Vpassive
p1993
sg47
I195
sg48
I1137
sbag0
(g23
g2
Ntp1994
Rp1995
(dp1996
g27
(dp1997
g29
Vtowards
p1998
sg31
VO
p1999
sg33
VIN
p2000
sg35
I35
ssg10
I196
sg36
g4
sg37
(dp2001
sg39
(dp2002
sg41
I1138
sg42
g21
sg43
g21
sg44
I196
sg45
Vtowards
p2003
sg47
I196
sg48
I1145
sbag0
(g23
g2
Ntp2004
Rp2005
(dp2006
g27
(dp2007
g29
Vreligious
p2008
sg31
VO
p2009
sg33
VJJ
p2010
sg35
I36
ssg10
I197
sg36
g4
sg37
(dp2011
sg39
(dp2012
sg41
I1146
sg42
g21
sg43
g21
sg44
I197
sg45
Vreligious
p2013
sg47
I197
sg48
I1155
sbag0
(g23
g2
Ntp2014
Rp2015
(dp2016
g27
(dp2017
g29
Vhate
p2018
sg31
VO
p2019
sg33
VNN
p2020
sg35
I37
ssg10
I198
sg36
g4
sg37
(dp2021
sg39
(dp2022
sg41
I1156
sg42
g21
sg43
g21
sg44
I198
sg45
Vhate
p2023
sg47
I198
sg48
I1160
sbag0
(g23
g2
Ntp2024
Rp2025
(dp2026
g27
(dp2027
g29
Vand
p2028
sg31
VO
p2029
sg33
VCC
p2030
sg35
I38
ssg10
I199
sg36
g4
sg37
(dp2031
sg39
(dp2032
sg41
I1161
sg42
g21
sg43
g21
sg44
I199
sg45
Vand
p2033
sg47
I199
sg48
I1164
sbag0
(g23
g2
Ntp2034
Rp2035
(dp2036
g27
(dp2037
g29
Vwhip
p2038
sg31
VO
p2039
sg33
VNN
p2040
sg35
I39
ssg10
I200
sg36
g4
sg37
(dp2041
sg39
(dp2042
sg41
I1165
sg42
g21
sg43
g21
sg44
I200
sg45
Vwhip
p2043
sg47
I200
sg48
I1169
sbag0
(g23
g2
Ntp2044
Rp2045
(dp2046
g27
(dp2047
g29
Vagainst
p2048
sg31
VO
p2049
sg33
VIN
p2050
sg35
I40
ssg10
I201
sg36
g4
sg37
(dp2051
sg39
(dp2052
sg41
I1171
sg42
g21
sg43
g21
sg44
I201
sg45
Vagainst
p2053
sg47
I201
sg48
I1178
sbag0
(g23
g2
Ntp2054
Rp2055
(dp2056
g27
(dp2057
g29
Vgrow
p2058
sg31
VO
p2059
sg33
VVBG
p2060
sg35
I41
ssg10
I202
sg36
g4
sg37
(dp2061
sg39
(dp2062
sg41
I1179
sg42
g21
sg43
g21
sg44
I202
sg45
Vgrowing
p2063
sg47
I202
sg48
I1186
sbag0
(g23
g2
Ntp2064
Rp2065
(dp2066
g27
(dp2067
g29
Vextremist
p2068
sg31
VO
p2069
sg33
VNN
p2070
sg35
I42
ssg10
I203
sg36
g4
sg37
(dp2071
sg39
(dp2072
sg41
I1187
sg42
g21
sg43
g21
sg44
I203
sg45
Vextremist
p2073
sg47
I203
sg48
I1196
sbag0
(g23
g2
Ntp2074
Rp2075
(dp2076
g27
(dp2077
g29
Vactivist
p2078
sg31
VO
p2079
sg33
VNNS
p2080
sg35
I43
ssg10
I204
sg36
g4
sg37
(dp2081
sg39
(dp2082
sg41
I1197
sg42
g21
sg43
g21
sg44
I204
sg45
Vactivists
p2083
sg47
I204
sg48
I1206
sbag0
(g23
g2
Ntp2084
Rp2085
(dp2086
g27
(dp2087
g29
Vthrough
p2088
sg31
VO
p2089
sg33
VIN
p2090
sg35
I44
ssg10
I205
sg36
g4
sg37
(dp2091
sg39
(dp2092
sg41
I1207
sg42
g21
sg43
g21
sg44
I205
sg45
Vthrough
p2093
sg47
I205
sg48
I1214
sbag0
(g23
g2
Ntp2094
Rp2095
(dp2096
g27
(dp2097
g29
Vmuscular
p2098
sg31
VO
p2099
sg33
VJJ
p2100
sg35
I45
ssg10
I206
sg36
g4
sg37
(dp2101
sg39
(dp2102
sg41
I1215
sg42
g21
sg43
g21
sg44
I206
sg45
VMuscular
p2103
sg47
I206
sg48
I1223
sbag0
(g23
g2
Ntp2104
Rp2105
(dp2106
g27
(dp2107
g29
Vliberalism
p2108
sg31
VO
p2109
sg33
VNN
p2110
sg35
I46
ssg10
I207
sg36
g4
sg37
(dp2111
sg39
(dp2112
sg41
I1224
sg42
g21
sg43
g21
sg44
I207
sg45
VLiberalism
p2113
sg47
I207
sg48
I1234
sbag0
(g23
g2
Ntp2114
Rp2115
(dp2116
g27
(dp2117
g29
V.
p2118
sg31
VO
p2119
sg33
V.
p2120
sg35
I47
ssg10
I208
sg36
g4
sg37
(dp2121
sg39
(dp2122
sg41
I1234
sg42
g21
sg43
g21
sg44
I208
sg45
V.
p2123
sg47
I208
sg48
I1235
sbag0
(g23
g2
Ntp2124
Rp2125
(dp2126
g27
(dp2127
g29
Vban
p2128
sg31
VO
p2129
sg33
VNN
p2130
sg35
I1
ssg10
I209
sg36
g4
sg37
(dp2131
sg39
(dp2132
sg41
I1237
sg42
g21
sg43
g21
sg44
I209
sg45
VBan
p2133
sg47
I209
sg48
I1240
sbag0
(g23
g2
Ntp2134
Rp2135
(dp2136
g27
(dp2137
g29
Vpreacher
p2138
sg31
VO
p2139
sg33
VNNS
p2140
sg35
I2
ssg10
I210
sg36
g4
sg37
(dp2141
sg39
(dp2142
sg41
I1241
sg42
g21
sg43
g21
sg44
I210
sg45
Vpreachers
p2143
sg47
I210
sg48
I1250
sbag0
(g23
g2
Ntp2144
Rp2145
(dp2146
g27
(dp2147
g29
Vof
p2148
sg31
VO
p2149
sg33
VIN
p2150
sg35
I3
ssg10
I211
sg36
g4
sg37
(dp2151
sg39
(dp2152
sg41
I1251
sg42
g21
sg43
g21
sg44
I211
sg45
Vof
p2153
sg47
I211
sg48
I1253
sbag0
(g23
g2
Ntp2154
Rp2155
(dp2156
g27
(dp2157
g29
Vhate
p2158
sg31
VO
p2159
sg33
VNN
p2160
sg35
I4
ssg10
I212
sg36
g4
sg37
(dp2161
sg39
(dp2162
sg41
I1254
sg42
g21
sg43
g21
sg44
I212
sg45
Vhate
p2163
sg47
I212
sg48
I1258
sbag0
(g23
g2
Ntp2164
Rp2165
(dp2166
g27
(dp2167
g29
Vfrom
p2168
sg31
VO
p2169
sg33
VIN
p2170
sg35
I5
ssg10
I213
sg36
g4
sg37
(dp2171
sg39
(dp2172
sg41
I1259
sg42
g21
sg43
g21
sg44
I213
sg45
Vfrom
p2173
sg47
I213
sg48
I1263
sbag0
(g23
g2
Ntp2174
Rp2175
(dp2176
g27
(dp2177
g29
Vcome
p2178
sg31
VO
p2179
sg33
VVBG
p2180
sg35
I6
ssg10
I214
sg36
g4
sg37
(dp2181
sg39
(dp2182
sg41
I1264
sg42
g21
sg43
g21
sg44
I214
sg45
Vcoming
p2183
sg47
I214
sg48
I1270
sbag0
(g23
g2
Ntp2184
Rp2185
(dp2186
g27
(dp2187
g29
Vto
p2188
sg31
VO
p2189
sg33
VTO
p2190
sg35
I7
ssg10
I215
sg36
g4
sg37
(dp2191
sg39
(dp2192
sg41
I1271
sg42
g21
sg43
g21
sg44
I215
sg45
Vto
p2193
sg47
I215
sg48
I1273
sbag0
(g23
g2
Ntp2194
Rp2195
(dp2196
g27
(dp2197
g29
Vthe
p2198
sg31
VO
p2199
sg33
VDT
p2200
sg35
I8
ssg10
I216
sg36
g4
sg37
(dp2201
sg39
(dp2202
sg41
I1274
sg42
g21
sg43
g21
sg44
I216
sg45
Vthe
p2203
sg47
I216
sg48
I1277
sbag0
(g23
g2
Ntp2204
Rp2205
(dp2206
g27
(dp2207
g29
Vhost
p2208
sg31
VO
p2209
sg33
VNN
p2210
sg35
I9
ssg10
I217
sg36
g4
sg37
(dp2211
sg39
(dp2212
sg41
I1278
sg42
g21
sg43
g21
sg44
I217
sg45
Vhost
p2213
sg47
I217
sg48
I1282
sbag0
(g23
g2
Ntp2214
Rp2215
(dp2216
g27
(dp2217
g29
Vcountry
p2218
sg31
VO
p2219
sg33
VNN
p2220
sg35
I10
ssg10
I218
sg36
g4
sg37
(dp2221
sg39
(dp2222
sg41
I1283
sg42
g21
sg43
g21
sg44
I218
sg45
Vcountry
p2223
sg47
I218
sg48
I1290
sbag0
(g23
g2
Ntp2224
Rp2225
(dp2226
g27
(dp2227
g29
V.
p2228
sg31
VO
p2229
sg33
V.
p2230
sg35
I11
ssg10
I219
sg36
g4
sg37
(dp2231
sg39
(dp2232
sg41
I1290
sg42
g21
sg43
g21
sg44
I219
sg45
V.
p2233
sg47
I219
sg48
I1291
sbag0
(g23
g2
Ntp2234
Rp2235
(dp2236
g27
(dp2237
g29
Vstrictly
p2238
sg31
VO
p2239
sg33
VRB
p2240
sg35
I1
ssg10
I220
sg36
g4
sg37
(dp2241
sg39
(dp2242
sg41
I1293
sg42
g21
sg43
g21
sg44
I220
sg45
VStrictly
p2243
sg47
I220
sg48
I1301
sbag0
(g23
g2
Ntp2244
Rp2245
(dp2246
g27
(dp2247
g29
Vprevent
p2248
sg31
VO
p2249
sg33
VVB
p2250
sg35
I2
ssg10
I221
sg36
g4
sg37
(dp2251
sg39
(dp2252
sg41
I1302
sg42
g21
sg43
g21
sg44
I221
sg45
Vprevent
p2253
sg47
I221
sg48
I1309
sbag0
(g23
g2
Ntp2254
Rp2255
(dp2256
g27
(dp2257
g29
Vthe
p2258
sg31
VO
p2259
sg33
VDT
p2260
sg35
I3
ssg10
I222
sg36
g4
sg37
(dp2261
sg39
(dp2262
sg41
I1310
sg42
g21
sg43
g21
sg44
I222
sg45
Vthe
p2263
sg47
I222
sg48
I1313
sbag0
(g23
g2
Ntp2264
Rp2265
(dp2266
g27
(dp2267
g29
Vallocation
p2268
sg31
VO
p2269
sg33
VNN
p2270
sg35
I4
ssg10
I223
sg36
g4
sg37
(dp2271
sg39
(dp2272
sg41
I1314
sg42
g21
sg43
g21
sg44
I223
sg45
Vallocation
p2273
sg47
I223
sg48
I1324
sbag0
(g23
g2
Ntp2274
Rp2275
(dp2276
g27
(dp2277
g29
Vof
p2278
sg31
VO
p2279
sg33
VIN
p2280
sg35
I5
ssg10
I224
sg36
g4
sg37
(dp2281
sg39
(dp2282
sg41
I1325
sg42
g21
sg43
g21
sg44
I224
sg45
Vof
p2283
sg47
I224
sg48
I1327
sbag0
(g23
g2
Ntp2284
Rp2285
(dp2286
g27
(dp2287
g29
Vpublic
p2288
sg31
VO
p2289
sg33
VJJ
p2290
sg35
I6
ssg10
I225
sg36
g4
sg37
(dp2291
sg39
(dp2292
sg41
I1328
sg42
g21
sg43
g21
sg44
I225
sg45
Vpublic
p2293
sg47
I225
sg48
I1334
sbag0
(g23
g2
Ntp2294
Rp2295
(dp2296
g27
(dp2297
g29
Vmoney
p2298
sg31
VO
p2299
sg33
VNN
p2300
sg35
I7
ssg10
I226
sg36
g4
sg37
(dp2301
sg39
(dp2302
sg41
I1335
sg42
g21
sg43
g21
sg44
I226
sg45
Vmoney
p2303
sg47
I226
sg48
I1340
sbag0
(g23
g2
Ntp2304
Rp2305
(dp2306
g27
(dp2307
g29
Vand
p2308
sg31
VO
p2309
sg33
VCC
p2310
sg35
I8
ssg10
I227
sg36
g4
sg37
(dp2311
sg39
(dp2312
sg41
I1341
sg42
g21
sg43
g21
sg44
I227
sg45
Vand
p2313
sg47
I227
sg48
I1344
sbag0
(g23
g2
Ntp2314
Rp2315
(dp2316
g27
(dp2317
g29
Vdonation
p2318
sg31
VO
p2319
sg33
VNNS
p2320
sg35
I9
ssg10
I228
sg36
g4
sg37
(dp2321
sg39
(dp2322
sg41
I1345
sg42
g21
sg43
g21
sg44
I228
sg45
Vdonations
p2323
sg47
I228
sg48
I1354
sbag0
(g23
g2
Ntp2324
Rp2325
(dp2326
g27
(dp2327
g29
Vto
p2328
sg31
VO
p2329
sg33
VTO
p2330
sg35
I10
ssg10
I229
sg36
g4
sg37
(dp2331
sg39
(dp2332
sg41
I1355
sg42
g21
sg43
g21
sg44
I229
sg45
Vto
p2333
sg47
I229
sg48
I1357
sbag0
(g23
g2
Ntp2334
Rp2335
(dp2336
g27
(dp2337
g29
Vgroup
p2338
sg31
VO
p2339
sg33
VNNS
p2340
sg35
I11
ssg10
I230
sg36
g4
sg37
(dp2341
sg39
(dp2342
sg41
I1358
sg42
g21
sg43
g21
sg44
I230
sg45
Vgroups
p2343
sg47
I230
sg48
I1364
sbag0
(g23
g2
Ntp2344
Rp2345
(dp2346
g27
(dp2347
g29
Vnot
p2348
sg31
VO
p2349
sg33
VRB
p2350
sg35
I12
ssg10
I231
sg36
g4
sg37
(dp2351
sg39
(dp2352
sg41
I1365
sg42
g21
sg43
g21
sg44
I231
sg45
Vnot
p2353
sg47
I231
sg48
I1368
sbag0
(g23
g2
Ntp2354
Rp2355
(dp2356
g27
(dp2357
g29
Vbe
p2358
sg31
VO
p2359
sg33
VVBG
p2360
sg35
I13
ssg10
I232
sg36
g4
sg37
(dp2361
sg39
(dp2362
sg41
I1369
sg42
g21
sg43
g21
sg44
I232
sg45
Vbeing
p2363
sg47
I232
sg48
I1374
sbag0
(g23
g2
Ntp2364
Rp2365
(dp2366
g27
(dp2367
g29
Vuse
p2368
sg31
VO
p2369
sg33
VVBN
p2370
sg35
I14
ssg10
I233
sg36
g4
sg37
(dp2371
sg39
(dp2372
sg41
I1375
sg42
g21
sg43
g21
sg44
I233
sg45
Vused
p2373
sg47
I233
sg48
I1379
sbag0
(g23
g2
Ntp2374
Rp2375
(dp2376
g27
(dp2377
g29
Vto
p2378
sg31
VO
p2379
sg33
VTO
p2380
sg35
I15
ssg10
I234
sg36
g4
sg37
(dp2381
sg39
(dp2382
sg41
I1380
sg42
g21
sg43
g21
sg44
I234
sg45
Vto
p2383
sg47
I234
sg48
I1382
sbag0
(g23
g2
Ntp2384
Rp2385
(dp2386
g27
(dp2387
g29
Vtackle
p2388
sg31
VO
p2389
sg33
VVB
p2390
sg35
I16
ssg10
I235
sg36
g4
sg37
(dp2391
sg39
(dp2392
sg41
I1383
sg42
g21
sg43
g21
sg44
I235
sg45
Vtackle
p2393
sg47
I235
sg48
I1389
sbag0
(g23
g2
Ntp2394
Rp2395
(dp2396
g27
(dp2397
g29
Vextremist
p2398
sg31
VO
p2399
sg33
VNNS
p2400
sg35
I17
ssg10
I236
sg36
g4
sg37
(dp2401
sg39
(dp2402
sg41
I1390
sg42
g21
sg43
g21
sg44
I236
sg45
Vextremists
p2403
sg47
I236
sg48
I1400
sbag0
(g23
g2
Ntp2404
Rp2405
(dp2406
g27
(dp2407
g29
V.
p2408
sg31
VO
p2409
sg33
V.
p2410
sg35
I18
ssg10
I237
sg36
g4
sg37
(dp2411
sg39
(dp2412
sg41
I1400
sg42
g21
sg43
g21
sg44
I237
sg45
V.
p2413
sg47
I237
sg48
I1401
sbag0
(g23
g2
Ntp2414
Rp2415
(dp2416
g27
(dp2417
g29
Vbar
p2418
sg31
VO
p2419
sg33
VVBG
p2420
sg35
I1
ssg10
I238
sg36
g4
sg37
(dp2421
sg39
(dp2422
sg41
I1403
sg42
g21
sg43
g21
sg44
I238
sg45
VBarring
p2423
sg47
I238
sg48
I1410
sbag0
(g23
g2
Ntp2424
Rp2425
(dp2426
g27
(dp2427
g29
Vorganisation
p2428
sg31
VO
p2429
sg33
VNNS
p2430
sg35
I2
ssg10
I239
sg36
g4
sg37
(dp2431
sg39
(dp2432
sg41
I1411
sg42
g21
sg43
g21
sg44
I239
sg45
Vorganisations
p2433
sg47
I239
sg48
I1424
sbag0
(g23
g2
Ntp2434
Rp2435
(dp2436
g27
(dp2437
g29
Vthat
p2438
sg31
VO
p2439
sg33
VWDT
p2440
sg35
I3
ssg10
I240
sg36
g4
sg37
(dp2441
sg39
(dp2442
sg41
I1425
sg42
g21
sg43
g21
sg44
I240
sg45
Vthat
p2443
sg47
I240
sg48
I1429
sbag0
(g23
g2
Ntp2444
Rp2445
(dp2446
g27
(dp2447
g29
Vincite
p2448
sg31
VO
p2449
sg33
VVBP
p2450
sg35
I4
ssg10
I241
sg36
g4
sg37
(dp2451
sg39
(dp2452
sg41
I1430
sg42
g21
sg43
g21
sg44
I241
sg45
Vincite
p2453
sg47
I241
sg48
I1436
sbag0
(g23
g2
Ntp2454
Rp2455
(dp2456
g27
(dp2457
g29
Vterrorism
p2458
sg31
VO
p2459
sg33
VNN
p2460
sg35
I5
ssg10
I242
sg36
g4
sg37
(dp2461
sg39
(dp2462
sg41
I1437
sg42
g21
sg43
g21
sg44
I242
sg45
Vterrorism
p2463
sg47
I242
sg48
I1446
sbag0
(g23
g2
Ntp2464
Rp2465
(dp2466
g27
(dp2467
g29
Vat
p2468
sg31
VO
p2469
sg33
VIN
p2470
sg35
I6
ssg10
I243
sg36
g4
sg37
(dp2471
sg39
(dp2472
sg41
I1447
sg42
g21
sg43
g21
sg44
I243
sg45
Vat
p2473
sg47
I243
sg48
I1449
sbag0
(g23
g2
Ntp2474
Rp2475
(dp2476
g27
(dp2477
g29
Vhost
p2478
sg31
VO
p2479
sg33
VNN
p2480
sg35
I7
ssg10
I244
sg36
g4
sg37
(dp2481
sg39
(dp2482
sg41
I1450
sg42
g21
sg43
g21
sg44
I244
sg45
Vhost
p2483
sg47
I244
sg48
I1454
sbag0
(g23
g2
Ntp2484
Rp2485
(dp2486
g27
(dp2487
g29
Vcountry
p2488
sg31
VO
p2489
sg33
VNN
p2490
sg35
I8
ssg10
I245
sg36
g4
sg37
(dp2491
sg39
(dp2492
sg41
I1455
sg42
g21
sg43
g21
sg44
I245
sg45
Vcountry
p2493
sg47
I245
sg48
I1462
sbag0
(g23
g2
Ntp2494
Rp2495
(dp2496
g27
(dp2497
g29
Vand
p2498
sg31
VO
p2499
sg33
VCC
p2500
sg35
I9
ssg10
I246
sg36
g4
sg37
(dp2501
sg39
(dp2502
sg41
I1463
sg42
g21
sg43
g21
sg44
I246
sg45
Vand
p2503
sg47
I246
sg48
I1466
sbag0
(g23
g2
Ntp2504
Rp2505
(dp2506
g27
(dp2507
g29
Vabroad
p2508
sg31
VO
p2509
sg33
VRB
p2510
sg35
I10
ssg10
I247
sg36
g4
sg37
(dp2511
sg39
(dp2512
sg41
I1467
sg42
g21
sg43
g21
sg44
I247
sg45
Vabroad
p2513
sg47
I247
sg48
I1473
sbag0
(g23
g2
Ntp2514
Rp2515
(dp2516
g27
(dp2517
g29
V.
p2518
sg31
VO
p2519
sg33
V.
p2520
sg35
I11
ssg10
I248
sg36
g4
sg37
(dp2521
sg39
(dp2522
sg41
I1473
sg42
g21
sg43
g21
sg44
I248
sg45
V.
p2523
sg47
I248
sg48
I1474
sbag0
(g23
g2
Ntp2524
Rp2525
(dp2526
g27
(dp2527
g29
Vjudge
p2528
sg31
VO
p2529
sg33
VVBG
p2530
sg35
I1
ssg10
I249
sg36
g4
sg37
(dp2531
sg39
(dp2532
sg41
I1476
sg42
g21
sg43
g21
sg44
I249
sg45
VJudging
p2533
sg47
I249
sg48
I1483
sbag0
(g23
g2
Ntp2534
Rp2535
(dp2536
g27
(dp2537
g29
Vthe
p2538
sg31
VO
p2539
sg33
VDT
p2540
sg35
I2
ssg10
I250
sg36
g4
sg37
(dp2541
sg39
(dp2542
sg41
I1484
sg42
g21
sg43
g21
sg44
I250
sg45
Vthe
p2543
sg47
I250
sg48
I1487
sbag0
(g23
g2
Ntp2544
Rp2545
(dp2546
g27
(dp2547
g29
Vreligious
p2548
sg31
VO
p2549
sg33
VJJ
p2550
sg35
I3
ssg10
I251
sg36
g4
sg37
(dp2551
sg39
(dp2552
sg41
I1488
sg42
g21
sg43
g21
sg44
I251
sg45
Vreligious
p2553
sg47
I251
sg48
I1497
sbag0
(g23
g2
Ntp2554
Rp2555
(dp2556
g27
(dp2557
g29
Vorganisation
p2558
sg31
VO
p2559
sg33
VNNS
p2560
sg35
I4
ssg10
I252
sg36
g4
sg37
(dp2561
sg39
(dp2562
sg41
I1498
sg42
g21
sg43
g21
sg44
I252
sg45
Vorganisations
p2563
sg47
I252
sg48
I1511
sbag0
(g23
g2
Ntp2564
Rp2565
(dp2566
g27
(dp2567
g29
Vacceptability
p2568
sg31
VO
p2569
sg33
VNN
p2570
sg35
I5
ssg10
I253
sg36
g4
sg37
(dp2571
sg39
(dp2572
sg41
I1512
sg42
g21
sg43
g21
sg44
I253
sg45
Vacceptability
p2573
sg47
I253
sg48
I1525
sbag0
(g23
g2
Ntp2574
Rp2575
(dp2576
g27
(dp2577
g29
Vto
p2578
sg31
VO
p2579
sg33
VTO
p2580
sg35
I6
ssg10
I254
sg36
g4
sg37
(dp2581
sg39
(dp2582
sg41
I1526
sg42
g21
sg43
g21
sg44
I254
sg45
Vto
p2583
sg47
I254
sg48
I1528
sbag0
(g23
g2
Ntp2584
Rp2585
(dp2586
g27
(dp2587
g29
Voperate
p2588
sg31
VO
p2589
sg33
VVB
p2590
sg35
I7
ssg10
I255
sg36
g4
sg37
(dp2591
sg39
(dp2592
sg41
I1529
sg42
g21
sg43
g21
sg44
I255
sg45
Voperate
p2593
sg47
I255
sg48
I1536
sbag0
(g23
g2
Ntp2594
Rp2595
(dp2596
g27
(dp2597
g29
Vin
p2598
sg31
VO
p2599
sg33
VIN
p2600
sg35
I8
ssg10
I256
sg36
g4
sg37
(dp2601
sg39
(dp2602
sg41
I1537
sg42
g21
sg43
g21
sg44
I256
sg45
Vin
p2603
sg47
I256
sg48
I1539
sbag0
(g23
g2
Ntp2604
Rp2605
(dp2606
g27
(dp2607
g29
Vhost
p2608
sg31
VO
p2609
sg33
VNN
p2610
sg35
I9
ssg10
I257
sg36
g4
sg37
(dp2611
sg39
(dp2612
sg41
I1540
sg42
g21
sg43
g21
sg44
I257
sg45
Vhost
p2613
sg47
I257
sg48
I1544
sbag0
(g23
g2
Ntp2614
Rp2615
(dp2616
g27
(dp2617
g29
Vcountry
p2618
sg31
VO
p2619
sg33
VNN
p2620
sg35
I10
ssg10
I258
sg36
g4
sg37
(dp2621
sg39
(dp2622
sg41
I1545
sg42
g21
sg43
g21
sg44
I258
sg45
Vcountry
p2623
sg47
I258
sg48
I1552
sbag0
(g23
g2
Ntp2624
Rp2625
(dp2626
g27
(dp2627
g29
Vbase
p2628
sg31
VO
p2629
sg33
VVBN
p2630
sg35
I11
ssg10
I259
sg36
g4
sg37
(dp2631
sg39
(dp2632
sg41
I1553
sg42
g21
sg43
g21
sg44
I259
sg45
Vbased
p2633
sg47
I259
sg48
I1558
sbag0
(g23
g2
Ntp2634
Rp2635
(dp2636
g27
(dp2637
g29
Von
p2638
sg31
VO
p2639
sg33
VIN
p2640
sg35
I12
ssg10
I260
sg36
g4
sg37
(dp2641
sg39
(dp2642
sg41
I1559
sg42
g21
sg43
g21
sg44
I260
sg45
Von
p2643
sg47
I260
sg48
I1561
sbag0
(g23
g2
Ntp2644
Rp2645
(dp2646
g27
(dp2647
g29
Vuniversal
p2648
sg31
VO
p2649
sg33
VJJ
p2650
sg35
I13
ssg10
I261
sg36
g4
sg37
(dp2651
sg39
(dp2652
sg41
I1562
sg42
g21
sg43
g21
sg44
I261
sg45
Vuniversal
p2653
sg47
I261
sg48
I1571
sbag0
(g23
g2
Ntp2654
Rp2655
(dp2656
g27
(dp2657
g29
Vhuman
p2658
sg31
VO
p2659
sg33
VJJ
p2660
sg35
I14
ssg10
I262
sg36
g4
sg37
(dp2661
sg39
(dp2662
sg41
I1572
sg42
g21
sg43
g21
sg44
I262
sg45
Vhuman
p2663
sg47
I262
sg48
I1577
sbag0
(g23
g2
Ntp2664
Rp2665
(dp2666
g27
(dp2667
g29
Vrights
p2668
sg31
VO
p2669
sg33
VNNS
p2670
sg35
I15
ssg10
I263
sg36
g4
sg37
(dp2671
sg39
(dp2672
sg41
I1578
sg42
g21
sg43
g21
sg44
I263
sg45
Vrights
p2673
sg47
I263
sg48
I1584
sbag0
(g23
g2
Ntp2674
Rp2675
(dp2676
g27
(dp2677
g29
V,
p2678
sg31
VO
p2679
sg33
V,
p2680
sg35
I16
ssg10
I264
sg36
g4
sg37
(dp2681
sg39
(dp2682
sg41
I1584
sg42
g21
sg43
g21
sg44
I264
sg45
V,
p2683
sg47
I264
sg48
I1585
sbag0
(g23
g2
Ntp2684
Rp2685
(dp2686
g27
(dp2687
g29
Vsupport
p2688
sg31
VO
p2689
sg33
VNN
p2690
sg35
I17
ssg10
I265
sg36
g4
sg37
(dp2691
sg39
(dp2692
sg41
I1586
sg42
g21
sg43
g21
sg44
I265
sg45
Vsupport
p2693
sg47
I265
sg48
I1593
sbag0
(g23
g2
Ntp2694
Rp2695
(dp2696
g27
(dp2697
g29
Vfor
p2698
sg31
VO
p2699
sg33
VIN
p2700
sg35
I18
ssg10
I266
sg36
g4
sg37
(dp2701
sg39
(dp2702
sg41
I1594
sg42
g21
sg43
g21
sg44
I266
sg45
Vfor
p2703
sg47
I266
sg48
I1597
sbag0
(g23
g2
Ntp2704
Rp2705
(dp2706
g27
(dp2707
g29
Vdemocracy
p2708
sg31
VO
p2709
sg33
VNN
p2710
sg35
I19
ssg10
I267
sg36
g4
sg37
(dp2711
sg39
(dp2712
sg41
I1598
sg42
g21
sg43
g21
sg44
I267
sg45
Vdemocracy
p2713
sg47
I267
sg48
I1607
sbag0
(g23
g2
Ntp2714
Rp2715
(dp2716
g27
(dp2717
g29
Vand
p2718
sg31
VO
p2719
sg33
VCC
p2720
sg35
I20
ssg10
I268
sg36
g4
sg37
(dp2721
sg39
(dp2722
sg41
I1608
sg42
g21
sg43
g21
sg44
I268
sg45
Vand
p2723
sg47
I268
sg48
I1611
sbag0
(g23
g2
Ntp2724
Rp2725
(dp2726
g27
(dp2727
g29
Vencourage
p2728
sg31
VO
p2729
sg33
VVB
p2730
sg35
I21
ssg10
I269
sg36
g4
sg37
(dp2731
sg39
(dp2732
sg41
I1612
sg42
g21
sg43
g21
sg44
I269
sg45
Vencourage
p2733
sg47
I269
sg48
I1621
sbag0
(g23
g2
Ntp2734
Rp2735
(dp2736
g27
(dp2737
g29
Vintegration
p2738
sg31
VO
p2739
sg33
VNN
p2740
sg35
I22
ssg10
I270
sg36
g4
sg37
(dp2741
sg39
(dp2742
sg41
I1622
sg42
g21
sg43
g21
sg44
I270
sg45
Vintegration
p2743
sg47
I270
sg48
I1633
sbag0
(g23
g2
Ntp2744
Rp2745
(dp2746
g27
(dp2747
g29
Vwith
p2748
sg31
VO
p2749
sg33
VIN
p2750
sg35
I23
ssg10
I271
sg36
g4
sg37
(dp2751
sg39
(dp2752
sg41
I1634
sg42
g21
sg43
g21
sg44
I271
sg45
Vwith
p2753
sg47
I271
sg48
I1638
sbag0
(g23
g2
Ntp2754
Rp2755
(dp2756
g27
(dp2757
g29
Vhost
p2758
sg31
VO
p2759
sg33
VNN
p2760
sg35
I24
ssg10
I272
sg36
g4
sg37
(dp2761
sg39
(dp2762
sg41
I1639
sg42
g21
sg43
g21
sg44
I272
sg45
Vhost
p2763
sg47
I272
sg48
I1643
sbag0
(g23
g2
Ntp2764
Rp2765
(dp2766
g27
(dp2767
g29
Vcountry
p2768
sg31
VO
p2769
sg33
VNN
p2770
sg35
I25
ssg10
I273
sg36
g4
sg37
(dp2771
sg39
(dp2772
sg41
I1644
sg42
g21
sg43
g21
sg44
I273
sg45
Vcountry
p2773
sg47
I273
sg48
I1651
sbag0
(g23
g2
Ntp2774
Rp2775
(dp2776
g27
(dp2777
g29
Vbasic
p2778
sg31
VO
p2779
sg33
VJJ
p2780
sg35
I26
ssg10
I274
sg36
g4
sg37
(dp2781
sg39
(dp2782
sg41
I1652
sg42
g21
sg43
g21
sg44
I274
sg45
Vbasic
p2783
sg47
I274
sg48
I1657
sbag0
(g23
g2
Ntp2784
Rp2785
(dp2786
g27
(dp2787
g29
Vvalue
p2788
sg31
VO
p2789
sg33
VNNS
p2790
sg35
I27
ssg10
I275
sg36
g4
sg37
(dp2791
sg39
(dp2792
sg41
I1658
sg42
g21
sg43
g21
sg44
I275
sg45
Vvalues
p2793
sg47
I275
sg48
I1664
sbag0
(g23
g2
Ntp2794
Rp2795
(dp2796
g27
(dp2797
g29
V.
p2798
sg31
VO
p2799
sg33
V.
p2800
sg35
I28
ssg10
I276
sg36
g4
sg37
(dp2801
sg39
(dp2802
sg41
I1664
sg42
g21
sg43
g21
sg44
I276
sg45
V.
p2803
sg47
I276
sg48
I1665
sbag0
(g23
g2
Ntp2804
Rp2805
(dp2806
g27
(dp2807
g29
Vstrengthen
p2808
sg31
VO
p2809
sg33
VVBG
p2810
sg35
I1
ssg10
I277
sg36
g4
sg37
(dp2811
sg39
(dp2812
sg41
I1667
sg42
g21
sg43
g21
sg44
I277
sg45
VStrengthening
p2813
sg47
I277
sg48
I1680
sbag0
(g23
g2
Ntp2814
Rp2815
(dp2816
g27
(dp2817
g29
Vnational
p2818
sg31
VO
p2819
sg33
VJJ
p2820
sg35
I2
ssg10
I278
sg36
g4
sg37
(dp2821
sg39
(dp2822
sg41
I1681
sg42
g21
sg43
g21
sg44
I278
sg45
Vnational
p2823
sg47
I278
sg48
I1689
sbag0
(g23
g2
Ntp2824
Rp2825
(dp2826
g27
(dp2827
g29
Videntity
p2828
sg31
VO
p2829
sg33
VNN
p2830
sg35
I3
ssg10
I279
sg36
g4
sg37
(dp2831
sg39
(dp2832
sg41
I1690
sg42
g21
sg43
g21
sg44
I279
sg45
Videntity
p2833
sg47
I279
sg48
I1698
sbag0
(g23
g2
Ntp2834
Rp2835
(dp2836
g27
(dp2837
g29
Vby
p2838
sg31
VO
p2839
sg33
VIN
p2840
sg35
I4
ssg10
I280
sg36
g4
sg37
(dp2841
sg39
(dp2842
sg41
I1699
sg42
g21
sg43
g21
sg44
I280
sg45
Vby
p2843
sg47
I280
sg48
I1701
sbag0
(g23
g2
Ntp2844
Rp2845
(dp2846
g27
(dp2847
g29
Vallow
p2848
sg31
VO
p2849
sg33
VVBG
p2850
sg35
I5
ssg10
I281
sg36
g4
sg37
(dp2851
sg39
(dp2852
sg41
I1702
sg42
g21
sg43
g21
sg44
I281
sg45
Vallowing
p2853
sg47
I281
sg48
I1710
sbag0
(g23
g2
Ntp2854
Rp2855
(dp2856
g27
(dp2857
g29
Vpeople
p2858
sg31
VO
p2859
sg33
VNNS
p2860
sg35
I6
ssg10
I282
sg36
g4
sg37
(dp2861
sg39
(dp2862
sg41
I1711
sg42
g21
sg43
g21
sg44
I282
sg45
Vpeople
p2863
sg47
I282
sg48
I1717
sbag0
(g23
g2
Ntp2864
Rp2865
(dp2866
g27
(dp2867
g29
Vto
p2868
sg31
VO
p2869
sg33
VTO
p2870
sg35
I7
ssg10
I283
sg36
g4
sg37
(dp2871
sg39
(dp2872
sg41
I1718
sg42
g21
sg43
g21
sg44
I283
sg45
Vto
p2873
sg47
I283
sg48
I1720
sbag0
(g23
g2
Ntp2874
Rp2875
(dp2876
g27
(dp2877
g29
Vfollow
p2878
sg31
VO
p2879
sg33
VVB
p2880
sg35
I8
ssg10
I284
sg36
g4
sg37
(dp2881
sg39
(dp2882
sg41
I1721
sg42
g21
sg43
g21
sg44
I284
sg45
Vfollow
p2883
sg47
I284
sg48
I1727
sbag0
(g23
g2
Ntp2884
Rp2885
(dp2886
g27
(dp2887
g29
Vthey
p2888
sg31
VO
p2889
sg33
VPRP$
p2890
sg35
I9
ssg10
I285
sg36
g4
sg37
(dp2891
sg39
(dp2892
sg41
I1728
sg42
g21
sg43
g21
sg44
I285
sg45
Vtheir
p2893
sg47
I285
sg48
I1733
sbag0
(g23
g2
Ntp2894
Rp2895
(dp2896
g27
(dp2897
g29
Vreligion
p2898
sg31
VO
p2899
sg33
VNN
p2900
sg35
I10
ssg10
I286
sg36
g4
sg37
(dp2901
sg39
(dp2902
sg41
I1734
sg42
g21
sg43
g21
sg44
I286
sg45
Vreligion
p2903
sg47
I286
sg48
I1742
sbag0
(g23
g2
Ntp2904
Rp2905
(dp2906
g27
(dp2907
g29
Vbut
p2908
sg31
VO
p2909
sg33
VCC
p2910
sg35
I11
ssg10
I287
sg36
g4
sg37
(dp2911
sg39
(dp2912
sg41
I1743
sg42
g21
sg43
g21
sg44
I287
sg45
Vbut
p2913
sg47
I287
sg48
I1746
sbag0
(g23
g2
Ntp2914
Rp2915
(dp2916
g27
(dp2917
g29
Vsubscribe
p2918
sg31
VO
p2919
sg33
VVBP
p2920
sg35
I12
ssg10
I288
sg36
g4
sg37
(dp2921
sg39
(dp2922
sg41
I1747
sg42
g21
sg43
g21
sg44
I288
sg45
Vsubscribe
p2923
sg47
I288
sg48
I1756
sbag0
(g23
g2
Ntp2924
Rp2925
(dp2926
g27
(dp2927
g29
Vto
p2928
sg31
VO
p2929
sg33
VTO
p2930
sg35
I13
ssg10
I289
sg36
g4
sg37
(dp2931
sg39
(dp2932
sg41
I1757
sg42
g21
sg43
g21
sg44
I289
sg45
Vto
p2933
sg47
I289
sg48
I1759
sbag0
(g23
g2
Ntp2934
Rp2935
(dp2936
g27
(dp2937
g29
Vthe
p2938
sg31
VO
p2939
sg33
VDT
p2940
sg35
I14
ssg10
I290
sg36
g4
sg37
(dp2941
sg39
(dp2942
sg41
I1760
sg42
g21
sg43
g21
sg44
I290
sg45
Vthe
p2943
sg47
I290
sg48
I1763
sbag0
(g23
g2
Ntp2944
Rp2945
(dp2946
g27
(dp2947
g29
Videntity
p2948
sg31
VO
p2949
sg33
VNN
p2950
sg35
I15
ssg10
I291
sg36
g4
sg37
(dp2951
sg39
(dp2952
sg41
I1764
sg42
g21
sg43
g21
sg44
I291
sg45
Videntity
p2953
sg47
I291
sg48
I1772
sbag0
(g23
g2
Ntp2954
Rp2955
(dp2956
g27
(dp2957
g29
Vof
p2958
sg31
VO
p2959
sg33
VIN
p2960
sg35
I16
ssg10
I292
sg36
g4
sg37
(dp2961
sg39
(dp2962
sg41
I1773
sg42
g21
sg43
g21
sg44
I292
sg45
Vof
p2963
sg47
I292
sg48
I1775
sbag0
(g23
g2
Ntp2964
Rp2965
(dp2966
g27
(dp2967
g29
Vthey
p2968
sg31
VO
p2969
sg33
VPRP$
p2970
sg35
I17
ssg10
I293
sg36
g4
sg37
(dp2971
sg39
(dp2972
sg41
I1776
sg42
g21
sg43
g21
sg44
I293
sg45
Vtheir
p2973
sg47
I293
sg48
I1781
sbag0
(g23
g2
Ntp2974
Rp2975
(dp2976
g27
(dp2977
g29
Vhost
p2978
sg31
VO
p2979
sg33
VNN
p2980
sg35
I18
ssg10
I294
sg36
g4
sg37
(dp2981
sg39
(dp2982
sg41
I1782
sg42
g21
sg43
g21
sg44
I294
sg45
Vhost
p2983
sg47
I294
sg48
I1786
sbag0
(g23
g2
Ntp2984
Rp2985
(dp2986
g27
(dp2987
g29
Vcountry
p2988
sg31
VO
p2989
sg33
VNN
p2990
sg35
I19
ssg10
I295
sg36
g4
sg37
(dp2991
sg39
(dp2992
sg41
I1787
sg42
g21
sg43
g21
sg44
I295
sg45
Vcountry
p2993
sg47
I295
sg48
I1794
sbag0
(g23
g2
Ntp2994
Rp2995
(dp2996
g27
(dp2997
g29
V,
p2998
sg31
VO
p2999
sg33
V,
p3000
sg35
I20
ssg10
I296
sg36
g4
sg37
(dp3001
sg39
(dp3002
sg41
I1794
sg42
g21
sg43
g21
sg44
I296
sg45
V,
p3003
sg47
I296
sg48
I1795
sbag0
(g23
g2
Ntp3004
Rp3005
(dp3006
g27
(dp3007
g29
Vby
p3008
sg31
VO
p3009
sg33
VIN
p3010
sg35
I21
ssg10
I297
sg36
g4
sg37
(dp3011
sg39
(dp3012
sg41
I1796
sg42
g21
sg43
g21
sg44
I297
sg45
Vby
p3013
sg47
I297
sg48
I1798
sbag0
(g23
g2
Ntp3014
Rp3015
(dp3016
g27
(dp3017
g29
Vsay
p3018
sg31
VO
p3019
sg33
VVBG
p3020
sg35
I22
ssg10
I298
sg36
g4
sg37
(dp3021
sg39
(dp3022
sg41
I1799
sg42
g21
sg43
g21
sg44
I298
sg45
Vsaying
p3023
sg47
I298
sg48
I1805
sbag0
(g23
g2
Ntp3024
Rp3025
(dp3026
g27
(dp3027
g29
V``
p3028
sg31
VO
p3029
sg33
V``
p3030
sg35
I23
ssg10
I299
sg36
g4
sg37
(dp3031
sg39
(dp3032
sg41
I1806
sg42
g21
sg43
g21
sg44
I299
sg45
g488
sg47
I299
sg48
I1807
sbag0
(g23
g2
Ntp3033
Rp3034
(dp3035
g27
(dp3036
g29
VI
p3037
sg31
VO
p3038
sg33
VPRP
p3039
sg35
I24
ssg10
I300
sg36
g4
sg37
(dp3040
sg39
(dp3041
sg41
I1807
sg42
g21
sg43
g21
sg44
I300
sg45
VI
p3042
sg47
I300
sg48
I1808
sbag0
(g23
g2
Ntp3043
Rp3044
(dp3045
g27
(dp3046
g29
Vbe
p3047
sg31
VO
p3048
sg33
VVBP
p3049
sg35
I25
ssg10
I301
sg36
g4
sg37
(dp3050
sg39
(dp3051
sg41
I1809
sg42
g21
sg43
g21
sg44
I301
sg45
Vam
p3052
sg47
I301
sg48
I1811
sbag0
(g23
g2
Ntp3053
Rp3054
(dp3055
g27
(dp3056
g29
Va
p3057
sg31
VO
p3058
sg33
VDT
p3059
sg35
I26
ssg10
I302
sg36
g4
sg37
(dp3060
sg39
(dp3061
sg41
I1809
sg42
g21
sg43
g21
sg44
I302
sg45
Va
p3062
sg47
I302
sg48
I1810
sbag0
(g23
g2
Ntp3063
Rp3064
(dp3065
g27
(dp3066
g29
Vmuslim
p3067
sg31
VMISC
p3068
sg33
VJJ
p3069
sg35
I27
ssg10
I303
sg36
g4
sg37
(dp3070
sg39
(dp3071
sg41
I1814
sg42
g21
sg43
g21
sg44
I303
sg45
VMuslim
p3072
sg47
I303
sg48
I1820
sbag0
(g23
g2
Ntp3073
Rp3074
(dp3075
g27
(dp3076
g29
V,
p3077
sg31
VO
p3078
sg33
V,
p3079
sg35
I28
ssg10
I304
sg36
g4
sg37
(dp3080
sg39
(dp3081
sg41
I1820
sg42
g21
sg43
g21
sg44
I304
sg45
V,
p3082
sg47
I304
sg48
I1821
sbag0
(g23
g2
Ntp3083
Rp3084
(dp3085
g27
(dp3086
g29
VI
p3087
sg31
VO
p3088
sg33
VPRP
p3089
sg35
I29
ssg10
I305
sg36
g4
sg37
(dp3090
sg39
(dp3091
sg41
I1822
sg42
g21
sg43
g21
sg44
I305
sg45
VI
p3092
sg47
I305
sg48
I1823
sbag0
(g23
g2
Ntp3093
Rp3094
(dp3095
g27
(dp3096
g29
Vbe
p3097
sg31
VO
p3098
sg33
VVBP
p3099
sg35
I30
ssg10
I306
sg36
g4
sg37
(dp3100
sg39
(dp3101
sg41
I1824
sg42
g21
sg43
g21
sg44
I306
sg45
Vam
p3102
sg47
I306
sg48
I1826
sbag0
(g23
g2
Ntp3103
Rp3104
(dp3105
g27
(dp3106
g29
Va
p3107
sg31
VO
p3108
sg33
VDT
p3109
sg35
I31
ssg10
I307
sg36
g4
sg37
(dp3110
sg39
(dp3111
sg41
I1824
sg42
g21
sg43
g21
sg44
I307
sg45
Va
p3112
sg47
I307
sg48
I1825
sbag0
(g23
g2
Ntp3113
Rp3114
(dp3115
g27
(dp3116
g29
VHindu
p3117
sg31
VMISC
p3118
sg33
VNNP
p3119
sg35
I32
ssg10
I308
sg36
g4
sg37
(dp3120
sg39
(dp3121
sg41
I1829
sg42
g21
sg43
g21
sg44
I308
sg45
VHindu
p3122
sg47
I308
sg48
I1834
sbag0
(g23
g2
Ntp3123
Rp3124
(dp3125
g27
(dp3126
g29
V,
p3127
sg31
VO
p3128
sg33
V,
p3129
sg35
I33
ssg10
I309
sg36
g4
sg37
(dp3130
sg39
(dp3131
sg41
I1834
sg42
g21
sg43
g21
sg44
I309
sg45
V,
p3132
sg47
I309
sg48
I1835
sbag0
(g23
g2
Ntp3133
Rp3134
(dp3135
g27
(dp3136
g29
VI
p3137
sg31
VO
p3138
sg33
VPRP
p3139
sg35
I34
ssg10
I310
sg36
g4
sg37
(dp3140
sg39
(dp3141
sg41
I1836
sg42
g21
sg43
g21
sg44
I310
sg45
VI
p3142
sg47
I310
sg48
I1837
sbag0
(g23
g2
Ntp3143
Rp3144
(dp3145
g27
(dp3146
g29
Vbe
p3147
sg31
VO
p3148
sg33
VVBP
p3149
sg35
I35
ssg10
I311
sg36
g4
sg37
(dp3150
sg39
(dp3151
sg41
I1838
sg42
g21
sg43
g21
sg44
I311
sg45
Vam
p3152
sg47
I311
sg48
I1840
sbag0
(g23
g2
Ntp3153
Rp3154
(dp3155
g27
(dp3156
g29
Va
p3157
sg31
VO
p3158
sg33
VDT
p3159
sg35
I36
ssg10
I312
sg36
g4
sg37
(dp3160
sg39
(dp3161
sg41
I1838
sg42
g21
sg43
g21
sg44
I312
sg45
Va
p3162
sg47
I312
sg48
I1839
sbag0
(g23
g2
Ntp3163
Rp3164
(dp3165
g27
(dp3166
g29
VChristian
p3167
sg31
VMISC
p3168
sg33
VNNP
p3169
sg35
I37
ssg10
I313
sg36
g4
sg37
(dp3170
sg39
(dp3171
sg41
I1843
sg42
g21
sg43
g21
sg44
I313
sg45
VChristian
p3172
sg47
I313
sg48
I1852
sbag0
(g23
g2
Ntp3173
Rp3174
(dp3175
g27
(dp3176
g29
V,
p3177
sg31
VO
p3178
sg33
V,
p3179
sg35
I38
ssg10
I314
sg36
g4
sg37
(dp3180
sg39
(dp3181
sg41
I1852
sg42
g21
sg43
g21
sg44
I314
sg45
V,
p3182
sg47
I314
sg48
I1853
sbag0
(g23
g2
Ntp3183
Rp3184
(dp3185
g27
(dp3186
g29
Vbut
p3187
sg31
VO
p3188
sg33
VCC
p3189
sg35
I39
ssg10
I315
sg36
g4
sg37
(dp3190
sg39
(dp3191
sg41
I1854
sg42
g21
sg43
g21
sg44
I315
sg45
Vbut
p3192
sg47
I315
sg48
I1857
sbag0
(g23
g2
Ntp3193
Rp3194
(dp3195
g27
(dp3196
g29
VI
p3197
sg31
VO
p3198
sg33
VPRP
p3199
sg35
I40
ssg10
I316
sg36
g4
sg37
(dp3200
sg39
(dp3201
sg41
I1858
sg42
g21
sg43
g21
sg44
I316
sg45
VI
p3202
sg47
I316
sg48
I1859
sbag0
(g23
g2
Ntp3203
Rp3204
(dp3205
g27
(dp3206
g29
Vbe
p3207
sg31
VO
p3208
sg33
VVBP
p3209
sg35
I41
ssg10
I317
sg36
g4
sg37
(dp3210
sg39
(dp3211
sg41
I1860
sg42
g21
sg43
g21
sg44
I317
sg45
Vam
p3212
sg47
I317
sg48
I1862
sbag0
(g23
g2
Ntp3213
Rp3214
(dp3215
g27
(dp3216
g29
Va
p3217
sg31
VO
p3218
sg33
VDT
p3219
sg35
I42
ssg10
I318
sg36
g4
sg37
(dp3220
sg39
(dp3221
sg41
I1860
sg42
g21
sg43
g21
sg44
I318
sg45
Va
p3222
sg47
I318
sg48
I1861
sbag0
(g23
g2
Ntp3223
Rp3224
(dp3225
g27
(dp3226
g29
VLondoner
p3227
sg31
VO
p3228
sg33
VNNP
p3229
sg35
I43
ssg10
I319
sg36
g4
sg37
(dp3230
sg39
(dp3231
sg41
I1865
sg42
g21
sg43
g21
sg44
I319
sg45
VLondoner
p3232
sg47
I319
sg48
I1873
sbag0
(g23
g2
Ntp3233
Rp3234
(dp3235
g27
(dp3236
g29
Vtoo
p3237
sg31
VO
p3238
sg33
VRB
p3239
sg35
I44
ssg10
I320
sg36
g4
sg37
(dp3240
sg39
(dp3241
sg41
I1874
sg42
g21
sg43
g21
sg44
I320
sg45
Vtoo
p3242
sg47
I320
sg48
I1877
sbag0
(g23
g2
Ntp3243
Rp3244
(dp3245
g27
(dp3246
g29
V''
p3247
sg31
VO
p3248
sg33
V''
p3249
sg35
I45
ssg10
I321
sg36
g4
sg37
(dp3250
sg39
(dp3251
sg41
I1877
sg42
g21
sg43
g21
sg44
I321
sg45
g488
sg47
I321
sg48
I1878
sbag0
(g23
g2
Ntp3252
Rp3253
(dp3254
g27
(dp3255
g29
V.
p3256
sg31
VO
p3257
sg33
V.
p3258
sg35
I46
ssg10
I322
sg36
g4
sg37
(dp3259
sg39
(dp3260
sg41
I1878
sg42
g21
sg43
g21
sg44
I322
sg45
V.
p3261
sg47
I322
sg48
I1879
sbag0
(g23
g2
Ntp3262
Rp3263
(dp3264
g27
(dp3265
g29
VPrevention
p3266
sg31
VO
p3267
sg33
VNNP
p3268
sg35
I1
ssg10
I323
sg36
g4
sg37
(dp3269
sg39
(dp3270
sg41
I1881
sg42
g21
sg43
g21
sg44
I323
sg45
VPrevention
p3271
sg47
I323
sg48
I1891
sbag0
(g23
g2
Ntp3272
Rp3273
(dp3274
g27
(dp3275
g29
Vof
p3276
sg31
VO
p3277
sg33
VIN
p3278
sg35
I2
ssg10
I324
sg36
g4
sg37
(dp3279
sg39
(dp3280
sg41
I1892
sg42
g21
sg43
g21
sg44
I324
sg45
Vof
p3281
sg47
I324
sg48
I1894
sbag0
(g23
g2
Ntp3282
Rp3283
(dp3284
g27
(dp3285
g29
Vextremism
p3286
sg31
VO
p3287
sg33
VNN
p3288
sg35
I3
ssg10
I325
sg36
g4
sg37
(dp3289
sg39
(dp3290
sg41
I1895
sg42
g21
sg43
g21
sg44
I325
sg45
Vextremism
p3291
sg47
I325
sg48
I1904
sbag0
(g23
g2
Ntp3292
Rp3293
(dp3294
g27
(dp3295
g29
Vin
p3296
sg31
VO
p3297
sg33
VIN
p3298
sg35
I4
ssg10
I326
sg36
g4
sg37
(dp3299
sg39
(dp3300
sg41
I1905
sg42
g21
sg43
g21
sg44
I326
sg45
Vin
p3301
sg47
I326
sg48
I1907
sbag0
(g23
g2
Ntp3302
Rp3303
(dp3304
g27
(dp3305
g29
Vuniversity
p3306
sg31
VO
p3307
sg33
VNNS
p3308
sg35
I5
ssg10
I327
sg36
g4
sg37
(dp3309
sg39
(dp3310
sg41
I1908
sg42
g21
sg43
g21
sg44
I327
sg45
Vuniversities
p3311
sg47
I327
sg48
I1920
sbag0
(g23
g2
Ntp3312
Rp3313
(dp3314
g27
(dp3315
g29
Vand
p3316
sg31
VO
p3317
sg33
VCC
p3318
sg35
I6
ssg10
I328
sg36
g4
sg37
(dp3319
sg39
(dp3320
sg41
I1921
sg42
g21
sg43
g21
sg44
I328
sg45
Vand
p3321
sg47
I328
sg48
I1924
sbag0
(g23
g2
Ntp3322
Rp3323
(dp3324
g27
(dp3325
g29
Vprison
p3326
sg31
VO
p3327
sg33
VNNS
p3328
sg35
I7
ssg10
I329
sg36
g4
sg37
(dp3329
sg39
(dp3330
sg41
I1925
sg42
g21
sg43
g21
sg44
I329
sg45
Vprisons
p3331
sg47
I329
sg48
I1932
sbag0
(g23
g2
Ntp3332
Rp3333
(dp3334
g27
(dp3335
g29
V.
p3336
sg31
VO
p3337
sg33
V.
p3338
sg35
I8
ssg10
I330
sg36
g4
sg37
(dp3339
sg39
(dp3340
sg41
I1932
sg42
g21
sg43
g21
sg44
I330
sg45
V.
p3341
sg47
I330
sg48
I1933
sbag0
(g23
g2
Ntp3342
Rp3343
(dp3344
g27
(dp3345
g29
Vpromote
p3346
sg31
VO
p3347
sg33
VVBG
p3348
sg35
I1
ssg10
I331
sg36
g4
sg37
(dp3349
sg39
(dp3350
sg41
I1935
sg42
g21
sg43
g21
sg44
I331
sg45
VPromoting
p3351
sg47
I331
sg48
I1944
sbag0
(g23
g2
Ntp3352
Rp3353
(dp3354
g27
(dp3355
g29
Videal
p3356
sg31
VO
p3357
sg33
VNNS
p3358
sg35
I2
ssg10
I332
sg36
g4
sg37
(dp3359
sg39
(dp3360
sg41
I1945
sg42
g21
sg43
g21
sg44
I332
sg45
Videals
p3361
sg47
I332
sg48
I1951
sbag0
(g23
g2
Ntp3362
Rp3363
(dp3364
g27
(dp3365
g29
Vof
p3366
sg31
VO
p3367
sg33
VIN
p3368
sg35
I3
ssg10
I333
sg36
g4
sg37
(dp3369
sg39
(dp3370
sg41
I1952
sg42
g21
sg43
g21
sg44
I333
sg45
Vof
p3371
sg47
I333
sg48
I1954
sbag0
(g23
g2
Ntp3372
Rp3373
(dp3374
g27
(dp3375
g29
Vdemocracy
p3376
sg31
VO
p3377
sg33
VNN
p3378
sg35
I4
ssg10
I334
sg36
g4
sg37
(dp3379
sg39
(dp3380
sg41
I1955
sg42
g21
sg43
g21
sg44
I334
sg45
Vdemocracy
p3381
sg47
I334
sg48
I1964
sbag0
(g23
g2
Ntp3382
Rp3383
(dp3384
g27
(dp3385
g29
Vwhere
p3386
sg31
VO
p3387
sg33
VWRB
p3388
sg35
I5
ssg10
I335
sg36
g4
sg37
(dp3389
sg39
(dp3390
sg41
I1965
sg42
g21
sg43
g21
sg44
I335
sg45
Vwhere
p3391
sg47
I335
sg48
I1970
sbag0
(g23
g2
Ntp3392
Rp3393
(dp3394
g27
(dp3395
g29
Vpeople
p3396
sg31
VO
p3397
sg33
VNNS
p3398
sg35
I6
ssg10
I336
sg36
g4
sg37
(dp3399
sg39
(dp3400
sg41
I1971
sg42
g21
sg43
g21
sg44
I336
sg45
Vpeople
p3401
sg47
I336
sg48
I1977
sbag0
(g23
g2
Ntp3402
Rp3403
(dp3404
g27
(dp3405
g29
Velect
p3406
sg31
VO
p3407
sg33
VVBP
p3408
sg35
I7
ssg10
I337
sg36
g4
sg37
(dp3409
sg39
(dp3410
sg41
I1978
sg42
g21
sg43
g21
sg44
I337
sg45
Velect
p3411
sg47
I337
sg48
I1983
sbag0
(g23
g2
Ntp3412
Rp3413
(dp3414
g27
(dp3415
g29
Vthey
p3416
sg31
VO
p3417
sg33
VPRP$
p3418
sg35
I8
ssg10
I338
sg36
g4
sg37
(dp3419
sg39
(dp3420
sg41
I1984
sg42
g21
sg43
g21
sg44
I338
sg45
Vtheir
p3421
sg47
I338
sg48
I1989
sbag0
(g23
g2
Ntp3422
Rp3423
(dp3424
g27
(dp3425
g29
Vown
p3426
sg31
VO
p3427
sg33
VJJ
p3428
sg35
I9
ssg10
I339
sg36
g4
sg37
(dp3429
sg39
(dp3430
sg41
I1990
sg42
g21
sg43
g21
sg44
I339
sg45
Vown
p3431
sg47
I339
sg48
I1993
sbag0
(g23
g2
Ntp3432
Rp3433
(dp3434
g27
(dp3435
g29
Vgovernment
p3436
sg31
VO
p3437
sg33
VNN
p3438
sg35
I10
ssg10
I340
sg36
g4
sg37
(dp3439
sg39
(dp3440
sg41
I1994
sg42
g21
sg43
g21
sg44
I340
sg45
Vgovernment
p3441
sg47
I340
sg48
I2004
sbag0
(g23
g2
Ntp3442
Rp3443
(dp3444
g27
(dp3445
g29
V.
p3446
sg31
VO
p3447
sg33
V.
p3448
sg35
I11
ssg10
I341
sg36
g4
sg37
(dp3449
sg39
(dp3450
sg41
I2004
sg42
g21
sg43
g21
sg44
I341
sg45
V.
p3451
sg47
I341
sg48
I2005
sbag0
(g23
g2
Ntp3452
Rp3453
(dp3454
g27
(dp3455
g29
Vpromote
p3456
sg31
VO
p3457
sg33
VVBG
p3458
sg35
I1
ssg10
I342
sg36
g4
sg37
(dp3459
sg39
(dp3460
sg41
I2007
sg42
g21
sg43
g21
sg44
I342
sg45
VPromoting
p3461
sg47
I342
sg48
I2016
sbag0
(g23
g2
Ntp3462
Rp3463
(dp3464
g27
(dp3465
g29
Vuniversal
p3466
sg31
VO
p3467
sg33
VJJ
p3468
sg35
I2
ssg10
I343
sg36
g4
sg37
(dp3469
sg39
(dp3470
sg41
I2017
sg42
g21
sg43
g21
sg44
I343
sg45
Vuniversal
p3471
sg47
I343
sg48
I2026
sbag0
(g23
g2
Ntp3472
Rp3473
(dp3474
g27
(dp3475
g29
Vhuman
p3476
sg31
VO
p3477
sg33
VJJ
p3478
sg35
I3
ssg10
I344
sg36
g4
sg37
(dp3479
sg39
(dp3480
sg41
I2027
sg42
g21
sg43
g21
sg44
I344
sg45
Vhuman
p3481
sg47
I344
sg48
I2032
sbag0
(g23
g2
Ntp3482
Rp3483
(dp3484
g27
(dp3485
g29
Vrights
p3486
sg31
VO
p3487
sg33
VNNS
p3488
sg35
I4
ssg10
I345
sg36
g4
sg37
(dp3489
sg39
(dp3490
sg41
I2033
sg42
g21
sg43
g21
sg44
I345
sg45
Vrights
p3491
sg47
I345
sg48
I2039
sbag0
(g23
g2
Ntp3492
Rp3493
(dp3494
g27
(dp3495
g29
Vwith
p3496
sg31
VO
p3497
sg33
VIN
p3498
sg35
I5
ssg10
I346
sg36
g4
sg37
(dp3499
sg39
(dp3500
sg41
I2040
sg42
g21
sg43
g21
sg44
I346
sg45
Vwith
p3501
sg47
I346
sg48
I2044
sbag0
(g23
g2
Ntp3502
Rp3503
(dp3504
g27
(dp3505
g29
Vequal
p3506
sg31
VO
p3507
sg33
VJJ
p3508
sg35
I6
ssg10
I347
sg36
g4
sg37
(dp3509
sg39
(dp3510
sg41
I2045
sg42
g21
sg43
g21
sg44
I347
sg45
Vequal
p3511
sg47
I347
sg48
I2050
sbag0
(g23
g2
Ntp3512
Rp3513
(dp3514
g27
(dp3515
g29
Vrights
p3516
sg31
VO
p3517
sg33
VNNS
p3518
sg35
I7
ssg10
I348
sg36
g4
sg37
(dp3519
sg39
(dp3520
sg41
I2051
sg42
g21
sg43
g21
sg44
I348
sg45
Vrights
p3521
sg47
I348
sg48
I2057
sbag0
(g23
g2
Ntp3522
Rp3523
(dp3524
g27
(dp3525
g29
Vto
p3526
sg31
VO
p3527
sg33
VTO
p3528
sg35
I8
ssg10
I349
sg36
g4
sg37
(dp3529
sg39
(dp3530
sg41
I2058
sg42
g21
sg43
g21
sg44
I349
sg45
Vto
p3531
sg47
I349
sg48
I2060
sbag0
(g23
g2
Ntp3532
Rp3533
(dp3534
g27
(dp3535
g29
Vwoman
p3536
sg31
VO
p3537
sg33
VNNS
p3538
sg35
I9
ssg10
I350
sg36
g4
sg37
(dp3539
sg39
(dp3540
sg41
I2061
sg42
g21
sg43
g21
sg44
I350
sg45
Vwomen
p3541
sg47
I350
sg48
I2066
sbag0
(g23
g2
Ntp3542
Rp3543
(dp3544
g27
(dp3545
g29
Vand
p3546
sg31
VO
p3547
sg33
VCC
p3548
sg35
I10
ssg10
I351
sg36
g4
sg37
(dp3549
sg39
(dp3550
sg41
I2067
sg42
g21
sg43
g21
sg44
I351
sg45
Vand
p3551
sg47
I351
sg48
I2070
sbag0
(g23
g2
Ntp3552
Rp3553
(dp3554
g27
(dp3555
g29
Vpeople
p3556
sg31
VO
p3557
sg33
VNNS
p3558
sg35
I11
ssg10
I352
sg36
g4
sg37
(dp3559
sg39
(dp3560
sg41
I2071
sg42
g21
sg43
g21
sg44
I352
sg45
Vpeople
p3561
sg47
I352
sg48
I2077
sbag0
(g23
g2
Ntp3562
Rp3563
(dp3564
g27
(dp3565
g29
Vof
p3566
sg31
VO
p3567
sg33
VIN
p3568
sg35
I12
ssg10
I353
sg36
g4
sg37
(dp3569
sg39
(dp3570
sg41
I2078
sg42
g21
sg43
g21
sg44
I353
sg45
Vof
p3571
sg47
I353
sg48
I2080
sbag0
(g23
g2
Ntp3572
Rp3573
(dp3574
g27
(dp3575
g29
Vother
p3576
sg31
VO
p3577
sg33
VJJ
p3578
sg35
I13
ssg10
I354
sg36
g4
sg37
(dp3579
sg39
(dp3580
sg41
I2081
sg42
g21
sg43
g21
sg44
I354
sg45
Vother
p3581
sg47
I354
sg48
I2086
sbag0
(g23
g2
Ntp3582
Rp3583
(dp3584
g27
(dp3585
g29
Vfaith
p3586
sg31
VO
p3587
sg33
VNNS
p3588
sg35
I14
ssg10
I355
sg36
g4
sg37
(dp3589
sg39
(dp3590
sg41
I2087
sg42
g21
sg43
g21
sg44
I355
sg45
Vfaiths
p3591
sg47
I355
sg48
I2093
sbag0
(g23
g2
Ntp3592
Rp3593
(dp3594
g27
(dp3595
g29
V.
p3596
sg31
VO
p3597
sg33
V.
p3598
sg35
I15
ssg10
I356
sg36
g4
sg37
(dp3599
sg39
(dp3600
sg41
I2093
sg42
g21
sg43
g21
sg44
I356
sg45
V.
p3601
sg47
I356
sg48
I2094
sbag0
(g23
g2
Ntp3602
Rp3603
(dp3604
g27
(dp3605
g29
VFreedom
p3606
sg31
VO
p3607
sg33
VNNP
p3608
sg35
I1
ssg10
I357
sg36
g4
sg37
(dp3609
sg39
(dp3610
sg41
I2096
sg42
g21
sg43
g21
sg44
I357
sg45
VFreedom
p3611
sg47
I357
sg48
I2103
sbag0
(g23
g2
Ntp3612
Rp3613
(dp3614
g27
(dp3615
g29
Vof
p3616
sg31
VO
p3617
sg33
VIN
p3618
sg35
I2
ssg10
I358
sg36
g4
sg37
(dp3619
sg39
(dp3620
sg41
I2104
sg42
g21
sg43
g21
sg44
I358
sg45
Vof
p3621
sg47
I358
sg48
I2106
sbag0
(g23
g2
Ntp3622
Rp3623
(dp3624
g27
(dp3625
g29
Vworship
p3626
sg31
VO
p3627
sg33
VNN
p3628
sg35
I3
ssg10
I359
sg36
g4
sg37
(dp3629
sg39
(dp3630
sg41
I2107
sg42
g21
sg43
g21
sg44
I359
sg45
Vworship
p3631
sg47
I359
sg48
I2114
sbag0
(g23
g2
Ntp3632
Rp3633
(dp3634
g27
(dp3635
g29
Vand
p3636
sg31
VO
p3637
sg33
VCC
p3638
sg35
I4
ssg10
I360
sg36
g4
sg37
(dp3639
sg39
(dp3640
sg41
I2115
sg42
g21
sg43
g21
sg44
I360
sg45
Vand
p3641
sg47
I360
sg48
I2118
sbag0
(g23
g2
Ntp3642
Rp3643
(dp3644
g27
(dp3645
g29
Vspeech
p3646
sg31
VO
p3647
sg33
VNN
p3648
sg35
I5
ssg10
I361
sg36
g4
sg37
(dp3649
sg39
(dp3650
sg41
I2119
sg42
g21
sg43
g21
sg44
I361
sg45
Vspeech
p3651
sg47
I361
sg48
I2125
sbag0
(g23
g2
Ntp3652
Rp3653
(dp3654
g27
(dp3655
g29
V.
p3656
sg31
VO
p3657
sg33
V.
p3658
sg35
I6
ssg10
I362
sg36
g4
sg37
(dp3659
sg39
(dp3660
sg41
I2125
sg42
g21
sg43
g21
sg44
I362
sg45
V.
p3661
sg47
I362
sg48
I2126
sbag0
(g23
g2
Ntp3662
Rp3663
(dp3664
g27
(dp3665
g29
Vpromote
p3666
sg31
VO
p3667
sg33
VVBG
p3668
sg35
I1
ssg10
I363
sg36
g4
sg37
(dp3669
sg39
(dp3670
sg41
I2128
sg42
g21
sg43
g21
sg44
I363
sg45
VPromoting
p3671
sg47
I363
sg48
I2137
sbag0
(g23
g2
Ntp3672
Rp3673
(dp3674
g27
(dp3675
g29
Vequal
p3676
sg31
VO
p3677
sg33
VJJ
p3678
sg35
I2
ssg10
I364
sg36
g4
sg37
(dp3679
sg39
(dp3680
sg41
I2138
sg42
g21
sg43
g21
sg44
I364
sg45
Vequal
p3681
sg47
I364
sg48
I2143
sbag0
(g23
g2
Ntp3682
Rp3683
(dp3684
g27
(dp3685
g29
Vrights
p3686
sg31
VO
p3687
sg33
VNNS
p3688
sg35
I3
ssg10
I365
sg36
g4
sg37
(dp3689
sg39
(dp3690
sg41
I2144
sg42
g21
sg43
g21
sg44
I365
sg45
Vrights
p3691
sg47
I365
sg48
I2150
sbag0
(g23
g2
Ntp3692
Rp3693
(dp3694
g27
(dp3695
g29
Virrespective
p3696
sg31
VO
p3697
sg33
VRB
p3698
sg35
I4
ssg10
I366
sg36
g4
sg37
(dp3699
sg39
(dp3700
sg41
I2151
sg42
g21
sg43
g21
sg44
I366
sg45
Virrespective
p3701
sg47
I366
sg48
I2163
sbag0
(g23
g2
Ntp3702
Rp3703
(dp3704
g27
(dp3705
g29
Vof
p3706
sg31
VO
p3707
sg33
VIN
p3708
sg35
I5
ssg10
I367
sg36
g4
sg37
(dp3709
sg39
(dp3710
sg41
I2164
sg42
g21
sg43
g21
sg44
I367
sg45
Vof
p3711
sg47
I367
sg48
I2166
sbag0
(g23
g2
Ntp3712
Rp3713
(dp3714
g27
(dp3715
g29
Vrace
p3716
sg31
VO
p3717
sg33
VNN
p3718
sg35
I6
ssg10
I368
sg36
g4
sg37
(dp3719
sg39
(dp3720
sg41
I2167
sg42
g21
sg43
g21
sg44
I368
sg45
Vrace
p3721
sg47
I368
sg48
I2171
sbag0
(g23
g2
Ntp3722
Rp3723
(dp3724
g27
(dp3725
g29
V,
p3726
sg31
VO
p3727
sg33
V,
p3728
sg35
I7
ssg10
I369
sg36
g4
sg37
(dp3729
sg39
(dp3730
sg41
I2171
sg42
g21
sg43
g21
sg44
I369
sg45
V,
p3731
sg47
I369
sg48
I2172
sbag0
(g23
g2
Ntp3732
Rp3733
(dp3734
g27
(dp3735
g29
Vsex
p3736
sg31
VO
p3737
sg33
VNN
p3738
sg35
I8
ssg10
I370
sg36
g4
sg37
(dp3739
sg39
(dp3740
sg41
I2173
sg42
g21
sg43
g21
sg44
I370
sg45
Vsex
p3741
sg47
I370
sg48
I2176
sbag0
(g23
g2
Ntp3742
Rp3743
(dp3744
g27
(dp3745
g29
Vor
p3746
sg31
VO
p3747
sg33
VCC
p3748
sg35
I9
ssg10
I371
sg36
g4
sg37
(dp3749
sg39
(dp3750
sg41
I2177
sg42
g21
sg43
g21
sg44
I371
sg45
Vor
p3751
sg47
I371
sg48
I2179
sbag0
(g23
g2
Ntp3752
Rp3753
(dp3754
g27
(dp3755
g29
Vsexuality
p3756
sg31
VO
p3757
sg33
VNN
p3758
sg35
I10
ssg10
I372
sg36
g4
sg37
(dp3759
sg39
(dp3760
sg41
I2180
sg42
g21
sg43
g21
sg44
I372
sg45
Vsexuality
p3761
sg47
I372
sg48
I2189
sbag0
(g23
g2
Ntp3762
Rp3763
(dp3764
g27
(dp3765
g29
V.
p3766
sg31
VO
p3767
sg33
V.
p3768
sg35
I11
ssg10
I373
sg36
g4
sg37
(dp3769
sg39
(dp3770
sg41
I2189
sg42
g21
sg43
g21
sg44
I373
sg45
V.
p3771
sg47
I373
sg48
I2190
sbag0
(g23
g2
Ntp3772
Rp3773
(dp3774
g27
(dp3775
g29
Vthe
p3776
sg31
VO
p3777
sg33
VDT
p3778
sg35
I1
ssg10
I374
sg36
g4
sg37
(dp3779
sg39
(dp3780
sg41
I2192
sg42
g21
sg43
g21
sg44
I374
sg45
VThe
p3781
sg47
I374
sg48
I2195
sbag0
(g23
g2
Ntp3782
Rp3783
(dp3784
g27
(dp3785
g29
Vrule
p3786
sg31
VO
p3787
sg33
VNN
p3788
sg35
I2
ssg10
I375
sg36
g4
sg37
(dp3789
sg39
(dp3790
sg41
I2196
sg42
g21
sg43
g21
sg44
I375
sg45
Vrule
p3791
sg47
I375
sg48
I2200
sbag0
(g23
g2
Ntp3792
Rp3793
(dp3794
g27
(dp3795
g29
Vof
p3796
sg31
VO
p3797
sg33
VIN
p3798
sg35
I3
ssg10
I376
sg36
g4
sg37
(dp3799
sg39
(dp3800
sg41
I2201
sg42
g21
sg43
g21
sg44
I376
sg45
Vof
p3801
sg47
I376
sg48
I2203
sbag0
(g23
g2
Ntp3802
Rp3803
(dp3804
g27
(dp3805
g29
Vlaw
p3806
sg31
VO
p3807
sg33
VNN
p3808
sg35
I4
ssg10
I377
sg36
g4
sg37
(dp3809
sg39
(dp3810
sg41
I2204
sg42
g21
sg43
g21
sg44
I377
sg45
Vlaw
p3811
sg47
I377
sg48
I2207
sbag0
(g23
g2
Ntp3812
Rp3813
(dp3814
g27
(dp3815
g29
V.
p3816
sg31
VO
p3817
sg33
V.
p3818
sg35
I5
ssg10
I378
sg36
g4
sg37
(dp3819
sg39
(dp3820
sg41
I2207
sg42
g21
sg43
g21
sg44
I378
sg45
V.
p3821
sg47
I378
sg48
I2208
sbag0
(g23
g2
Ntp3822
Rp3823
(dp3824
g27
(dp3825
g29
Vthe
p3826
sg31
VO
p3827
sg33
VDT
p3828
sg35
I1
ssg10
I379
sg36
g4
sg37
(dp3829
sg39
(dp3830
sg41
I2210
sg42
g21
sg43
g21
sg44
I379
sg45
VThe
p3831
sg47
I379
sg48
I2213
sbag0
(g23
g2
Ntp3832
Rp3833
(dp3834
g27
(dp3835
g29
Vspeech
p3836
sg31
VO
p3837
sg33
VNN
p3838
sg35
I2
ssg10
I380
sg36
g4
sg37
(dp3839
sg39
(dp3840
sg41
I2214
sg42
g21
sg43
g21
sg44
I380
sg45
Vspeech
p3841
sg47
I380
sg48
I2220
sbag0
(g23
g2
Ntp3842
Rp3843
(dp3844
g27
(dp3845
g29
Vand
p3846
sg31
VO
p3847
sg33
VCC
p3848
sg35
I3
ssg10
I381
sg36
g4
sg37
(dp3849
sg39
(dp3850
sg41
I2221
sg42
g21
sg43
g21
sg44
I381
sg45
Vand
p3851
sg47
I381
sg48
I2224
sbag0
(g23
g2
Ntp3852
Rp3853
(dp3854
g27
(dp3855
g29
Vthe
p3856
sg31
VO
p3857
sg33
VDT
p3858
sg35
I4
ssg10
I382
sg36
g4
sg37
(dp3859
sg39
(dp3860
sg41
I2225
sg42
g21
sg43
g21
sg44
I382
sg45
Vthe
p3861
sg47
I382
sg48
I2228
sbag0
(g23
g2
Ntp3862
Rp3863
(dp3864
g27
(dp3865
g29
Vprinciple
p3866
sg31
VO
p3867
sg33
VNNS
p3868
sg35
I5
ssg10
I383
sg36
g4
sg37
(dp3869
sg39
(dp3870
sg41
I2229
sg42
g21
sg43
g21
sg44
I383
sg45
Vprinciples
p3871
sg47
I383
sg48
I2239
sbag0
(g23
g2
Ntp3872
Rp3873
(dp3874
g27
(dp3875
g29
Vanger
p3876
sg31
VO
p3877
sg33
VVBD
p3878
sg35
I6
ssg10
I384
sg36
g4
sg37
(dp3879
sg39
(dp3880
sg41
I2240
sg42
g21
sg43
g21
sg44
I384
sg45
Vangered
p3881
sg47
I384
sg48
I2247
sbag0
(g23
g2
Ntp3882
Rp3883
(dp3884
g27
(dp3885
g29
Vthe
p3886
sg31
VO
p3887
sg33
VDT
p3888
sg35
I7
ssg10
I385
sg36
g4
sg37
(dp3889
sg39
(dp3890
sg41
I2248
sg42
g21
sg43
g21
sg44
I385
sg45
Vthe
p3891
sg47
I385
sg48
I2251
sbag0
(g23
g2
Ntp3892
Rp3893
(dp3894
g27
(dp3895
g29
Vmuslim
p3896
sg31
VMISC
p3897
sg33
VJJ
p3898
sg35
I8
ssg10
I386
sg36
g4
sg37
(dp3899
sg39
(dp3900
sg41
I2252
sg42
g21
sg43
g21
sg44
I386
sg45
VMuslim
p3901
sg47
I386
sg48
I2258
sbag0
(g23
g2
Ntp3902
Rp3903
(dp3904
g27
(dp3905
g29
Vgroup
p3906
sg31
VO
p3907
sg33
VNN
p3908
sg35
I9
ssg10
I387
sg36
g4
sg37
(dp3909
sg39
(dp3910
sg41
I2259
sg42
g21
sg43
g21
sg44
I387
sg45
Vgroup
p3911
sg47
I387
sg48
I2264
sbag0
(g23
g2
Ntp3912
Rp3913
(dp3914
g27
(dp3915
g29
Vas
p3916
sg31
VO
p3917
sg33
VIN
p3918
sg35
I10
ssg10
I388
sg36
g4
sg37
(dp3919
sg39
(dp3920
sg41
I2265
sg42
g21
sg43
g21
sg44
I388
sg45
Vas
p3921
sg47
I388
sg48
I2267
sbag0
(g23
g2
Ntp3922
Rp3923
(dp3924
g27
(dp3925
g29
VDavid
p3926
sg31
VPERSON
p3927
sg33
VNNP
p3928
sg35
I11
ssg10
I389
sg36
g4
sg37
(dp3929
sg39
(dp3930
sg41
I2268
sg42
g21
sg43
g21
sg44
I389
sg45
VDavid
p3931
sg47
I389
sg48
I2273
sbag0
(g23
g2
Ntp3932
Rp3933
(dp3934
g27
(dp3935
g29
VCameron
p3936
sg31
VPERSON
p3937
sg33
VNNP
p3938
sg35
I12
ssg10
I390
sg36
g4
sg37
(dp3939
sg39
(dp3940
sg41
I2274
sg42
g21
sg43
g21
sg44
I390
sg45
VCameron
p3941
sg47
I390
sg48
I2281
sbag0
(g23
g2
Ntp3942
Rp3943
(dp3944
g27
(dp3945
g29
Vcall
p3946
sg31
VO
p3947
sg33
VVBD
p3948
sg35
I13
ssg10
I391
sg36
g4
sg37
(dp3949
sg39
(dp3950
sg41
I2282
sg42
g21
sg43
g21
sg44
I391
sg45
Vcalled
p3951
sg47
I391
sg48
I2288
sbag0
(g23
g2
Ntp3952
Rp3953
(dp3954
g27
(dp3955
g29
Vfor
p3956
sg31
VO
p3957
sg33
VIN
p3958
sg35
I14
ssg10
I392
sg36
g4
sg37
(dp3959
sg39
(dp3960
sg41
I2289
sg42
g21
sg43
g21
sg44
I392
sg45
Vfor
p3961
sg47
I392
sg48
I2292
sbag0
(g23
g2
Ntp3962
Rp3963
(dp3964
g27
(dp3965
g29
Va
p3966
sg31
VO
p3967
sg33
VDT
p3968
sg35
I15
ssg10
I393
sg36
g4
sg37
(dp3969
sg39
(dp3970
sg41
I2294
sg42
g21
sg43
g21
sg44
I393
sg45
Va
p3971
sg47
I393
sg48
I2295
sbag0
(g23
g2
Ntp3972
Rp3973
(dp3974
g27
(dp3975
g29
Vtougher
p3976
sg31
VO
p3977
sg33
VJJR
p3978
sg35
I16
ssg10
I394
sg36
g4
sg37
(dp3979
sg39
(dp3980
sg41
I2296
sg42
g21
sg43
g21
sg44
I394
sg45
Vtougher
p3981
sg47
I394
sg48
I2303
sbag0
(g23
g2
Ntp3982
Rp3983
(dp3984
g27
(dp3985
g29
Vstance
p3986
sg31
VO
p3987
sg33
VNN
p3988
sg35
I17
ssg10
I395
sg36
g4
sg37
(dp3989
sg39
(dp3990
sg41
I2304
sg42
g21
sg43
g21
sg44
I395
sg45
Vstance
p3991
sg47
I395
sg48
I2310
sbag0
(g23
g2
Ntp3992
Rp3993
(dp3994
g27
(dp3995
g29
Vagainst
p3996
sg31
VO
p3997
sg33
VIN
p3998
sg35
I18
ssg10
I396
sg36
g4
sg37
(dp3999
sg39
(dp4000
sg41
I2311
sg42
g21
sg43
g21
sg44
I396
sg45
Vagainst
p4001
sg47
I396
sg48
I2318
sbag0
(g23
g2
Ntp4002
Rp4003
(dp4004
g27
(dp4005
g29
Vislamist
p4006
sg31
VO
p4007
sg33
VJJ
p4008
sg35
I19
ssg10
I397
sg36
g4
sg37
(dp4009
sg39
(dp4010
sg41
I2319
sg42
g21
sg43
g21
sg44
I397
sg45
Vislamist
p4011
sg47
I397
sg48
I2327
sbag0
(g23
g2
Ntp4012
Rp4013
(dp4014
g27
(dp4015
g29
Vterrorism
p4016
sg31
VO
p4017
sg33
VNN
p4018
sg35
I20
ssg10
I398
sg36
g4
sg37
(dp4019
sg39
(dp4020
sg41
I2328
sg42
g21
sg43
g21
sg44
I398
sg45
Vterrorism
p4021
sg47
I398
sg48
I2337
sbag0
(g23
g2
Ntp4022
Rp4023
(dp4024
g27
(dp4025
g29
Vwhile
p4026
sg31
VO
p4027
sg33
VIN
p4028
sg35
I21
ssg10
I399
sg36
g4
sg37
(dp4029
sg39
(dp4030
sg41
I2338
sg42
g21
sg43
g21
sg44
I399
sg45
Vwhile
p4031
sg47
I399
sg48
I2343
sbag0
(g23
g2
Ntp4032
Rp4033
(dp4034
g27
(dp4035
g29
Vdifferentiate
p4036
sg31
VO
p4037
sg33
VVBG
p4038
sg35
I22
ssg10
I400
sg36
g4
sg37
(dp4039
sg39
(dp4040
sg41
I2344
sg42
g21
sg43
g21
sg44
I400
sg45
Vdifferentiating
p4041
sg47
I400
sg48
I2359
sbag0
(g23
g2
Ntp4042
Rp4043
(dp4044
g27
(dp4045
g29
VIslam
p4046
sg31
VMISC
p4047
sg33
VNNP
p4048
sg35
I23
ssg10
I401
sg36
g4
sg37
(dp4049
sg39
(dp4050
sg41
I2360
sg42
g21
sg43
g21
sg44
I401
sg45
VIslam
p4051
sg47
I401
sg48
I2365
sbag0
(g23
g2
Ntp4052
Rp4053
(dp4054
g27
(dp4055
g29
Vfrom
p4056
sg31
VO
p4057
sg33
VIN
p4058
sg35
I24
ssg10
I402
sg36
g4
sg37
(dp4059
sg39
(dp4060
sg41
I2366
sg42
g21
sg43
g21
sg44
I402
sg45
Vfrom
p4061
sg47
I402
sg48
I2370
sbag0
(g23
g2
Ntp4062
Rp4063
(dp4064
g27
(dp4065
g29
VIslamic
p4066
sg31
VMISC
p4067
sg33
VNNP
p4068
sg35
I25
ssg10
I403
sg36
g4
sg37
(dp4069
sg39
(dp4070
sg41
I2371
sg42
g21
sg43
g21
sg44
I403
sg45
VIslamic
p4071
sg47
I403
sg48
I2378
sbag0
(g23
g2
Ntp4072
Rp4073
(dp4074
g27
(dp4075
g29
Vterrorism
p4076
sg31
VO
p4077
sg33
VNN
p4078
sg35
I26
ssg10
I404
sg36
g4
sg37
(dp4079
sg39
(dp4080
sg41
I2379
sg42
g21
sg43
g21
sg44
I404
sg45
Vterrorism
p4081
sg47
I404
sg48
I2388
sbag0
(g23
g2
Ntp4082
Rp4083
(dp4084
g27
(dp4085
g29
Vas
p4086
sg31
VO
p4087
sg33
VIN
p4088
sg35
I27
ssg10
I405
sg36
g4
sg37
(dp4089
sg39
(dp4090
sg41
I2389
sg42
g21
sg43
g21
sg44
I405
sg45
Vas
p4091
sg47
I405
sg48
I2391
sbag0
(g23
g2
Ntp4092
Rp4093
(dp4094
g27
(dp4095
g29
Va
p4096
sg31
VO
p4097
sg33
VDT
p4098
sg35
I28
ssg10
I406
sg36
g4
sg37
(dp4099
sg39
(dp4100
sg41
I2392
sg42
g21
sg43
g21
sg44
I406
sg45
Van
p4101
sg47
I406
sg48
I2394
sbag0
(g23
g2
Ntp4102
Rp4103
(dp4104
g27
(dp4105
g29
Videology
p4106
sg31
VO
p4107
sg33
VNN
p4108
sg35
I29
ssg10
I407
sg36
g4
sg37
(dp4109
sg39
(dp4110
sg41
I2395
sg42
g21
sg43
g21
sg44
I407
sg45
Videology
p4111
sg47
I407
sg48
I2403
sbag0
(g23
g2
Ntp4112
Rp4113
(dp4114
g27
(dp4115
g29
Vwhich
p4116
sg31
VO
p4117
sg33
VWDT
p4118
sg35
I30
ssg10
I408
sg36
g4
sg37
(dp4119
sg39
(dp4120
sg41
I2404
sg42
g21
sg43
g21
sg44
I408
sg45
Vwhich
p4121
sg47
I408
sg48
I2409
sbag0
(g23
g2
Ntp4122
Rp4123
(dp4124
g27
(dp4125
g29
Vattract
p4126
sg31
VO
p4127
sg33
VVBD
p4128
sg35
I31
ssg10
I409
sg36
g4
sg37
(dp4129
sg39
(dp4130
sg41
I2410
sg42
g21
sg43
g21
sg44
I409
sg45
Vattracted
p4131
sg47
I409
sg48
I2419
sbag0
(g23
g2
Ntp4132
Rp4133
(dp4134
g27
(dp4135
g29
Vpeople
p4136
sg31
VO
p4137
sg33
VNNS
p4138
sg35
I32
ssg10
I410
sg36
g4
sg37
(dp4139
sg39
(dp4140
sg41
I2420
sg42
g21
sg43
g21
sg44
I410
sg45
Vpeople
p4141
sg47
I410
sg48
I2426
sbag0
(g23
g2
Ntp4142
Rp4143
(dp4144
g27
(dp4145
g29
Vwho
p4146
sg31
VO
p4147
sg33
VWP
p4148
sg35
I33
ssg10
I411
sg36
g4
sg37
(dp4149
sg39
(dp4150
sg41
I2427
sg42
g21
sg43
g21
sg44
I411
sg45
Vwho
p4151
sg47
I411
sg48
I2430
sbag0
(g23
g2
Ntp4152
Rp4153
(dp4154
g27
(dp4155
g29
Vfeel
p4156
sg31
VO
p4157
sg33
VVBP
p4158
sg35
I34
ssg10
I412
sg36
g4
sg37
(dp4159
sg39
(dp4160
sg41
I2431
sg42
g21
sg43
g21
sg44
I412
sg45
Vfeel
p4161
sg47
I412
sg48
I2435
sbag0
(g23
g2
Ntp4162
Rp4163
(dp4164
g27
(dp4165
g29
V``
p4166
sg31
VO
p4167
sg33
V``
p4168
sg35
I35
ssg10
I413
sg36
g4
sg37
(dp4169
sg39
(dp4170
sg41
I2436
sg42
g21
sg43
g21
sg44
I413
sg45
g488
sg47
I413
sg48
I2437
sbag0
(g23
g2
Ntp4171
Rp4172
(dp4173
g27
(dp4174
g29
Vrootless
p4175
sg31
VO
p4176
sg33
VJJ
p4177
sg35
I36
ssg10
I414
sg36
g4
sg37
(dp4178
sg39
(dp4179
sg41
I2437
sg42
g21
sg43
g21
sg44
I414
sg45
Vrootless
p4180
sg47
I414
sg48
I2445
sbag0
(g23
g2
Ntp4181
Rp4182
(dp4183
g27
(dp4184
g29
V''
p4185
sg31
VO
p4186
sg33
V''
p4187
sg35
I37
ssg10
I415
sg36
g4
sg37
(dp4188
sg39
(dp4189
sg41
I2445
sg42
g21
sg43
g21
sg44
I415
sg45
g488
sg47
I415
sg48
I2446
sbag0
(g23
g2
Ntp4190
Rp4191
(dp4192
g27
(dp4193
g29
Vwithin
p4194
sg31
VO
p4195
sg33
VIN
p4196
sg35
I38
ssg10
I416
sg36
g4
sg37
(dp4197
sg39
(dp4198
sg41
I2447
sg42
g21
sg43
g21
sg44
I416
sg45
Vwithin
p4199
sg47
I416
sg48
I2453
sbag0
(g23
g2
Ntp4200
Rp4201
(dp4202
g27
(dp4203
g29
Vthey
p4204
sg31
VO
p4205
sg33
VPRP$
p4206
sg35
I39
ssg10
I417
sg36
g4
sg37
(dp4207
sg39
(dp4208
sg41
I2454
sg42
g21
sg43
g21
sg44
I417
sg45
Vtheir
p4209
sg47
I417
sg48
I2459
sbag0
(g23
g2
Ntp4210
Rp4211
(dp4212
g27
(dp4213
g29
Vown
p4214
sg31
VO
p4215
sg33
VJJ
p4216
sg35
I40
ssg10
I418
sg36
g4
sg37
(dp4217
sg39
(dp4218
sg41
I2460
sg42
g21
sg43
g21
sg44
I418
sg45
Vown
p4219
sg47
I418
sg48
I2463
sbag0
(g23
g2
Ntp4220
Rp4221
(dp4222
g27
(dp4223
g29
Vcountry
p4224
sg31
VO
p4225
sg33
VNNS
p4226
sg35
I41
ssg10
I419
sg36
g4
sg37
(dp4227
sg39
(dp4228
sg41
I2464
sg42
g21
sg43
g21
sg44
I419
sg45
Vcountries
p4229
sg47
I419
sg48
I2473
sbag0
(g23
g2
Ntp4230
Rp4231
(dp4232
g27
(dp4233
g29
V.
p4234
sg31
VO
p4235
sg33
V.
p4236
sg35
I42
ssg10
I420
sg36
g4
sg37
(dp4237
sg39
(dp4238
sg41
I2473
sg42
g21
sg43
g21
sg44
I420
sg45
V.
p4239
sg47
I420
sg48
I2474
sbag0
(g23
g2
Ntp4240
Rp4241
(dp4242
g27
(dp4243
g29
Vaccord
p4244
sg31
VO
p4245
sg33
VVBG
p4246
sg35
I1
ssg10
I421
sg36
g4
sg37
(dp4247
sg39
(dp4248
sg41
I2477
sg42
g21
sg43
g21
sg44
I421
sg45
VAccording
p4249
sg47
I421
sg48
I2486
sbag0
(g23
g2
Ntp4250
Rp4251
(dp4252
g27
(dp4253
g29
Vto
p4254
sg31
VO
p4255
sg33
VTO
p4256
sg35
I2
ssg10
I422
sg36
g4
sg37
(dp4257
sg39
(dp4258
sg41
I2487
sg42
g21
sg43
g21
sg44
I422
sg45
Vto
p4259
sg47
I422
sg48
I2489
sbag0
(g23
g2
Ntp4260
Rp4261
(dp4262
g27
(dp4263
g29
VBaroness
p4264
sg31
VPERSON
p4265
sg33
VNNP
p4266
sg35
I3
ssg10
I423
sg36
g4
sg37
(dp4267
sg39
(dp4268
sg41
I2490
sg42
g21
sg43
g21
sg44
I423
sg45
VBaroness
p4269
sg47
I423
sg48
I2498
sbag0
(g23
g2
Ntp4270
Rp4271
(dp4272
g27
(dp4273
g29
VNeville-Jones
p4274
sg31
VPERSON
p4275
sg33
VNNP
p4276
sg35
I4
ssg10
I424
sg36
g4
sg37
(dp4277
sg39
(dp4278
sg41
I2499
sg42
g21
sg43
g21
sg44
I424
sg45
VNeville-Jones
p4279
sg47
I424
sg48
I2512
sbag0
(g23
g2
Ntp4280
Rp4281
(dp4282
g27
(dp4283
g29
V,
p4284
sg31
VO
p4285
sg33
V,
p4286
sg35
I5
ssg10
I425
sg36
g4
sg37
(dp4287
sg39
(dp4288
sg41
I2512
sg42
g21
sg43
g21
sg44
I425
sg45
V,
p4289
sg47
I425
sg48
I2513
sbag0
(g23
g2
Ntp4290
Rp4291
(dp4292
g27
(dp4293
g29
VSecurity
p4294
sg31
VO
p4295
sg33
VNNP
p4296
sg35
I6
ssg10
I426
sg36
g4
sg37
(dp4297
sg39
(dp4298
sg41
I2514
sg42
g21
sg43
g21
sg44
I426
sg45
VSecurity
p4299
sg47
I426
sg48
I2522
sbag0
(g23
g2
Ntp4300
Rp4301
(dp4302
g27
(dp4303
g29
VMinister
p4304
sg31
VO
p4305
sg33
VNNP
p4306
sg35
I7
ssg10
I427
sg36
g4
sg37
(dp4307
sg39
(dp4308
sg41
I2523
sg42
g21
sg43
g21
sg44
I427
sg45
VMinister
p4309
sg47
I427
sg48
I2531
sbag0
(g23
g2
Ntp4310
Rp4311
(dp4312
g27
(dp4313
g29
Vof
p4314
sg31
VO
p4315
sg33
VIN
p4316
sg35
I8
ssg10
I428
sg36
g4
sg37
(dp4317
sg39
(dp4318
sg41
I2532
sg42
g21
sg43
g21
sg44
I428
sg45
Vof
p4319
sg47
I428
sg48
I2534
sbag0
(g23
g2
Ntp4320
Rp4321
(dp4322
g27
(dp4323
g29
VBritain
p4324
sg31
VLOCATION
p4325
sg33
VNNP
p4326
sg35
I9
ssg10
I429
sg36
g4
sg37
(dp4327
sg39
(dp4328
sg41
I2535
sg42
g21
sg43
g21
sg44
I429
sg45
VBritain
p4329
sg47
I429
sg48
I2542
sbag0
(g23
g2
Ntp4330
Rp4331
(dp4332
g27
(dp4333
g29
V,
p4334
sg31
VO
p4335
sg33
V,
p4336
sg35
I10
ssg10
I430
sg36
g4
sg37
(dp4337
sg39
(dp4338
sg41
I2542
sg42
g21
sg43
g21
sg44
I430
sg45
V,
p4339
sg47
I430
sg48
I2543
sbag0
(g23
g2
Ntp4340
Rp4341
(dp4342
g27
(dp4343
g29
Vextremism
p4344
sg31
VO
p4345
sg33
VNN
p4346
sg35
I11
ssg10
I431
sg36
g4
sg37
(dp4347
sg39
(dp4348
sg41
I2544
sg42
g21
sg43
g21
sg44
I431
sg45
Vextremism
p4349
sg47
I431
sg48
I2553
sbag0
(g23
g2
Ntp4350
Rp4351
(dp4352
g27
(dp4353
g29
Vmean
p4354
sg31
VO
p4355
sg33
VVBD
p4356
sg35
I12
ssg10
I432
sg36
g4
sg37
(dp4357
sg39
(dp4358
sg41
I2554
sg42
g21
sg43
g21
sg44
I432
sg45
Vmeant
p4359
sg47
I432
sg48
I2559
sbag0
(g23
g2
Ntp4360
Rp4361
(dp4362
g27
(dp4363
g29
Vall
p4364
sg31
VO
p4365
sg33
VDT
p4366
sg35
I13
ssg10
I433
sg36
g4
sg37
(dp4367
sg39
(dp4368
sg41
I2560
sg42
g21
sg43
g21
sg44
I433
sg45
Vall
p4369
sg47
I433
sg48
I2563
sbag0
(g23
g2
Ntp4370
Rp4371
(dp4372
g27
(dp4373
g29
Vform
p4374
sg31
VO
p4375
sg33
VNNS
p4376
sg35
I14
ssg10
I434
sg36
g4
sg37
(dp4377
sg39
(dp4378
sg41
I2564
sg42
g21
sg43
g21
sg44
I434
sg45
Vforms
p4379
sg47
I434
sg48
I2569
sbag0
(g23
g2
Ntp4380
Rp4381
(dp4382
g27
(dp4383
g29
Vbut
p4384
sg31
VO
p4385
sg33
VCC
p4386
sg35
I15
ssg10
I435
sg36
g4
sg37
(dp4387
sg39
(dp4388
sg41
I2570
sg42
g21
sg43
g21
sg44
I435
sg45
Vbut
p4389
sg47
I435
sg48
I2573
sbag0
(g23
g2
Ntp4390
Rp4391
(dp4392
g27
(dp4393
g29
Vnot
p4394
sg31
VO
p4395
sg33
VRB
p4396
sg35
I16
ssg10
I436
sg36
g4
sg37
(dp4397
sg39
(dp4398
sg41
I2574
sg42
g21
sg43
g21
sg44
I436
sg45
Vnot
p4399
sg47
I436
sg48
I2577
sbag0
(g23
g2
Ntp4400
Rp4401
(dp4402
g27
(dp4403
g29
Vjust
p4404
sg31
VO
p4405
sg33
VRB
p4406
sg35
I17
ssg10
I437
sg36
g4
sg37
(dp4407
sg39
(dp4408
sg41
I2578
sg42
g21
sg43
g21
sg44
I437
sg45
Vjust
p4409
sg47
I437
sg48
I2582
sbag0
(g23
g2
Ntp4410
Rp4411
(dp4412
g27
(dp4413
g29
Vislamist
p4414
sg31
VO
p4415
sg33
VJJ
p4416
sg35
I18
ssg10
I438
sg36
g4
sg37
(dp4417
sg39
(dp4418
sg41
I2583
sg42
g21
sg43
g21
sg44
I438
sg45
Vislamist
p4419
sg47
I438
sg48
I2591
sbag0
(g23
g2
Ntp4420
Rp4421
(dp4422
g27
(dp4423
g29
Vextremism
p4424
sg31
VO
p4425
sg33
VNN
p4426
sg35
I19
ssg10
I439
sg36
g4
sg37
(dp4427
sg39
(dp4428
sg41
I2592
sg42
g21
sg43
g21
sg44
I439
sg45
Vextremism
p4429
sg47
I439
sg48
I2601
sbag0
(g23
g2
Ntp4430
Rp4431
(dp4432
g27
(dp4433
g29
V.
p4434
sg31
VO
p4435
sg33
V.
p4436
sg35
I20
ssg10
I440
sg36
g4
sg37
(dp4437
sg39
(dp4438
sg41
I2601
sg42
g21
sg43
g21
sg44
I440
sg45
V.
p4439
sg47
I440
sg48
I2602
sbag0
(g23
g2
Ntp4440
Rp4441
(dp4442
g27
(dp4443
g29
VAjmal
p4444
sg31
VPERSON
p4445
sg33
VNNP
p4446
sg35
I1
ssg10
I441
sg36
g4
sg37
(dp4447
sg39
(dp4448
sg41
I2603
sg42
g21
sg43
g21
sg44
I441
sg45
VAjmal
p4449
sg47
I441
sg48
I2608
sbag0
(g23
g2
Ntp4450
Rp4451
(dp4452
g27
(dp4453
g29
VMasroor
p4454
sg31
VPERSON
p4455
sg33
VNNP
p4456
sg35
I2
ssg10
I442
sg36
g4
sg37
(dp4457
sg39
(dp4458
sg41
I2609
sg42
g21
sg43
g21
sg44
I442
sg45
VMasroor
p4459
sg47
I442
sg48
I2616
sbag0
(g23
g2
Ntp4460
Rp4461
(dp4462
g27
(dp4463
g29
V,
p4464
sg31
VO
p4465
sg33
V,
p4466
sg35
I3
ssg10
I443
sg36
g4
sg37
(dp4467
sg39
(dp4468
sg41
I2616
sg42
g21
sg43
g21
sg44
I443
sg45
V,
p4469
sg47
I443
sg48
I2617
sbag0
(g23
g2
Ntp4470
Rp4471
(dp4472
g27
(dp4473
g29
Vof
p4474
sg31
VO
p4475
sg33
VIN
p4476
sg35
I4
ssg10
I444
sg36
g4
sg37
(dp4477
sg39
(dp4478
sg41
I2618
sg42
g21
sg43
g21
sg44
I444
sg45
Vof
p4479
sg47
I444
sg48
I2620
sbag0
(g23
g2
Ntp4480
Rp4481
(dp4482
g27
(dp4483
g29
Vthe
p4484
sg31
VO
p4485
sg33
VDT
p4486
sg35
I5
ssg10
I445
sg36
g4
sg37
(dp4487
sg39
(dp4488
sg41
I2621
sg42
g21
sg43
g21
sg44
I445
sg45
Vthe
p4489
sg47
I445
sg48
I2624
sbag0
(g23
g2
Ntp4490
Rp4491
(dp4492
g27
(dp4493
g29
Vislamic
p4494
sg31
VORGANIZATION
p4495
sg33
VJJ
p4496
sg35
I6
ssg10
I446
sg36
g4
sg37
(dp4497
sg39
(dp4498
sg41
I2625
sg42
g21
sg43
g21
sg44
I446
sg45
VIslamic
p4499
sg47
I446
sg48
I2632
sbag0
(g23
g2
Ntp4500
Rp4501
(dp4502
g27
(dp4503
g29
Vsociety
p4504
sg31
VORGANIZATION
p4505
sg33
VNN
p4506
sg35
I7
ssg10
I447
sg36
g4
sg37
(dp4507
sg39
(dp4508
sg41
I2633
sg42
g21
sg43
g21
sg44
I447
sg45
VSociety
p4509
sg47
I447
sg48
I2640
sbag0
(g23
g2
Ntp4510
Rp4511
(dp4512
g27
(dp4513
g29
Vof
p4514
sg31
VORGANIZATION
p4515
sg33
VIN
p4516
sg35
I8
ssg10
I448
sg36
g4
sg37
(dp4517
sg39
(dp4518
sg41
I2641
sg42
g21
sg43
g21
sg44
I448
sg45
Vof
p4519
sg47
I448
sg48
I2643
sbag0
(g23
g2
Ntp4520
Rp4521
(dp4522
g27
(dp4523
g29
VBritain
p4524
sg31
VORGANIZATION
p4525
sg33
VNNP
p4526
sg35
I9
ssg10
I449
sg36
g4
sg37
(dp4527
sg39
(dp4528
sg41
I2644
sg42
g21
sg43
g21
sg44
I449
sg45
VBritain
p4529
sg47
I449
sg48
I2651
sbag0
(g23
g2
Ntp4530
Rp4531
(dp4532
g27
(dp4533
g29
V,
p4534
sg31
VO
p4535
sg33
V,
p4536
sg35
I10
ssg10
I450
sg36
g4
sg37
(dp4537
sg39
(dp4538
sg41
I2651
sg42
g21
sg43
g21
sg44
I450
sg45
V,
p4539
sg47
I450
sg48
I2652
sbag0
(g23
g2
Ntp4540
Rp4541
(dp4542
g27
(dp4543
g29
Vreject
p4544
sg31
VO
p4545
sg33
VVBD
p4546
sg35
I11
ssg10
I451
sg36
g4
sg37
(dp4547
sg39
(dp4548
sg41
I2653
sg42
g21
sg43
g21
sg44
I451
sg45
Vrejected
p4549
sg47
I451
sg48
I2661
sbag0
(g23
g2
Ntp4550
Rp4551
(dp4552
g27
(dp4553
g29
Vit
p4554
sg31
VO
p4555
sg33
VPRP
p4556
sg35
I12
ssg10
I452
sg36
g4
sg37
(dp4557
sg39
(dp4558
sg41
I2662
sg42
g21
sg43
g21
sg44
I452
sg45
Vit
p4559
sg47
I452
sg48
I2664
sbag0
(g23
g2
Ntp4560
Rp4561
(dp4562
g27
(dp4563
g29
V,
p4564
sg31
VO
p4565
sg33
V,
p4566
sg35
I13
ssg10
I453
sg36
g4
sg37
(dp4567
sg39
(dp4568
sg41
I2664
sg42
g21
sg43
g21
sg44
I453
sg45
V,
p4569
sg47
I453
sg48
I2665
sbag0
(g23
g2
Ntp4570
Rp4571
(dp4572
g27
(dp4573
g29
Vsay
p4574
sg31
VO
p4575
sg33
VVBG
p4576
sg35
I14
ssg10
I454
sg36
g4
sg37
(dp4577
sg39
(dp4578
sg41
I2666
sg42
g21
sg43
g21
sg44
I454
sg45
Vsaying
p4579
sg47
I454
sg48
I2672
sbag0
(g23
g2
Ntp4580
Rp4581
(dp4582
g27
(dp4583
g29
Vthat
p4584
sg31
VO
p4585
sg33
VIN
p4586
sg35
I15
ssg10
I455
sg36
g4
sg37
(dp4587
sg39
(dp4588
sg41
I2673
sg42
g21
sg43
g21
sg44
I455
sg45
Vthat
p4589
sg47
I455
sg48
I2677
sbag0
(g23
g2
Ntp4590
Rp4591
(dp4592
g27
(dp4593
g29
Vnational
p4594
sg31
VO
p4595
sg33
VJJ
p4596
sg35
I16
ssg10
I456
sg36
g4
sg37
(dp4597
sg39
(dp4598
sg41
I2678
sg42
g21
sg43
g21
sg44
I456
sg45
Vnational
p4599
sg47
I456
sg48
I2686
sbag0
(g23
g2
Ntp4600
Rp4601
(dp4602
g27
(dp4603
g29
Videntity
p4604
sg31
VO
p4605
sg33
VNN
p4606
sg35
I17
ssg10
I457
sg36
g4
sg37
(dp4607
sg39
(dp4608
sg41
I2687
sg42
g21
sg43
g21
sg44
I457
sg45
Videntity
p4609
sg47
I457
sg48
I2695
sbag0
(g23
g2
Ntp4610
Rp4611
(dp4612
g27
(dp4613
g29
V,
p4614
sg31
VO
p4615
sg33
V,
p4616
sg35
I18
ssg10
I458
sg36
g4
sg37
(dp4617
sg39
(dp4618
sg41
I2695
sg42
g21
sg43
g21
sg44
I458
sg45
V,
p4619
sg47
I458
sg48
I2696
sbag0
(g23
g2
Ntp4620
Rp4621
(dp4622
g27
(dp4623
g29
Vmulticulturalism
p4624
sg31
VO
p4625
sg33
VNN
p4626
sg35
I19
ssg10
I459
sg36
g4
sg37
(dp4627
sg39
(dp4628
sg41
I2697
sg42
g21
sg43
g21
sg44
I459
sg45
Vmulticulturalism
p4629
sg47
I459
sg48
I2713
sbag0
(g23
g2
Ntp4630
Rp4631
(dp4632
g27
(dp4633
g29
Vand
p4634
sg31
VO
p4635
sg33
VCC
p4636
sg35
I20
ssg10
I460
sg36
g4
sg37
(dp4637
sg39
(dp4638
sg41
I2714
sg42
g21
sg43
g21
sg44
I460
sg45
Vand
p4639
sg47
I460
sg48
I2717
sbag0
(g23
g2
Ntp4640
Rp4641
(dp4642
g27
(dp4643
g29
Vextremism
p4644
sg31
VO
p4645
sg33
VNN
p4646
sg35
I21
ssg10
I461
sg36
g4
sg37
(dp4647
sg39
(dp4648
sg41
I2718
sg42
g21
sg43
g21
sg44
I461
sg45
Vextremism
p4649
sg47
I461
sg48
I2727
sbag0
(g23
g2
Ntp4650
Rp4651
(dp4652
g27
(dp4653
g29
Vbe
p4654
sg31
VO
p4655
sg33
VVBP
p4656
sg35
I22
ssg10
I462
sg36
g4
sg37
(dp4657
sg39
(dp4658
sg41
I2728
sg42
g21
sg43
g21
sg44
I462
sg45
Vare
p4659
sg47
I462
sg48
I2731
sbag0
(g23
g2
Ntp4660
Rp4661
(dp4662
g27
(dp4663
g29
Vnot
p4664
sg31
VO
p4665
sg33
VRB
p4666
sg35
I23
ssg10
I463
sg36
g4
sg37
(dp4667
sg39
(dp4668
sg41
I2732
sg42
g21
sg43
g21
sg44
I463
sg45
Vnot
p4669
sg47
I463
sg48
I2735
sbag0
(g23
g2
Ntp4670
Rp4671
(dp4672
g27
(dp4673
g29
Vconnect
p4674
sg31
VO
p4675
sg33
VVBN
p4676
sg35
I24
ssg10
I464
sg36
g4
sg37
(dp4677
sg39
(dp4678
sg41
I2736
sg42
g21
sg43
g21
sg44
I464
sg45
Vconnected
p4679
sg47
I464
sg48
I2745
sbag0
(g23
g2
Ntp4680
Rp4681
(dp4682
g27
(dp4683
g29
V.
p4684
sg31
VO
p4685
sg33
V.
p4686
sg35
I25
ssg10
I465
sg36
g4
sg37
(dp4687
sg39
(dp4688
sg41
I2745
sg42
g21
sg43
g21
sg44
I465
sg45
V.
p4689
sg47
I465
sg48
I2746
sbag0
(g23
g2
Ntp4690
Rp4691
(dp4692
g27
(dp4693
g29
VPresident
p4694
sg31
VO
p4695
sg33
VNNP
p4696
sg35
I1
ssg10
I466
sg36
g4
sg37
(dp4697
sg39
(dp4698
sg41
I2749
sg42
g21
sg43
g21
sg44
I466
sg45
VPresident
p4699
sg47
I466
sg48
I2758
sbag0
(g23
g2
Ntp4700
Rp4701
(dp4702
g27
(dp4703
g29
VNicolas
p4704
sg31
VPERSON
p4705
sg33
VNNP
p4706
sg35
I2
ssg10
I467
sg36
g4
sg37
(dp4707
sg39
(dp4708
sg41
I2759
sg42
g21
sg43
g21
sg44
I467
sg45
VNicolas
p4709
sg47
I467
sg48
I2766
sbag0
(g23
g2
Ntp4710
Rp4711
(dp4712
g27
(dp4713
g29
VSarkozy
p4714
sg31
VPERSON
p4715
sg33
VNNP
p4716
sg35
I3
ssg10
I468
sg36
g4
sg37
(dp4717
sg39
(dp4718
sg41
I2767
sg42
g21
sg43
g21
sg44
I468
sg45
VSarkozy
p4719
sg47
I468
sg48
I2774
sbag0
(g23
g2
Ntp4720
Rp4721
(dp4722
g27
(dp4723
g29
Vof
p4724
sg31
VO
p4725
sg33
VIN
p4726
sg35
I4
ssg10
I469
sg36
g4
sg37
(dp4727
sg39
(dp4728
sg41
I2775
sg42
g21
sg43
g21
sg44
I469
sg45
Vof
p4729
sg47
I469
sg48
I2777
sbag0
(g23
g2
Ntp4730
Rp4731
(dp4732
g27
(dp4733
g29
VFrance
p4734
sg31
VLOCATION
p4735
sg33
VNNP
p4736
sg35
I5
ssg10
I470
sg36
g4
sg37
(dp4737
sg39
(dp4738
sg41
I2778
sg42
g21
sg43
g21
sg44
I470
sg45
VFrance
p4739
sg47
I470
sg48
I2784
sbag0
(g23
g2
Ntp4740
Rp4741
(dp4742
g27
(dp4743
g29
Vhave
p4744
sg31
VO
p4745
sg33
VVBZ
p4746
sg35
I6
ssg10
I471
sg36
g4
sg37
(dp4747
sg39
(dp4748
sg41
I2785
sg42
g21
sg43
g21
sg44
I471
sg45
Vhas
p4749
sg47
I471
sg48
I2788
sbag0
(g23
g2
Ntp4750
Rp4751
(dp4752
g27
(dp4753
g29
Vsay
p4754
sg31
VO
p4755
sg33
VVBD
p4756
sg35
I7
ssg10
I472
sg36
g4
sg37
(dp4757
sg39
(dp4758
sg41
I2789
sg42
g21
sg43
g21
sg44
I472
sg45
Vsaid
p4759
sg47
I472
sg48
I2793
sbag0
(g23
g2
Ntp4760
Rp4761
(dp4762
g27
(dp4763
g29
Vthat
p4764
sg31
VO
p4765
sg33
VIN
p4766
sg35
I8
ssg10
I473
sg36
g4
sg37
(dp4767
sg39
(dp4768
sg41
I2794
sg42
g21
sg43
g21
sg44
I473
sg45
Vthat
p4769
sg47
I473
sg48
I2798
sbag0
(g23
g2
Ntp4770
Rp4771
(dp4772
g27
(dp4773
g29
Vhe
p4774
sg31
VO
p4775
sg33
VPRP
p4776
sg35
I9
ssg10
I474
sg36
g4
sg37
(dp4777
sg39
(dp4778
sg41
I2799
sg42
g21
sg43
g21
sg44
I474
sg45
Vhe
p4779
sg47
I474
sg48
I2801
sbag0
(g23
g2
Ntp4780
Rp4781
(dp4782
g27
(dp4783
g29
Vagree
p4784
sg31
VO
p4785
sg33
VVBZ
p4786
sg35
I10
ssg10
I475
sg36
g4
sg37
(dp4787
sg39
(dp4788
sg41
I2802
sg42
g21
sg43
g21
sg44
I475
sg45
Vagrees
p4789
sg47
I475
sg48
I2808
sbag0
(g23
g2
Ntp4790
Rp4791
(dp4792
g27
(dp4793
g29
Vwith
p4794
sg31
VO
p4795
sg33
VIN
p4796
sg35
I11
ssg10
I476
sg36
g4
sg37
(dp4797
sg39
(dp4798
sg41
I2809
sg42
g21
sg43
g21
sg44
I476
sg45
Vwith
p4799
sg47
I476
sg48
I2813
sbag0
(g23
g2
Ntp4800
Rp4801
(dp4802
g27
(dp4803
g29
VCameron
p4804
sg31
VPERSON
p4805
sg33
VNNP
p4806
sg35
I12
ssg10
I477
sg36
g4
sg37
(dp4807
sg39
(dp4808
sg41
I2814
sg42
g21
sg43
g21
sg44
I477
sg45
VCameron
p4809
sg47
I477
sg48
I2821
sbag0
(g23
g2
Ntp4810
Rp4811
(dp4812
g27
(dp4813
g29
V-lsb-
p4814
sg31
VO
p4815
sg33
V-LRB-
p4816
sg35
I13
ssg10
I478
sg36
g4
sg37
(dp4817
sg39
(dp4818
sg41
I2822
sg42
g21
sg43
g21
sg44
I478
sg45
V[
p4819
sg47
I478
sg48
I2823
sbag0
(g23
g2
Ntp4820
Rp4821
(dp4822
g27
(dp4823
g29
VREF
p4824
sg31
VO
p4825
sg33
VNNP
p4826
sg35
I14
ssg10
I479
sg36
g4
sg37
(dp4827
sg39
(dp4828
sg41
I2823
sg42
g21
sg43
g21
sg44
I479
sg45
VREF
p4829
sg47
I479
sg48
I2826
sbag0
(g23
g2
Ntp4830
Rp4831
(dp4832
g27
(dp4833
g29
V-rsb-
p4834
sg31
VO
p4835
sg33
V-RRB-
p4836
sg35
I15
ssg10
I480
sg36
g4
sg37
(dp4837
sg39
(dp4838
sg41
I2826
sg42
g21
sg43
g21
sg44
I480
sg45
V]
p4839
sg47
I480
sg48
I2827
sbag0
(g23
g2
Ntp4840
Rp4841
(dp4842
g27
(dp4843
g29
V.
p4844
sg31
VO
p4845
sg33
V.
p4846
sg35
I16
ssg10
I481
sg36
g4
sg37
(dp4847
sg39
(dp4848
sg41
I2827
sg42
g21
sg43
g21
sg44
I481
sg45
V.
p4849
sg47
I481
sg48
I2828
sbag0
(g23
g2
Ntp4850
Rp4851
(dp4852
g27
(dp4853
g29
Vit
p4854
sg31
VO
p4855
sg33
VPRP
p4856
sg35
I1
ssg10
I482
sg36
g4
sg37
(dp4857
sg39
(dp4858
sg41
I2830
sg42
g21
sg43
g21
sg44
I482
sg45
VIt
p4859
sg47
I482
sg48
I2832
sbag0
(g23
g2
Ntp4860
Rp4861
(dp4862
g27
(dp4863
g29
Vbe
p4864
sg31
VO
p4865
sg33
VVBZ
p4866
sg35
I2
ssg10
I483
sg36
g4
sg37
(dp4867
sg39
(dp4868
sg41
I2833
sg42
g21
sg43
g21
sg44
I483
sg45
Vis
p4869
sg47
I483
sg48
I2835
sbag0
(g23
g2
Ntp4870
Rp4871
(dp4872
g27
(dp4873
g29
Vgenerally
p4874
sg31
VO
p4875
sg33
VRB
p4876
sg35
I3
ssg10
I484
sg36
g4
sg37
(dp4877
sg39
(dp4878
sg41
I2836
sg42
g21
sg43
g21
sg44
I484
sg45
Vgenerally
p4879
sg47
I484
sg48
I2845
sbag0
(g23
g2
Ntp4880
Rp4881
(dp4882
g27
(dp4883
g29
Vrecognise
p4884
sg31
VO
p4885
sg33
VVBN
p4886
sg35
I4
ssg10
I485
sg36
g4
sg37
(dp4887
sg39
(dp4888
sg41
I2846
sg42
g21
sg43
g21
sg44
I485
sg45
Vrecognised
p4889
sg47
I485
sg48
I2856
sbag0
(g23
g2
Ntp4890
Rp4891
(dp4892
g27
(dp4893
g29
Vthat
p4894
sg31
VO
p4895
sg33
VIN
p4896
sg35
I5
ssg10
I486
sg36
g4
sg37
(dp4897
sg39
(dp4898
sg41
I2857
sg42
g21
sg43
g21
sg44
I486
sg45
Vthat
p4899
sg47
I486
sg48
I2861
sbag0
(g23
g2
Ntp4900
Rp4901
(dp4902
g27
(dp4903
g29
VCameron
p4904
sg31
VPERSON
p4905
sg33
VNNP
p4906
sg35
I6
ssg10
I487
sg36
g4
sg37
(dp4907
sg39
(dp4908
sg41
I2862
sg42
g21
sg43
g21
sg44
I487
sg45
VCameron
p4909
sg47
I487
sg48
I2869
sbag0
(g23
g2
Ntp4910
Rp4911
(dp4912
g27
(dp4913
g29
Vbe
p4914
sg31
VO
p4915
sg33
VVBD
p4916
sg35
I7
ssg10
I488
sg36
g4
sg37
(dp4917
sg39
(dp4918
sg41
I2870
sg42
g21
sg43
g21
sg44
I488
sg45
Vwas
p4919
sg47
I488
sg48
I2873
sbag0
(g23
g2
Ntp4920
Rp4921
(dp4922
g27
(dp4923
g29
Vinfluence
p4924
sg31
VO
p4925
sg33
VVBN
p4926
sg35
I8
ssg10
I489
sg36
g4
sg37
(dp4927
sg39
(dp4928
sg41
I2874
sg42
g21
sg43
g21
sg44
I489
sg45
Vinfluenced
p4929
sg47
I489
sg48
I2884
sbag0
(g23
g2
Ntp4930
Rp4931
(dp4932
g27
(dp4933
g29
Vby
p4934
sg31
VO
p4935
sg33
VIN
p4936
sg35
I9
ssg10
I490
sg36
g4
sg37
(dp4937
sg39
(dp4938
sg41
I2885
sg42
g21
sg43
g21
sg44
I490
sg45
Vby
p4939
sg47
I490
sg48
I2887
sbag0
(g23
g2
Ntp4940
Rp4941
(dp4942
g27
(dp4943
g29
VSir
p4944
sg31
VO
p4945
sg33
VNNP
p4946
sg35
I10
ssg10
I491
sg36
g4
sg37
(dp4947
sg39
(dp4948
sg41
I2888
sg42
g21
sg43
g21
sg44
I491
sg45
VSir
p4949
sg47
I491
sg48
I2891
sbag0
(g23
g2
Ntp4950
Rp4951
(dp4952
g27
(dp4953
g29
VKarl
p4954
sg31
VPERSON
p4955
sg33
VNNP
p4956
sg35
I11
ssg10
I492
sg36
g4
sg37
(dp4957
sg39
(dp4958
sg41
I2892
sg42
g21
sg43
g21
sg44
I492
sg45
VKarl
p4959
sg47
I492
sg48
I2896
sbag0
(g23
g2
Ntp4960
Rp4961
(dp4962
g27
(dp4963
g29
VPopper
p4964
sg31
VPERSON
p4965
sg33
VNNP
p4966
sg35
I12
ssg10
I493
sg36
g4
sg37
(dp4967
sg39
(dp4968
sg41
I2897
sg42
g21
sg43
g21
sg44
I493
sg45
VPopper
p4969
sg47
I493
sg48
I2903
sbag0
(g23
g2
Ntp4970
Rp4971
(dp4972
g27
(dp4973
g29
Vwhen
p4974
sg31
VO
p4975
sg33
VWRB
p4976
sg35
I13
ssg10
I494
sg36
g4
sg37
(dp4977
sg39
(dp4978
sg41
I2904
sg42
g21
sg43
g21
sg44
I494
sg45
Vwhen
p4979
sg47
I494
sg48
I2908
sbag0
(g23
g2
Ntp4980
Rp4981
(dp4982
g27
(dp4983
g29
Vhe
p4984
sg31
VO
p4985
sg33
VPRP
p4986
sg35
I14
ssg10
I495
sg36
g4
sg37
(dp4987
sg39
(dp4988
sg41
I2905
sg42
g21
sg43
g21
sg44
I495
sg45
Vhe
p4989
sg47
I495
sg48
I2907
sbag0
(g23
g2
Ntp4990
Rp4991
(dp4992
g27
(dp4993
g29
Vwrite
p4994
sg31
VO
p4995
sg33
VVBD
p4996
sg35
I15
ssg10
I496
sg36
g4
sg37
(dp4997
sg39
(dp4998
sg41
I2912
sg42
g21
sg43
g21
sg44
I496
sg45
Vwrote
p4999
sg47
I496
sg48
I2917
sbag0
(g23
g2
Ntp5000
Rp5001
(dp5002
g27
(dp5003
g29
Vabout
p5004
sg31
VO
p5005
sg33
VIN
p5006
sg35
I16
ssg10
I497
sg36
g4
sg37
(dp5007
sg39
(dp5008
sg41
I2918
sg42
g21
sg43
g21
sg44
I497
sg45
Vabout
p5009
sg47
I497
sg48
I2923
sbag0
(g23
g2
Ntp5010
Rp5011
(dp5012
g27
(dp5013
g29
Vthe
p5014
sg31
VO
p5015
sg33
VDT
p5016
sg35
I17
ssg10
I498
sg36
g4
sg37
(dp5017
sg39
(dp5018
sg41
I2924
sg42
g21
sg43
g21
sg44
I498
sg45
Vthe
p5019
sg47
I498
sg48
I2927
sbag0
(g23
g2
Ntp5020
Rp5021
(dp5022
g27
(dp5023
g29
V``
p5024
sg31
VO
p5025
sg33
V``
p5026
sg35
I18
ssg10
I499
sg36
g4
sg37
(dp5027
sg39
(dp5028
sg41
I2928
sg42
g21
sg43
g21
sg44
I499
sg45
g488
sg47
I499
sg48
I2929
sbag0
(g23
g2
Ntp5029
Rp5030
(dp5031
g27
(dp5032
g29
Vparadox
p5033
sg31
VO
p5034
sg33
VNN
p5035
sg35
I19
ssg10
I500
sg36
g4
sg37
(dp5036
sg39
(dp5037
sg41
I2929
sg42
g21
sg43
g21
sg44
I500
sg45
Vparadox
p5038
sg47
I500
sg48
I2936
sbag0
(g23
g2
Ntp5039
Rp5040
(dp5041
g27
(dp5042
g29
Vof
p5043
sg31
VO
p5044
sg33
VIN
p5045
sg35
I20
ssg10
I501
sg36
g4
sg37
(dp5046
sg39
(dp5047
sg41
I2937
sg42
g21
sg43
g21
sg44
I501
sg45
Vof
p5048
sg47
I501
sg48
I2939
sbag0
(g23
g2
Ntp5049
Rp5050
(dp5051
g27
(dp5052
g29
Vtolerance
p5053
sg31
VO
p5054
sg33
VNN
p5055
sg35
I21
ssg10
I502
sg36
g4
sg37
(dp5056
sg39
(dp5057
sg41
I2940
sg42
g21
sg43
g21
sg44
I502
sg45
Vtolerance
p5058
sg47
I502
sg48
I2949
sbag0
(g23
g2
Ntp5059
Rp5060
(dp5061
g27
(dp5062
g29
V''
p5063
sg31
VO
p5064
sg33
V''
p5065
sg35
I22
ssg10
I503
sg36
g4
sg37
(dp5066
sg39
(dp5067
sg41
I2949
sg42
g21
sg43
g21
sg44
I503
sg45
g488
sg47
I503
sg48
I2950
sbag0
(g23
g2
Ntp5068
Rp5069
(dp5070
g27
(dp5071
g29
V.
p5072
sg31
VO
p5073
sg33
V.
p5074
sg35
I23
ssg10
I504
sg36
g4
sg37
(dp5075
sg39
(dp5076
sg41
I2950
sg42
g21
sg43
g21
sg44
I504
sg45
V.
p5077
sg47
I504
sg48
I2951
sbag0
(g23
g2
Ntp5078
Rp5079
(dp5080
g27
(dp5081
g29
Vwhen
p5082
sg31
VO
p5083
sg33
VWRB
p5084
sg35
I1
ssg10
I505
sg36
g4
sg37
(dp5085
sg39
(dp5086
sg41
I2952
sg42
g21
sg43
g21
sg44
I505
sg45
VWhen
p5087
sg47
I505
sg48
I2956
sbag0
(g23
g2
Ntp5088
Rp5089
(dp5090
g27
(dp5091
g29
Vintolerance
p5092
sg31
VO
p5093
sg33
VNN
p5094
sg35
I2
ssg10
I506
sg36
g4
sg37
(dp5095
sg39
(dp5096
sg41
I2957
sg42
g21
sg43
g21
sg44
I506
sg45
Vintolerance
p5097
sg47
I506
sg48
I2968
sbag0
(g23
g2
Ntp5098
Rp5099
(dp5100
g27
(dp5101
g29
Vbe
p5102
sg31
VO
p5103
sg33
VVBZ
p5104
sg35
I3
ssg10
I507
sg36
g4
sg37
(dp5105
sg39
(dp5106
sg41
I2969
sg42
g21
sg43
g21
sg44
I507
sg45
Vis
p5107
sg47
I507
sg48
I2971
sbag0
(g23
g2
Ntp5108
Rp5109
(dp5110
g27
(dp5111
g29
Vtolerate
p5112
sg31
VO
p5113
sg33
VVBN
p5114
sg35
I4
ssg10
I508
sg36
g4
sg37
(dp5115
sg39
(dp5116
sg41
I2972
sg42
g21
sg43
g21
sg44
I508
sg45
Vtolerated
p5117
sg47
I508
sg48
I2981
sbag0
(g23
g2
Ntp5118
Rp5119
(dp5120
g27
(dp5121
g29
V,
p5122
sg31
VO
p5123
sg33
V,
p5124
sg35
I5
ssg10
I509
sg36
g4
sg37
(dp5125
sg39
(dp5126
sg41
I2981
sg42
g21
sg43
g21
sg44
I509
sg45
V,
p5127
sg47
I509
sg48
I2982
sbag0
(g23
g2
Ntp5128
Rp5129
(dp5130
g27
(dp5131
g29
Vtolerance
p5132
sg31
VO
p5133
sg33
VNN
p5134
sg35
I6
ssg10
I510
sg36
g4
sg37
(dp5135
sg39
(dp5136
sg41
I2983
sg42
g21
sg43
g21
sg44
I510
sg45
Vtolerance
p5137
sg47
I510
sg48
I2992
sbag0
(g23
g2
Ntp5138
Rp5139
(dp5140
g27
(dp5141
g29
Vitself
p5142
sg31
VO
p5143
sg33
VPRP
p5144
sg35
I7
ssg10
I511
sg36
g4
sg37
(dp5145
sg39
(dp5146
sg41
I2993
sg42
g21
sg43
g21
sg44
I511
sg45
Vitself
p5147
sg47
I511
sg48
I2999
sbag0
(g23
g2
Ntp5148
Rp5149
(dp5150
g27
(dp5151
g29
Vbe
p5152
sg31
VO
p5153
sg33
VVBZ
p5154
sg35
I8
ssg10
I512
sg36
g4
sg37
(dp5155
sg39
(dp5156
sg41
I3000
sg42
g21
sg43
g21
sg44
I512
sg45
Vis
p5157
sg47
I512
sg48
I3002
sbag0
(g23
g2
Ntp5158
Rp5159
(dp5160
g27
(dp5161
g29
Vthreaten
p5162
sg31
VO
p5163
sg33
VVBN
p5164
sg35
I9
ssg10
I513
sg36
g4
sg37
(dp5165
sg39
(dp5166
sg41
I3003
sg42
g21
sg43
g21
sg44
I513
sg45
Vthreatened
p5167
sg47
I513
sg48
I3013
sbag0
(g23
g2
Ntp5168
Rp5169
(dp5170
g27
(dp5171
g29
V.
p5172
sg31
VO
p5173
sg33
V.
p5174
sg35
I10
ssg10
I514
sg36
g4
sg37
(dp5175
sg39
(dp5176
sg41
I3013
sg42
g21
sg43
g21
sg44
I514
sg45
V.
p5177
sg47
I514
sg48
I3014
sbasS'Document'
p5178
(lp5179
g4
asS'doc-features'
p5180
g14
sS'Sentence'
p5181
(lp5182
g0
(g23
g2
Ntp5183
Rp5184
(dp5185
g27
(dp5186
S'dep-parse'
p5187
S'not implemented!'
p5188
sg35
I0
sS'constituency-parse'
p5189
V(ROOT\u000a  (S\u000a    (NP (JJ Muscular) (NN liberalism))\u000a    (VP (VBZ is)\u000a      (NP\u000a        (NP (DT a) (NN form))\u000a        (PP (IN of)\u000a          (NP\u000a            (NP (NN liberalism))\u000a            (VP (VBN advocated)\u000a              (PP (IN by)\u000a                (NP\u000a                  (NP (JJ British) (NNP Prime) (NNP Minister) (NNP David) (NNP Cameron))\u000a                  (SBAR\u000a                    (WHNP (IN that))\u000a                    (S\u000a                      (VP (VBZ describes)\u000a                        (NP (PRP$ his) (NN policy))\u000a                        (PP (IN towards)\u000a                          (NP (NN state) (NN multiculturalism) (-LRB- -LSB-) (NN REF) (-RRB- -RSB-)))))))))))))\u000a    (. .)))
p5190
ssg10
I0
sg36
g4
sg37
(dp5191
sg39
(dp5192
S'tokens'
p5193
(lp5194
g25
ag50
ag60
ag70
ag80
ag90
ag100
ag110
ag120
ag130
ag140
ag150
ag160
ag170
ag180
ag190
ag200
ag210
ag220
ag230
ag240
ag250
ag260
ag270
ag280
assg41
I0
sg42
g5181
sg43
g5181
sg44
I0
sg45
VMuscular liberalism is a form of liberalism advocated by British Prime Minister David Cameron that describes his policy towards state multiculturalism [REF].
p5195
sg47
I25
sg48
I157
sbag0
(g23
g2
Ntp5196
Rp5197
(dp5198
g27
(dp5199
g5187
g5188
sg35
I1
sg5189
V(ROOT\u000a  (S\u000a    (NP (NNP Cameron))\u000a    (VP (VBD coined)\u000a      (NP (DT the) (NN term))\u000a      (PP (IN in)\u000a        (NP\u000a          (NP (DT a) (NN speech))\u000a          (PP (IN in)\u000a            (NP (NNP Munich)))))\u000a      (PP (IN on)\u000a        (NP (CD 5)))\u000a      (NP-TMP (NNP February) (CD 2011)))\u000a    (. .)))
p5200
ssg10
I1
sg36
g4
sg37
(dp5201
sg39
(dp5202
g5193
(lp5203
g290
ag300
ag310
ag320
ag330
ag340
ag350
ag360
ag370
ag380
ag390
ag400
ag410
ag420
assg41
I160
sg42
g5181
sg43
g5181
sg44
I25
sg45
V \u000a\u000aCameron coined the term in a speech in Munich on 5 February 2011.
p5204
sg47
I39
sg48
I225
sbag0
(g23
g2
Ntp5205
Rp5206
(dp5207
g27
(dp5208
g5187
g5188
sg35
I2
sg5189
V(ROOT\u000a  (S\u000a    (PP (VBG According)\u000a      (PP (TO to)\u000a        (NP (NNP David) (NNP Cameron))))\u000a    (, ,) (`` ``)\u000a    (PP (IN Under)\u000a      (NP\u000a        (NP (DT the) (NN doctrine))\u000a        (PP (IN of)\u000a          (NP (NN state) (NN multiculturalism)))))\u000a    (, ,)\u000a    (NP (PRP we))\u000a    (VP (VBP have)\u000a      (VP (VBN encouraged)\u000a        (NP (JJ different) (NNS cultures))\u000a        (S\u000a          (VP (TO to)\u000a            (VP (VB live)\u000a              (NP (JJ separate) (NNS lives)))))\u000a        (, ,)\u000a        (PP (RB apart)\u000a          (PP (IN from)\u000a            (NP (DT each) (JJ other)))\u000a          (CC and)\u000a          (RB apart)\u000a          (PP (IN from)\u000a            (NP (DT the) (NN mainstream))))))\u000a    (. .)))
p5209
ssg10
I2
sg36
g4
sg37
(dp5210
sg39
(dp5211
g5193
(lp5212
g430
ag440
ag450
ag460
ag470
ag480
ag490
ag500
ag510
ag520
ag530
ag540
ag550
ag560
ag570
ag580
ag590
ag600
ag610
ag620
ag630
ag640
ag650
ag660
ag670
ag680
ag690
ag700
ag710
ag720
ag730
ag740
ag750
assg41
I226
sg42
g5181
sg43
g5181
sg44
I39
sg45
V According to David Cameron, "Under the doctrine of state multiculturalism, we have encouraged different cultures to live separate lives, apart from each other and apart from the mainstream.
p5213
sg47
I72
sg48
I415
sbag0
(g23
g2
Ntp5214
Rp5215
(dp5216
g27
(dp5217
g5187
g5188
sg35
I3
sg5189
V(ROOT\u000a  (S\u000a    (NP (PRP We))\u000a    (VP (VBP 've)\u000a      (VP (VBN failed)\u000a        (S\u000a          (VP (TO to)\u000a            (VP (VB provide)\u000a              (NP\u000a                (NP (DT a) (NN vision))\u000a                (PP (IN of)\u000a                  (NP (NN society)))\u000a                (SBAR\u000a                  (WHPP (TO to)\u000a                    (WHNP (WDT which)))\u000a                  (S\u000a                    (NP (PRP they))\u000a                    (VP (VBP feel)\u000a                      (SBAR\u000a                        (S\u000a                          (NP (PRP they))\u000a                          (VP (VBP want)\u000a                            (S\u000a                              (VP (TO to)\u000a                                (VP (VB belong))))))))))))))))\u000a    (. .) ('' '')))
p5218
ssg10
I3
sg36
g4
sg37
(dp5219
sg39
(dp5220
g5193
(lp5221
g760
ag770
ag780
ag790
ag800
ag810
ag820
ag830
ag840
ag850
ag860
ag870
ag880
ag890
ag900
ag910
ag920
ag930
ag940
assg41
I416
sg42
g5181
sg43
g5181
sg44
I72
sg45
V We've failed to provide a vision of society to which they feel they want to belong."
p5222
sg47
I91
sg48
I500
sbag0
(g23
g2
Ntp5223
Rp5224
(dp5225
g27
(dp5226
g5187
g5188
sg35
I4
sg5189
V(ROOT\u000a  (S\u000a    (NP (-LRB- -LSB-) (NN REF))\u000a    (VP (-RRB- -RSB-))\u000a    (. .)))
p5227
ssg10
I4
sg36
g4
sg37
(dp5228
sg39
(dp5229
g5193
(lp5230
g949
ag959
ag969
ag979
assg41
I500
sg42
g5181
sg43
g5181
sg44
I91
sg45
V[REF] .
p5231
sg47
I95
sg48
I507
sbag0
(g23
g2
Ntp5232
Rp5233
(dp5234
g27
(dp5235
g5187
g5188
sg35
I5
sg5189
V(ROOT\u000a  (S\u000a    (NP (NNS Critics)\u000a      (CC and)\u000a      (NNS speculators))\u000a    (VP (VBP believe)\u000a      (SBAR\u000a        (S\u000a          (NP (`` ``) (JJ muscular) (NN liberalism) ('' ''))\u000a          (VP (MD will)\u000a            (VP (VB be)\u000a              (NP\u000a                (NP (DT the) (JJ new))\u000a                (`` ``)\u000a                (NP (FW ism))\u000a                ('' ''))\u000a              (SBAR\u000a                (WHNP (WDT which))\u000a                (S\u000a                  (NP (NNP Britain))\u000a                  (VP (MD will)\u000a                    (VP (VB follow)\u000a                      (S\u000a                        (VP (TO to)\u000a                          (VP (VB tackle)\u000a                            (S\u000a                              (VP (VBG growing)\u000a                                (NP (JJ religious) (NN terrorism)\u000a                                  (CC and)\u000a                                  (NN extremism)))))))))))\u000a              (, ,)\u000a              (S\u000a                (ADVP (RB subsequently))\u000a                (VP (VBN adapted)\u000a                  (PP (IN by)\u000a                    (NP\u000a                      (NP (DT all) (JJ European) (NNS countries))\u000a                      (PP (VBG including)\u000a                        (NP\u000a                          (NP (NNP Commonwealth) (NNPS Nations))\u000a                          (PP (-LRB- -LSB-)\u000a                            (NP (NN REF) (-RRB- -RSB-))))))))))))))\u000a    (. .)))
p5236
ssg10
I5
sg36
g4
sg37
(dp5237
sg39
(dp5238
g5193
(lp5239
g989
ag999
ag1009
ag1019
ag1029
ag1038
ag1048
ag1058
ag1067
ag1077
ag1087
ag1097
ag1107
ag1116
ag1126
ag1135
ag1145
ag1155
ag1165
ag1175
ag1185
ag1195
ag1205
ag1215
ag1225
ag1235
ag1245
ag1255
ag1265
ag1275
ag1285
ag1295
ag1305
ag1315
ag1325
ag1335
ag1345
ag1355
ag1365
ag1375
assg41
I510
sg42
g5181
sg43
g5181
sg44
I95
sg45
V \u000a\u000aCritics and speculators believe "muscular liberalism" will be the new "ism" which Britain will follow to tackle growing religious terrorism and extremism, subsequently adapted by all European countries including Commonwealth Nations [REF].
p5240
sg47
I135
sg48
I749
sbag0
(g23
g2
Ntp5241
Rp5242
(dp5243
g27
(dp5244
g5187
g5188
sg35
I6
sg5189
V(ROOT\u000a  (S\u000a    (NP (DT The) (NN theory))\u000a    (VP (VBZ is)\u000a      (SBAR (IN that)\u000a        (S\u000a          (NP (NN multiculturalism))\u000a          (VP (VBZ has)\u000a            (VP (VBN shifted)\u000a              (PP (IN from)\u000a                (S\u000a                  (VP (VBG tolerating)\u000a                    (NP (JJ multiple) (NNS cultures))\u000a                    (PP (TO to)\u000a                      (S\u000a                        (VP (VBG tolerating)\u000a                          (NP\u000a                            (NP (JJ multiple) (NN value) (NNS systems))\u000a                            (, ,)\u000a                            (SBAR\u000a                              (WHNP (WDT which))\u000a                              (S\u000a                                (VP (MD can)\u000a                                  (VP (VB be)\u000a                                    (ADJP (JJ hostile)\u000a                                      (PP (TO to)\u000a                                        (NP (NN liberalism) (-LRB- -LSB-) (NN REF) (-RRB- -RSB-))))))))))))))))))))\u000a    (. .)))
p5245
ssg10
I6
sg36
g4
sg37
(dp5246
sg39
(dp5247
g5193
(lp5248
g1385
ag1395
ag1405
ag1415
ag1425
ag1435
ag1445
ag1455
ag1465
ag1475
ag1485
ag1495
ag1505
ag1515
ag1525
ag1535
ag1545
ag1555
ag1565
ag1575
ag1585
ag1595
ag1605
ag1615
ag1625
ag1635
ag1645
assg41
I751
sg42
g5181
sg43
g5181
sg44
I135
sg45
V\u000a\u000aThe theory is that multiculturalism has shifted from tolerating multiple cultures to tolerating multiple value systems, which can be hostile to liberalism [REF].
p5249
sg47
I162
sg48
I912
sbag0
(g23
g2
Ntp5250
Rp5251
(dp5252
g27
(dp5253
g5187
g5188
sg35
I7
sg5189
V(ROOT\u000a  (S\u000a    (NP (NNP Cameron))\u000a    (VP (VBD delivered)\u000a      (NP (DT these) (NNS principles))\u000a      (PP (IN during)\u000a        (NP\u000a          (NP\u000a            (NP (DT a) (NN speech))\u000a            (PP (IN on)\u000a              (NP (NN Radicalization))))\u000a          (CC and)\u000a          (NP\u000a            (NP (DT the) (NNS causes))\u000a            (PP (IN of)\u000a              (NP (NNP Terrorism))))))\u000a      (PP (IN at)\u000a        (NP (NNP European) (NNP Union) (JJ international) (NN conference)))\u000a      (PP (IN on)\u000a        (NP\u000a          (NP (NN Security) (NN Policy))\u000a          (PP (IN in)\u000a            (NP (NNP Munich)))))\u000a      (S\u000a        (VP (TO to)\u000a          (VP (VB tackle)\u000a            (NP (VBG growing) (NN terrorism))\u000a            (SBAR (RB so) (IN as)\u000a              (S\u000a                (VP (TO to)\u000a                  (VP (VB be)\u000a                    (ADJP\u000a                      (ADJP (RBR less) (JJ passive)\u000a                        (PP (IN towards)\u000a                          (NP (JJ religious) (NN hate)\u000a                            (CC and)\u000a                            (NN whip))))\u000a                      (PP (IN against)\u000a                        (S\u000a                          (VP (VBG growing)\u000a                            (NP (NN extremist) (NNS activists))\u000a                            (PP (IN through)\u000a                              (NP (JJ Muscular) (NN Liberalism)))))))))))))))\u000a    (. .)))
p5254
ssg10
I7
sg36
g4
sg37
(dp5255
sg39
(dp5256
g5193
(lp5257
g1655
ag1665
ag1675
ag1685
ag1695
ag1705
ag1715
ag1725
ag1735
ag1745
ag1755
ag1765
ag1775
ag1785
ag1795
ag1805
ag1815
ag1825
ag1835
ag1845
ag1855
ag1865
ag1875
ag1885
ag1895
ag1905
ag1915
ag1925
ag1935
ag1945
ag1955
ag1965
ag1975
ag1985
ag1995
ag2005
ag2015
ag2025
ag2035
ag2045
ag2055
ag2065
ag2075
ag2085
ag2095
ag2105
ag2115
assg41
I915
sg42
g5181
sg43
g5181
sg44
I162
sg45
V \u000a\u000aCameron delivered these principles during a speech on Radicalization and the causes of \u000aTerrorism at European Union international conference on Security Policy in Munich\u000ato tackle growing terrorism so as to be less passive towards religious hate and whip \u000aagainst growing extremist activists through Muscular Liberalism.
p5258
sg47
I209
sg48
I1235
sbag0
(g23
g2
Ntp5259
Rp5260
(dp5261
g27
(dp5262
g5187
g5188
sg35
I8
sg5189
V(ROOT\u000a  (NP\u000a    (NP (NN Ban) (NNS preachers))\u000a    (PP (IN of)\u000a      (NP\u000a        (NP (NN hate))\u000a        (PP (IN from)\u000a          (S\u000a            (VP (VBG coming)\u000a              (PP (TO to)\u000a                (NP (DT the) (NN host) (NN country))))))))\u000a    (. .)))
p5263
ssg10
I8
sg36
g4
sg37
(dp5264
sg39
(dp5265
g5193
(lp5266
g2125
ag2135
ag2145
ag2155
ag2165
ag2175
ag2185
ag2195
ag2205
ag2215
ag2225
assg41
I1237
sg42
g5181
sg43
g5181
sg44
I209
sg45
V\u000a\u000aBan preachers of hate from coming to the host country.
p5267
sg47
I220
sg48
I1291
sbag0
(g23
g2
Ntp5268
Rp5269
(dp5270
g27
(dp5271
g5187
g5188
sg35
I9
sg5189
V(ROOT\u000a  (S\u000a    (ADVP (RB Strictly))\u000a    (VP (VB prevent)\u000a      (NP\u000a        (NP (DT the) (NN allocation))\u000a        (PP (IN of)\u000a          (NP (JJ public) (NN money)\u000a            (CC and)\u000a            (NNS donations))))\u000a      (PP (TO to)\u000a        (NP (NNS groups)\u000a          (S (RB not)\u000a            (VP (VBG being)\u000a              (VP (VBN used)\u000a                (S\u000a                  (VP (TO to)\u000a                    (VP (VB tackle)\u000a                      (NP (NNS extremists)))))))))))\u000a    (. .)))
p5272
ssg10
I9
sg36
g4
sg37
(dp5273
sg39
(dp5274
g5193
(lp5275
g2235
ag2245
ag2255
ag2265
ag2275
ag2285
ag2295
ag2305
ag2315
ag2325
ag2335
ag2345
ag2355
ag2365
ag2375
ag2385
ag2395
ag2405
assg41
I1293
sg42
g5181
sg43
g5181
sg44
I220
sg45
V \u000aStrictly prevent the allocation of public money and donations to groups not being used to tackle extremists.
p5276
sg47
I238
sg48
I1401
sbag0
(g23
g2
Ntp5277
Rp5278
(dp5279
g27
(dp5280
g5187
g5188
sg35
I10
sg5189
V(ROOT\u000a  (PP (VBG Barring)\u000a    (NP\u000a      (NP (NNS organisations))\u000a      (SBAR\u000a        (WHNP (WDT that))\u000a        (S\u000a          (VP (VBP incite)\u000a            (NP (NN terrorism))\u000a            (PP (IN at)\u000a              (NP\u000a                (NP (NN host) (NN country))\u000a                (CC and)\u000a                (NP (RB abroad))))))))\u000a    (. .)))
p5281
ssg10
I10
sg36
g4
sg37
(dp5282
sg39
(dp5283
g5193
(lp5284
g2415
ag2425
ag2435
ag2445
ag2455
ag2465
ag2475
ag2485
ag2495
ag2505
ag2515
assg41
I1403
sg42
g5181
sg43
g5181
sg44
I238
sg45
V \u000aBarring organisations that incite terrorism at host country and abroad.
p5285
sg47
I249
sg48
I1474
sbag0
(g23
g2
Ntp5286
Rp5287
(dp5288
g27
(dp5289
g5187
g5188
sg35
I11
sg5189
V(ROOT\u000a  (S\u000a    (VP (VBG Judging)\u000a      (S\u000a        (NP (DT the) (JJ religious) (NNS organisations) (NN acceptability))\u000a        (VP (TO to)\u000a          (VP\u000a            (VP (VB operate)\u000a              (PP (IN in)\u000a                (NP (NN host) (NN country)))\u000a              (PP (VBN based)\u000a                (PP (IN on)\u000a                  (NP\u000a                    (NP (JJ universal) (JJ human) (NNS rights))\u000a                    (, ,)\u000a                    (NP\u000a                      (NP (NN support))\u000a                      (PP (IN for)\u000a                        (NP (NN democracy))))))))\u000a            (CC and)\u000a            (VP (VB encourage)\u000a              (NP (NN integration))\u000a              (PP (IN with)\u000a                (NP (NN host) (NN country) (JJ basic) (NNS values))))))))\u000a    (. .)))
p5290
ssg10
I11
sg36
g4
sg37
(dp5291
sg39
(dp5292
g5193
(lp5293
g2525
ag2535
ag2545
ag2555
ag2565
ag2575
ag2585
ag2595
ag2605
ag2615
ag2625
ag2635
ag2645
ag2655
ag2665
ag2675
ag2685
ag2695
ag2705
ag2715
ag2725
ag2735
ag2745
ag2755
ag2765
ag2775
ag2785
ag2795
assg41
I1476
sg42
g5181
sg43
g5181
sg44
I249
sg45
V \u000aJudging the religious organisations acceptability to operate in host country based on universal human rights, support for democracy and encourage integration with host country basic values.
p5294
sg47
I277
sg48
I1665
sbag0
(g23
g2
Ntp5295
Rp5296
(dp5297
g27
(dp5298
g5187
g5188
sg35
I12
sg5189
V(ROOT\u000a  (S\u000a    (S\u000a      (VP (VBG Strengthening)\u000a        (NP (JJ national) (NN identity))\u000a        (PP (IN by)\u000a          (S\u000a            (VP (VBG allowing)\u000a              (NP (NNS people))\u000a              (S\u000a                (VP (TO to)\u000a                  (VP (VB follow)\u000a                    (NP (PRP$ their) (NN religion))))))))))\u000a    (VP\u000a      (ADVP (CC but))\u000a      (VBP subscribe)\u000a      (PP (TO to)\u000a        (NP\u000a          (NP (DT the) (NN identity))\u000a          (PP (IN of)\u000a            (NP (PRP$ their) (NN host) (NN country)))))\u000a      (, ,)\u000a      (PP (IN by)\u000a        (S\u000a          (VP (VBG saying)\u000a            (SBAR\u000a              (S (`` ``)\u000a                (S\u000a                  (NP (PRP I))\u000a                  (VP (VBP am)\u000a                    (NP (DT a) (JJ Muslim))))\u000a                (, ,)\u000a                (S\u000a                  (NP (PRP I))\u000a                  (VP (VBP am)\u000a                    (NP (DT a) (NNP Hindu))))\u000a                (, ,)\u000a                (S\u000a                  (NP (PRP I))\u000a                  (VP (VBP am)\u000a                    (NP (DT a) (NNP Christian))))\u000a                (, ,)\u000a                (CC but)\u000a                (S\u000a                  (NP (PRP I))\u000a                  (VP (VBP am)\u000a                    (NP (DT a) (NNP Londoner))\u000a                    (ADVP (RB too))))\u000a                ('' '')))))))\u000a    (. .)))
p5299
ssg10
I12
sg36
g4
sg37
(dp5300
sg39
(dp5301
g5193
(lp5302
g2805
ag2815
ag2825
ag2835
ag2845
ag2855
ag2865
ag2875
ag2885
ag2895
ag2905
ag2915
ag2925
ag2935
ag2945
ag2955
ag2965
ag2975
ag2985
ag2995
ag3005
ag3015
ag3025
ag3034
ag3044
ag3054
ag3064
ag3074
ag3084
ag3094
ag3104
ag3114
ag3124
ag3134
ag3144
ag3154
ag3164
ag3174
ag3184
ag3194
ag3204
ag3214
ag3224
ag3234
ag3244
ag3253
assg41
I1667
sg42
g5181
sg43
g5181
sg44
I277
sg45
V \u000aStrengthening national identity by allowing people to follow their religion but subscribe to the identity of their host country, by saying "I am a Muslim, I am a Hindu, I am a Christian, but I am a Londoner too".
p5303
sg47
I323
sg48
I1879
sbag0
(g23
g2
Ntp5304
Rp5305
(dp5306
g27
(dp5307
g5187
g5188
sg35
I13
sg5189
V(ROOT\u000a  (NP\u000a    (NP (NNP Prevention))\u000a    (PP (IN of)\u000a      (NP (NN extremism)))\u000a    (PP (IN in)\u000a      (NP (NNS universities)\u000a        (CC and)\u000a        (NNS prisons)))\u000a    (. .)))
p5308
ssg10
I13
sg36
g4
sg37
(dp5309
sg39
(dp5310
g5193
(lp5311
g3263
ag3273
ag3283
ag3293
ag3303
ag3313
ag3323
ag3333
assg41
I1881
sg42
g5181
sg43
g5181
sg44
I323
sg45
V \u000aPrevention of extremism in universities and prisons.
p5312
sg47
I331
sg48
I1933
sbag0
(g23
g2
Ntp5313
Rp5314
(dp5315
g27
(dp5316
g5187
g5188
sg35
I14
sg5189
V(ROOT\u000a  (S\u000a    (VP (VBG Promoting)\u000a      (NP\u000a        (NP (NNS ideals))\u000a        (PP (IN of)\u000a          (NP (NN democracy)))\u000a        (SBAR\u000a          (WHADVP (WRB where))\u000a          (S\u000a            (NP (NNS people))\u000a            (VP (VBP elect)\u000a              (NP (PRP$ their) (JJ own) (NN government)))))))\u000a    (. .)))
p5317
ssg10
I14
sg36
g4
sg37
(dp5318
sg39
(dp5319
g5193
(lp5320
g3343
ag3353
ag3363
ag3373
ag3383
ag3393
ag3403
ag3413
ag3423
ag3433
ag3443
assg41
I1935
sg42
g5181
sg43
g5181
sg44
I331
sg45
V\u000a\u000aPromoting ideals of democracy where people elect their own government.
p5321
sg47
I342
sg48
I2005
sbag0
(g23
g2
Ntp5322
Rp5323
(dp5324
g27
(dp5325
g5187
g5188
sg35
I15
sg5189
V(ROOT\u000a  (S\u000a    (VP (VBG Promoting)\u000a      (NP (JJ universal) (JJ human) (NNS rights))\u000a      (PP (IN with)\u000a        (NP (JJ equal) (NNS rights)))\u000a      (PP (TO to)\u000a        (NP\u000a          (NP (NNS women)\u000a            (CC and)\u000a            (NNS people))\u000a          (PP (IN of)\u000a            (NP (JJ other) (NNS faiths))))))\u000a    (. .)))
p5326
ssg10
I15
sg36
g4
sg37
(dp5327
sg39
(dp5328
g5193
(lp5329
g3453
ag3463
ag3473
ag3483
ag3493
ag3503
ag3513
ag3523
ag3533
ag3543
ag3553
ag3563
ag3573
ag3583
ag3593
assg41
I2007
sg42
g5181
sg43
g5181
sg44
I342
sg45
V \u000aPromoting universal human rights with equal rights to women and people of other faiths.
p5330
sg47
I357
sg48
I2094
sbag0
(g23
g2
Ntp5331
Rp5332
(dp5333
g27
(dp5334
g5187
g5188
sg35
I16
sg5189
V(ROOT\u000a  (NP\u000a    (NP (NNP Freedom))\u000a    (PP (IN of)\u000a      (NP (NN worship)\u000a        (CC and)\u000a        (NN speech)))\u000a    (. .)))
p5335
ssg10
I16
sg36
g4
sg37
(dp5336
sg39
(dp5337
g5193
(lp5338
g3603
ag3613
ag3623
ag3633
ag3643
ag3653
assg41
I2096
sg42
g5181
sg43
g5181
sg44
I357
sg45
V \u000aFreedom of worship and speech.
p5339
sg47
I363
sg48
I2126
sbag0
(g23
g2
Ntp5340
Rp5341
(dp5342
g27
(dp5343
g5187
g5188
sg35
I17
sg5189
V(ROOT\u000a  (S\u000a    (VP (VBG Promoting)\u000a      (NP (JJ equal) (NNS rights))\u000a      (ADVP (RB irrespective)\u000a        (PP (IN of)\u000a          (NP (NN race) (, ,) (NN sex)\u000a            (CC or)\u000a            (NN sexuality)))))\u000a    (. .)))
p5344
ssg10
I17
sg36
g4
sg37
(dp5345
sg39
(dp5346
g5193
(lp5347
g3663
ag3673
ag3683
ag3693
ag3703
ag3713
ag3723
ag3733
ag3743
ag3753
ag3763
assg41
I2128
sg42
g5181
sg43
g5181
sg44
I363
sg45
V \u000aPromoting equal rights irrespective of race, sex or sexuality.
p5348
sg47
I374
sg48
I2190
sbag0
(g23
g2
Ntp5349
Rp5350
(dp5351
g27
(dp5352
g5187
g5188
sg35
I18
sg5189
V(ROOT\u000a  (NP\u000a    (NP (DT The) (NN rule))\u000a    (PP (IN of)\u000a      (NP (NN law)))\u000a    (. .)))
p5353
ssg10
I18
sg36
g4
sg37
(dp5354
sg39
(dp5355
g5193
(lp5356
g3773
ag3783
ag3793
ag3803
ag3813
assg41
I2192
sg42
g5181
sg43
g5181
sg44
I374
sg45
V \u000aThe rule of law.
p5357
sg47
I379
sg48
I2208
sbag0
(g23
g2
Ntp5358
Rp5359
(dp5360
g27
(dp5361
g5187
g5188
sg35
I19
sg5189
V(ROOT\u000a  (S\u000a    (NP\u000a      (NP (DT The) (NN speech))\u000a      (CC and)\u000a      (NP (DT the) (NNS principles)))\u000a    (VP (VBD angered)\u000a      (NP (DT the) (JJ Muslim) (NN group))\u000a      (SBAR (IN as)\u000a        (S\u000a          (NP (NNP David) (NNP Cameron))\u000a          (VP (VBD called)\u000a            (PP (IN for)\u000a              (NP\u000a                (NP (DT a) (JJR tougher) (NN stance))\u000a                (PP (IN against)\u000a                  (NP (JJ islamist) (NN terrorism)))))\u000a            (SBAR (IN while)\u000a              (S\u000a                (VP (VBG differentiating)\u000a                  (NP\u000a                    (NP (NNP Islam))\u000a                    (PP (IN from)\u000a                      (NP (NNP Islamic) (NN terrorism))))\u000a                  (PP (IN as)\u000a                    (NP\u000a                      (NP (DT an) (NN ideology))\u000a                      (SBAR\u000a                        (WHNP (WDT which))\u000a                        (S\u000a                          (VP (VBD attracted)\u000a                            (NP\u000a                              (NP (NNS people))\u000a                              (SBAR\u000a                                (WHNP (WP who))\u000a                                (S\u000a                                  (VP (VBP feel) (`` ``)\u000a                                    (ADJP (JJ rootless))\u000a                                    ('' '')\u000a                                    (PP (IN within)\u000a                                      (NP (PRP$ their) (JJ own) (NNS countries)))))))))))))))))))\u000a    (. .)))
p5362
ssg10
I19
sg36
g4
sg37
(dp5363
sg39
(dp5364
g5193
(lp5365
g3823
ag3833
ag3843
ag3853
ag3863
ag3873
ag3883
ag3893
ag3903
ag3913
ag3923
ag3933
ag3943
ag3953
ag3963
ag3973
ag3983
ag3993
ag4003
ag4013
ag4023
ag4033
ag4043
ag4053
ag4063
ag4073
ag4083
ag4093
ag4103
ag4113
ag4123
ag4133
ag4143
ag4153
ag4163
ag4172
ag4182
ag4191
ag4201
ag4211
ag4221
ag4231
assg41
I2210
sg42
g5181
sg43
g5181
sg44
I379
sg45
V\u000a\u000aThe speech and the principles angered the Muslim group as David Cameron called for \u000aa tougher stance against islamist terrorism while differentiating Islam from Islamic terrorism as an ideology which attracted people who feel "rootless" within their own countries.
p5366
sg47
I421
sg48
I2474
sbag0
(g23
g2
Ntp5367
Rp5368
(dp5369
g27
(dp5370
g5187
g5188
sg35
I20
sg5189
V(ROOT\u000a  (S\u000a    (PP (VBG According)\u000a      (PP (TO to)\u000a        (NP\u000a          (NP (NNP Baroness) (NNP Neville-Jones))\u000a          (, ,)\u000a          (NP\u000a            (NP (NNP Security) (NNP Minister))\u000a            (PP (IN of)\u000a              (NP (NNP Britain)))))))\u000a    (, ,)\u000a    (NP (NN extremism))\u000a    (VP (VBD meant)\u000a      (NP\u000a        (NP (DT all) (NNS forms))\u000a        (CONJP (CC but)\u000a          (RB not))\u000a        (NP (RB just) (JJ islamist) (NN extremism))))\u000a    (. .)))
p5371
ssg10
I20
sg36
g4
sg37
(dp5372
sg39
(dp5373
g5193
(lp5374
g4241
ag4251
ag4261
ag4271
ag4281
ag4291
ag4301
ag4311
ag4321
ag4331
ag4341
ag4351
ag4361
ag4371
ag4381
ag4391
ag4401
ag4411
ag4421
ag4431
assg41
I2477
sg42
g5181
sg43
g5181
sg44
I421
sg45
V \u000a\u000aAccording to Baroness Neville-Jones, Security Minister of Britain, extremism meant all forms but not just islamist extremism.
p5375
sg47
I441
sg48
I2602
sbag0
(g23
g2
Ntp5376
Rp5377
(dp5378
g27
(dp5379
g5187
g5188
sg35
I21
sg5189
V(ROOT\u000a  (S\u000a    (NP\u000a      (NP (NNP Ajmal) (NNP Masroor))\u000a      (, ,)\u000a      (PP (IN of)\u000a        (NP\u000a          (NP (DT the) (JJ Islamic) (NN Society))\u000a          (PP (IN of)\u000a            (NP (NNP Britain)))))\u000a      (, ,))\u000a    (VP (VBD rejected)\u000a      (NP (PRP it))\u000a      (, ,)\u000a      (S\u000a        (VP (VBG saying)\u000a          (SBAR (IN that)\u000a            (S\u000a              (NP (JJ national) (NN identity) (, ,) (NN multiculturalism)\u000a                (CC and)\u000a                (NN extremism))\u000a              (VP (VBP are) (RB not)\u000a                (VP (VBN connected))))))))\u000a    (. .)))
p5380
ssg10
I21
sg36
g4
sg37
(dp5381
sg39
(dp5382
g5193
(lp5383
g4441
ag4451
ag4461
ag4471
ag4481
ag4491
ag4501
ag4511
ag4521
ag4531
ag4541
ag4551
ag4561
ag4571
ag4581
ag4591
ag4601
ag4611
ag4621
ag4631
ag4641
ag4651
ag4661
ag4671
ag4681
assg41
I2603
sg42
g5181
sg43
g5181
sg44
I441
sg45
V Ajmal Masroor, of the Islamic Society of Britain, rejected it, saying that national identity, multiculturalism and extremism are not connected.
p5384
sg47
I466
sg48
I2746
sbag0
(g23
g2
Ntp5385
Rp5386
(dp5387
g27
(dp5388
g5187
g5188
sg35
I22
sg5189
V(ROOT\u000a  (S\u000a    (NP\u000a      (NP (NNP President) (NNP Nicolas) (NNP Sarkozy))\u000a      (PP (IN of)\u000a        (NP (NNP France))))\u000a    (VP (VBZ has)\u000a      (VP (VBD said)\u000a        (SBAR (IN that)\u000a          (S\u000a            (NP (PRP he))\u000a            (VP (VBZ agrees)\u000a              (PP (IN with)\u000a                (NP (NNP Cameron) (-LRB- -LSB-) (NNP REF) (-RRB- -RSB-))))))))\u000a    (. .)))
p5389
ssg10
I22
sg36
g4
sg37
(dp5390
sg39
(dp5391
g5193
(lp5392
g4691
ag4701
ag4711
ag4721
ag4731
ag4741
ag4751
ag4761
ag4771
ag4781
ag4791
ag4801
ag4811
ag4821
ag4831
ag4841
assg41
I2749
sg42
g5181
sg43
g5181
sg44
I466
sg45
V \u000a\u000aPresident Nicolas Sarkozy of France has said that he agrees with Cameron [REF].
p5393
sg47
I482
sg48
I2828
sbag0
(g23
g2
Ntp5394
Rp5395
(dp5396
g27
(dp5397
g5187
g5188
sg35
I23
sg5189
V(ROOT\u000a  (S\u000a    (NP (PRP It))\u000a    (VP (VBZ is)\u000a      (VP\u000a        (ADVP (RB generally))\u000a        (VBN recognised)\u000a        (SBAR (IN that)\u000a          (S\u000a            (NP (NNP Cameron))\u000a            (VP (VBD was)\u000a              (VP (VBN influenced)\u000a                (PP (IN by)\u000a                  (NP\u000a                    (NP (NNP Sir) (NNP Karl) (NNP Popper))\u000a                    (SBAR\u000a                      (WHADVP (WRB when))\u000a                      (S\u000a                        (NP (PRP he))\u000a                        (VP (VBD wrote)\u000a                          (PP (IN about)\u000a                            (NP\u000a                              (NP (DT the) (`` ``) (NN paradox))\u000a                              (PP (IN of)\u000a                                (NP (NN tolerance))))))))))))))\u000a        ('' '')))\u000a    (. .)))
p5398
ssg10
I23
sg36
g4
sg37
(dp5399
sg39
(dp5400
g5193
(lp5401
g4851
ag4861
ag4871
ag4881
ag4891
ag4901
ag4911
ag4921
ag4931
ag4941
ag4951
ag4961
ag4971
ag4981
ag4991
ag5001
ag5011
ag5021
ag5030
ag5040
ag5050
ag5060
ag5069
assg41
I2830
sg42
g5181
sg43
g5181
sg44
I482
sg45
V\u000a\u000aIt is generally recognised that Cameron was influenced by Sir Karl Popper when he wrote about the "paradox of tolerance".
p5402
sg47
I505
sg48
I2951
sbag0
(g23
g2
Ntp5403
Rp5404
(dp5405
g27
(dp5406
g5187
g5188
sg35
I24
sg5189
V(ROOT\u000a  (S\u000a    (SBAR\u000a      (WHADVP (WRB When))\u000a      (S\u000a        (NP (NN intolerance))\u000a        (VP (VBZ is)\u000a          (VP (VBN tolerated)))))\u000a    (, ,)\u000a    (NP\u000a      (NP (NN tolerance))\u000a      (ADVP (PRP itself)))\u000a    (VP (VBZ is)\u000a      (VP (VBN threatened)))\u000a    (. .)))
p5407
ssg10
I24
sg36
g4
sg37
(dp5408
sg39
(dp5409
g5193
(lp5410
g5079
ag5089
ag5099
ag5109
ag5119
ag5129
ag5139
ag5149
ag5159
ag5169
assg41
I2952
sg42
g5181
sg43
g5181
sg44
I505
sg45
V When intolerance is tolerated, tolerance itself is threatened.
p5411
sg47
I515
sg48
I3014
sbassg37
(dp5412
sg39
(dp5413
sg47
I-1
sg5193
g22
sg42
g5178
sg36
Nsg27
(dp5414
sg44
I0
sg45
VMuscular liberalism is a form of liberalism advocated by British Prime Minister David Cameron that describes his policy towards state multiculturalism [REF]. \u000a\u000aCameron coined the term in a speech in Munich on 5 February 2011. According to David Cameron, "Under the doctrine of state multiculturalism, we have encouraged different cultures to live separate lives, apart from each other and apart from the mainstream. We've failed to provide a vision of society to which they feel they want to belong."[REF] . \u000a\u000aCritics and speculators believe "muscular liberalism" will be the new "ism" which Britain will follow to tackle growing religious terrorism and extremism, subsequently adapted by all European countries including Commonwealth Nations [REF].\u000a\u000aThe theory is that multiculturalism has shifted from tolerating multiple cultures to tolerating multiple value systems, which can be hostile to liberalism [REF]. \u000a\u000aCameron delivered these principles during a speech on Radicalization and the causes of \u000aTerrorism at European Union international conference on Security Policy in Munich\u000ato tackle growing terrorism so as to be less passive towards religious hate and whip \u000aagainst growing extremist activists through Muscular Liberalism.\u000a\u000aBan preachers of hate from coming to the host country. \u000aStrictly prevent the allocation of public money and donations to groups not being used to tackle extremists. \u000aBarring organisations that incite terrorism at host country and abroad. \u000aJudging the religious organisations acceptability to operate in host country based on universal human rights, support for democracy and encourage integration with host country basic values. \u000aStrengthening national identity by allowing people to follow their religion but subscribe to the identity of their host country, by saying "I am a Muslim, I am a Hindu, I am a Christian, but I am a Londoner too". \u000aPrevention of extremism in universities and prisons.\u000a\u000aPromoting ideals of democracy where people elect their own government. \u000aPromoting universal human rights with equal rights to women and people of other faiths. \u000aFreedom of worship and speech. \u000aPromoting equal rights irrespective of race, sex or sexuality. \u000aThe rule of law.\u000a\u000aThe speech and the principles angered the Muslim group as David Cameron called for \u000aa tougher stance against islamist terrorism while differentiating Islam from Islamic terrorism as an ideology which attracted people who feel "rootless" within their own countries. \u000a\u000aAccording to Baroness Neville-Jones, Security Minister of Britain, extremism meant all forms but not just islamist extremism. Ajmal Masroor, of the Islamic Society of Britain, rejected it, saying that national identity, multiculturalism and extremism are not connected. \u000a\u000aPresident Nicolas Sarkozy of France has said that he agrees with Cameron [REF].\u000a\u000aIt is generally recognised that Cameron was influenced by Sir Karl Popper when he wrote about the "paradox of tolerance". When intolerance is tolerated, tolerance itself is threatened.
p5415
sS'sents'
p5416
g5182
sg43
g5178
sg41
I0
sS'id'
p5417
g16
sg48
I3014
sS'sentFeatures'
p5418
(lp5419
sb.