ccopy_reg
_reconstructor
p0
(cpygate.doc
Document
p1
c__builtin__
object
p2
Ntp3
Rp4
(dp5
S'src'
p6
V. \u000a\u000aUniversal National Service Act of 2006, sponsored by Rep. Charles Rangel, was introduced into the U.S. House of Representatives on February 14, 2006. On February 23, 2006, it was referred to the House Subcommittee on Military Personnel. The bill was never enacted.\u000a\u000aRep. Rangel argued that the bill was necessary since in the case of a mandatory draft members of the U.S. Congress would be much less likely to authorize an unnecessary war if they knew that their own children and family members might be sent to fight it. He was quoted as saying:"There\u2019s no question in my mind that this president and this administration would never have invaded Iraq, especially on the flimsy evidence that was presented to the Congress if indeed we had a draft and members of Congress and the administration thought that their kids from their communities would be placed in harm\u2019s way"[REF] Rangel also argued that bringing back the draft would remedy the social disparity reflected by the fact the currently the burden of military service falls disproportionately on the poor and the minorities [REF]. Initially, the bill received little public, media or congressional attention [REF]. However, when after the Democratic victories in the November 2007 congressional elections, Rangel repeated his call for re-introduction of the draft and for moving forward on the bill[REF], a more active public discussion of the proposal followed. Most of the reaction in the media, Congress and by the public was negative[REF][REF][REF][REF][REF][REF], although occasional support for the idea was expressed as well [REF]. The military leadership expressed opposition to the idea [REF]. Many conservative critics charged that the bill on re-introducing the draft was simply a political maneuver by Rangel aimed to underscore the unpopularity of the Iraq War. The debate was largely over soon after the incoming Democratic House Speaker Nancy Pelosi indicated that she was not interested in advancing the bill to reintroduce the draft [REF].
p7
sS'string'
p8
S'. \n\nUniversal National Service Act of 2006, sponsored by Rep. Charles Rangel, was introduced into the U.S. House of Representatives on February 14, 2006. On February 23, 2006, it was referred to the House Subcommittee on Military Personnel. The bill was never enacted.\n\nRep. Rangel argued that the bill was necessary since in the case of a mandatory draft members of the U.S. Congress would be much less likely to authorize an unnecessary war if they knew that their own children and family members might be sent to fight it. He was quoted as saying:"There\xe2\x80\x99s no question in my mind that this president and this administration would never have invaded Iraq, especially on the flimsy evidence that was presented to the Congress if indeed we had a draft and members of Congress and the administration thought that their kids from their communities would be placed in harm\xe2\x80\x99s way"[REF] Rangel also argued that bringing back the draft would remedy the social disparity reflected by the fact the currently the burden of military service falls disproportionately on the poor and the minorities [REF]. Initially, the bill received little public, media or congressional attention [REF]. However, when after the Democratic victories in the November 2007 congressional elections, Rangel repeated his call for re-introduction of the draft and for moving forward on the bill[REF], a more active public discussion of the proposal followed. Most of the reaction in the media, Congress and by the public was negative[REF][REF][REF][REF][REF][REF], although occasional support for the idea was expressed as well [REF]. The military leadership expressed opposition to the idea [REF]. Many conservative critics charged that the bill on re-introducing the draft was simply a political maneuver by Rangel aimed to underscore the unpopularity of the Iraq War. The debate was largely over soon after the incoming Democratic House Speaker Nancy Pelosi indicated that she was not interested in advancing the bill to reintroduce the draft [REF].'
p9
sS'idx'
p10
I0
sS'tknFeatures'
p11
(lp12
sS'docFeatures'
p13
(dp14
S'file_id'
p15
S'National_Service_Act_of_2006'
p16
ssS'items'
p17
(dp18
S'raw'
p19
V. \u000a\u000aUniversal National Service Act of 2006, sponsored by Rep. Charles Rangel, was introduced into the U.S. House of Representatives on February 14, 2006. On February 23, 2006, it was referred to the House Subcommittee on Military Personnel. The bill was never enacted.\u000a\u000aRep. Rangel argued that the bill was necessary since in the case of a mandatory draft members of the U.S. Congress would be much less likely to authorize an unnecessary war if they knew that their own children and family members might be sent to fight it. He was quoted as saying:"There\u2019s no question in my mind that this president and this administration would never have invaded Iraq, especially on the flimsy evidence that was presented to the Congress if indeed we had a draft and members of Congress and the administration thought that their kids from their communities would be placed in harm\u2019s way"[REF] Rangel also argued that bringing back the draft would remedy the social disparity reflected by the fact the currently the burden of military service falls disproportionately on the poor and the minorities [REF]. Initially, the bill received little public, media or congressional attention [REF]. However, when after the Democratic victories in the November 2007 congressional elections, Rangel repeated his call for re-introduction of the draft and for moving forward on the bill[REF], a more active public discussion of the proposal followed. Most of the reaction in the media, Congress and by the public was negative[REF][REF][REF][REF][REF][REF], although occasional support for the idea was expressed as well [REF]. The military leadership expressed opposition to the idea [REF]. Many conservative critics charged that the bill on re-introducing the draft was simply a political maneuver by Rangel aimed to underscore the unpopularity of the Iraq War. The debate was largely over soon after the incoming Democratic House Speaker Nancy Pelosi indicated that she was not interested in advancing the bill to reintroduce the draft [REF].
p20
sS'Token'
p21
(lp22
g0
(cpygate.annotation
Annotation
p23
g2
Ntp24
Rp25
(dp26
S'features'
p27
(dp28
S'lemma'
p29
V.
p30
sS'ner'
p31
VO
p32
sS'pos'
p33
V.
p34
sS'index'
p35
I1
ssg10
I0
sS'doc'
p36
g4
sS'labels'
p37
(dp38
sS'relations'
p39
(dp40
sS'cStart'
p41
I0
sS'subType'
p42
g21
sS'annoType'
p43
g21
sS'tStart'
p44
I0
sS'text'
p45
V.
p46
sS'tEnd'
p47
I0
sS'cEnd'
p48
I1
sbag0
(g23
g2
Ntp49
Rp50
(dp51
g27
(dp52
g29
VUniversal
p53
sg31
VO
p54
sg33
VNNP
p55
sg35
I1
ssg10
I1
sg36
g4
sg37
(dp56
sg39
(dp57
sg41
I4
sg42
g21
sg43
g21
sg44
I1
sg45
VUniversal
p58
sg47
I1
sg48
I13
sbag0
(g23
g2
Ntp59
Rp60
(dp61
g27
(dp62
g29
VNational
p63
sg31
VO
p64
sg33
VNNP
p65
sg35
I2
ssg10
I2
sg36
g4
sg37
(dp66
sg39
(dp67
sg41
I14
sg42
g21
sg43
g21
sg44
I2
sg45
VNational
p68
sg47
I2
sg48
I22
sbag0
(g23
g2
Ntp69
Rp70
(dp71
g27
(dp72
g29
VService
p73
sg31
VO
p74
sg33
VNNP
p75
sg35
I3
ssg10
I3
sg36
g4
sg37
(dp76
sg39
(dp77
sg41
I23
sg42
g21
sg43
g21
sg44
I3
sg45
VService
p78
sg47
I3
sg48
I30
sbag0
(g23
g2
Ntp79
Rp80
(dp81
g27
(dp82
g29
VAct
p83
sg31
VO
p84
sg33
VNNP
p85
sg35
I4
ssg10
I4
sg36
g4
sg37
(dp86
sg39
(dp87
sg41
I31
sg42
g21
sg43
g21
sg44
I4
sg45
VAct
p88
sg47
I4
sg48
I34
sbag0
(g23
g2
Ntp89
Rp90
(dp91
g27
(dp92
g29
Vof
p93
sg31
VO
p94
sg33
VIN
p95
sg35
I5
ssg10
I5
sg36
g4
sg37
(dp96
sg39
(dp97
sg41
I35
sg42
g21
sg43
g21
sg44
I5
sg45
Vof
p98
sg47
I5
sg48
I37
sbag0
(g23
g2
Ntp99
Rp100
(dp101
g27
(dp102
g29
V2006
p103
sg31
VDATE
p104
sg33
VCD
p105
sg35
I6
ssg10
I6
sg36
g4
sg37
(dp106
sg39
(dp107
sg41
I38
sg42
g21
sg43
g21
sg44
I6
sg45
V2006
p108
sg47
I6
sg48
I42
sbag0
(g23
g2
Ntp109
Rp110
(dp111
g27
(dp112
g29
V,
p113
sg31
VO
p114
sg33
V,
p115
sg35
I7
ssg10
I7
sg36
g4
sg37
(dp116
sg39
(dp117
sg41
I42
sg42
g21
sg43
g21
sg44
I7
sg45
V,
p118
sg47
I7
sg48
I43
sbag0
(g23
g2
Ntp119
Rp120
(dp121
g27
(dp122
g29
Vsponsor
p123
sg31
VO
p124
sg33
VVBN
p125
sg35
I8
ssg10
I8
sg36
g4
sg37
(dp126
sg39
(dp127
sg41
I44
sg42
g21
sg43
g21
sg44
I8
sg45
Vsponsored
p128
sg47
I8
sg48
I53
sbag0
(g23
g2
Ntp129
Rp130
(dp131
g27
(dp132
g29
Vby
p133
sg31
VO
p134
sg33
VIN
p135
sg35
I9
ssg10
I9
sg36
g4
sg37
(dp136
sg39
(dp137
sg41
I54
sg42
g21
sg43
g21
sg44
I9
sg45
Vby
p138
sg47
I9
sg48
I56
sbag0
(g23
g2
Ntp139
Rp140
(dp141
g27
(dp142
g29
VRep.
p143
sg31
VO
p144
sg33
VNNP
p145
sg35
I10
ssg10
I10
sg36
g4
sg37
(dp146
sg39
(dp147
sg41
I57
sg42
g21
sg43
g21
sg44
I10
sg45
VRep.
p148
sg47
I10
sg48
I61
sbag0
(g23
g2
Ntp149
Rp150
(dp151
g27
(dp152
g29
VCharles
p153
sg31
VPERSON
p154
sg33
VNNP
p155
sg35
I11
ssg10
I11
sg36
g4
sg37
(dp156
sg39
(dp157
sg41
I62
sg42
g21
sg43
g21
sg44
I11
sg45
VCharles
p158
sg47
I11
sg48
I69
sbag0
(g23
g2
Ntp159
Rp160
(dp161
g27
(dp162
g29
VRangel
p163
sg31
VPERSON
p164
sg33
VNNP
p165
sg35
I12
ssg10
I12
sg36
g4
sg37
(dp166
sg39
(dp167
sg41
I70
sg42
g21
sg43
g21
sg44
I12
sg45
VRangel
p168
sg47
I12
sg48
I76
sbag0
(g23
g2
Ntp169
Rp170
(dp171
g27
(dp172
g29
V,
p173
sg31
VO
p174
sg33
V,
p175
sg35
I13
ssg10
I13
sg36
g4
sg37
(dp176
sg39
(dp177
sg41
I76
sg42
g21
sg43
g21
sg44
I13
sg45
V,
p178
sg47
I13
sg48
I77
sbag0
(g23
g2
Ntp179
Rp180
(dp181
g27
(dp182
g29
Vbe
p183
sg31
VO
p184
sg33
VVBD
p185
sg35
I14
ssg10
I14
sg36
g4
sg37
(dp186
sg39
(dp187
sg41
I78
sg42
g21
sg43
g21
sg44
I14
sg45
Vwas
p188
sg47
I14
sg48
I81
sbag0
(g23
g2
Ntp189
Rp190
(dp191
g27
(dp192
g29
Vintroduce
p193
sg31
VO
p194
sg33
VVBN
p195
sg35
I15
ssg10
I15
sg36
g4
sg37
(dp196
sg39
(dp197
sg41
I82
sg42
g21
sg43
g21
sg44
I15
sg45
Vintroduced
p198
sg47
I15
sg48
I92
sbag0
(g23
g2
Ntp199
Rp200
(dp201
g27
(dp202
g29
Vinto
p203
sg31
VO
p204
sg33
VIN
p205
sg35
I16
ssg10
I16
sg36
g4
sg37
(dp206
sg39
(dp207
sg41
I93
sg42
g21
sg43
g21
sg44
I16
sg45
Vinto
p208
sg47
I16
sg48
I97
sbag0
(g23
g2
Ntp209
Rp210
(dp211
g27
(dp212
g29
Vthe
p213
sg31
VO
p214
sg33
VDT
p215
sg35
I17
ssg10
I17
sg36
g4
sg37
(dp216
sg39
(dp217
sg41
I98
sg42
g21
sg43
g21
sg44
I17
sg45
Vthe
p218
sg47
I17
sg48
I101
sbag0
(g23
g2
Ntp219
Rp220
(dp221
g27
(dp222
g29
VU.S.
p223
sg31
VLOCATION
p224
sg33
VNNP
p225
sg35
I18
ssg10
I18
sg36
g4
sg37
(dp226
sg39
(dp227
sg41
I102
sg42
g21
sg43
g21
sg44
I18
sg45
VU.S.
p228
sg47
I18
sg48
I106
sbag0
(g23
g2
Ntp229
Rp230
(dp231
g27
(dp232
g29
VHouse
p233
sg31
VORGANIZATION
p234
sg33
VNNP
p235
sg35
I19
ssg10
I19
sg36
g4
sg37
(dp236
sg39
(dp237
sg41
I107
sg42
g21
sg43
g21
sg44
I19
sg45
VHouse
p238
sg47
I19
sg48
I112
sbag0
(g23
g2
Ntp239
Rp240
(dp241
g27
(dp242
g29
Vof
p243
sg31
VORGANIZATION
p244
sg33
VIN
p245
sg35
I20
ssg10
I20
sg36
g4
sg37
(dp246
sg39
(dp247
sg41
I113
sg42
g21
sg43
g21
sg44
I20
sg45
Vof
p248
sg47
I20
sg48
I115
sbag0
(g23
g2
Ntp249
Rp250
(dp251
g27
(dp252
g29
VRepresentatives
p253
sg31
VORGANIZATION
p254
sg33
VNNPS
p255
sg35
I21
ssg10
I21
sg36
g4
sg37
(dp256
sg39
(dp257
sg41
I116
sg42
g21
sg43
g21
sg44
I21
sg45
VRepresentatives
p258
sg47
I21
sg48
I131
sbag0
(g23
g2
Ntp259
Rp260
(dp261
g27
(dp262
g29
Von
p263
sg31
VO
p264
sg33
VIN
p265
sg35
I22
ssg10
I22
sg36
g4
sg37
(dp266
sg39
(dp267
sg41
I132
sg42
g21
sg43
g21
sg44
I22
sg45
Von
p268
sg47
I22
sg48
I134
sbag0
(g23
g2
Ntp269
Rp270
(dp271
g27
(dp272
g29
VFebruary
p273
sg31
VDATE
p274
sg33
VNNP
p275
sg35
I23
ssg10
I23
sg36
g4
sg37
(dp276
sg39
(dp277
sg41
I135
sg42
g21
sg43
g21
sg44
I23
sg45
VFebruary
p278
sg47
I23
sg48
I143
sbag0
(g23
g2
Ntp279
Rp280
(dp281
g27
(dp282
g29
V14
p283
sg31
VDATE
p284
sg33
VCD
p285
sg35
I24
ssg10
I24
sg36
g4
sg37
(dp286
sg39
(dp287
sg41
I144
sg42
g21
sg43
g21
sg44
I24
sg45
V14
p288
sg47
I24
sg48
I146
sbag0
(g23
g2
Ntp289
Rp290
(dp291
g27
(dp292
g29
V,
p293
sg31
VDATE
p294
sg33
V,
p295
sg35
I25
ssg10
I25
sg36
g4
sg37
(dp296
sg39
(dp297
sg41
I146
sg42
g21
sg43
g21
sg44
I25
sg45
V,
p298
sg47
I25
sg48
I147
sbag0
(g23
g2
Ntp299
Rp300
(dp301
g27
(dp302
g29
V2006
p303
sg31
VDATE
p304
sg33
VCD
p305
sg35
I26
ssg10
I26
sg36
g4
sg37
(dp306
sg39
(dp307
sg41
I148
sg42
g21
sg43
g21
sg44
I26
sg45
V2006
p308
sg47
I26
sg48
I152
sbag0
(g23
g2
Ntp309
Rp310
(dp311
g27
(dp312
g29
V.
p313
sg31
VO
p314
sg33
V.
p315
sg35
I27
ssg10
I27
sg36
g4
sg37
(dp316
sg39
(dp317
sg41
I152
sg42
g21
sg43
g21
sg44
I27
sg45
V.
p318
sg47
I27
sg48
I153
sbag0
(g23
g2
Ntp319
Rp320
(dp321
g27
(dp322
g29
Von
p323
sg31
VO
p324
sg33
VIN
p325
sg35
I1
ssg10
I28
sg36
g4
sg37
(dp326
sg39
(dp327
sg41
I154
sg42
g21
sg43
g21
sg44
I28
sg45
VOn
p328
sg47
I28
sg48
I156
sbag0
(g23
g2
Ntp329
Rp330
(dp331
g27
(dp332
g29
VFebruary
p333
sg31
VDATE
p334
sg33
VNNP
p335
sg35
I2
ssg10
I29
sg36
g4
sg37
(dp336
sg39
(dp337
sg41
I157
sg42
g21
sg43
g21
sg44
I29
sg45
VFebruary
p338
sg47
I29
sg48
I165
sbag0
(g23
g2
Ntp339
Rp340
(dp341
g27
(dp342
g29
V23
p343
sg31
VDATE
p344
sg33
VCD
p345
sg35
I3
ssg10
I30
sg36
g4
sg37
(dp346
sg39
(dp347
sg41
I166
sg42
g21
sg43
g21
sg44
I30
sg45
V23
p348
sg47
I30
sg48
I168
sbag0
(g23
g2
Ntp349
Rp350
(dp351
g27
(dp352
g29
V,
p353
sg31
VDATE
p354
sg33
V,
p355
sg35
I4
ssg10
I31
sg36
g4
sg37
(dp356
sg39
(dp357
sg41
I168
sg42
g21
sg43
g21
sg44
I31
sg45
V,
p358
sg47
I31
sg48
I169
sbag0
(g23
g2
Ntp359
Rp360
(dp361
g27
(dp362
g29
V2006
p363
sg31
VDATE
p364
sg33
VCD
p365
sg35
I5
ssg10
I32
sg36
g4
sg37
(dp366
sg39
(dp367
sg41
I170
sg42
g21
sg43
g21
sg44
I32
sg45
V2006
p368
sg47
I32
sg48
I174
sbag0
(g23
g2
Ntp369
Rp370
(dp371
g27
(dp372
g29
V,
p373
sg31
VO
p374
sg33
V,
p375
sg35
I6
ssg10
I33
sg36
g4
sg37
(dp376
sg39
(dp377
sg41
I174
sg42
g21
sg43
g21
sg44
I33
sg45
V,
p378
sg47
I33
sg48
I175
sbag0
(g23
g2
Ntp379
Rp380
(dp381
g27
(dp382
g29
Vit
p383
sg31
VO
p384
sg33
VPRP
p385
sg35
I7
ssg10
I34
sg36
g4
sg37
(dp386
sg39
(dp387
sg41
I176
sg42
g21
sg43
g21
sg44
I34
sg45
Vit
p388
sg47
I34
sg48
I178
sbag0
(g23
g2
Ntp389
Rp390
(dp391
g27
(dp392
g29
Vbe
p393
sg31
VO
p394
sg33
VVBD
p395
sg35
I8
ssg10
I35
sg36
g4
sg37
(dp396
sg39
(dp397
sg41
I179
sg42
g21
sg43
g21
sg44
I35
sg45
Vwas
p398
sg47
I35
sg48
I182
sbag0
(g23
g2
Ntp399
Rp400
(dp401
g27
(dp402
g29
Vrefer
p403
sg31
VO
p404
sg33
VVBN
p405
sg35
I9
ssg10
I36
sg36
g4
sg37
(dp406
sg39
(dp407
sg41
I183
sg42
g21
sg43
g21
sg44
I36
sg45
Vreferred
p408
sg47
I36
sg48
I191
sbag0
(g23
g2
Ntp409
Rp410
(dp411
g27
(dp412
g29
Vto
p413
sg31
VO
p414
sg33
VTO
p415
sg35
I10
ssg10
I37
sg36
g4
sg37
(dp416
sg39
(dp417
sg41
I192
sg42
g21
sg43
g21
sg44
I37
sg45
Vto
p418
sg47
I37
sg48
I194
sbag0
(g23
g2
Ntp419
Rp420
(dp421
g27
(dp422
g29
Vthe
p423
sg31
VO
p424
sg33
VDT
p425
sg35
I11
ssg10
I38
sg36
g4
sg37
(dp426
sg39
(dp427
sg41
I195
sg42
g21
sg43
g21
sg44
I38
sg45
Vthe
p428
sg47
I38
sg48
I198
sbag0
(g23
g2
Ntp429
Rp430
(dp431
g27
(dp432
g29
VHouse
p433
sg31
VORGANIZATION
p434
sg33
VNNP
p435
sg35
I12
ssg10
I39
sg36
g4
sg37
(dp436
sg39
(dp437
sg41
I199
sg42
g21
sg43
g21
sg44
I39
sg45
VHouse
p438
sg47
I39
sg48
I204
sbag0
(g23
g2
Ntp439
Rp440
(dp441
g27
(dp442
g29
VSubcommittee
p443
sg31
VO
p444
sg33
VNNP
p445
sg35
I13
ssg10
I40
sg36
g4
sg37
(dp446
sg39
(dp447
sg41
I205
sg42
g21
sg43
g21
sg44
I40
sg45
VSubcommittee
p448
sg47
I40
sg48
I217
sbag0
(g23
g2
Ntp449
Rp450
(dp451
g27
(dp452
g29
Von
p453
sg31
VO
p454
sg33
VIN
p455
sg35
I14
ssg10
I41
sg36
g4
sg37
(dp456
sg39
(dp457
sg41
I218
sg42
g21
sg43
g21
sg44
I41
sg45
Von
p458
sg47
I41
sg48
I220
sbag0
(g23
g2
Ntp459
Rp460
(dp461
g27
(dp462
g29
VMilitary
p463
sg31
VO
p464
sg33
VNNP
p465
sg35
I15
ssg10
I42
sg36
g4
sg37
(dp466
sg39
(dp467
sg41
I221
sg42
g21
sg43
g21
sg44
I42
sg45
VMilitary
p468
sg47
I42
sg48
I229
sbag0
(g23
g2
Ntp469
Rp470
(dp471
g27
(dp472
g29
VPersonnel
p473
sg31
VO
p474
sg33
VNNP
p475
sg35
I16
ssg10
I43
sg36
g4
sg37
(dp476
sg39
(dp477
sg41
I230
sg42
g21
sg43
g21
sg44
I43
sg45
VPersonnel
p478
sg47
I43
sg48
I239
sbag0
(g23
g2
Ntp479
Rp480
(dp481
g27
(dp482
g29
V.
p483
sg31
VO
p484
sg33
V.
p485
sg35
I17
ssg10
I44
sg36
g4
sg37
(dp486
sg39
(dp487
sg41
I239
sg42
g21
sg43
g21
sg44
I44
sg45
V.
p488
sg47
I44
sg48
I240
sbag0
(g23
g2
Ntp489
Rp490
(dp491
g27
(dp492
g29
Vthe
p493
sg31
VO
p494
sg33
VDT
p495
sg35
I1
ssg10
I45
sg36
g4
sg37
(dp496
sg39
(dp497
sg41
I241
sg42
g21
sg43
g21
sg44
I45
sg45
VThe
p498
sg47
I45
sg48
I244
sbag0
(g23
g2
Ntp499
Rp500
(dp501
g27
(dp502
g29
Vbill
p503
sg31
VO
p504
sg33
VNN
p505
sg35
I2
ssg10
I46
sg36
g4
sg37
(dp506
sg39
(dp507
sg41
I245
sg42
g21
sg43
g21
sg44
I46
sg45
Vbill
p508
sg47
I46
sg48
I249
sbag0
(g23
g2
Ntp509
Rp510
(dp511
g27
(dp512
g29
Vbe
p513
sg31
VO
p514
sg33
VVBD
p515
sg35
I3
ssg10
I47
sg36
g4
sg37
(dp516
sg39
(dp517
sg41
I250
sg42
g21
sg43
g21
sg44
I47
sg45
Vwas
p518
sg47
I47
sg48
I253
sbag0
(g23
g2
Ntp519
Rp520
(dp521
g27
(dp522
g29
Vnever
p523
sg31
VO
p524
sg33
VRB
p525
sg35
I4
ssg10
I48
sg36
g4
sg37
(dp526
sg39
(dp527
sg41
I254
sg42
g21
sg43
g21
sg44
I48
sg45
Vnever
p528
sg47
I48
sg48
I259
sbag0
(g23
g2
Ntp529
Rp530
(dp531
g27
(dp532
g29
Venact
p533
sg31
VO
p534
sg33
VVBN
p535
sg35
I5
ssg10
I49
sg36
g4
sg37
(dp536
sg39
(dp537
sg41
I260
sg42
g21
sg43
g21
sg44
I49
sg45
Venacted
p538
sg47
I49
sg48
I267
sbag0
(g23
g2
Ntp539
Rp540
(dp541
g27
(dp542
g29
V.
p543
sg31
VO
p544
sg33
V.
p545
sg35
I6
ssg10
I50
sg36
g4
sg37
(dp546
sg39
(dp547
sg41
I267
sg42
g21
sg43
g21
sg44
I50
sg45
V.
p548
sg47
I50
sg48
I268
sbag0
(g23
g2
Ntp549
Rp550
(dp551
g27
(dp552
g29
VRep.
p553
sg31
VO
p554
sg33
VNNP
p555
sg35
I1
ssg10
I51
sg36
g4
sg37
(dp556
sg39
(dp557
sg41
I270
sg42
g21
sg43
g21
sg44
I51
sg45
VRep.
p558
sg47
I51
sg48
I274
sbag0
(g23
g2
Ntp559
Rp560
(dp561
g27
(dp562
g29
VRangel
p563
sg31
VPERSON
p564
sg33
VNNP
p565
sg35
I2
ssg10
I52
sg36
g4
sg37
(dp566
sg39
(dp567
sg41
I275
sg42
g21
sg43
g21
sg44
I52
sg45
VRangel
p568
sg47
I52
sg48
I281
sbag0
(g23
g2
Ntp569
Rp570
(dp571
g27
(dp572
g29
Vargue
p573
sg31
VO
p574
sg33
VVBD
p575
sg35
I3
ssg10
I53
sg36
g4
sg37
(dp576
sg39
(dp577
sg41
I282
sg42
g21
sg43
g21
sg44
I53
sg45
Vargued
p578
sg47
I53
sg48
I288
sbag0
(g23
g2
Ntp579
Rp580
(dp581
g27
(dp582
g29
Vthat
p583
sg31
VO
p584
sg33
VIN
p585
sg35
I4
ssg10
I54
sg36
g4
sg37
(dp586
sg39
(dp587
sg41
I289
sg42
g21
sg43
g21
sg44
I54
sg45
Vthat
p588
sg47
I54
sg48
I293
sbag0
(g23
g2
Ntp589
Rp590
(dp591
g27
(dp592
g29
Vthe
p593
sg31
VO
p594
sg33
VDT
p595
sg35
I5
ssg10
I55
sg36
g4
sg37
(dp596
sg39
(dp597
sg41
I294
sg42
g21
sg43
g21
sg44
I55
sg45
Vthe
p598
sg47
I55
sg48
I297
sbag0
(g23
g2
Ntp599
Rp600
(dp601
g27
(dp602
g29
Vbill
p603
sg31
VO
p604
sg33
VNN
p605
sg35
I6
ssg10
I56
sg36
g4
sg37
(dp606
sg39
(dp607
sg41
I298
sg42
g21
sg43
g21
sg44
I56
sg45
Vbill
p608
sg47
I56
sg48
I302
sbag0
(g23
g2
Ntp609
Rp610
(dp611
g27
(dp612
g29
Vbe
p613
sg31
VO
p614
sg33
VVBD
p615
sg35
I7
ssg10
I57
sg36
g4
sg37
(dp616
sg39
(dp617
sg41
I303
sg42
g21
sg43
g21
sg44
I57
sg45
Vwas
p618
sg47
I57
sg48
I306
sbag0
(g23
g2
Ntp619
Rp620
(dp621
g27
(dp622
g29
Vnecessary
p623
sg31
VO
p624
sg33
VJJ
p625
sg35
I8
ssg10
I58
sg36
g4
sg37
(dp626
sg39
(dp627
sg41
I307
sg42
g21
sg43
g21
sg44
I58
sg45
Vnecessary
p628
sg47
I58
sg48
I316
sbag0
(g23
g2
Ntp629
Rp630
(dp631
g27
(dp632
g29
Vsince
p633
sg31
VO
p634
sg33
VIN
p635
sg35
I9
ssg10
I59
sg36
g4
sg37
(dp636
sg39
(dp637
sg41
I317
sg42
g21
sg43
g21
sg44
I59
sg45
Vsince
p638
sg47
I59
sg48
I322
sbag0
(g23
g2
Ntp639
Rp640
(dp641
g27
(dp642
g29
Vin
p643
sg31
VO
p644
sg33
VIN
p645
sg35
I10
ssg10
I60
sg36
g4
sg37
(dp646
sg39
(dp647
sg41
I318
sg42
g21
sg43
g21
sg44
I60
sg45
Vin
p648
sg47
I60
sg48
I320
sbag0
(g23
g2
Ntp649
Rp650
(dp651
g27
(dp652
g29
Vthe
p653
sg31
VO
p654
sg33
VDT
p655
sg35
I11
ssg10
I61
sg36
g4
sg37
(dp656
sg39
(dp657
sg41
I326
sg42
g21
sg43
g21
sg44
I61
sg45
Vthe
p658
sg47
I61
sg48
I329
sbag0
(g23
g2
Ntp659
Rp660
(dp661
g27
(dp662
g29
Vcase
p663
sg31
VO
p664
sg33
VNN
p665
sg35
I12
ssg10
I62
sg36
g4
sg37
(dp666
sg39
(dp667
sg41
I330
sg42
g21
sg43
g21
sg44
I62
sg45
Vcase
p668
sg47
I62
sg48
I334
sbag0
(g23
g2
Ntp669
Rp670
(dp671
g27
(dp672
g29
Vof
p673
sg31
VO
p674
sg33
VIN
p675
sg35
I13
ssg10
I63
sg36
g4
sg37
(dp676
sg39
(dp677
sg41
I335
sg42
g21
sg43
g21
sg44
I63
sg45
Vof
p678
sg47
I63
sg48
I337
sbag0
(g23
g2
Ntp679
Rp680
(dp681
g27
(dp682
g29
Va
p683
sg31
VO
p684
sg33
VDT
p685
sg35
I14
ssg10
I64
sg36
g4
sg37
(dp686
sg39
(dp687
sg41
I338
sg42
g21
sg43
g21
sg44
I64
sg45
Va
p688
sg47
I64
sg48
I339
sbag0
(g23
g2
Ntp689
Rp690
(dp691
g27
(dp692
g29
Vmandatory
p693
sg31
VO
p694
sg33
VJJ
p695
sg35
I15
ssg10
I65
sg36
g4
sg37
(dp696
sg39
(dp697
sg41
I340
sg42
g21
sg43
g21
sg44
I65
sg45
Vmandatory
p698
sg47
I65
sg48
I349
sbag0
(g23
g2
Ntp699
Rp700
(dp701
g27
(dp702
g29
Vdraft
p703
sg31
VO
p704
sg33
VNN
p705
sg35
I16
ssg10
I66
sg36
g4
sg37
(dp706
sg39
(dp707
sg41
I350
sg42
g21
sg43
g21
sg44
I66
sg45
Vdraft
p708
sg47
I66
sg48
I355
sbag0
(g23
g2
Ntp709
Rp710
(dp711
g27
(dp712
g29
Vmember
p713
sg31
VO
p714
sg33
VNNS
p715
sg35
I17
ssg10
I67
sg36
g4
sg37
(dp716
sg39
(dp717
sg41
I356
sg42
g21
sg43
g21
sg44
I67
sg45
Vmembers
p718
sg47
I67
sg48
I363
sbag0
(g23
g2
Ntp719
Rp720
(dp721
g27
(dp722
g29
Vof
p723
sg31
VO
p724
sg33
VIN
p725
sg35
I18
ssg10
I68
sg36
g4
sg37
(dp726
sg39
(dp727
sg41
I364
sg42
g21
sg43
g21
sg44
I68
sg45
Vof
p728
sg47
I68
sg48
I366
sbag0
(g23
g2
Ntp729
Rp730
(dp731
g27
(dp732
g29
Vthe
p733
sg31
VO
p734
sg33
VDT
p735
sg35
I19
ssg10
I69
sg36
g4
sg37
(dp736
sg39
(dp737
sg41
I367
sg42
g21
sg43
g21
sg44
I69
sg45
Vthe
p738
sg47
I69
sg48
I370
sbag0
(g23
g2
Ntp739
Rp740
(dp741
g27
(dp742
g29
VU.S.
p743
sg31
VORGANIZATION
p744
sg33
VNNP
p745
sg35
I20
ssg10
I70
sg36
g4
sg37
(dp746
sg39
(dp747
sg41
I371
sg42
g21
sg43
g21
sg44
I70
sg45
VU.S.
p748
sg47
I70
sg48
I375
sbag0
(g23
g2
Ntp749
Rp750
(dp751
g27
(dp752
g29
VCongress
p753
sg31
VORGANIZATION
p754
sg33
VNNP
p755
sg35
I21
ssg10
I71
sg36
g4
sg37
(dp756
sg39
(dp757
sg41
I376
sg42
g21
sg43
g21
sg44
I71
sg45
VCongress
p758
sg47
I71
sg48
I384
sbag0
(g23
g2
Ntp759
Rp760
(dp761
g27
(dp762
g29
Vwould
p763
sg31
VO
p764
sg33
VMD
p765
sg35
I22
ssg10
I72
sg36
g4
sg37
(dp766
sg39
(dp767
sg41
I385
sg42
g21
sg43
g21
sg44
I72
sg45
Vwould
p768
sg47
I72
sg48
I390
sbag0
(g23
g2
Ntp769
Rp770
(dp771
g27
(dp772
g29
Vbe
p773
sg31
VO
p774
sg33
VVB
p775
sg35
I23
ssg10
I73
sg36
g4
sg37
(dp776
sg39
(dp777
sg41
I391
sg42
g21
sg43
g21
sg44
I73
sg45
Vbe
p778
sg47
I73
sg48
I393
sbag0
(g23
g2
Ntp779
Rp780
(dp781
g27
(dp782
g29
Vmuch
p783
sg31
VO
p784
sg33
VRB
p785
sg35
I24
ssg10
I74
sg36
g4
sg37
(dp786
sg39
(dp787
sg41
I394
sg42
g21
sg43
g21
sg44
I74
sg45
Vmuch
p788
sg47
I74
sg48
I398
sbag0
(g23
g2
Ntp789
Rp790
(dp791
g27
(dp792
g29
Vless
p793
sg31
VO
p794
sg33
VRBR
p795
sg35
I25
ssg10
I75
sg36
g4
sg37
(dp796
sg39
(dp797
sg41
I399
sg42
g21
sg43
g21
sg44
I75
sg45
Vless
p798
sg47
I75
sg48
I403
sbag0
(g23
g2
Ntp799
Rp800
(dp801
g27
(dp802
g29
Vlikely
p803
sg31
VO
p804
sg33
VJJ
p805
sg35
I26
ssg10
I76
sg36
g4
sg37
(dp806
sg39
(dp807
sg41
I404
sg42
g21
sg43
g21
sg44
I76
sg45
Vlikely
p808
sg47
I76
sg48
I410
sbag0
(g23
g2
Ntp809
Rp810
(dp811
g27
(dp812
g29
Vto
p813
sg31
VO
p814
sg33
VTO
p815
sg35
I27
ssg10
I77
sg36
g4
sg37
(dp816
sg39
(dp817
sg41
I411
sg42
g21
sg43
g21
sg44
I77
sg45
Vto
p818
sg47
I77
sg48
I413
sbag0
(g23
g2
Ntp819
Rp820
(dp821
g27
(dp822
g29
Vauthorize
p823
sg31
VO
p824
sg33
VVB
p825
sg35
I28
ssg10
I78
sg36
g4
sg37
(dp826
sg39
(dp827
sg41
I414
sg42
g21
sg43
g21
sg44
I78
sg45
Vauthorize
p828
sg47
I78
sg48
I423
sbag0
(g23
g2
Ntp829
Rp830
(dp831
g27
(dp832
g29
Va
p833
sg31
VO
p834
sg33
VDT
p835
sg35
I29
ssg10
I79
sg36
g4
sg37
(dp836
sg39
(dp837
sg41
I424
sg42
g21
sg43
g21
sg44
I79
sg45
Van
p838
sg47
I79
sg48
I426
sbag0
(g23
g2
Ntp839
Rp840
(dp841
g27
(dp842
g29
Vunnecessary
p843
sg31
VO
p844
sg33
VJJ
p845
sg35
I30
ssg10
I80
sg36
g4
sg37
(dp846
sg39
(dp847
sg41
I427
sg42
g21
sg43
g21
sg44
I80
sg45
Vunnecessary
p848
sg47
I80
sg48
I438
sbag0
(g23
g2
Ntp849
Rp850
(dp851
g27
(dp852
g29
Vwar
p853
sg31
VO
p854
sg33
VNN
p855
sg35
I31
ssg10
I81
sg36
g4
sg37
(dp856
sg39
(dp857
sg41
I439
sg42
g21
sg43
g21
sg44
I81
sg45
Vwar
p858
sg47
I81
sg48
I442
sbag0
(g23
g2
Ntp859
Rp860
(dp861
g27
(dp862
g29
Vif
p863
sg31
VO
p864
sg33
VIN
p865
sg35
I32
ssg10
I82
sg36
g4
sg37
(dp866
sg39
(dp867
sg41
I443
sg42
g21
sg43
g21
sg44
I82
sg45
Vif
p868
sg47
I82
sg48
I445
sbag0
(g23
g2
Ntp869
Rp870
(dp871
g27
(dp872
g29
Vthey
p873
sg31
VO
p874
sg33
VPRP
p875
sg35
I33
ssg10
I83
sg36
g4
sg37
(dp876
sg39
(dp877
sg41
I446
sg42
g21
sg43
g21
sg44
I83
sg45
Vthey
p878
sg47
I83
sg48
I450
sbag0
(g23
g2
Ntp879
Rp880
(dp881
g27
(dp882
g29
Vknow
p883
sg31
VO
p884
sg33
VVBD
p885
sg35
I34
ssg10
I84
sg36
g4
sg37
(dp886
sg39
(dp887
sg41
I451
sg42
g21
sg43
g21
sg44
I84
sg45
Vknew
p888
sg47
I84
sg48
I455
sbag0
(g23
g2
Ntp889
Rp890
(dp891
g27
(dp892
g29
Vthat
p893
sg31
VO
p894
sg33
VIN
p895
sg35
I35
ssg10
I85
sg36
g4
sg37
(dp896
sg39
(dp897
sg41
I456
sg42
g21
sg43
g21
sg44
I85
sg45
Vthat
p898
sg47
I85
sg48
I460
sbag0
(g23
g2
Ntp899
Rp900
(dp901
g27
(dp902
g29
Vthey
p903
sg31
VO
p904
sg33
VPRP$
p905
sg35
I36
ssg10
I86
sg36
g4
sg37
(dp906
sg39
(dp907
sg41
I461
sg42
g21
sg43
g21
sg44
I86
sg45
Vtheir
p908
sg47
I86
sg48
I466
sbag0
(g23
g2
Ntp909
Rp910
(dp911
g27
(dp912
g29
Vown
p913
sg31
VO
p914
sg33
VJJ
p915
sg35
I37
ssg10
I87
sg36
g4
sg37
(dp916
sg39
(dp917
sg41
I467
sg42
g21
sg43
g21
sg44
I87
sg45
Vown
p918
sg47
I87
sg48
I470
sbag0
(g23
g2
Ntp919
Rp920
(dp921
g27
(dp922
g29
Vchild
p923
sg31
VO
p924
sg33
VNNS
p925
sg35
I38
ssg10
I88
sg36
g4
sg37
(dp926
sg39
(dp927
sg41
I471
sg42
g21
sg43
g21
sg44
I88
sg45
Vchildren
p928
sg47
I88
sg48
I479
sbag0
(g23
g2
Ntp929
Rp930
(dp931
g27
(dp932
g29
Vand
p933
sg31
VO
p934
sg33
VCC
p935
sg35
I39
ssg10
I89
sg36
g4
sg37
(dp936
sg39
(dp937
sg41
I480
sg42
g21
sg43
g21
sg44
I89
sg45
Vand
p938
sg47
I89
sg48
I483
sbag0
(g23
g2
Ntp939
Rp940
(dp941
g27
(dp942
g29
Vfamily
p943
sg31
VO
p944
sg33
VNN
p945
sg35
I40
ssg10
I90
sg36
g4
sg37
(dp946
sg39
(dp947
sg41
I484
sg42
g21
sg43
g21
sg44
I90
sg45
Vfamily
p948
sg47
I90
sg48
I490
sbag0
(g23
g2
Ntp949
Rp950
(dp951
g27
(dp952
g29
Vmember
p953
sg31
VO
p954
sg33
VNNS
p955
sg35
I41
ssg10
I91
sg36
g4
sg37
(dp956
sg39
(dp957
sg41
I491
sg42
g21
sg43
g21
sg44
I91
sg45
Vmembers
p958
sg47
I91
sg48
I498
sbag0
(g23
g2
Ntp959
Rp960
(dp961
g27
(dp962
g29
Vmight
p963
sg31
VO
p964
sg33
VMD
p965
sg35
I42
ssg10
I92
sg36
g4
sg37
(dp966
sg39
(dp967
sg41
I499
sg42
g21
sg43
g21
sg44
I92
sg45
Vmight
p968
sg47
I92
sg48
I504
sbag0
(g23
g2
Ntp969
Rp970
(dp971
g27
(dp972
g29
Vbe
p973
sg31
VO
p974
sg33
VVB
p975
sg35
I43
ssg10
I93
sg36
g4
sg37
(dp976
sg39
(dp977
sg41
I505
sg42
g21
sg43
g21
sg44
I93
sg45
Vbe
p978
sg47
I93
sg48
I507
sbag0
(g23
g2
Ntp979
Rp980
(dp981
g27
(dp982
g29
Vsend
p983
sg31
VO
p984
sg33
VVBN
p985
sg35
I44
ssg10
I94
sg36
g4
sg37
(dp986
sg39
(dp987
sg41
I508
sg42
g21
sg43
g21
sg44
I94
sg45
Vsent
p988
sg47
I94
sg48
I512
sbag0
(g23
g2
Ntp989
Rp990
(dp991
g27
(dp992
g29
Vto
p993
sg31
VO
p994
sg33
VTO
p995
sg35
I45
ssg10
I95
sg36
g4
sg37
(dp996
sg39
(dp997
sg41
I513
sg42
g21
sg43
g21
sg44
I95
sg45
Vto
p998
sg47
I95
sg48
I515
sbag0
(g23
g2
Ntp999
Rp1000
(dp1001
g27
(dp1002
g29
Vfight
p1003
sg31
VO
p1004
sg33
VVB
p1005
sg35
I46
ssg10
I96
sg36
g4
sg37
(dp1006
sg39
(dp1007
sg41
I516
sg42
g21
sg43
g21
sg44
I96
sg45
Vfight
p1008
sg47
I96
sg48
I521
sbag0
(g23
g2
Ntp1009
Rp1010
(dp1011
g27
(dp1012
g29
Vit
p1013
sg31
VO
p1014
sg33
VPRP
p1015
sg35
I47
ssg10
I97
sg36
g4
sg37
(dp1016
sg39
(dp1017
sg41
I522
sg42
g21
sg43
g21
sg44
I97
sg45
Vit
p1018
sg47
I97
sg48
I524
sbag0
(g23
g2
Ntp1019
Rp1020
(dp1021
g27
(dp1022
g29
V.
p1023
sg31
VO
p1024
sg33
V.
p1025
sg35
I48
ssg10
I98
sg36
g4
sg37
(dp1026
sg39
(dp1027
sg41
I524
sg42
g21
sg43
g21
sg44
I98
sg45
V.
p1028
sg47
I98
sg48
I525
sbag0
(g23
g2
Ntp1029
Rp1030
(dp1031
g27
(dp1032
g29
Vhe
p1033
sg31
VO
p1034
sg33
VPRP
p1035
sg35
I1
ssg10
I99
sg36
g4
sg37
(dp1036
sg39
(dp1037
sg41
I526
sg42
g21
sg43
g21
sg44
I99
sg45
VHe
p1038
sg47
I99
sg48
I528
sbag0
(g23
g2
Ntp1039
Rp1040
(dp1041
g27
(dp1042
g29
Vbe
p1043
sg31
VO
p1044
sg33
VVBD
p1045
sg35
I2
ssg10
I100
sg36
g4
sg37
(dp1046
sg39
(dp1047
sg41
I529
sg42
g21
sg43
g21
sg44
I100
sg45
Vwas
p1048
sg47
I100
sg48
I532
sbag0
(g23
g2
Ntp1049
Rp1050
(dp1051
g27
(dp1052
g29
Vquote
p1053
sg31
VO
p1054
sg33
VVBN
p1055
sg35
I3
ssg10
I101
sg36
g4
sg37
(dp1056
sg39
(dp1057
sg41
I533
sg42
g21
sg43
g21
sg44
I101
sg45
Vquoted
p1058
sg47
I101
sg48
I539
sbag0
(g23
g2
Ntp1059
Rp1060
(dp1061
g27
(dp1062
g29
Vas
p1063
sg31
VO
p1064
sg33
VIN
p1065
sg35
I4
ssg10
I102
sg36
g4
sg37
(dp1066
sg39
(dp1067
sg41
I540
sg42
g21
sg43
g21
sg44
I102
sg45
Vas
p1068
sg47
I102
sg48
I542
sbag0
(g23
g2
Ntp1069
Rp1070
(dp1071
g27
(dp1072
g29
Vsay
p1073
sg31
VO
p1074
sg33
VVBG
p1075
sg35
I5
ssg10
I103
sg36
g4
sg37
(dp1076
sg39
(dp1077
sg41
I543
sg42
g21
sg43
g21
sg44
I103
sg45
Vsaying
p1078
sg47
I103
sg48
I549
sbag0
(g23
g2
Ntp1079
Rp1080
(dp1081
g27
(dp1082
g29
V:
p1083
sg31
VO
p1084
sg33
V:
p1085
sg35
I6
ssg10
I104
sg36
g4
sg37
(dp1086
sg39
(dp1087
sg41
I549
sg42
g21
sg43
g21
sg44
I104
sg45
V:
p1088
sg47
I104
sg48
I550
sbag0
(g23
g2
Ntp1089
Rp1090
(dp1091
g27
(dp1092
g29
V``
p1093
sg31
VO
p1094
sg33
V``
p1095
sg35
I7
ssg10
I105
sg36
g4
sg37
(dp1096
sg39
(dp1097
sg41
I550
sg42
g21
sg43
g21
sg44
I105
sg45
V"
p1098
sg47
I105
sg48
I551
sbag0
(g23
g2
Ntp1099
Rp1100
(dp1101
g27
(dp1102
g29
Vthere
p1103
sg31
VO
p1104
sg33
VEX
p1105
sg35
I8
ssg10
I106
sg36
g4
sg37
(dp1106
sg39
(dp1107
sg41
I551
sg42
g21
sg43
g21
sg44
I106
sg45
VThere
p1108
sg47
I106
sg48
I556
sbag0
(g23
g2
Ntp1109
Rp1110
(dp1111
g27
(dp1112
g29
Vbe
p1113
sg31
VO
p1114
sg33
VVBZ
p1115
sg35
I9
ssg10
I107
sg36
g4
sg37
(dp1116
sg39
(dp1117
sg41
I556
sg42
g21
sg43
g21
sg44
I107
sg45
V\u2019s
p1118
sg47
I107
sg48
I558
sbag0
(g23
g2
Ntp1119
Rp1120
(dp1121
g27
(dp1122
g29
Vno
p1123
sg31
VO
p1124
sg33
VDT
p1125
sg35
I10
ssg10
I108
sg36
g4
sg37
(dp1126
sg39
(dp1127
sg41
I559
sg42
g21
sg43
g21
sg44
I108
sg45
Vno
p1128
sg47
I108
sg48
I561
sbag0
(g23
g2
Ntp1129
Rp1130
(dp1131
g27
(dp1132
g29
Vquestion
p1133
sg31
VO
p1134
sg33
VNN
p1135
sg35
I11
ssg10
I109
sg36
g4
sg37
(dp1136
sg39
(dp1137
sg41
I562
sg42
g21
sg43
g21
sg44
I109
sg45
Vquestion
p1138
sg47
I109
sg48
I570
sbag0
(g23
g2
Ntp1139
Rp1140
(dp1141
g27
(dp1142
g29
Vin
p1143
sg31
VO
p1144
sg33
VIN
p1145
sg35
I12
ssg10
I110
sg36
g4
sg37
(dp1146
sg39
(dp1147
sg41
I571
sg42
g21
sg43
g21
sg44
I110
sg45
Vin
p1148
sg47
I110
sg48
I573
sbag0
(g23
g2
Ntp1149
Rp1150
(dp1151
g27
(dp1152
g29
Vmy
p1153
sg31
VO
p1154
sg33
VPRP$
p1155
sg35
I13
ssg10
I111
sg36
g4
sg37
(dp1156
sg39
(dp1157
sg41
I574
sg42
g21
sg43
g21
sg44
I111
sg45
Vmy
p1158
sg47
I111
sg48
I576
sbag0
(g23
g2
Ntp1159
Rp1160
(dp1161
g27
(dp1162
g29
Vmind
p1163
sg31
VO
p1164
sg33
VNN
p1165
sg35
I14
ssg10
I112
sg36
g4
sg37
(dp1166
sg39
(dp1167
sg41
I577
sg42
g21
sg43
g21
sg44
I112
sg45
Vmind
p1168
sg47
I112
sg48
I581
sbag0
(g23
g2
Ntp1169
Rp1170
(dp1171
g27
(dp1172
g29
Vthat
p1173
sg31
VO
p1174
sg33
VIN
p1175
sg35
I15
ssg10
I113
sg36
g4
sg37
(dp1176
sg39
(dp1177
sg41
I582
sg42
g21
sg43
g21
sg44
I113
sg45
Vthat
p1178
sg47
I113
sg48
I586
sbag0
(g23
g2
Ntp1179
Rp1180
(dp1181
g27
(dp1182
g29
Vthis
p1183
sg31
VO
p1184
sg33
VDT
p1185
sg35
I16
ssg10
I114
sg36
g4
sg37
(dp1186
sg39
(dp1187
sg41
I587
sg42
g21
sg43
g21
sg44
I114
sg45
Vthis
p1188
sg47
I114
sg48
I591
sbag0
(g23
g2
Ntp1189
Rp1190
(dp1191
g27
(dp1192
g29
Vpresident
p1193
sg31
VO
p1194
sg33
VNN
p1195
sg35
I17
ssg10
I115
sg36
g4
sg37
(dp1196
sg39
(dp1197
sg41
I592
sg42
g21
sg43
g21
sg44
I115
sg45
Vpresident
p1198
sg47
I115
sg48
I601
sbag0
(g23
g2
Ntp1199
Rp1200
(dp1201
g27
(dp1202
g29
Vand
p1203
sg31
VO
p1204
sg33
VCC
p1205
sg35
I18
ssg10
I116
sg36
g4
sg37
(dp1206
sg39
(dp1207
sg41
I602
sg42
g21
sg43
g21
sg44
I116
sg45
Vand
p1208
sg47
I116
sg48
I605
sbag0
(g23
g2
Ntp1209
Rp1210
(dp1211
g27
(dp1212
g29
Vthis
p1213
sg31
VO
p1214
sg33
VDT
p1215
sg35
I19
ssg10
I117
sg36
g4
sg37
(dp1216
sg39
(dp1217
sg41
I606
sg42
g21
sg43
g21
sg44
I117
sg45
Vthis
p1218
sg47
I117
sg48
I610
sbag0
(g23
g2
Ntp1219
Rp1220
(dp1221
g27
(dp1222
g29
Vadministration
p1223
sg31
VO
p1224
sg33
VNN
p1225
sg35
I20
ssg10
I118
sg36
g4
sg37
(dp1226
sg39
(dp1227
sg41
I611
sg42
g21
sg43
g21
sg44
I118
sg45
Vadministration
p1228
sg47
I118
sg48
I625
sbag0
(g23
g2
Ntp1229
Rp1230
(dp1231
g27
(dp1232
g29
Vwould
p1233
sg31
VO
p1234
sg33
VMD
p1235
sg35
I21
ssg10
I119
sg36
g4
sg37
(dp1236
sg39
(dp1237
sg41
I626
sg42
g21
sg43
g21
sg44
I119
sg45
Vwould
p1238
sg47
I119
sg48
I631
sbag0
(g23
g2
Ntp1239
Rp1240
(dp1241
g27
(dp1242
g29
Vnever
p1243
sg31
VO
p1244
sg33
VRB
p1245
sg35
I22
ssg10
I120
sg36
g4
sg37
(dp1246
sg39
(dp1247
sg41
I632
sg42
g21
sg43
g21
sg44
I120
sg45
Vnever
p1248
sg47
I120
sg48
I637
sbag0
(g23
g2
Ntp1249
Rp1250
(dp1251
g27
(dp1252
g29
Vhave
p1253
sg31
VO
p1254
sg33
VVB
p1255
sg35
I23
ssg10
I121
sg36
g4
sg37
(dp1256
sg39
(dp1257
sg41
I638
sg42
g21
sg43
g21
sg44
I121
sg45
Vhave
p1258
sg47
I121
sg48
I642
sbag0
(g23
g2
Ntp1259
Rp1260
(dp1261
g27
(dp1262
g29
Vinvade
p1263
sg31
VO
p1264
sg33
VVBN
p1265
sg35
I24
ssg10
I122
sg36
g4
sg37
(dp1266
sg39
(dp1267
sg41
I643
sg42
g21
sg43
g21
sg44
I122
sg45
Vinvaded
p1268
sg47
I122
sg48
I650
sbag0
(g23
g2
Ntp1269
Rp1270
(dp1271
g27
(dp1272
g29
VIraq
p1273
sg31
VLOCATION
p1274
sg33
VNNP
p1275
sg35
I25
ssg10
I123
sg36
g4
sg37
(dp1276
sg39
(dp1277
sg41
I651
sg42
g21
sg43
g21
sg44
I123
sg45
VIraq
p1278
sg47
I123
sg48
I655
sbag0
(g23
g2
Ntp1279
Rp1280
(dp1281
g27
(dp1282
g29
V,
p1283
sg31
VO
p1284
sg33
V,
p1285
sg35
I26
ssg10
I124
sg36
g4
sg37
(dp1286
sg39
(dp1287
sg41
I655
sg42
g21
sg43
g21
sg44
I124
sg45
V,
p1288
sg47
I124
sg48
I656
sbag0
(g23
g2
Ntp1289
Rp1290
(dp1291
g27
(dp1292
g29
Vespecially
p1293
sg31
VO
p1294
sg33
VRB
p1295
sg35
I27
ssg10
I125
sg36
g4
sg37
(dp1296
sg39
(dp1297
sg41
I657
sg42
g21
sg43
g21
sg44
I125
sg45
Vespecially
p1298
sg47
I125
sg48
I667
sbag0
(g23
g2
Ntp1299
Rp1300
(dp1301
g27
(dp1302
g29
Von
p1303
sg31
VO
p1304
sg33
VIN
p1305
sg35
I28
ssg10
I126
sg36
g4
sg37
(dp1306
sg39
(dp1307
sg41
I668
sg42
g21
sg43
g21
sg44
I126
sg45
Von
p1308
sg47
I126
sg48
I670
sbag0
(g23
g2
Ntp1309
Rp1310
(dp1311
g27
(dp1312
g29
Vthe
p1313
sg31
VO
p1314
sg33
VDT
p1315
sg35
I29
ssg10
I127
sg36
g4
sg37
(dp1316
sg39
(dp1317
sg41
I671
sg42
g21
sg43
g21
sg44
I127
sg45
Vthe
p1318
sg47
I127
sg48
I674
sbag0
(g23
g2
Ntp1319
Rp1320
(dp1321
g27
(dp1322
g29
Vflimsy
p1323
sg31
VO
p1324
sg33
VJJ
p1325
sg35
I30
ssg10
I128
sg36
g4
sg37
(dp1326
sg39
(dp1327
sg41
I675
sg42
g21
sg43
g21
sg44
I128
sg45
Vflimsy
p1328
sg47
I128
sg48
I681
sbag0
(g23
g2
Ntp1329
Rp1330
(dp1331
g27
(dp1332
g29
Vevidence
p1333
sg31
VO
p1334
sg33
VNN
p1335
sg35
I31
ssg10
I129
sg36
g4
sg37
(dp1336
sg39
(dp1337
sg41
I682
sg42
g21
sg43
g21
sg44
I129
sg45
Vevidence
p1338
sg47
I129
sg48
I690
sbag0
(g23
g2
Ntp1339
Rp1340
(dp1341
g27
(dp1342
g29
Vthat
p1343
sg31
VO
p1344
sg33
VDT
p1345
sg35
I32
ssg10
I130
sg36
g4
sg37
(dp1346
sg39
(dp1347
sg41
I691
sg42
g21
sg43
g21
sg44
I130
sg45
Vthat
p1348
sg47
I130
sg48
I695
sbag0
(g23
g2
Ntp1349
Rp1350
(dp1351
g27
(dp1352
g29
Vbe
p1353
sg31
VO
p1354
sg33
VVBD
p1355
sg35
I33
ssg10
I131
sg36
g4
sg37
(dp1356
sg39
(dp1357
sg41
I696
sg42
g21
sg43
g21
sg44
I131
sg45
Vwas
p1358
sg47
I131
sg48
I699
sbag0
(g23
g2
Ntp1359
Rp1360
(dp1361
g27
(dp1362
g29
Vpresent
p1363
sg31
VO
p1364
sg33
VVBN
p1365
sg35
I34
ssg10
I132
sg36
g4
sg37
(dp1366
sg39
(dp1367
sg41
I700
sg42
g21
sg43
g21
sg44
I132
sg45
Vpresented
p1368
sg47
I132
sg48
I709
sbag0
(g23
g2
Ntp1369
Rp1370
(dp1371
g27
(dp1372
g29
Vto
p1373
sg31
VO
p1374
sg33
VTO
p1375
sg35
I35
ssg10
I133
sg36
g4
sg37
(dp1376
sg39
(dp1377
sg41
I710
sg42
g21
sg43
g21
sg44
I133
sg45
Vto
p1378
sg47
I133
sg48
I712
sbag0
(g23
g2
Ntp1379
Rp1380
(dp1381
g27
(dp1382
g29
Vthe
p1383
sg31
VO
p1384
sg33
VDT
p1385
sg35
I36
ssg10
I134
sg36
g4
sg37
(dp1386
sg39
(dp1387
sg41
I713
sg42
g21
sg43
g21
sg44
I134
sg45
Vthe
p1388
sg47
I134
sg48
I716
sbag0
(g23
g2
Ntp1389
Rp1390
(dp1391
g27
(dp1392
g29
VCongress
p1393
sg31
VORGANIZATION
p1394
sg33
VNNP
p1395
sg35
I37
ssg10
I135
sg36
g4
sg37
(dp1396
sg39
(dp1397
sg41
I717
sg42
g21
sg43
g21
sg44
I135
sg45
VCongress
p1398
sg47
I135
sg48
I725
sbag0
(g23
g2
Ntp1399
Rp1400
(dp1401
g27
(dp1402
g29
Vif
p1403
sg31
VO
p1404
sg33
VIN
p1405
sg35
I38
ssg10
I136
sg36
g4
sg37
(dp1406
sg39
(dp1407
sg41
I726
sg42
g21
sg43
g21
sg44
I136
sg45
Vif
p1408
sg47
I136
sg48
I728
sbag0
(g23
g2
Ntp1409
Rp1410
(dp1411
g27
(dp1412
g29
Vindeed
p1413
sg31
VO
p1414
sg33
VRB
p1415
sg35
I39
ssg10
I137
sg36
g4
sg37
(dp1416
sg39
(dp1417
sg41
I729
sg42
g21
sg43
g21
sg44
I137
sg45
Vindeed
p1418
sg47
I137
sg48
I735
sbag0
(g23
g2
Ntp1419
Rp1420
(dp1421
g27
(dp1422
g29
Vwe
p1423
sg31
VO
p1424
sg33
VPRP
p1425
sg35
I40
ssg10
I138
sg36
g4
sg37
(dp1426
sg39
(dp1427
sg41
I736
sg42
g21
sg43
g21
sg44
I138
sg45
Vwe
p1428
sg47
I138
sg48
I738
sbag0
(g23
g2
Ntp1429
Rp1430
(dp1431
g27
(dp1432
g29
Vhave
p1433
sg31
VO
p1434
sg33
VVBD
p1435
sg35
I41
ssg10
I139
sg36
g4
sg37
(dp1436
sg39
(dp1437
sg41
I739
sg42
g21
sg43
g21
sg44
I139
sg45
Vhad
p1438
sg47
I139
sg48
I742
sbag0
(g23
g2
Ntp1439
Rp1440
(dp1441
g27
(dp1442
g29
Va
p1443
sg31
VO
p1444
sg33
VDT
p1445
sg35
I42
ssg10
I140
sg36
g4
sg37
(dp1446
sg39
(dp1447
sg41
I740
sg42
g21
sg43
g21
sg44
I140
sg45
Va
p1448
sg47
I140
sg48
I741
sbag0
(g23
g2
Ntp1449
Rp1450
(dp1451
g27
(dp1452
g29
Vdraft
p1453
sg31
VO
p1454
sg33
VNN
p1455
sg35
I43
ssg10
I141
sg36
g4
sg37
(dp1456
sg39
(dp1457
sg41
I745
sg42
g21
sg43
g21
sg44
I141
sg45
Vdraft
p1458
sg47
I141
sg48
I750
sbag0
(g23
g2
Ntp1459
Rp1460
(dp1461
g27
(dp1462
g29
Vand
p1463
sg31
VO
p1464
sg33
VCC
p1465
sg35
I44
ssg10
I142
sg36
g4
sg37
(dp1466
sg39
(dp1467
sg41
I751
sg42
g21
sg43
g21
sg44
I142
sg45
Vand
p1468
sg47
I142
sg48
I754
sbag0
(g23
g2
Ntp1469
Rp1470
(dp1471
g27
(dp1472
g29
Vmember
p1473
sg31
VO
p1474
sg33
VNNS
p1475
sg35
I45
ssg10
I143
sg36
g4
sg37
(dp1476
sg39
(dp1477
sg41
I755
sg42
g21
sg43
g21
sg44
I143
sg45
Vmembers
p1478
sg47
I143
sg48
I762
sbag0
(g23
g2
Ntp1479
Rp1480
(dp1481
g27
(dp1482
g29
Vof
p1483
sg31
VO
p1484
sg33
VIN
p1485
sg35
I46
ssg10
I144
sg36
g4
sg37
(dp1486
sg39
(dp1487
sg41
I763
sg42
g21
sg43
g21
sg44
I144
sg45
Vof
p1488
sg47
I144
sg48
I765
sbag0
(g23
g2
Ntp1489
Rp1490
(dp1491
g27
(dp1492
g29
VCongress
p1493
sg31
VORGANIZATION
p1494
sg33
VNNP
p1495
sg35
I47
ssg10
I145
sg36
g4
sg37
(dp1496
sg39
(dp1497
sg41
I766
sg42
g21
sg43
g21
sg44
I145
sg45
VCongress
p1498
sg47
I145
sg48
I774
sbag0
(g23
g2
Ntp1499
Rp1500
(dp1501
g27
(dp1502
g29
Vand
p1503
sg31
VO
p1504
sg33
VCC
p1505
sg35
I48
ssg10
I146
sg36
g4
sg37
(dp1506
sg39
(dp1507
sg41
I775
sg42
g21
sg43
g21
sg44
I146
sg45
Vand
p1508
sg47
I146
sg48
I778
sbag0
(g23
g2
Ntp1509
Rp1510
(dp1511
g27
(dp1512
g29
Vthe
p1513
sg31
VO
p1514
sg33
VDT
p1515
sg35
I49
ssg10
I147
sg36
g4
sg37
(dp1516
sg39
(dp1517
sg41
I779
sg42
g21
sg43
g21
sg44
I147
sg45
Vthe
p1518
sg47
I147
sg48
I782
sbag0
(g23
g2
Ntp1519
Rp1520
(dp1521
g27
(dp1522
g29
Vadministration
p1523
sg31
VO
p1524
sg33
VNN
p1525
sg35
I50
ssg10
I148
sg36
g4
sg37
(dp1526
sg39
(dp1527
sg41
I783
sg42
g21
sg43
g21
sg44
I148
sg45
Vadministration
p1528
sg47
I148
sg48
I797
sbag0
(g23
g2
Ntp1529
Rp1530
(dp1531
g27
(dp1532
g29
Vthink
p1533
sg31
VO
p1534
sg33
VVBD
p1535
sg35
I51
ssg10
I149
sg36
g4
sg37
(dp1536
sg39
(dp1537
sg41
I798
sg42
g21
sg43
g21
sg44
I149
sg45
Vthought
p1538
sg47
I149
sg48
I805
sbag0
(g23
g2
Ntp1539
Rp1540
(dp1541
g27
(dp1542
g29
Vthat
p1543
sg31
VO
p1544
sg33
VIN
p1545
sg35
I52
ssg10
I150
sg36
g4
sg37
(dp1546
sg39
(dp1547
sg41
I806
sg42
g21
sg43
g21
sg44
I150
sg45
Vthat
p1548
sg47
I150
sg48
I810
sbag0
(g23
g2
Ntp1549
Rp1550
(dp1551
g27
(dp1552
g29
Vthey
p1553
sg31
VO
p1554
sg33
VPRP$
p1555
sg35
I53
ssg10
I151
sg36
g4
sg37
(dp1556
sg39
(dp1557
sg41
I811
sg42
g21
sg43
g21
sg44
I151
sg45
Vtheir
p1558
sg47
I151
sg48
I816
sbag0
(g23
g2
Ntp1559
Rp1560
(dp1561
g27
(dp1562
g29
Vkid
p1563
sg31
VO
p1564
sg33
VNNS
p1565
sg35
I54
ssg10
I152
sg36
g4
sg37
(dp1566
sg39
(dp1567
sg41
I817
sg42
g21
sg43
g21
sg44
I152
sg45
Vkids
p1568
sg47
I152
sg48
I821
sbag0
(g23
g2
Ntp1569
Rp1570
(dp1571
g27
(dp1572
g29
Vfrom
p1573
sg31
VO
p1574
sg33
VIN
p1575
sg35
I55
ssg10
I153
sg36
g4
sg37
(dp1576
sg39
(dp1577
sg41
I822
sg42
g21
sg43
g21
sg44
I153
sg45
Vfrom
p1578
sg47
I153
sg48
I826
sbag0
(g23
g2
Ntp1579
Rp1580
(dp1581
g27
(dp1582
g29
Vthey
p1583
sg31
VO
p1584
sg33
VPRP$
p1585
sg35
I56
ssg10
I154
sg36
g4
sg37
(dp1586
sg39
(dp1587
sg41
I827
sg42
g21
sg43
g21
sg44
I154
sg45
Vtheir
p1588
sg47
I154
sg48
I832
sbag0
(g23
g2
Ntp1589
Rp1590
(dp1591
g27
(dp1592
g29
Vcommunity
p1593
sg31
VO
p1594
sg33
VNNS
p1595
sg35
I57
ssg10
I155
sg36
g4
sg37
(dp1596
sg39
(dp1597
sg41
I833
sg42
g21
sg43
g21
sg44
I155
sg45
Vcommunities
p1598
sg47
I155
sg48
I844
sbag0
(g23
g2
Ntp1599
Rp1600
(dp1601
g27
(dp1602
g29
Vwould
p1603
sg31
VO
p1604
sg33
VMD
p1605
sg35
I58
ssg10
I156
sg36
g4
sg37
(dp1606
sg39
(dp1607
sg41
I845
sg42
g21
sg43
g21
sg44
I156
sg45
Vwould
p1608
sg47
I156
sg48
I850
sbag0
(g23
g2
Ntp1609
Rp1610
(dp1611
g27
(dp1612
g29
Vbe
p1613
sg31
VO
p1614
sg33
VVB
p1615
sg35
I59
ssg10
I157
sg36
g4
sg37
(dp1616
sg39
(dp1617
sg41
I851
sg42
g21
sg43
g21
sg44
I157
sg45
Vbe
p1618
sg47
I157
sg48
I853
sbag0
(g23
g2
Ntp1619
Rp1620
(dp1621
g27
(dp1622
g29
Vplace
p1623
sg31
VO
p1624
sg33
VVBN
p1625
sg35
I60
ssg10
I158
sg36
g4
sg37
(dp1626
sg39
(dp1627
sg41
I854
sg42
g21
sg43
g21
sg44
I158
sg45
Vplaced
p1628
sg47
I158
sg48
I860
sbag0
(g23
g2
Ntp1629
Rp1630
(dp1631
g27
(dp1632
g29
Vin
p1633
sg31
VO
p1634
sg33
VIN
p1635
sg35
I61
ssg10
I159
sg36
g4
sg37
(dp1636
sg39
(dp1637
sg41
I861
sg42
g21
sg43
g21
sg44
I159
sg45
Vin
p1638
sg47
I159
sg48
I863
sbag0
(g23
g2
Ntp1639
Rp1640
(dp1641
g27
(dp1642
g29
Vharm
p1643
sg31
VO
p1644
sg33
VNN
p1645
sg35
I62
ssg10
I160
sg36
g4
sg37
(dp1646
sg39
(dp1647
sg41
I864
sg42
g21
sg43
g21
sg44
I160
sg45
Vharm
p1648
sg47
I160
sg48
I868
sbag0
(g23
g2
Ntp1649
Rp1650
(dp1651
g27
(dp1652
g29
V's
p1653
sg31
VO
p1654
sg33
VPOS
p1655
sg35
I63
ssg10
I161
sg36
g4
sg37
(dp1656
sg39
(dp1657
sg41
I868
sg42
g21
sg43
g21
sg44
I161
sg45
V\u2019s
p1658
sg47
I161
sg48
I870
sbag0
(g23
g2
Ntp1659
Rp1660
(dp1661
g27
(dp1662
g29
Vway
p1663
sg31
VO
p1664
sg33
VNN
p1665
sg35
I64
ssg10
I162
sg36
g4
sg37
(dp1666
sg39
(dp1667
sg41
I871
sg42
g21
sg43
g21
sg44
I162
sg45
Vway
p1668
sg47
I162
sg48
I874
sbag0
(g23
g2
Ntp1669
Rp1670
(dp1671
g27
(dp1672
g29
V''
p1673
sg31
VO
p1674
sg33
V''
p1675
sg35
I65
ssg10
I163
sg36
g4
sg37
(dp1676
sg39
(dp1677
sg41
I874
sg42
g21
sg43
g21
sg44
I163
sg45
g1098
sg47
I163
sg48
I875
sbag0
(g23
g2
Ntp1678
Rp1679
(dp1680
g27
(dp1681
g29
V-lsb-
p1682
sg31
VO
p1683
sg33
V-LRB-
p1684
sg35
I66
ssg10
I164
sg36
g4
sg37
(dp1685
sg39
(dp1686
sg41
I875
sg42
g21
sg43
g21
sg44
I164
sg45
V[
p1687
sg47
I164
sg48
I876
sbag0
(g23
g2
Ntp1688
Rp1689
(dp1690
g27
(dp1691
g29
Vref
p1692
sg31
VO
p1693
sg33
VNN
p1694
sg35
I67
ssg10
I165
sg36
g4
sg37
(dp1695
sg39
(dp1696
sg41
I876
sg42
g21
sg43
g21
sg44
I165
sg45
VREF
p1697
sg47
I165
sg48
I879
sbag0
(g23
g2
Ntp1698
Rp1699
(dp1700
g27
(dp1701
g29
V-rsb-
p1702
sg31
VO
p1703
sg33
V-RRB-
p1704
sg35
I68
ssg10
I166
sg36
g4
sg37
(dp1705
sg39
(dp1706
sg41
I879
sg42
g21
sg43
g21
sg44
I166
sg45
V]
p1707
sg47
I166
sg48
I880
sbag0
(g23
g2
Ntp1708
Rp1709
(dp1710
g27
(dp1711
g29
VRangel
p1712
sg31
VPERSON
p1713
sg33
VNNP
p1714
sg35
I69
ssg10
I167
sg36
g4
sg37
(dp1715
sg39
(dp1716
sg41
I881
sg42
g21
sg43
g21
sg44
I167
sg45
VRangel
p1717
sg47
I167
sg48
I887
sbag0
(g23
g2
Ntp1718
Rp1719
(dp1720
g27
(dp1721
g29
Valso
p1722
sg31
VO
p1723
sg33
VRB
p1724
sg35
I70
ssg10
I168
sg36
g4
sg37
(dp1725
sg39
(dp1726
sg41
I888
sg42
g21
sg43
g21
sg44
I168
sg45
Valso
p1727
sg47
I168
sg48
I892
sbag0
(g23
g2
Ntp1728
Rp1729
(dp1730
g27
(dp1731
g29
Vargue
p1732
sg31
VO
p1733
sg33
VVBD
p1734
sg35
I71
ssg10
I169
sg36
g4
sg37
(dp1735
sg39
(dp1736
sg41
I893
sg42
g21
sg43
g21
sg44
I169
sg45
Vargued
p1737
sg47
I169
sg48
I899
sbag0
(g23
g2
Ntp1738
Rp1739
(dp1740
g27
(dp1741
g29
Vthat
p1742
sg31
VO
p1743
sg33
VIN
p1744
sg35
I72
ssg10
I170
sg36
g4
sg37
(dp1745
sg39
(dp1746
sg41
I900
sg42
g21
sg43
g21
sg44
I170
sg45
Vthat
p1747
sg47
I170
sg48
I904
sbag0
(g23
g2
Ntp1748
Rp1749
(dp1750
g27
(dp1751
g29
Vbring
p1752
sg31
VO
p1753
sg33
VVBG
p1754
sg35
I73
ssg10
I171
sg36
g4
sg37
(dp1755
sg39
(dp1756
sg41
I905
sg42
g21
sg43
g21
sg44
I171
sg45
Vbringing
p1757
sg47
I171
sg48
I913
sbag0
(g23
g2
Ntp1758
Rp1759
(dp1760
g27
(dp1761
g29
Vback
p1762
sg31
VO
p1763
sg33
VRP
p1764
sg35
I74
ssg10
I172
sg36
g4
sg37
(dp1765
sg39
(dp1766
sg41
I914
sg42
g21
sg43
g21
sg44
I172
sg45
Vback
p1767
sg47
I172
sg48
I918
sbag0
(g23
g2
Ntp1768
Rp1769
(dp1770
g27
(dp1771
g29
Vthe
p1772
sg31
VO
p1773
sg33
VDT
p1774
sg35
I75
ssg10
I173
sg36
g4
sg37
(dp1775
sg39
(dp1776
sg41
I919
sg42
g21
sg43
g21
sg44
I173
sg45
Vthe
p1777
sg47
I173
sg48
I922
sbag0
(g23
g2
Ntp1778
Rp1779
(dp1780
g27
(dp1781
g29
Vdraft
p1782
sg31
VO
p1783
sg33
VNN
p1784
sg35
I76
ssg10
I174
sg36
g4
sg37
(dp1785
sg39
(dp1786
sg41
I923
sg42
g21
sg43
g21
sg44
I174
sg45
Vdraft
p1787
sg47
I174
sg48
I928
sbag0
(g23
g2
Ntp1788
Rp1789
(dp1790
g27
(dp1791
g29
Vwould
p1792
sg31
VO
p1793
sg33
VMD
p1794
sg35
I77
ssg10
I175
sg36
g4
sg37
(dp1795
sg39
(dp1796
sg41
I929
sg42
g21
sg43
g21
sg44
I175
sg45
Vwould
p1797
sg47
I175
sg48
I934
sbag0
(g23
g2
Ntp1798
Rp1799
(dp1800
g27
(dp1801
g29
Vremedy
p1802
sg31
VO
p1803
sg33
VVB
p1804
sg35
I78
ssg10
I176
sg36
g4
sg37
(dp1805
sg39
(dp1806
sg41
I935
sg42
g21
sg43
g21
sg44
I176
sg45
Vremedy
p1807
sg47
I176
sg48
I941
sbag0
(g23
g2
Ntp1808
Rp1809
(dp1810
g27
(dp1811
g29
Vthe
p1812
sg31
VO
p1813
sg33
VDT
p1814
sg35
I79
ssg10
I177
sg36
g4
sg37
(dp1815
sg39
(dp1816
sg41
I942
sg42
g21
sg43
g21
sg44
I177
sg45
Vthe
p1817
sg47
I177
sg48
I945
sbag0
(g23
g2
Ntp1818
Rp1819
(dp1820
g27
(dp1821
g29
Vsocial
p1822
sg31
VO
p1823
sg33
VJJ
p1824
sg35
I80
ssg10
I178
sg36
g4
sg37
(dp1825
sg39
(dp1826
sg41
I946
sg42
g21
sg43
g21
sg44
I178
sg45
Vsocial
p1827
sg47
I178
sg48
I952
sbag0
(g23
g2
Ntp1828
Rp1829
(dp1830
g27
(dp1831
g29
Vdisparity
p1832
sg31
VO
p1833
sg33
VNN
p1834
sg35
I81
ssg10
I179
sg36
g4
sg37
(dp1835
sg39
(dp1836
sg41
I953
sg42
g21
sg43
g21
sg44
I179
sg45
Vdisparity
p1837
sg47
I179
sg48
I962
sbag0
(g23
g2
Ntp1838
Rp1839
(dp1840
g27
(dp1841
g29
Vreflect
p1842
sg31
VO
p1843
sg33
VVBN
p1844
sg35
I82
ssg10
I180
sg36
g4
sg37
(dp1845
sg39
(dp1846
sg41
I963
sg42
g21
sg43
g21
sg44
I180
sg45
Vreflected
p1847
sg47
I180
sg48
I972
sbag0
(g23
g2
Ntp1848
Rp1849
(dp1850
g27
(dp1851
g29
Vby
p1852
sg31
VO
p1853
sg33
VIN
p1854
sg35
I83
ssg10
I181
sg36
g4
sg37
(dp1855
sg39
(dp1856
sg41
I973
sg42
g21
sg43
g21
sg44
I181
sg45
Vby
p1857
sg47
I181
sg48
I975
sbag0
(g23
g2
Ntp1858
Rp1859
(dp1860
g27
(dp1861
g29
Vthe
p1862
sg31
VO
p1863
sg33
VDT
p1864
sg35
I84
ssg10
I182
sg36
g4
sg37
(dp1865
sg39
(dp1866
sg41
I976
sg42
g21
sg43
g21
sg44
I182
sg45
Vthe
p1867
sg47
I182
sg48
I979
sbag0
(g23
g2
Ntp1868
Rp1869
(dp1870
g27
(dp1871
g29
Vfact
p1872
sg31
VO
p1873
sg33
VNN
p1874
sg35
I85
ssg10
I183
sg36
g4
sg37
(dp1875
sg39
(dp1876
sg41
I980
sg42
g21
sg43
g21
sg44
I183
sg45
Vfact
p1877
sg47
I183
sg48
I984
sbag0
(g23
g2
Ntp1878
Rp1879
(dp1880
g27
(dp1881
g29
Vthe
p1882
sg31
VO
p1883
sg33
VDT
p1884
sg35
I86
ssg10
I184
sg36
g4
sg37
(dp1885
sg39
(dp1886
sg41
I985
sg42
g21
sg43
g21
sg44
I184
sg45
Vthe
p1887
sg47
I184
sg48
I988
sbag0
(g23
g2
Ntp1888
Rp1889
(dp1890
g27
(dp1891
g29
Vcurrently
p1892
sg31
VDATE
p1893
sg33
VRB
p1894
sg35
I87
ssg10
I185
sg36
g4
sg37
(dp1895
sg39
(dp1896
sg41
I989
sg42
g21
sg43
g21
sg44
I185
sg45
Vcurrently
p1897
sg47
I185
sg48
I998
sbag0
(g23
g2
Ntp1898
Rp1899
(dp1900
g27
(dp1901
g29
Vthe
p1902
sg31
VO
p1903
sg33
VDT
p1904
sg35
I88
ssg10
I186
sg36
g4
sg37
(dp1905
sg39
(dp1906
sg41
I999
sg42
g21
sg43
g21
sg44
I186
sg45
Vthe
p1907
sg47
I186
sg48
I1002
sbag0
(g23
g2
Ntp1908
Rp1909
(dp1910
g27
(dp1911
g29
Vburden
p1912
sg31
VO
p1913
sg33
VNN
p1914
sg35
I89
ssg10
I187
sg36
g4
sg37
(dp1915
sg39
(dp1916
sg41
I1003
sg42
g21
sg43
g21
sg44
I187
sg45
Vburden
p1917
sg47
I187
sg48
I1009
sbag0
(g23
g2
Ntp1918
Rp1919
(dp1920
g27
(dp1921
g29
Vof
p1922
sg31
VO
p1923
sg33
VIN
p1924
sg35
I90
ssg10
I188
sg36
g4
sg37
(dp1925
sg39
(dp1926
sg41
I1010
sg42
g21
sg43
g21
sg44
I188
sg45
Vof
p1927
sg47
I188
sg48
I1012
sbag0
(g23
g2
Ntp1928
Rp1929
(dp1930
g27
(dp1931
g29
Vmilitary
p1932
sg31
VO
p1933
sg33
VJJ
p1934
sg35
I91
ssg10
I189
sg36
g4
sg37
(dp1935
sg39
(dp1936
sg41
I1013
sg42
g21
sg43
g21
sg44
I189
sg45
Vmilitary
p1937
sg47
I189
sg48
I1021
sbag0
(g23
g2
Ntp1938
Rp1939
(dp1940
g27
(dp1941
g29
Vservice
p1942
sg31
VO
p1943
sg33
VNN
p1944
sg35
I92
ssg10
I190
sg36
g4
sg37
(dp1945
sg39
(dp1946
sg41
I1022
sg42
g21
sg43
g21
sg44
I190
sg45
Vservice
p1947
sg47
I190
sg48
I1029
sbag0
(g23
g2
Ntp1948
Rp1949
(dp1950
g27
(dp1951
g29
Vfall
p1952
sg31
VO
p1953
sg33
VVBZ
p1954
sg35
I93
ssg10
I191
sg36
g4
sg37
(dp1955
sg39
(dp1956
sg41
I1030
sg42
g21
sg43
g21
sg44
I191
sg45
Vfalls
p1957
sg47
I191
sg48
I1035
sbag0
(g23
g2
Ntp1958
Rp1959
(dp1960
g27
(dp1961
g29
Vdisproportionately
p1962
sg31
VO
p1963
sg33
VRB
p1964
sg35
I94
ssg10
I192
sg36
g4
sg37
(dp1965
sg39
(dp1966
sg41
I1036
sg42
g21
sg43
g21
sg44
I192
sg45
Vdisproportionately
p1967
sg47
I192
sg48
I1054
sbag0
(g23
g2
Ntp1968
Rp1969
(dp1970
g27
(dp1971
g29
Von
p1972
sg31
VO
p1973
sg33
VIN
p1974
sg35
I95
ssg10
I193
sg36
g4
sg37
(dp1975
sg39
(dp1976
sg41
I1047
sg42
g21
sg43
g21
sg44
I193
sg45
Von
p1977
sg47
I193
sg48
I1049
sbag0
(g23
g2
Ntp1978
Rp1979
(dp1980
g27
(dp1981
g29
Vthe
p1982
sg31
VO
p1983
sg33
VDT
p1984
sg35
I96
ssg10
I194
sg36
g4
sg37
(dp1985
sg39
(dp1986
sg41
I1058
sg42
g21
sg43
g21
sg44
I194
sg45
Vthe
p1987
sg47
I194
sg48
I1061
sbag0
(g23
g2
Ntp1988
Rp1989
(dp1990
g27
(dp1991
g29
Vpoor
p1992
sg31
VO
p1993
sg33
VJJ
p1994
sg35
I97
ssg10
I195
sg36
g4
sg37
(dp1995
sg39
(dp1996
sg41
I1062
sg42
g21
sg43
g21
sg44
I195
sg45
Vpoor
p1997
sg47
I195
sg48
I1066
sbag0
(g23
g2
Ntp1998
Rp1999
(dp2000
g27
(dp2001
g29
Vand
p2002
sg31
VO
p2003
sg33
VCC
p2004
sg35
I98
ssg10
I196
sg36
g4
sg37
(dp2005
sg39
(dp2006
sg41
I1067
sg42
g21
sg43
g21
sg44
I196
sg45
Vand
p2007
sg47
I196
sg48
I1070
sbag0
(g23
g2
Ntp2008
Rp2009
(dp2010
g27
(dp2011
g29
Vthe
p2012
sg31
VO
p2013
sg33
VDT
p2014
sg35
I99
ssg10
I197
sg36
g4
sg37
(dp2015
sg39
(dp2016
sg41
I1071
sg42
g21
sg43
g21
sg44
I197
sg45
Vthe
p2017
sg47
I197
sg48
I1074
sbag0
(g23
g2
Ntp2018
Rp2019
(dp2020
g27
(dp2021
g29
Vminority
p2022
sg31
VO
p2023
sg33
VNNS
p2024
sg35
I100
ssg10
I198
sg36
g4
sg37
(dp2025
sg39
(dp2026
sg41
I1075
sg42
g21
sg43
g21
sg44
I198
sg45
Vminorities
p2027
sg47
I198
sg48
I1085
sbag0
(g23
g2
Ntp2028
Rp2029
(dp2030
g27
(dp2031
g29
V-lsb-
p2032
sg31
VO
p2033
sg33
V-LRB-
p2034
sg35
I101
ssg10
I199
sg36
g4
sg37
(dp2035
sg39
(dp2036
sg41
I1086
sg42
g21
sg43
g21
sg44
I199
sg45
V[
p2037
sg47
I199
sg48
I1087
sbag0
(g23
g2
Ntp2038
Rp2039
(dp2040
g27
(dp2041
g29
Vref
p2042
sg31
VO
p2043
sg33
VNN
p2044
sg35
I102
ssg10
I200
sg36
g4
sg37
(dp2045
sg39
(dp2046
sg41
I1087
sg42
g21
sg43
g21
sg44
I200
sg45
VREF
p2047
sg47
I200
sg48
I1090
sbag0
(g23
g2
Ntp2048
Rp2049
(dp2050
g27
(dp2051
g29
V-rsb-
p2052
sg31
VO
p2053
sg33
V-RRB-
p2054
sg35
I103
ssg10
I201
sg36
g4
sg37
(dp2055
sg39
(dp2056
sg41
I1090
sg42
g21
sg43
g21
sg44
I201
sg45
V]
p2057
sg47
I201
sg48
I1091
sbag0
(g23
g2
Ntp2058
Rp2059
(dp2060
g27
(dp2061
g29
V.
p2062
sg31
VO
p2063
sg33
V.
p2064
sg35
I104
ssg10
I202
sg36
g4
sg37
(dp2065
sg39
(dp2066
sg41
I1091
sg42
g21
sg43
g21
sg44
I202
sg45
V.
p2067
sg47
I202
sg48
I1092
sbag0
(g23
g2
Ntp2068
Rp2069
(dp2070
g27
(dp2071
g29
Vinitially
p2072
sg31
VO
p2073
sg33
VRB
p2074
sg35
I1
ssg10
I203
sg36
g4
sg37
(dp2075
sg39
(dp2076
sg41
I1093
sg42
g21
sg43
g21
sg44
I203
sg45
VInitially
p2077
sg47
I203
sg48
I1102
sbag0
(g23
g2
Ntp2078
Rp2079
(dp2080
g27
(dp2081
g29
V,
p2082
sg31
VO
p2083
sg33
V,
p2084
sg35
I2
ssg10
I204
sg36
g4
sg37
(dp2085
sg39
(dp2086
sg41
I1102
sg42
g21
sg43
g21
sg44
I204
sg45
V,
p2087
sg47
I204
sg48
I1103
sbag0
(g23
g2
Ntp2088
Rp2089
(dp2090
g27
(dp2091
g29
Vthe
p2092
sg31
VO
p2093
sg33
VDT
p2094
sg35
I3
ssg10
I205
sg36
g4
sg37
(dp2095
sg39
(dp2096
sg41
I1104
sg42
g21
sg43
g21
sg44
I205
sg45
Vthe
p2097
sg47
I205
sg48
I1107
sbag0
(g23
g2
Ntp2098
Rp2099
(dp2100
g27
(dp2101
g29
Vbill
p2102
sg31
VO
p2103
sg33
VNN
p2104
sg35
I4
ssg10
I206
sg36
g4
sg37
(dp2105
sg39
(dp2106
sg41
I1108
sg42
g21
sg43
g21
sg44
I206
sg45
Vbill
p2107
sg47
I206
sg48
I1112
sbag0
(g23
g2
Ntp2108
Rp2109
(dp2110
g27
(dp2111
g29
Vreceive
p2112
sg31
VO
p2113
sg33
VVBD
p2114
sg35
I5
ssg10
I207
sg36
g4
sg37
(dp2115
sg39
(dp2116
sg41
I1113
sg42
g21
sg43
g21
sg44
I207
sg45
Vreceived
p2117
sg47
I207
sg48
I1121
sbag0
(g23
g2
Ntp2118
Rp2119
(dp2120
g27
(dp2121
g29
Vlittle
p2122
sg31
VO
p2123
sg33
VJJ
p2124
sg35
I6
ssg10
I208
sg36
g4
sg37
(dp2125
sg39
(dp2126
sg41
I1122
sg42
g21
sg43
g21
sg44
I208
sg45
Vlittle
p2127
sg47
I208
sg48
I1128
sbag0
(g23
g2
Ntp2128
Rp2129
(dp2130
g27
(dp2131
g29
Vpublic
p2132
sg31
VO
p2133
sg33
VJJ
p2134
sg35
I7
ssg10
I209
sg36
g4
sg37
(dp2135
sg39
(dp2136
sg41
I1129
sg42
g21
sg43
g21
sg44
I209
sg45
Vpublic
p2137
sg47
I209
sg48
I1135
sbag0
(g23
g2
Ntp2138
Rp2139
(dp2140
g27
(dp2141
g29
V,
p2142
sg31
VO
p2143
sg33
V,
p2144
sg35
I8
ssg10
I210
sg36
g4
sg37
(dp2145
sg39
(dp2146
sg41
I1135
sg42
g21
sg43
g21
sg44
I210
sg45
V,
p2147
sg47
I210
sg48
I1136
sbag0
(g23
g2
Ntp2148
Rp2149
(dp2150
g27
(dp2151
g29
Vmedia
p2152
sg31
VO
p2153
sg33
VNNS
p2154
sg35
I9
ssg10
I211
sg36
g4
sg37
(dp2155
sg39
(dp2156
sg41
I1137
sg42
g21
sg43
g21
sg44
I211
sg45
Vmedia
p2157
sg47
I211
sg48
I1142
sbag0
(g23
g2
Ntp2158
Rp2159
(dp2160
g27
(dp2161
g29
Vor
p2162
sg31
VO
p2163
sg33
VCC
p2164
sg35
I10
ssg10
I212
sg36
g4
sg37
(dp2165
sg39
(dp2166
sg41
I1143
sg42
g21
sg43
g21
sg44
I212
sg45
Vor
p2167
sg47
I212
sg48
I1145
sbag0
(g23
g2
Ntp2168
Rp2169
(dp2170
g27
(dp2171
g29
Vcongressional
p2172
sg31
VO
p2173
sg33
VJJ
p2174
sg35
I11
ssg10
I213
sg36
g4
sg37
(dp2175
sg39
(dp2176
sg41
I1146
sg42
g21
sg43
g21
sg44
I213
sg45
Vcongressional
p2177
sg47
I213
sg48
I1159
sbag0
(g23
g2
Ntp2178
Rp2179
(dp2180
g27
(dp2181
g29
Vattention
p2182
sg31
VO
p2183
sg33
VNN
p2184
sg35
I12
ssg10
I214
sg36
g4
sg37
(dp2185
sg39
(dp2186
sg41
I1160
sg42
g21
sg43
g21
sg44
I214
sg45
Vattention
p2187
sg47
I214
sg48
I1169
sbag0
(g23
g2
Ntp2188
Rp2189
(dp2190
g27
(dp2191
g29
V-lsb-
p2192
sg31
VO
p2193
sg33
V-LRB-
p2194
sg35
I13
ssg10
I215
sg36
g4
sg37
(dp2195
sg39
(dp2196
sg41
I1170
sg42
g21
sg43
g21
sg44
I215
sg45
V[
p2197
sg47
I215
sg48
I1171
sbag0
(g23
g2
Ntp2198
Rp2199
(dp2200
g27
(dp2201
g29
Vref
p2202
sg31
VO
p2203
sg33
VNN
p2204
sg35
I14
ssg10
I216
sg36
g4
sg37
(dp2205
sg39
(dp2206
sg41
I1171
sg42
g21
sg43
g21
sg44
I216
sg45
VREF
p2207
sg47
I216
sg48
I1174
sbag0
(g23
g2
Ntp2208
Rp2209
(dp2210
g27
(dp2211
g29
V-rsb-
p2212
sg31
VO
p2213
sg33
V-RRB-
p2214
sg35
I15
ssg10
I217
sg36
g4
sg37
(dp2215
sg39
(dp2216
sg41
I1174
sg42
g21
sg43
g21
sg44
I217
sg45
V]
p2217
sg47
I217
sg48
I1175
sbag0
(g23
g2
Ntp2218
Rp2219
(dp2220
g27
(dp2221
g29
V.
p2222
sg31
VO
p2223
sg33
V.
p2224
sg35
I16
ssg10
I218
sg36
g4
sg37
(dp2225
sg39
(dp2226
sg41
I1175
sg42
g21
sg43
g21
sg44
I218
sg45
V.
p2227
sg47
I218
sg48
I1176
sbag0
(g23
g2
Ntp2228
Rp2229
(dp2230
g27
(dp2231
g29
Vhowever
p2232
sg31
VO
p2233
sg33
VRB
p2234
sg35
I1
ssg10
I219
sg36
g4
sg37
(dp2235
sg39
(dp2236
sg41
I1177
sg42
g21
sg43
g21
sg44
I219
sg45
VHowever
p2237
sg47
I219
sg48
I1184
sbag0
(g23
g2
Ntp2238
Rp2239
(dp2240
g27
(dp2241
g29
V,
p2242
sg31
VO
p2243
sg33
V,
p2244
sg35
I2
ssg10
I220
sg36
g4
sg37
(dp2245
sg39
(dp2246
sg41
I1184
sg42
g21
sg43
g21
sg44
I220
sg45
V,
p2247
sg47
I220
sg48
I1185
sbag0
(g23
g2
Ntp2248
Rp2249
(dp2250
g27
(dp2251
g29
Vwhen
p2252
sg31
VO
p2253
sg33
VWRB
p2254
sg35
I3
ssg10
I221
sg36
g4
sg37
(dp2255
sg39
(dp2256
sg41
I1186
sg42
g21
sg43
g21
sg44
I221
sg45
Vwhen
p2257
sg47
I221
sg48
I1190
sbag0
(g23
g2
Ntp2258
Rp2259
(dp2260
g27
(dp2261
g29
Vafter
p2262
sg31
VO
p2263
sg33
VIN
p2264
sg35
I4
ssg10
I222
sg36
g4
sg37
(dp2265
sg39
(dp2266
sg41
I1191
sg42
g21
sg43
g21
sg44
I222
sg45
Vafter
p2267
sg47
I222
sg48
I1196
sbag0
(g23
g2
Ntp2268
Rp2269
(dp2270
g27
(dp2271
g29
Vthe
p2272
sg31
VO
p2273
sg33
VDT
p2274
sg35
I5
ssg10
I223
sg36
g4
sg37
(dp2275
sg39
(dp2276
sg41
I1197
sg42
g21
sg43
g21
sg44
I223
sg45
Vthe
p2277
sg47
I223
sg48
I1200
sbag0
(g23
g2
Ntp2278
Rp2279
(dp2280
g27
(dp2281
g29
Vdemocratic
p2282
sg31
VMISC
p2283
sg33
VJJ
p2284
sg35
I6
ssg10
I224
sg36
g4
sg37
(dp2285
sg39
(dp2286
sg41
I1201
sg42
g21
sg43
g21
sg44
I224
sg45
VDemocratic
p2287
sg47
I224
sg48
I1211
sbag0
(g23
g2
Ntp2288
Rp2289
(dp2290
g27
(dp2291
g29
Vvictory
p2292
sg31
VO
p2293
sg33
VNNS
p2294
sg35
I7
ssg10
I225
sg36
g4
sg37
(dp2295
sg39
(dp2296
sg41
I1212
sg42
g21
sg43
g21
sg44
I225
sg45
Vvictories
p2297
sg47
I225
sg48
I1221
sbag0
(g23
g2
Ntp2298
Rp2299
(dp2300
g27
(dp2301
g29
Vin
p2302
sg31
VO
p2303
sg33
VIN
p2304
sg35
I8
ssg10
I226
sg36
g4
sg37
(dp2305
sg39
(dp2306
sg41
I1222
sg42
g21
sg43
g21
sg44
I226
sg45
Vin
p2307
sg47
I226
sg48
I1224
sbag0
(g23
g2
Ntp2308
Rp2309
(dp2310
g27
(dp2311
g29
Vthe
p2312
sg31
VO
p2313
sg33
VDT
p2314
sg35
I9
ssg10
I227
sg36
g4
sg37
(dp2315
sg39
(dp2316
sg41
I1225
sg42
g21
sg43
g21
sg44
I227
sg45
Vthe
p2317
sg47
I227
sg48
I1228
sbag0
(g23
g2
Ntp2318
Rp2319
(dp2320
g27
(dp2321
g29
VNovember
p2322
sg31
VDATE
p2323
sg33
VNNP
p2324
sg35
I10
ssg10
I228
sg36
g4
sg37
(dp2325
sg39
(dp2326
sg41
I1229
sg42
g21
sg43
g21
sg44
I228
sg45
VNovember
p2327
sg47
I228
sg48
I1237
sbag0
(g23
g2
Ntp2328
Rp2329
(dp2330
g27
(dp2331
g29
V2007
p2332
sg31
VDATE
p2333
sg33
VCD
p2334
sg35
I11
ssg10
I229
sg36
g4
sg37
(dp2335
sg39
(dp2336
sg41
I1238
sg42
g21
sg43
g21
sg44
I229
sg45
V2007
p2337
sg47
I229
sg48
I1242
sbag0
(g23
g2
Ntp2338
Rp2339
(dp2340
g27
(dp2341
g29
Vcongressional
p2342
sg31
VO
p2343
sg33
VJJ
p2344
sg35
I12
ssg10
I230
sg36
g4
sg37
(dp2345
sg39
(dp2346
sg41
I1243
sg42
g21
sg43
g21
sg44
I230
sg45
Vcongressional
p2347
sg47
I230
sg48
I1256
sbag0
(g23
g2
Ntp2348
Rp2349
(dp2350
g27
(dp2351
g29
Velection
p2352
sg31
VO
p2353
sg33
VNNS
p2354
sg35
I13
ssg10
I231
sg36
g4
sg37
(dp2355
sg39
(dp2356
sg41
I1257
sg42
g21
sg43
g21
sg44
I231
sg45
Velections
p2357
sg47
I231
sg48
I1266
sbag0
(g23
g2
Ntp2358
Rp2359
(dp2360
g27
(dp2361
g29
V,
p2362
sg31
VO
p2363
sg33
V,
p2364
sg35
I14
ssg10
I232
sg36
g4
sg37
(dp2365
sg39
(dp2366
sg41
I1266
sg42
g21
sg43
g21
sg44
I232
sg45
V,
p2367
sg47
I232
sg48
I1267
sbag0
(g23
g2
Ntp2368
Rp2369
(dp2370
g27
(dp2371
g29
VRangel
p2372
sg31
VPERSON
p2373
sg33
VNNP
p2374
sg35
I15
ssg10
I233
sg36
g4
sg37
(dp2375
sg39
(dp2376
sg41
I1268
sg42
g21
sg43
g21
sg44
I233
sg45
VRangel
p2377
sg47
I233
sg48
I1274
sbag0
(g23
g2
Ntp2378
Rp2379
(dp2380
g27
(dp2381
g29
Vrepeat
p2382
sg31
VO
p2383
sg33
VVBD
p2384
sg35
I16
ssg10
I234
sg36
g4
sg37
(dp2385
sg39
(dp2386
sg41
I1275
sg42
g21
sg43
g21
sg44
I234
sg45
Vrepeated
p2387
sg47
I234
sg48
I1283
sbag0
(g23
g2
Ntp2388
Rp2389
(dp2390
g27
(dp2391
g29
Vhe
p2392
sg31
VO
p2393
sg33
VPRP$
p2394
sg35
I17
ssg10
I235
sg36
g4
sg37
(dp2395
sg39
(dp2396
sg41
I1284
sg42
g21
sg43
g21
sg44
I235
sg45
Vhis
p2397
sg47
I235
sg48
I1287
sbag0
(g23
g2
Ntp2398
Rp2399
(dp2400
g27
(dp2401
g29
Vcall
p2402
sg31
VO
p2403
sg33
VNN
p2404
sg35
I18
ssg10
I236
sg36
g4
sg37
(dp2405
sg39
(dp2406
sg41
I1288
sg42
g21
sg43
g21
sg44
I236
sg45
Vcall
p2407
sg47
I236
sg48
I1292
sbag0
(g23
g2
Ntp2408
Rp2409
(dp2410
g27
(dp2411
g29
Vfor
p2412
sg31
VO
p2413
sg33
VIN
p2414
sg35
I19
ssg10
I237
sg36
g4
sg37
(dp2415
sg39
(dp2416
sg41
I1293
sg42
g21
sg43
g21
sg44
I237
sg45
Vfor
p2417
sg47
I237
sg48
I1296
sbag0
(g23
g2
Ntp2418
Rp2419
(dp2420
g27
(dp2421
g29
Vre-introduction
p2422
sg31
VO
p2423
sg33
VNN
p2424
sg35
I20
ssg10
I238
sg36
g4
sg37
(dp2425
sg39
(dp2426
sg41
I1297
sg42
g21
sg43
g21
sg44
I238
sg45
Vre-introduction
p2427
sg47
I238
sg48
I1312
sbag0
(g23
g2
Ntp2428
Rp2429
(dp2430
g27
(dp2431
g29
Vof
p2432
sg31
VO
p2433
sg33
VIN
p2434
sg35
I21
ssg10
I239
sg36
g4
sg37
(dp2435
sg39
(dp2436
sg41
I1313
sg42
g21
sg43
g21
sg44
I239
sg45
Vof
p2437
sg47
I239
sg48
I1315
sbag0
(g23
g2
Ntp2438
Rp2439
(dp2440
g27
(dp2441
g29
Vthe
p2442
sg31
VO
p2443
sg33
VDT
p2444
sg35
I22
ssg10
I240
sg36
g4
sg37
(dp2445
sg39
(dp2446
sg41
I1316
sg42
g21
sg43
g21
sg44
I240
sg45
Vthe
p2447
sg47
I240
sg48
I1319
sbag0
(g23
g2
Ntp2448
Rp2449
(dp2450
g27
(dp2451
g29
Vdraft
p2452
sg31
VO
p2453
sg33
VNN
p2454
sg35
I23
ssg10
I241
sg36
g4
sg37
(dp2455
sg39
(dp2456
sg41
I1320
sg42
g21
sg43
g21
sg44
I241
sg45
Vdraft
p2457
sg47
I241
sg48
I1325
sbag0
(g23
g2
Ntp2458
Rp2459
(dp2460
g27
(dp2461
g29
Vand
p2462
sg31
VO
p2463
sg33
VCC
p2464
sg35
I24
ssg10
I242
sg36
g4
sg37
(dp2465
sg39
(dp2466
sg41
I1326
sg42
g21
sg43
g21
sg44
I242
sg45
Vand
p2467
sg47
I242
sg48
I1329
sbag0
(g23
g2
Ntp2468
Rp2469
(dp2470
g27
(dp2471
g29
Vfor
p2472
sg31
VO
p2473
sg33
VIN
p2474
sg35
I25
ssg10
I243
sg36
g4
sg37
(dp2475
sg39
(dp2476
sg41
I1330
sg42
g21
sg43
g21
sg44
I243
sg45
Vfor
p2477
sg47
I243
sg48
I1333
sbag0
(g23
g2
Ntp2478
Rp2479
(dp2480
g27
(dp2481
g29
Vmove
p2482
sg31
VO
p2483
sg33
VVBG
p2484
sg35
I26
ssg10
I244
sg36
g4
sg37
(dp2485
sg39
(dp2486
sg41
I1334
sg42
g21
sg43
g21
sg44
I244
sg45
Vmoving
p2487
sg47
I244
sg48
I1340
sbag0
(g23
g2
Ntp2488
Rp2489
(dp2490
g27
(dp2491
g29
Vforward
p2492
sg31
VO
p2493
sg33
VRB
p2494
sg35
I27
ssg10
I245
sg36
g4
sg37
(dp2495
sg39
(dp2496
sg41
I1341
sg42
g21
sg43
g21
sg44
I245
sg45
Vforward
p2497
sg47
I245
sg48
I1348
sbag0
(g23
g2
Ntp2498
Rp2499
(dp2500
g27
(dp2501
g29
Von
p2502
sg31
VO
p2503
sg33
VIN
p2504
sg35
I28
ssg10
I246
sg36
g4
sg37
(dp2505
sg39
(dp2506
sg41
I1349
sg42
g21
sg43
g21
sg44
I246
sg45
Von
p2507
sg47
I246
sg48
I1351
sbag0
(g23
g2
Ntp2508
Rp2509
(dp2510
g27
(dp2511
g29
Vthe
p2512
sg31
VO
p2513
sg33
VDT
p2514
sg35
I29
ssg10
I247
sg36
g4
sg37
(dp2515
sg39
(dp2516
sg41
I1352
sg42
g21
sg43
g21
sg44
I247
sg45
Vthe
p2517
sg47
I247
sg48
I1355
sbag0
(g23
g2
Ntp2518
Rp2519
(dp2520
g27
(dp2521
g29
Vbill
p2522
sg31
VO
p2523
sg33
VNN
p2524
sg35
I30
ssg10
I248
sg36
g4
sg37
(dp2525
sg39
(dp2526
sg41
I1356
sg42
g21
sg43
g21
sg44
I248
sg45
Vbill
p2527
sg47
I248
sg48
I1360
sbag0
(g23
g2
Ntp2528
Rp2529
(dp2530
g27
(dp2531
g29
V-lsb-
p2532
sg31
VO
p2533
sg33
V-LRB-
p2534
sg35
I31
ssg10
I249
sg36
g4
sg37
(dp2535
sg39
(dp2536
sg41
I1360
sg42
g21
sg43
g21
sg44
I249
sg45
V[
p2537
sg47
I249
sg48
I1361
sbag0
(g23
g2
Ntp2538
Rp2539
(dp2540
g27
(dp2541
g29
Vref
p2542
sg31
VO
p2543
sg33
VNN
p2544
sg35
I32
ssg10
I250
sg36
g4
sg37
(dp2545
sg39
(dp2546
sg41
I1361
sg42
g21
sg43
g21
sg44
I250
sg45
VREF
p2547
sg47
I250
sg48
I1364
sbag0
(g23
g2
Ntp2548
Rp2549
(dp2550
g27
(dp2551
g29
V-rsb-
p2552
sg31
VO
p2553
sg33
V-RRB-
p2554
sg35
I33
ssg10
I251
sg36
g4
sg37
(dp2555
sg39
(dp2556
sg41
I1364
sg42
g21
sg43
g21
sg44
I251
sg45
V]
p2557
sg47
I251
sg48
I1365
sbag0
(g23
g2
Ntp2558
Rp2559
(dp2560
g27
(dp2561
g29
V,
p2562
sg31
VO
p2563
sg33
V,
p2564
sg35
I34
ssg10
I252
sg36
g4
sg37
(dp2565
sg39
(dp2566
sg41
I1365
sg42
g21
sg43
g21
sg44
I252
sg45
V,
p2567
sg47
I252
sg48
I1366
sbag0
(g23
g2
Ntp2568
Rp2569
(dp2570
g27
(dp2571
g29
Va
p2572
sg31
VO
p2573
sg33
VDT
p2574
sg35
I35
ssg10
I253
sg36
g4
sg37
(dp2575
sg39
(dp2576
sg41
I1367
sg42
g21
sg43
g21
sg44
I253
sg45
Va
p2577
sg47
I253
sg48
I1368
sbag0
(g23
g2
Ntp2578
Rp2579
(dp2580
g27
(dp2581
g29
Vmore
p2582
sg31
VO
p2583
sg33
VRBR
p2584
sg35
I36
ssg10
I254
sg36
g4
sg37
(dp2585
sg39
(dp2586
sg41
I1369
sg42
g21
sg43
g21
sg44
I254
sg45
Vmore
p2587
sg47
I254
sg48
I1373
sbag0
(g23
g2
Ntp2588
Rp2589
(dp2590
g27
(dp2591
g29
Vactive
p2592
sg31
VO
p2593
sg33
VJJ
p2594
sg35
I37
ssg10
I255
sg36
g4
sg37
(dp2595
sg39
(dp2596
sg41
I1374
sg42
g21
sg43
g21
sg44
I255
sg45
Vactive
p2597
sg47
I255
sg48
I1380
sbag0
(g23
g2
Ntp2598
Rp2599
(dp2600
g27
(dp2601
g29
Vpublic
p2602
sg31
VO
p2603
sg33
VJJ
p2604
sg35
I38
ssg10
I256
sg36
g4
sg37
(dp2605
sg39
(dp2606
sg41
I1381
sg42
g21
sg43
g21
sg44
I256
sg45
Vpublic
p2607
sg47
I256
sg48
I1387
sbag0
(g23
g2
Ntp2608
Rp2609
(dp2610
g27
(dp2611
g29
Vdiscussion
p2612
sg31
VO
p2613
sg33
VNN
p2614
sg35
I39
ssg10
I257
sg36
g4
sg37
(dp2615
sg39
(dp2616
sg41
I1388
sg42
g21
sg43
g21
sg44
I257
sg45
Vdiscussion
p2617
sg47
I257
sg48
I1398
sbag0
(g23
g2
Ntp2618
Rp2619
(dp2620
g27
(dp2621
g29
Vof
p2622
sg31
VO
p2623
sg33
VIN
p2624
sg35
I40
ssg10
I258
sg36
g4
sg37
(dp2625
sg39
(dp2626
sg41
I1399
sg42
g21
sg43
g21
sg44
I258
sg45
Vof
p2627
sg47
I258
sg48
I1401
sbag0
(g23
g2
Ntp2628
Rp2629
(dp2630
g27
(dp2631
g29
Vthe
p2632
sg31
VO
p2633
sg33
VDT
p2634
sg35
I41
ssg10
I259
sg36
g4
sg37
(dp2635
sg39
(dp2636
sg41
I1402
sg42
g21
sg43
g21
sg44
I259
sg45
Vthe
p2637
sg47
I259
sg48
I1405
sbag0
(g23
g2
Ntp2638
Rp2639
(dp2640
g27
(dp2641
g29
Vproposal
p2642
sg31
VO
p2643
sg33
VNN
p2644
sg35
I42
ssg10
I260
sg36
g4
sg37
(dp2645
sg39
(dp2646
sg41
I1406
sg42
g21
sg43
g21
sg44
I260
sg45
Vproposal
p2647
sg47
I260
sg48
I1414
sbag0
(g23
g2
Ntp2648
Rp2649
(dp2650
g27
(dp2651
g29
Vfollow
p2652
sg31
VO
p2653
sg33
VVBD
p2654
sg35
I43
ssg10
I261
sg36
g4
sg37
(dp2655
sg39
(dp2656
sg41
I1415
sg42
g21
sg43
g21
sg44
I261
sg45
Vfollowed
p2657
sg47
I261
sg48
I1423
sbag0
(g23
g2
Ntp2658
Rp2659
(dp2660
g27
(dp2661
g29
V.
p2662
sg31
VO
p2663
sg33
V.
p2664
sg35
I44
ssg10
I262
sg36
g4
sg37
(dp2665
sg39
(dp2666
sg41
I1423
sg42
g21
sg43
g21
sg44
I262
sg45
V.
p2667
sg47
I262
sg48
I1424
sbag0
(g23
g2
Ntp2668
Rp2669
(dp2670
g27
(dp2671
g29
Vmost
p2672
sg31
VO
p2673
sg33
VJJS
p2674
sg35
I1
ssg10
I263
sg36
g4
sg37
(dp2675
sg39
(dp2676
sg41
I1425
sg42
g21
sg43
g21
sg44
I263
sg45
VMost
p2677
sg47
I263
sg48
I1429
sbag0
(g23
g2
Ntp2678
Rp2679
(dp2680
g27
(dp2681
g29
Vof
p2682
sg31
VO
p2683
sg33
VIN
p2684
sg35
I2
ssg10
I264
sg36
g4
sg37
(dp2685
sg39
(dp2686
sg41
I1430
sg42
g21
sg43
g21
sg44
I264
sg45
Vof
p2687
sg47
I264
sg48
I1432
sbag0
(g23
g2
Ntp2688
Rp2689
(dp2690
g27
(dp2691
g29
Vthe
p2692
sg31
VO
p2693
sg33
VDT
p2694
sg35
I3
ssg10
I265
sg36
g4
sg37
(dp2695
sg39
(dp2696
sg41
I1433
sg42
g21
sg43
g21
sg44
I265
sg45
Vthe
p2697
sg47
I265
sg48
I1436
sbag0
(g23
g2
Ntp2698
Rp2699
(dp2700
g27
(dp2701
g29
Vreaction
p2702
sg31
VO
p2703
sg33
VNN
p2704
sg35
I4
ssg10
I266
sg36
g4
sg37
(dp2705
sg39
(dp2706
sg41
I1437
sg42
g21
sg43
g21
sg44
I266
sg45
Vreaction
p2707
sg47
I266
sg48
I1445
sbag0
(g23
g2
Ntp2708
Rp2709
(dp2710
g27
(dp2711
g29
Vin
p2712
sg31
VO
p2713
sg33
VIN
p2714
sg35
I5
ssg10
I267
sg36
g4
sg37
(dp2715
sg39
(dp2716
sg41
I1446
sg42
g21
sg43
g21
sg44
I267
sg45
Vin
p2717
sg47
I267
sg48
I1448
sbag0
(g23
g2
Ntp2718
Rp2719
(dp2720
g27
(dp2721
g29
Vthe
p2722
sg31
VO
p2723
sg33
VDT
p2724
sg35
I6
ssg10
I268
sg36
g4
sg37
(dp2725
sg39
(dp2726
sg41
I1449
sg42
g21
sg43
g21
sg44
I268
sg45
Vthe
p2727
sg47
I268
sg48
I1452
sbag0
(g23
g2
Ntp2728
Rp2729
(dp2730
g27
(dp2731
g29
Vmedia
p2732
sg31
VO
p2733
sg33
VNNS
p2734
sg35
I7
ssg10
I269
sg36
g4
sg37
(dp2735
sg39
(dp2736
sg41
I1453
sg42
g21
sg43
g21
sg44
I269
sg45
Vmedia
p2737
sg47
I269
sg48
I1458
sbag0
(g23
g2
Ntp2738
Rp2739
(dp2740
g27
(dp2741
g29
V,
p2742
sg31
VO
p2743
sg33
V,
p2744
sg35
I8
ssg10
I270
sg36
g4
sg37
(dp2745
sg39
(dp2746
sg41
I1458
sg42
g21
sg43
g21
sg44
I270
sg45
V,
p2747
sg47
I270
sg48
I1459
sbag0
(g23
g2
Ntp2748
Rp2749
(dp2750
g27
(dp2751
g29
VCongress
p2752
sg31
VORGANIZATION
p2753
sg33
VNNP
p2754
sg35
I9
ssg10
I271
sg36
g4
sg37
(dp2755
sg39
(dp2756
sg41
I1460
sg42
g21
sg43
g21
sg44
I271
sg45
VCongress
p2757
sg47
I271
sg48
I1468
sbag0
(g23
g2
Ntp2758
Rp2759
(dp2760
g27
(dp2761
g29
Vand
p2762
sg31
VO
p2763
sg33
VCC
p2764
sg35
I10
ssg10
I272
sg36
g4
sg37
(dp2765
sg39
(dp2766
sg41
I1469
sg42
g21
sg43
g21
sg44
I272
sg45
Vand
p2767
sg47
I272
sg48
I1472
sbag0
(g23
g2
Ntp2768
Rp2769
(dp2770
g27
(dp2771
g29
Vby
p2772
sg31
VO
p2773
sg33
VIN
p2774
sg35
I11
ssg10
I273
sg36
g4
sg37
(dp2775
sg39
(dp2776
sg41
I1473
sg42
g21
sg43
g21
sg44
I273
sg45
Vby
p2777
sg47
I273
sg48
I1475
sbag0
(g23
g2
Ntp2778
Rp2779
(dp2780
g27
(dp2781
g29
Vthe
p2782
sg31
VO
p2783
sg33
VDT
p2784
sg35
I12
ssg10
I274
sg36
g4
sg37
(dp2785
sg39
(dp2786
sg41
I1476
sg42
g21
sg43
g21
sg44
I274
sg45
Vthe
p2787
sg47
I274
sg48
I1479
sbag0
(g23
g2
Ntp2788
Rp2789
(dp2790
g27
(dp2791
g29
Vpublic
p2792
sg31
VO
p2793
sg33
VNN
p2794
sg35
I13
ssg10
I275
sg36
g4
sg37
(dp2795
sg39
(dp2796
sg41
I1480
sg42
g21
sg43
g21
sg44
I275
sg45
Vpublic
p2797
sg47
I275
sg48
I1486
sbag0
(g23
g2
Ntp2798
Rp2799
(dp2800
g27
(dp2801
g29
Vbe
p2802
sg31
VO
p2803
sg33
VVBD
p2804
sg35
I14
ssg10
I276
sg36
g4
sg37
(dp2805
sg39
(dp2806
sg41
I1487
sg42
g21
sg43
g21
sg44
I276
sg45
Vwas
p2807
sg47
I276
sg48
I1490
sbag0
(g23
g2
Ntp2808
Rp2809
(dp2810
g27
(dp2811
g29
Vnegative
p2812
sg31
VO
p2813
sg33
VJJ
p2814
sg35
I15
ssg10
I277
sg36
g4
sg37
(dp2815
sg39
(dp2816
sg41
I1491
sg42
g21
sg43
g21
sg44
I277
sg45
Vnegative
p2817
sg47
I277
sg48
I1499
sbag0
(g23
g2
Ntp2818
Rp2819
(dp2820
g27
(dp2821
g29
V-lsb-
p2822
sg31
VO
p2823
sg33
V-LRB-
p2824
sg35
I16
ssg10
I278
sg36
g4
sg37
(dp2825
sg39
(dp2826
sg41
I1499
sg42
g21
sg43
g21
sg44
I278
sg45
V[
p2827
sg47
I278
sg48
I1500
sbag0
(g23
g2
Ntp2828
Rp2829
(dp2830
g27
(dp2831
g29
Vref
p2832
sg31
VO
p2833
sg33
VNN
p2834
sg35
I17
ssg10
I279
sg36
g4
sg37
(dp2835
sg39
(dp2836
sg41
I1500
sg42
g21
sg43
g21
sg44
I279
sg45
VREF
p2837
sg47
I279
sg48
I1503
sbag0
(g23
g2
Ntp2838
Rp2839
(dp2840
g27
(dp2841
g29
V-rsb-
p2842
sg31
VO
p2843
sg33
V-RRB-
p2844
sg35
I18
ssg10
I280
sg36
g4
sg37
(dp2845
sg39
(dp2846
sg41
I1503
sg42
g21
sg43
g21
sg44
I280
sg45
V]
p2847
sg47
I280
sg48
I1504
sbag0
(g23
g2
Ntp2848
Rp2849
(dp2850
g27
(dp2851
g29
V-lsb-
p2852
sg31
VO
p2853
sg33
V-LRB-
p2854
sg35
I19
ssg10
I281
sg36
g4
sg37
(dp2855
sg39
(dp2856
sg41
I1504
sg42
g21
sg43
g21
sg44
I281
sg45
V[
p2857
sg47
I281
sg48
I1505
sbag0
(g23
g2
Ntp2858
Rp2859
(dp2860
g27
(dp2861
g29
Vref
p2862
sg31
VO
p2863
sg33
VNN
p2864
sg35
I20
ssg10
I282
sg36
g4
sg37
(dp2865
sg39
(dp2866
sg41
I1505
sg42
g21
sg43
g21
sg44
I282
sg45
VREF
p2867
sg47
I282
sg48
I1508
sbag0
(g23
g2
Ntp2868
Rp2869
(dp2870
g27
(dp2871
g29
V-rsb-
p2872
sg31
VO
p2873
sg33
V-RRB-
p2874
sg35
I21
ssg10
I283
sg36
g4
sg37
(dp2875
sg39
(dp2876
sg41
I1508
sg42
g21
sg43
g21
sg44
I283
sg45
V]
p2877
sg47
I283
sg48
I1509
sbag0
(g23
g2
Ntp2878
Rp2879
(dp2880
g27
(dp2881
g29
V-lsb-
p2882
sg31
VO
p2883
sg33
V-LRB-
p2884
sg35
I22
ssg10
I284
sg36
g4
sg37
(dp2885
sg39
(dp2886
sg41
I1509
sg42
g21
sg43
g21
sg44
I284
sg45
V[
p2887
sg47
I284
sg48
I1510
sbag0
(g23
g2
Ntp2888
Rp2889
(dp2890
g27
(dp2891
g29
Vref
p2892
sg31
VO
p2893
sg33
VNN
p2894
sg35
I23
ssg10
I285
sg36
g4
sg37
(dp2895
sg39
(dp2896
sg41
I1510
sg42
g21
sg43
g21
sg44
I285
sg45
VREF
p2897
sg47
I285
sg48
I1513
sbag0
(g23
g2
Ntp2898
Rp2899
(dp2900
g27
(dp2901
g29
V-rsb-
p2902
sg31
VO
p2903
sg33
V-RRB-
p2904
sg35
I24
ssg10
I286
sg36
g4
sg37
(dp2905
sg39
(dp2906
sg41
I1513
sg42
g21
sg43
g21
sg44
I286
sg45
V]
p2907
sg47
I286
sg48
I1514
sbag0
(g23
g2
Ntp2908
Rp2909
(dp2910
g27
(dp2911
g29
V-lsb-
p2912
sg31
VO
p2913
sg33
V-LRB-
p2914
sg35
I25
ssg10
I287
sg36
g4
sg37
(dp2915
sg39
(dp2916
sg41
I1514
sg42
g21
sg43
g21
sg44
I287
sg45
V[
p2917
sg47
I287
sg48
I1515
sbag0
(g23
g2
Ntp2918
Rp2919
(dp2920
g27
(dp2921
g29
Vref
p2922
sg31
VO
p2923
sg33
VNN
p2924
sg35
I26
ssg10
I288
sg36
g4
sg37
(dp2925
sg39
(dp2926
sg41
I1515
sg42
g21
sg43
g21
sg44
I288
sg45
VREF
p2927
sg47
I288
sg48
I1518
sbag0
(g23
g2
Ntp2928
Rp2929
(dp2930
g27
(dp2931
g29
V-rsb-
p2932
sg31
VO
p2933
sg33
V-RRB-
p2934
sg35
I27
ssg10
I289
sg36
g4
sg37
(dp2935
sg39
(dp2936
sg41
I1518
sg42
g21
sg43
g21
sg44
I289
sg45
V]
p2937
sg47
I289
sg48
I1519
sbag0
(g23
g2
Ntp2938
Rp2939
(dp2940
g27
(dp2941
g29
V-lsb-
p2942
sg31
VO
p2943
sg33
V-LRB-
p2944
sg35
I28
ssg10
I290
sg36
g4
sg37
(dp2945
sg39
(dp2946
sg41
I1519
sg42
g21
sg43
g21
sg44
I290
sg45
V[
p2947
sg47
I290
sg48
I1520
sbag0
(g23
g2
Ntp2948
Rp2949
(dp2950
g27
(dp2951
g29
Vref
p2952
sg31
VO
p2953
sg33
VNN
p2954
sg35
I29
ssg10
I291
sg36
g4
sg37
(dp2955
sg39
(dp2956
sg41
I1520
sg42
g21
sg43
g21
sg44
I291
sg45
VREF
p2957
sg47
I291
sg48
I1523
sbag0
(g23
g2
Ntp2958
Rp2959
(dp2960
g27
(dp2961
g29
V-rsb-
p2962
sg31
VO
p2963
sg33
V-RRB-
p2964
sg35
I30
ssg10
I292
sg36
g4
sg37
(dp2965
sg39
(dp2966
sg41
I1523
sg42
g21
sg43
g21
sg44
I292
sg45
V]
p2967
sg47
I292
sg48
I1524
sbag0
(g23
g2
Ntp2968
Rp2969
(dp2970
g27
(dp2971
g29
V-lsb-
p2972
sg31
VO
p2973
sg33
V-LRB-
p2974
sg35
I31
ssg10
I293
sg36
g4
sg37
(dp2975
sg39
(dp2976
sg41
I1524
sg42
g21
sg43
g21
sg44
I293
sg45
V[
p2977
sg47
I293
sg48
I1525
sbag0
(g23
g2
Ntp2978
Rp2979
(dp2980
g27
(dp2981
g29
Vref
p2982
sg31
VO
p2983
sg33
VNN
p2984
sg35
I32
ssg10
I294
sg36
g4
sg37
(dp2985
sg39
(dp2986
sg41
I1525
sg42
g21
sg43
g21
sg44
I294
sg45
VREF
p2987
sg47
I294
sg48
I1528
sbag0
(g23
g2
Ntp2988
Rp2989
(dp2990
g27
(dp2991
g29
V-rsb-
p2992
sg31
VO
p2993
sg33
V-RRB-
p2994
sg35
I33
ssg10
I295
sg36
g4
sg37
(dp2995
sg39
(dp2996
sg41
I1528
sg42
g21
sg43
g21
sg44
I295
sg45
V]
p2997
sg47
I295
sg48
I1529
sbag0
(g23
g2
Ntp2998
Rp2999
(dp3000
g27
(dp3001
g29
V,
p3002
sg31
VO
p3003
sg33
V,
p3004
sg35
I34
ssg10
I296
sg36
g4
sg37
(dp3005
sg39
(dp3006
sg41
I1529
sg42
g21
sg43
g21
sg44
I296
sg45
V,
p3007
sg47
I296
sg48
I1530
sbag0
(g23
g2
Ntp3008
Rp3009
(dp3010
g27
(dp3011
g29
Valthough
p3012
sg31
VO
p3013
sg33
VIN
p3014
sg35
I35
ssg10
I297
sg36
g4
sg37
(dp3015
sg39
(dp3016
sg41
I1531
sg42
g21
sg43
g21
sg44
I297
sg45
Valthough
p3017
sg47
I297
sg48
I1539
sbag0
(g23
g2
Ntp3018
Rp3019
(dp3020
g27
(dp3021
g29
Voccasional
p3022
sg31
VO
p3023
sg33
VJJ
p3024
sg35
I36
ssg10
I298
sg36
g4
sg37
(dp3025
sg39
(dp3026
sg41
I1540
sg42
g21
sg43
g21
sg44
I298
sg45
Voccasional
p3027
sg47
I298
sg48
I1550
sbag0
(g23
g2
Ntp3028
Rp3029
(dp3030
g27
(dp3031
g29
Vsupport
p3032
sg31
VO
p3033
sg33
VNN
p3034
sg35
I37
ssg10
I299
sg36
g4
sg37
(dp3035
sg39
(dp3036
sg41
I1551
sg42
g21
sg43
g21
sg44
I299
sg45
Vsupport
p3037
sg47
I299
sg48
I1558
sbag0
(g23
g2
Ntp3038
Rp3039
(dp3040
g27
(dp3041
g29
Vfor
p3042
sg31
VO
p3043
sg33
VIN
p3044
sg35
I38
ssg10
I300
sg36
g4
sg37
(dp3045
sg39
(dp3046
sg41
I1559
sg42
g21
sg43
g21
sg44
I300
sg45
Vfor
p3047
sg47
I300
sg48
I1562
sbag0
(g23
g2
Ntp3048
Rp3049
(dp3050
g27
(dp3051
g29
Vthe
p3052
sg31
VO
p3053
sg33
VDT
p3054
sg35
I39
ssg10
I301
sg36
g4
sg37
(dp3055
sg39
(dp3056
sg41
I1563
sg42
g21
sg43
g21
sg44
I301
sg45
Vthe
p3057
sg47
I301
sg48
I1566
sbag0
(g23
g2
Ntp3058
Rp3059
(dp3060
g27
(dp3061
g29
Videa
p3062
sg31
VO
p3063
sg33
VNN
p3064
sg35
I40
ssg10
I302
sg36
g4
sg37
(dp3065
sg39
(dp3066
sg41
I1567
sg42
g21
sg43
g21
sg44
I302
sg45
Videa
p3067
sg47
I302
sg48
I1571
sbag0
(g23
g2
Ntp3068
Rp3069
(dp3070
g27
(dp3071
g29
Vbe
p3072
sg31
VO
p3073
sg33
VVBD
p3074
sg35
I41
ssg10
I303
sg36
g4
sg37
(dp3075
sg39
(dp3076
sg41
I1572
sg42
g21
sg43
g21
sg44
I303
sg45
Vwas
p3077
sg47
I303
sg48
I1575
sbag0
(g23
g2
Ntp3078
Rp3079
(dp3080
g27
(dp3081
g29
Vexpress
p3082
sg31
VO
p3083
sg33
VVBN
p3084
sg35
I42
ssg10
I304
sg36
g4
sg37
(dp3085
sg39
(dp3086
sg41
I1576
sg42
g21
sg43
g21
sg44
I304
sg45
Vexpressed
p3087
sg47
I304
sg48
I1585
sbag0
(g23
g2
Ntp3088
Rp3089
(dp3090
g27
(dp3091
g29
Vas
p3092
sg31
VO
p3093
sg33
VRB
p3094
sg35
I43
ssg10
I305
sg36
g4
sg37
(dp3095
sg39
(dp3096
sg41
I1586
sg42
g21
sg43
g21
sg44
I305
sg45
Vas
p3097
sg47
I305
sg48
I1588
sbag0
(g23
g2
Ntp3098
Rp3099
(dp3100
g27
(dp3101
g29
Vwell
p3102
sg31
VO
p3103
sg33
VRB
p3104
sg35
I44
ssg10
I306
sg36
g4
sg37
(dp3105
sg39
(dp3106
sg41
I1589
sg42
g21
sg43
g21
sg44
I306
sg45
Vwell
p3107
sg47
I306
sg48
I1593
sbag0
(g23
g2
Ntp3108
Rp3109
(dp3110
g27
(dp3111
g29
V-lsb-
p3112
sg31
VO
p3113
sg33
V-LRB-
p3114
sg35
I45
ssg10
I307
sg36
g4
sg37
(dp3115
sg39
(dp3116
sg41
I1594
sg42
g21
sg43
g21
sg44
I307
sg45
V[
p3117
sg47
I307
sg48
I1595
sbag0
(g23
g2
Ntp3118
Rp3119
(dp3120
g27
(dp3121
g29
Vref
p3122
sg31
VO
p3123
sg33
VNN
p3124
sg35
I46
ssg10
I308
sg36
g4
sg37
(dp3125
sg39
(dp3126
sg41
I1595
sg42
g21
sg43
g21
sg44
I308
sg45
VREF
p3127
sg47
I308
sg48
I1598
sbag0
(g23
g2
Ntp3128
Rp3129
(dp3130
g27
(dp3131
g29
V-rsb-
p3132
sg31
VO
p3133
sg33
V-RRB-
p3134
sg35
I47
ssg10
I309
sg36
g4
sg37
(dp3135
sg39
(dp3136
sg41
I1598
sg42
g21
sg43
g21
sg44
I309
sg45
V]
p3137
sg47
I309
sg48
I1599
sbag0
(g23
g2
Ntp3138
Rp3139
(dp3140
g27
(dp3141
g29
V.
p3142
sg31
VO
p3143
sg33
V.
p3144
sg35
I48
ssg10
I310
sg36
g4
sg37
(dp3145
sg39
(dp3146
sg41
I1599
sg42
g21
sg43
g21
sg44
I310
sg45
V.
p3147
sg47
I310
sg48
I1600
sbag0
(g23
g2
Ntp3148
Rp3149
(dp3150
g27
(dp3151
g29
Vthe
p3152
sg31
VO
p3153
sg33
VDT
p3154
sg35
I1
ssg10
I311
sg36
g4
sg37
(dp3155
sg39
(dp3156
sg41
I1601
sg42
g21
sg43
g21
sg44
I311
sg45
VThe
p3157
sg47
I311
sg48
I1604
sbag0
(g23
g2
Ntp3158
Rp3159
(dp3160
g27
(dp3161
g29
Vmilitary
p3162
sg31
VO
p3163
sg33
VJJ
p3164
sg35
I2
ssg10
I312
sg36
g4
sg37
(dp3165
sg39
(dp3166
sg41
I1605
sg42
g21
sg43
g21
sg44
I312
sg45
Vmilitary
p3167
sg47
I312
sg48
I1613
sbag0
(g23
g2
Ntp3168
Rp3169
(dp3170
g27
(dp3171
g29
Vleadership
p3172
sg31
VO
p3173
sg33
VNN
p3174
sg35
I3
ssg10
I313
sg36
g4
sg37
(dp3175
sg39
(dp3176
sg41
I1614
sg42
g21
sg43
g21
sg44
I313
sg45
Vleadership
p3177
sg47
I313
sg48
I1624
sbag0
(g23
g2
Ntp3178
Rp3179
(dp3180
g27
(dp3181
g29
Vexpress
p3182
sg31
VO
p3183
sg33
VVBD
p3184
sg35
I4
ssg10
I314
sg36
g4
sg37
(dp3185
sg39
(dp3186
sg41
I1625
sg42
g21
sg43
g21
sg44
I314
sg45
Vexpressed
p3187
sg47
I314
sg48
I1634
sbag0
(g23
g2
Ntp3188
Rp3189
(dp3190
g27
(dp3191
g29
Vopposition
p3192
sg31
VO
p3193
sg33
VNN
p3194
sg35
I5
ssg10
I315
sg36
g4
sg37
(dp3195
sg39
(dp3196
sg41
I1635
sg42
g21
sg43
g21
sg44
I315
sg45
Vopposition
p3197
sg47
I315
sg48
I1645
sbag0
(g23
g2
Ntp3198
Rp3199
(dp3200
g27
(dp3201
g29
Vto
p3202
sg31
VO
p3203
sg33
VTO
p3204
sg35
I6
ssg10
I316
sg36
g4
sg37
(dp3205
sg39
(dp3206
sg41
I1646
sg42
g21
sg43
g21
sg44
I316
sg45
Vto
p3207
sg47
I316
sg48
I1648
sbag0
(g23
g2
Ntp3208
Rp3209
(dp3210
g27
(dp3211
g29
Vthe
p3212
sg31
VO
p3213
sg33
VDT
p3214
sg35
I7
ssg10
I317
sg36
g4
sg37
(dp3215
sg39
(dp3216
sg41
I1649
sg42
g21
sg43
g21
sg44
I317
sg45
Vthe
p3217
sg47
I317
sg48
I1652
sbag0
(g23
g2
Ntp3218
Rp3219
(dp3220
g27
(dp3221
g29
Videa
p3222
sg31
VO
p3223
sg33
VNN
p3224
sg35
I8
ssg10
I318
sg36
g4
sg37
(dp3225
sg39
(dp3226
sg41
I1653
sg42
g21
sg43
g21
sg44
I318
sg45
Videa
p3227
sg47
I318
sg48
I1657
sbag0
(g23
g2
Ntp3228
Rp3229
(dp3230
g27
(dp3231
g29
V-lsb-
p3232
sg31
VO
p3233
sg33
V-LRB-
p3234
sg35
I9
ssg10
I319
sg36
g4
sg37
(dp3235
sg39
(dp3236
sg41
I1658
sg42
g21
sg43
g21
sg44
I319
sg45
V[
p3237
sg47
I319
sg48
I1659
sbag0
(g23
g2
Ntp3238
Rp3239
(dp3240
g27
(dp3241
g29
Vref
p3242
sg31
VO
p3243
sg33
VNN
p3244
sg35
I10
ssg10
I320
sg36
g4
sg37
(dp3245
sg39
(dp3246
sg41
I1659
sg42
g21
sg43
g21
sg44
I320
sg45
VREF
p3247
sg47
I320
sg48
I1662
sbag0
(g23
g2
Ntp3248
Rp3249
(dp3250
g27
(dp3251
g29
V-rsb-
p3252
sg31
VO
p3253
sg33
V-RRB-
p3254
sg35
I11
ssg10
I321
sg36
g4
sg37
(dp3255
sg39
(dp3256
sg41
I1662
sg42
g21
sg43
g21
sg44
I321
sg45
V]
p3257
sg47
I321
sg48
I1663
sbag0
(g23
g2
Ntp3258
Rp3259
(dp3260
g27
(dp3261
g29
V.
p3262
sg31
VO
p3263
sg33
V.
p3264
sg35
I12
ssg10
I322
sg36
g4
sg37
(dp3265
sg39
(dp3266
sg41
I1663
sg42
g21
sg43
g21
sg44
I322
sg45
V.
p3267
sg47
I322
sg48
I1664
sbag0
(g23
g2
Ntp3268
Rp3269
(dp3270
g27
(dp3271
g29
Vmany
p3272
sg31
VO
p3273
sg33
VJJ
p3274
sg35
I1
ssg10
I323
sg36
g4
sg37
(dp3275
sg39
(dp3276
sg41
I1665
sg42
g21
sg43
g21
sg44
I323
sg45
VMany
p3277
sg47
I323
sg48
I1669
sbag0
(g23
g2
Ntp3278
Rp3279
(dp3280
g27
(dp3281
g29
Vconservative
p3282
sg31
VO
p3283
sg33
VJJ
p3284
sg35
I2
ssg10
I324
sg36
g4
sg37
(dp3285
sg39
(dp3286
sg41
I1670
sg42
g21
sg43
g21
sg44
I324
sg45
Vconservative
p3287
sg47
I324
sg48
I1682
sbag0
(g23
g2
Ntp3288
Rp3289
(dp3290
g27
(dp3291
g29
Vcritic
p3292
sg31
VO
p3293
sg33
VNNS
p3294
sg35
I3
ssg10
I325
sg36
g4
sg37
(dp3295
sg39
(dp3296
sg41
I1683
sg42
g21
sg43
g21
sg44
I325
sg45
Vcritics
p3297
sg47
I325
sg48
I1690
sbag0
(g23
g2
Ntp3298
Rp3299
(dp3300
g27
(dp3301
g29
Vcharge
p3302
sg31
VO
p3303
sg33
VVBD
p3304
sg35
I4
ssg10
I326
sg36
g4
sg37
(dp3305
sg39
(dp3306
sg41
I1691
sg42
g21
sg43
g21
sg44
I326
sg45
Vcharged
p3307
sg47
I326
sg48
I1698
sbag0
(g23
g2
Ntp3308
Rp3309
(dp3310
g27
(dp3311
g29
Vthat
p3312
sg31
VO
p3313
sg33
VIN
p3314
sg35
I5
ssg10
I327
sg36
g4
sg37
(dp3315
sg39
(dp3316
sg41
I1699
sg42
g21
sg43
g21
sg44
I327
sg45
Vthat
p3317
sg47
I327
sg48
I1703
sbag0
(g23
g2
Ntp3318
Rp3319
(dp3320
g27
(dp3321
g29
Vthe
p3322
sg31
VO
p3323
sg33
VDT
p3324
sg35
I6
ssg10
I328
sg36
g4
sg37
(dp3325
sg39
(dp3326
sg41
I1704
sg42
g21
sg43
g21
sg44
I328
sg45
Vthe
p3327
sg47
I328
sg48
I1707
sbag0
(g23
g2
Ntp3328
Rp3329
(dp3330
g27
(dp3331
g29
Vbill
p3332
sg31
VO
p3333
sg33
VNN
p3334
sg35
I7
ssg10
I329
sg36
g4
sg37
(dp3335
sg39
(dp3336
sg41
I1708
sg42
g21
sg43
g21
sg44
I329
sg45
Vbill
p3337
sg47
I329
sg48
I1712
sbag0
(g23
g2
Ntp3338
Rp3339
(dp3340
g27
(dp3341
g29
Von
p3342
sg31
VO
p3343
sg33
VIN
p3344
sg35
I8
ssg10
I330
sg36
g4
sg37
(dp3345
sg39
(dp3346
sg41
I1713
sg42
g21
sg43
g21
sg44
I330
sg45
Von
p3347
sg47
I330
sg48
I1715
sbag0
(g23
g2
Ntp3348
Rp3349
(dp3350
g27
(dp3351
g29
Vre-introduce
p3352
sg31
VO
p3353
sg33
VVBG
p3354
sg35
I9
ssg10
I331
sg36
g4
sg37
(dp3355
sg39
(dp3356
sg41
I1716
sg42
g21
sg43
g21
sg44
I331
sg45
Vre-introducing
p3357
sg47
I331
sg48
I1730
sbag0
(g23
g2
Ntp3358
Rp3359
(dp3360
g27
(dp3361
g29
Vthe
p3362
sg31
VO
p3363
sg33
VDT
p3364
sg35
I10
ssg10
I332
sg36
g4
sg37
(dp3365
sg39
(dp3366
sg41
I1731
sg42
g21
sg43
g21
sg44
I332
sg45
Vthe
p3367
sg47
I332
sg48
I1734
sbag0
(g23
g2
Ntp3368
Rp3369
(dp3370
g27
(dp3371
g29
Vdraft
p3372
sg31
VO
p3373
sg33
VNN
p3374
sg35
I11
ssg10
I333
sg36
g4
sg37
(dp3375
sg39
(dp3376
sg41
I1735
sg42
g21
sg43
g21
sg44
I333
sg45
Vdraft
p3377
sg47
I333
sg48
I1740
sbag0
(g23
g2
Ntp3378
Rp3379
(dp3380
g27
(dp3381
g29
Vbe
p3382
sg31
VO
p3383
sg33
VVBD
p3384
sg35
I12
ssg10
I334
sg36
g4
sg37
(dp3385
sg39
(dp3386
sg41
I1741
sg42
g21
sg43
g21
sg44
I334
sg45
Vwas
p3387
sg47
I334
sg48
I1744
sbag0
(g23
g2
Ntp3388
Rp3389
(dp3390
g27
(dp3391
g29
Vsimply
p3392
sg31
VO
p3393
sg33
VRB
p3394
sg35
I13
ssg10
I335
sg36
g4
sg37
(dp3395
sg39
(dp3396
sg41
I1745
sg42
g21
sg43
g21
sg44
I335
sg45
Vsimply
p3397
sg47
I335
sg48
I1751
sbag0
(g23
g2
Ntp3398
Rp3399
(dp3400
g27
(dp3401
g29
Va
p3402
sg31
VO
p3403
sg33
VDT
p3404
sg35
I14
ssg10
I336
sg36
g4
sg37
(dp3405
sg39
(dp3406
sg41
I1752
sg42
g21
sg43
g21
sg44
I336
sg45
Va
p3407
sg47
I336
sg48
I1753
sbag0
(g23
g2
Ntp3408
Rp3409
(dp3410
g27
(dp3411
g29
Vpolitical
p3412
sg31
VO
p3413
sg33
VJJ
p3414
sg35
I15
ssg10
I337
sg36
g4
sg37
(dp3415
sg39
(dp3416
sg41
I1754
sg42
g21
sg43
g21
sg44
I337
sg45
Vpolitical
p3417
sg47
I337
sg48
I1763
sbag0
(g23
g2
Ntp3418
Rp3419
(dp3420
g27
(dp3421
g29
Vmaneuver
p3422
sg31
VO
p3423
sg33
VNN
p3424
sg35
I16
ssg10
I338
sg36
g4
sg37
(dp3425
sg39
(dp3426
sg41
I1764
sg42
g21
sg43
g21
sg44
I338
sg45
Vmaneuver
p3427
sg47
I338
sg48
I1772
sbag0
(g23
g2
Ntp3428
Rp3429
(dp3430
g27
(dp3431
g29
Vby
p3432
sg31
VO
p3433
sg33
VIN
p3434
sg35
I17
ssg10
I339
sg36
g4
sg37
(dp3435
sg39
(dp3436
sg41
I1773
sg42
g21
sg43
g21
sg44
I339
sg45
Vby
p3437
sg47
I339
sg48
I1775
sbag0
(g23
g2
Ntp3438
Rp3439
(dp3440
g27
(dp3441
g29
VRangel
p3442
sg31
VPERSON
p3443
sg33
VNNP
p3444
sg35
I18
ssg10
I340
sg36
g4
sg37
(dp3445
sg39
(dp3446
sg41
I1776
sg42
g21
sg43
g21
sg44
I340
sg45
VRangel
p3447
sg47
I340
sg48
I1782
sbag0
(g23
g2
Ntp3448
Rp3449
(dp3450
g27
(dp3451
g29
Vaim
p3452
sg31
VO
p3453
sg33
VVBN
p3454
sg35
I19
ssg10
I341
sg36
g4
sg37
(dp3455
sg39
(dp3456
sg41
I1783
sg42
g21
sg43
g21
sg44
I341
sg45
Vaimed
p3457
sg47
I341
sg48
I1788
sbag0
(g23
g2
Ntp3458
Rp3459
(dp3460
g27
(dp3461
g29
Vto
p3462
sg31
VO
p3463
sg33
VTO
p3464
sg35
I20
ssg10
I342
sg36
g4
sg37
(dp3465
sg39
(dp3466
sg41
I1789
sg42
g21
sg43
g21
sg44
I342
sg45
Vto
p3467
sg47
I342
sg48
I1791
sbag0
(g23
g2
Ntp3468
Rp3469
(dp3470
g27
(dp3471
g29
Vunderscore
p3472
sg31
VO
p3473
sg33
VVB
p3474
sg35
I21
ssg10
I343
sg36
g4
sg37
(dp3475
sg39
(dp3476
sg41
I1792
sg42
g21
sg43
g21
sg44
I343
sg45
Vunderscore
p3477
sg47
I343
sg48
I1802
sbag0
(g23
g2
Ntp3478
Rp3479
(dp3480
g27
(dp3481
g29
Vthe
p3482
sg31
VO
p3483
sg33
VDT
p3484
sg35
I22
ssg10
I344
sg36
g4
sg37
(dp3485
sg39
(dp3486
sg41
I1803
sg42
g21
sg43
g21
sg44
I344
sg45
Vthe
p3487
sg47
I344
sg48
I1806
sbag0
(g23
g2
Ntp3488
Rp3489
(dp3490
g27
(dp3491
g29
Vunpopularity
p3492
sg31
VO
p3493
sg33
VNN
p3494
sg35
I23
ssg10
I345
sg36
g4
sg37
(dp3495
sg39
(dp3496
sg41
I1807
sg42
g21
sg43
g21
sg44
I345
sg45
Vunpopularity
p3497
sg47
I345
sg48
I1819
sbag0
(g23
g2
Ntp3498
Rp3499
(dp3500
g27
(dp3501
g29
Vof
p3502
sg31
VO
p3503
sg33
VIN
p3504
sg35
I24
ssg10
I346
sg36
g4
sg37
(dp3505
sg39
(dp3506
sg41
I1820
sg42
g21
sg43
g21
sg44
I346
sg45
Vof
p3507
sg47
I346
sg48
I1822
sbag0
(g23
g2
Ntp3508
Rp3509
(dp3510
g27
(dp3511
g29
Vthe
p3512
sg31
VO
p3513
sg33
VDT
p3514
sg35
I25
ssg10
I347
sg36
g4
sg37
(dp3515
sg39
(dp3516
sg41
I1823
sg42
g21
sg43
g21
sg44
I347
sg45
Vthe
p3517
sg47
I347
sg48
I1826
sbag0
(g23
g2
Ntp3518
Rp3519
(dp3520
g27
(dp3521
g29
VIraq
p3522
sg31
VMISC
p3523
sg33
VNNP
p3524
sg35
I26
ssg10
I348
sg36
g4
sg37
(dp3525
sg39
(dp3526
sg41
I1827
sg42
g21
sg43
g21
sg44
I348
sg45
VIraq
p3527
sg47
I348
sg48
I1831
sbag0
(g23
g2
Ntp3528
Rp3529
(dp3530
g27
(dp3531
g29
VWar
p3532
sg31
VMISC
p3533
sg33
VNNP
p3534
sg35
I27
ssg10
I349
sg36
g4
sg37
(dp3535
sg39
(dp3536
sg41
I1832
sg42
g21
sg43
g21
sg44
I349
sg45
VWar
p3537
sg47
I349
sg48
I1835
sbag0
(g23
g2
Ntp3538
Rp3539
(dp3540
g27
(dp3541
g29
V.
p3542
sg31
VO
p3543
sg33
V.
p3544
sg35
I28
ssg10
I350
sg36
g4
sg37
(dp3545
sg39
(dp3546
sg41
I1835
sg42
g21
sg43
g21
sg44
I350
sg45
V.
p3547
sg47
I350
sg48
I1836
sbag0
(g23
g2
Ntp3548
Rp3549
(dp3550
g27
(dp3551
g29
Vthe
p3552
sg31
VO
p3553
sg33
VDT
p3554
sg35
I1
ssg10
I351
sg36
g4
sg37
(dp3555
sg39
(dp3556
sg41
I1837
sg42
g21
sg43
g21
sg44
I351
sg45
VThe
p3557
sg47
I351
sg48
I1840
sbag0
(g23
g2
Ntp3558
Rp3559
(dp3560
g27
(dp3561
g29
Vdebate
p3562
sg31
VO
p3563
sg33
VNN
p3564
sg35
I2
ssg10
I352
sg36
g4
sg37
(dp3565
sg39
(dp3566
sg41
I1841
sg42
g21
sg43
g21
sg44
I352
sg45
Vdebate
p3567
sg47
I352
sg48
I1847
sbag0
(g23
g2
Ntp3568
Rp3569
(dp3570
g27
(dp3571
g29
Vbe
p3572
sg31
VO
p3573
sg33
VVBD
p3574
sg35
I3
ssg10
I353
sg36
g4
sg37
(dp3575
sg39
(dp3576
sg41
I1848
sg42
g21
sg43
g21
sg44
I353
sg45
Vwas
p3577
sg47
I353
sg48
I1851
sbag0
(g23
g2
Ntp3578
Rp3579
(dp3580
g27
(dp3581
g29
Vlargely
p3582
sg31
VO
p3583
sg33
VRB
p3584
sg35
I4
ssg10
I354
sg36
g4
sg37
(dp3585
sg39
(dp3586
sg41
I1852
sg42
g21
sg43
g21
sg44
I354
sg45
Vlargely
p3587
sg47
I354
sg48
I1859
sbag0
(g23
g2
Ntp3588
Rp3589
(dp3590
g27
(dp3591
g29
Vover
p3592
sg31
VO
p3593
sg33
VRB
p3594
sg35
I5
ssg10
I355
sg36
g4
sg37
(dp3595
sg39
(dp3596
sg41
I1860
sg42
g21
sg43
g21
sg44
I355
sg45
Vover
p3597
sg47
I355
sg48
I1864
sbag0
(g23
g2
Ntp3598
Rp3599
(dp3600
g27
(dp3601
g29
Vsoon
p3602
sg31
VO
p3603
sg33
VRB
p3604
sg35
I6
ssg10
I356
sg36
g4
sg37
(dp3605
sg39
(dp3606
sg41
I1865
sg42
g21
sg43
g21
sg44
I356
sg45
Vsoon
p3607
sg47
I356
sg48
I1869
sbag0
(g23
g2
Ntp3608
Rp3609
(dp3610
g27
(dp3611
g29
Vafter
p3612
sg31
VO
p3613
sg33
VIN
p3614
sg35
I7
ssg10
I357
sg36
g4
sg37
(dp3615
sg39
(dp3616
sg41
I1870
sg42
g21
sg43
g21
sg44
I357
sg45
Vafter
p3617
sg47
I357
sg48
I1875
sbag0
(g23
g2
Ntp3618
Rp3619
(dp3620
g27
(dp3621
g29
Vthe
p3622
sg31
VO
p3623
sg33
VDT
p3624
sg35
I8
ssg10
I358
sg36
g4
sg37
(dp3625
sg39
(dp3626
sg41
I1876
sg42
g21
sg43
g21
sg44
I358
sg45
Vthe
p3627
sg47
I358
sg48
I1879
sbag0
(g23
g2
Ntp3628
Rp3629
(dp3630
g27
(dp3631
g29
Vincoming
p3632
sg31
VO
p3633
sg33
VJJ
p3634
sg35
I9
ssg10
I359
sg36
g4
sg37
(dp3635
sg39
(dp3636
sg41
I1880
sg42
g21
sg43
g21
sg44
I359
sg45
Vincoming
p3637
sg47
I359
sg48
I1888
sbag0
(g23
g2
Ntp3638
Rp3639
(dp3640
g27
(dp3641
g29
Vdemocratic
p3642
sg31
VORGANIZATION
p3643
sg33
VJJ
p3644
sg35
I10
ssg10
I360
sg36
g4
sg37
(dp3645
sg39
(dp3646
sg41
I1889
sg42
g21
sg43
g21
sg44
I360
sg45
VDemocratic
p3647
sg47
I360
sg48
I1899
sbag0
(g23
g2
Ntp3648
Rp3649
(dp3650
g27
(dp3651
g29
VHouse
p3652
sg31
VORGANIZATION
p3653
sg33
VNNP
p3654
sg35
I11
ssg10
I361
sg36
g4
sg37
(dp3655
sg39
(dp3656
sg41
I1900
sg42
g21
sg43
g21
sg44
I361
sg45
VHouse
p3657
sg47
I361
sg48
I1905
sbag0
(g23
g2
Ntp3658
Rp3659
(dp3660
g27
(dp3661
g29
VSpeaker
p3662
sg31
VO
p3663
sg33
VNNP
p3664
sg35
I12
ssg10
I362
sg36
g4
sg37
(dp3665
sg39
(dp3666
sg41
I1906
sg42
g21
sg43
g21
sg44
I362
sg45
VSpeaker
p3667
sg47
I362
sg48
I1913
sbag0
(g23
g2
Ntp3668
Rp3669
(dp3670
g27
(dp3671
g29
VNancy
p3672
sg31
VPERSON
p3673
sg33
VNNP
p3674
sg35
I13
ssg10
I363
sg36
g4
sg37
(dp3675
sg39
(dp3676
sg41
I1914
sg42
g21
sg43
g21
sg44
I363
sg45
VNancy
p3677
sg47
I363
sg48
I1919
sbag0
(g23
g2
Ntp3678
Rp3679
(dp3680
g27
(dp3681
g29
VPelosi
p3682
sg31
VPERSON
p3683
sg33
VNNP
p3684
sg35
I14
ssg10
I364
sg36
g4
sg37
(dp3685
sg39
(dp3686
sg41
I1920
sg42
g21
sg43
g21
sg44
I364
sg45
VPelosi
p3687
sg47
I364
sg48
I1926
sbag0
(g23
g2
Ntp3688
Rp3689
(dp3690
g27
(dp3691
g29
Vindicate
p3692
sg31
VO
p3693
sg33
VVBD
p3694
sg35
I15
ssg10
I365
sg36
g4
sg37
(dp3695
sg39
(dp3696
sg41
I1927
sg42
g21
sg43
g21
sg44
I365
sg45
Vindicated
p3697
sg47
I365
sg48
I1936
sbag0
(g23
g2
Ntp3698
Rp3699
(dp3700
g27
(dp3701
g29
Vthat
p3702
sg31
VO
p3703
sg33
VIN
p3704
sg35
I16
ssg10
I366
sg36
g4
sg37
(dp3705
sg39
(dp3706
sg41
I1937
sg42
g21
sg43
g21
sg44
I366
sg45
Vthat
p3707
sg47
I366
sg48
I1941
sbag0
(g23
g2
Ntp3708
Rp3709
(dp3710
g27
(dp3711
g29
Vshe
p3712
sg31
VO
p3713
sg33
VPRP
p3714
sg35
I17
ssg10
I367
sg36
g4
sg37
(dp3715
sg39
(dp3716
sg41
I1942
sg42
g21
sg43
g21
sg44
I367
sg45
Vshe
p3717
sg47
I367
sg48
I1945
sbag0
(g23
g2
Ntp3718
Rp3719
(dp3720
g27
(dp3721
g29
Vbe
p3722
sg31
VO
p3723
sg33
VVBD
p3724
sg35
I18
ssg10
I368
sg36
g4
sg37
(dp3725
sg39
(dp3726
sg41
I1946
sg42
g21
sg43
g21
sg44
I368
sg45
Vwas
p3727
sg47
I368
sg48
I1949
sbag0
(g23
g2
Ntp3728
Rp3729
(dp3730
g27
(dp3731
g29
Vnot
p3732
sg31
VO
p3733
sg33
VRB
p3734
sg35
I19
ssg10
I369
sg36
g4
sg37
(dp3735
sg39
(dp3736
sg41
I1950
sg42
g21
sg43
g21
sg44
I369
sg45
Vnot
p3737
sg47
I369
sg48
I1953
sbag0
(g23
g2
Ntp3738
Rp3739
(dp3740
g27
(dp3741
g29
Vinterested
p3742
sg31
VO
p3743
sg33
VJJ
p3744
sg35
I20
ssg10
I370
sg36
g4
sg37
(dp3745
sg39
(dp3746
sg41
I1954
sg42
g21
sg43
g21
sg44
I370
sg45
Vinterested
p3747
sg47
I370
sg48
I1964
sbag0
(g23
g2
Ntp3748
Rp3749
(dp3750
g27
(dp3751
g29
Vin
p3752
sg31
VO
p3753
sg33
VIN
p3754
sg35
I21
ssg10
I371
sg36
g4
sg37
(dp3755
sg39
(dp3756
sg41
I1954
sg42
g21
sg43
g21
sg44
I371
sg45
Vin
p3757
sg47
I371
sg48
I1956
sbag0
(g23
g2
Ntp3758
Rp3759
(dp3760
g27
(dp3761
g29
Vadvance
p3762
sg31
VO
p3763
sg33
VVBG
p3764
sg35
I22
ssg10
I372
sg36
g4
sg37
(dp3765
sg39
(dp3766
sg41
I1968
sg42
g21
sg43
g21
sg44
I372
sg45
Vadvancing
p3767
sg47
I372
sg48
I1977
sbag0
(g23
g2
Ntp3768
Rp3769
(dp3770
g27
(dp3771
g29
Vthe
p3772
sg31
VO
p3773
sg33
VDT
p3774
sg35
I23
ssg10
I373
sg36
g4
sg37
(dp3775
sg39
(dp3776
sg41
I1978
sg42
g21
sg43
g21
sg44
I373
sg45
Vthe
p3777
sg47
I373
sg48
I1981
sbag0
(g23
g2
Ntp3778
Rp3779
(dp3780
g27
(dp3781
g29
Vbill
p3782
sg31
VO
p3783
sg33
VNN
p3784
sg35
I24
ssg10
I374
sg36
g4
sg37
(dp3785
sg39
(dp3786
sg41
I1982
sg42
g21
sg43
g21
sg44
I374
sg45
Vbill
p3787
sg47
I374
sg48
I1986
sbag0
(g23
g2
Ntp3788
Rp3789
(dp3790
g27
(dp3791
g29
Vto
p3792
sg31
VO
p3793
sg33
VTO
p3794
sg35
I25
ssg10
I375
sg36
g4
sg37
(dp3795
sg39
(dp3796
sg41
I1987
sg42
g21
sg43
g21
sg44
I375
sg45
Vto
p3797
sg47
I375
sg48
I1989
sbag0
(g23
g2
Ntp3798
Rp3799
(dp3800
g27
(dp3801
g29
Vreintroduce
p3802
sg31
VO
p3803
sg33
VVB
p3804
sg35
I26
ssg10
I376
sg36
g4
sg37
(dp3805
sg39
(dp3806
sg41
I1990
sg42
g21
sg43
g21
sg44
I376
sg45
Vreintroduce
p3807
sg47
I376
sg48
I2001
sbag0
(g23
g2
Ntp3808
Rp3809
(dp3810
g27
(dp3811
g29
Vthe
p3812
sg31
VO
p3813
sg33
VDT
p3814
sg35
I27
ssg10
I377
sg36
g4
sg37
(dp3815
sg39
(dp3816
sg41
I2002
sg42
g21
sg43
g21
sg44
I377
sg45
Vthe
p3817
sg47
I377
sg48
I2005
sbag0
(g23
g2
Ntp3818
Rp3819
(dp3820
g27
(dp3821
g29
Vdraft
p3822
sg31
VO
p3823
sg33
VNN
p3824
sg35
I28
ssg10
I378
sg36
g4
sg37
(dp3825
sg39
(dp3826
sg41
I2006
sg42
g21
sg43
g21
sg44
I378
sg45
Vdraft
p3827
sg47
I378
sg48
I2011
sbag0
(g23
g2
Ntp3828
Rp3829
(dp3830
g27
(dp3831
g29
V-lsb-
p3832
sg31
VO
p3833
sg33
V-LRB-
p3834
sg35
I29
ssg10
I379
sg36
g4
sg37
(dp3835
sg39
(dp3836
sg41
I2012
sg42
g21
sg43
g21
sg44
I379
sg45
V[
p3837
sg47
I379
sg48
I2013
sbag0
(g23
g2
Ntp3838
Rp3839
(dp3840
g27
(dp3841
g29
Vref
p3842
sg31
VO
p3843
sg33
VNN
p3844
sg35
I30
ssg10
I380
sg36
g4
sg37
(dp3845
sg39
(dp3846
sg41
I2013
sg42
g21
sg43
g21
sg44
I380
sg45
VREF
p3847
sg47
I380
sg48
I2016
sbag0
(g23
g2
Ntp3848
Rp3849
(dp3850
g27
(dp3851
g29
V-rsb-
p3852
sg31
VO
p3853
sg33
V-RRB-
p3854
sg35
I31
ssg10
I381
sg36
g4
sg37
(dp3855
sg39
(dp3856
sg41
I2016
sg42
g21
sg43
g21
sg44
I381
sg45
V]
p3857
sg47
I381
sg48
I2017
sbag0
(g23
g2
Ntp3858
Rp3859
(dp3860
g27
(dp3861
g29
V.
p3862
sg31
VO
p3863
sg33
V.
p3864
sg35
I32
ssg10
I382
sg36
g4
sg37
(dp3865
sg39
(dp3866
sg41
I2017
sg42
g21
sg43
g21
sg44
I382
sg45
V.
p3867
sg47
I382
sg48
I2018
sbasS'Document'
p3868
(lp3869
g4
asS'doc-features'
p3870
g14
sS'Sentence'
p3871
(lp3872
g0
(g23
g2
Ntp3873
Rp3874
(dp3875
g27
(dp3876
S'dep-parse'
p3877
S'not implemented!'
p3878
sg35
I0
sS'constituency-parse'
p3879
V(ROOT\u000a  (NP (. .)))
p3880
ssg10
I0
sg36
g4
sg37
(dp3881
sg39
(dp3882
S'tokens'
p3883
(lp3884
g25
assg41
I0
sg42
g3871
sg43
g3871
sg44
I0
sg45
V.
p3885
sg47
I1
sg48
I1
sbag0
(g23
g2
Ntp3886
Rp3887
(dp3888
g27
(dp3889
g3877
g3878
sg35
I1
sg3879
V(ROOT\u000a  (S\u000a    (NP\u000a      (NP (NNP Universal) (NNP National) (NNP Service) (NNP Act))\u000a      (PP (IN of)\u000a        (NP (CD 2006)))\u000a      (, ,)\u000a      (VP (VBN sponsored)\u000a        (PP (IN by)\u000a          (NP (NNP Rep.) (NNP Charles) (NNP Rangel))))\u000a      (, ,))\u000a    (VP (VBD was)\u000a      (VP (VBN introduced)\u000a        (PP (IN into)\u000a          (NP\u000a            (NP (DT the) (NNP U.S.) (NNP House))\u000a            (PP (IN of)\u000a              (NP (NNPS Representatives)))))\u000a        (PP (IN on)\u000a          (NP (NNP February) (CD 14) (, ,) (CD 2006)))))\u000a    (. .)))
p3890
ssg10
I1
sg36
g4
sg37
(dp3891
sg39
(dp3892
g3883
(lp3893
g50
ag60
ag70
ag80
ag90
ag100
ag110
ag120
ag130
ag140
ag150
ag160
ag170
ag180
ag190
ag200
ag210
ag220
ag230
ag240
ag250
ag260
ag270
ag280
ag290
ag300
ag310
assg41
I4
sg42
g3871
sg43
g3871
sg44
I1
sg45
V \u000a\u000aUniversal National Service Act of 2006, sponsored by Rep. Charles Rangel, was introduced into the U.S. House of Representatives on February 14, 2006.
p3894
sg47
I28
sg48
I153
sbag0
(g23
g2
Ntp3895
Rp3896
(dp3897
g27
(dp3898
g3877
g3878
sg35
I2
sg3879
V(ROOT\u000a  (S\u000a    (PP (IN On)\u000a      (NP (NNP February) (CD 23) (, ,) (CD 2006)))\u000a    (, ,)\u000a    (NP (PRP it))\u000a    (VP (VBD was)\u000a      (VP (VBN referred)\u000a        (PP (TO to)\u000a          (NP (DT the) (NNP House) (NNP Subcommittee)))\u000a        (PP (IN on)\u000a          (NP (NNP Military) (NNP Personnel)))))\u000a    (. .)))
p3899
ssg10
I2
sg36
g4
sg37
(dp3900
sg39
(dp3901
g3883
(lp3902
g320
ag330
ag340
ag350
ag360
ag370
ag380
ag390
ag400
ag410
ag420
ag430
ag440
ag450
ag460
ag470
ag480
assg41
I154
sg42
g3871
sg43
g3871
sg44
I28
sg45
V On February 23, 2006, it was referred to the House Subcommittee on Military Personnel.
p3903
sg47
I45
sg48
I240
sbag0
(g23
g2
Ntp3904
Rp3905
(dp3906
g27
(dp3907
g3877
g3878
sg35
I3
sg3879
V(ROOT\u000a  (S\u000a    (NP (DT The) (NN bill))\u000a    (VP (VBD was)\u000a      (VP\u000a        (ADVP (RB never))\u000a        (VBN enacted)))\u000a    (. .)))
p3908
ssg10
I3
sg36
g4
sg37
(dp3909
sg39
(dp3910
g3883
(lp3911
g490
ag500
ag510
ag520
ag530
ag540
assg41
I241
sg42
g3871
sg43
g3871
sg44
I45
sg45
V The bill was never enacted.
p3912
sg47
I51
sg48
I268
sbag0
(g23
g2
Ntp3913
Rp3914
(dp3915
g27
(dp3916
g3877
g3878
sg35
I4
sg3879
V(ROOT\u000a  (S\u000a    (NP (NNP Rep.) (NNP Rangel))\u000a    (VP (VBD argued)\u000a      (SBAR (IN that)\u000a        (S\u000a          (NP (DT the) (NN bill))\u000a          (VP (VBD was)\u000a            (ADJP (JJ necessary))\u000a            (SBAR (IN since)\u000a              (S\u000a                (PP (IN in)\u000a                  (NP\u000a                    (NP (DT the) (NN case))\u000a                    (PP (IN of)\u000a                      (NP (DT a) (JJ mandatory) (NN draft)))))\u000a                (NP\u000a                  (NP (NNS members))\u000a                  (PP (IN of)\u000a                    (NP (DT the) (NNP U.S.) (NNP Congress))))\u000a                (VP (MD would)\u000a                  (VP (VB be)\u000a                    (ADJP (RB much) (RBR less) (JJ likely)\u000a                      (S\u000a                        (VP (TO to)\u000a                          (VP (VB authorize)\u000a                            (NP (DT an) (JJ unnecessary) (NN war))\u000a                            (SBAR (IN if)\u000a                              (S\u000a                                (NP (PRP they))\u000a                                (VP (VBD knew)\u000a                                  (SBAR (IN that)\u000a                                    (S\u000a                                      (NP (PRP$ their) (JJ own) (NNS children)\u000a                                        (CC and)\u000a                                        (NN family) (NNS members))\u000a                                      (VP (MD might)\u000a                                        (VP (VB be)\u000a                                          (VP (VBN sent)\u000a                                            (S\u000a                                              (VP (TO to)\u000a                                                (VP (VB fight)\u000a                                                  (NP (PRP it)))))))))))))))))))))))))\u000a    (. .)))
p3917
ssg10
I4
sg36
g4
sg37
(dp3918
sg39
(dp3919
g3883
(lp3920
g550
ag560
ag570
ag580
ag590
ag600
ag610
ag620
ag630
ag640
ag650
ag660
ag670
ag680
ag690
ag700
ag710
ag720
ag730
ag740
ag750
ag760
ag770
ag780
ag790
ag800
ag810
ag820
ag830
ag840
ag850
ag860
ag870
ag880
ag890
ag900
ag910
ag920
ag930
ag940
ag950
ag960
ag970
ag980
ag990
ag1000
ag1010
ag1020
assg41
I270
sg42
g3871
sg43
g3871
sg44
I51
sg45
V\u000a\u000aRep. Rangel argued that the bill was necessary since in the case of a mandatory draft members of the U.S. Congress would be much less likely to authorize an unnecessary war if they knew that their own children and family members might be sent to fight it.
p3921
sg47
I99
sg48
I525
sbag0
(g23
g2
Ntp3922
Rp3923
(dp3924
g27
(dp3925
g3877
g3878
sg35
I5
sg3879
V(X (PRP He) (VBD was) (VBN quoted) (IN as) (VBG saying) (: :) (`` ``) (EX There) (VBZ 's) (DT no) (NN question) (IN in) (PRP$ my) (NN mind) (IN that) (DT this) (NN president)\u000a  (CC and)\u000a  (DT this) (NN administration) (MD would) (RB never) (VB have) (VBN invaded) (NNP Iraq) (, ,) (RB especially) (IN on) (DT the) (JJ flimsy) (NN evidence) (DT that) (VBD was) (VBN presented) (TO to) (DT the) (NNP Congress) (IN if) (RB indeed) (PRP we) (VBD had) (DT a) (NN draft)\u000a  (CC and)\u000a  (NNS members) (IN of) (NNP Congress)\u000a  (CC and)\u000a  (DT the) (NN administration) (VBD thought) (IN that) (PRP$ their) (NNS kids) (IN from) (PRP$ their) (NNS communities) (MD would) (VB be) (VBN placed) (IN in) (NN harm) (POS 's) (NN way) ('' '') (-LRB- -LSB-) (NN REF) (-RRB- -RSB-) (NNP Rangel) (RB also) (VBD argued) (IN that) (VBG bringing) (RP back) (DT the) (NN draft) (MD would) (VB remedy) (DT the) (JJ social) (NN disparity) (VBN reflected) (IN by) (DT the) (NN fact) (DT the) (RB currently) (DT the) (NN burden) (IN of) (JJ military) (NN service) (VBZ falls) (RB disproportionately) (IN on) (DT the) (JJ poor)\u000a  (CC and)\u000a  (DT the) (NNS minorities) (-LRB- -LSB-) (NN REF) (-RRB- -RSB-) (. .))
p3926
ssg10
I5
sg36
g4
sg37
(dp3927
sg39
(dp3928
g3883
(lp3929
g1030
ag1040
ag1050
ag1060
ag1070
ag1080
ag1090
ag1100
ag1110
ag1120
ag1130
ag1140
ag1150
ag1160
ag1170
ag1180
ag1190
ag1200
ag1210
ag1220
ag1230
ag1240
ag1250
ag1260
ag1270
ag1280
ag1290
ag1300
ag1310
ag1320
ag1330
ag1340
ag1350
ag1360
ag1370
ag1380
ag1390
ag1400
ag1410
ag1420
ag1430
ag1440
ag1450
ag1460
ag1470
ag1480
ag1490
ag1500
ag1510
ag1520
ag1530
ag1540
ag1550
ag1560
ag1570
ag1580
ag1590
ag1600
ag1610
ag1620
ag1630
ag1640
ag1650
ag1660
ag1670
ag1679
ag1689
ag1699
ag1709
ag1719
ag1729
ag1739
ag1749
ag1759
ag1769
ag1779
ag1789
ag1799
ag1809
ag1819
ag1829
ag1839
ag1849
ag1859
ag1869
ag1879
ag1889
ag1899
ag1909
ag1919
ag1929
ag1939
ag1949
ag1959
ag1969
ag1979
ag1989
ag1999
ag2009
ag2019
ag2029
ag2039
ag2049
ag2059
assg41
I526
sg42
g3871
sg43
g3871
sg44
I99
sg45
V He was quoted as saying:"There\u2019s no question in my mind that this president and this administration would never have invaded Iraq, especially on the flimsy evidence that was presented to the Congress if indeed we had a draft and members of Congress and the administration thought that their kids from their communities would be placed in harm\u2019s way"[REF] Rangel also argued that bringing back the draft would remedy the social disparity reflected by the fact the currently the burden of military service falls disproportionately on the poor and the minorities [REF].
p3930
sg47
I203
sg48
I1092
sbag0
(g23
g2
Ntp3931
Rp3932
(dp3933
g27
(dp3934
g3877
g3878
sg35
I6
sg3879
V(ROOT\u000a  (S\u000a    (ADVP (RB Initially))\u000a    (, ,)\u000a    (NP (DT the) (NN bill))\u000a    (VP (VBD received)\u000a      (NP\u000a        (NP (JJ little) (JJ public) (, ,) (NNS media)\u000a          (CC or)\u000a          (JJ congressional) (NN attention))\u000a        (PP (-LRB- -LSB-)\u000a          (NP (NN REF) (-RRB- -RSB-)))))\u000a    (. .)))
p3935
ssg10
I6
sg36
g4
sg37
(dp3936
sg39
(dp3937
g3883
(lp3938
g2069
ag2079
ag2089
ag2099
ag2109
ag2119
ag2129
ag2139
ag2149
ag2159
ag2169
ag2179
ag2189
ag2199
ag2209
ag2219
assg41
I1093
sg42
g3871
sg43
g3871
sg44
I203
sg45
V Initially, the bill received little public, media or congressional attention [REF].
p3939
sg47
I219
sg48
I1176
sbag0
(g23
g2
Ntp3940
Rp3941
(dp3942
g27
(dp3943
g3877
g3878
sg35
I7
sg3879
V(ROOT\u000a  (S\u000a    (ADVP (RB However))\u000a    (, ,)\u000a    (SBAR\u000a      (WHADVP (WRB when))\u000a      (S\u000a        (PP (IN after)\u000a          (NP\u000a            (NP (DT the) (JJ Democratic) (NNS victories))\u000a            (PP (IN in)\u000a              (NP\u000a                (NP (DT the) (NNP November))\u000a                (NP (CD 2007) (JJ congressional) (NNS elections))))))\u000a        (, ,)\u000a        (NP (NNP Rangel))\u000a        (VP (VBD repeated)\u000a          (NP (PRP$ his) (NN call))\u000a          (PP\u000a            (PP (IN for)\u000a              (NP\u000a                (NP (NN re-introduction))\u000a                (PP (IN of)\u000a                  (NP (DT the) (NN draft)))))\u000a            (CC and)\u000a            (PP (IN for)\u000a              (S\u000a                (VP (VBG moving)\u000a                  (ADVP (RB forward))\u000a                  (PP (IN on)\u000a                    (NP\u000a                      (NP (DT the) (NN bill) (-LRB- -LSB-))\u000a                      (NN REF) (-RRB- -RSB-))))))))))\u000a    (, ,)\u000a    (NP\u000a      (NP (DT a)\u000a        (ADJP (RBR more) (JJ active))\u000a        (JJ public) (NN discussion))\u000a      (PP (IN of)\u000a        (NP (DT the) (NN proposal))))\u000a    (VP (VBD followed))\u000a    (. .)))
p3944
ssg10
I7
sg36
g4
sg37
(dp3945
sg39
(dp3946
g3883
(lp3947
g2229
ag2239
ag2249
ag2259
ag2269
ag2279
ag2289
ag2299
ag2309
ag2319
ag2329
ag2339
ag2349
ag2359
ag2369
ag2379
ag2389
ag2399
ag2409
ag2419
ag2429
ag2439
ag2449
ag2459
ag2469
ag2479
ag2489
ag2499
ag2509
ag2519
ag2529
ag2539
ag2549
ag2559
ag2569
ag2579
ag2589
ag2599
ag2609
ag2619
ag2629
ag2639
ag2649
ag2659
assg41
I1177
sg42
g3871
sg43
g3871
sg44
I219
sg45
V However, when after the Democratic victories in the November 2007 congressional elections, Rangel repeated his call for re-introduction of the draft and for moving forward on the bill[REF], a more active public discussion of the proposal followed.
p3948
sg47
I263
sg48
I1424
sbag0
(g23
g2
Ntp3949
Rp3950
(dp3951
g27
(dp3952
g3877
g3878
sg35
I8
sg3879
V(ROOT\u000a  (S\u000a    (NP\u000a      (NP (JJS Most))\u000a      (PP (IN of)\u000a        (NP\u000a          (NP (DT the) (NN reaction))\u000a          (PP\u000a            (PP (IN in)\u000a              (NP\u000a                (NP (DT the) (NNS media))\u000a                (, ,)\u000a                (NP (NNP Congress))))\u000a            (CC and)\u000a            (PP (IN by)\u000a              (NP (DT the) (NN public)))))))\u000a    (VP (VBD was)\u000a      (ADJP (JJ negative)\u000a        (SBAR (-LRB- -LSB-)\u000a          (FRAG\u000a            (SBARQ\u000a              (WHNP\u000a                (WHNP (NN REF))\u000a                (-RRB- -RSB-) (-LRB- -LSB-) (NN REF) (-RRB- -RSB-) (-LRB- -LSB-) (NN REF) (-RRB- -RSB-) (-LRB- -LSB-) (NN REF) (-RRB- -RSB-) (-LRB- -LSB-) (NN REF) (-RRB- -RSB-) (-LRB- -LSB-) (NN REF))\u000a              (-RRB- -RSB-)))))\u000a      (, ,)\u000a      (SBAR (IN although)\u000a        (S\u000a          (NP\u000a            (NP (JJ occasional) (NN support))\u000a            (PP (IN for)\u000a              (NP (DT the) (NN idea))))\u000a          (VP (VBD was)\u000a            (VP (VBN expressed)\u000a              (ADVP (RB as) (RB well))\u000a              (PP (-LRB- -LSB-)\u000a                (NP (NN REF) (-RRB- -RSB-))))))))\u000a    (. .)))
p3953
ssg10
I8
sg36
g4
sg37
(dp3954
sg39
(dp3955
g3883
(lp3956
g2669
ag2679
ag2689
ag2699
ag2709
ag2719
ag2729
ag2739
ag2749
ag2759
ag2769
ag2779
ag2789
ag2799
ag2809
ag2819
ag2829
ag2839
ag2849
ag2859
ag2869
ag2879
ag2889
ag2899
ag2909
ag2919
ag2929
ag2939
ag2949
ag2959
ag2969
ag2979
ag2989
ag2999
ag3009
ag3019
ag3029
ag3039
ag3049
ag3059
ag3069
ag3079
ag3089
ag3099
ag3109
ag3119
ag3129
ag3139
assg41
I1425
sg42
g3871
sg43
g3871
sg44
I263
sg45
V Most of the reaction in the media, Congress and by the public was negative[REF][REF][REF][REF][REF][REF], although occasional support for the idea was expressed as well [REF].
p3957
sg47
I311
sg48
I1600
sbag0
(g23
g2
Ntp3958
Rp3959
(dp3960
g27
(dp3961
g3877
g3878
sg35
I9
sg3879
V(ROOT\u000a  (S\u000a    (NP (DT The) (JJ military) (NN leadership))\u000a    (VP (VBD expressed)\u000a      (NP (NN opposition))\u000a      (PP (TO to)\u000a        (NP\u000a          (NP (DT the) (NN idea) (-LRB- -LSB-))\u000a          (NN REF) (-RRB- -RSB-))))\u000a    (. .)))
p3962
ssg10
I9
sg36
g4
sg37
(dp3963
sg39
(dp3964
g3883
(lp3965
g3149
ag3159
ag3169
ag3179
ag3189
ag3199
ag3209
ag3219
ag3229
ag3239
ag3249
ag3259
assg41
I1601
sg42
g3871
sg43
g3871
sg44
I311
sg45
V The military leadership expressed opposition to the idea [REF].
p3966
sg47
I323
sg48
I1664
sbag0
(g23
g2
Ntp3967
Rp3968
(dp3969
g27
(dp3970
g3877
g3878
sg35
I10
sg3879
V(ROOT\u000a  (S\u000a    (NP (JJ Many) (JJ conservative) (NNS critics))\u000a    (VP (VBD charged)\u000a      (SBAR (IN that)\u000a        (S\u000a          (NP\u000a            (NP (DT the) (NN bill))\u000a            (PP (IN on)\u000a              (S\u000a                (VP (VBG re-introducing)\u000a                  (NP (DT the) (NN draft))))))\u000a          (VP (VBD was)\u000a            (ADVP (RB simply))\u000a            (NP (DT a) (JJ political) (NN maneuver))\u000a            (PP (IN by)\u000a              (NP\u000a                (NP (NNP Rangel))\u000a                (VP (VBN aimed)\u000a                  (S\u000a                    (VP (TO to)\u000a                      (VP (VB underscore)\u000a                        (NP\u000a                          (NP (DT the) (NN unpopularity))\u000a                          (PP (IN of)\u000a                            (NP (DT the) (NNP Iraq) (NNP War))))))))))))))\u000a    (. .)))
p3971
ssg10
I10
sg36
g4
sg37
(dp3972
sg39
(dp3973
g3883
(lp3974
g3269
ag3279
ag3289
ag3299
ag3309
ag3319
ag3329
ag3339
ag3349
ag3359
ag3369
ag3379
ag3389
ag3399
ag3409
ag3419
ag3429
ag3439
ag3449
ag3459
ag3469
ag3479
ag3489
ag3499
ag3509
ag3519
ag3529
ag3539
assg41
I1665
sg42
g3871
sg43
g3871
sg44
I323
sg45
V Many conservative critics charged that the bill on re-introducing the draft was simply a political maneuver by Rangel aimed to underscore the unpopularity of the Iraq War.
p3975
sg47
I351
sg48
I1836
sbag0
(g23
g2
Ntp3976
Rp3977
(dp3978
g27
(dp3979
g3877
g3878
sg35
I11
sg3879
V(ROOT\u000a  (S\u000a    (NP (DT The) (NN debate))\u000a    (VP (VBD was)\u000a      (ADVP (RB largely))\u000a      (ADVP (RB over) (RB soon)\u000a        (PP (IN after)\u000a          (NP\u000a            (NP (DT the) (JJ incoming) (JJ Democratic) (NNP House) (NNP Speaker) (NNP Nancy) (NNP Pelosi))\u000a            (SBAR\u000a              (S\u000a                (VP (VBD indicated)\u000a                  (SBAR (IN that)\u000a                    (S\u000a                      (NP (PRP she))\u000a                      (VP (VBD was) (RB not)\u000a                        (ADJP (JJ interested)\u000a                          (PP (IN in)\u000a                            (S\u000a                              (VP (VBG advancing)\u000a                                (NP (DT the) (NN bill)\u000a                                  (S\u000a                                    (VP (TO to)\u000a                                      (VP (VB reintroduce)\u000a                                        (NP\u000a                                          (NP (DT the) (NN draft))\u000a                                          (PP (-LRB- -LSB-)\u000a                                            (NP (NN REF) (-RRB- -RSB-))))))))))))))))))))))\u000a    (. .)))
p3980
ssg10
I11
sg36
g4
sg37
(dp3981
sg39
(dp3982
g3883
(lp3983
g3549
ag3559
ag3569
ag3579
ag3589
ag3599
ag3609
ag3619
ag3629
ag3639
ag3649
ag3659
ag3669
ag3679
ag3689
ag3699
ag3709
ag3719
ag3729
ag3739
ag3749
ag3759
ag3769
ag3779
ag3789
ag3799
ag3809
ag3819
ag3829
ag3839
ag3849
ag3859
assg41
I1837
sg42
g3871
sg43
g3871
sg44
I351
sg45
V The debate was largely over soon after the incoming Democratic House Speaker Nancy Pelosi indicated that she was not interested in advancing the bill to reintroduce the draft [REF].
p3984
sg47
I383
sg48
I2018
sbassg37
(dp3985
sg39
(dp3986
sg47
I-1
sg3883
g22
sg42
g3868
sg36
Nsg27
(dp3987
sg44
I0
sg45
V. \u000a\u000aUniversal National Service Act of 2006, sponsored by Rep. Charles Rangel, was introduced into the U.S. House of Representatives on February 14, 2006. On February 23, 2006, it was referred to the House Subcommittee on Military Personnel. The bill was never enacted.\u000a\u000aRep. Rangel argued that the bill was necessary since in the case of a mandatory draft members of the U.S. Congress would be much less likely to authorize an unnecessary war if they knew that their own children and family members might be sent to fight it. He was quoted as saying:"There\u2019s no question in my mind that this president and this administration would never have invaded Iraq, especially on the flimsy evidence that was presented to the Congress if indeed we had a draft and members of Congress and the administration thought that their kids from their communities would be placed in harm\u2019s way"[REF] Rangel also argued that bringing back the draft would remedy the social disparity reflected by the fact the currently the burden of military service falls disproportionately on the poor and the minorities [REF]. Initially, the bill received little public, media or congressional attention [REF]. However, when after the Democratic victories in the November 2007 congressional elections, Rangel repeated his call for re-introduction of the draft and for moving forward on the bill[REF], a more active public discussion of the proposal followed. Most of the reaction in the media, Congress and by the public was negative[REF][REF][REF][REF][REF][REF], although occasional support for the idea was expressed as well [REF]. The military leadership expressed opposition to the idea [REF]. Many conservative critics charged that the bill on re-introducing the draft was simply a political maneuver by Rangel aimed to underscore the unpopularity of the Iraq War. The debate was largely over soon after the incoming Democratic House Speaker Nancy Pelosi indicated that she was not interested in advancing the bill to reintroduce the draft [REF].
p3988
sS'sents'
p3989
g3872
sg43
g3868
sg41
I0
sS'id'
p3990
g16
sg48
I2018
sS'sentFeatures'
p3991
(lp3992
sb.