ccopy_reg
_reconstructor
p0
(cpygate.doc
Document
p1
c__builtin__
object
p2
Ntp3
Rp4
(dp5
S'src'
p6
VNuclear holocaust refers to the possibility of the near complete annihilation of human civilization by nuclear warfare. Under such a scenario, all or most of the Earth is made uninhabitable by nuclear weapons in future world wars. \u000a\u000aA common definition of the word "holocaust": "great destruction resulting in the extensive loss of life, especially by fire."[REF] The word is derived from the Greek term "holokaustos" meaning "completely burnt." Possibly the first printed use of the word "holocaust" to describe an imagined nuclear destruction is Reginald Glossop's 1926: "Moscow .. beneath them .. a crash like a crack of Doom! The echoes of this Holocaust rumbled and rolled .. a distinct smell of sulphur .. atomic destruction."[REF] In the 1960s the principal referent of the unmodified "holocaust" was nuclear destruction [REF]. Since the mid 1970s the capitalized term "Holocaust" has been closely associated with the Nazi mass slaughter of Jews (see The Holocaust) and "holocaust" in its nuclear destruction sense is almost always preceded by "atomic" or "nuclear" [REF]. \u000a\u000aNuclear physicists and authors have speculated that nuclear holocaust could result in an end to human life, or at least to modern civilization on Earth due to the immediate effects of nuclear fallout, the loss of much modern technology due to electromagnetic pulses, or nuclear winter and resulting extinctions. \u000a\u000aSince 1947 the Doomsday Clock of the Bulletin of the Atomic Scientists visualizes how far the world is from a nuclear holocaust.
p7
sS'string'
p8
S'Nuclear holocaust refers to the possibility of the near complete annihilation of human civilization by nuclear warfare. Under such a scenario, all or most of the Earth is made uninhabitable by nuclear weapons in future world wars. \n\nA common definition of the word "holocaust": "great destruction resulting in the extensive loss of life, especially by fire."[REF] The word is derived from the Greek term "holokaustos" meaning "completely burnt." Possibly the first printed use of the word "holocaust" to describe an imagined nuclear destruction is Reginald Glossop\'s 1926: "Moscow .. beneath them .. a crash like a crack of Doom! The echoes of this Holocaust rumbled and rolled .. a distinct smell of sulphur .. atomic destruction."[REF] In the 1960s the principal referent of the unmodified "holocaust" was nuclear destruction [REF]. Since the mid 1970s the capitalized term "Holocaust" has been closely associated with the Nazi mass slaughter of Jews (see The Holocaust) and "holocaust" in its nuclear destruction sense is almost always preceded by "atomic" or "nuclear" [REF]. \n\nNuclear physicists and authors have speculated that nuclear holocaust could result in an end to human life, or at least to modern civilization on Earth due to the immediate effects of nuclear fallout, the loss of much modern technology due to electromagnetic pulses, or nuclear winter and resulting extinctions. \n\nSince 1947 the Doomsday Clock of the Bulletin of the Atomic Scientists visualizes how far the world is from a nuclear holocaust.'
p9
sS'idx'
p10
I0
sS'tknFeatures'
p11
(lp12
sS'docFeatures'
p13
(dp14
S'file_id'
p15
S'Nuclear_holocaust'
p16
ssS'items'
p17
(dp18
S'raw'
p19
VNuclear holocaust refers to the possibility of the near complete annihilation of human civilization by nuclear warfare. Under such a scenario, all or most of the Earth is made uninhabitable by nuclear weapons in future world wars. \u000a\u000aA common definition of the word "holocaust": "great destruction resulting in the extensive loss of life, especially by fire."[REF] The word is derived from the Greek term "holokaustos" meaning "completely burnt." Possibly the first printed use of the word "holocaust" to describe an imagined nuclear destruction is Reginald Glossop's 1926: "Moscow .. beneath them .. a crash like a crack of Doom! The echoes of this Holocaust rumbled and rolled .. a distinct smell of sulphur .. atomic destruction."[REF] In the 1960s the principal referent of the unmodified "holocaust" was nuclear destruction [REF]. Since the mid 1970s the capitalized term "Holocaust" has been closely associated with the Nazi mass slaughter of Jews (see The Holocaust) and "holocaust" in its nuclear destruction sense is almost always preceded by "atomic" or "nuclear" [REF]. \u000a\u000aNuclear physicists and authors have speculated that nuclear holocaust could result in an end to human life, or at least to modern civilization on Earth due to the immediate effects of nuclear fallout, the loss of much modern technology due to electromagnetic pulses, or nuclear winter and resulting extinctions. \u000a\u000aSince 1947 the Doomsday Clock of the Bulletin of the Atomic Scientists visualizes how far the world is from a nuclear holocaust.
p20
sS'Token'
p21
(lp22
g0
(cpygate.annotation
Annotation
p23
g2
Ntp24
Rp25
(dp26
S'features'
p27
(dp28
S'lemma'
p29
Vnuclear
p30
sS'ner'
p31
VO
p32
sS'pos'
p33
VJJ
p34
sS'index'
p35
I1
ssg10
I0
sS'doc'
p36
g4
sS'labels'
p37
(dp38
sS'relations'
p39
(dp40
sS'cStart'
p41
I0
sS'subType'
p42
g21
sS'annoType'
p43
g21
sS'tStart'
p44
I0
sS'text'
p45
VNuclear
p46
sS'tEnd'
p47
I0
sS'cEnd'
p48
I7
sbag0
(g23
g2
Ntp49
Rp50
(dp51
g27
(dp52
g29
Vholocaust
p53
sg31
VO
p54
sg33
VNN
p55
sg35
I2
ssg10
I1
sg36
g4
sg37
(dp56
sg39
(dp57
sg41
I8
sg42
g21
sg43
g21
sg44
I1
sg45
Vholocaust
p58
sg47
I1
sg48
I17
sbag0
(g23
g2
Ntp59
Rp60
(dp61
g27
(dp62
g29
Vrefer
p63
sg31
VO
p64
sg33
VVBZ
p65
sg35
I3
ssg10
I2
sg36
g4
sg37
(dp66
sg39
(dp67
sg41
I18
sg42
g21
sg43
g21
sg44
I2
sg45
Vrefers
p68
sg47
I2
sg48
I24
sbag0
(g23
g2
Ntp69
Rp70
(dp71
g27
(dp72
g29
Vto
p73
sg31
VO
p74
sg33
VTO
p75
sg35
I4
ssg10
I3
sg36
g4
sg37
(dp76
sg39
(dp77
sg41
I25
sg42
g21
sg43
g21
sg44
I3
sg45
Vto
p78
sg47
I3
sg48
I27
sbag0
(g23
g2
Ntp79
Rp80
(dp81
g27
(dp82
g29
Vthe
p83
sg31
VO
p84
sg33
VDT
p85
sg35
I5
ssg10
I4
sg36
g4
sg37
(dp86
sg39
(dp87
sg41
I28
sg42
g21
sg43
g21
sg44
I4
sg45
Vthe
p88
sg47
I4
sg48
I31
sbag0
(g23
g2
Ntp89
Rp90
(dp91
g27
(dp92
g29
Vpossibility
p93
sg31
VO
p94
sg33
VNN
p95
sg35
I6
ssg10
I5
sg36
g4
sg37
(dp96
sg39
(dp97
sg41
I32
sg42
g21
sg43
g21
sg44
I5
sg45
Vpossibility
p98
sg47
I5
sg48
I43
sbag0
(g23
g2
Ntp99
Rp100
(dp101
g27
(dp102
g29
Vof
p103
sg31
VO
p104
sg33
VIN
p105
sg35
I7
ssg10
I6
sg36
g4
sg37
(dp106
sg39
(dp107
sg41
I44
sg42
g21
sg43
g21
sg44
I6
sg45
Vof
p108
sg47
I6
sg48
I46
sbag0
(g23
g2
Ntp109
Rp110
(dp111
g27
(dp112
g29
Vthe
p113
sg31
VO
p114
sg33
VDT
p115
sg35
I8
ssg10
I7
sg36
g4
sg37
(dp116
sg39
(dp117
sg41
I47
sg42
g21
sg43
g21
sg44
I7
sg45
Vthe
p118
sg47
I7
sg48
I50
sbag0
(g23
g2
Ntp119
Rp120
(dp121
g27
(dp122
g29
Vnear
p123
sg31
VO
p124
sg33
VJJ
p125
sg35
I9
ssg10
I8
sg36
g4
sg37
(dp126
sg39
(dp127
sg41
I51
sg42
g21
sg43
g21
sg44
I8
sg45
Vnear
p128
sg47
I8
sg48
I55
sbag0
(g23
g2
Ntp129
Rp130
(dp131
g27
(dp132
g29
Vcomplete
p133
sg31
VO
p134
sg33
VJJ
p135
sg35
I10
ssg10
I9
sg36
g4
sg37
(dp136
sg39
(dp137
sg41
I56
sg42
g21
sg43
g21
sg44
I9
sg45
Vcomplete
p138
sg47
I9
sg48
I64
sbag0
(g23
g2
Ntp139
Rp140
(dp141
g27
(dp142
g29
Vannihilation
p143
sg31
VO
p144
sg33
VNN
p145
sg35
I11
ssg10
I10
sg36
g4
sg37
(dp146
sg39
(dp147
sg41
I65
sg42
g21
sg43
g21
sg44
I10
sg45
Vannihilation
p148
sg47
I10
sg48
I77
sbag0
(g23
g2
Ntp149
Rp150
(dp151
g27
(dp152
g29
Vof
p153
sg31
VO
p154
sg33
VIN
p155
sg35
I12
ssg10
I11
sg36
g4
sg37
(dp156
sg39
(dp157
sg41
I78
sg42
g21
sg43
g21
sg44
I11
sg45
Vof
p158
sg47
I11
sg48
I80
sbag0
(g23
g2
Ntp159
Rp160
(dp161
g27
(dp162
g29
Vhuman
p163
sg31
VO
p164
sg33
VJJ
p165
sg35
I13
ssg10
I12
sg36
g4
sg37
(dp166
sg39
(dp167
sg41
I81
sg42
g21
sg43
g21
sg44
I12
sg45
Vhuman
p168
sg47
I12
sg48
I86
sbag0
(g23
g2
Ntp169
Rp170
(dp171
g27
(dp172
g29
Vcivilization
p173
sg31
VO
p174
sg33
VNN
p175
sg35
I14
ssg10
I13
sg36
g4
sg37
(dp176
sg39
(dp177
sg41
I87
sg42
g21
sg43
g21
sg44
I13
sg45
Vcivilization
p178
sg47
I13
sg48
I99
sbag0
(g23
g2
Ntp179
Rp180
(dp181
g27
(dp182
g29
Vby
p183
sg31
VO
p184
sg33
VIN
p185
sg35
I15
ssg10
I14
sg36
g4
sg37
(dp186
sg39
(dp187
sg41
I100
sg42
g21
sg43
g21
sg44
I14
sg45
Vby
p188
sg47
I14
sg48
I102
sbag0
(g23
g2
Ntp189
Rp190
(dp191
g27
(dp192
g29
Vnuclear
p193
sg31
VO
p194
sg33
VJJ
p195
sg35
I16
ssg10
I15
sg36
g4
sg37
(dp196
sg39
(dp197
sg41
I103
sg42
g21
sg43
g21
sg44
I15
sg45
Vnuclear
p198
sg47
I15
sg48
I110
sbag0
(g23
g2
Ntp199
Rp200
(dp201
g27
(dp202
g29
Vwarfare
p203
sg31
VO
p204
sg33
VNN
p205
sg35
I17
ssg10
I16
sg36
g4
sg37
(dp206
sg39
(dp207
sg41
I111
sg42
g21
sg43
g21
sg44
I16
sg45
Vwarfare
p208
sg47
I16
sg48
I118
sbag0
(g23
g2
Ntp209
Rp210
(dp211
g27
(dp212
g29
V.
p213
sg31
VO
p214
sg33
V.
p215
sg35
I18
ssg10
I17
sg36
g4
sg37
(dp216
sg39
(dp217
sg41
I118
sg42
g21
sg43
g21
sg44
I17
sg45
V.
p218
sg47
I17
sg48
I119
sbag0
(g23
g2
Ntp219
Rp220
(dp221
g27
(dp222
g29
Vunder
p223
sg31
VO
p224
sg33
VIN
p225
sg35
I1
ssg10
I18
sg36
g4
sg37
(dp226
sg39
(dp227
sg41
I120
sg42
g21
sg43
g21
sg44
I18
sg45
VUnder
p228
sg47
I18
sg48
I125
sbag0
(g23
g2
Ntp229
Rp230
(dp231
g27
(dp232
g29
Vsuch
p233
sg31
VO
p234
sg33
VPDT
p235
sg35
I2
ssg10
I19
sg36
g4
sg37
(dp236
sg39
(dp237
sg41
I126
sg42
g21
sg43
g21
sg44
I19
sg45
Vsuch
p238
sg47
I19
sg48
I130
sbag0
(g23
g2
Ntp239
Rp240
(dp241
g27
(dp242
g29
Va
p243
sg31
VO
p244
sg33
VDT
p245
sg35
I3
ssg10
I20
sg36
g4
sg37
(dp246
sg39
(dp247
sg41
I131
sg42
g21
sg43
g21
sg44
I20
sg45
Va
p248
sg47
I20
sg48
I132
sbag0
(g23
g2
Ntp249
Rp250
(dp251
g27
(dp252
g29
Vscenario
p253
sg31
VO
p254
sg33
VNN
p255
sg35
I4
ssg10
I21
sg36
g4
sg37
(dp256
sg39
(dp257
sg41
I133
sg42
g21
sg43
g21
sg44
I21
sg45
Vscenario
p258
sg47
I21
sg48
I141
sbag0
(g23
g2
Ntp259
Rp260
(dp261
g27
(dp262
g29
V,
p263
sg31
VO
p264
sg33
V,
p265
sg35
I5
ssg10
I22
sg36
g4
sg37
(dp266
sg39
(dp267
sg41
I141
sg42
g21
sg43
g21
sg44
I22
sg45
V,
p268
sg47
I22
sg48
I142
sbag0
(g23
g2
Ntp269
Rp270
(dp271
g27
(dp272
g29
Vall
p273
sg31
VO
p274
sg33
VDT
p275
sg35
I6
ssg10
I23
sg36
g4
sg37
(dp276
sg39
(dp277
sg41
I143
sg42
g21
sg43
g21
sg44
I23
sg45
Vall
p278
sg47
I23
sg48
I146
sbag0
(g23
g2
Ntp279
Rp280
(dp281
g27
(dp282
g29
Vor
p283
sg31
VO
p284
sg33
VCC
p285
sg35
I7
ssg10
I24
sg36
g4
sg37
(dp286
sg39
(dp287
sg41
I147
sg42
g21
sg43
g21
sg44
I24
sg45
Vor
p288
sg47
I24
sg48
I149
sbag0
(g23
g2
Ntp289
Rp290
(dp291
g27
(dp292
g29
Vmost
p293
sg31
VO
p294
sg33
VJJS
p295
sg35
I8
ssg10
I25
sg36
g4
sg37
(dp296
sg39
(dp297
sg41
I150
sg42
g21
sg43
g21
sg44
I25
sg45
Vmost
p298
sg47
I25
sg48
I154
sbag0
(g23
g2
Ntp299
Rp300
(dp301
g27
(dp302
g29
Vof
p303
sg31
VO
p304
sg33
VIN
p305
sg35
I9
ssg10
I26
sg36
g4
sg37
(dp306
sg39
(dp307
sg41
I155
sg42
g21
sg43
g21
sg44
I26
sg45
Vof
p308
sg47
I26
sg48
I157
sbag0
(g23
g2
Ntp309
Rp310
(dp311
g27
(dp312
g29
Vthe
p313
sg31
VO
p314
sg33
VDT
p315
sg35
I10
ssg10
I27
sg36
g4
sg37
(dp316
sg39
(dp317
sg41
I158
sg42
g21
sg43
g21
sg44
I27
sg45
Vthe
p318
sg47
I27
sg48
I161
sbag0
(g23
g2
Ntp319
Rp320
(dp321
g27
(dp322
g29
VEarth
p323
sg31
VLOCATION
p324
sg33
VNNP
p325
sg35
I11
ssg10
I28
sg36
g4
sg37
(dp326
sg39
(dp327
sg41
I162
sg42
g21
sg43
g21
sg44
I28
sg45
VEarth
p328
sg47
I28
sg48
I167
sbag0
(g23
g2
Ntp329
Rp330
(dp331
g27
(dp332
g29
Vbe
p333
sg31
VO
p334
sg33
VVBZ
p335
sg35
I12
ssg10
I29
sg36
g4
sg37
(dp336
sg39
(dp337
sg41
I168
sg42
g21
sg43
g21
sg44
I29
sg45
Vis
p338
sg47
I29
sg48
I170
sbag0
(g23
g2
Ntp339
Rp340
(dp341
g27
(dp342
g29
Vmake
p343
sg31
VO
p344
sg33
VVBN
p345
sg35
I13
ssg10
I30
sg36
g4
sg37
(dp346
sg39
(dp347
sg41
I171
sg42
g21
sg43
g21
sg44
I30
sg45
Vmade
p348
sg47
I30
sg48
I175
sbag0
(g23
g2
Ntp349
Rp350
(dp351
g27
(dp352
g29
Vuninhabitable
p353
sg31
VO
p354
sg33
VJJ
p355
sg35
I14
ssg10
I31
sg36
g4
sg37
(dp356
sg39
(dp357
sg41
I176
sg42
g21
sg43
g21
sg44
I31
sg45
Vuninhabitable
p358
sg47
I31
sg48
I189
sbag0
(g23
g2
Ntp359
Rp360
(dp361
g27
(dp362
g29
Vby
p363
sg31
VO
p364
sg33
VIN
p365
sg35
I15
ssg10
I32
sg36
g4
sg37
(dp366
sg39
(dp367
sg41
I190
sg42
g21
sg43
g21
sg44
I32
sg45
Vby
p368
sg47
I32
sg48
I192
sbag0
(g23
g2
Ntp369
Rp370
(dp371
g27
(dp372
g29
Vnuclear
p373
sg31
VO
p374
sg33
VJJ
p375
sg35
I16
ssg10
I33
sg36
g4
sg37
(dp376
sg39
(dp377
sg41
I193
sg42
g21
sg43
g21
sg44
I33
sg45
Vnuclear
p378
sg47
I33
sg48
I200
sbag0
(g23
g2
Ntp379
Rp380
(dp381
g27
(dp382
g29
Vweapon
p383
sg31
VO
p384
sg33
VNNS
p385
sg35
I17
ssg10
I34
sg36
g4
sg37
(dp386
sg39
(dp387
sg41
I201
sg42
g21
sg43
g21
sg44
I34
sg45
Vweapons
p388
sg47
I34
sg48
I208
sbag0
(g23
g2
Ntp389
Rp390
(dp391
g27
(dp392
g29
Vin
p393
sg31
VO
p394
sg33
VIN
p395
sg35
I18
ssg10
I35
sg36
g4
sg37
(dp396
sg39
(dp397
sg41
I209
sg42
g21
sg43
g21
sg44
I35
sg45
Vin
p398
sg47
I35
sg48
I211
sbag0
(g23
g2
Ntp399
Rp400
(dp401
g27
(dp402
g29
Vfuture
p403
sg31
VDATE
p404
sg33
VJJ
p405
sg35
I19
ssg10
I36
sg36
g4
sg37
(dp406
sg39
(dp407
sg41
I212
sg42
g21
sg43
g21
sg44
I36
sg45
Vfuture
p408
sg47
I36
sg48
I218
sbag0
(g23
g2
Ntp409
Rp410
(dp411
g27
(dp412
g29
Vworld
p413
sg31
VO
p414
sg33
VNN
p415
sg35
I20
ssg10
I37
sg36
g4
sg37
(dp416
sg39
(dp417
sg41
I219
sg42
g21
sg43
g21
sg44
I37
sg45
Vworld
p418
sg47
I37
sg48
I224
sbag0
(g23
g2
Ntp419
Rp420
(dp421
g27
(dp422
g29
Vwar
p423
sg31
VO
p424
sg33
VNNS
p425
sg35
I21
ssg10
I38
sg36
g4
sg37
(dp426
sg39
(dp427
sg41
I225
sg42
g21
sg43
g21
sg44
I38
sg45
Vwars
p428
sg47
I38
sg48
I229
sbag0
(g23
g2
Ntp429
Rp430
(dp431
g27
(dp432
g29
V.
p433
sg31
VO
p434
sg33
V.
p435
sg35
I22
ssg10
I39
sg36
g4
sg37
(dp436
sg39
(dp437
sg41
I229
sg42
g21
sg43
g21
sg44
I39
sg45
V.
p438
sg47
I39
sg48
I230
sbag0
(g23
g2
Ntp439
Rp440
(dp441
g27
(dp442
g29
Va
p443
sg31
VO
p444
sg33
VDT
p445
sg35
I1
ssg10
I40
sg36
g4
sg37
(dp446
sg39
(dp447
sg41
I233
sg42
g21
sg43
g21
sg44
I40
sg45
VA
p448
sg47
I40
sg48
I234
sbag0
(g23
g2
Ntp449
Rp450
(dp451
g27
(dp452
g29
Vcommon
p453
sg31
VO
p454
sg33
VJJ
p455
sg35
I2
ssg10
I41
sg36
g4
sg37
(dp456
sg39
(dp457
sg41
I235
sg42
g21
sg43
g21
sg44
I41
sg45
Vcommon
p458
sg47
I41
sg48
I241
sbag0
(g23
g2
Ntp459
Rp460
(dp461
g27
(dp462
g29
Vdefinition
p463
sg31
VO
p464
sg33
VNN
p465
sg35
I3
ssg10
I42
sg36
g4
sg37
(dp466
sg39
(dp467
sg41
I242
sg42
g21
sg43
g21
sg44
I42
sg45
Vdefinition
p468
sg47
I42
sg48
I252
sbag0
(g23
g2
Ntp469
Rp470
(dp471
g27
(dp472
g29
Vof
p473
sg31
VO
p474
sg33
VIN
p475
sg35
I4
ssg10
I43
sg36
g4
sg37
(dp476
sg39
(dp477
sg41
I253
sg42
g21
sg43
g21
sg44
I43
sg45
Vof
p478
sg47
I43
sg48
I255
sbag0
(g23
g2
Ntp479
Rp480
(dp481
g27
(dp482
g29
Vthe
p483
sg31
VO
p484
sg33
VDT
p485
sg35
I5
ssg10
I44
sg36
g4
sg37
(dp486
sg39
(dp487
sg41
I256
sg42
g21
sg43
g21
sg44
I44
sg45
Vthe
p488
sg47
I44
sg48
I259
sbag0
(g23
g2
Ntp489
Rp490
(dp491
g27
(dp492
g29
Vword
p493
sg31
VO
p494
sg33
VNN
p495
sg35
I6
ssg10
I45
sg36
g4
sg37
(dp496
sg39
(dp497
sg41
I260
sg42
g21
sg43
g21
sg44
I45
sg45
Vword
p498
sg47
I45
sg48
I264
sbag0
(g23
g2
Ntp499
Rp500
(dp501
g27
(dp502
g29
V``
p503
sg31
VO
p504
sg33
V``
p505
sg35
I7
ssg10
I46
sg36
g4
sg37
(dp506
sg39
(dp507
sg41
I265
sg42
g21
sg43
g21
sg44
I46
sg45
V"
p508
sg47
I46
sg48
I266
sbag0
(g23
g2
Ntp509
Rp510
(dp511
g27
(dp512
g29
Vholocaust
p513
sg31
VO
p514
sg33
VNN
p515
sg35
I8
ssg10
I47
sg36
g4
sg37
(dp516
sg39
(dp517
sg41
I266
sg42
g21
sg43
g21
sg44
I47
sg45
Vholocaust
p518
sg47
I47
sg48
I275
sbag0
(g23
g2
Ntp519
Rp520
(dp521
g27
(dp522
g29
V''
p523
sg31
VO
p524
sg33
V''
p525
sg35
I9
ssg10
I48
sg36
g4
sg37
(dp526
sg39
(dp527
sg41
I275
sg42
g21
sg43
g21
sg44
I48
sg45
g508
sg47
I48
sg48
I276
sbag0
(g23
g2
Ntp528
Rp529
(dp530
g27
(dp531
g29
V:
p532
sg31
VO
p533
sg33
V:
p534
sg35
I10
ssg10
I49
sg36
g4
sg37
(dp535
sg39
(dp536
sg41
I276
sg42
g21
sg43
g21
sg44
I49
sg45
V:
p537
sg47
I49
sg48
I277
sbag0
(g23
g2
Ntp538
Rp539
(dp540
g27
(dp541
g29
V``
p542
sg31
VO
p543
sg33
V``
p544
sg35
I11
ssg10
I50
sg36
g4
sg37
(dp545
sg39
(dp546
sg41
I278
sg42
g21
sg43
g21
sg44
I50
sg45
g508
sg47
I50
sg48
I279
sbag0
(g23
g2
Ntp547
Rp548
(dp549
g27
(dp550
g29
Vgreat
p551
sg31
VO
p552
sg33
VJJ
p553
sg35
I12
ssg10
I51
sg36
g4
sg37
(dp554
sg39
(dp555
sg41
I279
sg42
g21
sg43
g21
sg44
I51
sg45
Vgreat
p556
sg47
I51
sg48
I284
sbag0
(g23
g2
Ntp557
Rp558
(dp559
g27
(dp560
g29
Vdestruction
p561
sg31
VO
p562
sg33
VNN
p563
sg35
I13
ssg10
I52
sg36
g4
sg37
(dp564
sg39
(dp565
sg41
I285
sg42
g21
sg43
g21
sg44
I52
sg45
Vdestruction
p566
sg47
I52
sg48
I296
sbag0
(g23
g2
Ntp567
Rp568
(dp569
g27
(dp570
g29
Vresult
p571
sg31
VO
p572
sg33
VVBG
p573
sg35
I14
ssg10
I53
sg36
g4
sg37
(dp574
sg39
(dp575
sg41
I297
sg42
g21
sg43
g21
sg44
I53
sg45
Vresulting
p576
sg47
I53
sg48
I306
sbag0
(g23
g2
Ntp577
Rp578
(dp579
g27
(dp580
g29
Vin
p581
sg31
VO
p582
sg33
VIN
p583
sg35
I15
ssg10
I54
sg36
g4
sg37
(dp584
sg39
(dp585
sg41
I303
sg42
g21
sg43
g21
sg44
I54
sg45
Vin
p586
sg47
I54
sg48
I305
sbag0
(g23
g2
Ntp587
Rp588
(dp589
g27
(dp590
g29
Vthe
p591
sg31
VO
p592
sg33
VDT
p593
sg35
I16
ssg10
I55
sg36
g4
sg37
(dp594
sg39
(dp595
sg41
I310
sg42
g21
sg43
g21
sg44
I55
sg45
Vthe
p596
sg47
I55
sg48
I313
sbag0
(g23
g2
Ntp597
Rp598
(dp599
g27
(dp600
g29
Vextensive
p601
sg31
VO
p602
sg33
VJJ
p603
sg35
I17
ssg10
I56
sg36
g4
sg37
(dp604
sg39
(dp605
sg41
I314
sg42
g21
sg43
g21
sg44
I56
sg45
Vextensive
p606
sg47
I56
sg48
I323
sbag0
(g23
g2
Ntp607
Rp608
(dp609
g27
(dp610
g29
Vloss
p611
sg31
VO
p612
sg33
VNN
p613
sg35
I18
ssg10
I57
sg36
g4
sg37
(dp614
sg39
(dp615
sg41
I324
sg42
g21
sg43
g21
sg44
I57
sg45
Vloss
p616
sg47
I57
sg48
I328
sbag0
(g23
g2
Ntp617
Rp618
(dp619
g27
(dp620
g29
Vof
p621
sg31
VO
p622
sg33
VIN
p623
sg35
I19
ssg10
I58
sg36
g4
sg37
(dp624
sg39
(dp625
sg41
I329
sg42
g21
sg43
g21
sg44
I58
sg45
Vof
p626
sg47
I58
sg48
I331
sbag0
(g23
g2
Ntp627
Rp628
(dp629
g27
(dp630
g29
Vlife
p631
sg31
VO
p632
sg33
VNN
p633
sg35
I20
ssg10
I59
sg36
g4
sg37
(dp634
sg39
(dp635
sg41
I332
sg42
g21
sg43
g21
sg44
I59
sg45
Vlife
p636
sg47
I59
sg48
I336
sbag0
(g23
g2
Ntp637
Rp638
(dp639
g27
(dp640
g29
V,
p641
sg31
VO
p642
sg33
V,
p643
sg35
I21
ssg10
I60
sg36
g4
sg37
(dp644
sg39
(dp645
sg41
I336
sg42
g21
sg43
g21
sg44
I60
sg45
V,
p646
sg47
I60
sg48
I337
sbag0
(g23
g2
Ntp647
Rp648
(dp649
g27
(dp650
g29
Vespecially
p651
sg31
VO
p652
sg33
VRB
p653
sg35
I22
ssg10
I61
sg36
g4
sg37
(dp654
sg39
(dp655
sg41
I338
sg42
g21
sg43
g21
sg44
I61
sg45
Vespecially
p656
sg47
I61
sg48
I348
sbag0
(g23
g2
Ntp657
Rp658
(dp659
g27
(dp660
g29
Vby
p661
sg31
VO
p662
sg33
VIN
p663
sg35
I23
ssg10
I62
sg36
g4
sg37
(dp664
sg39
(dp665
sg41
I349
sg42
g21
sg43
g21
sg44
I62
sg45
Vby
p666
sg47
I62
sg48
I351
sbag0
(g23
g2
Ntp667
Rp668
(dp669
g27
(dp670
g29
Vfire
p671
sg31
VO
p672
sg33
VNN
p673
sg35
I24
ssg10
I63
sg36
g4
sg37
(dp674
sg39
(dp675
sg41
I352
sg42
g21
sg43
g21
sg44
I63
sg45
Vfire
p676
sg47
I63
sg48
I356
sbag0
(g23
g2
Ntp677
Rp678
(dp679
g27
(dp680
g29
V.
p681
sg31
VO
p682
sg33
V.
p683
sg35
I25
ssg10
I64
sg36
g4
sg37
(dp684
sg39
(dp685
sg41
I356
sg42
g21
sg43
g21
sg44
I64
sg45
V.
p686
sg47
I64
sg48
I357
sbag0
(g23
g2
Ntp687
Rp688
(dp689
g27
(dp690
g29
V''
p691
sg31
VO
p692
sg33
V''
p693
sg35
I26
ssg10
I65
sg36
g4
sg37
(dp694
sg39
(dp695
sg41
I357
sg42
g21
sg43
g21
sg44
I65
sg45
g508
sg47
I65
sg48
I358
sbag0
(g23
g2
Ntp696
Rp697
(dp698
g27
(dp699
g29
V-lsb-
p700
sg31
VO
p701
sg33
V-LRB-
p702
sg35
I1
ssg10
I66
sg36
g4
sg37
(dp703
sg39
(dp704
sg41
I358
sg42
g21
sg43
g21
sg44
I66
sg45
V[
p705
sg47
I66
sg48
I359
sbag0
(g23
g2
Ntp706
Rp707
(dp708
g27
(dp709
g29
Vref
p710
sg31
VO
p711
sg33
VNN
p712
sg35
I2
ssg10
I67
sg36
g4
sg37
(dp713
sg39
(dp714
sg41
I359
sg42
g21
sg43
g21
sg44
I67
sg45
VREF
p715
sg47
I67
sg48
I362
sbag0
(g23
g2
Ntp716
Rp717
(dp718
g27
(dp719
g29
V-rsb-
p720
sg31
VO
p721
sg33
V-RRB-
p722
sg35
I3
ssg10
I68
sg36
g4
sg37
(dp723
sg39
(dp724
sg41
I362
sg42
g21
sg43
g21
sg44
I68
sg45
V]
p725
sg47
I68
sg48
I363
sbag0
(g23
g2
Ntp726
Rp727
(dp728
g27
(dp729
g29
Vthe
p730
sg31
VO
p731
sg33
VDT
p732
sg35
I4
ssg10
I69
sg36
g4
sg37
(dp733
sg39
(dp734
sg41
I364
sg42
g21
sg43
g21
sg44
I69
sg45
VThe
p735
sg47
I69
sg48
I367
sbag0
(g23
g2
Ntp736
Rp737
(dp738
g27
(dp739
g29
Vword
p740
sg31
VO
p741
sg33
VNN
p742
sg35
I5
ssg10
I70
sg36
g4
sg37
(dp743
sg39
(dp744
sg41
I368
sg42
g21
sg43
g21
sg44
I70
sg45
Vword
p745
sg47
I70
sg48
I372
sbag0
(g23
g2
Ntp746
Rp747
(dp748
g27
(dp749
g29
Vbe
p750
sg31
VO
p751
sg33
VVBZ
p752
sg35
I6
ssg10
I71
sg36
g4
sg37
(dp753
sg39
(dp754
sg41
I373
sg42
g21
sg43
g21
sg44
I71
sg45
Vis
p755
sg47
I71
sg48
I375
sbag0
(g23
g2
Ntp756
Rp757
(dp758
g27
(dp759
g29
Vderive
p760
sg31
VO
p761
sg33
VVBN
p762
sg35
I7
ssg10
I72
sg36
g4
sg37
(dp763
sg39
(dp764
sg41
I376
sg42
g21
sg43
g21
sg44
I72
sg45
Vderived
p765
sg47
I72
sg48
I383
sbag0
(g23
g2
Ntp766
Rp767
(dp768
g27
(dp769
g29
Vfrom
p770
sg31
VO
p771
sg33
VIN
p772
sg35
I8
ssg10
I73
sg36
g4
sg37
(dp773
sg39
(dp774
sg41
I384
sg42
g21
sg43
g21
sg44
I73
sg45
Vfrom
p775
sg47
I73
sg48
I388
sbag0
(g23
g2
Ntp776
Rp777
(dp778
g27
(dp779
g29
Vthe
p780
sg31
VO
p781
sg33
VDT
p782
sg35
I9
ssg10
I74
sg36
g4
sg37
(dp783
sg39
(dp784
sg41
I389
sg42
g21
sg43
g21
sg44
I74
sg45
Vthe
p785
sg47
I74
sg48
I392
sbag0
(g23
g2
Ntp786
Rp787
(dp788
g27
(dp789
g29
Vgreek
p790
sg31
VMISC
p791
sg33
VJJ
p792
sg35
I10
ssg10
I75
sg36
g4
sg37
(dp793
sg39
(dp794
sg41
I393
sg42
g21
sg43
g21
sg44
I75
sg45
VGreek
p795
sg47
I75
sg48
I398
sbag0
(g23
g2
Ntp796
Rp797
(dp798
g27
(dp799
g29
Vterm
p800
sg31
VO
p801
sg33
VNN
p802
sg35
I11
ssg10
I76
sg36
g4
sg37
(dp803
sg39
(dp804
sg41
I399
sg42
g21
sg43
g21
sg44
I76
sg45
Vterm
p805
sg47
I76
sg48
I403
sbag0
(g23
g2
Ntp806
Rp807
(dp808
g27
(dp809
g29
V``
p810
sg31
VO
p811
sg33
V``
p812
sg35
I12
ssg10
I77
sg36
g4
sg37
(dp813
sg39
(dp814
sg41
I404
sg42
g21
sg43
g21
sg44
I77
sg45
g508
sg47
I77
sg48
I405
sbag0
(g23
g2
Ntp815
Rp816
(dp817
g27
(dp818
g29
Vholokausto
p819
sg31
VO
p820
sg33
VNNS
p821
sg35
I13
ssg10
I78
sg36
g4
sg37
(dp822
sg39
(dp823
sg41
I405
sg42
g21
sg43
g21
sg44
I78
sg45
Vholokaustos
p824
sg47
I78
sg48
I416
sbag0
(g23
g2
Ntp825
Rp826
(dp827
g27
(dp828
g29
V''
p829
sg31
VO
p830
sg33
V''
p831
sg35
I14
ssg10
I79
sg36
g4
sg37
(dp832
sg39
(dp833
sg41
I416
sg42
g21
sg43
g21
sg44
I79
sg45
g508
sg47
I79
sg48
I417
sbag0
(g23
g2
Ntp834
Rp835
(dp836
g27
(dp837
g29
Vmean
p838
sg31
VO
p839
sg33
VVBG
p840
sg35
I15
ssg10
I80
sg36
g4
sg37
(dp841
sg39
(dp842
sg41
I418
sg42
g21
sg43
g21
sg44
I80
sg45
Vmeaning
p843
sg47
I80
sg48
I425
sbag0
(g23
g2
Ntp844
Rp845
(dp846
g27
(dp847
g29
V``
p848
sg31
VO
p849
sg33
V``
p850
sg35
I16
ssg10
I81
sg36
g4
sg37
(dp851
sg39
(dp852
sg41
I426
sg42
g21
sg43
g21
sg44
I81
sg45
g508
sg47
I81
sg48
I427
sbag0
(g23
g2
Ntp853
Rp854
(dp855
g27
(dp856
g29
Vcompletely
p857
sg31
VO
p858
sg33
VRB
p859
sg35
I17
ssg10
I82
sg36
g4
sg37
(dp860
sg39
(dp861
sg41
I427
sg42
g21
sg43
g21
sg44
I82
sg45
Vcompletely
p862
sg47
I82
sg48
I437
sbag0
(g23
g2
Ntp863
Rp864
(dp865
g27
(dp866
g29
Vburnt
p867
sg31
VO
p868
sg33
VJJ
p869
sg35
I18
ssg10
I83
sg36
g4
sg37
(dp870
sg39
(dp871
sg41
I438
sg42
g21
sg43
g21
sg44
I83
sg45
Vburnt
p872
sg47
I83
sg48
I443
sbag0
(g23
g2
Ntp873
Rp874
(dp875
g27
(dp876
g29
V.
p877
sg31
VO
p878
sg33
V.
p879
sg35
I19
ssg10
I84
sg36
g4
sg37
(dp880
sg39
(dp881
sg41
I443
sg42
g21
sg43
g21
sg44
I84
sg45
V.
p882
sg47
I84
sg48
I444
sbag0
(g23
g2
Ntp883
Rp884
(dp885
g27
(dp886
g29
V''
p887
sg31
VO
p888
sg33
V''
p889
sg35
I20
ssg10
I85
sg36
g4
sg37
(dp890
sg39
(dp891
sg41
I444
sg42
g21
sg43
g21
sg44
I85
sg45
g508
sg47
I85
sg48
I445
sbag0
(g23
g2
Ntp892
Rp893
(dp894
g27
(dp895
g29
Vpossibly
p896
sg31
VO
p897
sg33
VRB
p898
sg35
I1
ssg10
I86
sg36
g4
sg37
(dp899
sg39
(dp900
sg41
I446
sg42
g21
sg43
g21
sg44
I86
sg45
VPossibly
p901
sg47
I86
sg48
I454
sbag0
(g23
g2
Ntp902
Rp903
(dp904
g27
(dp905
g29
Vthe
p906
sg31
VO
p907
sg33
VDT
p908
sg35
I2
ssg10
I87
sg36
g4
sg37
(dp909
sg39
(dp910
sg41
I455
sg42
g21
sg43
g21
sg44
I87
sg45
Vthe
p911
sg47
I87
sg48
I458
sbag0
(g23
g2
Ntp912
Rp913
(dp914
g27
(dp915
g29
Vfirst
p916
sg31
VORDINAL
p917
sg33
VJJ
p918
sg35
I3
ssg10
I88
sg36
g4
sg37
(dp919
sg39
(dp920
sg41
I459
sg42
g21
sg43
g21
sg44
I88
sg45
Vfirst
p921
sg47
I88
sg48
I464
sbag0
(g23
g2
Ntp922
Rp923
(dp924
g27
(dp925
g29
Vprint
p926
sg31
VO
p927
sg33
VVBN
p928
sg35
I4
ssg10
I89
sg36
g4
sg37
(dp929
sg39
(dp930
sg41
I465
sg42
g21
sg43
g21
sg44
I89
sg45
Vprinted
p931
sg47
I89
sg48
I472
sbag0
(g23
g2
Ntp932
Rp933
(dp934
g27
(dp935
g29
Vuse
p936
sg31
VO
p937
sg33
VNN
p938
sg35
I5
ssg10
I90
sg36
g4
sg37
(dp939
sg39
(dp940
sg41
I473
sg42
g21
sg43
g21
sg44
I90
sg45
Vuse
p941
sg47
I90
sg48
I476
sbag0
(g23
g2
Ntp942
Rp943
(dp944
g27
(dp945
g29
Vof
p946
sg31
VO
p947
sg33
VIN
p948
sg35
I6
ssg10
I91
sg36
g4
sg37
(dp949
sg39
(dp950
sg41
I477
sg42
g21
sg43
g21
sg44
I91
sg45
Vof
p951
sg47
I91
sg48
I479
sbag0
(g23
g2
Ntp952
Rp953
(dp954
g27
(dp955
g29
Vthe
p956
sg31
VO
p957
sg33
VDT
p958
sg35
I7
ssg10
I92
sg36
g4
sg37
(dp959
sg39
(dp960
sg41
I480
sg42
g21
sg43
g21
sg44
I92
sg45
Vthe
p961
sg47
I92
sg48
I483
sbag0
(g23
g2
Ntp962
Rp963
(dp964
g27
(dp965
g29
Vword
p966
sg31
VO
p967
sg33
VNN
p968
sg35
I8
ssg10
I93
sg36
g4
sg37
(dp969
sg39
(dp970
sg41
I484
sg42
g21
sg43
g21
sg44
I93
sg45
Vword
p971
sg47
I93
sg48
I488
sbag0
(g23
g2
Ntp972
Rp973
(dp974
g27
(dp975
g29
V``
p976
sg31
VO
p977
sg33
V``
p978
sg35
I9
ssg10
I94
sg36
g4
sg37
(dp979
sg39
(dp980
sg41
I489
sg42
g21
sg43
g21
sg44
I94
sg45
g508
sg47
I94
sg48
I490
sbag0
(g23
g2
Ntp981
Rp982
(dp983
g27
(dp984
g29
Vholocaust
p985
sg31
VO
p986
sg33
VNN
p987
sg35
I10
ssg10
I95
sg36
g4
sg37
(dp988
sg39
(dp989
sg41
I490
sg42
g21
sg43
g21
sg44
I95
sg45
Vholocaust
p990
sg47
I95
sg48
I499
sbag0
(g23
g2
Ntp991
Rp992
(dp993
g27
(dp994
g29
V''
p995
sg31
VO
p996
sg33
V''
p997
sg35
I11
ssg10
I96
sg36
g4
sg37
(dp998
sg39
(dp999
sg41
I499
sg42
g21
sg43
g21
sg44
I96
sg45
g508
sg47
I96
sg48
I500
sbag0
(g23
g2
Ntp1000
Rp1001
(dp1002
g27
(dp1003
g29
Vto
p1004
sg31
VO
p1005
sg33
VTO
p1006
sg35
I12
ssg10
I97
sg36
g4
sg37
(dp1007
sg39
(dp1008
sg41
I501
sg42
g21
sg43
g21
sg44
I97
sg45
Vto
p1009
sg47
I97
sg48
I503
sbag0
(g23
g2
Ntp1010
Rp1011
(dp1012
g27
(dp1013
g29
Vdescribe
p1014
sg31
VO
p1015
sg33
VVB
p1016
sg35
I13
ssg10
I98
sg36
g4
sg37
(dp1017
sg39
(dp1018
sg41
I504
sg42
g21
sg43
g21
sg44
I98
sg45
Vdescribe
p1019
sg47
I98
sg48
I512
sbag0
(g23
g2
Ntp1020
Rp1021
(dp1022
g27
(dp1023
g29
Va
p1024
sg31
VO
p1025
sg33
VDT
p1026
sg35
I14
ssg10
I99
sg36
g4
sg37
(dp1027
sg39
(dp1028
sg41
I513
sg42
g21
sg43
g21
sg44
I99
sg45
Van
p1029
sg47
I99
sg48
I515
sbag0
(g23
g2
Ntp1030
Rp1031
(dp1032
g27
(dp1033
g29
Vimagine
p1034
sg31
VO
p1035
sg33
VVBN
p1036
sg35
I15
ssg10
I100
sg36
g4
sg37
(dp1037
sg39
(dp1038
sg41
I516
sg42
g21
sg43
g21
sg44
I100
sg45
Vimagined
p1039
sg47
I100
sg48
I524
sbag0
(g23
g2
Ntp1040
Rp1041
(dp1042
g27
(dp1043
g29
Vnuclear
p1044
sg31
VO
p1045
sg33
VJJ
p1046
sg35
I16
ssg10
I101
sg36
g4
sg37
(dp1047
sg39
(dp1048
sg41
I525
sg42
g21
sg43
g21
sg44
I101
sg45
Vnuclear
p1049
sg47
I101
sg48
I532
sbag0
(g23
g2
Ntp1050
Rp1051
(dp1052
g27
(dp1053
g29
Vdestruction
p1054
sg31
VO
p1055
sg33
VNN
p1056
sg35
I17
ssg10
I102
sg36
g4
sg37
(dp1057
sg39
(dp1058
sg41
I533
sg42
g21
sg43
g21
sg44
I102
sg45
Vdestruction
p1059
sg47
I102
sg48
I544
sbag0
(g23
g2
Ntp1060
Rp1061
(dp1062
g27
(dp1063
g29
Vbe
p1064
sg31
VO
p1065
sg33
VVBZ
p1066
sg35
I18
ssg10
I103
sg36
g4
sg37
(dp1067
sg39
(dp1068
sg41
I545
sg42
g21
sg43
g21
sg44
I103
sg45
Vis
p1069
sg47
I103
sg48
I547
sbag0
(g23
g2
Ntp1070
Rp1071
(dp1072
g27
(dp1073
g29
VReginald
p1074
sg31
VPERSON
p1075
sg33
VNNP
p1076
sg35
I19
ssg10
I104
sg36
g4
sg37
(dp1077
sg39
(dp1078
sg41
I548
sg42
g21
sg43
g21
sg44
I104
sg45
VReginald
p1079
sg47
I104
sg48
I556
sbag0
(g23
g2
Ntp1080
Rp1081
(dp1082
g27
(dp1083
g29
VGlossop
p1084
sg31
VPERSON
p1085
sg33
VNNP
p1086
sg35
I20
ssg10
I105
sg36
g4
sg37
(dp1087
sg39
(dp1088
sg41
I557
sg42
g21
sg43
g21
sg44
I105
sg45
VGlossop
p1089
sg47
I105
sg48
I564
sbag0
(g23
g2
Ntp1090
Rp1091
(dp1092
g27
(dp1093
g29
V's
p1094
sg31
VO
p1095
sg33
VPOS
p1096
sg35
I21
ssg10
I106
sg36
g4
sg37
(dp1097
sg39
(dp1098
sg41
I564
sg42
g21
sg43
g21
sg44
I106
sg45
V's
p1099
sg47
I106
sg48
I566
sbag0
(g23
g2
Ntp1100
Rp1101
(dp1102
g27
(dp1103
g29
V1926
p1104
sg31
VDATE
p1105
sg33
VCD
p1106
sg35
I22
ssg10
I107
sg36
g4
sg37
(dp1107
sg39
(dp1108
sg41
I567
sg42
g21
sg43
g21
sg44
I107
sg45
V1926
p1109
sg47
I107
sg48
I571
sbag0
(g23
g2
Ntp1110
Rp1111
(dp1112
g27
(dp1113
g29
V:
p1114
sg31
VO
p1115
sg33
V:
p1116
sg35
I23
ssg10
I108
sg36
g4
sg37
(dp1117
sg39
(dp1118
sg41
I571
sg42
g21
sg43
g21
sg44
I108
sg45
V:
p1119
sg47
I108
sg48
I572
sbag0
(g23
g2
Ntp1120
Rp1121
(dp1122
g27
(dp1123
g29
V``
p1124
sg31
VO
p1125
sg33
V``
p1126
sg35
I24
ssg10
I109
sg36
g4
sg37
(dp1127
sg39
(dp1128
sg41
I573
sg42
g21
sg43
g21
sg44
I109
sg45
g508
sg47
I109
sg48
I574
sbag0
(g23
g2
Ntp1129
Rp1130
(dp1131
g27
(dp1132
g29
VMoscow
p1133
sg31
VLOCATION
p1134
sg33
VNNP
p1135
sg35
I25
ssg10
I110
sg36
g4
sg37
(dp1136
sg39
(dp1137
sg41
I574
sg42
g21
sg43
g21
sg44
I110
sg45
VMoscow
p1138
sg47
I110
sg48
I580
sbag0
(g23
g2
Ntp1139
Rp1140
(dp1141
g27
(dp1142
g29
V.
p1143
sg31
VO
p1144
sg33
V.
p1145
sg35
I26
ssg10
I111
sg36
g4
sg37
(dp1146
sg39
(dp1147
sg41
I581
sg42
g21
sg43
g21
sg44
I111
sg45
V.
p1148
sg47
I111
sg48
I582
sbag0
(g23
g2
Ntp1149
Rp1150
(dp1151
g27
(dp1152
g29
V.
p1153
sg31
VO
p1154
sg33
V.
p1155
sg35
I1
ssg10
I112
sg36
g4
sg37
(dp1156
sg39
(dp1157
sg41
I581
sg42
g21
sg43
g21
sg44
I112
sg45
V.
p1158
sg47
I112
sg48
I582
sbag0
(g23
g2
Ntp1159
Rp1160
(dp1161
g27
(dp1162
g29
Vbeneath
p1163
sg31
VO
p1164
sg33
VIN
p1165
sg35
I1
ssg10
I113
sg36
g4
sg37
(dp1166
sg39
(dp1167
sg41
I584
sg42
g21
sg43
g21
sg44
I113
sg45
Vbeneath
p1168
sg47
I113
sg48
I591
sbag0
(g23
g2
Ntp1169
Rp1170
(dp1171
g27
(dp1172
g29
Vthey
p1173
sg31
VO
p1174
sg33
VPRP
p1175
sg35
I2
ssg10
I114
sg36
g4
sg37
(dp1176
sg39
(dp1177
sg41
I592
sg42
g21
sg43
g21
sg44
I114
sg45
Vthem
p1178
sg47
I114
sg48
I596
sbag0
(g23
g2
Ntp1179
Rp1180
(dp1181
g27
(dp1182
g29
V.
p1183
sg31
VO
p1184
sg33
V.
p1185
sg35
I3
ssg10
I115
sg36
g4
sg37
(dp1186
sg39
(dp1187
sg41
I597
sg42
g21
sg43
g21
sg44
I115
sg45
V.
p1188
sg47
I115
sg48
I598
sbag0
(g23
g2
Ntp1189
Rp1190
(dp1191
g27
(dp1192
g29
V.
p1193
sg31
VO
p1194
sg33
V.
p1195
sg35
I1
ssg10
I116
sg36
g4
sg37
(dp1196
sg39
(dp1197
sg41
I597
sg42
g21
sg43
g21
sg44
I116
sg45
V.
p1198
sg47
I116
sg48
I598
sbag0
(g23
g2
Ntp1199
Rp1200
(dp1201
g27
(dp1202
g29
Va
p1203
sg31
VO
p1204
sg33
VDT
p1205
sg35
I1
ssg10
I117
sg36
g4
sg37
(dp1206
sg39
(dp1207
sg41
I600
sg42
g21
sg43
g21
sg44
I117
sg45
Va
p1208
sg47
I117
sg48
I601
sbag0
(g23
g2
Ntp1209
Rp1210
(dp1211
g27
(dp1212
g29
Vcrash
p1213
sg31
VO
p1214
sg33
VNN
p1215
sg35
I2
ssg10
I118
sg36
g4
sg37
(dp1216
sg39
(dp1217
sg41
I602
sg42
g21
sg43
g21
sg44
I118
sg45
Vcrash
p1218
sg47
I118
sg48
I607
sbag0
(g23
g2
Ntp1219
Rp1220
(dp1221
g27
(dp1222
g29
Vlike
p1223
sg31
VO
p1224
sg33
VIN
p1225
sg35
I3
ssg10
I119
sg36
g4
sg37
(dp1226
sg39
(dp1227
sg41
I608
sg42
g21
sg43
g21
sg44
I119
sg45
Vlike
p1228
sg47
I119
sg48
I612
sbag0
(g23
g2
Ntp1229
Rp1230
(dp1231
g27
(dp1232
g29
Va
p1233
sg31
VO
p1234
sg33
VDT
p1235
sg35
I4
ssg10
I120
sg36
g4
sg37
(dp1236
sg39
(dp1237
sg41
I613
sg42
g21
sg43
g21
sg44
I120
sg45
Va
p1238
sg47
I120
sg48
I614
sbag0
(g23
g2
Ntp1239
Rp1240
(dp1241
g27
(dp1242
g29
Vcrack
p1243
sg31
VO
p1244
sg33
VNN
p1245
sg35
I5
ssg10
I121
sg36
g4
sg37
(dp1246
sg39
(dp1247
sg41
I615
sg42
g21
sg43
g21
sg44
I121
sg45
Vcrack
p1248
sg47
I121
sg48
I620
sbag0
(g23
g2
Ntp1249
Rp1250
(dp1251
g27
(dp1252
g29
Vof
p1253
sg31
VO
p1254
sg33
VIN
p1255
sg35
I6
ssg10
I122
sg36
g4
sg37
(dp1256
sg39
(dp1257
sg41
I621
sg42
g21
sg43
g21
sg44
I122
sg45
Vof
p1258
sg47
I122
sg48
I623
sbag0
(g23
g2
Ntp1259
Rp1260
(dp1261
g27
(dp1262
g29
Vdoom
p1263
sg31
VO
p1264
sg33
VNN
p1265
sg35
I7
ssg10
I123
sg36
g4
sg37
(dp1266
sg39
(dp1267
sg41
I624
sg42
g21
sg43
g21
sg44
I123
sg45
VDoom
p1268
sg47
I123
sg48
I628
sbag0
(g23
g2
Ntp1269
Rp1270
(dp1271
g27
(dp1272
g29
V!
p1273
sg31
VO
p1274
sg33
V.
p1275
sg35
I8
ssg10
I124
sg36
g4
sg37
(dp1276
sg39
(dp1277
sg41
I628
sg42
g21
sg43
g21
sg44
I124
sg45
V!
p1278
sg47
I124
sg48
I629
sbag0
(g23
g2
Ntp1279
Rp1280
(dp1281
g27
(dp1282
g29
Vthe
p1283
sg31
VO
p1284
sg33
VDT
p1285
sg35
I1
ssg10
I125
sg36
g4
sg37
(dp1286
sg39
(dp1287
sg41
I630
sg42
g21
sg43
g21
sg44
I125
sg45
VThe
p1288
sg47
I125
sg48
I633
sbag0
(g23
g2
Ntp1289
Rp1290
(dp1291
g27
(dp1292
g29
Vecho
p1293
sg31
VO
p1294
sg33
VNNS
p1295
sg35
I2
ssg10
I126
sg36
g4
sg37
(dp1296
sg39
(dp1297
sg41
I634
sg42
g21
sg43
g21
sg44
I126
sg45
Vechoes
p1298
sg47
I126
sg48
I640
sbag0
(g23
g2
Ntp1299
Rp1300
(dp1301
g27
(dp1302
g29
Vof
p1303
sg31
VO
p1304
sg33
VIN
p1305
sg35
I3
ssg10
I127
sg36
g4
sg37
(dp1306
sg39
(dp1307
sg41
I641
sg42
g21
sg43
g21
sg44
I127
sg45
Vof
p1308
sg47
I127
sg48
I643
sbag0
(g23
g2
Ntp1309
Rp1310
(dp1311
g27
(dp1312
g29
Vthis
p1313
sg31
VO
p1314
sg33
VDT
p1315
sg35
I4
ssg10
I128
sg36
g4
sg37
(dp1316
sg39
(dp1317
sg41
I644
sg42
g21
sg43
g21
sg44
I128
sg45
Vthis
p1318
sg47
I128
sg48
I648
sbag0
(g23
g2
Ntp1319
Rp1320
(dp1321
g27
(dp1322
g29
VHolocaust
p1323
sg31
VO
p1324
sg33
VNNP
p1325
sg35
I5
ssg10
I129
sg36
g4
sg37
(dp1326
sg39
(dp1327
sg41
I649
sg42
g21
sg43
g21
sg44
I129
sg45
VHolocaust
p1328
sg47
I129
sg48
I658
sbag0
(g23
g2
Ntp1329
Rp1330
(dp1331
g27
(dp1332
g29
Vrumble
p1333
sg31
VO
p1334
sg33
VVBD
p1335
sg35
I6
ssg10
I130
sg36
g4
sg37
(dp1336
sg39
(dp1337
sg41
I659
sg42
g21
sg43
g21
sg44
I130
sg45
Vrumbled
p1338
sg47
I130
sg48
I666
sbag0
(g23
g2
Ntp1339
Rp1340
(dp1341
g27
(dp1342
g29
Vand
p1343
sg31
VO
p1344
sg33
VCC
p1345
sg35
I7
ssg10
I131
sg36
g4
sg37
(dp1346
sg39
(dp1347
sg41
I667
sg42
g21
sg43
g21
sg44
I131
sg45
Vand
p1348
sg47
I131
sg48
I670
sbag0
(g23
g2
Ntp1349
Rp1350
(dp1351
g27
(dp1352
g29
Vroll
p1353
sg31
VO
p1354
sg33
VVBD
p1355
sg35
I8
ssg10
I132
sg36
g4
sg37
(dp1356
sg39
(dp1357
sg41
I671
sg42
g21
sg43
g21
sg44
I132
sg45
Vrolled
p1358
sg47
I132
sg48
I677
sbag0
(g23
g2
Ntp1359
Rp1360
(dp1361
g27
(dp1362
g29
V.
p1363
sg31
VO
p1364
sg33
V.
p1365
sg35
I9
ssg10
I133
sg36
g4
sg37
(dp1366
sg39
(dp1367
sg41
I678
sg42
g21
sg43
g21
sg44
I133
sg45
V.
p1368
sg47
I133
sg48
I679
sbag0
(g23
g2
Ntp1369
Rp1370
(dp1371
g27
(dp1372
g29
V.
p1373
sg31
VO
p1374
sg33
V.
p1375
sg35
I1
ssg10
I134
sg36
g4
sg37
(dp1376
sg39
(dp1377
sg41
I678
sg42
g21
sg43
g21
sg44
I134
sg45
V.
p1378
sg47
I134
sg48
I679
sbag0
(g23
g2
Ntp1379
Rp1380
(dp1381
g27
(dp1382
g29
Va
p1383
sg31
VO
p1384
sg33
VDT
p1385
sg35
I1
ssg10
I135
sg36
g4
sg37
(dp1386
sg39
(dp1387
sg41
I681
sg42
g21
sg43
g21
sg44
I135
sg45
Va
p1388
sg47
I135
sg48
I682
sbag0
(g23
g2
Ntp1389
Rp1390
(dp1391
g27
(dp1392
g29
Vdistinct
p1393
sg31
VO
p1394
sg33
VJJ
p1395
sg35
I2
ssg10
I136
sg36
g4
sg37
(dp1396
sg39
(dp1397
sg41
I683
sg42
g21
sg43
g21
sg44
I136
sg45
Vdistinct
p1398
sg47
I136
sg48
I691
sbag0
(g23
g2
Ntp1399
Rp1400
(dp1401
g27
(dp1402
g29
Vsmell
p1403
sg31
VO
p1404
sg33
VNN
p1405
sg35
I3
ssg10
I137
sg36
g4
sg37
(dp1406
sg39
(dp1407
sg41
I692
sg42
g21
sg43
g21
sg44
I137
sg45
Vsmell
p1408
sg47
I137
sg48
I697
sbag0
(g23
g2
Ntp1409
Rp1410
(dp1411
g27
(dp1412
g29
Vof
p1413
sg31
VO
p1414
sg33
VIN
p1415
sg35
I4
ssg10
I138
sg36
g4
sg37
(dp1416
sg39
(dp1417
sg41
I698
sg42
g21
sg43
g21
sg44
I138
sg45
Vof
p1418
sg47
I138
sg48
I700
sbag0
(g23
g2
Ntp1419
Rp1420
(dp1421
g27
(dp1422
g29
Vsulphur
p1423
sg31
VO
p1424
sg33
VNN
p1425
sg35
I5
ssg10
I139
sg36
g4
sg37
(dp1426
sg39
(dp1427
sg41
I701
sg42
g21
sg43
g21
sg44
I139
sg45
Vsulphur
p1428
sg47
I139
sg48
I708
sbag0
(g23
g2
Ntp1429
Rp1430
(dp1431
g27
(dp1432
g29
V.
p1433
sg31
VO
p1434
sg33
V.
p1435
sg35
I6
ssg10
I140
sg36
g4
sg37
(dp1436
sg39
(dp1437
sg41
I709
sg42
g21
sg43
g21
sg44
I140
sg45
V.
p1438
sg47
I140
sg48
I710
sbag0
(g23
g2
Ntp1439
Rp1440
(dp1441
g27
(dp1442
g29
V.
p1443
sg31
VO
p1444
sg33
V.
p1445
sg35
I1
ssg10
I141
sg36
g4
sg37
(dp1446
sg39
(dp1447
sg41
I709
sg42
g21
sg43
g21
sg44
I141
sg45
V.
p1448
sg47
I141
sg48
I710
sbag0
(g23
g2
Ntp1449
Rp1450
(dp1451
g27
(dp1452
g29
Vatomic
p1453
sg31
VO
p1454
sg33
VJJ
p1455
sg35
I1
ssg10
I142
sg36
g4
sg37
(dp1456
sg39
(dp1457
sg41
I712
sg42
g21
sg43
g21
sg44
I142
sg45
Vatomic
p1458
sg47
I142
sg48
I718
sbag0
(g23
g2
Ntp1459
Rp1460
(dp1461
g27
(dp1462
g29
Vdestruction
p1463
sg31
VO
p1464
sg33
VNN
p1465
sg35
I2
ssg10
I143
sg36
g4
sg37
(dp1466
sg39
(dp1467
sg41
I719
sg42
g21
sg43
g21
sg44
I143
sg45
Vdestruction
p1468
sg47
I143
sg48
I730
sbag0
(g23
g2
Ntp1469
Rp1470
(dp1471
g27
(dp1472
g29
V.
p1473
sg31
VO
p1474
sg33
V.
p1475
sg35
I3
ssg10
I144
sg36
g4
sg37
(dp1476
sg39
(dp1477
sg41
I730
sg42
g21
sg43
g21
sg44
I144
sg45
V.
p1478
sg47
I144
sg48
I731
sbag0
(g23
g2
Ntp1479
Rp1480
(dp1481
g27
(dp1482
g29
V''
p1483
sg31
VO
p1484
sg33
V''
p1485
sg35
I4
ssg10
I145
sg36
g4
sg37
(dp1486
sg39
(dp1487
sg41
I731
sg42
g21
sg43
g21
sg44
I145
sg45
g508
sg47
I145
sg48
I732
sbag0
(g23
g2
Ntp1488
Rp1489
(dp1490
g27
(dp1491
g29
V-lsb-
p1492
sg31
VO
p1493
sg33
V-LRB-
p1494
sg35
I1
ssg10
I146
sg36
g4
sg37
(dp1495
sg39
(dp1496
sg41
I732
sg42
g21
sg43
g21
sg44
I146
sg45
V[
p1497
sg47
I146
sg48
I733
sbag0
(g23
g2
Ntp1498
Rp1499
(dp1500
g27
(dp1501
g29
Vref
p1502
sg31
VO
p1503
sg33
VNN
p1504
sg35
I2
ssg10
I147
sg36
g4
sg37
(dp1505
sg39
(dp1506
sg41
I733
sg42
g21
sg43
g21
sg44
I147
sg45
VREF
p1507
sg47
I147
sg48
I736
sbag0
(g23
g2
Ntp1508
Rp1509
(dp1510
g27
(dp1511
g29
V-rsb-
p1512
sg31
VO
p1513
sg33
V-RRB-
p1514
sg35
I3
ssg10
I148
sg36
g4
sg37
(dp1515
sg39
(dp1516
sg41
I736
sg42
g21
sg43
g21
sg44
I148
sg45
V]
p1517
sg47
I148
sg48
I737
sbag0
(g23
g2
Ntp1518
Rp1519
(dp1520
g27
(dp1521
g29
Vin
p1522
sg31
VO
p1523
sg33
VIN
p1524
sg35
I4
ssg10
I149
sg36
g4
sg37
(dp1525
sg39
(dp1526
sg41
I738
sg42
g21
sg43
g21
sg44
I149
sg45
VIn
p1527
sg47
I149
sg48
I740
sbag0
(g23
g2
Ntp1528
Rp1529
(dp1530
g27
(dp1531
g29
Vthe
p1532
sg31
VDATE
p1533
sg33
VDT
p1534
sg35
I5
ssg10
I150
sg36
g4
sg37
(dp1535
sg39
(dp1536
sg41
I741
sg42
g21
sg43
g21
sg44
I150
sg45
Vthe
p1537
sg47
I150
sg48
I744
sbag0
(g23
g2
Ntp1538
Rp1539
(dp1540
g27
(dp1541
g29
V1960s
p1542
sg31
VDATE
p1543
sg33
VCD
p1544
sg35
I6
ssg10
I151
sg36
g4
sg37
(dp1545
sg39
(dp1546
sg41
I745
sg42
g21
sg43
g21
sg44
I151
sg45
V1960s
p1547
sg47
I151
sg48
I750
sbag0
(g23
g2
Ntp1548
Rp1549
(dp1550
g27
(dp1551
g29
Vthe
p1552
sg31
VO
p1553
sg33
VDT
p1554
sg35
I7
ssg10
I152
sg36
g4
sg37
(dp1555
sg39
(dp1556
sg41
I751
sg42
g21
sg43
g21
sg44
I152
sg45
Vthe
p1557
sg47
I152
sg48
I754
sbag0
(g23
g2
Ntp1558
Rp1559
(dp1560
g27
(dp1561
g29
Vprincipal
p1562
sg31
VO
p1563
sg33
VNN
p1564
sg35
I8
ssg10
I153
sg36
g4
sg37
(dp1565
sg39
(dp1566
sg41
I755
sg42
g21
sg43
g21
sg44
I153
sg45
Vprincipal
p1567
sg47
I153
sg48
I764
sbag0
(g23
g2
Ntp1568
Rp1569
(dp1570
g27
(dp1571
g29
Vreferent
p1572
sg31
VO
p1573
sg33
VNN
p1574
sg35
I9
ssg10
I154
sg36
g4
sg37
(dp1575
sg39
(dp1576
sg41
I765
sg42
g21
sg43
g21
sg44
I154
sg45
Vreferent
p1577
sg47
I154
sg48
I773
sbag0
(g23
g2
Ntp1578
Rp1579
(dp1580
g27
(dp1581
g29
Vof
p1582
sg31
VO
p1583
sg33
VIN
p1584
sg35
I10
ssg10
I155
sg36
g4
sg37
(dp1585
sg39
(dp1586
sg41
I774
sg42
g21
sg43
g21
sg44
I155
sg45
Vof
p1587
sg47
I155
sg48
I776
sbag0
(g23
g2
Ntp1588
Rp1589
(dp1590
g27
(dp1591
g29
Vthe
p1592
sg31
VO
p1593
sg33
VDT
p1594
sg35
I11
ssg10
I156
sg36
g4
sg37
(dp1595
sg39
(dp1596
sg41
I777
sg42
g21
sg43
g21
sg44
I156
sg45
Vthe
p1597
sg47
I156
sg48
I780
sbag0
(g23
g2
Ntp1598
Rp1599
(dp1600
g27
(dp1601
g29
Vunmodified
p1602
sg31
VO
p1603
sg33
VJJ
p1604
sg35
I12
ssg10
I157
sg36
g4
sg37
(dp1605
sg39
(dp1606
sg41
I781
sg42
g21
sg43
g21
sg44
I157
sg45
Vunmodified
p1607
sg47
I157
sg48
I791
sbag0
(g23
g2
Ntp1608
Rp1609
(dp1610
g27
(dp1611
g29
V``
p1612
sg31
VO
p1613
sg33
V``
p1614
sg35
I13
ssg10
I158
sg36
g4
sg37
(dp1615
sg39
(dp1616
sg41
I792
sg42
g21
sg43
g21
sg44
I158
sg45
g508
sg47
I158
sg48
I793
sbag0
(g23
g2
Ntp1617
Rp1618
(dp1619
g27
(dp1620
g29
Vholocaust
p1621
sg31
VO
p1622
sg33
VNN
p1623
sg35
I14
ssg10
I159
sg36
g4
sg37
(dp1624
sg39
(dp1625
sg41
I793
sg42
g21
sg43
g21
sg44
I159
sg45
Vholocaust
p1626
sg47
I159
sg48
I802
sbag0
(g23
g2
Ntp1627
Rp1628
(dp1629
g27
(dp1630
g29
V''
p1631
sg31
VO
p1632
sg33
V''
p1633
sg35
I15
ssg10
I160
sg36
g4
sg37
(dp1634
sg39
(dp1635
sg41
I802
sg42
g21
sg43
g21
sg44
I160
sg45
g508
sg47
I160
sg48
I803
sbag0
(g23
g2
Ntp1636
Rp1637
(dp1638
g27
(dp1639
g29
Vbe
p1640
sg31
VO
p1641
sg33
VVBD
p1642
sg35
I16
ssg10
I161
sg36
g4
sg37
(dp1643
sg39
(dp1644
sg41
I804
sg42
g21
sg43
g21
sg44
I161
sg45
Vwas
p1645
sg47
I161
sg48
I807
sbag0
(g23
g2
Ntp1646
Rp1647
(dp1648
g27
(dp1649
g29
Vnuclear
p1650
sg31
VO
p1651
sg33
VJJ
p1652
sg35
I17
ssg10
I162
sg36
g4
sg37
(dp1653
sg39
(dp1654
sg41
I808
sg42
g21
sg43
g21
sg44
I162
sg45
Vnuclear
p1655
sg47
I162
sg48
I815
sbag0
(g23
g2
Ntp1656
Rp1657
(dp1658
g27
(dp1659
g29
Vdestruction
p1660
sg31
VO
p1661
sg33
VNN
p1662
sg35
I18
ssg10
I163
sg36
g4
sg37
(dp1663
sg39
(dp1664
sg41
I816
sg42
g21
sg43
g21
sg44
I163
sg45
Vdestruction
p1665
sg47
I163
sg48
I827
sbag0
(g23
g2
Ntp1666
Rp1667
(dp1668
g27
(dp1669
g29
V-lsb-
p1670
sg31
VO
p1671
sg33
V-LRB-
p1672
sg35
I19
ssg10
I164
sg36
g4
sg37
(dp1673
sg39
(dp1674
sg41
I828
sg42
g21
sg43
g21
sg44
I164
sg45
V[
p1675
sg47
I164
sg48
I829
sbag0
(g23
g2
Ntp1676
Rp1677
(dp1678
g27
(dp1679
g29
Vref
p1680
sg31
VO
p1681
sg33
VNN
p1682
sg35
I20
ssg10
I165
sg36
g4
sg37
(dp1683
sg39
(dp1684
sg41
I829
sg42
g21
sg43
g21
sg44
I165
sg45
VREF
p1685
sg47
I165
sg48
I832
sbag0
(g23
g2
Ntp1686
Rp1687
(dp1688
g27
(dp1689
g29
V-rsb-
p1690
sg31
VO
p1691
sg33
V-RRB-
p1692
sg35
I21
ssg10
I166
sg36
g4
sg37
(dp1693
sg39
(dp1694
sg41
I832
sg42
g21
sg43
g21
sg44
I166
sg45
V]
p1695
sg47
I166
sg48
I833
sbag0
(g23
g2
Ntp1696
Rp1697
(dp1698
g27
(dp1699
g29
V.
p1700
sg31
VO
p1701
sg33
V.
p1702
sg35
I22
ssg10
I167
sg36
g4
sg37
(dp1703
sg39
(dp1704
sg41
I833
sg42
g21
sg43
g21
sg44
I167
sg45
V.
p1705
sg47
I167
sg48
I834
sbag0
(g23
g2
Ntp1706
Rp1707
(dp1708
g27
(dp1709
g29
Vsince
p1710
sg31
VO
p1711
sg33
VIN
p1712
sg35
I1
ssg10
I168
sg36
g4
sg37
(dp1713
sg39
(dp1714
sg41
I835
sg42
g21
sg43
g21
sg44
I168
sg45
VSince
p1715
sg47
I168
sg48
I840
sbag0
(g23
g2
Ntp1716
Rp1717
(dp1718
g27
(dp1719
g29
Vthe
p1720
sg31
VDATE
p1721
sg33
VDT
p1722
sg35
I2
ssg10
I169
sg36
g4
sg37
(dp1723
sg39
(dp1724
sg41
I841
sg42
g21
sg43
g21
sg44
I169
sg45
Vthe
p1725
sg47
I169
sg48
I844
sbag0
(g23
g2
Ntp1726
Rp1727
(dp1728
g27
(dp1729
g29
Vmid
p1730
sg31
VDATE
p1731
sg33
VJJ
p1732
sg35
I3
ssg10
I170
sg36
g4
sg37
(dp1733
sg39
(dp1734
sg41
I845
sg42
g21
sg43
g21
sg44
I170
sg45
Vmid
p1735
sg47
I170
sg48
I848
sbag0
(g23
g2
Ntp1736
Rp1737
(dp1738
g27
(dp1739
g29
V1970s
p1740
sg31
VDATE
p1741
sg33
VCD
p1742
sg35
I4
ssg10
I171
sg36
g4
sg37
(dp1743
sg39
(dp1744
sg41
I849
sg42
g21
sg43
g21
sg44
I171
sg45
V1970s
p1745
sg47
I171
sg48
I854
sbag0
(g23
g2
Ntp1746
Rp1747
(dp1748
g27
(dp1749
g29
Vthe
p1750
sg31
VO
p1751
sg33
VDT
p1752
sg35
I5
ssg10
I172
sg36
g4
sg37
(dp1753
sg39
(dp1754
sg41
I855
sg42
g21
sg43
g21
sg44
I172
sg45
Vthe
p1755
sg47
I172
sg48
I858
sbag0
(g23
g2
Ntp1756
Rp1757
(dp1758
g27
(dp1759
g29
Vcapitalized
p1760
sg31
VO
p1761
sg33
VJJ
p1762
sg35
I6
ssg10
I173
sg36
g4
sg37
(dp1763
sg39
(dp1764
sg41
I859
sg42
g21
sg43
g21
sg44
I173
sg45
Vcapitalized
p1765
sg47
I173
sg48
I870
sbag0
(g23
g2
Ntp1766
Rp1767
(dp1768
g27
(dp1769
g29
Vterm
p1770
sg31
VO
p1771
sg33
VNN
p1772
sg35
I7
ssg10
I174
sg36
g4
sg37
(dp1773
sg39
(dp1774
sg41
I871
sg42
g21
sg43
g21
sg44
I174
sg45
Vterm
p1775
sg47
I174
sg48
I875
sbag0
(g23
g2
Ntp1776
Rp1777
(dp1778
g27
(dp1779
g29
V``
p1780
sg31
VO
p1781
sg33
V``
p1782
sg35
I8
ssg10
I175
sg36
g4
sg37
(dp1783
sg39
(dp1784
sg41
I876
sg42
g21
sg43
g21
sg44
I175
sg45
g508
sg47
I175
sg48
I877
sbag0
(g23
g2
Ntp1785
Rp1786
(dp1787
g27
(dp1788
g29
VHolocaust
p1789
sg31
VO
p1790
sg33
VNNP
p1791
sg35
I9
ssg10
I176
sg36
g4
sg37
(dp1792
sg39
(dp1793
sg41
I877
sg42
g21
sg43
g21
sg44
I176
sg45
VHolocaust
p1794
sg47
I176
sg48
I886
sbag0
(g23
g2
Ntp1795
Rp1796
(dp1797
g27
(dp1798
g29
V''
p1799
sg31
VO
p1800
sg33
V''
p1801
sg35
I10
ssg10
I177
sg36
g4
sg37
(dp1802
sg39
(dp1803
sg41
I886
sg42
g21
sg43
g21
sg44
I177
sg45
g508
sg47
I177
sg48
I887
sbag0
(g23
g2
Ntp1804
Rp1805
(dp1806
g27
(dp1807
g29
Vhave
p1808
sg31
VO
p1809
sg33
VVBZ
p1810
sg35
I11
ssg10
I178
sg36
g4
sg37
(dp1811
sg39
(dp1812
sg41
I888
sg42
g21
sg43
g21
sg44
I178
sg45
Vhas
p1813
sg47
I178
sg48
I891
sbag0
(g23
g2
Ntp1814
Rp1815
(dp1816
g27
(dp1817
g29
Vbe
p1818
sg31
VO
p1819
sg33
VVBN
p1820
sg35
I12
ssg10
I179
sg36
g4
sg37
(dp1821
sg39
(dp1822
sg41
I892
sg42
g21
sg43
g21
sg44
I179
sg45
Vbeen
p1823
sg47
I179
sg48
I896
sbag0
(g23
g2
Ntp1824
Rp1825
(dp1826
g27
(dp1827
g29
Vclosely
p1828
sg31
VO
p1829
sg33
VRB
p1830
sg35
I13
ssg10
I180
sg36
g4
sg37
(dp1831
sg39
(dp1832
sg41
I897
sg42
g21
sg43
g21
sg44
I180
sg45
Vclosely
p1833
sg47
I180
sg48
I904
sbag0
(g23
g2
Ntp1834
Rp1835
(dp1836
g27
(dp1837
g29
Vassociate
p1838
sg31
VO
p1839
sg33
VVBN
p1840
sg35
I14
ssg10
I181
sg36
g4
sg37
(dp1841
sg39
(dp1842
sg41
I905
sg42
g21
sg43
g21
sg44
I181
sg45
Vassociated
p1843
sg47
I181
sg48
I915
sbag0
(g23
g2
Ntp1844
Rp1845
(dp1846
g27
(dp1847
g29
Vwith
p1848
sg31
VO
p1849
sg33
VIN
p1850
sg35
I15
ssg10
I182
sg36
g4
sg37
(dp1851
sg39
(dp1852
sg41
I916
sg42
g21
sg43
g21
sg44
I182
sg45
Vwith
p1853
sg47
I182
sg48
I920
sbag0
(g23
g2
Ntp1854
Rp1855
(dp1856
g27
(dp1857
g29
Vthe
p1858
sg31
VO
p1859
sg33
VDT
p1860
sg35
I16
ssg10
I183
sg36
g4
sg37
(dp1861
sg39
(dp1862
sg41
I921
sg42
g21
sg43
g21
sg44
I183
sg45
Vthe
p1863
sg47
I183
sg48
I924
sbag0
(g23
g2
Ntp1864
Rp1865
(dp1866
g27
(dp1867
g29
Vnazi
p1868
sg31
VMISC
p1869
sg33
VJJ
p1870
sg35
I17
ssg10
I184
sg36
g4
sg37
(dp1871
sg39
(dp1872
sg41
I925
sg42
g21
sg43
g21
sg44
I184
sg45
VNazi
p1873
sg47
I184
sg48
I929
sbag0
(g23
g2
Ntp1874
Rp1875
(dp1876
g27
(dp1877
g29
Vmass
p1878
sg31
VO
p1879
sg33
VNN
p1880
sg35
I18
ssg10
I185
sg36
g4
sg37
(dp1881
sg39
(dp1882
sg41
I930
sg42
g21
sg43
g21
sg44
I185
sg45
Vmass
p1883
sg47
I185
sg48
I934
sbag0
(g23
g2
Ntp1884
Rp1885
(dp1886
g27
(dp1887
g29
Vslaughter
p1888
sg31
VO
p1889
sg33
VNN
p1890
sg35
I19
ssg10
I186
sg36
g4
sg37
(dp1891
sg39
(dp1892
sg41
I935
sg42
g21
sg43
g21
sg44
I186
sg45
Vslaughter
p1893
sg47
I186
sg48
I944
sbag0
(g23
g2
Ntp1894
Rp1895
(dp1896
g27
(dp1897
g29
Vof
p1898
sg31
VO
p1899
sg33
VIN
p1900
sg35
I20
ssg10
I187
sg36
g4
sg37
(dp1901
sg39
(dp1902
sg41
I945
sg42
g21
sg43
g21
sg44
I187
sg45
Vof
p1903
sg47
I187
sg48
I947
sbag0
(g23
g2
Ntp1904
Rp1905
(dp1906
g27
(dp1907
g29
VJews
p1908
sg31
VMISC
p1909
sg33
VNNPS
p1910
sg35
I21
ssg10
I188
sg36
g4
sg37
(dp1911
sg39
(dp1912
sg41
I948
sg42
g21
sg43
g21
sg44
I188
sg45
VJews
p1913
sg47
I188
sg48
I952
sbag0
(g23
g2
Ntp1914
Rp1915
(dp1916
g27
(dp1917
g29
V-lrb-
p1918
sg31
VO
p1919
sg33
V-LRB-
p1920
sg35
I22
ssg10
I189
sg36
g4
sg37
(dp1921
sg39
(dp1922
sg41
I953
sg42
g21
sg43
g21
sg44
I189
sg45
V(
p1923
sg47
I189
sg48
I954
sbag0
(g23
g2
Ntp1924
Rp1925
(dp1926
g27
(dp1927
g29
Vsee
p1928
sg31
VO
p1929
sg33
VVB
p1930
sg35
I23
ssg10
I190
sg36
g4
sg37
(dp1931
sg39
(dp1932
sg41
I954
sg42
g21
sg43
g21
sg44
I190
sg45
Vsee
p1933
sg47
I190
sg48
I957
sbag0
(g23
g2
Ntp1934
Rp1935
(dp1936
g27
(dp1937
g29
Vthe
p1938
sg31
VO
p1939
sg33
VDT
p1940
sg35
I24
ssg10
I191
sg36
g4
sg37
(dp1941
sg39
(dp1942
sg41
I958
sg42
g21
sg43
g21
sg44
I191
sg45
VThe
p1943
sg47
I191
sg48
I961
sbag0
(g23
g2
Ntp1944
Rp1945
(dp1946
g27
(dp1947
g29
VHolocaust
p1948
sg31
VO
p1949
sg33
VNNP
p1950
sg35
I25
ssg10
I192
sg36
g4
sg37
(dp1951
sg39
(dp1952
sg41
I962
sg42
g21
sg43
g21
sg44
I192
sg45
VHolocaust
p1953
sg47
I192
sg48
I971
sbag0
(g23
g2
Ntp1954
Rp1955
(dp1956
g27
(dp1957
g29
V-rrb-
p1958
sg31
VO
p1959
sg33
V-RRB-
p1960
sg35
I26
ssg10
I193
sg36
g4
sg37
(dp1961
sg39
(dp1962
sg41
I971
sg42
g21
sg43
g21
sg44
I193
sg45
V)
p1963
sg47
I193
sg48
I972
sbag0
(g23
g2
Ntp1964
Rp1965
(dp1966
g27
(dp1967
g29
Vand
p1968
sg31
VO
p1969
sg33
VCC
p1970
sg35
I27
ssg10
I194
sg36
g4
sg37
(dp1971
sg39
(dp1972
sg41
I973
sg42
g21
sg43
g21
sg44
I194
sg45
Vand
p1973
sg47
I194
sg48
I976
sbag0
(g23
g2
Ntp1974
Rp1975
(dp1976
g27
(dp1977
g29
V``
p1978
sg31
VO
p1979
sg33
V``
p1980
sg35
I28
ssg10
I195
sg36
g4
sg37
(dp1981
sg39
(dp1982
sg41
I977
sg42
g21
sg43
g21
sg44
I195
sg45
g508
sg47
I195
sg48
I978
sbag0
(g23
g2
Ntp1983
Rp1984
(dp1985
g27
(dp1986
g29
Vholocaust
p1987
sg31
VO
p1988
sg33
VNN
p1989
sg35
I29
ssg10
I196
sg36
g4
sg37
(dp1990
sg39
(dp1991
sg41
I978
sg42
g21
sg43
g21
sg44
I196
sg45
Vholocaust
p1992
sg47
I196
sg48
I987
sbag0
(g23
g2
Ntp1993
Rp1994
(dp1995
g27
(dp1996
g29
V''
p1997
sg31
VO
p1998
sg33
V''
p1999
sg35
I30
ssg10
I197
sg36
g4
sg37
(dp2000
sg39
(dp2001
sg41
I987
sg42
g21
sg43
g21
sg44
I197
sg45
g508
sg47
I197
sg48
I988
sbag0
(g23
g2
Ntp2002
Rp2003
(dp2004
g27
(dp2005
g29
Vin
p2006
sg31
VO
p2007
sg33
VIN
p2008
sg35
I31
ssg10
I198
sg36
g4
sg37
(dp2009
sg39
(dp2010
sg41
I989
sg42
g21
sg43
g21
sg44
I198
sg45
Vin
p2011
sg47
I198
sg48
I991
sbag0
(g23
g2
Ntp2012
Rp2013
(dp2014
g27
(dp2015
g29
Vits
p2016
sg31
VO
p2017
sg33
VPRP$
p2018
sg35
I32
ssg10
I199
sg36
g4
sg37
(dp2019
sg39
(dp2020
sg41
I992
sg42
g21
sg43
g21
sg44
I199
sg45
Vits
p2021
sg47
I199
sg48
I995
sbag0
(g23
g2
Ntp2022
Rp2023
(dp2024
g27
(dp2025
g29
Vnuclear
p2026
sg31
VO
p2027
sg33
VJJ
p2028
sg35
I33
ssg10
I200
sg36
g4
sg37
(dp2029
sg39
(dp2030
sg41
I996
sg42
g21
sg43
g21
sg44
I200
sg45
Vnuclear
p2031
sg47
I200
sg48
I1003
sbag0
(g23
g2
Ntp2032
Rp2033
(dp2034
g27
(dp2035
g29
Vdestruction
p2036
sg31
VO
p2037
sg33
VNN
p2038
sg35
I34
ssg10
I201
sg36
g4
sg37
(dp2039
sg39
(dp2040
sg41
I1004
sg42
g21
sg43
g21
sg44
I201
sg45
Vdestruction
p2041
sg47
I201
sg48
I1015
sbag0
(g23
g2
Ntp2042
Rp2043
(dp2044
g27
(dp2045
g29
Vsense
p2046
sg31
VO
p2047
sg33
VNN
p2048
sg35
I35
ssg10
I202
sg36
g4
sg37
(dp2049
sg39
(dp2050
sg41
I1016
sg42
g21
sg43
g21
sg44
I202
sg45
Vsense
p2051
sg47
I202
sg48
I1021
sbag0
(g23
g2
Ntp2052
Rp2053
(dp2054
g27
(dp2055
g29
Vbe
p2056
sg31
VO
p2057
sg33
VVBZ
p2058
sg35
I36
ssg10
I203
sg36
g4
sg37
(dp2059
sg39
(dp2060
sg41
I1022
sg42
g21
sg43
g21
sg44
I203
sg45
Vis
p2061
sg47
I203
sg48
I1024
sbag0
(g23
g2
Ntp2062
Rp2063
(dp2064
g27
(dp2065
g29
Valmost
p2066
sg31
VO
p2067
sg33
VRB
p2068
sg35
I37
ssg10
I204
sg36
g4
sg37
(dp2069
sg39
(dp2070
sg41
I1025
sg42
g21
sg43
g21
sg44
I204
sg45
Valmost
p2071
sg47
I204
sg48
I1031
sbag0
(g23
g2
Ntp2072
Rp2073
(dp2074
g27
(dp2075
g29
Valways
p2076
sg31
VO
p2077
sg33
VRB
p2078
sg35
I38
ssg10
I205
sg36
g4
sg37
(dp2079
sg39
(dp2080
sg41
I1032
sg42
g21
sg43
g21
sg44
I205
sg45
Valways
p2081
sg47
I205
sg48
I1038
sbag0
(g23
g2
Ntp2082
Rp2083
(dp2084
g27
(dp2085
g29
Vprecede
p2086
sg31
VO
p2087
sg33
VVBN
p2088
sg35
I39
ssg10
I206
sg36
g4
sg37
(dp2089
sg39
(dp2090
sg41
I1039
sg42
g21
sg43
g21
sg44
I206
sg45
Vpreceded
p2091
sg47
I206
sg48
I1047
sbag0
(g23
g2
Ntp2092
Rp2093
(dp2094
g27
(dp2095
g29
Vby
p2096
sg31
VO
p2097
sg33
VIN
p2098
sg35
I40
ssg10
I207
sg36
g4
sg37
(dp2099
sg39
(dp2100
sg41
I1048
sg42
g21
sg43
g21
sg44
I207
sg45
Vby
p2101
sg47
I207
sg48
I1050
sbag0
(g23
g2
Ntp2102
Rp2103
(dp2104
g27
(dp2105
g29
V``
p2106
sg31
VO
p2107
sg33
V``
p2108
sg35
I41
ssg10
I208
sg36
g4
sg37
(dp2109
sg39
(dp2110
sg41
I1051
sg42
g21
sg43
g21
sg44
I208
sg45
g508
sg47
I208
sg48
I1052
sbag0
(g23
g2
Ntp2111
Rp2112
(dp2113
g27
(dp2114
g29
Vatomic
p2115
sg31
VO
p2116
sg33
VJJ
p2117
sg35
I42
ssg10
I209
sg36
g4
sg37
(dp2118
sg39
(dp2119
sg41
I1052
sg42
g21
sg43
g21
sg44
I209
sg45
Vatomic
p2120
sg47
I209
sg48
I1058
sbag0
(g23
g2
Ntp2121
Rp2122
(dp2123
g27
(dp2124
g29
V''
p2125
sg31
VO
p2126
sg33
V''
p2127
sg35
I43
ssg10
I210
sg36
g4
sg37
(dp2128
sg39
(dp2129
sg41
I1058
sg42
g21
sg43
g21
sg44
I210
sg45
g508
sg47
I210
sg48
I1059
sbag0
(g23
g2
Ntp2130
Rp2131
(dp2132
g27
(dp2133
g29
Vor
p2134
sg31
VO
p2135
sg33
VCC
p2136
sg35
I44
ssg10
I211
sg36
g4
sg37
(dp2137
sg39
(dp2138
sg41
I1060
sg42
g21
sg43
g21
sg44
I211
sg45
Vor
p2139
sg47
I211
sg48
I1062
sbag0
(g23
g2
Ntp2140
Rp2141
(dp2142
g27
(dp2143
g29
V``
p2144
sg31
VO
p2145
sg33
V``
p2146
sg35
I45
ssg10
I212
sg36
g4
sg37
(dp2147
sg39
(dp2148
sg41
I1063
sg42
g21
sg43
g21
sg44
I212
sg45
g508
sg47
I212
sg48
I1064
sbag0
(g23
g2
Ntp2149
Rp2150
(dp2151
g27
(dp2152
g29
Vnuclear
p2153
sg31
VO
p2154
sg33
VJJ
p2155
sg35
I46
ssg10
I213
sg36
g4
sg37
(dp2156
sg39
(dp2157
sg41
I1064
sg42
g21
sg43
g21
sg44
I213
sg45
Vnuclear
p2158
sg47
I213
sg48
I1071
sbag0
(g23
g2
Ntp2159
Rp2160
(dp2161
g27
(dp2162
g29
V''
p2163
sg31
VO
p2164
sg33
V''
p2165
sg35
I47
ssg10
I214
sg36
g4
sg37
(dp2166
sg39
(dp2167
sg41
I1071
sg42
g21
sg43
g21
sg44
I214
sg45
g508
sg47
I214
sg48
I1072
sbag0
(g23
g2
Ntp2168
Rp2169
(dp2170
g27
(dp2171
g29
V-lsb-
p2172
sg31
VO
p2173
sg33
V-LRB-
p2174
sg35
I48
ssg10
I215
sg36
g4
sg37
(dp2175
sg39
(dp2176
sg41
I1073
sg42
g21
sg43
g21
sg44
I215
sg45
V[
p2177
sg47
I215
sg48
I1074
sbag0
(g23
g2
Ntp2178
Rp2179
(dp2180
g27
(dp2181
g29
Vref
p2182
sg31
VO
p2183
sg33
VNN
p2184
sg35
I49
ssg10
I216
sg36
g4
sg37
(dp2185
sg39
(dp2186
sg41
I1074
sg42
g21
sg43
g21
sg44
I216
sg45
VREF
p2187
sg47
I216
sg48
I1077
sbag0
(g23
g2
Ntp2188
Rp2189
(dp2190
g27
(dp2191
g29
V-rsb-
p2192
sg31
VO
p2193
sg33
V-RRB-
p2194
sg35
I50
ssg10
I217
sg36
g4
sg37
(dp2195
sg39
(dp2196
sg41
I1077
sg42
g21
sg43
g21
sg44
I217
sg45
V]
p2197
sg47
I217
sg48
I1078
sbag0
(g23
g2
Ntp2198
Rp2199
(dp2200
g27
(dp2201
g29
V.
p2202
sg31
VO
p2203
sg33
V.
p2204
sg35
I51
ssg10
I218
sg36
g4
sg37
(dp2205
sg39
(dp2206
sg41
I1078
sg42
g21
sg43
g21
sg44
I218
sg45
V.
p2207
sg47
I218
sg48
I1079
sbag0
(g23
g2
Ntp2208
Rp2209
(dp2210
g27
(dp2211
g29
Vnuclear
p2212
sg31
VO
p2213
sg33
VJJ
p2214
sg35
I1
ssg10
I219
sg36
g4
sg37
(dp2215
sg39
(dp2216
sg41
I1082
sg42
g21
sg43
g21
sg44
I219
sg45
VNuclear
p2217
sg47
I219
sg48
I1089
sbag0
(g23
g2
Ntp2218
Rp2219
(dp2220
g27
(dp2221
g29
Vphysicist
p2222
sg31
VO
p2223
sg33
VNNS
p2224
sg35
I2
ssg10
I220
sg36
g4
sg37
(dp2225
sg39
(dp2226
sg41
I1090
sg42
g21
sg43
g21
sg44
I220
sg45
Vphysicists
p2227
sg47
I220
sg48
I1100
sbag0
(g23
g2
Ntp2228
Rp2229
(dp2230
g27
(dp2231
g29
Vand
p2232
sg31
VO
p2233
sg33
VCC
p2234
sg35
I3
ssg10
I221
sg36
g4
sg37
(dp2235
sg39
(dp2236
sg41
I1101
sg42
g21
sg43
g21
sg44
I221
sg45
Vand
p2237
sg47
I221
sg48
I1104
sbag0
(g23
g2
Ntp2238
Rp2239
(dp2240
g27
(dp2241
g29
Vauthor
p2242
sg31
VO
p2243
sg33
VNNS
p2244
sg35
I4
ssg10
I222
sg36
g4
sg37
(dp2245
sg39
(dp2246
sg41
I1105
sg42
g21
sg43
g21
sg44
I222
sg45
Vauthors
p2247
sg47
I222
sg48
I1112
sbag0
(g23
g2
Ntp2248
Rp2249
(dp2250
g27
(dp2251
g29
Vhave
p2252
sg31
VO
p2253
sg33
VVBP
p2254
sg35
I5
ssg10
I223
sg36
g4
sg37
(dp2255
sg39
(dp2256
sg41
I1113
sg42
g21
sg43
g21
sg44
I223
sg45
Vhave
p2257
sg47
I223
sg48
I1117
sbag0
(g23
g2
Ntp2258
Rp2259
(dp2260
g27
(dp2261
g29
Vspeculate
p2262
sg31
VO
p2263
sg33
VVBN
p2264
sg35
I6
ssg10
I224
sg36
g4
sg37
(dp2265
sg39
(dp2266
sg41
I1118
sg42
g21
sg43
g21
sg44
I224
sg45
Vspeculated
p2267
sg47
I224
sg48
I1128
sbag0
(g23
g2
Ntp2268
Rp2269
(dp2270
g27
(dp2271
g29
Vthat
p2272
sg31
VO
p2273
sg33
VIN
p2274
sg35
I7
ssg10
I225
sg36
g4
sg37
(dp2275
sg39
(dp2276
sg41
I1129
sg42
g21
sg43
g21
sg44
I225
sg45
Vthat
p2277
sg47
I225
sg48
I1133
sbag0
(g23
g2
Ntp2278
Rp2279
(dp2280
g27
(dp2281
g29
Vnuclear
p2282
sg31
VO
p2283
sg33
VJJ
p2284
sg35
I8
ssg10
I226
sg36
g4
sg37
(dp2285
sg39
(dp2286
sg41
I1134
sg42
g21
sg43
g21
sg44
I226
sg45
Vnuclear
p2287
sg47
I226
sg48
I1141
sbag0
(g23
g2
Ntp2288
Rp2289
(dp2290
g27
(dp2291
g29
Vholocaust
p2292
sg31
VO
p2293
sg33
VNN
p2294
sg35
I9
ssg10
I227
sg36
g4
sg37
(dp2295
sg39
(dp2296
sg41
I1142
sg42
g21
sg43
g21
sg44
I227
sg45
Vholocaust
p2297
sg47
I227
sg48
I1151
sbag0
(g23
g2
Ntp2298
Rp2299
(dp2300
g27
(dp2301
g29
Vcould
p2302
sg31
VO
p2303
sg33
VMD
p2304
sg35
I10
ssg10
I228
sg36
g4
sg37
(dp2305
sg39
(dp2306
sg41
I1152
sg42
g21
sg43
g21
sg44
I228
sg45
Vcould
p2307
sg47
I228
sg48
I1157
sbag0
(g23
g2
Ntp2308
Rp2309
(dp2310
g27
(dp2311
g29
Vresult
p2312
sg31
VO
p2313
sg33
VVB
p2314
sg35
I11
ssg10
I229
sg36
g4
sg37
(dp2315
sg39
(dp2316
sg41
I1158
sg42
g21
sg43
g21
sg44
I229
sg45
Vresult
p2317
sg47
I229
sg48
I1164
sbag0
(g23
g2
Ntp2318
Rp2319
(dp2320
g27
(dp2321
g29
Vin
p2322
sg31
VO
p2323
sg33
VIN
p2324
sg35
I12
ssg10
I230
sg36
g4
sg37
(dp2325
sg39
(dp2326
sg41
I1165
sg42
g21
sg43
g21
sg44
I230
sg45
Vin
p2327
sg47
I230
sg48
I1167
sbag0
(g23
g2
Ntp2328
Rp2329
(dp2330
g27
(dp2331
g29
Va
p2332
sg31
VO
p2333
sg33
VDT
p2334
sg35
I13
ssg10
I231
sg36
g4
sg37
(dp2335
sg39
(dp2336
sg41
I1168
sg42
g21
sg43
g21
sg44
I231
sg45
Van
p2337
sg47
I231
sg48
I1170
sbag0
(g23
g2
Ntp2338
Rp2339
(dp2340
g27
(dp2341
g29
Vend
p2342
sg31
VO
p2343
sg33
VNN
p2344
sg35
I14
ssg10
I232
sg36
g4
sg37
(dp2345
sg39
(dp2346
sg41
I1171
sg42
g21
sg43
g21
sg44
I232
sg45
Vend
p2347
sg47
I232
sg48
I1174
sbag0
(g23
g2
Ntp2348
Rp2349
(dp2350
g27
(dp2351
g29
Vto
p2352
sg31
VO
p2353
sg33
VTO
p2354
sg35
I15
ssg10
I233
sg36
g4
sg37
(dp2355
sg39
(dp2356
sg41
I1175
sg42
g21
sg43
g21
sg44
I233
sg45
Vto
p2357
sg47
I233
sg48
I1177
sbag0
(g23
g2
Ntp2358
Rp2359
(dp2360
g27
(dp2361
g29
Vhuman
p2362
sg31
VO
p2363
sg33
VJJ
p2364
sg35
I16
ssg10
I234
sg36
g4
sg37
(dp2365
sg39
(dp2366
sg41
I1178
sg42
g21
sg43
g21
sg44
I234
sg45
Vhuman
p2367
sg47
I234
sg48
I1183
sbag0
(g23
g2
Ntp2368
Rp2369
(dp2370
g27
(dp2371
g29
Vlife
p2372
sg31
VO
p2373
sg33
VNN
p2374
sg35
I17
ssg10
I235
sg36
g4
sg37
(dp2375
sg39
(dp2376
sg41
I1184
sg42
g21
sg43
g21
sg44
I235
sg45
Vlife
p2377
sg47
I235
sg48
I1188
sbag0
(g23
g2
Ntp2378
Rp2379
(dp2380
g27
(dp2381
g29
V,
p2382
sg31
VO
p2383
sg33
V,
p2384
sg35
I18
ssg10
I236
sg36
g4
sg37
(dp2385
sg39
(dp2386
sg41
I1188
sg42
g21
sg43
g21
sg44
I236
sg45
V,
p2387
sg47
I236
sg48
I1189
sbag0
(g23
g2
Ntp2388
Rp2389
(dp2390
g27
(dp2391
g29
Vor
p2392
sg31
VO
p2393
sg33
VCC
p2394
sg35
I19
ssg10
I237
sg36
g4
sg37
(dp2395
sg39
(dp2396
sg41
I1190
sg42
g21
sg43
g21
sg44
I237
sg45
Vor
p2397
sg47
I237
sg48
I1192
sbag0
(g23
g2
Ntp2398
Rp2399
(dp2400
g27
(dp2401
g29
Vat
p2402
sg31
VO
p2403
sg33
VIN
p2404
sg35
I20
ssg10
I238
sg36
g4
sg37
(dp2405
sg39
(dp2406
sg41
I1193
sg42
g21
sg43
g21
sg44
I238
sg45
Vat
p2407
sg47
I238
sg48
I1195
sbag0
(g23
g2
Ntp2408
Rp2409
(dp2410
g27
(dp2411
g29
Vleast
p2412
sg31
VO
p2413
sg33
VJJS
p2414
sg35
I21
ssg10
I239
sg36
g4
sg37
(dp2415
sg39
(dp2416
sg41
I1196
sg42
g21
sg43
g21
sg44
I239
sg45
Vleast
p2417
sg47
I239
sg48
I1201
sbag0
(g23
g2
Ntp2418
Rp2419
(dp2420
g27
(dp2421
g29
Vto
p2422
sg31
VO
p2423
sg33
VTO
p2424
sg35
I22
ssg10
I240
sg36
g4
sg37
(dp2425
sg39
(dp2426
sg41
I1202
sg42
g21
sg43
g21
sg44
I240
sg45
Vto
p2427
sg47
I240
sg48
I1204
sbag0
(g23
g2
Ntp2428
Rp2429
(dp2430
g27
(dp2431
g29
Vmodern
p2432
sg31
VO
p2433
sg33
VJJ
p2434
sg35
I23
ssg10
I241
sg36
g4
sg37
(dp2435
sg39
(dp2436
sg41
I1205
sg42
g21
sg43
g21
sg44
I241
sg45
Vmodern
p2437
sg47
I241
sg48
I1211
sbag0
(g23
g2
Ntp2438
Rp2439
(dp2440
g27
(dp2441
g29
Vcivilization
p2442
sg31
VO
p2443
sg33
VNN
p2444
sg35
I24
ssg10
I242
sg36
g4
sg37
(dp2445
sg39
(dp2446
sg41
I1212
sg42
g21
sg43
g21
sg44
I242
sg45
Vcivilization
p2447
sg47
I242
sg48
I1224
sbag0
(g23
g2
Ntp2448
Rp2449
(dp2450
g27
(dp2451
g29
Von
p2452
sg31
VO
p2453
sg33
VIN
p2454
sg35
I25
ssg10
I243
sg36
g4
sg37
(dp2455
sg39
(dp2456
sg41
I1222
sg42
g21
sg43
g21
sg44
I243
sg45
Von
p2457
sg47
I243
sg48
I1224
sbag0
(g23
g2
Ntp2458
Rp2459
(dp2460
g27
(dp2461
g29
VEarth
p2462
sg31
VO
p2463
sg33
VNNP
p2464
sg35
I26
ssg10
I244
sg36
g4
sg37
(dp2465
sg39
(dp2466
sg41
I1228
sg42
g21
sg43
g21
sg44
I244
sg45
VEarth
p2467
sg47
I244
sg48
I1233
sbag0
(g23
g2
Ntp2468
Rp2469
(dp2470
g27
(dp2471
g29
Vdue
p2472
sg31
VO
p2473
sg33
VJJ
p2474
sg35
I27
ssg10
I245
sg36
g4
sg37
(dp2475
sg39
(dp2476
sg41
I1234
sg42
g21
sg43
g21
sg44
I245
sg45
Vdue
p2477
sg47
I245
sg48
I1237
sbag0
(g23
g2
Ntp2478
Rp2479
(dp2480
g27
(dp2481
g29
Vto
p2482
sg31
VO
p2483
sg33
VTO
p2484
sg35
I28
ssg10
I246
sg36
g4
sg37
(dp2485
sg39
(dp2486
sg41
I1238
sg42
g21
sg43
g21
sg44
I246
sg45
Vto
p2487
sg47
I246
sg48
I1240
sbag0
(g23
g2
Ntp2488
Rp2489
(dp2490
g27
(dp2491
g29
Vthe
p2492
sg31
VO
p2493
sg33
VDT
p2494
sg35
I29
ssg10
I247
sg36
g4
sg37
(dp2495
sg39
(dp2496
sg41
I1241
sg42
g21
sg43
g21
sg44
I247
sg45
Vthe
p2497
sg47
I247
sg48
I1244
sbag0
(g23
g2
Ntp2498
Rp2499
(dp2500
g27
(dp2501
g29
Vimmediate
p2502
sg31
VO
p2503
sg33
VJJ
p2504
sg35
I30
ssg10
I248
sg36
g4
sg37
(dp2505
sg39
(dp2506
sg41
I1245
sg42
g21
sg43
g21
sg44
I248
sg45
Vimmediate
p2507
sg47
I248
sg48
I1254
sbag0
(g23
g2
Ntp2508
Rp2509
(dp2510
g27
(dp2511
g29
Veffect
p2512
sg31
VO
p2513
sg33
VNNS
p2514
sg35
I31
ssg10
I249
sg36
g4
sg37
(dp2515
sg39
(dp2516
sg41
I1255
sg42
g21
sg43
g21
sg44
I249
sg45
Veffects
p2517
sg47
I249
sg48
I1262
sbag0
(g23
g2
Ntp2518
Rp2519
(dp2520
g27
(dp2521
g29
Vof
p2522
sg31
VO
p2523
sg33
VIN
p2524
sg35
I32
ssg10
I250
sg36
g4
sg37
(dp2525
sg39
(dp2526
sg41
I1263
sg42
g21
sg43
g21
sg44
I250
sg45
Vof
p2527
sg47
I250
sg48
I1265
sbag0
(g23
g2
Ntp2528
Rp2529
(dp2530
g27
(dp2531
g29
Vnuclear
p2532
sg31
VO
p2533
sg33
VJJ
p2534
sg35
I33
ssg10
I251
sg36
g4
sg37
(dp2535
sg39
(dp2536
sg41
I1266
sg42
g21
sg43
g21
sg44
I251
sg45
Vnuclear
p2537
sg47
I251
sg48
I1273
sbag0
(g23
g2
Ntp2538
Rp2539
(dp2540
g27
(dp2541
g29
Vfallout
p2542
sg31
VO
p2543
sg33
VNN
p2544
sg35
I34
ssg10
I252
sg36
g4
sg37
(dp2545
sg39
(dp2546
sg41
I1274
sg42
g21
sg43
g21
sg44
I252
sg45
Vfallout
p2547
sg47
I252
sg48
I1281
sbag0
(g23
g2
Ntp2548
Rp2549
(dp2550
g27
(dp2551
g29
V,
p2552
sg31
VO
p2553
sg33
V,
p2554
sg35
I35
ssg10
I253
sg36
g4
sg37
(dp2555
sg39
(dp2556
sg41
I1281
sg42
g21
sg43
g21
sg44
I253
sg45
V,
p2557
sg47
I253
sg48
I1282
sbag0
(g23
g2
Ntp2558
Rp2559
(dp2560
g27
(dp2561
g29
Vthe
p2562
sg31
VO
p2563
sg33
VDT
p2564
sg35
I36
ssg10
I254
sg36
g4
sg37
(dp2565
sg39
(dp2566
sg41
I1283
sg42
g21
sg43
g21
sg44
I254
sg45
Vthe
p2567
sg47
I254
sg48
I1286
sbag0
(g23
g2
Ntp2568
Rp2569
(dp2570
g27
(dp2571
g29
Vloss
p2572
sg31
VO
p2573
sg33
VNN
p2574
sg35
I37
ssg10
I255
sg36
g4
sg37
(dp2575
sg39
(dp2576
sg41
I1287
sg42
g21
sg43
g21
sg44
I255
sg45
Vloss
p2577
sg47
I255
sg48
I1291
sbag0
(g23
g2
Ntp2578
Rp2579
(dp2580
g27
(dp2581
g29
Vof
p2582
sg31
VO
p2583
sg33
VIN
p2584
sg35
I38
ssg10
I256
sg36
g4
sg37
(dp2585
sg39
(dp2586
sg41
I1292
sg42
g21
sg43
g21
sg44
I256
sg45
Vof
p2587
sg47
I256
sg48
I1294
sbag0
(g23
g2
Ntp2588
Rp2589
(dp2590
g27
(dp2591
g29
Vmuch
p2592
sg31
VO
p2593
sg33
VJJ
p2594
sg35
I39
ssg10
I257
sg36
g4
sg37
(dp2595
sg39
(dp2596
sg41
I1295
sg42
g21
sg43
g21
sg44
I257
sg45
Vmuch
p2597
sg47
I257
sg48
I1299
sbag0
(g23
g2
Ntp2598
Rp2599
(dp2600
g27
(dp2601
g29
Vmodern
p2602
sg31
VO
p2603
sg33
VJJ
p2604
sg35
I40
ssg10
I258
sg36
g4
sg37
(dp2605
sg39
(dp2606
sg41
I1300
sg42
g21
sg43
g21
sg44
I258
sg45
Vmodern
p2607
sg47
I258
sg48
I1306
sbag0
(g23
g2
Ntp2608
Rp2609
(dp2610
g27
(dp2611
g29
Vtechnology
p2612
sg31
VO
p2613
sg33
VNN
p2614
sg35
I41
ssg10
I259
sg36
g4
sg37
(dp2615
sg39
(dp2616
sg41
I1307
sg42
g21
sg43
g21
sg44
I259
sg45
Vtechnology
p2617
sg47
I259
sg48
I1317
sbag0
(g23
g2
Ntp2618
Rp2619
(dp2620
g27
(dp2621
g29
Vdue
p2622
sg31
VO
p2623
sg33
VJJ
p2624
sg35
I42
ssg10
I260
sg36
g4
sg37
(dp2625
sg39
(dp2626
sg41
I1318
sg42
g21
sg43
g21
sg44
I260
sg45
Vdue
p2627
sg47
I260
sg48
I1321
sbag0
(g23
g2
Ntp2628
Rp2629
(dp2630
g27
(dp2631
g29
Vto
p2632
sg31
VO
p2633
sg33
VTO
p2634
sg35
I43
ssg10
I261
sg36
g4
sg37
(dp2635
sg39
(dp2636
sg41
I1322
sg42
g21
sg43
g21
sg44
I261
sg45
Vto
p2637
sg47
I261
sg48
I1324
sbag0
(g23
g2
Ntp2638
Rp2639
(dp2640
g27
(dp2641
g29
Velectromagnetic
p2642
sg31
VO
p2643
sg33
VJJ
p2644
sg35
I44
ssg10
I262
sg36
g4
sg37
(dp2645
sg39
(dp2646
sg41
I1325
sg42
g21
sg43
g21
sg44
I262
sg45
Velectromagnetic
p2647
sg47
I262
sg48
I1340
sbag0
(g23
g2
Ntp2648
Rp2649
(dp2650
g27
(dp2651
g29
Vpulse
p2652
sg31
VO
p2653
sg33
VNNS
p2654
sg35
I45
ssg10
I263
sg36
g4
sg37
(dp2655
sg39
(dp2656
sg41
I1341
sg42
g21
sg43
g21
sg44
I263
sg45
Vpulses
p2657
sg47
I263
sg48
I1347
sbag0
(g23
g2
Ntp2658
Rp2659
(dp2660
g27
(dp2661
g29
V,
p2662
sg31
VO
p2663
sg33
V,
p2664
sg35
I46
ssg10
I264
sg36
g4
sg37
(dp2665
sg39
(dp2666
sg41
I1347
sg42
g21
sg43
g21
sg44
I264
sg45
V,
p2667
sg47
I264
sg48
I1348
sbag0
(g23
g2
Ntp2668
Rp2669
(dp2670
g27
(dp2671
g29
Vor
p2672
sg31
VO
p2673
sg33
VCC
p2674
sg35
I47
ssg10
I265
sg36
g4
sg37
(dp2675
sg39
(dp2676
sg41
I1349
sg42
g21
sg43
g21
sg44
I265
sg45
Vor
p2677
sg47
I265
sg48
I1351
sbag0
(g23
g2
Ntp2678
Rp2679
(dp2680
g27
(dp2681
g29
Vnuclear
p2682
sg31
VO
p2683
sg33
VJJ
p2684
sg35
I48
ssg10
I266
sg36
g4
sg37
(dp2685
sg39
(dp2686
sg41
I1352
sg42
g21
sg43
g21
sg44
I266
sg45
Vnuclear
p2687
sg47
I266
sg48
I1359
sbag0
(g23
g2
Ntp2688
Rp2689
(dp2690
g27
(dp2691
g29
Vwinter
p2692
sg31
VDATE
p2693
sg33
VNN
p2694
sg35
I49
ssg10
I267
sg36
g4
sg37
(dp2695
sg39
(dp2696
sg41
I1360
sg42
g21
sg43
g21
sg44
I267
sg45
Vwinter
p2697
sg47
I267
sg48
I1366
sbag0
(g23
g2
Ntp2698
Rp2699
(dp2700
g27
(dp2701
g29
Vand
p2702
sg31
VO
p2703
sg33
VCC
p2704
sg35
I50
ssg10
I268
sg36
g4
sg37
(dp2705
sg39
(dp2706
sg41
I1367
sg42
g21
sg43
g21
sg44
I268
sg45
Vand
p2707
sg47
I268
sg48
I1370
sbag0
(g23
g2
Ntp2708
Rp2709
(dp2710
g27
(dp2711
g29
Vresult
p2712
sg31
VO
p2713
sg33
VVBG
p2714
sg35
I51
ssg10
I269
sg36
g4
sg37
(dp2715
sg39
(dp2716
sg41
I1371
sg42
g21
sg43
g21
sg44
I269
sg45
Vresulting
p2717
sg47
I269
sg48
I1380
sbag0
(g23
g2
Ntp2718
Rp2719
(dp2720
g27
(dp2721
g29
Vextinction
p2722
sg31
VO
p2723
sg33
VNNS
p2724
sg35
I52
ssg10
I270
sg36
g4
sg37
(dp2725
sg39
(dp2726
sg41
I1381
sg42
g21
sg43
g21
sg44
I270
sg45
Vextinctions
p2727
sg47
I270
sg48
I1392
sbag0
(g23
g2
Ntp2728
Rp2729
(dp2730
g27
(dp2731
g29
V.
p2732
sg31
VO
p2733
sg33
V.
p2734
sg35
I53
ssg10
I271
sg36
g4
sg37
(dp2735
sg39
(dp2736
sg41
I1392
sg42
g21
sg43
g21
sg44
I271
sg45
V.
p2737
sg47
I271
sg48
I1393
sbag0
(g23
g2
Ntp2738
Rp2739
(dp2740
g27
(dp2741
g29
Vsince
p2742
sg31
VO
p2743
sg33
VIN
p2744
sg35
I1
ssg10
I272
sg36
g4
sg37
(dp2745
sg39
(dp2746
sg41
I1396
sg42
g21
sg43
g21
sg44
I272
sg45
VSince
p2747
sg47
I272
sg48
I1401
sbag0
(g23
g2
Ntp2748
Rp2749
(dp2750
g27
(dp2751
g29
V1947
p2752
sg31
VDATE
p2753
sg33
VCD
p2754
sg35
I2
ssg10
I273
sg36
g4
sg37
(dp2755
sg39
(dp2756
sg41
I1402
sg42
g21
sg43
g21
sg44
I273
sg45
V1947
p2757
sg47
I273
sg48
I1406
sbag0
(g23
g2
Ntp2758
Rp2759
(dp2760
g27
(dp2761
g29
Vthe
p2762
sg31
VO
p2763
sg33
VDT
p2764
sg35
I3
ssg10
I274
sg36
g4
sg37
(dp2765
sg39
(dp2766
sg41
I1407
sg42
g21
sg43
g21
sg44
I274
sg45
Vthe
p2767
sg47
I274
sg48
I1410
sbag0
(g23
g2
Ntp2768
Rp2769
(dp2770
g27
(dp2771
g29
VDoomsday
p2772
sg31
VO
p2773
sg33
VNNP
p2774
sg35
I4
ssg10
I275
sg36
g4
sg37
(dp2775
sg39
(dp2776
sg41
I1411
sg42
g21
sg43
g21
sg44
I275
sg45
VDoomsday
p2777
sg47
I275
sg48
I1419
sbag0
(g23
g2
Ntp2778
Rp2779
(dp2780
g27
(dp2781
g29
Vclock
p2782
sg31
VO
p2783
sg33
VNN
p2784
sg35
I5
ssg10
I276
sg36
g4
sg37
(dp2785
sg39
(dp2786
sg41
I1420
sg42
g21
sg43
g21
sg44
I276
sg45
VClock
p2787
sg47
I276
sg48
I1425
sbag0
(g23
g2
Ntp2788
Rp2789
(dp2790
g27
(dp2791
g29
Vof
p2792
sg31
VO
p2793
sg33
VIN
p2794
sg35
I6
ssg10
I277
sg36
g4
sg37
(dp2795
sg39
(dp2796
sg41
I1426
sg42
g21
sg43
g21
sg44
I277
sg45
Vof
p2797
sg47
I277
sg48
I1428
sbag0
(g23
g2
Ntp2798
Rp2799
(dp2800
g27
(dp2801
g29
Vthe
p2802
sg31
VO
p2803
sg33
VDT
p2804
sg35
I7
ssg10
I278
sg36
g4
sg37
(dp2805
sg39
(dp2806
sg41
I1429
sg42
g21
sg43
g21
sg44
I278
sg45
Vthe
p2807
sg47
I278
sg48
I1432
sbag0
(g23
g2
Ntp2808
Rp2809
(dp2810
g27
(dp2811
g29
VBulletin
p2812
sg31
VO
p2813
sg33
VNNP
p2814
sg35
I8
ssg10
I279
sg36
g4
sg37
(dp2815
sg39
(dp2816
sg41
I1433
sg42
g21
sg43
g21
sg44
I279
sg45
VBulletin
p2817
sg47
I279
sg48
I1441
sbag0
(g23
g2
Ntp2818
Rp2819
(dp2820
g27
(dp2821
g29
Vof
p2822
sg31
VO
p2823
sg33
VIN
p2824
sg35
I9
ssg10
I280
sg36
g4
sg37
(dp2825
sg39
(dp2826
sg41
I1442
sg42
g21
sg43
g21
sg44
I280
sg45
Vof
p2827
sg47
I280
sg48
I1444
sbag0
(g23
g2
Ntp2828
Rp2829
(dp2830
g27
(dp2831
g29
Vthe
p2832
sg31
VO
p2833
sg33
VDT
p2834
sg35
I10
ssg10
I281
sg36
g4
sg37
(dp2835
sg39
(dp2836
sg41
I1445
sg42
g21
sg43
g21
sg44
I281
sg45
Vthe
p2837
sg47
I281
sg48
I1448
sbag0
(g23
g2
Ntp2838
Rp2839
(dp2840
g27
(dp2841
g29
Vatomic
p2842
sg31
VO
p2843
sg33
VJJ
p2844
sg35
I11
ssg10
I282
sg36
g4
sg37
(dp2845
sg39
(dp2846
sg41
I1449
sg42
g21
sg43
g21
sg44
I282
sg45
VAtomic
p2847
sg47
I282
sg48
I1455
sbag0
(g23
g2
Ntp2848
Rp2849
(dp2850
g27
(dp2851
g29
Vscientist
p2852
sg31
VO
p2853
sg33
VNNS
p2854
sg35
I12
ssg10
I283
sg36
g4
sg37
(dp2855
sg39
(dp2856
sg41
I1456
sg42
g21
sg43
g21
sg44
I283
sg45
VScientists
p2857
sg47
I283
sg48
I1466
sbag0
(g23
g2
Ntp2858
Rp2859
(dp2860
g27
(dp2861
g29
Vvisualize
p2862
sg31
VO
p2863
sg33
VVBZ
p2864
sg35
I13
ssg10
I284
sg36
g4
sg37
(dp2865
sg39
(dp2866
sg41
I1467
sg42
g21
sg43
g21
sg44
I284
sg45
Vvisualizes
p2867
sg47
I284
sg48
I1477
sbag0
(g23
g2
Ntp2868
Rp2869
(dp2870
g27
(dp2871
g29
Vhow
p2872
sg31
VO
p2873
sg33
VWRB
p2874
sg35
I14
ssg10
I285
sg36
g4
sg37
(dp2875
sg39
(dp2876
sg41
I1478
sg42
g21
sg43
g21
sg44
I285
sg45
Vhow
p2877
sg47
I285
sg48
I1481
sbag0
(g23
g2
Ntp2878
Rp2879
(dp2880
g27
(dp2881
g29
Vfar
p2882
sg31
VO
p2883
sg33
VRB
p2884
sg35
I15
ssg10
I286
sg36
g4
sg37
(dp2885
sg39
(dp2886
sg41
I1482
sg42
g21
sg43
g21
sg44
I286
sg45
Vfar
p2887
sg47
I286
sg48
I1485
sbag0
(g23
g2
Ntp2888
Rp2889
(dp2890
g27
(dp2891
g29
Vthe
p2892
sg31
VO
p2893
sg33
VDT
p2894
sg35
I16
ssg10
I287
sg36
g4
sg37
(dp2895
sg39
(dp2896
sg41
I1486
sg42
g21
sg43
g21
sg44
I287
sg45
Vthe
p2897
sg47
I287
sg48
I1489
sbag0
(g23
g2
Ntp2898
Rp2899
(dp2900
g27
(dp2901
g29
Vworld
p2902
sg31
VO
p2903
sg33
VNN
p2904
sg35
I17
ssg10
I288
sg36
g4
sg37
(dp2905
sg39
(dp2906
sg41
I1490
sg42
g21
sg43
g21
sg44
I288
sg45
Vworld
p2907
sg47
I288
sg48
I1495
sbag0
(g23
g2
Ntp2908
Rp2909
(dp2910
g27
(dp2911
g29
Vbe
p2912
sg31
VO
p2913
sg33
VVBZ
p2914
sg35
I18
ssg10
I289
sg36
g4
sg37
(dp2915
sg39
(dp2916
sg41
I1496
sg42
g21
sg43
g21
sg44
I289
sg45
Vis
p2917
sg47
I289
sg48
I1498
sbag0
(g23
g2
Ntp2918
Rp2919
(dp2920
g27
(dp2921
g29
Vfrom
p2922
sg31
VO
p2923
sg33
VIN
p2924
sg35
I19
ssg10
I290
sg36
g4
sg37
(dp2925
sg39
(dp2926
sg41
I1499
sg42
g21
sg43
g21
sg44
I290
sg45
Vfrom
p2927
sg47
I290
sg48
I1503
sbag0
(g23
g2
Ntp2928
Rp2929
(dp2930
g27
(dp2931
g29
Va
p2932
sg31
VO
p2933
sg33
VDT
p2934
sg35
I20
ssg10
I291
sg36
g4
sg37
(dp2935
sg39
(dp2936
sg41
I1504
sg42
g21
sg43
g21
sg44
I291
sg45
Va
p2937
sg47
I291
sg48
I1505
sbag0
(g23
g2
Ntp2938
Rp2939
(dp2940
g27
(dp2941
g29
Vnuclear
p2942
sg31
VO
p2943
sg33
VJJ
p2944
sg35
I21
ssg10
I292
sg36
g4
sg37
(dp2945
sg39
(dp2946
sg41
I1506
sg42
g21
sg43
g21
sg44
I292
sg45
Vnuclear
p2947
sg47
I292
sg48
I1513
sbag0
(g23
g2
Ntp2948
Rp2949
(dp2950
g27
(dp2951
g29
Vholocaust
p2952
sg31
VO
p2953
sg33
VNN
p2954
sg35
I22
ssg10
I293
sg36
g4
sg37
(dp2955
sg39
(dp2956
sg41
I1514
sg42
g21
sg43
g21
sg44
I293
sg45
Vholocaust
p2957
sg47
I293
sg48
I1523
sbag0
(g23
g2
Ntp2958
Rp2959
(dp2960
g27
(dp2961
g29
V.
p2962
sg31
VO
p2963
sg33
V.
p2964
sg35
I23
ssg10
I294
sg36
g4
sg37
(dp2965
sg39
(dp2966
sg41
I1523
sg42
g21
sg43
g21
sg44
I294
sg45
V.
p2967
sg47
I294
sg48
I1524
sbasS'Document'
p2968
(lp2969
g4
asS'doc-features'
p2970
g14
sS'Sentence'
p2971
(lp2972
g0
(g23
g2
Ntp2973
Rp2974
(dp2975
g27
(dp2976
S'dep-parse'
p2977
S'not implemented!'
p2978
sg35
I0
sS'constituency-parse'
p2979
V(ROOT\u000a  (S\u000a    (NP (JJ Nuclear) (NN holocaust))\u000a    (VP (VBZ refers)\u000a      (PP (TO to)\u000a        (NP\u000a          (NP (DT the) (NN possibility))\u000a          (PP (IN of)\u000a            (NP\u000a              (NP (DT the) (JJ near) (JJ complete) (NN annihilation))\u000a              (PP (IN of)\u000a                (NP (JJ human) (NN civilization)))))))\u000a      (PP (IN by)\u000a        (NP (JJ nuclear) (NN warfare))))\u000a    (. .)))
p2980
ssg10
I0
sg36
g4
sg37
(dp2981
sg39
(dp2982
S'tokens'
p2983
(lp2984
g25
ag50
ag60
ag70
ag80
ag90
ag100
ag110
ag120
ag130
ag140
ag150
ag160
ag170
ag180
ag190
ag200
ag210
assg41
I0
sg42
g2971
sg43
g2971
sg44
I0
sg45
VNuclear holocaust refers to the possibility of the near complete annihilation of human civilization by nuclear warfare.
p2985
sg47
I18
sg48
I119
sbag0
(g23
g2
Ntp2986
Rp2987
(dp2988
g27
(dp2989
g2977
g2978
sg35
I1
sg2979
V(ROOT\u000a  (S\u000a    (PP (IN Under)\u000a      (NP (PDT such) (DT a) (NN scenario)))\u000a    (, ,)\u000a    (NP\u000a      (NP (DT all))\u000a      (CC or)\u000a      (NP\u000a        (NP (JJS most))\u000a        (PP (IN of)\u000a          (NP (DT the) (NNP Earth)))))\u000a    (VP (VBZ is)\u000a      (VP (VBN made)\u000a        (NP (JJ uninhabitable))\u000a        (PP (IN by)\u000a          (NP\u000a            (NP (JJ nuclear) (NNS weapons))\u000a            (PP (IN in)\u000a              (NP (JJ future) (NN world) (NNS wars)))))))\u000a    (. .)))
p2990
ssg10
I1
sg36
g4
sg37
(dp2991
sg39
(dp2992
g2983
(lp2993
g220
ag230
ag240
ag250
ag260
ag270
ag280
ag290
ag300
ag310
ag320
ag330
ag340
ag350
ag360
ag370
ag380
ag390
ag400
ag410
ag420
ag430
assg41
I120
sg42
g2971
sg43
g2971
sg44
I18
sg45
V Under such a scenario, all or most of the Earth is made uninhabitable by nuclear weapons in future world wars.
p2994
sg47
I40
sg48
I230
sbag0
(g23
g2
Ntp2995
Rp2996
(dp2997
g27
(dp2998
g2977
g2978
sg35
I2
sg2979
V(ROOT\u000a  (NP\u000a    (NP (DT A) (JJ common) (NN definition))\u000a    (PP (IN of)\u000a      (NP\u000a        (NP (DT the) (NN word) (`` ``) (NN holocaust) ('' ''))\u000a        (: :) (`` ``)\u000a        (NP\u000a          (NP (JJ great) (NN destruction))\u000a          (VP (VBG resulting)\u000a            (PP (IN in)\u000a              (NP\u000a                (NP (DT the) (JJ extensive) (NN loss))\u000a                (PP (IN of)\u000a                  (NP (NN life)))))\u000a            (, ,)\u000a            (ADVP (RB especially))\u000a            (PP (IN by)\u000a              (NP (NN fire)))))))\u000a    (. .) ('' '')))
p2999
ssg10
I2
sg36
g4
sg37
(dp3000
sg39
(dp3001
g2983
(lp3002
g440
ag450
ag460
ag470
ag480
ag490
ag500
ag510
ag520
ag529
ag539
ag548
ag558
ag568
ag578
ag588
ag598
ag608
ag618
ag628
ag638
ag648
ag658
ag668
ag678
ag688
assg41
I233
sg42
g2971
sg43
g2971
sg44
I40
sg45
V \u000a\u000aA common definition of the word "holocaust": "great destruction resulting in the extensive loss of life, especially by fire."
p3003
sg47
I66
sg48
I358
sbag0
(g23
g2
Ntp3004
Rp3005
(dp3006
g27
(dp3007
g2977
g2978
sg35
I3
sg2979
V(ROOT\u000a  (S\u000a    (PP (-LRB- -LSB-)\u000a      (NP (NN REF)))\u000a    (-RRB- -RSB-)\u000a    (NP (DT The) (NN word))\u000a    (VP (VBZ is)\u000a      (VP (VBN derived)\u000a        (PP (IN from)\u000a          (NP\u000a            (NP (DT the) (JJ Greek) (NN term) (`` ``)\u000a              (NX (NNS holokaustos))\u000a              ('' ''))\u000a            (VP (VBG meaning)\u000a              (ADJP (`` ``) (RB completely) (JJ burnt)))))))\u000a    (. .) ('' '')))
p3008
ssg10
I3
sg36
g4
sg37
(dp3009
sg39
(dp3010
g2983
(lp3011
g697
ag707
ag717
ag727
ag737
ag747
ag757
ag767
ag777
ag787
ag797
ag807
ag816
ag826
ag835
ag845
ag854
ag864
ag874
ag884
assg41
I358
sg42
g2971
sg43
g2971
sg44
I66
sg45
V[REF] The word is derived from the Greek term "holokaustos" meaning "completely burnt."
p3012
sg47
I86
sg48
I445
sbag0
(g23
g2
Ntp3013
Rp3014
(dp3015
g27
(dp3016
g2977
g2978
sg35
I4
sg2979
V(ROOT\u000a  (S\u000a    (ADVP (RB Possibly))\u000a    (NP\u000a      (NP (DT the) (JJ first) (VBN printed) (NN use))\u000a      (PP (IN of)\u000a        (NP\u000a          (NP (DT the) (NN word) (`` ``) (NN holocaust) ('' ''))\u000a          (SBAR\u000a            (S\u000a              (VP (TO to)\u000a                (VP (VB describe)\u000a                  (NP (DT an) (VBN imagined) (JJ nuclear) (NN destruction)))))))))\u000a    (VP (VBZ is)\u000a      (NP\u000a        (NP\u000a          (NP (NNP Reginald) (NNP Glossop) (POS 's))\u000a          (NP (CD 1926)))\u000a        (: :)\u000a        (NP (`` ``) (NNP Moscow))))\u000a    (. .)))
p3017
ssg10
I4
sg36
g4
sg37
(dp3018
sg39
(dp3019
g2983
(lp3020
g893
ag903
ag913
ag923
ag933
ag943
ag953
ag963
ag973
ag982
ag992
ag1001
ag1011
ag1021
ag1031
ag1041
ag1051
ag1061
ag1071
ag1081
ag1091
ag1101
ag1111
ag1121
ag1130
ag1140
assg41
I446
sg42
g2971
sg43
g2971
sg44
I86
sg45
V Possibly the first printed use of the word "holocaust" to describe an imagined nuclear destruction is Reginald Glossop's 1926: "Moscow .
p3021
sg47
I112
sg48
I582
sbag0
(g23
g2
Ntp3022
Rp3023
(dp3024
g27
(dp3025
g2977
g2978
sg35
I5
sg2979
V(ROOT\u000a  (NP (. .)))
p3026
ssg10
I5
sg36
g4
sg37
(dp3027
sg39
(dp3028
g2983
(lp3029
g1150
assg41
I581
sg42
g2971
sg43
g2971
sg44
I112
sg45
V.
p3030
sg47
I113
sg48
I582
sbag0
(g23
g2
Ntp3031
Rp3032
(dp3033
g27
(dp3034
g2977
g2978
sg35
I6
sg2979
V(ROOT\u000a  (FRAG\u000a    (PP (IN beneath)\u000a      (NP (PRP them)))\u000a    (. .)))
p3035
ssg10
I6
sg36
g4
sg37
(dp3036
sg39
(dp3037
g2983
(lp3038
g1160
ag1170
ag1180
assg41
I584
sg42
g2971
sg43
g2971
sg44
I113
sg45
V beneath them .
p3039
sg47
I116
sg48
I598
sbag0
(g23
g2
Ntp3040
Rp3041
(dp3042
g27
(dp3043
g2977
g2978
sg35
I7
sg2979
V(ROOT\u000a  (NP (. .)))
p3044
ssg10
I7
sg36
g4
sg37
(dp3045
sg39
(dp3046
g2983
(lp3047
g1190
assg41
I597
sg42
g2971
sg43
g2971
sg44
I116
sg45
V.
p3048
sg47
I117
sg48
I598
sbag0
(g23
g2
Ntp3049
Rp3050
(dp3051
g27
(dp3052
g2977
g2978
sg35
I8
sg2979
V(ROOT\u000a  (NP\u000a    (NP (DT a) (NN crash))\u000a    (PP (IN like)\u000a      (NP (DT a) (NN crack)))\u000a    (PP (IN of)\u000a      (NP (NN Doom)))\u000a    (. !)))
p3053
ssg10
I8
sg36
g4
sg37
(dp3054
sg39
(dp3055
g2983
(lp3056
g1200
ag1210
ag1220
ag1230
ag1240
ag1250
ag1260
ag1270
assg41
I600
sg42
g2971
sg43
g2971
sg44
I117
sg45
V a crash like a crack of Doom!
p3057
sg47
I125
sg48
I629
sbag0
(g23
g2
Ntp3058
Rp3059
(dp3060
g27
(dp3061
g2977
g2978
sg35
I9
sg2979
V(ROOT\u000a  (S\u000a    (NP\u000a      (NP (DT The) (NNS echoes))\u000a      (PP (IN of)\u000a        (NP (DT this) (NNP Holocaust))))\u000a    (VP\u000a      (VP (VBD rumbled))\u000a      (CC and)\u000a      (VP (VBD rolled)))\u000a    (. .)))
p3062
ssg10
I9
sg36
g4
sg37
(dp3063
sg39
(dp3064
g2983
(lp3065
g1280
ag1290
ag1300
ag1310
ag1320
ag1330
ag1340
ag1350
ag1360
assg41
I630
sg42
g2971
sg43
g2971
sg44
I125
sg45
V The echoes of this Holocaust rumbled and rolled .
p3066
sg47
I134
sg48
I679
sbag0
(g23
g2
Ntp3067
Rp3068
(dp3069
g27
(dp3070
g2977
g2978
sg35
I10
sg2979
V(ROOT\u000a  (NP (. .)))
p3071
ssg10
I10
sg36
g4
sg37
(dp3072
sg39
(dp3073
g2983
(lp3074
g1370
assg41
I678
sg42
g2971
sg43
g2971
sg44
I134
sg45
V.
p3075
sg47
I135
sg48
I679
sbag0
(g23
g2
Ntp3076
Rp3077
(dp3078
g27
(dp3079
g2977
g2978
sg35
I11
sg2979
V(ROOT\u000a  (NP\u000a    (NP (DT a) (JJ distinct) (NN smell))\u000a    (PP (IN of)\u000a      (NP (NN sulphur)))\u000a    (. .)))
p3080
ssg10
I11
sg36
g4
sg37
(dp3081
sg39
(dp3082
g2983
(lp3083
g1380
ag1390
ag1400
ag1410
ag1420
ag1430
assg41
I681
sg42
g2971
sg43
g2971
sg44
I135
sg45
V a distinct smell of sulphur .
p3084
sg47
I141
sg48
I710
sbag0
(g23
g2
Ntp3085
Rp3086
(dp3087
g27
(dp3088
g2977
g2978
sg35
I12
sg2979
V(ROOT\u000a  (NP (. .)))
p3089
ssg10
I12
sg36
g4
sg37
(dp3090
sg39
(dp3091
g2983
(lp3092
g1440
assg41
I709
sg42
g2971
sg43
g2971
sg44
I141
sg45
V.
p3093
sg47
I142
sg48
I710
sbag0
(g23
g2
Ntp3094
Rp3095
(dp3096
g27
(dp3097
g2977
g2978
sg35
I13
sg2979
V(ROOT\u000a  (FRAG\u000a    (NP (JJ atomic) (NN destruction) (. .) ('' ''))))
p3098
ssg10
I13
sg36
g4
sg37
(dp3099
sg39
(dp3100
g2983
(lp3101
g1450
ag1460
ag1470
ag1480
assg41
I712
sg42
g2971
sg43
g2971
sg44
I142
sg45
V atomic destruction."
p3102
sg47
I146
sg48
I732
sbag0
(g23
g2
Ntp3103
Rp3104
(dp3105
g27
(dp3106
g2977
g2978
sg35
I14
sg2979
V(ROOT\u000a  (S\u000a    (NP (-LRB- -LSB-) (NN REF))\u000a    (-RRB- -RSB-)\u000a    (PP (IN In)\u000a      (NP (DT the) (CD 1960s)))\u000a    (NP\u000a      (NP (DT the) (NN principal) (NN referent))\u000a      (PP (IN of)\u000a        (NP (DT the) (JJ unmodified) (`` ``) (NN holocaust))))\u000a    ('' '')\u000a    (VP (VBD was)\u000a      (NP\u000a        (NP (JJ nuclear) (NN destruction))\u000a        (PP (-LRB- -LSB-)\u000a          (NP (NN REF) (-RRB- -RSB-)))))\u000a    (. .)))
p3107
ssg10
I14
sg36
g4
sg37
(dp3108
sg39
(dp3109
g2983
(lp3110
g1489
ag1499
ag1509
ag1519
ag1529
ag1539
ag1549
ag1559
ag1569
ag1579
ag1589
ag1599
ag1609
ag1618
ag1628
ag1637
ag1647
ag1657
ag1667
ag1677
ag1687
ag1697
assg41
I732
sg42
g2971
sg43
g2971
sg44
I146
sg45
V[REF] In the 1960s the principal referent of the unmodified "holocaust" was nuclear destruction [REF].
p3111
sg47
I168
sg48
I834
sbag0
(g23
g2
Ntp3112
Rp3113
(dp3114
g27
(dp3115
g2977
g2978
sg35
I15
sg2979
V(ROOT\u000a  (S\u000a    (S\u000a      (PP (IN Since)\u000a        (NP (DT the) (JJ mid) (CD 1970s)))\u000a      (NP\u000a        (NP (DT the) (JJ capitalized) (NN term))\u000a        (`` ``)\u000a        (NP (NNP Holocaust))\u000a        ('' ''))\u000a      (VP (VBZ has)\u000a        (VP (VBN been)\u000a          (VP\u000a            (ADVP (RB closely))\u000a            (VBN associated)\u000a            (PP (IN with)\u000a              (NP\u000a                (NP (DT the) (JJ Nazi) (NN mass) (NN slaughter))\u000a                (PP (IN of)\u000a                  (NP (NNPS Jews)))))))))\u000a    (PRN (-LRB- -LRB-)\u000a      (VP (VB see)\u000a        (NP (DT The) (NNP Holocaust)))\u000a      (-RRB- -RRB-))\u000a    (CC and)\u000a    (S\u000a      (NP\u000a        (NP (`` ``) (NN holocaust) ('' ''))\u000a        (PP (IN in)\u000a          (NP (PRP$ its) (JJ nuclear) (NN destruction) (NN sense))))\u000a      (VP (VBZ is)\u000a        (ADVP (RB almost))\u000a        (VP\u000a          (ADVP (RB always))\u000a          (VBN preceded)\u000a          (PP (IN by)\u000a            (NP (`` ``)\u000a              (NP (JJ atomic))\u000a              ('' '')\u000a              (CC or)\u000a              (NP (`` ``) (JJ nuclear) ('' '') (-LRB- -LSB-) (NN REF) (-RRB- -RSB-)))))))\u000a    (. .)))
p3116
ssg10
I15
sg36
g4
sg37
(dp3117
sg39
(dp3118
g2983
(lp3119
g1707
ag1717
ag1727
ag1737
ag1747
ag1757
ag1767
ag1777
ag1786
ag1796
ag1805
ag1815
ag1825
ag1835
ag1845
ag1855
ag1865
ag1875
ag1885
ag1895
ag1905
ag1915
ag1925
ag1935
ag1945
ag1955
ag1965
ag1975
ag1984
ag1994
ag2003
ag2013
ag2023
ag2033
ag2043
ag2053
ag2063
ag2073
ag2083
ag2093
ag2103
ag2112
ag2122
ag2131
ag2141
ag2150
ag2160
ag2169
ag2179
ag2189
ag2199
assg41
I835
sg42
g2971
sg43
g2971
sg44
I168
sg45
V Since the mid 1970s the capitalized term "Holocaust" has been closely associated with the Nazi mass slaughter of Jews (see The Holocaust) and "holocaust" in its nuclear destruction sense is almost always preceded by "atomic" or "nuclear" [REF].
p3120
sg47
I219
sg48
I1079
sbag0
(g23
g2
Ntp3121
Rp3122
(dp3123
g27
(dp3124
g2977
g2978
sg35
I16
sg2979
V(ROOT\u000a  (S\u000a    (NP (JJ Nuclear) (NNS physicists)\u000a      (CC and)\u000a      (NNS authors))\u000a    (VP (VBP have)\u000a      (VP (VBN speculated)\u000a        (SBAR (IN that)\u000a          (S\u000a            (NP (JJ nuclear) (NN holocaust))\u000a            (VP (MD could)\u000a              (VP (VB result)\u000a                (PP (IN in)\u000a                  (NP (DT an) (NN end)))\u000a                (PP\u000a                  (PP (TO to)\u000a                    (NP (JJ human) (NN life)))\u000a                  (, ,)\u000a                  (CC or)\u000a                  (ADVP (IN at) (JJS least))\u000a                  (PP (TO to)\u000a                    (NP\u000a                      (NP (JJ modern) (NN civilization))\u000a                      (PP (IN on)\u000a                        (NP (NNP Earth))))))\u000a                (PP (JJ due) (TO to)\u000a                  (NP\u000a                    (NP\u000a                      (NP (DT the) (JJ immediate) (NNS effects))\u000a                      (PP (IN of)\u000a                        (NP (JJ nuclear) (NN fallout))))\u000a                    (, ,)\u000a                    (NP\u000a                      (NP (DT the) (NN loss))\u000a                      (PP (IN of)\u000a                        (NP\u000a                          (NP (JJ much) (JJ modern) (NN technology))\u000a                          (ADJP (JJ due)\u000a                            (PP (TO to)\u000a                              (NP (JJ electromagnetic) (NNS pulses)))))))\u000a                    (, ,)\u000a                    (CC or)\u000a                    (NP\u000a                      (NP (JJ nuclear) (NN winter))\u000a                      (CC and)\u000a                      (NP (VBG resulting) (NNS extinctions)))))))))))\u000a    (. .)))
p3125
ssg10
I16
sg36
g4
sg37
(dp3126
sg39
(dp3127
g2983
(lp3128
g2209
ag2219
ag2229
ag2239
ag2249
ag2259
ag2269
ag2279
ag2289
ag2299
ag2309
ag2319
ag2329
ag2339
ag2349
ag2359
ag2369
ag2379
ag2389
ag2399
ag2409
ag2419
ag2429
ag2439
ag2449
ag2459
ag2469
ag2479
ag2489
ag2499
ag2509
ag2519
ag2529
ag2539
ag2549
ag2559
ag2569
ag2579
ag2589
ag2599
ag2609
ag2619
ag2629
ag2639
ag2649
ag2659
ag2669
ag2679
ag2689
ag2699
ag2709
ag2719
ag2729
assg41
I1082
sg42
g2971
sg43
g2971
sg44
I219
sg45
V \u000a\u000aNuclear physicists and authors have speculated that nuclear holocaust could result in an end to human life, or at least to modern civilization on Earth due to the immediate effects of nuclear fallout, the loss of much modern technology due to electromagnetic pulses, or nuclear winter and resulting extinctions.
p3129
sg47
I272
sg48
I1393
sbag0
(g23
g2
Ntp3130
Rp3131
(dp3132
g27
(dp3133
g2977
g2978
sg35
I17
sg2979
V(ROOT\u000a  (S\u000a    (PP (IN Since)\u000a      (NP (CD 1947)))\u000a    (NP\u000a      (NP (DT the) (NNP Doomsday) (NN Clock))\u000a      (PP (IN of)\u000a        (NP\u000a          (NP (DT the) (NNP Bulletin))\u000a          (PP (IN of)\u000a            (NP (DT the) (JJ Atomic) (NNS Scientists))))))\u000a    (VP (VBZ visualizes)\u000a      (SBAR\u000a        (WHADVP (WRB how) (RB far))\u000a        (S\u000a          (NP (DT the) (NN world))\u000a          (VP (VBZ is)\u000a            (PP (IN from)\u000a              (NP (DT a) (JJ nuclear) (NN holocaust)))))))\u000a    (. .)))
p3134
ssg10
I17
sg36
g4
sg37
(dp3135
sg39
(dp3136
g2983
(lp3137
g2739
ag2749
ag2759
ag2769
ag2779
ag2789
ag2799
ag2809
ag2819
ag2829
ag2839
ag2849
ag2859
ag2869
ag2879
ag2889
ag2899
ag2909
ag2919
ag2929
ag2939
ag2949
ag2959
assg41
I1396
sg42
g2971
sg43
g2971
sg44
I272
sg45
V \u000a\u000aSince 1947 the Doomsday Clock of the Bulletin of the Atomic Scientists visualizes how far the world is from a nuclear holocaust.
p3138
sg47
I295
sg48
I1524
sbassg37
(dp3139
sg39
(dp3140
sg47
I-1
sg2983
g22
sg42
g2968
sg36
Nsg27
(dp3141
sg44
I0
sg45
VNuclear holocaust refers to the possibility of the near complete annihilation of human civilization by nuclear warfare. Under such a scenario, all or most of the Earth is made uninhabitable by nuclear weapons in future world wars. \u000a\u000aA common definition of the word "holocaust": "great destruction resulting in the extensive loss of life, especially by fire."[REF] The word is derived from the Greek term "holokaustos" meaning "completely burnt." Possibly the first printed use of the word "holocaust" to describe an imagined nuclear destruction is Reginald Glossop's 1926: "Moscow .. beneath them .. a crash like a crack of Doom! The echoes of this Holocaust rumbled and rolled .. a distinct smell of sulphur .. atomic destruction."[REF] In the 1960s the principal referent of the unmodified "holocaust" was nuclear destruction [REF]. Since the mid 1970s the capitalized term "Holocaust" has been closely associated with the Nazi mass slaughter of Jews (see The Holocaust) and "holocaust" in its nuclear destruction sense is almost always preceded by "atomic" or "nuclear" [REF]. \u000a\u000aNuclear physicists and authors have speculated that nuclear holocaust could result in an end to human life, or at least to modern civilization on Earth due to the immediate effects of nuclear fallout, the loss of much modern technology due to electromagnetic pulses, or nuclear winter and resulting extinctions. \u000a\u000aSince 1947 the Doomsday Clock of the Bulletin of the Atomic Scientists visualizes how far the world is from a nuclear holocaust.
p3142
sS'sents'
p3143
g2972
sg43
g2968
sg41
I0
sS'id'
p3144
g16
sg48
I1524
sS'sentFeatures'
p3145
(lp3146
sb.