ccopy_reg
_reconstructor
p0
(cpygate.doc
Document
p1
c__builtin__
object
p2
Ntp3
Rp4
(dp5
S'src'
p6
VA poverty trap is "any self-reinforcing mechanism which causes poverty to persist."[REF] If it persists from generation to generation, the trap begins to reinforce itself if steps are not taken to break the cycle.\u000a\u000aIn the developing world, many factors can contribute to a poverty trap, including: limited access to credit and capital markets, extreme environmental degradation (which depletes agricultural production potential), corrupt governance, capital flight, poor education systems, disease ecology, lack of public health care, war and poor infrastructure [REF]. \u000a\u000aNations like this include Sierra Leone and the Democratic Republic of the Congo. \u000a\u000aJeffrey Sachs, in his book The End of Poverty, discusses the poverty trap and prescribes a set of policy initiatives intended to end the trap. He recommends that aid agencies behave as venture capitalists funding start-up companies. Venture capitalists, once they choose to invest in a venture, do not give only half or a third of the amount they feel the venture needs in order to become profitable; if they did, their money would be wasted. If all goes as planned, the venture will eventually become profitable and the venture capitalist will experience an adequate rate of return on investment. Likewise, Sachs proposes, developed countries cannot give only a fraction of what is needed in aid and expect to reverse the poverty trap in Africa. Just like any other start-up, developing nations absolutely must receive the amount of aid necessary (and promised at the G-8 Summit in 2005[REF]) for them to begin to reverse the poverty trap. The problem is that unlike start-ups, which simply go bankrupt if they fail to receive funding, in Africa people continue to die at a high rate due in large part to lack of sufficient aid. \u000a\u000aSachs points out that the extreme poor lack six major kinds of capital: human capital, business capital, infrastructure, natural capital, public institutional capital, and knowledge capital [REF]. He then details the poverty trap: The poor start with a very low level of capital per person, and then find themselves trapped in poverty because the ratio of capital per person actually falls from generation to generation. The amount of capital per person declines when the population is growing faster than capital is being accumulated .. The question for growth in per capita income is whether the net capital accumulation is large enough to keep up with population growth. \u000a\u000aSachs argues that sufficient foreign aid can make up for the lack of capital in poor countries, maintaining that, \u201cIf the foreign assistance is substantial enough, and lasts long enough, the capital stock rises sufficiently to lift households above subsistence.\u201d . \u000a\u000aSachs believes the public sector should focus mainly on investments in human capital (health, education, nutrition), infrastructure (roads, power, water and sanitation, environmental conservation), natural capital (conservation of biodiversity and ecosystems), public institutional capital (a well-run public administration, judicial system, police force), and parts of knowledge capital (scientific research for health, energy, agriculture, climate, ecology) [REF]. Sachs leaves business capital investments to the private sector, which would more efficiently use funding to develop the profitable enterprises necessary to sustain growth. In this sense, Sachs views public institutions as useful in providing the public goods necessary to begin the Rostovian take-off model, but maintains that private goods are more efficiently produced and distributed by private enterprise [REF]. This is a widespread view in neoclassical economics.
p7
sS'string'
p8
S'A poverty trap is "any self-reinforcing mechanism which causes poverty to persist."[REF] If it persists from generation to generation, the trap begins to reinforce itself if steps are not taken to break the cycle.\n\nIn the developing world, many factors can contribute to a poverty trap, including: limited access to credit and capital markets, extreme environmental degradation (which depletes agricultural production potential), corrupt governance, capital flight, poor education systems, disease ecology, lack of public health care, war and poor infrastructure [REF]. \n\nNations like this include Sierra Leone and the Democratic Republic of the Congo. \n\nJeffrey Sachs, in his book The End of Poverty, discusses the poverty trap and prescribes a set of policy initiatives intended to end the trap. He recommends that aid agencies behave as venture capitalists funding start-up companies. Venture capitalists, once they choose to invest in a venture, do not give only half or a third of the amount they feel the venture needs in order to become profitable; if they did, their money would be wasted. If all goes as planned, the venture will eventually become profitable and the venture capitalist will experience an adequate rate of return on investment. Likewise, Sachs proposes, developed countries cannot give only a fraction of what is needed in aid and expect to reverse the poverty trap in Africa. Just like any other start-up, developing nations absolutely must receive the amount of aid necessary (and promised at the G-8 Summit in 2005[REF]) for them to begin to reverse the poverty trap. The problem is that unlike start-ups, which simply go bankrupt if they fail to receive funding, in Africa people continue to die at a high rate due in large part to lack of sufficient aid. \n\nSachs points out that the extreme poor lack six major kinds of capital: human capital, business capital, infrastructure, natural capital, public institutional capital, and knowledge capital [REF]. He then details the poverty trap: The poor start with a very low level of capital per person, and then find themselves trapped in poverty because the ratio of capital per person actually falls from generation to generation. The amount of capital per person declines when the population is growing faster than capital is being accumulated .. The question for growth in per capita income is whether the net capital accumulation is large enough to keep up with population growth. \n\nSachs argues that sufficient foreign aid can make up for the lack of capital in poor countries, maintaining that, \xe2\x80\x9cIf the foreign assistance is substantial enough, and lasts long enough, the capital stock rises sufficiently to lift households above subsistence.\xe2\x80\x9d . \n\nSachs believes the public sector should focus mainly on investments in human capital (health, education, nutrition), infrastructure (roads, power, water and sanitation, environmental conservation), natural capital (conservation of biodiversity and ecosystems), public institutional capital (a well-run public administration, judicial system, police force), and parts of knowledge capital (scientific research for health, energy, agriculture, climate, ecology) [REF]. Sachs leaves business capital investments to the private sector, which would more efficiently use funding to develop the profitable enterprises necessary to sustain growth. In this sense, Sachs views public institutions as useful in providing the public goods necessary to begin the Rostovian take-off model, but maintains that private goods are more efficiently produced and distributed by private enterprise [REF]. This is a widespread view in neoclassical economics.'
p9
sS'idx'
p10
I0
sS'tknFeatures'
p11
(lp12
sS'docFeatures'
p13
(dp14
S'file_id'
p15
S'Poverty_trap'
p16
ssS'items'
p17
(dp18
S'raw'
p19
VA poverty trap is "any self-reinforcing mechanism which causes poverty to persist."[REF] If it persists from generation to generation, the trap begins to reinforce itself if steps are not taken to break the cycle.\u000a\u000aIn the developing world, many factors can contribute to a poverty trap, including: limited access to credit and capital markets, extreme environmental degradation (which depletes agricultural production potential), corrupt governance, capital flight, poor education systems, disease ecology, lack of public health care, war and poor infrastructure [REF]. \u000a\u000aNations like this include Sierra Leone and the Democratic Republic of the Congo. \u000a\u000aJeffrey Sachs, in his book The End of Poverty, discusses the poverty trap and prescribes a set of policy initiatives intended to end the trap. He recommends that aid agencies behave as venture capitalists funding start-up companies. Venture capitalists, once they choose to invest in a venture, do not give only half or a third of the amount they feel the venture needs in order to become profitable; if they did, their money would be wasted. If all goes as planned, the venture will eventually become profitable and the venture capitalist will experience an adequate rate of return on investment. Likewise, Sachs proposes, developed countries cannot give only a fraction of what is needed in aid and expect to reverse the poverty trap in Africa. Just like any other start-up, developing nations absolutely must receive the amount of aid necessary (and promised at the G-8 Summit in 2005[REF]) for them to begin to reverse the poverty trap. The problem is that unlike start-ups, which simply go bankrupt if they fail to receive funding, in Africa people continue to die at a high rate due in large part to lack of sufficient aid. \u000a\u000aSachs points out that the extreme poor lack six major kinds of capital: human capital, business capital, infrastructure, natural capital, public institutional capital, and knowledge capital [REF]. He then details the poverty trap: The poor start with a very low level of capital per person, and then find themselves trapped in poverty because the ratio of capital per person actually falls from generation to generation. The amount of capital per person declines when the population is growing faster than capital is being accumulated .. The question for growth in per capita income is whether the net capital accumulation is large enough to keep up with population growth. \u000a\u000aSachs argues that sufficient foreign aid can make up for the lack of capital in poor countries, maintaining that, \u201cIf the foreign assistance is substantial enough, and lasts long enough, the capital stock rises sufficiently to lift households above subsistence.\u201d . \u000a\u000aSachs believes the public sector should focus mainly on investments in human capital (health, education, nutrition), infrastructure (roads, power, water and sanitation, environmental conservation), natural capital (conservation of biodiversity and ecosystems), public institutional capital (a well-run public administration, judicial system, police force), and parts of knowledge capital (scientific research for health, energy, agriculture, climate, ecology) [REF]. Sachs leaves business capital investments to the private sector, which would more efficiently use funding to develop the profitable enterprises necessary to sustain growth. In this sense, Sachs views public institutions as useful in providing the public goods necessary to begin the Rostovian take-off model, but maintains that private goods are more efficiently produced and distributed by private enterprise [REF]. This is a widespread view in neoclassical economics.
p20
sS'Token'
p21
(lp22
g0
(cpygate.annotation
Annotation
p23
g2
Ntp24
Rp25
(dp26
S'features'
p27
(dp28
S'lemma'
p29
Va
p30
sS'ner'
p31
VO
p32
sS'pos'
p33
VDT
p34
sS'index'
p35
I1
ssg10
I0
sS'doc'
p36
g4
sS'labels'
p37
(dp38
sS'relations'
p39
(dp40
sS'cStart'
p41
I0
sS'subType'
p42
g21
sS'annoType'
p43
g21
sS'tStart'
p44
I0
sS'text'
p45
VA
p46
sS'tEnd'
p47
I0
sS'cEnd'
p48
I1
sbag0
(g23
g2
Ntp49
Rp50
(dp51
g27
(dp52
g29
Vpoverty
p53
sg31
VO
p54
sg33
VNN
p55
sg35
I2
ssg10
I1
sg36
g4
sg37
(dp56
sg39
(dp57
sg41
I2
sg42
g21
sg43
g21
sg44
I1
sg45
Vpoverty
p58
sg47
I1
sg48
I9
sbag0
(g23
g2
Ntp59
Rp60
(dp61
g27
(dp62
g29
Vtrap
p63
sg31
VO
p64
sg33
VNN
p65
sg35
I3
ssg10
I2
sg36
g4
sg37
(dp66
sg39
(dp67
sg41
I10
sg42
g21
sg43
g21
sg44
I2
sg45
Vtrap
p68
sg47
I2
sg48
I14
sbag0
(g23
g2
Ntp69
Rp70
(dp71
g27
(dp72
g29
Vbe
p73
sg31
VO
p74
sg33
VVBZ
p75
sg35
I4
ssg10
I3
sg36
g4
sg37
(dp76
sg39
(dp77
sg41
I15
sg42
g21
sg43
g21
sg44
I3
sg45
Vis
p78
sg47
I3
sg48
I17
sbag0
(g23
g2
Ntp79
Rp80
(dp81
g27
(dp82
g29
V``
p83
sg31
VO
p84
sg33
V``
p85
sg35
I5
ssg10
I4
sg36
g4
sg37
(dp86
sg39
(dp87
sg41
I18
sg42
g21
sg43
g21
sg44
I4
sg45
V"
p88
sg47
I4
sg48
I19
sbag0
(g23
g2
Ntp89
Rp90
(dp91
g27
(dp92
g29
Vany
p93
sg31
VO
p94
sg33
VDT
p95
sg35
I6
ssg10
I5
sg36
g4
sg37
(dp96
sg39
(dp97
sg41
I19
sg42
g21
sg43
g21
sg44
I5
sg45
Vany
p98
sg47
I5
sg48
I22
sbag0
(g23
g2
Ntp99
Rp100
(dp101
g27
(dp102
g29
Vself-reinforcing
p103
sg31
VO
p104
sg33
VJJ
p105
sg35
I7
ssg10
I6
sg36
g4
sg37
(dp106
sg39
(dp107
sg41
I23
sg42
g21
sg43
g21
sg44
I6
sg45
Vself-reinforcing
p108
sg47
I6
sg48
I39
sbag0
(g23
g2
Ntp109
Rp110
(dp111
g27
(dp112
g29
Vmechanism
p113
sg31
VO
p114
sg33
VNN
p115
sg35
I8
ssg10
I7
sg36
g4
sg37
(dp116
sg39
(dp117
sg41
I40
sg42
g21
sg43
g21
sg44
I7
sg45
Vmechanism
p118
sg47
I7
sg48
I49
sbag0
(g23
g2
Ntp119
Rp120
(dp121
g27
(dp122
g29
Vwhich
p123
sg31
VO
p124
sg33
VWDT
p125
sg35
I9
ssg10
I8
sg36
g4
sg37
(dp126
sg39
(dp127
sg41
I50
sg42
g21
sg43
g21
sg44
I8
sg45
Vwhich
p128
sg47
I8
sg48
I55
sbag0
(g23
g2
Ntp129
Rp130
(dp131
g27
(dp132
g29
Vcause
p133
sg31
VO
p134
sg33
VVBZ
p135
sg35
I10
ssg10
I9
sg36
g4
sg37
(dp136
sg39
(dp137
sg41
I56
sg42
g21
sg43
g21
sg44
I9
sg45
Vcauses
p138
sg47
I9
sg48
I62
sbag0
(g23
g2
Ntp139
Rp140
(dp141
g27
(dp142
g29
Vpoverty
p143
sg31
VO
p144
sg33
VNN
p145
sg35
I11
ssg10
I10
sg36
g4
sg37
(dp146
sg39
(dp147
sg41
I63
sg42
g21
sg43
g21
sg44
I10
sg45
Vpoverty
p148
sg47
I10
sg48
I70
sbag0
(g23
g2
Ntp149
Rp150
(dp151
g27
(dp152
g29
Vto
p153
sg31
VO
p154
sg33
VTO
p155
sg35
I12
ssg10
I11
sg36
g4
sg37
(dp156
sg39
(dp157
sg41
I71
sg42
g21
sg43
g21
sg44
I11
sg45
Vto
p158
sg47
I11
sg48
I73
sbag0
(g23
g2
Ntp159
Rp160
(dp161
g27
(dp162
g29
Vpersist
p163
sg31
VO
p164
sg33
VVB
p165
sg35
I13
ssg10
I12
sg36
g4
sg37
(dp166
sg39
(dp167
sg41
I74
sg42
g21
sg43
g21
sg44
I12
sg45
Vpersist
p168
sg47
I12
sg48
I81
sbag0
(g23
g2
Ntp169
Rp170
(dp171
g27
(dp172
g29
V.
p173
sg31
VO
p174
sg33
V.
p175
sg35
I14
ssg10
I13
sg36
g4
sg37
(dp176
sg39
(dp177
sg41
I81
sg42
g21
sg43
g21
sg44
I13
sg45
V.
p178
sg47
I13
sg48
I82
sbag0
(g23
g2
Ntp179
Rp180
(dp181
g27
(dp182
g29
V''
p183
sg31
VO
p184
sg33
V''
p185
sg35
I15
ssg10
I14
sg36
g4
sg37
(dp186
sg39
(dp187
sg41
I82
sg42
g21
sg43
g21
sg44
I14
sg45
g88
sg47
I14
sg48
I83
sbag0
(g23
g2
Ntp188
Rp189
(dp190
g27
(dp191
g29
V-lsb-
p192
sg31
VO
p193
sg33
V-LRB-
p194
sg35
I1
ssg10
I15
sg36
g4
sg37
(dp195
sg39
(dp196
sg41
I83
sg42
g21
sg43
g21
sg44
I15
sg45
V[
p197
sg47
I15
sg48
I84
sbag0
(g23
g2
Ntp198
Rp199
(dp200
g27
(dp201
g29
Vref
p202
sg31
VO
p203
sg33
VNN
p204
sg35
I2
ssg10
I16
sg36
g4
sg37
(dp205
sg39
(dp206
sg41
I84
sg42
g21
sg43
g21
sg44
I16
sg45
VREF
p207
sg47
I16
sg48
I87
sbag0
(g23
g2
Ntp208
Rp209
(dp210
g27
(dp211
g29
V-rsb-
p212
sg31
VO
p213
sg33
V-RRB-
p214
sg35
I3
ssg10
I17
sg36
g4
sg37
(dp215
sg39
(dp216
sg41
I87
sg42
g21
sg43
g21
sg44
I17
sg45
V]
p217
sg47
I17
sg48
I88
sbag0
(g23
g2
Ntp218
Rp219
(dp220
g27
(dp221
g29
Vif
p222
sg31
VO
p223
sg33
VIN
p224
sg35
I4
ssg10
I18
sg36
g4
sg37
(dp225
sg39
(dp226
sg41
I89
sg42
g21
sg43
g21
sg44
I18
sg45
VIf
p227
sg47
I18
sg48
I91
sbag0
(g23
g2
Ntp228
Rp229
(dp230
g27
(dp231
g29
Vit
p232
sg31
VO
p233
sg33
VPRP
p234
sg35
I5
ssg10
I19
sg36
g4
sg37
(dp235
sg39
(dp236
sg41
I92
sg42
g21
sg43
g21
sg44
I19
sg45
Vit
p237
sg47
I19
sg48
I94
sbag0
(g23
g2
Ntp238
Rp239
(dp240
g27
(dp241
g29
Vpersist
p242
sg31
VO
p243
sg33
VVBZ
p244
sg35
I6
ssg10
I20
sg36
g4
sg37
(dp245
sg39
(dp246
sg41
I95
sg42
g21
sg43
g21
sg44
I20
sg45
Vpersists
p247
sg47
I20
sg48
I103
sbag0
(g23
g2
Ntp248
Rp249
(dp250
g27
(dp251
g29
Vfrom
p252
sg31
VO
p253
sg33
VIN
p254
sg35
I7
ssg10
I21
sg36
g4
sg37
(dp255
sg39
(dp256
sg41
I104
sg42
g21
sg43
g21
sg44
I21
sg45
Vfrom
p257
sg47
I21
sg48
I108
sbag0
(g23
g2
Ntp258
Rp259
(dp260
g27
(dp261
g29
Vgeneration
p262
sg31
VO
p263
sg33
VNN
p264
sg35
I8
ssg10
I22
sg36
g4
sg37
(dp265
sg39
(dp266
sg41
I109
sg42
g21
sg43
g21
sg44
I22
sg45
Vgeneration
p267
sg47
I22
sg48
I119
sbag0
(g23
g2
Ntp268
Rp269
(dp270
g27
(dp271
g29
Vto
p272
sg31
VO
p273
sg33
VTO
p274
sg35
I9
ssg10
I23
sg36
g4
sg37
(dp275
sg39
(dp276
sg41
I120
sg42
g21
sg43
g21
sg44
I23
sg45
Vto
p277
sg47
I23
sg48
I122
sbag0
(g23
g2
Ntp278
Rp279
(dp280
g27
(dp281
g29
Vgeneration
p282
sg31
VO
p283
sg33
VNN
p284
sg35
I10
ssg10
I24
sg36
g4
sg37
(dp285
sg39
(dp286
sg41
I123
sg42
g21
sg43
g21
sg44
I24
sg45
Vgeneration
p287
sg47
I24
sg48
I133
sbag0
(g23
g2
Ntp288
Rp289
(dp290
g27
(dp291
g29
V,
p292
sg31
VO
p293
sg33
V,
p294
sg35
I11
ssg10
I25
sg36
g4
sg37
(dp295
sg39
(dp296
sg41
I133
sg42
g21
sg43
g21
sg44
I25
sg45
V,
p297
sg47
I25
sg48
I134
sbag0
(g23
g2
Ntp298
Rp299
(dp300
g27
(dp301
g29
Vthe
p302
sg31
VO
p303
sg33
VDT
p304
sg35
I12
ssg10
I26
sg36
g4
sg37
(dp305
sg39
(dp306
sg41
I135
sg42
g21
sg43
g21
sg44
I26
sg45
Vthe
p307
sg47
I26
sg48
I138
sbag0
(g23
g2
Ntp308
Rp309
(dp310
g27
(dp311
g29
Vtrap
p312
sg31
VO
p313
sg33
VNN
p314
sg35
I13
ssg10
I27
sg36
g4
sg37
(dp315
sg39
(dp316
sg41
I139
sg42
g21
sg43
g21
sg44
I27
sg45
Vtrap
p317
sg47
I27
sg48
I143
sbag0
(g23
g2
Ntp318
Rp319
(dp320
g27
(dp321
g29
Vbegin
p322
sg31
VO
p323
sg33
VVBZ
p324
sg35
I14
ssg10
I28
sg36
g4
sg37
(dp325
sg39
(dp326
sg41
I144
sg42
g21
sg43
g21
sg44
I28
sg45
Vbegins
p327
sg47
I28
sg48
I150
sbag0
(g23
g2
Ntp328
Rp329
(dp330
g27
(dp331
g29
Vto
p332
sg31
VO
p333
sg33
VTO
p334
sg35
I15
ssg10
I29
sg36
g4
sg37
(dp335
sg39
(dp336
sg41
I151
sg42
g21
sg43
g21
sg44
I29
sg45
Vto
p337
sg47
I29
sg48
I153
sbag0
(g23
g2
Ntp338
Rp339
(dp340
g27
(dp341
g29
Vreinforce
p342
sg31
VO
p343
sg33
VVB
p344
sg35
I16
ssg10
I30
sg36
g4
sg37
(dp345
sg39
(dp346
sg41
I154
sg42
g21
sg43
g21
sg44
I30
sg45
Vreinforce
p347
sg47
I30
sg48
I163
sbag0
(g23
g2
Ntp348
Rp349
(dp350
g27
(dp351
g29
Vitself
p352
sg31
VO
p353
sg33
VPRP
p354
sg35
I17
ssg10
I31
sg36
g4
sg37
(dp355
sg39
(dp356
sg41
I164
sg42
g21
sg43
g21
sg44
I31
sg45
Vitself
p357
sg47
I31
sg48
I170
sbag0
(g23
g2
Ntp358
Rp359
(dp360
g27
(dp361
g29
Vif
p362
sg31
VO
p363
sg33
VIN
p364
sg35
I18
ssg10
I32
sg36
g4
sg37
(dp365
sg39
(dp366
sg41
I171
sg42
g21
sg43
g21
sg44
I32
sg45
Vif
p367
sg47
I32
sg48
I173
sbag0
(g23
g2
Ntp368
Rp369
(dp370
g27
(dp371
g29
Vstep
p372
sg31
VO
p373
sg33
VNNS
p374
sg35
I19
ssg10
I33
sg36
g4
sg37
(dp375
sg39
(dp376
sg41
I174
sg42
g21
sg43
g21
sg44
I33
sg45
Vsteps
p377
sg47
I33
sg48
I179
sbag0
(g23
g2
Ntp378
Rp379
(dp380
g27
(dp381
g29
Vbe
p382
sg31
VO
p383
sg33
VVBP
p384
sg35
I20
ssg10
I34
sg36
g4
sg37
(dp385
sg39
(dp386
sg41
I180
sg42
g21
sg43
g21
sg44
I34
sg45
Vare
p387
sg47
I34
sg48
I183
sbag0
(g23
g2
Ntp388
Rp389
(dp390
g27
(dp391
g29
Vnot
p392
sg31
VO
p393
sg33
VRB
p394
sg35
I21
ssg10
I35
sg36
g4
sg37
(dp395
sg39
(dp396
sg41
I184
sg42
g21
sg43
g21
sg44
I35
sg45
Vnot
p397
sg47
I35
sg48
I187
sbag0
(g23
g2
Ntp398
Rp399
(dp400
g27
(dp401
g29
Vtake
p402
sg31
VO
p403
sg33
VVBN
p404
sg35
I22
ssg10
I36
sg36
g4
sg37
(dp405
sg39
(dp406
sg41
I188
sg42
g21
sg43
g21
sg44
I36
sg45
Vtaken
p407
sg47
I36
sg48
I193
sbag0
(g23
g2
Ntp408
Rp409
(dp410
g27
(dp411
g29
Vto
p412
sg31
VO
p413
sg33
VTO
p414
sg35
I23
ssg10
I37
sg36
g4
sg37
(dp415
sg39
(dp416
sg41
I194
sg42
g21
sg43
g21
sg44
I37
sg45
Vto
p417
sg47
I37
sg48
I196
sbag0
(g23
g2
Ntp418
Rp419
(dp420
g27
(dp421
g29
Vbreak
p422
sg31
VO
p423
sg33
VVB
p424
sg35
I24
ssg10
I38
sg36
g4
sg37
(dp425
sg39
(dp426
sg41
I197
sg42
g21
sg43
g21
sg44
I38
sg45
Vbreak
p427
sg47
I38
sg48
I202
sbag0
(g23
g2
Ntp428
Rp429
(dp430
g27
(dp431
g29
Vthe
p432
sg31
VO
p433
sg33
VDT
p434
sg35
I25
ssg10
I39
sg36
g4
sg37
(dp435
sg39
(dp436
sg41
I203
sg42
g21
sg43
g21
sg44
I39
sg45
Vthe
p437
sg47
I39
sg48
I206
sbag0
(g23
g2
Ntp438
Rp439
(dp440
g27
(dp441
g29
Vcycle
p442
sg31
VO
p443
sg33
VNN
p444
sg35
I26
ssg10
I40
sg36
g4
sg37
(dp445
sg39
(dp446
sg41
I207
sg42
g21
sg43
g21
sg44
I40
sg45
Vcycle
p447
sg47
I40
sg48
I212
sbag0
(g23
g2
Ntp448
Rp449
(dp450
g27
(dp451
g29
V.
p452
sg31
VO
p453
sg33
V.
p454
sg35
I27
ssg10
I41
sg36
g4
sg37
(dp455
sg39
(dp456
sg41
I212
sg42
g21
sg43
g21
sg44
I41
sg45
V.
p457
sg47
I41
sg48
I213
sbag0
(g23
g2
Ntp458
Rp459
(dp460
g27
(dp461
g29
Vin
p462
sg31
VO
p463
sg33
VIN
p464
sg35
I1
ssg10
I42
sg36
g4
sg37
(dp465
sg39
(dp466
sg41
I215
sg42
g21
sg43
g21
sg44
I42
sg45
VIn
p467
sg47
I42
sg48
I217
sbag0
(g23
g2
Ntp468
Rp469
(dp470
g27
(dp471
g29
Vthe
p472
sg31
VO
p473
sg33
VDT
p474
sg35
I2
ssg10
I43
sg36
g4
sg37
(dp475
sg39
(dp476
sg41
I218
sg42
g21
sg43
g21
sg44
I43
sg45
Vthe
p477
sg47
I43
sg48
I221
sbag0
(g23
g2
Ntp478
Rp479
(dp480
g27
(dp481
g29
Vdevelop
p482
sg31
VO
p483
sg33
VVBG
p484
sg35
I3
ssg10
I44
sg36
g4
sg37
(dp485
sg39
(dp486
sg41
I222
sg42
g21
sg43
g21
sg44
I44
sg45
Vdeveloping
p487
sg47
I44
sg48
I232
sbag0
(g23
g2
Ntp488
Rp489
(dp490
g27
(dp491
g29
Vworld
p492
sg31
VO
p493
sg33
VNN
p494
sg35
I4
ssg10
I45
sg36
g4
sg37
(dp495
sg39
(dp496
sg41
I233
sg42
g21
sg43
g21
sg44
I45
sg45
Vworld
p497
sg47
I45
sg48
I238
sbag0
(g23
g2
Ntp498
Rp499
(dp500
g27
(dp501
g29
V,
p502
sg31
VO
p503
sg33
V,
p504
sg35
I5
ssg10
I46
sg36
g4
sg37
(dp505
sg39
(dp506
sg41
I238
sg42
g21
sg43
g21
sg44
I46
sg45
V,
p507
sg47
I46
sg48
I239
sbag0
(g23
g2
Ntp508
Rp509
(dp510
g27
(dp511
g29
Vmany
p512
sg31
VO
p513
sg33
VJJ
p514
sg35
I6
ssg10
I47
sg36
g4
sg37
(dp515
sg39
(dp516
sg41
I240
sg42
g21
sg43
g21
sg44
I47
sg45
Vmany
p517
sg47
I47
sg48
I244
sbag0
(g23
g2
Ntp518
Rp519
(dp520
g27
(dp521
g29
Vfactor
p522
sg31
VO
p523
sg33
VNNS
p524
sg35
I7
ssg10
I48
sg36
g4
sg37
(dp525
sg39
(dp526
sg41
I245
sg42
g21
sg43
g21
sg44
I48
sg45
Vfactors
p527
sg47
I48
sg48
I252
sbag0
(g23
g2
Ntp528
Rp529
(dp530
g27
(dp531
g29
Vcan
p532
sg31
VO
p533
sg33
VMD
p534
sg35
I8
ssg10
I49
sg36
g4
sg37
(dp535
sg39
(dp536
sg41
I253
sg42
g21
sg43
g21
sg44
I49
sg45
Vcan
p537
sg47
I49
sg48
I256
sbag0
(g23
g2
Ntp538
Rp539
(dp540
g27
(dp541
g29
Vcontribute
p542
sg31
VO
p543
sg33
VVB
p544
sg35
I9
ssg10
I50
sg36
g4
sg37
(dp545
sg39
(dp546
sg41
I257
sg42
g21
sg43
g21
sg44
I50
sg45
Vcontribute
p547
sg47
I50
sg48
I267
sbag0
(g23
g2
Ntp548
Rp549
(dp550
g27
(dp551
g29
Vto
p552
sg31
VO
p553
sg33
VTO
p554
sg35
I10
ssg10
I51
sg36
g4
sg37
(dp555
sg39
(dp556
sg41
I268
sg42
g21
sg43
g21
sg44
I51
sg45
Vto
p557
sg47
I51
sg48
I270
sbag0
(g23
g2
Ntp558
Rp559
(dp560
g27
(dp561
g29
Va
p562
sg31
VO
p563
sg33
VDT
p564
sg35
I11
ssg10
I52
sg36
g4
sg37
(dp565
sg39
(dp566
sg41
I271
sg42
g21
sg43
g21
sg44
I52
sg45
Va
p567
sg47
I52
sg48
I272
sbag0
(g23
g2
Ntp568
Rp569
(dp570
g27
(dp571
g29
Vpoverty
p572
sg31
VO
p573
sg33
VNN
p574
sg35
I12
ssg10
I53
sg36
g4
sg37
(dp575
sg39
(dp576
sg41
I273
sg42
g21
sg43
g21
sg44
I53
sg45
Vpoverty
p577
sg47
I53
sg48
I280
sbag0
(g23
g2
Ntp578
Rp579
(dp580
g27
(dp581
g29
Vtrap
p582
sg31
VO
p583
sg33
VNN
p584
sg35
I13
ssg10
I54
sg36
g4
sg37
(dp585
sg39
(dp586
sg41
I281
sg42
g21
sg43
g21
sg44
I54
sg45
Vtrap
p587
sg47
I54
sg48
I285
sbag0
(g23
g2
Ntp588
Rp589
(dp590
g27
(dp591
g29
V,
p592
sg31
VO
p593
sg33
V,
p594
sg35
I14
ssg10
I55
sg36
g4
sg37
(dp595
sg39
(dp596
sg41
I285
sg42
g21
sg43
g21
sg44
I55
sg45
V,
p597
sg47
I55
sg48
I286
sbag0
(g23
g2
Ntp598
Rp599
(dp600
g27
(dp601
g29
Vinclude
p602
sg31
VO
p603
sg33
VVBG
p604
sg35
I15
ssg10
I56
sg36
g4
sg37
(dp605
sg39
(dp606
sg41
I287
sg42
g21
sg43
g21
sg44
I56
sg45
Vincluding
p607
sg47
I56
sg48
I296
sbag0
(g23
g2
Ntp608
Rp609
(dp610
g27
(dp611
g29
V:
p612
sg31
VO
p613
sg33
V:
p614
sg35
I16
ssg10
I57
sg36
g4
sg37
(dp615
sg39
(dp616
sg41
I296
sg42
g21
sg43
g21
sg44
I57
sg45
V:
p617
sg47
I57
sg48
I297
sbag0
(g23
g2
Ntp618
Rp619
(dp620
g27
(dp621
g29
Vlimited
p622
sg31
VO
p623
sg33
VJJ
p624
sg35
I17
ssg10
I58
sg36
g4
sg37
(dp625
sg39
(dp626
sg41
I298
sg42
g21
sg43
g21
sg44
I58
sg45
Vlimited
p627
sg47
I58
sg48
I305
sbag0
(g23
g2
Ntp628
Rp629
(dp630
g27
(dp631
g29
Vaccess
p632
sg31
VO
p633
sg33
VNN
p634
sg35
I18
ssg10
I59
sg36
g4
sg37
(dp635
sg39
(dp636
sg41
I306
sg42
g21
sg43
g21
sg44
I59
sg45
Vaccess
p637
sg47
I59
sg48
I312
sbag0
(g23
g2
Ntp638
Rp639
(dp640
g27
(dp641
g29
Vto
p642
sg31
VO
p643
sg33
VTO
p644
sg35
I19
ssg10
I60
sg36
g4
sg37
(dp645
sg39
(dp646
sg41
I313
sg42
g21
sg43
g21
sg44
I60
sg45
Vto
p647
sg47
I60
sg48
I315
sbag0
(g23
g2
Ntp648
Rp649
(dp650
g27
(dp651
g29
Vcredit
p652
sg31
VO
p653
sg33
VNN
p654
sg35
I20
ssg10
I61
sg36
g4
sg37
(dp655
sg39
(dp656
sg41
I316
sg42
g21
sg43
g21
sg44
I61
sg45
Vcredit
p657
sg47
I61
sg48
I322
sbag0
(g23
g2
Ntp658
Rp659
(dp660
g27
(dp661
g29
Vand
p662
sg31
VO
p663
sg33
VCC
p664
sg35
I21
ssg10
I62
sg36
g4
sg37
(dp665
sg39
(dp666
sg41
I323
sg42
g21
sg43
g21
sg44
I62
sg45
Vand
p667
sg47
I62
sg48
I326
sbag0
(g23
g2
Ntp668
Rp669
(dp670
g27
(dp671
g29
Vcapital
p672
sg31
VO
p673
sg33
VNN
p674
sg35
I22
ssg10
I63
sg36
g4
sg37
(dp675
sg39
(dp676
sg41
I327
sg42
g21
sg43
g21
sg44
I63
sg45
Vcapital
p677
sg47
I63
sg48
I334
sbag0
(g23
g2
Ntp678
Rp679
(dp680
g27
(dp681
g29
Vmarket
p682
sg31
VO
p683
sg33
VNNS
p684
sg35
I23
ssg10
I64
sg36
g4
sg37
(dp685
sg39
(dp686
sg41
I335
sg42
g21
sg43
g21
sg44
I64
sg45
Vmarkets
p687
sg47
I64
sg48
I342
sbag0
(g23
g2
Ntp688
Rp689
(dp690
g27
(dp691
g29
V,
p692
sg31
VO
p693
sg33
V,
p694
sg35
I24
ssg10
I65
sg36
g4
sg37
(dp695
sg39
(dp696
sg41
I342
sg42
g21
sg43
g21
sg44
I65
sg45
V,
p697
sg47
I65
sg48
I343
sbag0
(g23
g2
Ntp698
Rp699
(dp700
g27
(dp701
g29
Vextreme
p702
sg31
VO
p703
sg33
VJJ
p704
sg35
I25
ssg10
I66
sg36
g4
sg37
(dp705
sg39
(dp706
sg41
I344
sg42
g21
sg43
g21
sg44
I66
sg45
Vextreme
p707
sg47
I66
sg48
I351
sbag0
(g23
g2
Ntp708
Rp709
(dp710
g27
(dp711
g29
Venvironmental
p712
sg31
VO
p713
sg33
VJJ
p714
sg35
I26
ssg10
I67
sg36
g4
sg37
(dp715
sg39
(dp716
sg41
I352
sg42
g21
sg43
g21
sg44
I67
sg45
Venvironmental
p717
sg47
I67
sg48
I365
sbag0
(g23
g2
Ntp718
Rp719
(dp720
g27
(dp721
g29
Vdegradation
p722
sg31
VO
p723
sg33
VNN
p724
sg35
I27
ssg10
I68
sg36
g4
sg37
(dp725
sg39
(dp726
sg41
I366
sg42
g21
sg43
g21
sg44
I68
sg45
Vdegradation
p727
sg47
I68
sg48
I377
sbag0
(g23
g2
Ntp728
Rp729
(dp730
g27
(dp731
g29
V-lrb-
p732
sg31
VO
p733
sg33
V-LRB-
p734
sg35
I28
ssg10
I69
sg36
g4
sg37
(dp735
sg39
(dp736
sg41
I378
sg42
g21
sg43
g21
sg44
I69
sg45
V(
p737
sg47
I69
sg48
I379
sbag0
(g23
g2
Ntp738
Rp739
(dp740
g27
(dp741
g29
Vwhich
p742
sg31
VO
p743
sg33
VWDT
p744
sg35
I29
ssg10
I70
sg36
g4
sg37
(dp745
sg39
(dp746
sg41
I379
sg42
g21
sg43
g21
sg44
I70
sg45
Vwhich
p747
sg47
I70
sg48
I384
sbag0
(g23
g2
Ntp748
Rp749
(dp750
g27
(dp751
g29
Vdeplete
p752
sg31
VO
p753
sg33
VVBZ
p754
sg35
I30
ssg10
I71
sg36
g4
sg37
(dp755
sg39
(dp756
sg41
I385
sg42
g21
sg43
g21
sg44
I71
sg45
Vdepletes
p757
sg47
I71
sg48
I393
sbag0
(g23
g2
Ntp758
Rp759
(dp760
g27
(dp761
g29
Vagricultural
p762
sg31
VO
p763
sg33
VJJ
p764
sg35
I31
ssg10
I72
sg36
g4
sg37
(dp765
sg39
(dp766
sg41
I394
sg42
g21
sg43
g21
sg44
I72
sg45
Vagricultural
p767
sg47
I72
sg48
I406
sbag0
(g23
g2
Ntp768
Rp769
(dp770
g27
(dp771
g29
Vproduction
p772
sg31
VO
p773
sg33
VNN
p774
sg35
I32
ssg10
I73
sg36
g4
sg37
(dp775
sg39
(dp776
sg41
I407
sg42
g21
sg43
g21
sg44
I73
sg45
Vproduction
p777
sg47
I73
sg48
I417
sbag0
(g23
g2
Ntp778
Rp779
(dp780
g27
(dp781
g29
Vpotential
p782
sg31
VO
p783
sg33
VNN
p784
sg35
I33
ssg10
I74
sg36
g4
sg37
(dp785
sg39
(dp786
sg41
I418
sg42
g21
sg43
g21
sg44
I74
sg45
Vpotential
p787
sg47
I74
sg48
I427
sbag0
(g23
g2
Ntp788
Rp789
(dp790
g27
(dp791
g29
V-rrb-
p792
sg31
VO
p793
sg33
V-RRB-
p794
sg35
I34
ssg10
I75
sg36
g4
sg37
(dp795
sg39
(dp796
sg41
I427
sg42
g21
sg43
g21
sg44
I75
sg45
V)
p797
sg47
I75
sg48
I428
sbag0
(g23
g2
Ntp798
Rp799
(dp800
g27
(dp801
g29
V,
p802
sg31
VO
p803
sg33
V,
p804
sg35
I35
ssg10
I76
sg36
g4
sg37
(dp805
sg39
(dp806
sg41
I428
sg42
g21
sg43
g21
sg44
I76
sg45
V,
p807
sg47
I76
sg48
I429
sbag0
(g23
g2
Ntp808
Rp809
(dp810
g27
(dp811
g29
Vcorrupt
p812
sg31
VO
p813
sg33
VJJ
p814
sg35
I36
ssg10
I77
sg36
g4
sg37
(dp815
sg39
(dp816
sg41
I430
sg42
g21
sg43
g21
sg44
I77
sg45
Vcorrupt
p817
sg47
I77
sg48
I437
sbag0
(g23
g2
Ntp818
Rp819
(dp820
g27
(dp821
g29
Vgovernance
p822
sg31
VO
p823
sg33
VNN
p824
sg35
I37
ssg10
I78
sg36
g4
sg37
(dp825
sg39
(dp826
sg41
I438
sg42
g21
sg43
g21
sg44
I78
sg45
Vgovernance
p827
sg47
I78
sg48
I448
sbag0
(g23
g2
Ntp828
Rp829
(dp830
g27
(dp831
g29
V,
p832
sg31
VO
p833
sg33
V,
p834
sg35
I38
ssg10
I79
sg36
g4
sg37
(dp835
sg39
(dp836
sg41
I448
sg42
g21
sg43
g21
sg44
I79
sg45
V,
p837
sg47
I79
sg48
I449
sbag0
(g23
g2
Ntp838
Rp839
(dp840
g27
(dp841
g29
Vcapital
p842
sg31
VO
p843
sg33
VNN
p844
sg35
I39
ssg10
I80
sg36
g4
sg37
(dp845
sg39
(dp846
sg41
I450
sg42
g21
sg43
g21
sg44
I80
sg45
Vcapital
p847
sg47
I80
sg48
I457
sbag0
(g23
g2
Ntp848
Rp849
(dp850
g27
(dp851
g29
Vflight
p852
sg31
VO
p853
sg33
VNN
p854
sg35
I40
ssg10
I81
sg36
g4
sg37
(dp855
sg39
(dp856
sg41
I458
sg42
g21
sg43
g21
sg44
I81
sg45
Vflight
p857
sg47
I81
sg48
I464
sbag0
(g23
g2
Ntp858
Rp859
(dp860
g27
(dp861
g29
V,
p862
sg31
VO
p863
sg33
V,
p864
sg35
I41
ssg10
I82
sg36
g4
sg37
(dp865
sg39
(dp866
sg41
I464
sg42
g21
sg43
g21
sg44
I82
sg45
V,
p867
sg47
I82
sg48
I465
sbag0
(g23
g2
Ntp868
Rp869
(dp870
g27
(dp871
g29
Vpoor
p872
sg31
VO
p873
sg33
VJJ
p874
sg35
I42
ssg10
I83
sg36
g4
sg37
(dp875
sg39
(dp876
sg41
I466
sg42
g21
sg43
g21
sg44
I83
sg45
Vpoor
p877
sg47
I83
sg48
I470
sbag0
(g23
g2
Ntp878
Rp879
(dp880
g27
(dp881
g29
Veducation
p882
sg31
VO
p883
sg33
VNN
p884
sg35
I43
ssg10
I84
sg36
g4
sg37
(dp885
sg39
(dp886
sg41
I471
sg42
g21
sg43
g21
sg44
I84
sg45
Veducation
p887
sg47
I84
sg48
I480
sbag0
(g23
g2
Ntp888
Rp889
(dp890
g27
(dp891
g29
Vsystem
p892
sg31
VO
p893
sg33
VNNS
p894
sg35
I44
ssg10
I85
sg36
g4
sg37
(dp895
sg39
(dp896
sg41
I481
sg42
g21
sg43
g21
sg44
I85
sg45
Vsystems
p897
sg47
I85
sg48
I488
sbag0
(g23
g2
Ntp898
Rp899
(dp900
g27
(dp901
g29
V,
p902
sg31
VO
p903
sg33
V,
p904
sg35
I45
ssg10
I86
sg36
g4
sg37
(dp905
sg39
(dp906
sg41
I488
sg42
g21
sg43
g21
sg44
I86
sg45
V,
p907
sg47
I86
sg48
I489
sbag0
(g23
g2
Ntp908
Rp909
(dp910
g27
(dp911
g29
Vdisease
p912
sg31
VO
p913
sg33
VNN
p914
sg35
I46
ssg10
I87
sg36
g4
sg37
(dp915
sg39
(dp916
sg41
I490
sg42
g21
sg43
g21
sg44
I87
sg45
Vdisease
p917
sg47
I87
sg48
I497
sbag0
(g23
g2
Ntp918
Rp919
(dp920
g27
(dp921
g29
Vecology
p922
sg31
VO
p923
sg33
VNN
p924
sg35
I47
ssg10
I88
sg36
g4
sg37
(dp925
sg39
(dp926
sg41
I498
sg42
g21
sg43
g21
sg44
I88
sg45
Vecology
p927
sg47
I88
sg48
I505
sbag0
(g23
g2
Ntp928
Rp929
(dp930
g27
(dp931
g29
V,
p932
sg31
VO
p933
sg33
V,
p934
sg35
I48
ssg10
I89
sg36
g4
sg37
(dp935
sg39
(dp936
sg41
I505
sg42
g21
sg43
g21
sg44
I89
sg45
V,
p937
sg47
I89
sg48
I506
sbag0
(g23
g2
Ntp938
Rp939
(dp940
g27
(dp941
g29
Vlack
p942
sg31
VO
p943
sg33
VNN
p944
sg35
I49
ssg10
I90
sg36
g4
sg37
(dp945
sg39
(dp946
sg41
I507
sg42
g21
sg43
g21
sg44
I90
sg45
Vlack
p947
sg47
I90
sg48
I511
sbag0
(g23
g2
Ntp948
Rp949
(dp950
g27
(dp951
g29
Vof
p952
sg31
VO
p953
sg33
VIN
p954
sg35
I50
ssg10
I91
sg36
g4
sg37
(dp955
sg39
(dp956
sg41
I512
sg42
g21
sg43
g21
sg44
I91
sg45
Vof
p957
sg47
I91
sg48
I514
sbag0
(g23
g2
Ntp958
Rp959
(dp960
g27
(dp961
g29
Vpublic
p962
sg31
VO
p963
sg33
VJJ
p964
sg35
I51
ssg10
I92
sg36
g4
sg37
(dp965
sg39
(dp966
sg41
I515
sg42
g21
sg43
g21
sg44
I92
sg45
Vpublic
p967
sg47
I92
sg48
I521
sbag0
(g23
g2
Ntp968
Rp969
(dp970
g27
(dp971
g29
Vhealth
p972
sg31
VO
p973
sg33
VNN
p974
sg35
I52
ssg10
I93
sg36
g4
sg37
(dp975
sg39
(dp976
sg41
I522
sg42
g21
sg43
g21
sg44
I93
sg45
Vhealth
p977
sg47
I93
sg48
I528
sbag0
(g23
g2
Ntp978
Rp979
(dp980
g27
(dp981
g29
Vcare
p982
sg31
VO
p983
sg33
VNN
p984
sg35
I53
ssg10
I94
sg36
g4
sg37
(dp985
sg39
(dp986
sg41
I529
sg42
g21
sg43
g21
sg44
I94
sg45
Vcare
p987
sg47
I94
sg48
I533
sbag0
(g23
g2
Ntp988
Rp989
(dp990
g27
(dp991
g29
V,
p992
sg31
VO
p993
sg33
V,
p994
sg35
I54
ssg10
I95
sg36
g4
sg37
(dp995
sg39
(dp996
sg41
I533
sg42
g21
sg43
g21
sg44
I95
sg45
V,
p997
sg47
I95
sg48
I534
sbag0
(g23
g2
Ntp998
Rp999
(dp1000
g27
(dp1001
g29
Vwar
p1002
sg31
VO
p1003
sg33
VNN
p1004
sg35
I55
ssg10
I96
sg36
g4
sg37
(dp1005
sg39
(dp1006
sg41
I535
sg42
g21
sg43
g21
sg44
I96
sg45
Vwar
p1007
sg47
I96
sg48
I538
sbag0
(g23
g2
Ntp1008
Rp1009
(dp1010
g27
(dp1011
g29
Vand
p1012
sg31
VO
p1013
sg33
VCC
p1014
sg35
I56
ssg10
I97
sg36
g4
sg37
(dp1015
sg39
(dp1016
sg41
I539
sg42
g21
sg43
g21
sg44
I97
sg45
Vand
p1017
sg47
I97
sg48
I542
sbag0
(g23
g2
Ntp1018
Rp1019
(dp1020
g27
(dp1021
g29
Vpoor
p1022
sg31
VO
p1023
sg33
VJJ
p1024
sg35
I57
ssg10
I98
sg36
g4
sg37
(dp1025
sg39
(dp1026
sg41
I543
sg42
g21
sg43
g21
sg44
I98
sg45
Vpoor
p1027
sg47
I98
sg48
I547
sbag0
(g23
g2
Ntp1028
Rp1029
(dp1030
g27
(dp1031
g29
Vinfrastructure
p1032
sg31
VO
p1033
sg33
VNN
p1034
sg35
I58
ssg10
I99
sg36
g4
sg37
(dp1035
sg39
(dp1036
sg41
I548
sg42
g21
sg43
g21
sg44
I99
sg45
Vinfrastructure
p1037
sg47
I99
sg48
I562
sbag0
(g23
g2
Ntp1038
Rp1039
(dp1040
g27
(dp1041
g29
V-lsb-
p1042
sg31
VO
p1043
sg33
V-LRB-
p1044
sg35
I59
ssg10
I100
sg36
g4
sg37
(dp1045
sg39
(dp1046
sg41
I563
sg42
g21
sg43
g21
sg44
I100
sg45
V[
p1047
sg47
I100
sg48
I564
sbag0
(g23
g2
Ntp1048
Rp1049
(dp1050
g27
(dp1051
g29
Vref
p1052
sg31
VO
p1053
sg33
VNN
p1054
sg35
I60
ssg10
I101
sg36
g4
sg37
(dp1055
sg39
(dp1056
sg41
I564
sg42
g21
sg43
g21
sg44
I101
sg45
VREF
p1057
sg47
I101
sg48
I567
sbag0
(g23
g2
Ntp1058
Rp1059
(dp1060
g27
(dp1061
g29
V-rsb-
p1062
sg31
VO
p1063
sg33
V-RRB-
p1064
sg35
I61
ssg10
I102
sg36
g4
sg37
(dp1065
sg39
(dp1066
sg41
I567
sg42
g21
sg43
g21
sg44
I102
sg45
V]
p1067
sg47
I102
sg48
I568
sbag0
(g23
g2
Ntp1068
Rp1069
(dp1070
g27
(dp1071
g29
V.
p1072
sg31
VO
p1073
sg33
V.
p1074
sg35
I62
ssg10
I103
sg36
g4
sg37
(dp1075
sg39
(dp1076
sg41
I568
sg42
g21
sg43
g21
sg44
I103
sg45
V.
p1077
sg47
I103
sg48
I569
sbag0
(g23
g2
Ntp1078
Rp1079
(dp1080
g27
(dp1081
g29
Vnation
p1082
sg31
VO
p1083
sg33
VNNS
p1084
sg35
I1
ssg10
I104
sg36
g4
sg37
(dp1085
sg39
(dp1086
sg41
I572
sg42
g21
sg43
g21
sg44
I104
sg45
VNations
p1087
sg47
I104
sg48
I579
sbag0
(g23
g2
Ntp1088
Rp1089
(dp1090
g27
(dp1091
g29
Vlike
p1092
sg31
VO
p1093
sg33
VIN
p1094
sg35
I2
ssg10
I105
sg36
g4
sg37
(dp1095
sg39
(dp1096
sg41
I580
sg42
g21
sg43
g21
sg44
I105
sg45
Vlike
p1097
sg47
I105
sg48
I584
sbag0
(g23
g2
Ntp1098
Rp1099
(dp1100
g27
(dp1101
g29
Vthis
p1102
sg31
VO
p1103
sg33
VDT
p1104
sg35
I3
ssg10
I106
sg36
g4
sg37
(dp1105
sg39
(dp1106
sg41
I585
sg42
g21
sg43
g21
sg44
I106
sg45
Vthis
p1107
sg47
I106
sg48
I589
sbag0
(g23
g2
Ntp1108
Rp1109
(dp1110
g27
(dp1111
g29
Vinclude
p1112
sg31
VO
p1113
sg33
VVBP
p1114
sg35
I4
ssg10
I107
sg36
g4
sg37
(dp1115
sg39
(dp1116
sg41
I590
sg42
g21
sg43
g21
sg44
I107
sg45
Vinclude
p1117
sg47
I107
sg48
I597
sbag0
(g23
g2
Ntp1118
Rp1119
(dp1120
g27
(dp1121
g29
VSierra
p1122
sg31
VLOCATION
p1123
sg33
VNNP
p1124
sg35
I5
ssg10
I108
sg36
g4
sg37
(dp1125
sg39
(dp1126
sg41
I598
sg42
g21
sg43
g21
sg44
I108
sg45
VSierra
p1127
sg47
I108
sg48
I604
sbag0
(g23
g2
Ntp1128
Rp1129
(dp1130
g27
(dp1131
g29
VLeone
p1132
sg31
VLOCATION
p1133
sg33
VNNP
p1134
sg35
I6
ssg10
I109
sg36
g4
sg37
(dp1135
sg39
(dp1136
sg41
I605
sg42
g21
sg43
g21
sg44
I109
sg45
VLeone
p1137
sg47
I109
sg48
I610
sbag0
(g23
g2
Ntp1138
Rp1139
(dp1140
g27
(dp1141
g29
Vand
p1142
sg31
VO
p1143
sg33
VCC
p1144
sg35
I7
ssg10
I110
sg36
g4
sg37
(dp1145
sg39
(dp1146
sg41
I611
sg42
g21
sg43
g21
sg44
I110
sg45
Vand
p1147
sg47
I110
sg48
I614
sbag0
(g23
g2
Ntp1148
Rp1149
(dp1150
g27
(dp1151
g29
Vthe
p1152
sg31
VO
p1153
sg33
VDT
p1154
sg35
I8
ssg10
I111
sg36
g4
sg37
(dp1155
sg39
(dp1156
sg41
I615
sg42
g21
sg43
g21
sg44
I111
sg45
Vthe
p1157
sg47
I111
sg48
I618
sbag0
(g23
g2
Ntp1158
Rp1159
(dp1160
g27
(dp1161
g29
Vdemocratic
p1162
sg31
VLOCATION
p1163
sg33
VJJ
p1164
sg35
I9
ssg10
I112
sg36
g4
sg37
(dp1165
sg39
(dp1166
sg41
I619
sg42
g21
sg43
g21
sg44
I112
sg45
VDemocratic
p1167
sg47
I112
sg48
I629
sbag0
(g23
g2
Ntp1168
Rp1169
(dp1170
g27
(dp1171
g29
Vrepublic
p1172
sg31
VLOCATION
p1173
sg33
VNN
p1174
sg35
I10
ssg10
I113
sg36
g4
sg37
(dp1175
sg39
(dp1176
sg41
I630
sg42
g21
sg43
g21
sg44
I113
sg45
VRepublic
p1177
sg47
I113
sg48
I638
sbag0
(g23
g2
Ntp1178
Rp1179
(dp1180
g27
(dp1181
g29
Vof
p1182
sg31
VLOCATION
p1183
sg33
VIN
p1184
sg35
I11
ssg10
I114
sg36
g4
sg37
(dp1185
sg39
(dp1186
sg41
I639
sg42
g21
sg43
g21
sg44
I114
sg45
Vof
p1187
sg47
I114
sg48
I641
sbag0
(g23
g2
Ntp1188
Rp1189
(dp1190
g27
(dp1191
g29
Vthe
p1192
sg31
VLOCATION
p1193
sg33
VDT
p1194
sg35
I12
ssg10
I115
sg36
g4
sg37
(dp1195
sg39
(dp1196
sg41
I642
sg42
g21
sg43
g21
sg44
I115
sg45
Vthe
p1197
sg47
I115
sg48
I645
sbag0
(g23
g2
Ntp1198
Rp1199
(dp1200
g27
(dp1201
g29
VCongo
p1202
sg31
VLOCATION
p1203
sg33
VNNP
p1204
sg35
I13
ssg10
I116
sg36
g4
sg37
(dp1205
sg39
(dp1206
sg41
I646
sg42
g21
sg43
g21
sg44
I116
sg45
VCongo
p1207
sg47
I116
sg48
I651
sbag0
(g23
g2
Ntp1208
Rp1209
(dp1210
g27
(dp1211
g29
V.
p1212
sg31
VO
p1213
sg33
V.
p1214
sg35
I14
ssg10
I117
sg36
g4
sg37
(dp1215
sg39
(dp1216
sg41
I651
sg42
g21
sg43
g21
sg44
I117
sg45
V.
p1217
sg47
I117
sg48
I652
sbag0
(g23
g2
Ntp1218
Rp1219
(dp1220
g27
(dp1221
g29
VJeffrey
p1222
sg31
VPERSON
p1223
sg33
VNNP
p1224
sg35
I1
ssg10
I118
sg36
g4
sg37
(dp1225
sg39
(dp1226
sg41
I655
sg42
g21
sg43
g21
sg44
I118
sg45
VJeffrey
p1227
sg47
I118
sg48
I662
sbag0
(g23
g2
Ntp1228
Rp1229
(dp1230
g27
(dp1231
g29
VSachs
p1232
sg31
VPERSON
p1233
sg33
VNNP
p1234
sg35
I2
ssg10
I119
sg36
g4
sg37
(dp1235
sg39
(dp1236
sg41
I663
sg42
g21
sg43
g21
sg44
I119
sg45
VSachs
p1237
sg47
I119
sg48
I668
sbag0
(g23
g2
Ntp1238
Rp1239
(dp1240
g27
(dp1241
g29
V,
p1242
sg31
VO
p1243
sg33
V,
p1244
sg35
I3
ssg10
I120
sg36
g4
sg37
(dp1245
sg39
(dp1246
sg41
I668
sg42
g21
sg43
g21
sg44
I120
sg45
V,
p1247
sg47
I120
sg48
I669
sbag0
(g23
g2
Ntp1248
Rp1249
(dp1250
g27
(dp1251
g29
Vin
p1252
sg31
VO
p1253
sg33
VIN
p1254
sg35
I4
ssg10
I121
sg36
g4
sg37
(dp1255
sg39
(dp1256
sg41
I670
sg42
g21
sg43
g21
sg44
I121
sg45
Vin
p1257
sg47
I121
sg48
I672
sbag0
(g23
g2
Ntp1258
Rp1259
(dp1260
g27
(dp1261
g29
Vhe
p1262
sg31
VO
p1263
sg33
VPRP$
p1264
sg35
I5
ssg10
I122
sg36
g4
sg37
(dp1265
sg39
(dp1266
sg41
I673
sg42
g21
sg43
g21
sg44
I122
sg45
Vhis
p1267
sg47
I122
sg48
I676
sbag0
(g23
g2
Ntp1268
Rp1269
(dp1270
g27
(dp1271
g29
Vbook
p1272
sg31
VO
p1273
sg33
VNN
p1274
sg35
I6
ssg10
I123
sg36
g4
sg37
(dp1275
sg39
(dp1276
sg41
I677
sg42
g21
sg43
g21
sg44
I123
sg45
Vbook
p1277
sg47
I123
sg48
I681
sbag0
(g23
g2
Ntp1278
Rp1279
(dp1280
g27
(dp1281
g29
Vthe
p1282
sg31
VO
p1283
sg33
VDT
p1284
sg35
I7
ssg10
I124
sg36
g4
sg37
(dp1285
sg39
(dp1286
sg41
I682
sg42
g21
sg43
g21
sg44
I124
sg45
VThe
p1287
sg47
I124
sg48
I685
sbag0
(g23
g2
Ntp1288
Rp1289
(dp1290
g27
(dp1291
g29
Vend
p1292
sg31
VMISC
p1293
sg33
VNN
p1294
sg35
I8
ssg10
I125
sg36
g4
sg37
(dp1295
sg39
(dp1296
sg41
I686
sg42
g21
sg43
g21
sg44
I125
sg45
VEnd
p1297
sg47
I125
sg48
I689
sbag0
(g23
g2
Ntp1298
Rp1299
(dp1300
g27
(dp1301
g29
Vof
p1302
sg31
VMISC
p1303
sg33
VIN
p1304
sg35
I9
ssg10
I126
sg36
g4
sg37
(dp1305
sg39
(dp1306
sg41
I690
sg42
g21
sg43
g21
sg44
I126
sg45
Vof
p1307
sg47
I126
sg48
I692
sbag0
(g23
g2
Ntp1308
Rp1309
(dp1310
g27
(dp1311
g29
VPoverty
p1312
sg31
VMISC
p1313
sg33
VNNP
p1314
sg35
I10
ssg10
I127
sg36
g4
sg37
(dp1315
sg39
(dp1316
sg41
I693
sg42
g21
sg43
g21
sg44
I127
sg45
VPoverty
p1317
sg47
I127
sg48
I700
sbag0
(g23
g2
Ntp1318
Rp1319
(dp1320
g27
(dp1321
g29
V,
p1322
sg31
VO
p1323
sg33
V,
p1324
sg35
I11
ssg10
I128
sg36
g4
sg37
(dp1325
sg39
(dp1326
sg41
I700
sg42
g21
sg43
g21
sg44
I128
sg45
V,
p1327
sg47
I128
sg48
I701
sbag0
(g23
g2
Ntp1328
Rp1329
(dp1330
g27
(dp1331
g29
Vdiscuss
p1332
sg31
VO
p1333
sg33
VVBZ
p1334
sg35
I12
ssg10
I129
sg36
g4
sg37
(dp1335
sg39
(dp1336
sg41
I702
sg42
g21
sg43
g21
sg44
I129
sg45
Vdiscusses
p1337
sg47
I129
sg48
I711
sbag0
(g23
g2
Ntp1338
Rp1339
(dp1340
g27
(dp1341
g29
Vthe
p1342
sg31
VO
p1343
sg33
VDT
p1344
sg35
I13
ssg10
I130
sg36
g4
sg37
(dp1345
sg39
(dp1346
sg41
I712
sg42
g21
sg43
g21
sg44
I130
sg45
Vthe
p1347
sg47
I130
sg48
I715
sbag0
(g23
g2
Ntp1348
Rp1349
(dp1350
g27
(dp1351
g29
Vpoverty
p1352
sg31
VO
p1353
sg33
VNN
p1354
sg35
I14
ssg10
I131
sg36
g4
sg37
(dp1355
sg39
(dp1356
sg41
I716
sg42
g21
sg43
g21
sg44
I131
sg45
Vpoverty
p1357
sg47
I131
sg48
I723
sbag0
(g23
g2
Ntp1358
Rp1359
(dp1360
g27
(dp1361
g29
Vtrap
p1362
sg31
VO
p1363
sg33
VNN
p1364
sg35
I15
ssg10
I132
sg36
g4
sg37
(dp1365
sg39
(dp1366
sg41
I724
sg42
g21
sg43
g21
sg44
I132
sg45
Vtrap
p1367
sg47
I132
sg48
I728
sbag0
(g23
g2
Ntp1368
Rp1369
(dp1370
g27
(dp1371
g29
Vand
p1372
sg31
VO
p1373
sg33
VCC
p1374
sg35
I16
ssg10
I133
sg36
g4
sg37
(dp1375
sg39
(dp1376
sg41
I729
sg42
g21
sg43
g21
sg44
I133
sg45
Vand
p1377
sg47
I133
sg48
I732
sbag0
(g23
g2
Ntp1378
Rp1379
(dp1380
g27
(dp1381
g29
Vprescribe
p1382
sg31
VO
p1383
sg33
VVBZ
p1384
sg35
I17
ssg10
I134
sg36
g4
sg37
(dp1385
sg39
(dp1386
sg41
I733
sg42
g21
sg43
g21
sg44
I134
sg45
Vprescribes
p1387
sg47
I134
sg48
I743
sbag0
(g23
g2
Ntp1388
Rp1389
(dp1390
g27
(dp1391
g29
Va
p1392
sg31
VO
p1393
sg33
VDT
p1394
sg35
I18
ssg10
I135
sg36
g4
sg37
(dp1395
sg39
(dp1396
sg41
I744
sg42
g21
sg43
g21
sg44
I135
sg45
Va
p1397
sg47
I135
sg48
I745
sbag0
(g23
g2
Ntp1398
Rp1399
(dp1400
g27
(dp1401
g29
Vset
p1402
sg31
VO
p1403
sg33
VNN
p1404
sg35
I19
ssg10
I136
sg36
g4
sg37
(dp1405
sg39
(dp1406
sg41
I746
sg42
g21
sg43
g21
sg44
I136
sg45
Vset
p1407
sg47
I136
sg48
I749
sbag0
(g23
g2
Ntp1408
Rp1409
(dp1410
g27
(dp1411
g29
Vof
p1412
sg31
VO
p1413
sg33
VIN
p1414
sg35
I20
ssg10
I137
sg36
g4
sg37
(dp1415
sg39
(dp1416
sg41
I750
sg42
g21
sg43
g21
sg44
I137
sg45
Vof
p1417
sg47
I137
sg48
I752
sbag0
(g23
g2
Ntp1418
Rp1419
(dp1420
g27
(dp1421
g29
Vpolicy
p1422
sg31
VO
p1423
sg33
VNN
p1424
sg35
I21
ssg10
I138
sg36
g4
sg37
(dp1425
sg39
(dp1426
sg41
I753
sg42
g21
sg43
g21
sg44
I138
sg45
Vpolicy
p1427
sg47
I138
sg48
I759
sbag0
(g23
g2
Ntp1428
Rp1429
(dp1430
g27
(dp1431
g29
Vinitiative
p1432
sg31
VO
p1433
sg33
VNNS
p1434
sg35
I22
ssg10
I139
sg36
g4
sg37
(dp1435
sg39
(dp1436
sg41
I760
sg42
g21
sg43
g21
sg44
I139
sg45
Vinitiatives
p1437
sg47
I139
sg48
I771
sbag0
(g23
g2
Ntp1438
Rp1439
(dp1440
g27
(dp1441
g29
Vintend
p1442
sg31
VO
p1443
sg33
VVBN
p1444
sg35
I23
ssg10
I140
sg36
g4
sg37
(dp1445
sg39
(dp1446
sg41
I772
sg42
g21
sg43
g21
sg44
I140
sg45
Vintended
p1447
sg47
I140
sg48
I780
sbag0
(g23
g2
Ntp1448
Rp1449
(dp1450
g27
(dp1451
g29
Vto
p1452
sg31
VO
p1453
sg33
VTO
p1454
sg35
I24
ssg10
I141
sg36
g4
sg37
(dp1455
sg39
(dp1456
sg41
I781
sg42
g21
sg43
g21
sg44
I141
sg45
Vto
p1457
sg47
I141
sg48
I783
sbag0
(g23
g2
Ntp1458
Rp1459
(dp1460
g27
(dp1461
g29
Vend
p1462
sg31
VO
p1463
sg33
VVB
p1464
sg35
I25
ssg10
I142
sg36
g4
sg37
(dp1465
sg39
(dp1466
sg41
I784
sg42
g21
sg43
g21
sg44
I142
sg45
Vend
p1467
sg47
I142
sg48
I787
sbag0
(g23
g2
Ntp1468
Rp1469
(dp1470
g27
(dp1471
g29
Vthe
p1472
sg31
VO
p1473
sg33
VDT
p1474
sg35
I26
ssg10
I143
sg36
g4
sg37
(dp1475
sg39
(dp1476
sg41
I788
sg42
g21
sg43
g21
sg44
I143
sg45
Vthe
p1477
sg47
I143
sg48
I791
sbag0
(g23
g2
Ntp1478
Rp1479
(dp1480
g27
(dp1481
g29
Vtrap
p1482
sg31
VO
p1483
sg33
VNN
p1484
sg35
I27
ssg10
I144
sg36
g4
sg37
(dp1485
sg39
(dp1486
sg41
I792
sg42
g21
sg43
g21
sg44
I144
sg45
Vtrap
p1487
sg47
I144
sg48
I796
sbag0
(g23
g2
Ntp1488
Rp1489
(dp1490
g27
(dp1491
g29
V.
p1492
sg31
VO
p1493
sg33
V.
p1494
sg35
I28
ssg10
I145
sg36
g4
sg37
(dp1495
sg39
(dp1496
sg41
I796
sg42
g21
sg43
g21
sg44
I145
sg45
V.
p1497
sg47
I145
sg48
I797
sbag0
(g23
g2
Ntp1498
Rp1499
(dp1500
g27
(dp1501
g29
Vhe
p1502
sg31
VO
p1503
sg33
VPRP
p1504
sg35
I1
ssg10
I146
sg36
g4
sg37
(dp1505
sg39
(dp1506
sg41
I798
sg42
g21
sg43
g21
sg44
I146
sg45
VHe
p1507
sg47
I146
sg48
I800
sbag0
(g23
g2
Ntp1508
Rp1509
(dp1510
g27
(dp1511
g29
Vrecommend
p1512
sg31
VO
p1513
sg33
VVBZ
p1514
sg35
I2
ssg10
I147
sg36
g4
sg37
(dp1515
sg39
(dp1516
sg41
I801
sg42
g21
sg43
g21
sg44
I147
sg45
Vrecommends
p1517
sg47
I147
sg48
I811
sbag0
(g23
g2
Ntp1518
Rp1519
(dp1520
g27
(dp1521
g29
Vthat
p1522
sg31
VO
p1523
sg33
VIN
p1524
sg35
I3
ssg10
I148
sg36
g4
sg37
(dp1525
sg39
(dp1526
sg41
I812
sg42
g21
sg43
g21
sg44
I148
sg45
Vthat
p1527
sg47
I148
sg48
I816
sbag0
(g23
g2
Ntp1528
Rp1529
(dp1530
g27
(dp1531
g29
Vaid
p1532
sg31
VO
p1533
sg33
VNN
p1534
sg35
I4
ssg10
I149
sg36
g4
sg37
(dp1535
sg39
(dp1536
sg41
I817
sg42
g21
sg43
g21
sg44
I149
sg45
Vaid
p1537
sg47
I149
sg48
I820
sbag0
(g23
g2
Ntp1538
Rp1539
(dp1540
g27
(dp1541
g29
Vagency
p1542
sg31
VO
p1543
sg33
VNNS
p1544
sg35
I5
ssg10
I150
sg36
g4
sg37
(dp1545
sg39
(dp1546
sg41
I821
sg42
g21
sg43
g21
sg44
I150
sg45
Vagencies
p1547
sg47
I150
sg48
I829
sbag0
(g23
g2
Ntp1548
Rp1549
(dp1550
g27
(dp1551
g29
Vbehave
p1552
sg31
VO
p1553
sg33
VVBP
p1554
sg35
I6
ssg10
I151
sg36
g4
sg37
(dp1555
sg39
(dp1556
sg41
I830
sg42
g21
sg43
g21
sg44
I151
sg45
Vbehave
p1557
sg47
I151
sg48
I836
sbag0
(g23
g2
Ntp1558
Rp1559
(dp1560
g27
(dp1561
g29
Vas
p1562
sg31
VO
p1563
sg33
VIN
p1564
sg35
I7
ssg10
I152
sg36
g4
sg37
(dp1565
sg39
(dp1566
sg41
I837
sg42
g21
sg43
g21
sg44
I152
sg45
Vas
p1567
sg47
I152
sg48
I839
sbag0
(g23
g2
Ntp1568
Rp1569
(dp1570
g27
(dp1571
g29
Vventure
p1572
sg31
VO
p1573
sg33
VNN
p1574
sg35
I8
ssg10
I153
sg36
g4
sg37
(dp1575
sg39
(dp1576
sg41
I840
sg42
g21
sg43
g21
sg44
I153
sg45
Vventure
p1577
sg47
I153
sg48
I847
sbag0
(g23
g2
Ntp1578
Rp1579
(dp1580
g27
(dp1581
g29
Vcapitalist
p1582
sg31
VO
p1583
sg33
VNNS
p1584
sg35
I9
ssg10
I154
sg36
g4
sg37
(dp1585
sg39
(dp1586
sg41
I848
sg42
g21
sg43
g21
sg44
I154
sg45
Vcapitalists
p1587
sg47
I154
sg48
I859
sbag0
(g23
g2
Ntp1588
Rp1589
(dp1590
g27
(dp1591
g29
Vfund
p1592
sg31
VO
p1593
sg33
VVBG
p1594
sg35
I10
ssg10
I155
sg36
g4
sg37
(dp1595
sg39
(dp1596
sg41
I860
sg42
g21
sg43
g21
sg44
I155
sg45
Vfunding
p1597
sg47
I155
sg48
I867
sbag0
(g23
g2
Ntp1598
Rp1599
(dp1600
g27
(dp1601
g29
Vstart-up
p1602
sg31
VO
p1603
sg33
VJJ
p1604
sg35
I11
ssg10
I156
sg36
g4
sg37
(dp1605
sg39
(dp1606
sg41
I868
sg42
g21
sg43
g21
sg44
I156
sg45
Vstart-up
p1607
sg47
I156
sg48
I876
sbag0
(g23
g2
Ntp1608
Rp1609
(dp1610
g27
(dp1611
g29
Vcompany
p1612
sg31
VO
p1613
sg33
VNNS
p1614
sg35
I12
ssg10
I157
sg36
g4
sg37
(dp1615
sg39
(dp1616
sg41
I877
sg42
g21
sg43
g21
sg44
I157
sg45
Vcompanies
p1617
sg47
I157
sg48
I886
sbag0
(g23
g2
Ntp1618
Rp1619
(dp1620
g27
(dp1621
g29
V.
p1622
sg31
VO
p1623
sg33
V.
p1624
sg35
I13
ssg10
I158
sg36
g4
sg37
(dp1625
sg39
(dp1626
sg41
I886
sg42
g21
sg43
g21
sg44
I158
sg45
V.
p1627
sg47
I158
sg48
I887
sbag0
(g23
g2
Ntp1628
Rp1629
(dp1630
g27
(dp1631
g29
VVenture
p1632
sg31
VO
p1633
sg33
VNNP
p1634
sg35
I1
ssg10
I159
sg36
g4
sg37
(dp1635
sg39
(dp1636
sg41
I888
sg42
g21
sg43
g21
sg44
I159
sg45
VVenture
p1637
sg47
I159
sg48
I895
sbag0
(g23
g2
Ntp1638
Rp1639
(dp1640
g27
(dp1641
g29
Vcapitalist
p1642
sg31
VO
p1643
sg33
VNNS
p1644
sg35
I2
ssg10
I160
sg36
g4
sg37
(dp1645
sg39
(dp1646
sg41
I896
sg42
g21
sg43
g21
sg44
I160
sg45
Vcapitalists
p1647
sg47
I160
sg48
I907
sbag0
(g23
g2
Ntp1648
Rp1649
(dp1650
g27
(dp1651
g29
V,
p1652
sg31
VO
p1653
sg33
V,
p1654
sg35
I3
ssg10
I161
sg36
g4
sg37
(dp1655
sg39
(dp1656
sg41
I907
sg42
g21
sg43
g21
sg44
I161
sg45
V,
p1657
sg47
I161
sg48
I908
sbag0
(g23
g2
Ntp1658
Rp1659
(dp1660
g27
(dp1661
g29
Vonce
p1662
sg31
VDATE
p1663
sg33
VIN
p1664
sg35
I4
ssg10
I162
sg36
g4
sg37
(dp1665
sg39
(dp1666
sg41
I909
sg42
g21
sg43
g21
sg44
I162
sg45
Vonce
p1667
sg47
I162
sg48
I913
sbag0
(g23
g2
Ntp1668
Rp1669
(dp1670
g27
(dp1671
g29
Vthey
p1672
sg31
VO
p1673
sg33
VPRP
p1674
sg35
I5
ssg10
I163
sg36
g4
sg37
(dp1675
sg39
(dp1676
sg41
I914
sg42
g21
sg43
g21
sg44
I163
sg45
Vthey
p1677
sg47
I163
sg48
I918
sbag0
(g23
g2
Ntp1678
Rp1679
(dp1680
g27
(dp1681
g29
Vchoose
p1682
sg31
VO
p1683
sg33
VVBP
p1684
sg35
I6
ssg10
I164
sg36
g4
sg37
(dp1685
sg39
(dp1686
sg41
I919
sg42
g21
sg43
g21
sg44
I164
sg45
Vchoose
p1687
sg47
I164
sg48
I925
sbag0
(g23
g2
Ntp1688
Rp1689
(dp1690
g27
(dp1691
g29
Vto
p1692
sg31
VO
p1693
sg33
VTO
p1694
sg35
I7
ssg10
I165
sg36
g4
sg37
(dp1695
sg39
(dp1696
sg41
I926
sg42
g21
sg43
g21
sg44
I165
sg45
Vto
p1697
sg47
I165
sg48
I928
sbag0
(g23
g2
Ntp1698
Rp1699
(dp1700
g27
(dp1701
g29
Vinvest
p1702
sg31
VO
p1703
sg33
VVB
p1704
sg35
I8
ssg10
I166
sg36
g4
sg37
(dp1705
sg39
(dp1706
sg41
I929
sg42
g21
sg43
g21
sg44
I166
sg45
Vinvest
p1707
sg47
I166
sg48
I935
sbag0
(g23
g2
Ntp1708
Rp1709
(dp1710
g27
(dp1711
g29
Vin
p1712
sg31
VO
p1713
sg33
VIN
p1714
sg35
I9
ssg10
I167
sg36
g4
sg37
(dp1715
sg39
(dp1716
sg41
I929
sg42
g21
sg43
g21
sg44
I167
sg45
Vin
p1717
sg47
I167
sg48
I931
sbag0
(g23
g2
Ntp1718
Rp1719
(dp1720
g27
(dp1721
g29
Va
p1722
sg31
VO
p1723
sg33
VDT
p1724
sg35
I10
ssg10
I168
sg36
g4
sg37
(dp1725
sg39
(dp1726
sg41
I939
sg42
g21
sg43
g21
sg44
I168
sg45
Va
p1727
sg47
I168
sg48
I940
sbag0
(g23
g2
Ntp1728
Rp1729
(dp1730
g27
(dp1731
g29
Vventure
p1732
sg31
VO
p1733
sg33
VNN
p1734
sg35
I11
ssg10
I169
sg36
g4
sg37
(dp1735
sg39
(dp1736
sg41
I941
sg42
g21
sg43
g21
sg44
I169
sg45
Vventure
p1737
sg47
I169
sg48
I948
sbag0
(g23
g2
Ntp1738
Rp1739
(dp1740
g27
(dp1741
g29
V,
p1742
sg31
VO
p1743
sg33
V,
p1744
sg35
I12
ssg10
I170
sg36
g4
sg37
(dp1745
sg39
(dp1746
sg41
I948
sg42
g21
sg43
g21
sg44
I170
sg45
V,
p1747
sg47
I170
sg48
I949
sbag0
(g23
g2
Ntp1748
Rp1749
(dp1750
g27
(dp1751
g29
Vdo
p1752
sg31
VO
p1753
sg33
VVBP
p1754
sg35
I13
ssg10
I171
sg36
g4
sg37
(dp1755
sg39
(dp1756
sg41
I950
sg42
g21
sg43
g21
sg44
I171
sg45
Vdo
p1757
sg47
I171
sg48
I952
sbag0
(g23
g2
Ntp1758
Rp1759
(dp1760
g27
(dp1761
g29
Vnot
p1762
sg31
VO
p1763
sg33
VRB
p1764
sg35
I14
ssg10
I172
sg36
g4
sg37
(dp1765
sg39
(dp1766
sg41
I953
sg42
g21
sg43
g21
sg44
I172
sg45
Vnot
p1767
sg47
I172
sg48
I956
sbag0
(g23
g2
Ntp1768
Rp1769
(dp1770
g27
(dp1771
g29
Vgive
p1772
sg31
VO
p1773
sg33
VVB
p1774
sg35
I15
ssg10
I173
sg36
g4
sg37
(dp1775
sg39
(dp1776
sg41
I957
sg42
g21
sg43
g21
sg44
I173
sg45
Vgive
p1777
sg47
I173
sg48
I961
sbag0
(g23
g2
Ntp1778
Rp1779
(dp1780
g27
(dp1781
g29
Vonly
p1782
sg31
VO
p1783
sg33
VJJ
p1784
sg35
I16
ssg10
I174
sg36
g4
sg37
(dp1785
sg39
(dp1786
sg41
I962
sg42
g21
sg43
g21
sg44
I174
sg45
Vonly
p1787
sg47
I174
sg48
I966
sbag0
(g23
g2
Ntp1788
Rp1789
(dp1790
g27
(dp1791
g29
Vhalf
p1792
sg31
VO
p1793
sg33
VNN
p1794
sg35
I17
ssg10
I175
sg36
g4
sg37
(dp1795
sg39
(dp1796
sg41
I967
sg42
g21
sg43
g21
sg44
I175
sg45
Vhalf
p1797
sg47
I175
sg48
I971
sbag0
(g23
g2
Ntp1798
Rp1799
(dp1800
g27
(dp1801
g29
Vor
p1802
sg31
VO
p1803
sg33
VCC
p1804
sg35
I18
ssg10
I176
sg36
g4
sg37
(dp1805
sg39
(dp1806
sg41
I972
sg42
g21
sg43
g21
sg44
I176
sg45
Vor
p1807
sg47
I176
sg48
I974
sbag0
(g23
g2
Ntp1808
Rp1809
(dp1810
g27
(dp1811
g29
Va
p1812
sg31
VO
p1813
sg33
VDT
p1814
sg35
I19
ssg10
I177
sg36
g4
sg37
(dp1815
sg39
(dp1816
sg41
I975
sg42
g21
sg43
g21
sg44
I177
sg45
Va
p1817
sg47
I177
sg48
I976
sbag0
(g23
g2
Ntp1818
Rp1819
(dp1820
g27
(dp1821
g29
Vthird
p1822
sg31
VORDINAL
p1823
sg33
VJJ
p1824
sg35
I20
ssg10
I178
sg36
g4
sg37
(dp1825
sg39
(dp1826
sg41
I977
sg42
g21
sg43
g21
sg44
I178
sg45
Vthird
p1827
sg47
I178
sg48
I982
sbag0
(g23
g2
Ntp1828
Rp1829
(dp1830
g27
(dp1831
g29
Vof
p1832
sg31
VO
p1833
sg33
VIN
p1834
sg35
I21
ssg10
I179
sg36
g4
sg37
(dp1835
sg39
(dp1836
sg41
I983
sg42
g21
sg43
g21
sg44
I179
sg45
Vof
p1837
sg47
I179
sg48
I985
sbag0
(g23
g2
Ntp1838
Rp1839
(dp1840
g27
(dp1841
g29
Vthe
p1842
sg31
VO
p1843
sg33
VDT
p1844
sg35
I22
ssg10
I180
sg36
g4
sg37
(dp1845
sg39
(dp1846
sg41
I986
sg42
g21
sg43
g21
sg44
I180
sg45
Vthe
p1847
sg47
I180
sg48
I989
sbag0
(g23
g2
Ntp1848
Rp1849
(dp1850
g27
(dp1851
g29
Vamount
p1852
sg31
VO
p1853
sg33
VNN
p1854
sg35
I23
ssg10
I181
sg36
g4
sg37
(dp1855
sg39
(dp1856
sg41
I990
sg42
g21
sg43
g21
sg44
I181
sg45
Vamount
p1857
sg47
I181
sg48
I996
sbag0
(g23
g2
Ntp1858
Rp1859
(dp1860
g27
(dp1861
g29
Vthey
p1862
sg31
VO
p1863
sg33
VPRP
p1864
sg35
I24
ssg10
I182
sg36
g4
sg37
(dp1865
sg39
(dp1866
sg41
I997
sg42
g21
sg43
g21
sg44
I182
sg45
Vthey
p1867
sg47
I182
sg48
I1001
sbag0
(g23
g2
Ntp1868
Rp1869
(dp1870
g27
(dp1871
g29
Vfeel
p1872
sg31
VO
p1873
sg33
VVBP
p1874
sg35
I25
ssg10
I183
sg36
g4
sg37
(dp1875
sg39
(dp1876
sg41
I1002
sg42
g21
sg43
g21
sg44
I183
sg45
Vfeel
p1877
sg47
I183
sg48
I1006
sbag0
(g23
g2
Ntp1878
Rp1879
(dp1880
g27
(dp1881
g29
Vthe
p1882
sg31
VO
p1883
sg33
VDT
p1884
sg35
I26
ssg10
I184
sg36
g4
sg37
(dp1885
sg39
(dp1886
sg41
I1007
sg42
g21
sg43
g21
sg44
I184
sg45
Vthe
p1887
sg47
I184
sg48
I1010
sbag0
(g23
g2
Ntp1888
Rp1889
(dp1890
g27
(dp1891
g29
Vventure
p1892
sg31
VO
p1893
sg33
VNN
p1894
sg35
I27
ssg10
I185
sg36
g4
sg37
(dp1895
sg39
(dp1896
sg41
I1011
sg42
g21
sg43
g21
sg44
I185
sg45
Vventure
p1897
sg47
I185
sg48
I1018
sbag0
(g23
g2
Ntp1898
Rp1899
(dp1900
g27
(dp1901
g29
Vneed
p1902
sg31
VO
p1903
sg33
VVBZ
p1904
sg35
I28
ssg10
I186
sg36
g4
sg37
(dp1905
sg39
(dp1906
sg41
I1019
sg42
g21
sg43
g21
sg44
I186
sg45
Vneeds
p1907
sg47
I186
sg48
I1024
sbag0
(g23
g2
Ntp1908
Rp1909
(dp1910
g27
(dp1911
g29
Vin
p1912
sg31
VO
p1913
sg33
VIN
p1914
sg35
I29
ssg10
I187
sg36
g4
sg37
(dp1915
sg39
(dp1916
sg41
I1025
sg42
g21
sg43
g21
sg44
I187
sg45
Vin
p1917
sg47
I187
sg48
I1027
sbag0
(g23
g2
Ntp1918
Rp1919
(dp1920
g27
(dp1921
g29
Vorder
p1922
sg31
VO
p1923
sg33
VNN
p1924
sg35
I30
ssg10
I188
sg36
g4
sg37
(dp1925
sg39
(dp1926
sg41
I1028
sg42
g21
sg43
g21
sg44
I188
sg45
Vorder
p1927
sg47
I188
sg48
I1033
sbag0
(g23
g2
Ntp1928
Rp1929
(dp1930
g27
(dp1931
g29
Vto
p1932
sg31
VO
p1933
sg33
VTO
p1934
sg35
I31
ssg10
I189
sg36
g4
sg37
(dp1935
sg39
(dp1936
sg41
I1034
sg42
g21
sg43
g21
sg44
I189
sg45
Vto
p1937
sg47
I189
sg48
I1036
sbag0
(g23
g2
Ntp1938
Rp1939
(dp1940
g27
(dp1941
g29
Vbecome
p1942
sg31
VO
p1943
sg33
VVB
p1944
sg35
I32
ssg10
I190
sg36
g4
sg37
(dp1945
sg39
(dp1946
sg41
I1037
sg42
g21
sg43
g21
sg44
I190
sg45
Vbecome
p1947
sg47
I190
sg48
I1043
sbag0
(g23
g2
Ntp1948
Rp1949
(dp1950
g27
(dp1951
g29
Vprofitable
p1952
sg31
VO
p1953
sg33
VJJ
p1954
sg35
I33
ssg10
I191
sg36
g4
sg37
(dp1955
sg39
(dp1956
sg41
I1044
sg42
g21
sg43
g21
sg44
I191
sg45
Vprofitable
p1957
sg47
I191
sg48
I1054
sbag0
(g23
g2
Ntp1958
Rp1959
(dp1960
g27
(dp1961
g29
V;
p1962
sg31
VO
p1963
sg33
V:
p1964
sg35
I34
ssg10
I192
sg36
g4
sg37
(dp1965
sg39
(dp1966
sg41
I1054
sg42
g21
sg43
g21
sg44
I192
sg45
V;
p1967
sg47
I192
sg48
I1055
sbag0
(g23
g2
Ntp1968
Rp1969
(dp1970
g27
(dp1971
g29
Vif
p1972
sg31
VO
p1973
sg33
VIN
p1974
sg35
I35
ssg10
I193
sg36
g4
sg37
(dp1975
sg39
(dp1976
sg41
I1056
sg42
g21
sg43
g21
sg44
I193
sg45
Vif
p1977
sg47
I193
sg48
I1058
sbag0
(g23
g2
Ntp1978
Rp1979
(dp1980
g27
(dp1981
g29
Vthey
p1982
sg31
VO
p1983
sg33
VPRP
p1984
sg35
I36
ssg10
I194
sg36
g4
sg37
(dp1985
sg39
(dp1986
sg41
I1059
sg42
g21
sg43
g21
sg44
I194
sg45
Vthey
p1987
sg47
I194
sg48
I1063
sbag0
(g23
g2
Ntp1988
Rp1989
(dp1990
g27
(dp1991
g29
Vdo
p1992
sg31
VO
p1993
sg33
VVBD
p1994
sg35
I37
ssg10
I195
sg36
g4
sg37
(dp1995
sg39
(dp1996
sg41
I1064
sg42
g21
sg43
g21
sg44
I195
sg45
Vdid
p1997
sg47
I195
sg48
I1067
sbag0
(g23
g2
Ntp1998
Rp1999
(dp2000
g27
(dp2001
g29
V,
p2002
sg31
VO
p2003
sg33
V,
p2004
sg35
I38
ssg10
I196
sg36
g4
sg37
(dp2005
sg39
(dp2006
sg41
I1067
sg42
g21
sg43
g21
sg44
I196
sg45
V,
p2007
sg47
I196
sg48
I1068
sbag0
(g23
g2
Ntp2008
Rp2009
(dp2010
g27
(dp2011
g29
Vthey
p2012
sg31
VO
p2013
sg33
VPRP$
p2014
sg35
I39
ssg10
I197
sg36
g4
sg37
(dp2015
sg39
(dp2016
sg41
I1069
sg42
g21
sg43
g21
sg44
I197
sg45
Vtheir
p2017
sg47
I197
sg48
I1074
sbag0
(g23
g2
Ntp2018
Rp2019
(dp2020
g27
(dp2021
g29
Vmoney
p2022
sg31
VO
p2023
sg33
VNN
p2024
sg35
I40
ssg10
I198
sg36
g4
sg37
(dp2025
sg39
(dp2026
sg41
I1075
sg42
g21
sg43
g21
sg44
I198
sg45
Vmoney
p2027
sg47
I198
sg48
I1080
sbag0
(g23
g2
Ntp2028
Rp2029
(dp2030
g27
(dp2031
g29
Vwould
p2032
sg31
VO
p2033
sg33
VMD
p2034
sg35
I41
ssg10
I199
sg36
g4
sg37
(dp2035
sg39
(dp2036
sg41
I1081
sg42
g21
sg43
g21
sg44
I199
sg45
Vwould
p2037
sg47
I199
sg48
I1086
sbag0
(g23
g2
Ntp2038
Rp2039
(dp2040
g27
(dp2041
g29
Vbe
p2042
sg31
VO
p2043
sg33
VVB
p2044
sg35
I42
ssg10
I200
sg36
g4
sg37
(dp2045
sg39
(dp2046
sg41
I1087
sg42
g21
sg43
g21
sg44
I200
sg45
Vbe
p2047
sg47
I200
sg48
I1089
sbag0
(g23
g2
Ntp2048
Rp2049
(dp2050
g27
(dp2051
g29
Vwaste
p2052
sg31
VO
p2053
sg33
VVBN
p2054
sg35
I43
ssg10
I201
sg36
g4
sg37
(dp2055
sg39
(dp2056
sg41
I1090
sg42
g21
sg43
g21
sg44
I201
sg45
Vwasted
p2057
sg47
I201
sg48
I1096
sbag0
(g23
g2
Ntp2058
Rp2059
(dp2060
g27
(dp2061
g29
V.
p2062
sg31
VO
p2063
sg33
V.
p2064
sg35
I44
ssg10
I202
sg36
g4
sg37
(dp2065
sg39
(dp2066
sg41
I1096
sg42
g21
sg43
g21
sg44
I202
sg45
V.
p2067
sg47
I202
sg48
I1097
sbag0
(g23
g2
Ntp2068
Rp2069
(dp2070
g27
(dp2071
g29
Vif
p2072
sg31
VO
p2073
sg33
VIN
p2074
sg35
I1
ssg10
I203
sg36
g4
sg37
(dp2075
sg39
(dp2076
sg41
I1098
sg42
g21
sg43
g21
sg44
I203
sg45
VIf
p2077
sg47
I203
sg48
I1100
sbag0
(g23
g2
Ntp2078
Rp2079
(dp2080
g27
(dp2081
g29
Vall
p2082
sg31
VO
p2083
sg33
VDT
p2084
sg35
I2
ssg10
I204
sg36
g4
sg37
(dp2085
sg39
(dp2086
sg41
I1101
sg42
g21
sg43
g21
sg44
I204
sg45
Vall
p2087
sg47
I204
sg48
I1104
sbag0
(g23
g2
Ntp2088
Rp2089
(dp2090
g27
(dp2091
g29
Vgo
p2092
sg31
VO
p2093
sg33
VVBZ
p2094
sg35
I3
ssg10
I205
sg36
g4
sg37
(dp2095
sg39
(dp2096
sg41
I1105
sg42
g21
sg43
g21
sg44
I205
sg45
Vgoes
p2097
sg47
I205
sg48
I1109
sbag0
(g23
g2
Ntp2098
Rp2099
(dp2100
g27
(dp2101
g29
Vas
p2102
sg31
VO
p2103
sg33
VIN
p2104
sg35
I4
ssg10
I206
sg36
g4
sg37
(dp2105
sg39
(dp2106
sg41
I1110
sg42
g21
sg43
g21
sg44
I206
sg45
Vas
p2107
sg47
I206
sg48
I1112
sbag0
(g23
g2
Ntp2108
Rp2109
(dp2110
g27
(dp2111
g29
Vplan
p2112
sg31
VO
p2113
sg33
VVBN
p2114
sg35
I5
ssg10
I207
sg36
g4
sg37
(dp2115
sg39
(dp2116
sg41
I1113
sg42
g21
sg43
g21
sg44
I207
sg45
Vplanned
p2117
sg47
I207
sg48
I1120
sbag0
(g23
g2
Ntp2118
Rp2119
(dp2120
g27
(dp2121
g29
V,
p2122
sg31
VO
p2123
sg33
V,
p2124
sg35
I6
ssg10
I208
sg36
g4
sg37
(dp2125
sg39
(dp2126
sg41
I1120
sg42
g21
sg43
g21
sg44
I208
sg45
V,
p2127
sg47
I208
sg48
I1121
sbag0
(g23
g2
Ntp2128
Rp2129
(dp2130
g27
(dp2131
g29
Vthe
p2132
sg31
VO
p2133
sg33
VDT
p2134
sg35
I7
ssg10
I209
sg36
g4
sg37
(dp2135
sg39
(dp2136
sg41
I1122
sg42
g21
sg43
g21
sg44
I209
sg45
Vthe
p2137
sg47
I209
sg48
I1125
sbag0
(g23
g2
Ntp2138
Rp2139
(dp2140
g27
(dp2141
g29
Vventure
p2142
sg31
VO
p2143
sg33
VNN
p2144
sg35
I8
ssg10
I210
sg36
g4
sg37
(dp2145
sg39
(dp2146
sg41
I1126
sg42
g21
sg43
g21
sg44
I210
sg45
Vventure
p2147
sg47
I210
sg48
I1133
sbag0
(g23
g2
Ntp2148
Rp2149
(dp2150
g27
(dp2151
g29
Vwill
p2152
sg31
VO
p2153
sg33
VMD
p2154
sg35
I9
ssg10
I211
sg36
g4
sg37
(dp2155
sg39
(dp2156
sg41
I1134
sg42
g21
sg43
g21
sg44
I211
sg45
Vwill
p2157
sg47
I211
sg48
I1138
sbag0
(g23
g2
Ntp2158
Rp2159
(dp2160
g27
(dp2161
g29
Veventually
p2162
sg31
VO
p2163
sg33
VRB
p2164
sg35
I10
ssg10
I212
sg36
g4
sg37
(dp2165
sg39
(dp2166
sg41
I1139
sg42
g21
sg43
g21
sg44
I212
sg45
Veventually
p2167
sg47
I212
sg48
I1149
sbag0
(g23
g2
Ntp2168
Rp2169
(dp2170
g27
(dp2171
g29
Vbecome
p2172
sg31
VO
p2173
sg33
VVB
p2174
sg35
I11
ssg10
I213
sg36
g4
sg37
(dp2175
sg39
(dp2176
sg41
I1150
sg42
g21
sg43
g21
sg44
I213
sg45
Vbecome
p2177
sg47
I213
sg48
I1156
sbag0
(g23
g2
Ntp2178
Rp2179
(dp2180
g27
(dp2181
g29
Vprofitable
p2182
sg31
VO
p2183
sg33
VJJ
p2184
sg35
I12
ssg10
I214
sg36
g4
sg37
(dp2185
sg39
(dp2186
sg41
I1157
sg42
g21
sg43
g21
sg44
I214
sg45
Vprofitable
p2187
sg47
I214
sg48
I1167
sbag0
(g23
g2
Ntp2188
Rp2189
(dp2190
g27
(dp2191
g29
Vand
p2192
sg31
VO
p2193
sg33
VCC
p2194
sg35
I13
ssg10
I215
sg36
g4
sg37
(dp2195
sg39
(dp2196
sg41
I1168
sg42
g21
sg43
g21
sg44
I215
sg45
Vand
p2197
sg47
I215
sg48
I1171
sbag0
(g23
g2
Ntp2198
Rp2199
(dp2200
g27
(dp2201
g29
Vthe
p2202
sg31
VO
p2203
sg33
VDT
p2204
sg35
I14
ssg10
I216
sg36
g4
sg37
(dp2205
sg39
(dp2206
sg41
I1172
sg42
g21
sg43
g21
sg44
I216
sg45
Vthe
p2207
sg47
I216
sg48
I1175
sbag0
(g23
g2
Ntp2208
Rp2209
(dp2210
g27
(dp2211
g29
Vventure
p2212
sg31
VO
p2213
sg33
VNN
p2214
sg35
I15
ssg10
I217
sg36
g4
sg37
(dp2215
sg39
(dp2216
sg41
I1176
sg42
g21
sg43
g21
sg44
I217
sg45
Vventure
p2217
sg47
I217
sg48
I1183
sbag0
(g23
g2
Ntp2218
Rp2219
(dp2220
g27
(dp2221
g29
Vcapitalist
p2222
sg31
VO
p2223
sg33
VNN
p2224
sg35
I16
ssg10
I218
sg36
g4
sg37
(dp2225
sg39
(dp2226
sg41
I1184
sg42
g21
sg43
g21
sg44
I218
sg45
Vcapitalist
p2227
sg47
I218
sg48
I1194
sbag0
(g23
g2
Ntp2228
Rp2229
(dp2230
g27
(dp2231
g29
Vwill
p2232
sg31
VO
p2233
sg33
VMD
p2234
sg35
I17
ssg10
I219
sg36
g4
sg37
(dp2235
sg39
(dp2236
sg41
I1195
sg42
g21
sg43
g21
sg44
I219
sg45
Vwill
p2237
sg47
I219
sg48
I1199
sbag0
(g23
g2
Ntp2238
Rp2239
(dp2240
g27
(dp2241
g29
Vexperience
p2242
sg31
VO
p2243
sg33
VVB
p2244
sg35
I18
ssg10
I220
sg36
g4
sg37
(dp2245
sg39
(dp2246
sg41
I1200
sg42
g21
sg43
g21
sg44
I220
sg45
Vexperience
p2247
sg47
I220
sg48
I1210
sbag0
(g23
g2
Ntp2248
Rp2249
(dp2250
g27
(dp2251
g29
Va
p2252
sg31
VO
p2253
sg33
VDT
p2254
sg35
I19
ssg10
I221
sg36
g4
sg37
(dp2255
sg39
(dp2256
sg41
I1211
sg42
g21
sg43
g21
sg44
I221
sg45
Van
p2257
sg47
I221
sg48
I1213
sbag0
(g23
g2
Ntp2258
Rp2259
(dp2260
g27
(dp2261
g29
Vadequate
p2262
sg31
VO
p2263
sg33
VJJ
p2264
sg35
I20
ssg10
I222
sg36
g4
sg37
(dp2265
sg39
(dp2266
sg41
I1214
sg42
g21
sg43
g21
sg44
I222
sg45
Vadequate
p2267
sg47
I222
sg48
I1222
sbag0
(g23
g2
Ntp2268
Rp2269
(dp2270
g27
(dp2271
g29
Vrate
p2272
sg31
VO
p2273
sg33
VNN
p2274
sg35
I21
ssg10
I223
sg36
g4
sg37
(dp2275
sg39
(dp2276
sg41
I1223
sg42
g21
sg43
g21
sg44
I223
sg45
Vrate
p2277
sg47
I223
sg48
I1227
sbag0
(g23
g2
Ntp2278
Rp2279
(dp2280
g27
(dp2281
g29
Vof
p2282
sg31
VO
p2283
sg33
VIN
p2284
sg35
I22
ssg10
I224
sg36
g4
sg37
(dp2285
sg39
(dp2286
sg41
I1228
sg42
g21
sg43
g21
sg44
I224
sg45
Vof
p2287
sg47
I224
sg48
I1230
sbag0
(g23
g2
Ntp2288
Rp2289
(dp2290
g27
(dp2291
g29
Vreturn
p2292
sg31
VO
p2293
sg33
VNN
p2294
sg35
I23
ssg10
I225
sg36
g4
sg37
(dp2295
sg39
(dp2296
sg41
I1231
sg42
g21
sg43
g21
sg44
I225
sg45
Vreturn
p2297
sg47
I225
sg48
I1237
sbag0
(g23
g2
Ntp2298
Rp2299
(dp2300
g27
(dp2301
g29
Von
p2302
sg31
VO
p2303
sg33
VIN
p2304
sg35
I24
ssg10
I226
sg36
g4
sg37
(dp2305
sg39
(dp2306
sg41
I1238
sg42
g21
sg43
g21
sg44
I226
sg45
Von
p2307
sg47
I226
sg48
I1240
sbag0
(g23
g2
Ntp2308
Rp2309
(dp2310
g27
(dp2311
g29
Vinvestment
p2312
sg31
VO
p2313
sg33
VNN
p2314
sg35
I25
ssg10
I227
sg36
g4
sg37
(dp2315
sg39
(dp2316
sg41
I1241
sg42
g21
sg43
g21
sg44
I227
sg45
Vinvestment
p2317
sg47
I227
sg48
I1251
sbag0
(g23
g2
Ntp2318
Rp2319
(dp2320
g27
(dp2321
g29
V.
p2322
sg31
VO
p2323
sg33
V.
p2324
sg35
I26
ssg10
I228
sg36
g4
sg37
(dp2325
sg39
(dp2326
sg41
I1251
sg42
g21
sg43
g21
sg44
I228
sg45
V.
p2327
sg47
I228
sg48
I1252
sbag0
(g23
g2
Ntp2328
Rp2329
(dp2330
g27
(dp2331
g29
Vlikewise
p2332
sg31
VO
p2333
sg33
VRB
p2334
sg35
I1
ssg10
I229
sg36
g4
sg37
(dp2335
sg39
(dp2336
sg41
I1253
sg42
g21
sg43
g21
sg44
I229
sg45
VLikewise
p2337
sg47
I229
sg48
I1261
sbag0
(g23
g2
Ntp2338
Rp2339
(dp2340
g27
(dp2341
g29
V,
p2342
sg31
VO
p2343
sg33
V,
p2344
sg35
I2
ssg10
I230
sg36
g4
sg37
(dp2345
sg39
(dp2346
sg41
I1261
sg42
g21
sg43
g21
sg44
I230
sg45
V,
p2347
sg47
I230
sg48
I1262
sbag0
(g23
g2
Ntp2348
Rp2349
(dp2350
g27
(dp2351
g29
VSachs
p2352
sg31
VORGANIZATION
p2353
sg33
VNNP
p2354
sg35
I3
ssg10
I231
sg36
g4
sg37
(dp2355
sg39
(dp2356
sg41
I1263
sg42
g21
sg43
g21
sg44
I231
sg45
VSachs
p2357
sg47
I231
sg48
I1268
sbag0
(g23
g2
Ntp2358
Rp2359
(dp2360
g27
(dp2361
g29
Vpropose
p2362
sg31
VO
p2363
sg33
VVBZ
p2364
sg35
I4
ssg10
I232
sg36
g4
sg37
(dp2365
sg39
(dp2366
sg41
I1269
sg42
g21
sg43
g21
sg44
I232
sg45
Vproposes
p2367
sg47
I232
sg48
I1277
sbag0
(g23
g2
Ntp2368
Rp2369
(dp2370
g27
(dp2371
g29
V,
p2372
sg31
VO
p2373
sg33
V,
p2374
sg35
I5
ssg10
I233
sg36
g4
sg37
(dp2375
sg39
(dp2376
sg41
I1277
sg42
g21
sg43
g21
sg44
I233
sg45
V,
p2377
sg47
I233
sg48
I1278
sbag0
(g23
g2
Ntp2378
Rp2379
(dp2380
g27
(dp2381
g29
Vdevelop
p2382
sg31
VO
p2383
sg33
VVBD
p2384
sg35
I6
ssg10
I234
sg36
g4
sg37
(dp2385
sg39
(dp2386
sg41
I1279
sg42
g21
sg43
g21
sg44
I234
sg45
Vdeveloped
p2387
sg47
I234
sg48
I1288
sbag0
(g23
g2
Ntp2388
Rp2389
(dp2390
g27
(dp2391
g29
Vcountry
p2392
sg31
VO
p2393
sg33
VNNS
p2394
sg35
I7
ssg10
I235
sg36
g4
sg37
(dp2395
sg39
(dp2396
sg41
I1289
sg42
g21
sg43
g21
sg44
I235
sg45
Vcountries
p2397
sg47
I235
sg48
I1298
sbag0
(g23
g2
Ntp2398
Rp2399
(dp2400
g27
(dp2401
g29
Vcan
p2402
sg31
VO
p2403
sg33
VMD
p2404
sg35
I8
ssg10
I236
sg36
g4
sg37
(dp2405
sg39
(dp2406
sg41
I1299
sg42
g21
sg43
g21
sg44
I236
sg45
Vcan
p2407
sg47
I236
sg48
I1302
sbag0
(g23
g2
Ntp2408
Rp2409
(dp2410
g27
(dp2411
g29
Vnot
p2412
sg31
VO
p2413
sg33
VRB
p2414
sg35
I9
ssg10
I237
sg36
g4
sg37
(dp2415
sg39
(dp2416
sg41
I1302
sg42
g21
sg43
g21
sg44
I237
sg45
Vnot
p2417
sg47
I237
sg48
I1305
sbag0
(g23
g2
Ntp2418
Rp2419
(dp2420
g27
(dp2421
g29
Vgive
p2422
sg31
VO
p2423
sg33
VVB
p2424
sg35
I10
ssg10
I238
sg36
g4
sg37
(dp2425
sg39
(dp2426
sg41
I1306
sg42
g21
sg43
g21
sg44
I238
sg45
Vgive
p2427
sg47
I238
sg48
I1310
sbag0
(g23
g2
Ntp2428
Rp2429
(dp2430
g27
(dp2431
g29
Vonly
p2432
sg31
VO
p2433
sg33
VRB
p2434
sg35
I11
ssg10
I239
sg36
g4
sg37
(dp2435
sg39
(dp2436
sg41
I1311
sg42
g21
sg43
g21
sg44
I239
sg45
Vonly
p2437
sg47
I239
sg48
I1315
sbag0
(g23
g2
Ntp2438
Rp2439
(dp2440
g27
(dp2441
g29
Va
p2442
sg31
VO
p2443
sg33
VDT
p2444
sg35
I12
ssg10
I240
sg36
g4
sg37
(dp2445
sg39
(dp2446
sg41
I1316
sg42
g21
sg43
g21
sg44
I240
sg45
Va
p2447
sg47
I240
sg48
I1317
sbag0
(g23
g2
Ntp2448
Rp2449
(dp2450
g27
(dp2451
g29
Vfraction
p2452
sg31
VO
p2453
sg33
VNN
p2454
sg35
I13
ssg10
I241
sg36
g4
sg37
(dp2455
sg39
(dp2456
sg41
I1318
sg42
g21
sg43
g21
sg44
I241
sg45
Vfraction
p2457
sg47
I241
sg48
I1326
sbag0
(g23
g2
Ntp2458
Rp2459
(dp2460
g27
(dp2461
g29
Vof
p2462
sg31
VO
p2463
sg33
VIN
p2464
sg35
I14
ssg10
I242
sg36
g4
sg37
(dp2465
sg39
(dp2466
sg41
I1327
sg42
g21
sg43
g21
sg44
I242
sg45
Vof
p2467
sg47
I242
sg48
I1329
sbag0
(g23
g2
Ntp2468
Rp2469
(dp2470
g27
(dp2471
g29
Vwhat
p2472
sg31
VO
p2473
sg33
VWP
p2474
sg35
I15
ssg10
I243
sg36
g4
sg37
(dp2475
sg39
(dp2476
sg41
I1330
sg42
g21
sg43
g21
sg44
I243
sg45
Vwhat
p2477
sg47
I243
sg48
I1334
sbag0
(g23
g2
Ntp2478
Rp2479
(dp2480
g27
(dp2481
g29
Vbe
p2482
sg31
VO
p2483
sg33
VVBZ
p2484
sg35
I16
ssg10
I244
sg36
g4
sg37
(dp2485
sg39
(dp2486
sg41
I1335
sg42
g21
sg43
g21
sg44
I244
sg45
Vis
p2487
sg47
I244
sg48
I1337
sbag0
(g23
g2
Ntp2488
Rp2489
(dp2490
g27
(dp2491
g29
Vneed
p2492
sg31
VO
p2493
sg33
VVBN
p2494
sg35
I17
ssg10
I245
sg36
g4
sg37
(dp2495
sg39
(dp2496
sg41
I1338
sg42
g21
sg43
g21
sg44
I245
sg45
Vneeded
p2497
sg47
I245
sg48
I1344
sbag0
(g23
g2
Ntp2498
Rp2499
(dp2500
g27
(dp2501
g29
Vin
p2502
sg31
VO
p2503
sg33
VIN
p2504
sg35
I18
ssg10
I246
sg36
g4
sg37
(dp2505
sg39
(dp2506
sg41
I1345
sg42
g21
sg43
g21
sg44
I246
sg45
Vin
p2507
sg47
I246
sg48
I1347
sbag0
(g23
g2
Ntp2508
Rp2509
(dp2510
g27
(dp2511
g29
Vaid
p2512
sg31
VO
p2513
sg33
VNN
p2514
sg35
I19
ssg10
I247
sg36
g4
sg37
(dp2515
sg39
(dp2516
sg41
I1348
sg42
g21
sg43
g21
sg44
I247
sg45
Vaid
p2517
sg47
I247
sg48
I1351
sbag0
(g23
g2
Ntp2518
Rp2519
(dp2520
g27
(dp2521
g29
Vand
p2522
sg31
VO
p2523
sg33
VCC
p2524
sg35
I20
ssg10
I248
sg36
g4
sg37
(dp2525
sg39
(dp2526
sg41
I1352
sg42
g21
sg43
g21
sg44
I248
sg45
Vand
p2527
sg47
I248
sg48
I1355
sbag0
(g23
g2
Ntp2528
Rp2529
(dp2530
g27
(dp2531
g29
Vexpect
p2532
sg31
VO
p2533
sg33
VVBP
p2534
sg35
I21
ssg10
I249
sg36
g4
sg37
(dp2535
sg39
(dp2536
sg41
I1356
sg42
g21
sg43
g21
sg44
I249
sg45
Vexpect
p2537
sg47
I249
sg48
I1362
sbag0
(g23
g2
Ntp2538
Rp2539
(dp2540
g27
(dp2541
g29
Vto
p2542
sg31
VO
p2543
sg33
VTO
p2544
sg35
I22
ssg10
I250
sg36
g4
sg37
(dp2545
sg39
(dp2546
sg41
I1363
sg42
g21
sg43
g21
sg44
I250
sg45
Vto
p2547
sg47
I250
sg48
I1365
sbag0
(g23
g2
Ntp2548
Rp2549
(dp2550
g27
(dp2551
g29
Vreverse
p2552
sg31
VO
p2553
sg33
VVB
p2554
sg35
I23
ssg10
I251
sg36
g4
sg37
(dp2555
sg39
(dp2556
sg41
I1366
sg42
g21
sg43
g21
sg44
I251
sg45
Vreverse
p2557
sg47
I251
sg48
I1373
sbag0
(g23
g2
Ntp2558
Rp2559
(dp2560
g27
(dp2561
g29
Vthe
p2562
sg31
VO
p2563
sg33
VDT
p2564
sg35
I24
ssg10
I252
sg36
g4
sg37
(dp2565
sg39
(dp2566
sg41
I1374
sg42
g21
sg43
g21
sg44
I252
sg45
Vthe
p2567
sg47
I252
sg48
I1377
sbag0
(g23
g2
Ntp2568
Rp2569
(dp2570
g27
(dp2571
g29
Vpoverty
p2572
sg31
VO
p2573
sg33
VNN
p2574
sg35
I25
ssg10
I253
sg36
g4
sg37
(dp2575
sg39
(dp2576
sg41
I1378
sg42
g21
sg43
g21
sg44
I253
sg45
Vpoverty
p2577
sg47
I253
sg48
I1385
sbag0
(g23
g2
Ntp2578
Rp2579
(dp2580
g27
(dp2581
g29
Vtrap
p2582
sg31
VO
p2583
sg33
VNN
p2584
sg35
I26
ssg10
I254
sg36
g4
sg37
(dp2585
sg39
(dp2586
sg41
I1386
sg42
g21
sg43
g21
sg44
I254
sg45
Vtrap
p2587
sg47
I254
sg48
I1390
sbag0
(g23
g2
Ntp2588
Rp2589
(dp2590
g27
(dp2591
g29
Vin
p2592
sg31
VO
p2593
sg33
VIN
p2594
sg35
I27
ssg10
I255
sg36
g4
sg37
(dp2595
sg39
(dp2596
sg41
I1391
sg42
g21
sg43
g21
sg44
I255
sg45
Vin
p2597
sg47
I255
sg48
I1393
sbag0
(g23
g2
Ntp2598
Rp2599
(dp2600
g27
(dp2601
g29
VAfrica
p2602
sg31
VLOCATION
p2603
sg33
VNNP
p2604
sg35
I28
ssg10
I256
sg36
g4
sg37
(dp2605
sg39
(dp2606
sg41
I1394
sg42
g21
sg43
g21
sg44
I256
sg45
VAfrica
p2607
sg47
I256
sg48
I1400
sbag0
(g23
g2
Ntp2608
Rp2609
(dp2610
g27
(dp2611
g29
V.
p2612
sg31
VO
p2613
sg33
V.
p2614
sg35
I29
ssg10
I257
sg36
g4
sg37
(dp2615
sg39
(dp2616
sg41
I1400
sg42
g21
sg43
g21
sg44
I257
sg45
V.
p2617
sg47
I257
sg48
I1401
sbag0
(g23
g2
Ntp2618
Rp2619
(dp2620
g27
(dp2621
g29
Vjust
p2622
sg31
VO
p2623
sg33
VRB
p2624
sg35
I1
ssg10
I258
sg36
g4
sg37
(dp2625
sg39
(dp2626
sg41
I1402
sg42
g21
sg43
g21
sg44
I258
sg45
VJust
p2627
sg47
I258
sg48
I1406
sbag0
(g23
g2
Ntp2628
Rp2629
(dp2630
g27
(dp2631
g29
Vlike
p2632
sg31
VO
p2633
sg33
VIN
p2634
sg35
I2
ssg10
I259
sg36
g4
sg37
(dp2635
sg39
(dp2636
sg41
I1407
sg42
g21
sg43
g21
sg44
I259
sg45
Vlike
p2637
sg47
I259
sg48
I1411
sbag0
(g23
g2
Ntp2638
Rp2639
(dp2640
g27
(dp2641
g29
Vany
p2642
sg31
VO
p2643
sg33
VDT
p2644
sg35
I3
ssg10
I260
sg36
g4
sg37
(dp2645
sg39
(dp2646
sg41
I1412
sg42
g21
sg43
g21
sg44
I260
sg45
Vany
p2647
sg47
I260
sg48
I1415
sbag0
(g23
g2
Ntp2648
Rp2649
(dp2650
g27
(dp2651
g29
Vother
p2652
sg31
VO
p2653
sg33
VJJ
p2654
sg35
I4
ssg10
I261
sg36
g4
sg37
(dp2655
sg39
(dp2656
sg41
I1416
sg42
g21
sg43
g21
sg44
I261
sg45
Vother
p2657
sg47
I261
sg48
I1421
sbag0
(g23
g2
Ntp2658
Rp2659
(dp2660
g27
(dp2661
g29
Vstart-up
p2662
sg31
VO
p2663
sg33
VNN
p2664
sg35
I5
ssg10
I262
sg36
g4
sg37
(dp2665
sg39
(dp2666
sg41
I1422
sg42
g21
sg43
g21
sg44
I262
sg45
Vstart-up
p2667
sg47
I262
sg48
I1430
sbag0
(g23
g2
Ntp2668
Rp2669
(dp2670
g27
(dp2671
g29
V,
p2672
sg31
VO
p2673
sg33
V,
p2674
sg35
I6
ssg10
I263
sg36
g4
sg37
(dp2675
sg39
(dp2676
sg41
I1430
sg42
g21
sg43
g21
sg44
I263
sg45
V,
p2677
sg47
I263
sg48
I1431
sbag0
(g23
g2
Ntp2678
Rp2679
(dp2680
g27
(dp2681
g29
Vdevelop
p2682
sg31
VO
p2683
sg33
VVBG
p2684
sg35
I7
ssg10
I264
sg36
g4
sg37
(dp2685
sg39
(dp2686
sg41
I1432
sg42
g21
sg43
g21
sg44
I264
sg45
Vdeveloping
p2687
sg47
I264
sg48
I1442
sbag0
(g23
g2
Ntp2688
Rp2689
(dp2690
g27
(dp2691
g29
Vnation
p2692
sg31
VO
p2693
sg33
VNNS
p2694
sg35
I8
ssg10
I265
sg36
g4
sg37
(dp2695
sg39
(dp2696
sg41
I1443
sg42
g21
sg43
g21
sg44
I265
sg45
Vnations
p2697
sg47
I265
sg48
I1450
sbag0
(g23
g2
Ntp2698
Rp2699
(dp2700
g27
(dp2701
g29
Vabsolutely
p2702
sg31
VO
p2703
sg33
VRB
p2704
sg35
I9
ssg10
I266
sg36
g4
sg37
(dp2705
sg39
(dp2706
sg41
I1451
sg42
g21
sg43
g21
sg44
I266
sg45
Vabsolutely
p2707
sg47
I266
sg48
I1461
sbag0
(g23
g2
Ntp2708
Rp2709
(dp2710
g27
(dp2711
g29
Vmust
p2712
sg31
VO
p2713
sg33
VMD
p2714
sg35
I10
ssg10
I267
sg36
g4
sg37
(dp2715
sg39
(dp2716
sg41
I1462
sg42
g21
sg43
g21
sg44
I267
sg45
Vmust
p2717
sg47
I267
sg48
I1466
sbag0
(g23
g2
Ntp2718
Rp2719
(dp2720
g27
(dp2721
g29
Vreceive
p2722
sg31
VO
p2723
sg33
VVB
p2724
sg35
I11
ssg10
I268
sg36
g4
sg37
(dp2725
sg39
(dp2726
sg41
I1467
sg42
g21
sg43
g21
sg44
I268
sg45
Vreceive
p2727
sg47
I268
sg48
I1474
sbag0
(g23
g2
Ntp2728
Rp2729
(dp2730
g27
(dp2731
g29
Vthe
p2732
sg31
VO
p2733
sg33
VDT
p2734
sg35
I12
ssg10
I269
sg36
g4
sg37
(dp2735
sg39
(dp2736
sg41
I1475
sg42
g21
sg43
g21
sg44
I269
sg45
Vthe
p2737
sg47
I269
sg48
I1478
sbag0
(g23
g2
Ntp2738
Rp2739
(dp2740
g27
(dp2741
g29
Vamount
p2742
sg31
VO
p2743
sg33
VNN
p2744
sg35
I13
ssg10
I270
sg36
g4
sg37
(dp2745
sg39
(dp2746
sg41
I1479
sg42
g21
sg43
g21
sg44
I270
sg45
Vamount
p2747
sg47
I270
sg48
I1485
sbag0
(g23
g2
Ntp2748
Rp2749
(dp2750
g27
(dp2751
g29
Vof
p2752
sg31
VO
p2753
sg33
VIN
p2754
sg35
I14
ssg10
I271
sg36
g4
sg37
(dp2755
sg39
(dp2756
sg41
I1486
sg42
g21
sg43
g21
sg44
I271
sg45
Vof
p2757
sg47
I271
sg48
I1488
sbag0
(g23
g2
Ntp2758
Rp2759
(dp2760
g27
(dp2761
g29
Vaid
p2762
sg31
VO
p2763
sg33
VNN
p2764
sg35
I15
ssg10
I272
sg36
g4
sg37
(dp2765
sg39
(dp2766
sg41
I1489
sg42
g21
sg43
g21
sg44
I272
sg45
Vaid
p2767
sg47
I272
sg48
I1492
sbag0
(g23
g2
Ntp2768
Rp2769
(dp2770
g27
(dp2771
g29
Vnecessary
p2772
sg31
VO
p2773
sg33
VJJ
p2774
sg35
I16
ssg10
I273
sg36
g4
sg37
(dp2775
sg39
(dp2776
sg41
I1493
sg42
g21
sg43
g21
sg44
I273
sg45
Vnecessary
p2777
sg47
I273
sg48
I1502
sbag0
(g23
g2
Ntp2778
Rp2779
(dp2780
g27
(dp2781
g29
V-lrb-
p2782
sg31
VO
p2783
sg33
V-LRB-
p2784
sg35
I17
ssg10
I274
sg36
g4
sg37
(dp2785
sg39
(dp2786
sg41
I1503
sg42
g21
sg43
g21
sg44
I274
sg45
V(
p2787
sg47
I274
sg48
I1504
sbag0
(g23
g2
Ntp2788
Rp2789
(dp2790
g27
(dp2791
g29
Vand
p2792
sg31
VO
p2793
sg33
VCC
p2794
sg35
I18
ssg10
I275
sg36
g4
sg37
(dp2795
sg39
(dp2796
sg41
I1504
sg42
g21
sg43
g21
sg44
I275
sg45
Vand
p2797
sg47
I275
sg48
I1507
sbag0
(g23
g2
Ntp2798
Rp2799
(dp2800
g27
(dp2801
g29
Vpromise
p2802
sg31
VO
p2803
sg33
VVBN
p2804
sg35
I19
ssg10
I276
sg36
g4
sg37
(dp2805
sg39
(dp2806
sg41
I1508
sg42
g21
sg43
g21
sg44
I276
sg45
Vpromised
p2807
sg47
I276
sg48
I1516
sbag0
(g23
g2
Ntp2808
Rp2809
(dp2810
g27
(dp2811
g29
Vat
p2812
sg31
VO
p2813
sg33
VIN
p2814
sg35
I20
ssg10
I277
sg36
g4
sg37
(dp2815
sg39
(dp2816
sg41
I1517
sg42
g21
sg43
g21
sg44
I277
sg45
Vat
p2817
sg47
I277
sg48
I1519
sbag0
(g23
g2
Ntp2818
Rp2819
(dp2820
g27
(dp2821
g29
Vthe
p2822
sg31
VO
p2823
sg33
VDT
p2824
sg35
I21
ssg10
I278
sg36
g4
sg37
(dp2825
sg39
(dp2826
sg41
I1520
sg42
g21
sg43
g21
sg44
I278
sg45
Vthe
p2827
sg47
I278
sg48
I1523
sbag0
(g23
g2
Ntp2828
Rp2829
(dp2830
g27
(dp2831
g29
VG-8
p2832
sg31
VO
p2833
sg33
VNNP
p2834
sg35
I22
ssg10
I279
sg36
g4
sg37
(dp2835
sg39
(dp2836
sg41
I1524
sg42
g21
sg43
g21
sg44
I279
sg45
VG-8
p2837
sg47
I279
sg48
I1527
sbag0
(g23
g2
Ntp2838
Rp2839
(dp2840
g27
(dp2841
g29
VSummit
p2842
sg31
VO
p2843
sg33
VNNP
p2844
sg35
I23
ssg10
I280
sg36
g4
sg37
(dp2845
sg39
(dp2846
sg41
I1528
sg42
g21
sg43
g21
sg44
I280
sg45
VSummit
p2847
sg47
I280
sg48
I1534
sbag0
(g23
g2
Ntp2848
Rp2849
(dp2850
g27
(dp2851
g29
Vin
p2852
sg31
VO
p2853
sg33
VIN
p2854
sg35
I24
ssg10
I281
sg36
g4
sg37
(dp2855
sg39
(dp2856
sg41
I1535
sg42
g21
sg43
g21
sg44
I281
sg45
Vin
p2857
sg47
I281
sg48
I1537
sbag0
(g23
g2
Ntp2858
Rp2859
(dp2860
g27
(dp2861
g29
V2005
p2862
sg31
VDATE
p2863
sg33
VCD
p2864
sg35
I25
ssg10
I282
sg36
g4
sg37
(dp2865
sg39
(dp2866
sg41
I1538
sg42
g21
sg43
g21
sg44
I282
sg45
V2005
p2867
sg47
I282
sg48
I1542
sbag0
(g23
g2
Ntp2868
Rp2869
(dp2870
g27
(dp2871
g29
V-lsb-
p2872
sg31
VO
p2873
sg33
V-LRB-
p2874
sg35
I26
ssg10
I283
sg36
g4
sg37
(dp2875
sg39
(dp2876
sg41
I1542
sg42
g21
sg43
g21
sg44
I283
sg45
V[
p2877
sg47
I283
sg48
I1543
sbag0
(g23
g2
Ntp2878
Rp2879
(dp2880
g27
(dp2881
g29
Vref
p2882
sg31
VO
p2883
sg33
VNN
p2884
sg35
I27
ssg10
I284
sg36
g4
sg37
(dp2885
sg39
(dp2886
sg41
I1543
sg42
g21
sg43
g21
sg44
I284
sg45
VREF
p2887
sg47
I284
sg48
I1546
sbag0
(g23
g2
Ntp2888
Rp2889
(dp2890
g27
(dp2891
g29
V-rsb-
p2892
sg31
VO
p2893
sg33
V-RRB-
p2894
sg35
I28
ssg10
I285
sg36
g4
sg37
(dp2895
sg39
(dp2896
sg41
I1546
sg42
g21
sg43
g21
sg44
I285
sg45
V]
p2897
sg47
I285
sg48
I1547
sbag0
(g23
g2
Ntp2898
Rp2899
(dp2900
g27
(dp2901
g29
V-rrb-
p2902
sg31
VO
p2903
sg33
V-RRB-
p2904
sg35
I29
ssg10
I286
sg36
g4
sg37
(dp2905
sg39
(dp2906
sg41
I1547
sg42
g21
sg43
g21
sg44
I286
sg45
V)
p2907
sg47
I286
sg48
I1548
sbag0
(g23
g2
Ntp2908
Rp2909
(dp2910
g27
(dp2911
g29
Vfor
p2912
sg31
VO
p2913
sg33
VIN
p2914
sg35
I30
ssg10
I287
sg36
g4
sg37
(dp2915
sg39
(dp2916
sg41
I1549
sg42
g21
sg43
g21
sg44
I287
sg45
Vfor
p2917
sg47
I287
sg48
I1552
sbag0
(g23
g2
Ntp2918
Rp2919
(dp2920
g27
(dp2921
g29
Vthey
p2922
sg31
VO
p2923
sg33
VPRP
p2924
sg35
I31
ssg10
I288
sg36
g4
sg37
(dp2925
sg39
(dp2926
sg41
I1553
sg42
g21
sg43
g21
sg44
I288
sg45
Vthem
p2927
sg47
I288
sg48
I1557
sbag0
(g23
g2
Ntp2928
Rp2929
(dp2930
g27
(dp2931
g29
Vto
p2932
sg31
VO
p2933
sg33
VTO
p2934
sg35
I32
ssg10
I289
sg36
g4
sg37
(dp2935
sg39
(dp2936
sg41
I1558
sg42
g21
sg43
g21
sg44
I289
sg45
Vto
p2937
sg47
I289
sg48
I1560
sbag0
(g23
g2
Ntp2938
Rp2939
(dp2940
g27
(dp2941
g29
Vbegin
p2942
sg31
VO
p2943
sg33
VVB
p2944
sg35
I33
ssg10
I290
sg36
g4
sg37
(dp2945
sg39
(dp2946
sg41
I1561
sg42
g21
sg43
g21
sg44
I290
sg45
Vbegin
p2947
sg47
I290
sg48
I1566
sbag0
(g23
g2
Ntp2948
Rp2949
(dp2950
g27
(dp2951
g29
Vto
p2952
sg31
VO
p2953
sg33
VTO
p2954
sg35
I34
ssg10
I291
sg36
g4
sg37
(dp2955
sg39
(dp2956
sg41
I1567
sg42
g21
sg43
g21
sg44
I291
sg45
Vto
p2957
sg47
I291
sg48
I1569
sbag0
(g23
g2
Ntp2958
Rp2959
(dp2960
g27
(dp2961
g29
Vreverse
p2962
sg31
VO
p2963
sg33
VVB
p2964
sg35
I35
ssg10
I292
sg36
g4
sg37
(dp2965
sg39
(dp2966
sg41
I1570
sg42
g21
sg43
g21
sg44
I292
sg45
Vreverse
p2967
sg47
I292
sg48
I1577
sbag0
(g23
g2
Ntp2968
Rp2969
(dp2970
g27
(dp2971
g29
Vthe
p2972
sg31
VO
p2973
sg33
VDT
p2974
sg35
I36
ssg10
I293
sg36
g4
sg37
(dp2975
sg39
(dp2976
sg41
I1578
sg42
g21
sg43
g21
sg44
I293
sg45
Vthe
p2977
sg47
I293
sg48
I1581
sbag0
(g23
g2
Ntp2978
Rp2979
(dp2980
g27
(dp2981
g29
Vpoverty
p2982
sg31
VO
p2983
sg33
VNN
p2984
sg35
I37
ssg10
I294
sg36
g4
sg37
(dp2985
sg39
(dp2986
sg41
I1582
sg42
g21
sg43
g21
sg44
I294
sg45
Vpoverty
p2987
sg47
I294
sg48
I1589
sbag0
(g23
g2
Ntp2988
Rp2989
(dp2990
g27
(dp2991
g29
Vtrap
p2992
sg31
VO
p2993
sg33
VNN
p2994
sg35
I38
ssg10
I295
sg36
g4
sg37
(dp2995
sg39
(dp2996
sg41
I1590
sg42
g21
sg43
g21
sg44
I295
sg45
Vtrap
p2997
sg47
I295
sg48
I1594
sbag0
(g23
g2
Ntp2998
Rp2999
(dp3000
g27
(dp3001
g29
V.
p3002
sg31
VO
p3003
sg33
V.
p3004
sg35
I39
ssg10
I296
sg36
g4
sg37
(dp3005
sg39
(dp3006
sg41
I1594
sg42
g21
sg43
g21
sg44
I296
sg45
V.
p3007
sg47
I296
sg48
I1595
sbag0
(g23
g2
Ntp3008
Rp3009
(dp3010
g27
(dp3011
g29
Vthe
p3012
sg31
VO
p3013
sg33
VDT
p3014
sg35
I1
ssg10
I297
sg36
g4
sg37
(dp3015
sg39
(dp3016
sg41
I1596
sg42
g21
sg43
g21
sg44
I297
sg45
VThe
p3017
sg47
I297
sg48
I1599
sbag0
(g23
g2
Ntp3018
Rp3019
(dp3020
g27
(dp3021
g29
Vproblem
p3022
sg31
VO
p3023
sg33
VNN
p3024
sg35
I2
ssg10
I298
sg36
g4
sg37
(dp3025
sg39
(dp3026
sg41
I1600
sg42
g21
sg43
g21
sg44
I298
sg45
Vproblem
p3027
sg47
I298
sg48
I1607
sbag0
(g23
g2
Ntp3028
Rp3029
(dp3030
g27
(dp3031
g29
Vbe
p3032
sg31
VO
p3033
sg33
VVBZ
p3034
sg35
I3
ssg10
I299
sg36
g4
sg37
(dp3035
sg39
(dp3036
sg41
I1608
sg42
g21
sg43
g21
sg44
I299
sg45
Vis
p3037
sg47
I299
sg48
I1610
sbag0
(g23
g2
Ntp3038
Rp3039
(dp3040
g27
(dp3041
g29
Vthat
p3042
sg31
VO
p3043
sg33
VIN
p3044
sg35
I4
ssg10
I300
sg36
g4
sg37
(dp3045
sg39
(dp3046
sg41
I1611
sg42
g21
sg43
g21
sg44
I300
sg45
Vthat
p3047
sg47
I300
sg48
I1615
sbag0
(g23
g2
Ntp3048
Rp3049
(dp3050
g27
(dp3051
g29
Vunlike
p3052
sg31
VO
p3053
sg33
VIN
p3054
sg35
I5
ssg10
I301
sg36
g4
sg37
(dp3055
sg39
(dp3056
sg41
I1616
sg42
g21
sg43
g21
sg44
I301
sg45
Vunlike
p3057
sg47
I301
sg48
I1622
sbag0
(g23
g2
Ntp3058
Rp3059
(dp3060
g27
(dp3061
g29
Vstart-up
p3062
sg31
VO
p3063
sg33
VNNS
p3064
sg35
I6
ssg10
I302
sg36
g4
sg37
(dp3065
sg39
(dp3066
sg41
I1623
sg42
g21
sg43
g21
sg44
I302
sg45
Vstart-ups
p3067
sg47
I302
sg48
I1632
sbag0
(g23
g2
Ntp3068
Rp3069
(dp3070
g27
(dp3071
g29
V,
p3072
sg31
VO
p3073
sg33
V,
p3074
sg35
I7
ssg10
I303
sg36
g4
sg37
(dp3075
sg39
(dp3076
sg41
I1632
sg42
g21
sg43
g21
sg44
I303
sg45
V,
p3077
sg47
I303
sg48
I1633
sbag0
(g23
g2
Ntp3078
Rp3079
(dp3080
g27
(dp3081
g29
Vwhich
p3082
sg31
VO
p3083
sg33
VWDT
p3084
sg35
I8
ssg10
I304
sg36
g4
sg37
(dp3085
sg39
(dp3086
sg41
I1634
sg42
g21
sg43
g21
sg44
I304
sg45
Vwhich
p3087
sg47
I304
sg48
I1639
sbag0
(g23
g2
Ntp3088
Rp3089
(dp3090
g27
(dp3091
g29
Vsimply
p3092
sg31
VO
p3093
sg33
VRB
p3094
sg35
I9
ssg10
I305
sg36
g4
sg37
(dp3095
sg39
(dp3096
sg41
I1640
sg42
g21
sg43
g21
sg44
I305
sg45
Vsimply
p3097
sg47
I305
sg48
I1646
sbag0
(g23
g2
Ntp3098
Rp3099
(dp3100
g27
(dp3101
g29
Vgo
p3102
sg31
VO
p3103
sg33
VVB
p3104
sg35
I10
ssg10
I306
sg36
g4
sg37
(dp3105
sg39
(dp3106
sg41
I1647
sg42
g21
sg43
g21
sg44
I306
sg45
Vgo
p3107
sg47
I306
sg48
I1649
sbag0
(g23
g2
Ntp3108
Rp3109
(dp3110
g27
(dp3111
g29
Vbankrupt
p3112
sg31
VO
p3113
sg33
VJJ
p3114
sg35
I11
ssg10
I307
sg36
g4
sg37
(dp3115
sg39
(dp3116
sg41
I1650
sg42
g21
sg43
g21
sg44
I307
sg45
Vbankrupt
p3117
sg47
I307
sg48
I1658
sbag0
(g23
g2
Ntp3118
Rp3119
(dp3120
g27
(dp3121
g29
Vif
p3122
sg31
VO
p3123
sg33
VIN
p3124
sg35
I12
ssg10
I308
sg36
g4
sg37
(dp3125
sg39
(dp3126
sg41
I1659
sg42
g21
sg43
g21
sg44
I308
sg45
Vif
p3127
sg47
I308
sg48
I1661
sbag0
(g23
g2
Ntp3128
Rp3129
(dp3130
g27
(dp3131
g29
Vthey
p3132
sg31
VO
p3133
sg33
VPRP
p3134
sg35
I13
ssg10
I309
sg36
g4
sg37
(dp3135
sg39
(dp3136
sg41
I1662
sg42
g21
sg43
g21
sg44
I309
sg45
Vthey
p3137
sg47
I309
sg48
I1666
sbag0
(g23
g2
Ntp3138
Rp3139
(dp3140
g27
(dp3141
g29
Vfail
p3142
sg31
VO
p3143
sg33
VVBP
p3144
sg35
I14
ssg10
I310
sg36
g4
sg37
(dp3145
sg39
(dp3146
sg41
I1667
sg42
g21
sg43
g21
sg44
I310
sg45
Vfail
p3147
sg47
I310
sg48
I1671
sbag0
(g23
g2
Ntp3148
Rp3149
(dp3150
g27
(dp3151
g29
Vto
p3152
sg31
VO
p3153
sg33
VTO
p3154
sg35
I15
ssg10
I311
sg36
g4
sg37
(dp3155
sg39
(dp3156
sg41
I1672
sg42
g21
sg43
g21
sg44
I311
sg45
Vto
p3157
sg47
I311
sg48
I1674
sbag0
(g23
g2
Ntp3158
Rp3159
(dp3160
g27
(dp3161
g29
Vreceive
p3162
sg31
VO
p3163
sg33
VVB
p3164
sg35
I16
ssg10
I312
sg36
g4
sg37
(dp3165
sg39
(dp3166
sg41
I1675
sg42
g21
sg43
g21
sg44
I312
sg45
Vreceive
p3167
sg47
I312
sg48
I1682
sbag0
(g23
g2
Ntp3168
Rp3169
(dp3170
g27
(dp3171
g29
Vfunding
p3172
sg31
VO
p3173
sg33
VNN
p3174
sg35
I17
ssg10
I313
sg36
g4
sg37
(dp3175
sg39
(dp3176
sg41
I1683
sg42
g21
sg43
g21
sg44
I313
sg45
Vfunding
p3177
sg47
I313
sg48
I1690
sbag0
(g23
g2
Ntp3178
Rp3179
(dp3180
g27
(dp3181
g29
V,
p3182
sg31
VO
p3183
sg33
V,
p3184
sg35
I18
ssg10
I314
sg36
g4
sg37
(dp3185
sg39
(dp3186
sg41
I1690
sg42
g21
sg43
g21
sg44
I314
sg45
V,
p3187
sg47
I314
sg48
I1691
sbag0
(g23
g2
Ntp3188
Rp3189
(dp3190
g27
(dp3191
g29
Vin
p3192
sg31
VO
p3193
sg33
VIN
p3194
sg35
I19
ssg10
I315
sg36
g4
sg37
(dp3195
sg39
(dp3196
sg41
I1692
sg42
g21
sg43
g21
sg44
I315
sg45
Vin
p3197
sg47
I315
sg48
I1694
sbag0
(g23
g2
Ntp3198
Rp3199
(dp3200
g27
(dp3201
g29
VAfrica
p3202
sg31
VLOCATION
p3203
sg33
VNNP
p3204
sg35
I20
ssg10
I316
sg36
g4
sg37
(dp3205
sg39
(dp3206
sg41
I1695
sg42
g21
sg43
g21
sg44
I316
sg45
VAfrica
p3207
sg47
I316
sg48
I1701
sbag0
(g23
g2
Ntp3208
Rp3209
(dp3210
g27
(dp3211
g29
Vpeople
p3212
sg31
VO
p3213
sg33
VNNS
p3214
sg35
I21
ssg10
I317
sg36
g4
sg37
(dp3215
sg39
(dp3216
sg41
I1702
sg42
g21
sg43
g21
sg44
I317
sg45
Vpeople
p3217
sg47
I317
sg48
I1708
sbag0
(g23
g2
Ntp3218
Rp3219
(dp3220
g27
(dp3221
g29
Vcontinue
p3222
sg31
VO
p3223
sg33
VVBP
p3224
sg35
I22
ssg10
I318
sg36
g4
sg37
(dp3225
sg39
(dp3226
sg41
I1709
sg42
g21
sg43
g21
sg44
I318
sg45
Vcontinue
p3227
sg47
I318
sg48
I1717
sbag0
(g23
g2
Ntp3228
Rp3229
(dp3230
g27
(dp3231
g29
Vto
p3232
sg31
VO
p3233
sg33
VTO
p3234
sg35
I23
ssg10
I319
sg36
g4
sg37
(dp3235
sg39
(dp3236
sg41
I1718
sg42
g21
sg43
g21
sg44
I319
sg45
Vto
p3237
sg47
I319
sg48
I1720
sbag0
(g23
g2
Ntp3238
Rp3239
(dp3240
g27
(dp3241
g29
Vdie
p3242
sg31
VO
p3243
sg33
VVB
p3244
sg35
I24
ssg10
I320
sg36
g4
sg37
(dp3245
sg39
(dp3246
sg41
I1721
sg42
g21
sg43
g21
sg44
I320
sg45
Vdie
p3247
sg47
I320
sg48
I1724
sbag0
(g23
g2
Ntp3248
Rp3249
(dp3250
g27
(dp3251
g29
Vat
p3252
sg31
VO
p3253
sg33
VIN
p3254
sg35
I25
ssg10
I321
sg36
g4
sg37
(dp3255
sg39
(dp3256
sg41
I1725
sg42
g21
sg43
g21
sg44
I321
sg45
Vat
p3257
sg47
I321
sg48
I1727
sbag0
(g23
g2
Ntp3258
Rp3259
(dp3260
g27
(dp3261
g29
Va
p3262
sg31
VO
p3263
sg33
VDT
p3264
sg35
I26
ssg10
I322
sg36
g4
sg37
(dp3265
sg39
(dp3266
sg41
I1725
sg42
g21
sg43
g21
sg44
I322
sg45
Va
p3267
sg47
I322
sg48
I1726
sbag0
(g23
g2
Ntp3268
Rp3269
(dp3270
g27
(dp3271
g29
Vhigh
p3272
sg31
VO
p3273
sg33
VJJ
p3274
sg35
I27
ssg10
I323
sg36
g4
sg37
(dp3275
sg39
(dp3276
sg41
I1730
sg42
g21
sg43
g21
sg44
I323
sg45
Vhigh
p3277
sg47
I323
sg48
I1734
sbag0
(g23
g2
Ntp3278
Rp3279
(dp3280
g27
(dp3281
g29
Vrate
p3282
sg31
VO
p3283
sg33
VNN
p3284
sg35
I28
ssg10
I324
sg36
g4
sg37
(dp3285
sg39
(dp3286
sg41
I1735
sg42
g21
sg43
g21
sg44
I324
sg45
Vrate
p3287
sg47
I324
sg48
I1739
sbag0
(g23
g2
Ntp3288
Rp3289
(dp3290
g27
(dp3291
g29
Vdue
p3292
sg31
VO
p3293
sg33
VJJ
p3294
sg35
I29
ssg10
I325
sg36
g4
sg37
(dp3295
sg39
(dp3296
sg41
I1740
sg42
g21
sg43
g21
sg44
I325
sg45
Vdue
p3297
sg47
I325
sg48
I1743
sbag0
(g23
g2
Ntp3298
Rp3299
(dp3300
g27
(dp3301
g29
Vin
p3302
sg31
VO
p3303
sg33
VIN
p3304
sg35
I30
ssg10
I326
sg36
g4
sg37
(dp3305
sg39
(dp3306
sg41
I1744
sg42
g21
sg43
g21
sg44
I326
sg45
Vin
p3307
sg47
I326
sg48
I1746
sbag0
(g23
g2
Ntp3308
Rp3309
(dp3310
g27
(dp3311
g29
Vlarge
p3312
sg31
VO
p3313
sg33
VJJ
p3314
sg35
I31
ssg10
I327
sg36
g4
sg37
(dp3315
sg39
(dp3316
sg41
I1747
sg42
g21
sg43
g21
sg44
I327
sg45
Vlarge
p3317
sg47
I327
sg48
I1752
sbag0
(g23
g2
Ntp3318
Rp3319
(dp3320
g27
(dp3321
g29
Vpart
p3322
sg31
VO
p3323
sg33
VNN
p3324
sg35
I32
ssg10
I328
sg36
g4
sg37
(dp3325
sg39
(dp3326
sg41
I1753
sg42
g21
sg43
g21
sg44
I328
sg45
Vpart
p3327
sg47
I328
sg48
I1757
sbag0
(g23
g2
Ntp3328
Rp3329
(dp3330
g27
(dp3331
g29
Vto
p3332
sg31
VO
p3333
sg33
VTO
p3334
sg35
I33
ssg10
I329
sg36
g4
sg37
(dp3335
sg39
(dp3336
sg41
I1758
sg42
g21
sg43
g21
sg44
I329
sg45
Vto
p3337
sg47
I329
sg48
I1760
sbag0
(g23
g2
Ntp3338
Rp3339
(dp3340
g27
(dp3341
g29
Vlack
p3342
sg31
VO
p3343
sg33
VNN
p3344
sg35
I34
ssg10
I330
sg36
g4
sg37
(dp3345
sg39
(dp3346
sg41
I1761
sg42
g21
sg43
g21
sg44
I330
sg45
Vlack
p3347
sg47
I330
sg48
I1765
sbag0
(g23
g2
Ntp3348
Rp3349
(dp3350
g27
(dp3351
g29
Vof
p3352
sg31
VO
p3353
sg33
VIN
p3354
sg35
I35
ssg10
I331
sg36
g4
sg37
(dp3355
sg39
(dp3356
sg41
I1766
sg42
g21
sg43
g21
sg44
I331
sg45
Vof
p3357
sg47
I331
sg48
I1768
sbag0
(g23
g2
Ntp3358
Rp3359
(dp3360
g27
(dp3361
g29
Vsufficient
p3362
sg31
VO
p3363
sg33
VJJ
p3364
sg35
I36
ssg10
I332
sg36
g4
sg37
(dp3365
sg39
(dp3366
sg41
I1769
sg42
g21
sg43
g21
sg44
I332
sg45
Vsufficient
p3367
sg47
I332
sg48
I1779
sbag0
(g23
g2
Ntp3368
Rp3369
(dp3370
g27
(dp3371
g29
Vaid
p3372
sg31
VO
p3373
sg33
VNN
p3374
sg35
I37
ssg10
I333
sg36
g4
sg37
(dp3375
sg39
(dp3376
sg41
I1780
sg42
g21
sg43
g21
sg44
I333
sg45
Vaid
p3377
sg47
I333
sg48
I1783
sbag0
(g23
g2
Ntp3378
Rp3379
(dp3380
g27
(dp3381
g29
V.
p3382
sg31
VO
p3383
sg33
V.
p3384
sg35
I38
ssg10
I334
sg36
g4
sg37
(dp3385
sg39
(dp3386
sg41
I1783
sg42
g21
sg43
g21
sg44
I334
sg45
V.
p3387
sg47
I334
sg48
I1784
sbag0
(g23
g2
Ntp3388
Rp3389
(dp3390
g27
(dp3391
g29
VSachs
p3392
sg31
VPERSON
p3393
sg33
VNNP
p3394
sg35
I1
ssg10
I335
sg36
g4
sg37
(dp3395
sg39
(dp3396
sg41
I1787
sg42
g21
sg43
g21
sg44
I335
sg45
VSachs
p3397
sg47
I335
sg48
I1792
sbag0
(g23
g2
Ntp3398
Rp3399
(dp3400
g27
(dp3401
g29
Vpoint
p3402
sg31
VO
p3403
sg33
VVBZ
p3404
sg35
I2
ssg10
I336
sg36
g4
sg37
(dp3405
sg39
(dp3406
sg41
I1793
sg42
g21
sg43
g21
sg44
I336
sg45
Vpoints
p3407
sg47
I336
sg48
I1799
sbag0
(g23
g2
Ntp3408
Rp3409
(dp3410
g27
(dp3411
g29
Vout
p3412
sg31
VO
p3413
sg33
VRP
p3414
sg35
I3
ssg10
I337
sg36
g4
sg37
(dp3415
sg39
(dp3416
sg41
I1800
sg42
g21
sg43
g21
sg44
I337
sg45
Vout
p3417
sg47
I337
sg48
I1803
sbag0
(g23
g2
Ntp3418
Rp3419
(dp3420
g27
(dp3421
g29
Vthat
p3422
sg31
VO
p3423
sg33
VIN
p3424
sg35
I4
ssg10
I338
sg36
g4
sg37
(dp3425
sg39
(dp3426
sg41
I1804
sg42
g21
sg43
g21
sg44
I338
sg45
Vthat
p3427
sg47
I338
sg48
I1808
sbag0
(g23
g2
Ntp3428
Rp3429
(dp3430
g27
(dp3431
g29
Vthe
p3432
sg31
VO
p3433
sg33
VDT
p3434
sg35
I5
ssg10
I339
sg36
g4
sg37
(dp3435
sg39
(dp3436
sg41
I1809
sg42
g21
sg43
g21
sg44
I339
sg45
Vthe
p3437
sg47
I339
sg48
I1812
sbag0
(g23
g2
Ntp3438
Rp3439
(dp3440
g27
(dp3441
g29
Vextreme
p3442
sg31
VO
p3443
sg33
VJJ
p3444
sg35
I6
ssg10
I340
sg36
g4
sg37
(dp3445
sg39
(dp3446
sg41
I1813
sg42
g21
sg43
g21
sg44
I340
sg45
Vextreme
p3447
sg47
I340
sg48
I1820
sbag0
(g23
g2
Ntp3448
Rp3449
(dp3450
g27
(dp3451
g29
Vpoor
p3452
sg31
VO
p3453
sg33
VJJ
p3454
sg35
I7
ssg10
I341
sg36
g4
sg37
(dp3455
sg39
(dp3456
sg41
I1821
sg42
g21
sg43
g21
sg44
I341
sg45
Vpoor
p3457
sg47
I341
sg48
I1825
sbag0
(g23
g2
Ntp3458
Rp3459
(dp3460
g27
(dp3461
g29
Vlack
p3462
sg31
VO
p3463
sg33
VNN
p3464
sg35
I8
ssg10
I342
sg36
g4
sg37
(dp3465
sg39
(dp3466
sg41
I1826
sg42
g21
sg43
g21
sg44
I342
sg45
Vlack
p3467
sg47
I342
sg48
I1830
sbag0
(g23
g2
Ntp3468
Rp3469
(dp3470
g27
(dp3471
g29
Vsix
p3472
sg31
VNUMBER
p3473
sg33
VCD
p3474
sg35
I9
ssg10
I343
sg36
g4
sg37
(dp3475
sg39
(dp3476
sg41
I1831
sg42
g21
sg43
g21
sg44
I343
sg45
Vsix
p3477
sg47
I343
sg48
I1834
sbag0
(g23
g2
Ntp3478
Rp3479
(dp3480
g27
(dp3481
g29
Vmajor
p3482
sg31
VO
p3483
sg33
VJJ
p3484
sg35
I10
ssg10
I344
sg36
g4
sg37
(dp3485
sg39
(dp3486
sg41
I1835
sg42
g21
sg43
g21
sg44
I344
sg45
Vmajor
p3487
sg47
I344
sg48
I1840
sbag0
(g23
g2
Ntp3488
Rp3489
(dp3490
g27
(dp3491
g29
Vkind
p3492
sg31
VO
p3493
sg33
VNNS
p3494
sg35
I11
ssg10
I345
sg36
g4
sg37
(dp3495
sg39
(dp3496
sg41
I1841
sg42
g21
sg43
g21
sg44
I345
sg45
Vkinds
p3497
sg47
I345
sg48
I1846
sbag0
(g23
g2
Ntp3498
Rp3499
(dp3500
g27
(dp3501
g29
Vof
p3502
sg31
VO
p3503
sg33
VIN
p3504
sg35
I12
ssg10
I346
sg36
g4
sg37
(dp3505
sg39
(dp3506
sg41
I1847
sg42
g21
sg43
g21
sg44
I346
sg45
Vof
p3507
sg47
I346
sg48
I1849
sbag0
(g23
g2
Ntp3508
Rp3509
(dp3510
g27
(dp3511
g29
Vcapital
p3512
sg31
VO
p3513
sg33
VNN
p3514
sg35
I13
ssg10
I347
sg36
g4
sg37
(dp3515
sg39
(dp3516
sg41
I1850
sg42
g21
sg43
g21
sg44
I347
sg45
Vcapital
p3517
sg47
I347
sg48
I1857
sbag0
(g23
g2
Ntp3518
Rp3519
(dp3520
g27
(dp3521
g29
V:
p3522
sg31
VO
p3523
sg33
V:
p3524
sg35
I14
ssg10
I348
sg36
g4
sg37
(dp3525
sg39
(dp3526
sg41
I1857
sg42
g21
sg43
g21
sg44
I348
sg45
V:
p3527
sg47
I348
sg48
I1858
sbag0
(g23
g2
Ntp3528
Rp3529
(dp3530
g27
(dp3531
g29
Vhuman
p3532
sg31
VO
p3533
sg33
VJJ
p3534
sg35
I15
ssg10
I349
sg36
g4
sg37
(dp3535
sg39
(dp3536
sg41
I1859
sg42
g21
sg43
g21
sg44
I349
sg45
Vhuman
p3537
sg47
I349
sg48
I1864
sbag0
(g23
g2
Ntp3538
Rp3539
(dp3540
g27
(dp3541
g29
Vcapital
p3542
sg31
VO
p3543
sg33
VNN
p3544
sg35
I16
ssg10
I350
sg36
g4
sg37
(dp3545
sg39
(dp3546
sg41
I1865
sg42
g21
sg43
g21
sg44
I350
sg45
Vcapital
p3547
sg47
I350
sg48
I1872
sbag0
(g23
g2
Ntp3548
Rp3549
(dp3550
g27
(dp3551
g29
V,
p3552
sg31
VO
p3553
sg33
V,
p3554
sg35
I17
ssg10
I351
sg36
g4
sg37
(dp3555
sg39
(dp3556
sg41
I1872
sg42
g21
sg43
g21
sg44
I351
sg45
V,
p3557
sg47
I351
sg48
I1873
sbag0
(g23
g2
Ntp3558
Rp3559
(dp3560
g27
(dp3561
g29
Vbusiness
p3562
sg31
VO
p3563
sg33
VNN
p3564
sg35
I18
ssg10
I352
sg36
g4
sg37
(dp3565
sg39
(dp3566
sg41
I1874
sg42
g21
sg43
g21
sg44
I352
sg45
Vbusiness
p3567
sg47
I352
sg48
I1882
sbag0
(g23
g2
Ntp3568
Rp3569
(dp3570
g27
(dp3571
g29
Vcapital
p3572
sg31
VO
p3573
sg33
VNN
p3574
sg35
I19
ssg10
I353
sg36
g4
sg37
(dp3575
sg39
(dp3576
sg41
I1883
sg42
g21
sg43
g21
sg44
I353
sg45
Vcapital
p3577
sg47
I353
sg48
I1890
sbag0
(g23
g2
Ntp3578
Rp3579
(dp3580
g27
(dp3581
g29
V,
p3582
sg31
VO
p3583
sg33
V,
p3584
sg35
I20
ssg10
I354
sg36
g4
sg37
(dp3585
sg39
(dp3586
sg41
I1890
sg42
g21
sg43
g21
sg44
I354
sg45
V,
p3587
sg47
I354
sg48
I1891
sbag0
(g23
g2
Ntp3588
Rp3589
(dp3590
g27
(dp3591
g29
Vinfrastructure
p3592
sg31
VO
p3593
sg33
VNN
p3594
sg35
I21
ssg10
I355
sg36
g4
sg37
(dp3595
sg39
(dp3596
sg41
I1892
sg42
g21
sg43
g21
sg44
I355
sg45
Vinfrastructure
p3597
sg47
I355
sg48
I1906
sbag0
(g23
g2
Ntp3598
Rp3599
(dp3600
g27
(dp3601
g29
V,
p3602
sg31
VO
p3603
sg33
V,
p3604
sg35
I22
ssg10
I356
sg36
g4
sg37
(dp3605
sg39
(dp3606
sg41
I1906
sg42
g21
sg43
g21
sg44
I356
sg45
V,
p3607
sg47
I356
sg48
I1907
sbag0
(g23
g2
Ntp3608
Rp3609
(dp3610
g27
(dp3611
g29
Vnatural
p3612
sg31
VO
p3613
sg33
VJJ
p3614
sg35
I23
ssg10
I357
sg36
g4
sg37
(dp3615
sg39
(dp3616
sg41
I1908
sg42
g21
sg43
g21
sg44
I357
sg45
Vnatural
p3617
sg47
I357
sg48
I1915
sbag0
(g23
g2
Ntp3618
Rp3619
(dp3620
g27
(dp3621
g29
Vcapital
p3622
sg31
VO
p3623
sg33
VNN
p3624
sg35
I24
ssg10
I358
sg36
g4
sg37
(dp3625
sg39
(dp3626
sg41
I1916
sg42
g21
sg43
g21
sg44
I358
sg45
Vcapital
p3627
sg47
I358
sg48
I1923
sbag0
(g23
g2
Ntp3628
Rp3629
(dp3630
g27
(dp3631
g29
V,
p3632
sg31
VO
p3633
sg33
V,
p3634
sg35
I25
ssg10
I359
sg36
g4
sg37
(dp3635
sg39
(dp3636
sg41
I1923
sg42
g21
sg43
g21
sg44
I359
sg45
V,
p3637
sg47
I359
sg48
I1924
sbag0
(g23
g2
Ntp3638
Rp3639
(dp3640
g27
(dp3641
g29
Vpublic
p3642
sg31
VO
p3643
sg33
VJJ
p3644
sg35
I26
ssg10
I360
sg36
g4
sg37
(dp3645
sg39
(dp3646
sg41
I1925
sg42
g21
sg43
g21
sg44
I360
sg45
Vpublic
p3647
sg47
I360
sg48
I1931
sbag0
(g23
g2
Ntp3648
Rp3649
(dp3650
g27
(dp3651
g29
Vinstitutional
p3652
sg31
VO
p3653
sg33
VJJ
p3654
sg35
I27
ssg10
I361
sg36
g4
sg37
(dp3655
sg39
(dp3656
sg41
I1932
sg42
g21
sg43
g21
sg44
I361
sg45
Vinstitutional
p3657
sg47
I361
sg48
I1945
sbag0
(g23
g2
Ntp3658
Rp3659
(dp3660
g27
(dp3661
g29
Vcapital
p3662
sg31
VO
p3663
sg33
VNN
p3664
sg35
I28
ssg10
I362
sg36
g4
sg37
(dp3665
sg39
(dp3666
sg41
I1946
sg42
g21
sg43
g21
sg44
I362
sg45
Vcapital
p3667
sg47
I362
sg48
I1953
sbag0
(g23
g2
Ntp3668
Rp3669
(dp3670
g27
(dp3671
g29
V,
p3672
sg31
VO
p3673
sg33
V,
p3674
sg35
I29
ssg10
I363
sg36
g4
sg37
(dp3675
sg39
(dp3676
sg41
I1953
sg42
g21
sg43
g21
sg44
I363
sg45
V,
p3677
sg47
I363
sg48
I1954
sbag0
(g23
g2
Ntp3678
Rp3679
(dp3680
g27
(dp3681
g29
Vand
p3682
sg31
VO
p3683
sg33
VCC
p3684
sg35
I30
ssg10
I364
sg36
g4
sg37
(dp3685
sg39
(dp3686
sg41
I1955
sg42
g21
sg43
g21
sg44
I364
sg45
Vand
p3687
sg47
I364
sg48
I1958
sbag0
(g23
g2
Ntp3688
Rp3689
(dp3690
g27
(dp3691
g29
Vknowledge
p3692
sg31
VO
p3693
sg33
VNN
p3694
sg35
I31
ssg10
I365
sg36
g4
sg37
(dp3695
sg39
(dp3696
sg41
I1959
sg42
g21
sg43
g21
sg44
I365
sg45
Vknowledge
p3697
sg47
I365
sg48
I1968
sbag0
(g23
g2
Ntp3698
Rp3699
(dp3700
g27
(dp3701
g29
Vcapital
p3702
sg31
VO
p3703
sg33
VNN
p3704
sg35
I32
ssg10
I366
sg36
g4
sg37
(dp3705
sg39
(dp3706
sg41
I1969
sg42
g21
sg43
g21
sg44
I366
sg45
Vcapital
p3707
sg47
I366
sg48
I1976
sbag0
(g23
g2
Ntp3708
Rp3709
(dp3710
g27
(dp3711
g29
V-lsb-
p3712
sg31
VO
p3713
sg33
V-LRB-
p3714
sg35
I33
ssg10
I367
sg36
g4
sg37
(dp3715
sg39
(dp3716
sg41
I1977
sg42
g21
sg43
g21
sg44
I367
sg45
V[
p3717
sg47
I367
sg48
I1978
sbag0
(g23
g2
Ntp3718
Rp3719
(dp3720
g27
(dp3721
g29
Vref
p3722
sg31
VO
p3723
sg33
VNN
p3724
sg35
I34
ssg10
I368
sg36
g4
sg37
(dp3725
sg39
(dp3726
sg41
I1978
sg42
g21
sg43
g21
sg44
I368
sg45
VREF
p3727
sg47
I368
sg48
I1981
sbag0
(g23
g2
Ntp3728
Rp3729
(dp3730
g27
(dp3731
g29
V-rsb-
p3732
sg31
VO
p3733
sg33
V-RRB-
p3734
sg35
I35
ssg10
I369
sg36
g4
sg37
(dp3735
sg39
(dp3736
sg41
I1981
sg42
g21
sg43
g21
sg44
I369
sg45
V]
p3737
sg47
I369
sg48
I1982
sbag0
(g23
g2
Ntp3738
Rp3739
(dp3740
g27
(dp3741
g29
V.
p3742
sg31
VO
p3743
sg33
V.
p3744
sg35
I36
ssg10
I370
sg36
g4
sg37
(dp3745
sg39
(dp3746
sg41
I1982
sg42
g21
sg43
g21
sg44
I370
sg45
V.
p3747
sg47
I370
sg48
I1983
sbag0
(g23
g2
Ntp3748
Rp3749
(dp3750
g27
(dp3751
g29
Vhe
p3752
sg31
VO
p3753
sg33
VPRP
p3754
sg35
I1
ssg10
I371
sg36
g4
sg37
(dp3755
sg39
(dp3756
sg41
I1984
sg42
g21
sg43
g21
sg44
I371
sg45
VHe
p3757
sg47
I371
sg48
I1986
sbag0
(g23
g2
Ntp3758
Rp3759
(dp3760
g27
(dp3761
g29
Vthen
p3762
sg31
VO
p3763
sg33
VRB
p3764
sg35
I2
ssg10
I372
sg36
g4
sg37
(dp3765
sg39
(dp3766
sg41
I1987
sg42
g21
sg43
g21
sg44
I372
sg45
Vthen
p3767
sg47
I372
sg48
I1991
sbag0
(g23
g2
Ntp3768
Rp3769
(dp3770
g27
(dp3771
g29
Vdetail
p3772
sg31
VO
p3773
sg33
VNNS
p3774
sg35
I3
ssg10
I373
sg36
g4
sg37
(dp3775
sg39
(dp3776
sg41
I1992
sg42
g21
sg43
g21
sg44
I373
sg45
Vdetails
p3777
sg47
I373
sg48
I1999
sbag0
(g23
g2
Ntp3778
Rp3779
(dp3780
g27
(dp3781
g29
Vthe
p3782
sg31
VO
p3783
sg33
VDT
p3784
sg35
I4
ssg10
I374
sg36
g4
sg37
(dp3785
sg39
(dp3786
sg41
I2000
sg42
g21
sg43
g21
sg44
I374
sg45
Vthe
p3787
sg47
I374
sg48
I2003
sbag0
(g23
g2
Ntp3788
Rp3789
(dp3790
g27
(dp3791
g29
Vpoverty
p3792
sg31
VO
p3793
sg33
VNN
p3794
sg35
I5
ssg10
I375
sg36
g4
sg37
(dp3795
sg39
(dp3796
sg41
I2004
sg42
g21
sg43
g21
sg44
I375
sg45
Vpoverty
p3797
sg47
I375
sg48
I2011
sbag0
(g23
g2
Ntp3798
Rp3799
(dp3800
g27
(dp3801
g29
Vtrap
p3802
sg31
VO
p3803
sg33
VNN
p3804
sg35
I6
ssg10
I376
sg36
g4
sg37
(dp3805
sg39
(dp3806
sg41
I2012
sg42
g21
sg43
g21
sg44
I376
sg45
Vtrap
p3807
sg47
I376
sg48
I2016
sbag0
(g23
g2
Ntp3808
Rp3809
(dp3810
g27
(dp3811
g29
V:
p3812
sg31
VO
p3813
sg33
V:
p3814
sg35
I7
ssg10
I377
sg36
g4
sg37
(dp3815
sg39
(dp3816
sg41
I2016
sg42
g21
sg43
g21
sg44
I377
sg45
V:
p3817
sg47
I377
sg48
I2017
sbag0
(g23
g2
Ntp3818
Rp3819
(dp3820
g27
(dp3821
g29
Vthe
p3822
sg31
VO
p3823
sg33
VDT
p3824
sg35
I8
ssg10
I378
sg36
g4
sg37
(dp3825
sg39
(dp3826
sg41
I2018
sg42
g21
sg43
g21
sg44
I378
sg45
VThe
p3827
sg47
I378
sg48
I2021
sbag0
(g23
g2
Ntp3828
Rp3829
(dp3830
g27
(dp3831
g29
Vpoor
p3832
sg31
VO
p3833
sg33
VJJ
p3834
sg35
I9
ssg10
I379
sg36
g4
sg37
(dp3835
sg39
(dp3836
sg41
I2022
sg42
g21
sg43
g21
sg44
I379
sg45
Vpoor
p3837
sg47
I379
sg48
I2026
sbag0
(g23
g2
Ntp3838
Rp3839
(dp3840
g27
(dp3841
g29
Vstart
p3842
sg31
VO
p3843
sg33
VNN
p3844
sg35
I10
ssg10
I380
sg36
g4
sg37
(dp3845
sg39
(dp3846
sg41
I2027
sg42
g21
sg43
g21
sg44
I380
sg45
Vstart
p3847
sg47
I380
sg48
I2032
sbag0
(g23
g2
Ntp3848
Rp3849
(dp3850
g27
(dp3851
g29
Vwith
p3852
sg31
VO
p3853
sg33
VIN
p3854
sg35
I11
ssg10
I381
sg36
g4
sg37
(dp3855
sg39
(dp3856
sg41
I2033
sg42
g21
sg43
g21
sg44
I381
sg45
Vwith
p3857
sg47
I381
sg48
I2037
sbag0
(g23
g2
Ntp3858
Rp3859
(dp3860
g27
(dp3861
g29
Va
p3862
sg31
VO
p3863
sg33
VDT
p3864
sg35
I12
ssg10
I382
sg36
g4
sg37
(dp3865
sg39
(dp3866
sg41
I2038
sg42
g21
sg43
g21
sg44
I382
sg45
Va
p3867
sg47
I382
sg48
I2039
sbag0
(g23
g2
Ntp3868
Rp3869
(dp3870
g27
(dp3871
g29
Vvery
p3872
sg31
VO
p3873
sg33
VRB
p3874
sg35
I13
ssg10
I383
sg36
g4
sg37
(dp3875
sg39
(dp3876
sg41
I2040
sg42
g21
sg43
g21
sg44
I383
sg45
Vvery
p3877
sg47
I383
sg48
I2044
sbag0
(g23
g2
Ntp3878
Rp3879
(dp3880
g27
(dp3881
g29
Vlow
p3882
sg31
VO
p3883
sg33
VJJ
p3884
sg35
I14
ssg10
I384
sg36
g4
sg37
(dp3885
sg39
(dp3886
sg41
I2045
sg42
g21
sg43
g21
sg44
I384
sg45
Vlow
p3887
sg47
I384
sg48
I2048
sbag0
(g23
g2
Ntp3888
Rp3889
(dp3890
g27
(dp3891
g29
Vlevel
p3892
sg31
VO
p3893
sg33
VNN
p3894
sg35
I15
ssg10
I385
sg36
g4
sg37
(dp3895
sg39
(dp3896
sg41
I2049
sg42
g21
sg43
g21
sg44
I385
sg45
Vlevel
p3897
sg47
I385
sg48
I2054
sbag0
(g23
g2
Ntp3898
Rp3899
(dp3900
g27
(dp3901
g29
Vof
p3902
sg31
VO
p3903
sg33
VIN
p3904
sg35
I16
ssg10
I386
sg36
g4
sg37
(dp3905
sg39
(dp3906
sg41
I2055
sg42
g21
sg43
g21
sg44
I386
sg45
Vof
p3907
sg47
I386
sg48
I2057
sbag0
(g23
g2
Ntp3908
Rp3909
(dp3910
g27
(dp3911
g29
Vcapital
p3912
sg31
VO
p3913
sg33
VNN
p3914
sg35
I17
ssg10
I387
sg36
g4
sg37
(dp3915
sg39
(dp3916
sg41
I2058
sg42
g21
sg43
g21
sg44
I387
sg45
Vcapital
p3917
sg47
I387
sg48
I2065
sbag0
(g23
g2
Ntp3918
Rp3919
(dp3920
g27
(dp3921
g29
Vper
p3922
sg31
VO
p3923
sg33
VIN
p3924
sg35
I18
ssg10
I388
sg36
g4
sg37
(dp3925
sg39
(dp3926
sg41
I2066
sg42
g21
sg43
g21
sg44
I388
sg45
Vper
p3927
sg47
I388
sg48
I2069
sbag0
(g23
g2
Ntp3928
Rp3929
(dp3930
g27
(dp3931
g29
Vperson
p3932
sg31
VO
p3933
sg33
VNN
p3934
sg35
I19
ssg10
I389
sg36
g4
sg37
(dp3935
sg39
(dp3936
sg41
I2070
sg42
g21
sg43
g21
sg44
I389
sg45
Vperson
p3937
sg47
I389
sg48
I2076
sbag0
(g23
g2
Ntp3938
Rp3939
(dp3940
g27
(dp3941
g29
V,
p3942
sg31
VO
p3943
sg33
V,
p3944
sg35
I20
ssg10
I390
sg36
g4
sg37
(dp3945
sg39
(dp3946
sg41
I2076
sg42
g21
sg43
g21
sg44
I390
sg45
V,
p3947
sg47
I390
sg48
I2077
sbag0
(g23
g2
Ntp3948
Rp3949
(dp3950
g27
(dp3951
g29
Vand
p3952
sg31
VO
p3953
sg33
VCC
p3954
sg35
I21
ssg10
I391
sg36
g4
sg37
(dp3955
sg39
(dp3956
sg41
I2078
sg42
g21
sg43
g21
sg44
I391
sg45
Vand
p3957
sg47
I391
sg48
I2081
sbag0
(g23
g2
Ntp3958
Rp3959
(dp3960
g27
(dp3961
g29
Vthen
p3962
sg31
VO
p3963
sg33
VRB
p3964
sg35
I22
ssg10
I392
sg36
g4
sg37
(dp3965
sg39
(dp3966
sg41
I2082
sg42
g21
sg43
g21
sg44
I392
sg45
Vthen
p3967
sg47
I392
sg48
I2086
sbag0
(g23
g2
Ntp3968
Rp3969
(dp3970
g27
(dp3971
g29
Vfind
p3972
sg31
VO
p3973
sg33
VVB
p3974
sg35
I23
ssg10
I393
sg36
g4
sg37
(dp3975
sg39
(dp3976
sg41
I2087
sg42
g21
sg43
g21
sg44
I393
sg45
Vfind
p3977
sg47
I393
sg48
I2091
sbag0
(g23
g2
Ntp3978
Rp3979
(dp3980
g27
(dp3981
g29
Vthemselves
p3982
sg31
VO
p3983
sg33
VPRP
p3984
sg35
I24
ssg10
I394
sg36
g4
sg37
(dp3985
sg39
(dp3986
sg41
I2092
sg42
g21
sg43
g21
sg44
I394
sg45
Vthemselves
p3987
sg47
I394
sg48
I2102
sbag0
(g23
g2
Ntp3988
Rp3989
(dp3990
g27
(dp3991
g29
Vtrap
p3992
sg31
VO
p3993
sg33
VVBN
p3994
sg35
I25
ssg10
I395
sg36
g4
sg37
(dp3995
sg39
(dp3996
sg41
I2103
sg42
g21
sg43
g21
sg44
I395
sg45
Vtrapped
p3997
sg47
I395
sg48
I2110
sbag0
(g23
g2
Ntp3998
Rp3999
(dp4000
g27
(dp4001
g29
Vin
p4002
sg31
VO
p4003
sg33
VIN
p4004
sg35
I26
ssg10
I396
sg36
g4
sg37
(dp4005
sg39
(dp4006
sg41
I2111
sg42
g21
sg43
g21
sg44
I396
sg45
Vin
p4007
sg47
I396
sg48
I2113
sbag0
(g23
g2
Ntp4008
Rp4009
(dp4010
g27
(dp4011
g29
Vpoverty
p4012
sg31
VO
p4013
sg33
VNN
p4014
sg35
I27
ssg10
I397
sg36
g4
sg37
(dp4015
sg39
(dp4016
sg41
I2114
sg42
g21
sg43
g21
sg44
I397
sg45
Vpoverty
p4017
sg47
I397
sg48
I2121
sbag0
(g23
g2
Ntp4018
Rp4019
(dp4020
g27
(dp4021
g29
Vbecause
p4022
sg31
VO
p4023
sg33
VIN
p4024
sg35
I28
ssg10
I398
sg36
g4
sg37
(dp4025
sg39
(dp4026
sg41
I2122
sg42
g21
sg43
g21
sg44
I398
sg45
Vbecause
p4027
sg47
I398
sg48
I2129
sbag0
(g23
g2
Ntp4028
Rp4029
(dp4030
g27
(dp4031
g29
Vthe
p4032
sg31
VO
p4033
sg33
VDT
p4034
sg35
I29
ssg10
I399
sg36
g4
sg37
(dp4035
sg39
(dp4036
sg41
I2130
sg42
g21
sg43
g21
sg44
I399
sg45
Vthe
p4037
sg47
I399
sg48
I2133
sbag0
(g23
g2
Ntp4038
Rp4039
(dp4040
g27
(dp4041
g29
Vratio
p4042
sg31
VO
p4043
sg33
VNN
p4044
sg35
I30
ssg10
I400
sg36
g4
sg37
(dp4045
sg39
(dp4046
sg41
I2134
sg42
g21
sg43
g21
sg44
I400
sg45
Vratio
p4047
sg47
I400
sg48
I2139
sbag0
(g23
g2
Ntp4048
Rp4049
(dp4050
g27
(dp4051
g29
Vof
p4052
sg31
VO
p4053
sg33
VIN
p4054
sg35
I31
ssg10
I401
sg36
g4
sg37
(dp4055
sg39
(dp4056
sg41
I2140
sg42
g21
sg43
g21
sg44
I401
sg45
Vof
p4057
sg47
I401
sg48
I2142
sbag0
(g23
g2
Ntp4058
Rp4059
(dp4060
g27
(dp4061
g29
Vcapital
p4062
sg31
VO
p4063
sg33
VNN
p4064
sg35
I32
ssg10
I402
sg36
g4
sg37
(dp4065
sg39
(dp4066
sg41
I2143
sg42
g21
sg43
g21
sg44
I402
sg45
Vcapital
p4067
sg47
I402
sg48
I2150
sbag0
(g23
g2
Ntp4068
Rp4069
(dp4070
g27
(dp4071
g29
Vper
p4072
sg31
VO
p4073
sg33
VIN
p4074
sg35
I33
ssg10
I403
sg36
g4
sg37
(dp4075
sg39
(dp4076
sg41
I2151
sg42
g21
sg43
g21
sg44
I403
sg45
Vper
p4077
sg47
I403
sg48
I2154
sbag0
(g23
g2
Ntp4078
Rp4079
(dp4080
g27
(dp4081
g29
Vperson
p4082
sg31
VO
p4083
sg33
VNN
p4084
sg35
I34
ssg10
I404
sg36
g4
sg37
(dp4085
sg39
(dp4086
sg41
I2155
sg42
g21
sg43
g21
sg44
I404
sg45
Vperson
p4087
sg47
I404
sg48
I2161
sbag0
(g23
g2
Ntp4088
Rp4089
(dp4090
g27
(dp4091
g29
Vactually
p4092
sg31
VO
p4093
sg33
VRB
p4094
sg35
I35
ssg10
I405
sg36
g4
sg37
(dp4095
sg39
(dp4096
sg41
I2162
sg42
g21
sg43
g21
sg44
I405
sg45
Vactually
p4097
sg47
I405
sg48
I2170
sbag0
(g23
g2
Ntp4098
Rp4099
(dp4100
g27
(dp4101
g29
Vfall
p4102
sg31
VO
p4103
sg33
VVBZ
p4104
sg35
I36
ssg10
I406
sg36
g4
sg37
(dp4105
sg39
(dp4106
sg41
I2171
sg42
g21
sg43
g21
sg44
I406
sg45
Vfalls
p4107
sg47
I406
sg48
I2176
sbag0
(g23
g2
Ntp4108
Rp4109
(dp4110
g27
(dp4111
g29
Vfrom
p4112
sg31
VO
p4113
sg33
VIN
p4114
sg35
I37
ssg10
I407
sg36
g4
sg37
(dp4115
sg39
(dp4116
sg41
I2177
sg42
g21
sg43
g21
sg44
I407
sg45
Vfrom
p4117
sg47
I407
sg48
I2181
sbag0
(g23
g2
Ntp4118
Rp4119
(dp4120
g27
(dp4121
g29
Vgeneration
p4122
sg31
VO
p4123
sg33
VNN
p4124
sg35
I38
ssg10
I408
sg36
g4
sg37
(dp4125
sg39
(dp4126
sg41
I2182
sg42
g21
sg43
g21
sg44
I408
sg45
Vgeneration
p4127
sg47
I408
sg48
I2192
sbag0
(g23
g2
Ntp4128
Rp4129
(dp4130
g27
(dp4131
g29
Vto
p4132
sg31
VO
p4133
sg33
VTO
p4134
sg35
I39
ssg10
I409
sg36
g4
sg37
(dp4135
sg39
(dp4136
sg41
I2193
sg42
g21
sg43
g21
sg44
I409
sg45
Vto
p4137
sg47
I409
sg48
I2195
sbag0
(g23
g2
Ntp4138
Rp4139
(dp4140
g27
(dp4141
g29
Vgeneration
p4142
sg31
VO
p4143
sg33
VNN
p4144
sg35
I40
ssg10
I410
sg36
g4
sg37
(dp4145
sg39
(dp4146
sg41
I2196
sg42
g21
sg43
g21
sg44
I410
sg45
Vgeneration
p4147
sg47
I410
sg48
I2206
sbag0
(g23
g2
Ntp4148
Rp4149
(dp4150
g27
(dp4151
g29
V.
p4152
sg31
VO
p4153
sg33
V.
p4154
sg35
I41
ssg10
I411
sg36
g4
sg37
(dp4155
sg39
(dp4156
sg41
I2206
sg42
g21
sg43
g21
sg44
I411
sg45
V.
p4157
sg47
I411
sg48
I2207
sbag0
(g23
g2
Ntp4158
Rp4159
(dp4160
g27
(dp4161
g29
Vthe
p4162
sg31
VO
p4163
sg33
VDT
p4164
sg35
I1
ssg10
I412
sg36
g4
sg37
(dp4165
sg39
(dp4166
sg41
I2208
sg42
g21
sg43
g21
sg44
I412
sg45
VThe
p4167
sg47
I412
sg48
I2211
sbag0
(g23
g2
Ntp4168
Rp4169
(dp4170
g27
(dp4171
g29
Vamount
p4172
sg31
VO
p4173
sg33
VNN
p4174
sg35
I2
ssg10
I413
sg36
g4
sg37
(dp4175
sg39
(dp4176
sg41
I2212
sg42
g21
sg43
g21
sg44
I413
sg45
Vamount
p4177
sg47
I413
sg48
I2218
sbag0
(g23
g2
Ntp4178
Rp4179
(dp4180
g27
(dp4181
g29
Vof
p4182
sg31
VO
p4183
sg33
VIN
p4184
sg35
I3
ssg10
I414
sg36
g4
sg37
(dp4185
sg39
(dp4186
sg41
I2219
sg42
g21
sg43
g21
sg44
I414
sg45
Vof
p4187
sg47
I414
sg48
I2221
sbag0
(g23
g2
Ntp4188
Rp4189
(dp4190
g27
(dp4191
g29
Vcapital
p4192
sg31
VO
p4193
sg33
VNN
p4194
sg35
I4
ssg10
I415
sg36
g4
sg37
(dp4195
sg39
(dp4196
sg41
I2222
sg42
g21
sg43
g21
sg44
I415
sg45
Vcapital
p4197
sg47
I415
sg48
I2229
sbag0
(g23
g2
Ntp4198
Rp4199
(dp4200
g27
(dp4201
g29
Vper
p4202
sg31
VO
p4203
sg33
VIN
p4204
sg35
I5
ssg10
I416
sg36
g4
sg37
(dp4205
sg39
(dp4206
sg41
I2230
sg42
g21
sg43
g21
sg44
I416
sg45
Vper
p4207
sg47
I416
sg48
I2233
sbag0
(g23
g2
Ntp4208
Rp4209
(dp4210
g27
(dp4211
g29
Vperson
p4212
sg31
VO
p4213
sg33
VNN
p4214
sg35
I6
ssg10
I417
sg36
g4
sg37
(dp4215
sg39
(dp4216
sg41
I2234
sg42
g21
sg43
g21
sg44
I417
sg45
Vperson
p4217
sg47
I417
sg48
I2240
sbag0
(g23
g2
Ntp4218
Rp4219
(dp4220
g27
(dp4221
g29
Vdecline
p4222
sg31
VO
p4223
sg33
VNNS
p4224
sg35
I7
ssg10
I418
sg36
g4
sg37
(dp4225
sg39
(dp4226
sg41
I2241
sg42
g21
sg43
g21
sg44
I418
sg45
Vdeclines
p4227
sg47
I418
sg48
I2249
sbag0
(g23
g2
Ntp4228
Rp4229
(dp4230
g27
(dp4231
g29
Vwhen
p4232
sg31
VO
p4233
sg33
VWRB
p4234
sg35
I8
ssg10
I419
sg36
g4
sg37
(dp4235
sg39
(dp4236
sg41
I2250
sg42
g21
sg43
g21
sg44
I419
sg45
Vwhen
p4237
sg47
I419
sg48
I2254
sbag0
(g23
g2
Ntp4238
Rp4239
(dp4240
g27
(dp4241
g29
Vthe
p4242
sg31
VO
p4243
sg33
VDT
p4244
sg35
I9
ssg10
I420
sg36
g4
sg37
(dp4245
sg39
(dp4246
sg41
I2255
sg42
g21
sg43
g21
sg44
I420
sg45
Vthe
p4247
sg47
I420
sg48
I2258
sbag0
(g23
g2
Ntp4248
Rp4249
(dp4250
g27
(dp4251
g29
Vpopulation
p4252
sg31
VO
p4253
sg33
VNN
p4254
sg35
I10
ssg10
I421
sg36
g4
sg37
(dp4255
sg39
(dp4256
sg41
I2259
sg42
g21
sg43
g21
sg44
I421
sg45
Vpopulation
p4257
sg47
I421
sg48
I2269
sbag0
(g23
g2
Ntp4258
Rp4259
(dp4260
g27
(dp4261
g29
Vbe
p4262
sg31
VO
p4263
sg33
VVBZ
p4264
sg35
I11
ssg10
I422
sg36
g4
sg37
(dp4265
sg39
(dp4266
sg41
I2270
sg42
g21
sg43
g21
sg44
I422
sg45
Vis
p4267
sg47
I422
sg48
I2272
sbag0
(g23
g2
Ntp4268
Rp4269
(dp4270
g27
(dp4271
g29
Vgrow
p4272
sg31
VO
p4273
sg33
VVBG
p4274
sg35
I12
ssg10
I423
sg36
g4
sg37
(dp4275
sg39
(dp4276
sg41
I2273
sg42
g21
sg43
g21
sg44
I423
sg45
Vgrowing
p4277
sg47
I423
sg48
I2280
sbag0
(g23
g2
Ntp4278
Rp4279
(dp4280
g27
(dp4281
g29
Vfaster
p4282
sg31
VO
p4283
sg33
VRBR
p4284
sg35
I13
ssg10
I424
sg36
g4
sg37
(dp4285
sg39
(dp4286
sg41
I2281
sg42
g21
sg43
g21
sg44
I424
sg45
Vfaster
p4287
sg47
I424
sg48
I2287
sbag0
(g23
g2
Ntp4288
Rp4289
(dp4290
g27
(dp4291
g29
Vthan
p4292
sg31
VO
p4293
sg33
VIN
p4294
sg35
I14
ssg10
I425
sg36
g4
sg37
(dp4295
sg39
(dp4296
sg41
I2288
sg42
g21
sg43
g21
sg44
I425
sg45
Vthan
p4297
sg47
I425
sg48
I2292
sbag0
(g23
g2
Ntp4298
Rp4299
(dp4300
g27
(dp4301
g29
Vcapital
p4302
sg31
VO
p4303
sg33
VNN
p4304
sg35
I15
ssg10
I426
sg36
g4
sg37
(dp4305
sg39
(dp4306
sg41
I2293
sg42
g21
sg43
g21
sg44
I426
sg45
Vcapital
p4307
sg47
I426
sg48
I2300
sbag0
(g23
g2
Ntp4308
Rp4309
(dp4310
g27
(dp4311
g29
Vbe
p4312
sg31
VO
p4313
sg33
VVBZ
p4314
sg35
I16
ssg10
I427
sg36
g4
sg37
(dp4315
sg39
(dp4316
sg41
I2301
sg42
g21
sg43
g21
sg44
I427
sg45
Vis
p4317
sg47
I427
sg48
I2303
sbag0
(g23
g2
Ntp4318
Rp4319
(dp4320
g27
(dp4321
g29
Vbe
p4322
sg31
VO
p4323
sg33
VVBG
p4324
sg35
I17
ssg10
I428
sg36
g4
sg37
(dp4325
sg39
(dp4326
sg41
I2304
sg42
g21
sg43
g21
sg44
I428
sg45
Vbeing
p4327
sg47
I428
sg48
I2309
sbag0
(g23
g2
Ntp4328
Rp4329
(dp4330
g27
(dp4331
g29
Vaccumulate
p4332
sg31
VO
p4333
sg33
VVBN
p4334
sg35
I18
ssg10
I429
sg36
g4
sg37
(dp4335
sg39
(dp4336
sg41
I2310
sg42
g21
sg43
g21
sg44
I429
sg45
Vaccumulated
p4337
sg47
I429
sg48
I2321
sbag0
(g23
g2
Ntp4338
Rp4339
(dp4340
g27
(dp4341
g29
V.
p4342
sg31
VO
p4343
sg33
V.
p4344
sg35
I19
ssg10
I430
sg36
g4
sg37
(dp4345
sg39
(dp4346
sg41
I2322
sg42
g21
sg43
g21
sg44
I430
sg45
V.
p4347
sg47
I430
sg48
I2323
sbag0
(g23
g2
Ntp4348
Rp4349
(dp4350
g27
(dp4351
g29
V.
p4352
sg31
VO
p4353
sg33
V.
p4354
sg35
I1
ssg10
I431
sg36
g4
sg37
(dp4355
sg39
(dp4356
sg41
I2322
sg42
g21
sg43
g21
sg44
I431
sg45
V.
p4357
sg47
I431
sg48
I2323
sbag0
(g23
g2
Ntp4358
Rp4359
(dp4360
g27
(dp4361
g29
Vthe
p4362
sg31
VO
p4363
sg33
VDT
p4364
sg35
I1
ssg10
I432
sg36
g4
sg37
(dp4365
sg39
(dp4366
sg41
I2325
sg42
g21
sg43
g21
sg44
I432
sg45
VThe
p4367
sg47
I432
sg48
I2328
sbag0
(g23
g2
Ntp4368
Rp4369
(dp4370
g27
(dp4371
g29
Vquestion
p4372
sg31
VO
p4373
sg33
VNN
p4374
sg35
I2
ssg10
I433
sg36
g4
sg37
(dp4375
sg39
(dp4376
sg41
I2329
sg42
g21
sg43
g21
sg44
I433
sg45
Vquestion
p4377
sg47
I433
sg48
I2337
sbag0
(g23
g2
Ntp4378
Rp4379
(dp4380
g27
(dp4381
g29
Vfor
p4382
sg31
VO
p4383
sg33
VIN
p4384
sg35
I3
ssg10
I434
sg36
g4
sg37
(dp4385
sg39
(dp4386
sg41
I2338
sg42
g21
sg43
g21
sg44
I434
sg45
Vfor
p4387
sg47
I434
sg48
I2341
sbag0
(g23
g2
Ntp4388
Rp4389
(dp4390
g27
(dp4391
g29
Vgrowth
p4392
sg31
VO
p4393
sg33
VNN
p4394
sg35
I4
ssg10
I435
sg36
g4
sg37
(dp4395
sg39
(dp4396
sg41
I2342
sg42
g21
sg43
g21
sg44
I435
sg45
Vgrowth
p4397
sg47
I435
sg48
I2348
sbag0
(g23
g2
Ntp4398
Rp4399
(dp4400
g27
(dp4401
g29
Vin
p4402
sg31
VO
p4403
sg33
VIN
p4404
sg35
I5
ssg10
I436
sg36
g4
sg37
(dp4405
sg39
(dp4406
sg41
I2349
sg42
g21
sg43
g21
sg44
I436
sg45
Vin
p4407
sg47
I436
sg48
I2351
sbag0
(g23
g2
Ntp4408
Rp4409
(dp4410
g27
(dp4411
g29
Vper
p4412
sg31
VO
p4413
sg33
VFW
p4414
sg35
I6
ssg10
I437
sg36
g4
sg37
(dp4415
sg39
(dp4416
sg41
I2352
sg42
g21
sg43
g21
sg44
I437
sg45
Vper
p4417
sg47
I437
sg48
I2355
sbag0
(g23
g2
Ntp4418
Rp4419
(dp4420
g27
(dp4421
g29
Vcapita
p4422
sg31
VO
p4423
sg33
VNN
p4424
sg35
I7
ssg10
I438
sg36
g4
sg37
(dp4425
sg39
(dp4426
sg41
I2356
sg42
g21
sg43
g21
sg44
I438
sg45
Vcapita
p4427
sg47
I438
sg48
I2362
sbag0
(g23
g2
Ntp4428
Rp4429
(dp4430
g27
(dp4431
g29
Vincome
p4432
sg31
VO
p4433
sg33
VNN
p4434
sg35
I8
ssg10
I439
sg36
g4
sg37
(dp4435
sg39
(dp4436
sg41
I2363
sg42
g21
sg43
g21
sg44
I439
sg45
Vincome
p4437
sg47
I439
sg48
I2369
sbag0
(g23
g2
Ntp4438
Rp4439
(dp4440
g27
(dp4441
g29
Vbe
p4442
sg31
VO
p4443
sg33
VVBZ
p4444
sg35
I9
ssg10
I440
sg36
g4
sg37
(dp4445
sg39
(dp4446
sg41
I2370
sg42
g21
sg43
g21
sg44
I440
sg45
Vis
p4447
sg47
I440
sg48
I2372
sbag0
(g23
g2
Ntp4448
Rp4449
(dp4450
g27
(dp4451
g29
Vwhether
p4452
sg31
VO
p4453
sg33
VIN
p4454
sg35
I10
ssg10
I441
sg36
g4
sg37
(dp4455
sg39
(dp4456
sg41
I2373
sg42
g21
sg43
g21
sg44
I441
sg45
Vwhether
p4457
sg47
I441
sg48
I2380
sbag0
(g23
g2
Ntp4458
Rp4459
(dp4460
g27
(dp4461
g29
Vthe
p4462
sg31
VO
p4463
sg33
VDT
p4464
sg35
I11
ssg10
I442
sg36
g4
sg37
(dp4465
sg39
(dp4466
sg41
I2376
sg42
g21
sg43
g21
sg44
I442
sg45
Vthe
p4467
sg47
I442
sg48
I2379
sbag0
(g23
g2
Ntp4468
Rp4469
(dp4470
g27
(dp4471
g29
Vnet
p4472
sg31
VO
p4473
sg33
VJJ
p4474
sg35
I12
ssg10
I443
sg36
g4
sg37
(dp4475
sg39
(dp4476
sg41
I2385
sg42
g21
sg43
g21
sg44
I443
sg45
Vnet
p4477
sg47
I443
sg48
I2388
sbag0
(g23
g2
Ntp4478
Rp4479
(dp4480
g27
(dp4481
g29
Vcapital
p4482
sg31
VO
p4483
sg33
VNN
p4484
sg35
I13
ssg10
I444
sg36
g4
sg37
(dp4485
sg39
(dp4486
sg41
I2389
sg42
g21
sg43
g21
sg44
I444
sg45
Vcapital
p4487
sg47
I444
sg48
I2396
sbag0
(g23
g2
Ntp4488
Rp4489
(dp4490
g27
(dp4491
g29
Vaccumulation
p4492
sg31
VO
p4493
sg33
VNN
p4494
sg35
I14
ssg10
I445
sg36
g4
sg37
(dp4495
sg39
(dp4496
sg41
I2397
sg42
g21
sg43
g21
sg44
I445
sg45
Vaccumulation
p4497
sg47
I445
sg48
I2409
sbag0
(g23
g2
Ntp4498
Rp4499
(dp4500
g27
(dp4501
g29
Vbe
p4502
sg31
VO
p4503
sg33
VVBZ
p4504
sg35
I15
ssg10
I446
sg36
g4
sg37
(dp4505
sg39
(dp4506
sg41
I2410
sg42
g21
sg43
g21
sg44
I446
sg45
Vis
p4507
sg47
I446
sg48
I2412
sbag0
(g23
g2
Ntp4508
Rp4509
(dp4510
g27
(dp4511
g29
Vlarge
p4512
sg31
VO
p4513
sg33
VJJ
p4514
sg35
I16
ssg10
I447
sg36
g4
sg37
(dp4515
sg39
(dp4516
sg41
I2413
sg42
g21
sg43
g21
sg44
I447
sg45
Vlarge
p4517
sg47
I447
sg48
I2418
sbag0
(g23
g2
Ntp4518
Rp4519
(dp4520
g27
(dp4521
g29
Venough
p4522
sg31
VO
p4523
sg33
VRB
p4524
sg35
I17
ssg10
I448
sg36
g4
sg37
(dp4525
sg39
(dp4526
sg41
I2419
sg42
g21
sg43
g21
sg44
I448
sg45
Venough
p4527
sg47
I448
sg48
I2425
sbag0
(g23
g2
Ntp4528
Rp4529
(dp4530
g27
(dp4531
g29
Vto
p4532
sg31
VO
p4533
sg33
VTO
p4534
sg35
I18
ssg10
I449
sg36
g4
sg37
(dp4535
sg39
(dp4536
sg41
I2426
sg42
g21
sg43
g21
sg44
I449
sg45
Vto
p4537
sg47
I449
sg48
I2428
sbag0
(g23
g2
Ntp4538
Rp4539
(dp4540
g27
(dp4541
g29
Vkeep
p4542
sg31
VO
p4543
sg33
VVB
p4544
sg35
I19
ssg10
I450
sg36
g4
sg37
(dp4545
sg39
(dp4546
sg41
I2429
sg42
g21
sg43
g21
sg44
I450
sg45
Vkeep
p4547
sg47
I450
sg48
I2433
sbag0
(g23
g2
Ntp4548
Rp4549
(dp4550
g27
(dp4551
g29
Vup
p4552
sg31
VO
p4553
sg33
VRP
p4554
sg35
I20
ssg10
I451
sg36
g4
sg37
(dp4555
sg39
(dp4556
sg41
I2434
sg42
g21
sg43
g21
sg44
I451
sg45
Vup
p4557
sg47
I451
sg48
I2436
sbag0
(g23
g2
Ntp4558
Rp4559
(dp4560
g27
(dp4561
g29
Vwith
p4562
sg31
VO
p4563
sg33
VIN
p4564
sg35
I21
ssg10
I452
sg36
g4
sg37
(dp4565
sg39
(dp4566
sg41
I2437
sg42
g21
sg43
g21
sg44
I452
sg45
Vwith
p4567
sg47
I452
sg48
I2441
sbag0
(g23
g2
Ntp4568
Rp4569
(dp4570
g27
(dp4571
g29
Vpopulation
p4572
sg31
VO
p4573
sg33
VNN
p4574
sg35
I22
ssg10
I453
sg36
g4
sg37
(dp4575
sg39
(dp4576
sg41
I2442
sg42
g21
sg43
g21
sg44
I453
sg45
Vpopulation
p4577
sg47
I453
sg48
I2452
sbag0
(g23
g2
Ntp4578
Rp4579
(dp4580
g27
(dp4581
g29
Vgrowth
p4582
sg31
VO
p4583
sg33
VNN
p4584
sg35
I23
ssg10
I454
sg36
g4
sg37
(dp4585
sg39
(dp4586
sg41
I2453
sg42
g21
sg43
g21
sg44
I454
sg45
Vgrowth
p4587
sg47
I454
sg48
I2459
sbag0
(g23
g2
Ntp4588
Rp4589
(dp4590
g27
(dp4591
g29
V.
p4592
sg31
VO
p4593
sg33
V.
p4594
sg35
I24
ssg10
I455
sg36
g4
sg37
(dp4595
sg39
(dp4596
sg41
I2459
sg42
g21
sg43
g21
sg44
I455
sg45
V.
p4597
sg47
I455
sg48
I2460
sbag0
(g23
g2
Ntp4598
Rp4599
(dp4600
g27
(dp4601
g29
VSachs
p4602
sg31
VPERSON
p4603
sg33
VNNP
p4604
sg35
I1
ssg10
I456
sg36
g4
sg37
(dp4605
sg39
(dp4606
sg41
I2463
sg42
g21
sg43
g21
sg44
I456
sg45
VSachs
p4607
sg47
I456
sg48
I2468
sbag0
(g23
g2
Ntp4608
Rp4609
(dp4610
g27
(dp4611
g29
Vargue
p4612
sg31
VO
p4613
sg33
VVBZ
p4614
sg35
I2
ssg10
I457
sg36
g4
sg37
(dp4615
sg39
(dp4616
sg41
I2469
sg42
g21
sg43
g21
sg44
I457
sg45
Vargues
p4617
sg47
I457
sg48
I2475
sbag0
(g23
g2
Ntp4618
Rp4619
(dp4620
g27
(dp4621
g29
Vthat
p4622
sg31
VO
p4623
sg33
VIN
p4624
sg35
I3
ssg10
I458
sg36
g4
sg37
(dp4625
sg39
(dp4626
sg41
I2476
sg42
g21
sg43
g21
sg44
I458
sg45
Vthat
p4627
sg47
I458
sg48
I2480
sbag0
(g23
g2
Ntp4628
Rp4629
(dp4630
g27
(dp4631
g29
Vsufficient
p4632
sg31
VO
p4633
sg33
VJJ
p4634
sg35
I4
ssg10
I459
sg36
g4
sg37
(dp4635
sg39
(dp4636
sg41
I2481
sg42
g21
sg43
g21
sg44
I459
sg45
Vsufficient
p4637
sg47
I459
sg48
I2491
sbag0
(g23
g2
Ntp4638
Rp4639
(dp4640
g27
(dp4641
g29
Vforeign
p4642
sg31
VO
p4643
sg33
VJJ
p4644
sg35
I5
ssg10
I460
sg36
g4
sg37
(dp4645
sg39
(dp4646
sg41
I2492
sg42
g21
sg43
g21
sg44
I460
sg45
Vforeign
p4647
sg47
I460
sg48
I2499
sbag0
(g23
g2
Ntp4648
Rp4649
(dp4650
g27
(dp4651
g29
Vaid
p4652
sg31
VO
p4653
sg33
VNN
p4654
sg35
I6
ssg10
I461
sg36
g4
sg37
(dp4655
sg39
(dp4656
sg41
I2500
sg42
g21
sg43
g21
sg44
I461
sg45
Vaid
p4657
sg47
I461
sg48
I2503
sbag0
(g23
g2
Ntp4658
Rp4659
(dp4660
g27
(dp4661
g29
Vcan
p4662
sg31
VO
p4663
sg33
VMD
p4664
sg35
I7
ssg10
I462
sg36
g4
sg37
(dp4665
sg39
(dp4666
sg41
I2504
sg42
g21
sg43
g21
sg44
I462
sg45
Vcan
p4667
sg47
I462
sg48
I2507
sbag0
(g23
g2
Ntp4668
Rp4669
(dp4670
g27
(dp4671
g29
Vmake
p4672
sg31
VO
p4673
sg33
VVB
p4674
sg35
I8
ssg10
I463
sg36
g4
sg37
(dp4675
sg39
(dp4676
sg41
I2508
sg42
g21
sg43
g21
sg44
I463
sg45
Vmake
p4677
sg47
I463
sg48
I2512
sbag0
(g23
g2
Ntp4678
Rp4679
(dp4680
g27
(dp4681
g29
Vup
p4682
sg31
VO
p4683
sg33
VRP
p4684
sg35
I9
ssg10
I464
sg36
g4
sg37
(dp4685
sg39
(dp4686
sg41
I2513
sg42
g21
sg43
g21
sg44
I464
sg45
Vup
p4687
sg47
I464
sg48
I2515
sbag0
(g23
g2
Ntp4688
Rp4689
(dp4690
g27
(dp4691
g29
Vfor
p4692
sg31
VO
p4693
sg33
VIN
p4694
sg35
I10
ssg10
I465
sg36
g4
sg37
(dp4695
sg39
(dp4696
sg41
I2516
sg42
g21
sg43
g21
sg44
I465
sg45
Vfor
p4697
sg47
I465
sg48
I2519
sbag0
(g23
g2
Ntp4698
Rp4699
(dp4700
g27
(dp4701
g29
Vthe
p4702
sg31
VO
p4703
sg33
VDT
p4704
sg35
I11
ssg10
I466
sg36
g4
sg37
(dp4705
sg39
(dp4706
sg41
I2520
sg42
g21
sg43
g21
sg44
I466
sg45
Vthe
p4707
sg47
I466
sg48
I2523
sbag0
(g23
g2
Ntp4708
Rp4709
(dp4710
g27
(dp4711
g29
Vlack
p4712
sg31
VO
p4713
sg33
VNN
p4714
sg35
I12
ssg10
I467
sg36
g4
sg37
(dp4715
sg39
(dp4716
sg41
I2524
sg42
g21
sg43
g21
sg44
I467
sg45
Vlack
p4717
sg47
I467
sg48
I2528
sbag0
(g23
g2
Ntp4718
Rp4719
(dp4720
g27
(dp4721
g29
Vof
p4722
sg31
VO
p4723
sg33
VIN
p4724
sg35
I13
ssg10
I468
sg36
g4
sg37
(dp4725
sg39
(dp4726
sg41
I2529
sg42
g21
sg43
g21
sg44
I468
sg45
Vof
p4727
sg47
I468
sg48
I2531
sbag0
(g23
g2
Ntp4728
Rp4729
(dp4730
g27
(dp4731
g29
Vcapital
p4732
sg31
VO
p4733
sg33
VNN
p4734
sg35
I14
ssg10
I469
sg36
g4
sg37
(dp4735
sg39
(dp4736
sg41
I2532
sg42
g21
sg43
g21
sg44
I469
sg45
Vcapital
p4737
sg47
I469
sg48
I2539
sbag0
(g23
g2
Ntp4738
Rp4739
(dp4740
g27
(dp4741
g29
Vin
p4742
sg31
VO
p4743
sg33
VIN
p4744
sg35
I15
ssg10
I470
sg36
g4
sg37
(dp4745
sg39
(dp4746
sg41
I2540
sg42
g21
sg43
g21
sg44
I470
sg45
Vin
p4747
sg47
I470
sg48
I2542
sbag0
(g23
g2
Ntp4748
Rp4749
(dp4750
g27
(dp4751
g29
Vpoor
p4752
sg31
VO
p4753
sg33
VJJ
p4754
sg35
I16
ssg10
I471
sg36
g4
sg37
(dp4755
sg39
(dp4756
sg41
I2543
sg42
g21
sg43
g21
sg44
I471
sg45
Vpoor
p4757
sg47
I471
sg48
I2547
sbag0
(g23
g2
Ntp4758
Rp4759
(dp4760
g27
(dp4761
g29
Vcountry
p4762
sg31
VO
p4763
sg33
VNNS
p4764
sg35
I17
ssg10
I472
sg36
g4
sg37
(dp4765
sg39
(dp4766
sg41
I2548
sg42
g21
sg43
g21
sg44
I472
sg45
Vcountries
p4767
sg47
I472
sg48
I2557
sbag0
(g23
g2
Ntp4768
Rp4769
(dp4770
g27
(dp4771
g29
V,
p4772
sg31
VO
p4773
sg33
V,
p4774
sg35
I18
ssg10
I473
sg36
g4
sg37
(dp4775
sg39
(dp4776
sg41
I2557
sg42
g21
sg43
g21
sg44
I473
sg45
V,
p4777
sg47
I473
sg48
I2558
sbag0
(g23
g2
Ntp4778
Rp4779
(dp4780
g27
(dp4781
g29
Vmaintain
p4782
sg31
VO
p4783
sg33
VVBG
p4784
sg35
I19
ssg10
I474
sg36
g4
sg37
(dp4785
sg39
(dp4786
sg41
I2559
sg42
g21
sg43
g21
sg44
I474
sg45
Vmaintaining
p4787
sg47
I474
sg48
I2570
sbag0
(g23
g2
Ntp4788
Rp4789
(dp4790
g27
(dp4791
g29
Vthat
p4792
sg31
VO
p4793
sg33
VIN
p4794
sg35
I20
ssg10
I475
sg36
g4
sg37
(dp4795
sg39
(dp4796
sg41
I2571
sg42
g21
sg43
g21
sg44
I475
sg45
Vthat
p4797
sg47
I475
sg48
I2575
sbag0
(g23
g2
Ntp4798
Rp4799
(dp4800
g27
(dp4801
g29
V,
p4802
sg31
VO
p4803
sg33
V,
p4804
sg35
I21
ssg10
I476
sg36
g4
sg37
(dp4805
sg39
(dp4806
sg41
I2575
sg42
g21
sg43
g21
sg44
I476
sg45
V,
p4807
sg47
I476
sg48
I2576
sbag0
(g23
g2
Ntp4808
Rp4809
(dp4810
g27
(dp4811
g29
V``
p4812
sg31
VO
p4813
sg33
V``
p4814
sg35
I22
ssg10
I477
sg36
g4
sg37
(dp4815
sg39
(dp4816
sg41
I2577
sg42
g21
sg43
g21
sg44
I477
sg45
V\u201c
p4817
sg47
I477
sg48
I2578
sbag0
(g23
g2
Ntp4818
Rp4819
(dp4820
g27
(dp4821
g29
Vif
p4822
sg31
VO
p4823
sg33
VIN
p4824
sg35
I23
ssg10
I478
sg36
g4
sg37
(dp4825
sg39
(dp4826
sg41
I2578
sg42
g21
sg43
g21
sg44
I478
sg45
VIf
p4827
sg47
I478
sg48
I2580
sbag0
(g23
g2
Ntp4828
Rp4829
(dp4830
g27
(dp4831
g29
Vthe
p4832
sg31
VO
p4833
sg33
VDT
p4834
sg35
I24
ssg10
I479
sg36
g4
sg37
(dp4835
sg39
(dp4836
sg41
I2581
sg42
g21
sg43
g21
sg44
I479
sg45
Vthe
p4837
sg47
I479
sg48
I2584
sbag0
(g23
g2
Ntp4838
Rp4839
(dp4840
g27
(dp4841
g29
Vforeign
p4842
sg31
VO
p4843
sg33
VJJ
p4844
sg35
I25
ssg10
I480
sg36
g4
sg37
(dp4845
sg39
(dp4846
sg41
I2585
sg42
g21
sg43
g21
sg44
I480
sg45
Vforeign
p4847
sg47
I480
sg48
I2592
sbag0
(g23
g2
Ntp4848
Rp4849
(dp4850
g27
(dp4851
g29
Vassistance
p4852
sg31
VO
p4853
sg33
VNN
p4854
sg35
I26
ssg10
I481
sg36
g4
sg37
(dp4855
sg39
(dp4856
sg41
I2593
sg42
g21
sg43
g21
sg44
I481
sg45
Vassistance
p4857
sg47
I481
sg48
I2603
sbag0
(g23
g2
Ntp4858
Rp4859
(dp4860
g27
(dp4861
g29
Vbe
p4862
sg31
VO
p4863
sg33
VVBZ
p4864
sg35
I27
ssg10
I482
sg36
g4
sg37
(dp4865
sg39
(dp4866
sg41
I2596
sg42
g21
sg43
g21
sg44
I482
sg45
Vis
p4867
sg47
I482
sg48
I2598
sbag0
(g23
g2
Ntp4868
Rp4869
(dp4870
g27
(dp4871
g29
Vsubstantial
p4872
sg31
VO
p4873
sg33
VJJ
p4874
sg35
I28
ssg10
I483
sg36
g4
sg37
(dp4875
sg39
(dp4876
sg41
I2607
sg42
g21
sg43
g21
sg44
I483
sg45
Vsubstantial
p4877
sg47
I483
sg48
I2618
sbag0
(g23
g2
Ntp4878
Rp4879
(dp4880
g27
(dp4881
g29
Venough
p4882
sg31
VO
p4883
sg33
VRB
p4884
sg35
I29
ssg10
I484
sg36
g4
sg37
(dp4885
sg39
(dp4886
sg41
I2619
sg42
g21
sg43
g21
sg44
I484
sg45
Venough
p4887
sg47
I484
sg48
I2625
sbag0
(g23
g2
Ntp4888
Rp4889
(dp4890
g27
(dp4891
g29
V,
p4892
sg31
VO
p4893
sg33
V,
p4894
sg35
I30
ssg10
I485
sg36
g4
sg37
(dp4895
sg39
(dp4896
sg41
I2625
sg42
g21
sg43
g21
sg44
I485
sg45
V,
p4897
sg47
I485
sg48
I2626
sbag0
(g23
g2
Ntp4898
Rp4899
(dp4900
g27
(dp4901
g29
Vand
p4902
sg31
VO
p4903
sg33
VCC
p4904
sg35
I31
ssg10
I486
sg36
g4
sg37
(dp4905
sg39
(dp4906
sg41
I2627
sg42
g21
sg43
g21
sg44
I486
sg45
Vand
p4907
sg47
I486
sg48
I2630
sbag0
(g23
g2
Ntp4908
Rp4909
(dp4910
g27
(dp4911
g29
Vlast
p4912
sg31
VO
p4913
sg33
VVBZ
p4914
sg35
I32
ssg10
I487
sg36
g4
sg37
(dp4915
sg39
(dp4916
sg41
I2631
sg42
g21
sg43
g21
sg44
I487
sg45
Vlasts
p4917
sg47
I487
sg48
I2636
sbag0
(g23
g2
Ntp4918
Rp4919
(dp4920
g27
(dp4921
g29
Vlong
p4922
sg31
VO
p4923
sg33
VRB
p4924
sg35
I33
ssg10
I488
sg36
g4
sg37
(dp4925
sg39
(dp4926
sg41
I2637
sg42
g21
sg43
g21
sg44
I488
sg45
Vlong
p4927
sg47
I488
sg48
I2641
sbag0
(g23
g2
Ntp4928
Rp4929
(dp4930
g27
(dp4931
g29
Venough
p4932
sg31
VO
p4933
sg33
VRB
p4934
sg35
I34
ssg10
I489
sg36
g4
sg37
(dp4935
sg39
(dp4936
sg41
I2642
sg42
g21
sg43
g21
sg44
I489
sg45
Venough
p4937
sg47
I489
sg48
I2648
sbag0
(g23
g2
Ntp4938
Rp4939
(dp4940
g27
(dp4941
g29
V,
p4942
sg31
VO
p4943
sg33
V,
p4944
sg35
I35
ssg10
I490
sg36
g4
sg37
(dp4945
sg39
(dp4946
sg41
I2648
sg42
g21
sg43
g21
sg44
I490
sg45
V,
p4947
sg47
I490
sg48
I2649
sbag0
(g23
g2
Ntp4948
Rp4949
(dp4950
g27
(dp4951
g29
Vthe
p4952
sg31
VO
p4953
sg33
VDT
p4954
sg35
I36
ssg10
I491
sg36
g4
sg37
(dp4955
sg39
(dp4956
sg41
I2650
sg42
g21
sg43
g21
sg44
I491
sg45
Vthe
p4957
sg47
I491
sg48
I2653
sbag0
(g23
g2
Ntp4958
Rp4959
(dp4960
g27
(dp4961
g29
Vcapital
p4962
sg31
VO
p4963
sg33
VNN
p4964
sg35
I37
ssg10
I492
sg36
g4
sg37
(dp4965
sg39
(dp4966
sg41
I2654
sg42
g21
sg43
g21
sg44
I492
sg45
Vcapital
p4967
sg47
I492
sg48
I2661
sbag0
(g23
g2
Ntp4968
Rp4969
(dp4970
g27
(dp4971
g29
Vstock
p4972
sg31
VO
p4973
sg33
VNN
p4974
sg35
I38
ssg10
I493
sg36
g4
sg37
(dp4975
sg39
(dp4976
sg41
I2662
sg42
g21
sg43
g21
sg44
I493
sg45
Vstock
p4977
sg47
I493
sg48
I2667
sbag0
(g23
g2
Ntp4978
Rp4979
(dp4980
g27
(dp4981
g29
Vrise
p4982
sg31
VO
p4983
sg33
VVBZ
p4984
sg35
I39
ssg10
I494
sg36
g4
sg37
(dp4985
sg39
(dp4986
sg41
I2668
sg42
g21
sg43
g21
sg44
I494
sg45
Vrises
p4987
sg47
I494
sg48
I2673
sbag0
(g23
g2
Ntp4988
Rp4989
(dp4990
g27
(dp4991
g29
Vsufficiently
p4992
sg31
VO
p4993
sg33
VRB
p4994
sg35
I40
ssg10
I495
sg36
g4
sg37
(dp4995
sg39
(dp4996
sg41
I2674
sg42
g21
sg43
g21
sg44
I495
sg45
Vsufficiently
p4997
sg47
I495
sg48
I2686
sbag0
(g23
g2
Ntp4998
Rp4999
(dp5000
g27
(dp5001
g29
Vto
p5002
sg31
VO
p5003
sg33
VTO
p5004
sg35
I41
ssg10
I496
sg36
g4
sg37
(dp5005
sg39
(dp5006
sg41
I2687
sg42
g21
sg43
g21
sg44
I496
sg45
Vto
p5007
sg47
I496
sg48
I2689
sbag0
(g23
g2
Ntp5008
Rp5009
(dp5010
g27
(dp5011
g29
Vlift
p5012
sg31
VO
p5013
sg33
VVB
p5014
sg35
I42
ssg10
I497
sg36
g4
sg37
(dp5015
sg39
(dp5016
sg41
I2690
sg42
g21
sg43
g21
sg44
I497
sg45
Vlift
p5017
sg47
I497
sg48
I2694
sbag0
(g23
g2
Ntp5018
Rp5019
(dp5020
g27
(dp5021
g29
Vhousehold
p5022
sg31
VO
p5023
sg33
VNNS
p5024
sg35
I43
ssg10
I498
sg36
g4
sg37
(dp5025
sg39
(dp5026
sg41
I2695
sg42
g21
sg43
g21
sg44
I498
sg45
Vhouseholds
p5027
sg47
I498
sg48
I2705
sbag0
(g23
g2
Ntp5028
Rp5029
(dp5030
g27
(dp5031
g29
Vabove
p5032
sg31
VO
p5033
sg33
VIN
p5034
sg35
I44
ssg10
I499
sg36
g4
sg37
(dp5035
sg39
(dp5036
sg41
I2706
sg42
g21
sg43
g21
sg44
I499
sg45
Vabove
p5037
sg47
I499
sg48
I2711
sbag0
(g23
g2
Ntp5038
Rp5039
(dp5040
g27
(dp5041
g29
Vsubsistence
p5042
sg31
VO
p5043
sg33
VNN
p5044
sg35
I45
ssg10
I500
sg36
g4
sg37
(dp5045
sg39
(dp5046
sg41
I2712
sg42
g21
sg43
g21
sg44
I500
sg45
Vsubsistence
p5047
sg47
I500
sg48
I2723
sbag0
(g23
g2
Ntp5048
Rp5049
(dp5050
g27
(dp5051
g29
V.
p5052
sg31
VO
p5053
sg33
V.
p5054
sg35
I46
ssg10
I501
sg36
g4
sg37
(dp5055
sg39
(dp5056
sg41
I2723
sg42
g21
sg43
g21
sg44
I501
sg45
V.
p5057
sg47
I501
sg48
I2724
sbag0
(g23
g2
Ntp5058
Rp5059
(dp5060
g27
(dp5061
g29
V''
p5062
sg31
VO
p5063
sg33
V''
p5064
sg35
I47
ssg10
I502
sg36
g4
sg37
(dp5065
sg39
(dp5066
sg41
I2724
sg42
g21
sg43
g21
sg44
I502
sg45
V\u201d
p5067
sg47
I502
sg48
I2725
sbag0
(g23
g2
Ntp5068
Rp5069
(dp5070
g27
(dp5071
g29
V.
p5072
sg31
VO
p5073
sg33
V.
p5074
sg35
I1
ssg10
I503
sg36
g4
sg37
(dp5075
sg39
(dp5076
sg41
I2726
sg42
g21
sg43
g21
sg44
I503
sg45
V.
p5077
sg47
I503
sg48
I2727
sbag0
(g23
g2
Ntp5078
Rp5079
(dp5080
g27
(dp5081
g29
VSachs
p5082
sg31
VPERSON
p5083
sg33
VNNP
p5084
sg35
I1
ssg10
I504
sg36
g4
sg37
(dp5085
sg39
(dp5086
sg41
I2730
sg42
g21
sg43
g21
sg44
I504
sg45
VSachs
p5087
sg47
I504
sg48
I2735
sbag0
(g23
g2
Ntp5088
Rp5089
(dp5090
g27
(dp5091
g29
Vbelieve
p5092
sg31
VO
p5093
sg33
VVBZ
p5094
sg35
I2
ssg10
I505
sg36
g4
sg37
(dp5095
sg39
(dp5096
sg41
I2736
sg42
g21
sg43
g21
sg44
I505
sg45
Vbelieves
p5097
sg47
I505
sg48
I2744
sbag0
(g23
g2
Ntp5098
Rp5099
(dp5100
g27
(dp5101
g29
Vthe
p5102
sg31
VO
p5103
sg33
VDT
p5104
sg35
I3
ssg10
I506
sg36
g4
sg37
(dp5105
sg39
(dp5106
sg41
I2745
sg42
g21
sg43
g21
sg44
I506
sg45
Vthe
p5107
sg47
I506
sg48
I2748
sbag0
(g23
g2
Ntp5108
Rp5109
(dp5110
g27
(dp5111
g29
Vpublic
p5112
sg31
VO
p5113
sg33
VJJ
p5114
sg35
I4
ssg10
I507
sg36
g4
sg37
(dp5115
sg39
(dp5116
sg41
I2749
sg42
g21
sg43
g21
sg44
I507
sg45
Vpublic
p5117
sg47
I507
sg48
I2755
sbag0
(g23
g2
Ntp5118
Rp5119
(dp5120
g27
(dp5121
g29
Vsector
p5122
sg31
VO
p5123
sg33
VNN
p5124
sg35
I5
ssg10
I508
sg36
g4
sg37
(dp5125
sg39
(dp5126
sg41
I2756
sg42
g21
sg43
g21
sg44
I508
sg45
Vsector
p5127
sg47
I508
sg48
I2762
sbag0
(g23
g2
Ntp5128
Rp5129
(dp5130
g27
(dp5131
g29
Vshould
p5132
sg31
VO
p5133
sg33
VMD
p5134
sg35
I6
ssg10
I509
sg36
g4
sg37
(dp5135
sg39
(dp5136
sg41
I2763
sg42
g21
sg43
g21
sg44
I509
sg45
Vshould
p5137
sg47
I509
sg48
I2769
sbag0
(g23
g2
Ntp5138
Rp5139
(dp5140
g27
(dp5141
g29
Vfocus
p5142
sg31
VO
p5143
sg33
VVB
p5144
sg35
I7
ssg10
I510
sg36
g4
sg37
(dp5145
sg39
(dp5146
sg41
I2770
sg42
g21
sg43
g21
sg44
I510
sg45
Vfocus
p5147
sg47
I510
sg48
I2775
sbag0
(g23
g2
Ntp5148
Rp5149
(dp5150
g27
(dp5151
g29
Vmainly
p5152
sg31
VO
p5153
sg33
VRB
p5154
sg35
I8
ssg10
I511
sg36
g4
sg37
(dp5155
sg39
(dp5156
sg41
I2776
sg42
g21
sg43
g21
sg44
I511
sg45
Vmainly
p5157
sg47
I511
sg48
I2782
sbag0
(g23
g2
Ntp5158
Rp5159
(dp5160
g27
(dp5161
g29
Von
p5162
sg31
VO
p5163
sg33
VIN
p5164
sg35
I9
ssg10
I512
sg36
g4
sg37
(dp5165
sg39
(dp5166
sg41
I2783
sg42
g21
sg43
g21
sg44
I512
sg45
Von
p5167
sg47
I512
sg48
I2785
sbag0
(g23
g2
Ntp5168
Rp5169
(dp5170
g27
(dp5171
g29
Vinvestment
p5172
sg31
VO
p5173
sg33
VNNS
p5174
sg35
I10
ssg10
I513
sg36
g4
sg37
(dp5175
sg39
(dp5176
sg41
I2786
sg42
g21
sg43
g21
sg44
I513
sg45
Vinvestments
p5177
sg47
I513
sg48
I2797
sbag0
(g23
g2
Ntp5178
Rp5179
(dp5180
g27
(dp5181
g29
Vin
p5182
sg31
VO
p5183
sg33
VIN
p5184
sg35
I11
ssg10
I514
sg36
g4
sg37
(dp5185
sg39
(dp5186
sg41
I2786
sg42
g21
sg43
g21
sg44
I514
sg45
Vin
p5187
sg47
I514
sg48
I2788
sbag0
(g23
g2
Ntp5188
Rp5189
(dp5190
g27
(dp5191
g29
Vhuman
p5192
sg31
VO
p5193
sg33
VJJ
p5194
sg35
I12
ssg10
I515
sg36
g4
sg37
(dp5195
sg39
(dp5196
sg41
I2801
sg42
g21
sg43
g21
sg44
I515
sg45
Vhuman
p5197
sg47
I515
sg48
I2806
sbag0
(g23
g2
Ntp5198
Rp5199
(dp5200
g27
(dp5201
g29
Vcapital
p5202
sg31
VO
p5203
sg33
VNN
p5204
sg35
I13
ssg10
I516
sg36
g4
sg37
(dp5205
sg39
(dp5206
sg41
I2807
sg42
g21
sg43
g21
sg44
I516
sg45
Vcapital
p5207
sg47
I516
sg48
I2814
sbag0
(g23
g2
Ntp5208
Rp5209
(dp5210
g27
(dp5211
g29
V-lrb-
p5212
sg31
VO
p5213
sg33
V-LRB-
p5214
sg35
I14
ssg10
I517
sg36
g4
sg37
(dp5215
sg39
(dp5216
sg41
I2815
sg42
g21
sg43
g21
sg44
I517
sg45
V(
p5217
sg47
I517
sg48
I2816
sbag0
(g23
g2
Ntp5218
Rp5219
(dp5220
g27
(dp5221
g29
Vhealth
p5222
sg31
VO
p5223
sg33
VNN
p5224
sg35
I15
ssg10
I518
sg36
g4
sg37
(dp5225
sg39
(dp5226
sg41
I2816
sg42
g21
sg43
g21
sg44
I518
sg45
Vhealth
p5227
sg47
I518
sg48
I2822
sbag0
(g23
g2
Ntp5228
Rp5229
(dp5230
g27
(dp5231
g29
V,
p5232
sg31
VO
p5233
sg33
V,
p5234
sg35
I16
ssg10
I519
sg36
g4
sg37
(dp5235
sg39
(dp5236
sg41
I2822
sg42
g21
sg43
g21
sg44
I519
sg45
V,
p5237
sg47
I519
sg48
I2823
sbag0
(g23
g2
Ntp5238
Rp5239
(dp5240
g27
(dp5241
g29
Veducation
p5242
sg31
VO
p5243
sg33
VNN
p5244
sg35
I17
ssg10
I520
sg36
g4
sg37
(dp5245
sg39
(dp5246
sg41
I2824
sg42
g21
sg43
g21
sg44
I520
sg45
Veducation
p5247
sg47
I520
sg48
I2833
sbag0
(g23
g2
Ntp5248
Rp5249
(dp5250
g27
(dp5251
g29
V,
p5252
sg31
VO
p5253
sg33
V,
p5254
sg35
I18
ssg10
I521
sg36
g4
sg37
(dp5255
sg39
(dp5256
sg41
I2833
sg42
g21
sg43
g21
sg44
I521
sg45
V,
p5257
sg47
I521
sg48
I2834
sbag0
(g23
g2
Ntp5258
Rp5259
(dp5260
g27
(dp5261
g29
Vnutrition
p5262
sg31
VO
p5263
sg33
VNN
p5264
sg35
I19
ssg10
I522
sg36
g4
sg37
(dp5265
sg39
(dp5266
sg41
I2835
sg42
g21
sg43
g21
sg44
I522
sg45
Vnutrition
p5267
sg47
I522
sg48
I2844
sbag0
(g23
g2
Ntp5268
Rp5269
(dp5270
g27
(dp5271
g29
V-rrb-
p5272
sg31
VO
p5273
sg33
V-RRB-
p5274
sg35
I20
ssg10
I523
sg36
g4
sg37
(dp5275
sg39
(dp5276
sg41
I2844
sg42
g21
sg43
g21
sg44
I523
sg45
V)
p5277
sg47
I523
sg48
I2845
sbag0
(g23
g2
Ntp5278
Rp5279
(dp5280
g27
(dp5281
g29
V,
p5282
sg31
VO
p5283
sg33
V,
p5284
sg35
I21
ssg10
I524
sg36
g4
sg37
(dp5285
sg39
(dp5286
sg41
I2845
sg42
g21
sg43
g21
sg44
I524
sg45
V,
p5287
sg47
I524
sg48
I2846
sbag0
(g23
g2
Ntp5288
Rp5289
(dp5290
g27
(dp5291
g29
Vinfrastructure
p5292
sg31
VO
p5293
sg33
VNN
p5294
sg35
I22
ssg10
I525
sg36
g4
sg37
(dp5295
sg39
(dp5296
sg41
I2847
sg42
g21
sg43
g21
sg44
I525
sg45
Vinfrastructure
p5297
sg47
I525
sg48
I2861
sbag0
(g23
g2
Ntp5298
Rp5299
(dp5300
g27
(dp5301
g29
V-lrb-
p5302
sg31
VO
p5303
sg33
V-LRB-
p5304
sg35
I23
ssg10
I526
sg36
g4
sg37
(dp5305
sg39
(dp5306
sg41
I2862
sg42
g21
sg43
g21
sg44
I526
sg45
V(
p5307
sg47
I526
sg48
I2863
sbag0
(g23
g2
Ntp5308
Rp5309
(dp5310
g27
(dp5311
g29
Vroad
p5312
sg31
VO
p5313
sg33
VNNS
p5314
sg35
I24
ssg10
I527
sg36
g4
sg37
(dp5315
sg39
(dp5316
sg41
I2863
sg42
g21
sg43
g21
sg44
I527
sg45
Vroads
p5317
sg47
I527
sg48
I2868
sbag0
(g23
g2
Ntp5318
Rp5319
(dp5320
g27
(dp5321
g29
V,
p5322
sg31
VO
p5323
sg33
V,
p5324
sg35
I25
ssg10
I528
sg36
g4
sg37
(dp5325
sg39
(dp5326
sg41
I2868
sg42
g21
sg43
g21
sg44
I528
sg45
V,
p5327
sg47
I528
sg48
I2869
sbag0
(g23
g2
Ntp5328
Rp5329
(dp5330
g27
(dp5331
g29
Vpower
p5332
sg31
VO
p5333
sg33
VNN
p5334
sg35
I26
ssg10
I529
sg36
g4
sg37
(dp5335
sg39
(dp5336
sg41
I2870
sg42
g21
sg43
g21
sg44
I529
sg45
Vpower
p5337
sg47
I529
sg48
I2875
sbag0
(g23
g2
Ntp5338
Rp5339
(dp5340
g27
(dp5341
g29
V,
p5342
sg31
VO
p5343
sg33
V,
p5344
sg35
I27
ssg10
I530
sg36
g4
sg37
(dp5345
sg39
(dp5346
sg41
I2875
sg42
g21
sg43
g21
sg44
I530
sg45
V,
p5347
sg47
I530
sg48
I2876
sbag0
(g23
g2
Ntp5348
Rp5349
(dp5350
g27
(dp5351
g29
Vwater
p5352
sg31
VO
p5353
sg33
VNN
p5354
sg35
I28
ssg10
I531
sg36
g4
sg37
(dp5355
sg39
(dp5356
sg41
I2877
sg42
g21
sg43
g21
sg44
I531
sg45
Vwater
p5357
sg47
I531
sg48
I2882
sbag0
(g23
g2
Ntp5358
Rp5359
(dp5360
g27
(dp5361
g29
Vand
p5362
sg31
VO
p5363
sg33
VCC
p5364
sg35
I29
ssg10
I532
sg36
g4
sg37
(dp5365
sg39
(dp5366
sg41
I2883
sg42
g21
sg43
g21
sg44
I532
sg45
Vand
p5367
sg47
I532
sg48
I2886
sbag0
(g23
g2
Ntp5368
Rp5369
(dp5370
g27
(dp5371
g29
Vsanitation
p5372
sg31
VO
p5373
sg33
VNN
p5374
sg35
I30
ssg10
I533
sg36
g4
sg37
(dp5375
sg39
(dp5376
sg41
I2887
sg42
g21
sg43
g21
sg44
I533
sg45
Vsanitation
p5377
sg47
I533
sg48
I2897
sbag0
(g23
g2
Ntp5378
Rp5379
(dp5380
g27
(dp5381
g29
V,
p5382
sg31
VO
p5383
sg33
V,
p5384
sg35
I31
ssg10
I534
sg36
g4
sg37
(dp5385
sg39
(dp5386
sg41
I2897
sg42
g21
sg43
g21
sg44
I534
sg45
V,
p5387
sg47
I534
sg48
I2898
sbag0
(g23
g2
Ntp5388
Rp5389
(dp5390
g27
(dp5391
g29
Venvironmental
p5392
sg31
VO
p5393
sg33
VJJ
p5394
sg35
I32
ssg10
I535
sg36
g4
sg37
(dp5395
sg39
(dp5396
sg41
I2899
sg42
g21
sg43
g21
sg44
I535
sg45
Venvironmental
p5397
sg47
I535
sg48
I2912
sbag0
(g23
g2
Ntp5398
Rp5399
(dp5400
g27
(dp5401
g29
Vconservation
p5402
sg31
VO
p5403
sg33
VNN
p5404
sg35
I33
ssg10
I536
sg36
g4
sg37
(dp5405
sg39
(dp5406
sg41
I2913
sg42
g21
sg43
g21
sg44
I536
sg45
Vconservation
p5407
sg47
I536
sg48
I2925
sbag0
(g23
g2
Ntp5408
Rp5409
(dp5410
g27
(dp5411
g29
V-rrb-
p5412
sg31
VO
p5413
sg33
V-RRB-
p5414
sg35
I34
ssg10
I537
sg36
g4
sg37
(dp5415
sg39
(dp5416
sg41
I2925
sg42
g21
sg43
g21
sg44
I537
sg45
V)
p5417
sg47
I537
sg48
I2926
sbag0
(g23
g2
Ntp5418
Rp5419
(dp5420
g27
(dp5421
g29
V,
p5422
sg31
VO
p5423
sg33
V,
p5424
sg35
I35
ssg10
I538
sg36
g4
sg37
(dp5425
sg39
(dp5426
sg41
I2926
sg42
g21
sg43
g21
sg44
I538
sg45
V,
p5427
sg47
I538
sg48
I2927
sbag0
(g23
g2
Ntp5428
Rp5429
(dp5430
g27
(dp5431
g29
Vnatural
p5432
sg31
VO
p5433
sg33
VJJ
p5434
sg35
I36
ssg10
I539
sg36
g4
sg37
(dp5435
sg39
(dp5436
sg41
I2928
sg42
g21
sg43
g21
sg44
I539
sg45
Vnatural
p5437
sg47
I539
sg48
I2935
sbag0
(g23
g2
Ntp5438
Rp5439
(dp5440
g27
(dp5441
g29
Vcapital
p5442
sg31
VO
p5443
sg33
VNN
p5444
sg35
I37
ssg10
I540
sg36
g4
sg37
(dp5445
sg39
(dp5446
sg41
I2936
sg42
g21
sg43
g21
sg44
I540
sg45
Vcapital
p5447
sg47
I540
sg48
I2943
sbag0
(g23
g2
Ntp5448
Rp5449
(dp5450
g27
(dp5451
g29
V-lrb-
p5452
sg31
VO
p5453
sg33
V-LRB-
p5454
sg35
I38
ssg10
I541
sg36
g4
sg37
(dp5455
sg39
(dp5456
sg41
I2944
sg42
g21
sg43
g21
sg44
I541
sg45
V(
p5457
sg47
I541
sg48
I2945
sbag0
(g23
g2
Ntp5458
Rp5459
(dp5460
g27
(dp5461
g29
Vconservation
p5462
sg31
VO
p5463
sg33
VNN
p5464
sg35
I39
ssg10
I542
sg36
g4
sg37
(dp5465
sg39
(dp5466
sg41
I2945
sg42
g21
sg43
g21
sg44
I542
sg45
Vconservation
p5467
sg47
I542
sg48
I2957
sbag0
(g23
g2
Ntp5468
Rp5469
(dp5470
g27
(dp5471
g29
Vof
p5472
sg31
VO
p5473
sg33
VIN
p5474
sg35
I40
ssg10
I543
sg36
g4
sg37
(dp5475
sg39
(dp5476
sg41
I2958
sg42
g21
sg43
g21
sg44
I543
sg45
Vof
p5477
sg47
I543
sg48
I2960
sbag0
(g23
g2
Ntp5478
Rp5479
(dp5480
g27
(dp5481
g29
Vbiodiversity
p5482
sg31
VO
p5483
sg33
VNN
p5484
sg35
I41
ssg10
I544
sg36
g4
sg37
(dp5485
sg39
(dp5486
sg41
I2961
sg42
g21
sg43
g21
sg44
I544
sg45
Vbiodiversity
p5487
sg47
I544
sg48
I2973
sbag0
(g23
g2
Ntp5488
Rp5489
(dp5490
g27
(dp5491
g29
Vand
p5492
sg31
VO
p5493
sg33
VCC
p5494
sg35
I42
ssg10
I545
sg36
g4
sg37
(dp5495
sg39
(dp5496
sg41
I2974
sg42
g21
sg43
g21
sg44
I545
sg45
Vand
p5497
sg47
I545
sg48
I2977
sbag0
(g23
g2
Ntp5498
Rp5499
(dp5500
g27
(dp5501
g29
Vecosystem
p5502
sg31
VO
p5503
sg33
VNNS
p5504
sg35
I43
ssg10
I546
sg36
g4
sg37
(dp5505
sg39
(dp5506
sg41
I2978
sg42
g21
sg43
g21
sg44
I546
sg45
Vecosystems
p5507
sg47
I546
sg48
I2988
sbag0
(g23
g2
Ntp5508
Rp5509
(dp5510
g27
(dp5511
g29
V-rrb-
p5512
sg31
VO
p5513
sg33
V-RRB-
p5514
sg35
I44
ssg10
I547
sg36
g4
sg37
(dp5515
sg39
(dp5516
sg41
I2988
sg42
g21
sg43
g21
sg44
I547
sg45
V)
p5517
sg47
I547
sg48
I2989
sbag0
(g23
g2
Ntp5518
Rp5519
(dp5520
g27
(dp5521
g29
V,
p5522
sg31
VO
p5523
sg33
V,
p5524
sg35
I45
ssg10
I548
sg36
g4
sg37
(dp5525
sg39
(dp5526
sg41
I2989
sg42
g21
sg43
g21
sg44
I548
sg45
V,
p5527
sg47
I548
sg48
I2990
sbag0
(g23
g2
Ntp5528
Rp5529
(dp5530
g27
(dp5531
g29
Vpublic
p5532
sg31
VO
p5533
sg33
VJJ
p5534
sg35
I46
ssg10
I549
sg36
g4
sg37
(dp5535
sg39
(dp5536
sg41
I2991
sg42
g21
sg43
g21
sg44
I549
sg45
Vpublic
p5537
sg47
I549
sg48
I2997
sbag0
(g23
g2
Ntp5538
Rp5539
(dp5540
g27
(dp5541
g29
Vinstitutional
p5542
sg31
VO
p5543
sg33
VJJ
p5544
sg35
I47
ssg10
I550
sg36
g4
sg37
(dp5545
sg39
(dp5546
sg41
I2998
sg42
g21
sg43
g21
sg44
I550
sg45
Vinstitutional
p5547
sg47
I550
sg48
I3011
sbag0
(g23
g2
Ntp5548
Rp5549
(dp5550
g27
(dp5551
g29
Vcapital
p5552
sg31
VO
p5553
sg33
VNN
p5554
sg35
I48
ssg10
I551
sg36
g4
sg37
(dp5555
sg39
(dp5556
sg41
I3012
sg42
g21
sg43
g21
sg44
I551
sg45
Vcapital
p5557
sg47
I551
sg48
I3019
sbag0
(g23
g2
Ntp5558
Rp5559
(dp5560
g27
(dp5561
g29
V-lrb-
p5562
sg31
VO
p5563
sg33
V-LRB-
p5564
sg35
I49
ssg10
I552
sg36
g4
sg37
(dp5565
sg39
(dp5566
sg41
I3020
sg42
g21
sg43
g21
sg44
I552
sg45
V(
p5567
sg47
I552
sg48
I3021
sbag0
(g23
g2
Ntp5568
Rp5569
(dp5570
g27
(dp5571
g29
Va
p5572
sg31
VO
p5573
sg33
VDT
p5574
sg35
I50
ssg10
I553
sg36
g4
sg37
(dp5575
sg39
(dp5576
sg41
I3021
sg42
g21
sg43
g21
sg44
I553
sg45
Va
p5577
sg47
I553
sg48
I3022
sbag0
(g23
g2
Ntp5578
Rp5579
(dp5580
g27
(dp5581
g29
Vwell-run
p5582
sg31
VO
p5583
sg33
VJJ
p5584
sg35
I51
ssg10
I554
sg36
g4
sg37
(dp5585
sg39
(dp5586
sg41
I3023
sg42
g21
sg43
g21
sg44
I554
sg45
Vwell-run
p5587
sg47
I554
sg48
I3031
sbag0
(g23
g2
Ntp5588
Rp5589
(dp5590
g27
(dp5591
g29
Vpublic
p5592
sg31
VO
p5593
sg33
VJJ
p5594
sg35
I52
ssg10
I555
sg36
g4
sg37
(dp5595
sg39
(dp5596
sg41
I3032
sg42
g21
sg43
g21
sg44
I555
sg45
Vpublic
p5597
sg47
I555
sg48
I3038
sbag0
(g23
g2
Ntp5598
Rp5599
(dp5600
g27
(dp5601
g29
Vadministration
p5602
sg31
VO
p5603
sg33
VNN
p5604
sg35
I53
ssg10
I556
sg36
g4
sg37
(dp5605
sg39
(dp5606
sg41
I3039
sg42
g21
sg43
g21
sg44
I556
sg45
Vadministration
p5607
sg47
I556
sg48
I3053
sbag0
(g23
g2
Ntp5608
Rp5609
(dp5610
g27
(dp5611
g29
V,
p5612
sg31
VO
p5613
sg33
V,
p5614
sg35
I54
ssg10
I557
sg36
g4
sg37
(dp5615
sg39
(dp5616
sg41
I3053
sg42
g21
sg43
g21
sg44
I557
sg45
V,
p5617
sg47
I557
sg48
I3054
sbag0
(g23
g2
Ntp5618
Rp5619
(dp5620
g27
(dp5621
g29
Vjudicial
p5622
sg31
VO
p5623
sg33
VJJ
p5624
sg35
I55
ssg10
I558
sg36
g4
sg37
(dp5625
sg39
(dp5626
sg41
I3055
sg42
g21
sg43
g21
sg44
I558
sg45
Vjudicial
p5627
sg47
I558
sg48
I3063
sbag0
(g23
g2
Ntp5628
Rp5629
(dp5630
g27
(dp5631
g29
Vsystem
p5632
sg31
VO
p5633
sg33
VNN
p5634
sg35
I56
ssg10
I559
sg36
g4
sg37
(dp5635
sg39
(dp5636
sg41
I3064
sg42
g21
sg43
g21
sg44
I559
sg45
Vsystem
p5637
sg47
I559
sg48
I3070
sbag0
(g23
g2
Ntp5638
Rp5639
(dp5640
g27
(dp5641
g29
V,
p5642
sg31
VO
p5643
sg33
V,
p5644
sg35
I57
ssg10
I560
sg36
g4
sg37
(dp5645
sg39
(dp5646
sg41
I3070
sg42
g21
sg43
g21
sg44
I560
sg45
V,
p5647
sg47
I560
sg48
I3071
sbag0
(g23
g2
Ntp5648
Rp5649
(dp5650
g27
(dp5651
g29
Vpolice
p5652
sg31
VO
p5653
sg33
VNN
p5654
sg35
I58
ssg10
I561
sg36
g4
sg37
(dp5655
sg39
(dp5656
sg41
I3072
sg42
g21
sg43
g21
sg44
I561
sg45
Vpolice
p5657
sg47
I561
sg48
I3078
sbag0
(g23
g2
Ntp5658
Rp5659
(dp5660
g27
(dp5661
g29
Vforce
p5662
sg31
VO
p5663
sg33
VNN
p5664
sg35
I59
ssg10
I562
sg36
g4
sg37
(dp5665
sg39
(dp5666
sg41
I3079
sg42
g21
sg43
g21
sg44
I562
sg45
Vforce
p5667
sg47
I562
sg48
I3084
sbag0
(g23
g2
Ntp5668
Rp5669
(dp5670
g27
(dp5671
g29
V-rrb-
p5672
sg31
VO
p5673
sg33
V-RRB-
p5674
sg35
I60
ssg10
I563
sg36
g4
sg37
(dp5675
sg39
(dp5676
sg41
I3084
sg42
g21
sg43
g21
sg44
I563
sg45
V)
p5677
sg47
I563
sg48
I3085
sbag0
(g23
g2
Ntp5678
Rp5679
(dp5680
g27
(dp5681
g29
V,
p5682
sg31
VO
p5683
sg33
V,
p5684
sg35
I61
ssg10
I564
sg36
g4
sg37
(dp5685
sg39
(dp5686
sg41
I3085
sg42
g21
sg43
g21
sg44
I564
sg45
V,
p5687
sg47
I564
sg48
I3086
sbag0
(g23
g2
Ntp5688
Rp5689
(dp5690
g27
(dp5691
g29
Vand
p5692
sg31
VO
p5693
sg33
VCC
p5694
sg35
I62
ssg10
I565
sg36
g4
sg37
(dp5695
sg39
(dp5696
sg41
I3087
sg42
g21
sg43
g21
sg44
I565
sg45
Vand
p5697
sg47
I565
sg48
I3090
sbag0
(g23
g2
Ntp5698
Rp5699
(dp5700
g27
(dp5701
g29
Vpart
p5702
sg31
VO
p5703
sg33
VNNS
p5704
sg35
I63
ssg10
I566
sg36
g4
sg37
(dp5705
sg39
(dp5706
sg41
I3091
sg42
g21
sg43
g21
sg44
I566
sg45
Vparts
p5707
sg47
I566
sg48
I3096
sbag0
(g23
g2
Ntp5708
Rp5709
(dp5710
g27
(dp5711
g29
Vof
p5712
sg31
VO
p5713
sg33
VIN
p5714
sg35
I64
ssg10
I567
sg36
g4
sg37
(dp5715
sg39
(dp5716
sg41
I3097
sg42
g21
sg43
g21
sg44
I567
sg45
Vof
p5717
sg47
I567
sg48
I3099
sbag0
(g23
g2
Ntp5718
Rp5719
(dp5720
g27
(dp5721
g29
Vknowledge
p5722
sg31
VO
p5723
sg33
VNN
p5724
sg35
I65
ssg10
I568
sg36
g4
sg37
(dp5725
sg39
(dp5726
sg41
I3100
sg42
g21
sg43
g21
sg44
I568
sg45
Vknowledge
p5727
sg47
I568
sg48
I3109
sbag0
(g23
g2
Ntp5728
Rp5729
(dp5730
g27
(dp5731
g29
Vcapital
p5732
sg31
VO
p5733
sg33
VNN
p5734
sg35
I66
ssg10
I569
sg36
g4
sg37
(dp5735
sg39
(dp5736
sg41
I3110
sg42
g21
sg43
g21
sg44
I569
sg45
Vcapital
p5737
sg47
I569
sg48
I3117
sbag0
(g23
g2
Ntp5738
Rp5739
(dp5740
g27
(dp5741
g29
V-lrb-
p5742
sg31
VO
p5743
sg33
V-LRB-
p5744
sg35
I67
ssg10
I570
sg36
g4
sg37
(dp5745
sg39
(dp5746
sg41
I3118
sg42
g21
sg43
g21
sg44
I570
sg45
V(
p5747
sg47
I570
sg48
I3119
sbag0
(g23
g2
Ntp5748
Rp5749
(dp5750
g27
(dp5751
g29
Vscientific
p5752
sg31
VO
p5753
sg33
VJJ
p5754
sg35
I68
ssg10
I571
sg36
g4
sg37
(dp5755
sg39
(dp5756
sg41
I3119
sg42
g21
sg43
g21
sg44
I571
sg45
Vscientific
p5757
sg47
I571
sg48
I3129
sbag0
(g23
g2
Ntp5758
Rp5759
(dp5760
g27
(dp5761
g29
Vresearch
p5762
sg31
VO
p5763
sg33
VNN
p5764
sg35
I69
ssg10
I572
sg36
g4
sg37
(dp5765
sg39
(dp5766
sg41
I3130
sg42
g21
sg43
g21
sg44
I572
sg45
Vresearch
p5767
sg47
I572
sg48
I3138
sbag0
(g23
g2
Ntp5768
Rp5769
(dp5770
g27
(dp5771
g29
Vfor
p5772
sg31
VO
p5773
sg33
VIN
p5774
sg35
I70
ssg10
I573
sg36
g4
sg37
(dp5775
sg39
(dp5776
sg41
I3139
sg42
g21
sg43
g21
sg44
I573
sg45
Vfor
p5777
sg47
I573
sg48
I3142
sbag0
(g23
g2
Ntp5778
Rp5779
(dp5780
g27
(dp5781
g29
Vhealth
p5782
sg31
VO
p5783
sg33
VNN
p5784
sg35
I71
ssg10
I574
sg36
g4
sg37
(dp5785
sg39
(dp5786
sg41
I3143
sg42
g21
sg43
g21
sg44
I574
sg45
Vhealth
p5787
sg47
I574
sg48
I3149
sbag0
(g23
g2
Ntp5788
Rp5789
(dp5790
g27
(dp5791
g29
V,
p5792
sg31
VO
p5793
sg33
V,
p5794
sg35
I72
ssg10
I575
sg36
g4
sg37
(dp5795
sg39
(dp5796
sg41
I3149
sg42
g21
sg43
g21
sg44
I575
sg45
V,
p5797
sg47
I575
sg48
I3150
sbag0
(g23
g2
Ntp5798
Rp5799
(dp5800
g27
(dp5801
g29
Venergy
p5802
sg31
VO
p5803
sg33
VNN
p5804
sg35
I73
ssg10
I576
sg36
g4
sg37
(dp5805
sg39
(dp5806
sg41
I3151
sg42
g21
sg43
g21
sg44
I576
sg45
Venergy
p5807
sg47
I576
sg48
I3157
sbag0
(g23
g2
Ntp5808
Rp5809
(dp5810
g27
(dp5811
g29
V,
p5812
sg31
VO
p5813
sg33
V,
p5814
sg35
I74
ssg10
I577
sg36
g4
sg37
(dp5815
sg39
(dp5816
sg41
I3157
sg42
g21
sg43
g21
sg44
I577
sg45
V,
p5817
sg47
I577
sg48
I3158
sbag0
(g23
g2
Ntp5818
Rp5819
(dp5820
g27
(dp5821
g29
Vagriculture
p5822
sg31
VO
p5823
sg33
VNN
p5824
sg35
I75
ssg10
I578
sg36
g4
sg37
(dp5825
sg39
(dp5826
sg41
I3159
sg42
g21
sg43
g21
sg44
I578
sg45
Vagriculture
p5827
sg47
I578
sg48
I3170
sbag0
(g23
g2
Ntp5828
Rp5829
(dp5830
g27
(dp5831
g29
V,
p5832
sg31
VO
p5833
sg33
V,
p5834
sg35
I76
ssg10
I579
sg36
g4
sg37
(dp5835
sg39
(dp5836
sg41
I3170
sg42
g21
sg43
g21
sg44
I579
sg45
V,
p5837
sg47
I579
sg48
I3171
sbag0
(g23
g2
Ntp5838
Rp5839
(dp5840
g27
(dp5841
g29
Vclimate
p5842
sg31
VO
p5843
sg33
VNN
p5844
sg35
I77
ssg10
I580
sg36
g4
sg37
(dp5845
sg39
(dp5846
sg41
I3172
sg42
g21
sg43
g21
sg44
I580
sg45
Vclimate
p5847
sg47
I580
sg48
I3179
sbag0
(g23
g2
Ntp5848
Rp5849
(dp5850
g27
(dp5851
g29
V,
p5852
sg31
VO
p5853
sg33
V,
p5854
sg35
I78
ssg10
I581
sg36
g4
sg37
(dp5855
sg39
(dp5856
sg41
I3179
sg42
g21
sg43
g21
sg44
I581
sg45
V,
p5857
sg47
I581
sg48
I3180
sbag0
(g23
g2
Ntp5858
Rp5859
(dp5860
g27
(dp5861
g29
Vecology
p5862
sg31
VO
p5863
sg33
VNN
p5864
sg35
I79
ssg10
I582
sg36
g4
sg37
(dp5865
sg39
(dp5866
sg41
I3181
sg42
g21
sg43
g21
sg44
I582
sg45
Vecology
p5867
sg47
I582
sg48
I3188
sbag0
(g23
g2
Ntp5868
Rp5869
(dp5870
g27
(dp5871
g29
V-rrb-
p5872
sg31
VO
p5873
sg33
V-RRB-
p5874
sg35
I80
ssg10
I583
sg36
g4
sg37
(dp5875
sg39
(dp5876
sg41
I3188
sg42
g21
sg43
g21
sg44
I583
sg45
V)
p5877
sg47
I583
sg48
I3189
sbag0
(g23
g2
Ntp5878
Rp5879
(dp5880
g27
(dp5881
g29
V-lsb-
p5882
sg31
VO
p5883
sg33
V-LRB-
p5884
sg35
I81
ssg10
I584
sg36
g4
sg37
(dp5885
sg39
(dp5886
sg41
I3190
sg42
g21
sg43
g21
sg44
I584
sg45
V[
p5887
sg47
I584
sg48
I3191
sbag0
(g23
g2
Ntp5888
Rp5889
(dp5890
g27
(dp5891
g29
Vref
p5892
sg31
VO
p5893
sg33
VNN
p5894
sg35
I82
ssg10
I585
sg36
g4
sg37
(dp5895
sg39
(dp5896
sg41
I3191
sg42
g21
sg43
g21
sg44
I585
sg45
VREF
p5897
sg47
I585
sg48
I3194
sbag0
(g23
g2
Ntp5898
Rp5899
(dp5900
g27
(dp5901
g29
V-rsb-
p5902
sg31
VO
p5903
sg33
V-RRB-
p5904
sg35
I83
ssg10
I586
sg36
g4
sg37
(dp5905
sg39
(dp5906
sg41
I3194
sg42
g21
sg43
g21
sg44
I586
sg45
V]
p5907
sg47
I586
sg48
I3195
sbag0
(g23
g2
Ntp5908
Rp5909
(dp5910
g27
(dp5911
g29
V.
p5912
sg31
VO
p5913
sg33
V.
p5914
sg35
I84
ssg10
I587
sg36
g4
sg37
(dp5915
sg39
(dp5916
sg41
I3195
sg42
g21
sg43
g21
sg44
I587
sg45
V.
p5917
sg47
I587
sg48
I3196
sbag0
(g23
g2
Ntp5918
Rp5919
(dp5920
g27
(dp5921
g29
VSachs
p5922
sg31
VORGANIZATION
p5923
sg33
VNNP
p5924
sg35
I1
ssg10
I588
sg36
g4
sg37
(dp5925
sg39
(dp5926
sg41
I3197
sg42
g21
sg43
g21
sg44
I588
sg45
VSachs
p5927
sg47
I588
sg48
I3202
sbag0
(g23
g2
Ntp5928
Rp5929
(dp5930
g27
(dp5931
g29
Vleave
p5932
sg31
VO
p5933
sg33
VVBZ
p5934
sg35
I2
ssg10
I589
sg36
g4
sg37
(dp5935
sg39
(dp5936
sg41
I3203
sg42
g21
sg43
g21
sg44
I589
sg45
Vleaves
p5937
sg47
I589
sg48
I3209
sbag0
(g23
g2
Ntp5938
Rp5939
(dp5940
g27
(dp5941
g29
Vbusiness
p5942
sg31
VO
p5943
sg33
VNN
p5944
sg35
I3
ssg10
I590
sg36
g4
sg37
(dp5945
sg39
(dp5946
sg41
I3210
sg42
g21
sg43
g21
sg44
I590
sg45
Vbusiness
p5947
sg47
I590
sg48
I3218
sbag0
(g23
g2
Ntp5948
Rp5949
(dp5950
g27
(dp5951
g29
Vcapital
p5952
sg31
VO
p5953
sg33
VNN
p5954
sg35
I4
ssg10
I591
sg36
g4
sg37
(dp5955
sg39
(dp5956
sg41
I3219
sg42
g21
sg43
g21
sg44
I591
sg45
Vcapital
p5957
sg47
I591
sg48
I3226
sbag0
(g23
g2
Ntp5958
Rp5959
(dp5960
g27
(dp5961
g29
Vinvestment
p5962
sg31
VO
p5963
sg33
VNNS
p5964
sg35
I5
ssg10
I592
sg36
g4
sg37
(dp5965
sg39
(dp5966
sg41
I3227
sg42
g21
sg43
g21
sg44
I592
sg45
Vinvestments
p5967
sg47
I592
sg48
I3238
sbag0
(g23
g2
Ntp5968
Rp5969
(dp5970
g27
(dp5971
g29
Vto
p5972
sg31
VO
p5973
sg33
VTO
p5974
sg35
I6
ssg10
I593
sg36
g4
sg37
(dp5975
sg39
(dp5976
sg41
I3239
sg42
g21
sg43
g21
sg44
I593
sg45
Vto
p5977
sg47
I593
sg48
I3241
sbag0
(g23
g2
Ntp5978
Rp5979
(dp5980
g27
(dp5981
g29
Vthe
p5982
sg31
VO
p5983
sg33
VDT
p5984
sg35
I7
ssg10
I594
sg36
g4
sg37
(dp5985
sg39
(dp5986
sg41
I3242
sg42
g21
sg43
g21
sg44
I594
sg45
Vthe
p5987
sg47
I594
sg48
I3245
sbag0
(g23
g2
Ntp5988
Rp5989
(dp5990
g27
(dp5991
g29
Vprivate
p5992
sg31
VO
p5993
sg33
VJJ
p5994
sg35
I8
ssg10
I595
sg36
g4
sg37
(dp5995
sg39
(dp5996
sg41
I3246
sg42
g21
sg43
g21
sg44
I595
sg45
Vprivate
p5997
sg47
I595
sg48
I3253
sbag0
(g23
g2
Ntp5998
Rp5999
(dp6000
g27
(dp6001
g29
Vsector
p6002
sg31
VO
p6003
sg33
VNN
p6004
sg35
I9
ssg10
I596
sg36
g4
sg37
(dp6005
sg39
(dp6006
sg41
I3254
sg42
g21
sg43
g21
sg44
I596
sg45
Vsector
p6007
sg47
I596
sg48
I3260
sbag0
(g23
g2
Ntp6008
Rp6009
(dp6010
g27
(dp6011
g29
V,
p6012
sg31
VO
p6013
sg33
V,
p6014
sg35
I10
ssg10
I597
sg36
g4
sg37
(dp6015
sg39
(dp6016
sg41
I3260
sg42
g21
sg43
g21
sg44
I597
sg45
V,
p6017
sg47
I597
sg48
I3261
sbag0
(g23
g2
Ntp6018
Rp6019
(dp6020
g27
(dp6021
g29
Vwhich
p6022
sg31
VO
p6023
sg33
VWDT
p6024
sg35
I11
ssg10
I598
sg36
g4
sg37
(dp6025
sg39
(dp6026
sg41
I3262
sg42
g21
sg43
g21
sg44
I598
sg45
Vwhich
p6027
sg47
I598
sg48
I3267
sbag0
(g23
g2
Ntp6028
Rp6029
(dp6030
g27
(dp6031
g29
Vwould
p6032
sg31
VO
p6033
sg33
VMD
p6034
sg35
I12
ssg10
I599
sg36
g4
sg37
(dp6035
sg39
(dp6036
sg41
I3268
sg42
g21
sg43
g21
sg44
I599
sg45
Vwould
p6037
sg47
I599
sg48
I3273
sbag0
(g23
g2
Ntp6038
Rp6039
(dp6040
g27
(dp6041
g29
Vmore
p6042
sg31
VO
p6043
sg33
VRBR
p6044
sg35
I13
ssg10
I600
sg36
g4
sg37
(dp6045
sg39
(dp6046
sg41
I3274
sg42
g21
sg43
g21
sg44
I600
sg45
Vmore
p6047
sg47
I600
sg48
I3278
sbag0
(g23
g2
Ntp6048
Rp6049
(dp6050
g27
(dp6051
g29
Vefficiently
p6052
sg31
VO
p6053
sg33
VRB
p6054
sg35
I14
ssg10
I601
sg36
g4
sg37
(dp6055
sg39
(dp6056
sg41
I3279
sg42
g21
sg43
g21
sg44
I601
sg45
Vefficiently
p6057
sg47
I601
sg48
I3290
sbag0
(g23
g2
Ntp6058
Rp6059
(dp6060
g27
(dp6061
g29
Vuse
p6062
sg31
VO
p6063
sg33
VVB
p6064
sg35
I15
ssg10
I602
sg36
g4
sg37
(dp6065
sg39
(dp6066
sg41
I3291
sg42
g21
sg43
g21
sg44
I602
sg45
Vuse
p6067
sg47
I602
sg48
I3294
sbag0
(g23
g2
Ntp6068
Rp6069
(dp6070
g27
(dp6071
g29
Vfund
p6072
sg31
VO
p6073
sg33
VVBG
p6074
sg35
I16
ssg10
I603
sg36
g4
sg37
(dp6075
sg39
(dp6076
sg41
I3295
sg42
g21
sg43
g21
sg44
I603
sg45
Vfunding
p6077
sg47
I603
sg48
I3302
sbag0
(g23
g2
Ntp6078
Rp6079
(dp6080
g27
(dp6081
g29
Vto
p6082
sg31
VO
p6083
sg33
VTO
p6084
sg35
I17
ssg10
I604
sg36
g4
sg37
(dp6085
sg39
(dp6086
sg41
I3303
sg42
g21
sg43
g21
sg44
I604
sg45
Vto
p6087
sg47
I604
sg48
I3305
sbag0
(g23
g2
Ntp6088
Rp6089
(dp6090
g27
(dp6091
g29
Vdevelop
p6092
sg31
VO
p6093
sg33
VVB
p6094
sg35
I18
ssg10
I605
sg36
g4
sg37
(dp6095
sg39
(dp6096
sg41
I3306
sg42
g21
sg43
g21
sg44
I605
sg45
Vdevelop
p6097
sg47
I605
sg48
I3313
sbag0
(g23
g2
Ntp6098
Rp6099
(dp6100
g27
(dp6101
g29
Vthe
p6102
sg31
VO
p6103
sg33
VDT
p6104
sg35
I19
ssg10
I606
sg36
g4
sg37
(dp6105
sg39
(dp6106
sg41
I3314
sg42
g21
sg43
g21
sg44
I606
sg45
Vthe
p6107
sg47
I606
sg48
I3317
sbag0
(g23
g2
Ntp6108
Rp6109
(dp6110
g27
(dp6111
g29
Vprofitable
p6112
sg31
VO
p6113
sg33
VJJ
p6114
sg35
I20
ssg10
I607
sg36
g4
sg37
(dp6115
sg39
(dp6116
sg41
I3318
sg42
g21
sg43
g21
sg44
I607
sg45
Vprofitable
p6117
sg47
I607
sg48
I3328
sbag0
(g23
g2
Ntp6118
Rp6119
(dp6120
g27
(dp6121
g29
Venterprise
p6122
sg31
VO
p6123
sg33
VNNS
p6124
sg35
I21
ssg10
I608
sg36
g4
sg37
(dp6125
sg39
(dp6126
sg41
I3329
sg42
g21
sg43
g21
sg44
I608
sg45
Venterprises
p6127
sg47
I608
sg48
I3340
sbag0
(g23
g2
Ntp6128
Rp6129
(dp6130
g27
(dp6131
g29
Vnecessary
p6132
sg31
VO
p6133
sg33
VJJ
p6134
sg35
I22
ssg10
I609
sg36
g4
sg37
(dp6135
sg39
(dp6136
sg41
I3341
sg42
g21
sg43
g21
sg44
I609
sg45
Vnecessary
p6137
sg47
I609
sg48
I3350
sbag0
(g23
g2
Ntp6138
Rp6139
(dp6140
g27
(dp6141
g29
Vto
p6142
sg31
VO
p6143
sg33
VTO
p6144
sg35
I23
ssg10
I610
sg36
g4
sg37
(dp6145
sg39
(dp6146
sg41
I3351
sg42
g21
sg43
g21
sg44
I610
sg45
Vto
p6147
sg47
I610
sg48
I3353
sbag0
(g23
g2
Ntp6148
Rp6149
(dp6150
g27
(dp6151
g29
Vsustain
p6152
sg31
VO
p6153
sg33
VVB
p6154
sg35
I24
ssg10
I611
sg36
g4
sg37
(dp6155
sg39
(dp6156
sg41
I3354
sg42
g21
sg43
g21
sg44
I611
sg45
Vsustain
p6157
sg47
I611
sg48
I3361
sbag0
(g23
g2
Ntp6158
Rp6159
(dp6160
g27
(dp6161
g29
Vgrowth
p6162
sg31
VO
p6163
sg33
VNN
p6164
sg35
I25
ssg10
I612
sg36
g4
sg37
(dp6165
sg39
(dp6166
sg41
I3362
sg42
g21
sg43
g21
sg44
I612
sg45
Vgrowth
p6167
sg47
I612
sg48
I3368
sbag0
(g23
g2
Ntp6168
Rp6169
(dp6170
g27
(dp6171
g29
V.
p6172
sg31
VO
p6173
sg33
V.
p6174
sg35
I26
ssg10
I613
sg36
g4
sg37
(dp6175
sg39
(dp6176
sg41
I3368
sg42
g21
sg43
g21
sg44
I613
sg45
V.
p6177
sg47
I613
sg48
I3369
sbag0
(g23
g2
Ntp6178
Rp6179
(dp6180
g27
(dp6181
g29
Vin
p6182
sg31
VO
p6183
sg33
VIN
p6184
sg35
I1
ssg10
I614
sg36
g4
sg37
(dp6185
sg39
(dp6186
sg41
I3370
sg42
g21
sg43
g21
sg44
I614
sg45
VIn
p6187
sg47
I614
sg48
I3372
sbag0
(g23
g2
Ntp6188
Rp6189
(dp6190
g27
(dp6191
g29
Vthis
p6192
sg31
VO
p6193
sg33
VDT
p6194
sg35
I2
ssg10
I615
sg36
g4
sg37
(dp6195
sg39
(dp6196
sg41
I3373
sg42
g21
sg43
g21
sg44
I615
sg45
Vthis
p6197
sg47
I615
sg48
I3377
sbag0
(g23
g2
Ntp6198
Rp6199
(dp6200
g27
(dp6201
g29
Vsense
p6202
sg31
VO
p6203
sg33
VNN
p6204
sg35
I3
ssg10
I616
sg36
g4
sg37
(dp6205
sg39
(dp6206
sg41
I3378
sg42
g21
sg43
g21
sg44
I616
sg45
Vsense
p6207
sg47
I616
sg48
I3383
sbag0
(g23
g2
Ntp6208
Rp6209
(dp6210
g27
(dp6211
g29
V,
p6212
sg31
VO
p6213
sg33
V,
p6214
sg35
I4
ssg10
I617
sg36
g4
sg37
(dp6215
sg39
(dp6216
sg41
I3383
sg42
g21
sg43
g21
sg44
I617
sg45
V,
p6217
sg47
I617
sg48
I3384
sbag0
(g23
g2
Ntp6218
Rp6219
(dp6220
g27
(dp6221
g29
VSachs
p6222
sg31
VORGANIZATION
p6223
sg33
VNNP
p6224
sg35
I5
ssg10
I618
sg36
g4
sg37
(dp6225
sg39
(dp6226
sg41
I3385
sg42
g21
sg43
g21
sg44
I618
sg45
VSachs
p6227
sg47
I618
sg48
I3390
sbag0
(g23
g2
Ntp6228
Rp6229
(dp6230
g27
(dp6231
g29
Vview
p6232
sg31
VO
p6233
sg33
VNNS
p6234
sg35
I6
ssg10
I619
sg36
g4
sg37
(dp6235
sg39
(dp6236
sg41
I3391
sg42
g21
sg43
g21
sg44
I619
sg45
Vviews
p6237
sg47
I619
sg48
I3396
sbag0
(g23
g2
Ntp6238
Rp6239
(dp6240
g27
(dp6241
g29
Vpublic
p6242
sg31
VO
p6243
sg33
VJJ
p6244
sg35
I7
ssg10
I620
sg36
g4
sg37
(dp6245
sg39
(dp6246
sg41
I3397
sg42
g21
sg43
g21
sg44
I620
sg45
Vpublic
p6247
sg47
I620
sg48
I3403
sbag0
(g23
g2
Ntp6248
Rp6249
(dp6250
g27
(dp6251
g29
Vinstitution
p6252
sg31
VO
p6253
sg33
VNNS
p6254
sg35
I8
ssg10
I621
sg36
g4
sg37
(dp6255
sg39
(dp6256
sg41
I3404
sg42
g21
sg43
g21
sg44
I621
sg45
Vinstitutions
p6257
sg47
I621
sg48
I3416
sbag0
(g23
g2
Ntp6258
Rp6259
(dp6260
g27
(dp6261
g29
Vas
p6262
sg31
VO
p6263
sg33
VIN
p6264
sg35
I9
ssg10
I622
sg36
g4
sg37
(dp6265
sg39
(dp6266
sg41
I3417
sg42
g21
sg43
g21
sg44
I622
sg45
Vas
p6267
sg47
I622
sg48
I3419
sbag0
(g23
g2
Ntp6268
Rp6269
(dp6270
g27
(dp6271
g29
Vuseful
p6272
sg31
VO
p6273
sg33
VJJ
p6274
sg35
I10
ssg10
I623
sg36
g4
sg37
(dp6275
sg39
(dp6276
sg41
I3420
sg42
g21
sg43
g21
sg44
I623
sg45
Vuseful
p6277
sg47
I623
sg48
I3426
sbag0
(g23
g2
Ntp6278
Rp6279
(dp6280
g27
(dp6281
g29
Vin
p6282
sg31
VO
p6283
sg33
VIN
p6284
sg35
I11
ssg10
I624
sg36
g4
sg37
(dp6285
sg39
(dp6286
sg41
I3427
sg42
g21
sg43
g21
sg44
I624
sg45
Vin
p6287
sg47
I624
sg48
I3429
sbag0
(g23
g2
Ntp6288
Rp6289
(dp6290
g27
(dp6291
g29
Vprovide
p6292
sg31
VO
p6293
sg33
VVBG
p6294
sg35
I12
ssg10
I625
sg36
g4
sg37
(dp6295
sg39
(dp6296
sg41
I3430
sg42
g21
sg43
g21
sg44
I625
sg45
Vproviding
p6297
sg47
I625
sg48
I3439
sbag0
(g23
g2
Ntp6298
Rp6299
(dp6300
g27
(dp6301
g29
Vthe
p6302
sg31
VO
p6303
sg33
VDT
p6304
sg35
I13
ssg10
I626
sg36
g4
sg37
(dp6305
sg39
(dp6306
sg41
I3440
sg42
g21
sg43
g21
sg44
I626
sg45
Vthe
p6307
sg47
I626
sg48
I3443
sbag0
(g23
g2
Ntp6308
Rp6309
(dp6310
g27
(dp6311
g29
Vpublic
p6312
sg31
VO
p6313
sg33
VJJ
p6314
sg35
I14
ssg10
I627
sg36
g4
sg37
(dp6315
sg39
(dp6316
sg41
I3444
sg42
g21
sg43
g21
sg44
I627
sg45
Vpublic
p6317
sg47
I627
sg48
I3450
sbag0
(g23
g2
Ntp6318
Rp6319
(dp6320
g27
(dp6321
g29
Vgoods
p6322
sg31
VO
p6323
sg33
VNNS
p6324
sg35
I15
ssg10
I628
sg36
g4
sg37
(dp6325
sg39
(dp6326
sg41
I3451
sg42
g21
sg43
g21
sg44
I628
sg45
Vgoods
p6327
sg47
I628
sg48
I3456
sbag0
(g23
g2
Ntp6328
Rp6329
(dp6330
g27
(dp6331
g29
Vnecessary
p6332
sg31
VO
p6333
sg33
VJJ
p6334
sg35
I16
ssg10
I629
sg36
g4
sg37
(dp6335
sg39
(dp6336
sg41
I3457
sg42
g21
sg43
g21
sg44
I629
sg45
Vnecessary
p6337
sg47
I629
sg48
I3466
sbag0
(g23
g2
Ntp6338
Rp6339
(dp6340
g27
(dp6341
g29
Vto
p6342
sg31
VO
p6343
sg33
VTO
p6344
sg35
I17
ssg10
I630
sg36
g4
sg37
(dp6345
sg39
(dp6346
sg41
I3467
sg42
g21
sg43
g21
sg44
I630
sg45
Vto
p6347
sg47
I630
sg48
I3469
sbag0
(g23
g2
Ntp6348
Rp6349
(dp6350
g27
(dp6351
g29
Vbegin
p6352
sg31
VO
p6353
sg33
VVB
p6354
sg35
I18
ssg10
I631
sg36
g4
sg37
(dp6355
sg39
(dp6356
sg41
I3470
sg42
g21
sg43
g21
sg44
I631
sg45
Vbegin
p6357
sg47
I631
sg48
I3475
sbag0
(g23
g2
Ntp6358
Rp6359
(dp6360
g27
(dp6361
g29
Vthe
p6362
sg31
VO
p6363
sg33
VDT
p6364
sg35
I19
ssg10
I632
sg36
g4
sg37
(dp6365
sg39
(dp6366
sg41
I3476
sg42
g21
sg43
g21
sg44
I632
sg45
Vthe
p6367
sg47
I632
sg48
I3479
sbag0
(g23
g2
Ntp6368
Rp6369
(dp6370
g27
(dp6371
g29
Vrostovian
p6372
sg31
VLOCATION
p6373
sg33
VJJ
p6374
sg35
I20
ssg10
I633
sg36
g4
sg37
(dp6375
sg39
(dp6376
sg41
I3480
sg42
g21
sg43
g21
sg44
I633
sg45
VRostovian
p6377
sg47
I633
sg48
I3489
sbag0
(g23
g2
Ntp6378
Rp6379
(dp6380
g27
(dp6381
g29
Vtake-off
p6382
sg31
VO
p6383
sg33
VNN
p6384
sg35
I21
ssg10
I634
sg36
g4
sg37
(dp6385
sg39
(dp6386
sg41
I3490
sg42
g21
sg43
g21
sg44
I634
sg45
Vtake-off
p6387
sg47
I634
sg48
I3498
sbag0
(g23
g2
Ntp6388
Rp6389
(dp6390
g27
(dp6391
g29
Vmodel
p6392
sg31
VO
p6393
sg33
VNN
p6394
sg35
I22
ssg10
I635
sg36
g4
sg37
(dp6395
sg39
(dp6396
sg41
I3499
sg42
g21
sg43
g21
sg44
I635
sg45
Vmodel
p6397
sg47
I635
sg48
I3504
sbag0
(g23
g2
Ntp6398
Rp6399
(dp6400
g27
(dp6401
g29
V,
p6402
sg31
VO
p6403
sg33
V,
p6404
sg35
I23
ssg10
I636
sg36
g4
sg37
(dp6405
sg39
(dp6406
sg41
I3504
sg42
g21
sg43
g21
sg44
I636
sg45
V,
p6407
sg47
I636
sg48
I3505
sbag0
(g23
g2
Ntp6408
Rp6409
(dp6410
g27
(dp6411
g29
Vbut
p6412
sg31
VO
p6413
sg33
VCC
p6414
sg35
I24
ssg10
I637
sg36
g4
sg37
(dp6415
sg39
(dp6416
sg41
I3506
sg42
g21
sg43
g21
sg44
I637
sg45
Vbut
p6417
sg47
I637
sg48
I3509
sbag0
(g23
g2
Ntp6418
Rp6419
(dp6420
g27
(dp6421
g29
Vmaintain
p6422
sg31
VO
p6423
sg33
VVBZ
p6424
sg35
I25
ssg10
I638
sg36
g4
sg37
(dp6425
sg39
(dp6426
sg41
I3510
sg42
g21
sg43
g21
sg44
I638
sg45
Vmaintains
p6427
sg47
I638
sg48
I3519
sbag0
(g23
g2
Ntp6428
Rp6429
(dp6430
g27
(dp6431
g29
Vthat
p6432
sg31
VO
p6433
sg33
VIN
p6434
sg35
I26
ssg10
I639
sg36
g4
sg37
(dp6435
sg39
(dp6436
sg41
I3520
sg42
g21
sg43
g21
sg44
I639
sg45
Vthat
p6437
sg47
I639
sg48
I3524
sbag0
(g23
g2
Ntp6438
Rp6439
(dp6440
g27
(dp6441
g29
Vprivate
p6442
sg31
VO
p6443
sg33
VJJ
p6444
sg35
I27
ssg10
I640
sg36
g4
sg37
(dp6445
sg39
(dp6446
sg41
I3525
sg42
g21
sg43
g21
sg44
I640
sg45
Vprivate
p6447
sg47
I640
sg48
I3532
sbag0
(g23
g2
Ntp6448
Rp6449
(dp6450
g27
(dp6451
g29
Vgoods
p6452
sg31
VO
p6453
sg33
VNNS
p6454
sg35
I28
ssg10
I641
sg36
g4
sg37
(dp6455
sg39
(dp6456
sg41
I3533
sg42
g21
sg43
g21
sg44
I641
sg45
Vgoods
p6457
sg47
I641
sg48
I3538
sbag0
(g23
g2
Ntp6458
Rp6459
(dp6460
g27
(dp6461
g29
Vbe
p6462
sg31
VO
p6463
sg33
VVBP
p6464
sg35
I29
ssg10
I642
sg36
g4
sg37
(dp6465
sg39
(dp6466
sg41
I3539
sg42
g21
sg43
g21
sg44
I642
sg45
Vare
p6467
sg47
I642
sg48
I3542
sbag0
(g23
g2
Ntp6468
Rp6469
(dp6470
g27
(dp6471
g29
Vmore
p6472
sg31
VO
p6473
sg33
VRBR
p6474
sg35
I30
ssg10
I643
sg36
g4
sg37
(dp6475
sg39
(dp6476
sg41
I3543
sg42
g21
sg43
g21
sg44
I643
sg45
Vmore
p6477
sg47
I643
sg48
I3547
sbag0
(g23
g2
Ntp6478
Rp6479
(dp6480
g27
(dp6481
g29
Vefficiently
p6482
sg31
VO
p6483
sg33
VRB
p6484
sg35
I31
ssg10
I644
sg36
g4
sg37
(dp6485
sg39
(dp6486
sg41
I3548
sg42
g21
sg43
g21
sg44
I644
sg45
Vefficiently
p6487
sg47
I644
sg48
I3559
sbag0
(g23
g2
Ntp6488
Rp6489
(dp6490
g27
(dp6491
g29
Vproduce
p6492
sg31
VO
p6493
sg33
VVBN
p6494
sg35
I32
ssg10
I645
sg36
g4
sg37
(dp6495
sg39
(dp6496
sg41
I3560
sg42
g21
sg43
g21
sg44
I645
sg45
Vproduced
p6497
sg47
I645
sg48
I3568
sbag0
(g23
g2
Ntp6498
Rp6499
(dp6500
g27
(dp6501
g29
Vand
p6502
sg31
VO
p6503
sg33
VCC
p6504
sg35
I33
ssg10
I646
sg36
g4
sg37
(dp6505
sg39
(dp6506
sg41
I3569
sg42
g21
sg43
g21
sg44
I646
sg45
Vand
p6507
sg47
I646
sg48
I3572
sbag0
(g23
g2
Ntp6508
Rp6509
(dp6510
g27
(dp6511
g29
Vdistribute
p6512
sg31
VO
p6513
sg33
VVBN
p6514
sg35
I34
ssg10
I647
sg36
g4
sg37
(dp6515
sg39
(dp6516
sg41
I3573
sg42
g21
sg43
g21
sg44
I647
sg45
Vdistributed
p6517
sg47
I647
sg48
I3584
sbag0
(g23
g2
Ntp6518
Rp6519
(dp6520
g27
(dp6521
g29
Vby
p6522
sg31
VO
p6523
sg33
VIN
p6524
sg35
I35
ssg10
I648
sg36
g4
sg37
(dp6525
sg39
(dp6526
sg41
I3585
sg42
g21
sg43
g21
sg44
I648
sg45
Vby
p6527
sg47
I648
sg48
I3587
sbag0
(g23
g2
Ntp6528
Rp6529
(dp6530
g27
(dp6531
g29
Vprivate
p6532
sg31
VO
p6533
sg33
VJJ
p6534
sg35
I36
ssg10
I649
sg36
g4
sg37
(dp6535
sg39
(dp6536
sg41
I3588
sg42
g21
sg43
g21
sg44
I649
sg45
Vprivate
p6537
sg47
I649
sg48
I3595
sbag0
(g23
g2
Ntp6538
Rp6539
(dp6540
g27
(dp6541
g29
Venterprise
p6542
sg31
VO
p6543
sg33
VNN
p6544
sg35
I37
ssg10
I650
sg36
g4
sg37
(dp6545
sg39
(dp6546
sg41
I3596
sg42
g21
sg43
g21
sg44
I650
sg45
Venterprise
p6547
sg47
I650
sg48
I3606
sbag0
(g23
g2
Ntp6548
Rp6549
(dp6550
g27
(dp6551
g29
V-lsb-
p6552
sg31
VO
p6553
sg33
V-LRB-
p6554
sg35
I38
ssg10
I651
sg36
g4
sg37
(dp6555
sg39
(dp6556
sg41
I3607
sg42
g21
sg43
g21
sg44
I651
sg45
V[
p6557
sg47
I651
sg48
I3608
sbag0
(g23
g2
Ntp6558
Rp6559
(dp6560
g27
(dp6561
g29
Vref
p6562
sg31
VO
p6563
sg33
VNN
p6564
sg35
I39
ssg10
I652
sg36
g4
sg37
(dp6565
sg39
(dp6566
sg41
I3608
sg42
g21
sg43
g21
sg44
I652
sg45
VREF
p6567
sg47
I652
sg48
I3611
sbag0
(g23
g2
Ntp6568
Rp6569
(dp6570
g27
(dp6571
g29
V-rsb-
p6572
sg31
VO
p6573
sg33
V-RRB-
p6574
sg35
I40
ssg10
I653
sg36
g4
sg37
(dp6575
sg39
(dp6576
sg41
I3611
sg42
g21
sg43
g21
sg44
I653
sg45
V]
p6577
sg47
I653
sg48
I3612
sbag0
(g23
g2
Ntp6578
Rp6579
(dp6580
g27
(dp6581
g29
V.
p6582
sg31
VO
p6583
sg33
V.
p6584
sg35
I41
ssg10
I654
sg36
g4
sg37
(dp6585
sg39
(dp6586
sg41
I3612
sg42
g21
sg43
g21
sg44
I654
sg45
V.
p6587
sg47
I654
sg48
I3613
sbag0
(g23
g2
Ntp6588
Rp6589
(dp6590
g27
(dp6591
g29
Vthis
p6592
sg31
VO
p6593
sg33
VDT
p6594
sg35
I1
ssg10
I655
sg36
g4
sg37
(dp6595
sg39
(dp6596
sg41
I3614
sg42
g21
sg43
g21
sg44
I655
sg45
VThis
p6597
sg47
I655
sg48
I3618
sbag0
(g23
g2
Ntp6598
Rp6599
(dp6600
g27
(dp6601
g29
Vbe
p6602
sg31
VO
p6603
sg33
VVBZ
p6604
sg35
I2
ssg10
I656
sg36
g4
sg37
(dp6605
sg39
(dp6606
sg41
I3616
sg42
g21
sg43
g21
sg44
I656
sg45
Vis
p6607
sg47
I656
sg48
I3618
sbag0
(g23
g2
Ntp6608
Rp6609
(dp6610
g27
(dp6611
g29
Va
p6612
sg31
VO
p6613
sg33
VDT
p6614
sg35
I3
ssg10
I657
sg36
g4
sg37
(dp6615
sg39
(dp6616
sg41
I3622
sg42
g21
sg43
g21
sg44
I657
sg45
Va
p6617
sg47
I657
sg48
I3623
sbag0
(g23
g2
Ntp6618
Rp6619
(dp6620
g27
(dp6621
g29
Vwidespread
p6622
sg31
VO
p6623
sg33
VJJ
p6624
sg35
I4
ssg10
I658
sg36
g4
sg37
(dp6625
sg39
(dp6626
sg41
I3624
sg42
g21
sg43
g21
sg44
I658
sg45
Vwidespread
p6627
sg47
I658
sg48
I3634
sbag0
(g23
g2
Ntp6628
Rp6629
(dp6630
g27
(dp6631
g29
Vview
p6632
sg31
VO
p6633
sg33
VNN
p6634
sg35
I5
ssg10
I659
sg36
g4
sg37
(dp6635
sg39
(dp6636
sg41
I3635
sg42
g21
sg43
g21
sg44
I659
sg45
Vview
p6637
sg47
I659
sg48
I3639
sbag0
(g23
g2
Ntp6638
Rp6639
(dp6640
g27
(dp6641
g29
Vin
p6642
sg31
VO
p6643
sg33
VIN
p6644
sg35
I6
ssg10
I660
sg36
g4
sg37
(dp6645
sg39
(dp6646
sg41
I3640
sg42
g21
sg43
g21
sg44
I660
sg45
Vin
p6647
sg47
I660
sg48
I3642
sbag0
(g23
g2
Ntp6648
Rp6649
(dp6650
g27
(dp6651
g29
Vneoclassical
p6652
sg31
VO
p6653
sg33
VJJ
p6654
sg35
I7
ssg10
I661
sg36
g4
sg37
(dp6655
sg39
(dp6656
sg41
I3643
sg42
g21
sg43
g21
sg44
I661
sg45
Vneoclassical
p6657
sg47
I661
sg48
I3655
sbag0
(g23
g2
Ntp6658
Rp6659
(dp6660
g27
(dp6661
g29
Veconomics
p6662
sg31
VO
p6663
sg33
VNNS
p6664
sg35
I8
ssg10
I662
sg36
g4
sg37
(dp6665
sg39
(dp6666
sg41
I3656
sg42
g21
sg43
g21
sg44
I662
sg45
Veconomics
p6667
sg47
I662
sg48
I3665
sbag0
(g23
g2
Ntp6668
Rp6669
(dp6670
g27
(dp6671
g29
V.
p6672
sg31
VO
p6673
sg33
V.
p6674
sg35
I9
ssg10
I663
sg36
g4
sg37
(dp6675
sg39
(dp6676
sg41
I3665
sg42
g21
sg43
g21
sg44
I663
sg45
V.
p6677
sg47
I663
sg48
I3666
sbasS'Document'
p6678
(lp6679
g4
asS'doc-features'
p6680
g14
sS'Sentence'
p6681
(lp6682
g0
(g23
g2
Ntp6683
Rp6684
(dp6685
g27
(dp6686
S'dep-parse'
p6687
S'not implemented!'
p6688
sg35
I0
sS'constituency-parse'
p6689
V(ROOT\u000a  (S\u000a    (NP (DT A) (NN poverty) (NN trap))\u000a    (VP (VBZ is) (`` ``)\u000a      (NP\u000a        (NP (DT any) (JJ self-reinforcing) (NN mechanism))\u000a        (SBAR\u000a          (WHNP (WDT which))\u000a          (S\u000a            (VP (VBZ causes)\u000a              (NP (NN poverty))\u000a              (S\u000a                (VP (TO to)\u000a                  (VP (VB persist)))))))))\u000a    (. .) ('' '')))
p6690
ssg10
I0
sg36
g4
sg37
(dp6691
sg39
(dp6692
S'tokens'
p6693
(lp6694
g25
ag50
ag60
ag70
ag80
ag90
ag100
ag110
ag120
ag130
ag140
ag150
ag160
ag170
ag180
assg41
I0
sg42
g6681
sg43
g6681
sg44
I0
sg45
VA poverty trap is "any self-reinforcing mechanism which causes poverty to persist."
p6695
sg47
I15
sg48
I83
sbag0
(g23
g2
Ntp6696
Rp6697
(dp6698
g27
(dp6699
g6687
g6688
sg35
I1
sg6689
V(ROOT\u000a  (S\u000a    (NP (-LRB- -LSB-) (NN REF))\u000a    (-RRB- -RSB-)\u000a    (SBAR (IN If)\u000a      (S\u000a        (NP (PRP it))\u000a        (VP (VBZ persists)\u000a          (PP (IN from)\u000a            (NP (NN generation)))\u000a          (PP (TO to)\u000a            (NP (NN generation))))))\u000a    (, ,)\u000a    (NP (DT the) (NN trap))\u000a    (VP (VBZ begins)\u000a      (S\u000a        (VP (TO to)\u000a          (VP (VB reinforce)\u000a            (NP (PRP itself))\u000a            (SBAR (IN if)\u000a              (S\u000a                (NP (NNS steps))\u000a                (VP (VBP are) (RB not)\u000a                  (VP (VBN taken)\u000a                    (S\u000a                      (VP (TO to)\u000a                        (VP (VB break)\u000a                          (NP (DT the) (NN cycle)))))))))))))\u000a    (. .)))
p6700
ssg10
I1
sg36
g4
sg37
(dp6701
sg39
(dp6702
g6693
(lp6703
g189
ag199
ag209
ag219
ag229
ag239
ag249
ag259
ag269
ag279
ag289
ag299
ag309
ag319
ag329
ag339
ag349
ag359
ag369
ag379
ag389
ag399
ag409
ag419
ag429
ag439
ag449
assg41
I83
sg42
g6681
sg43
g6681
sg44
I15
sg45
V[REF] If it persists from generation to generation, the trap begins to reinforce itself if steps are not taken to break the cycle.
p6704
sg47
I42
sg48
I213
sbag0
(g23
g2
Ntp6705
Rp6706
(dp6707
g27
(dp6708
g6687
g6688
sg35
I2
sg6689
V(X (IN In) (DT the) (VBG developing) (NN world) (, ,) (JJ many) (NNS factors) (MD can) (VB contribute) (TO to) (DT a) (NN poverty) (NN trap) (, ,) (VBG including) (: :) (JJ limited) (NN access) (TO to) (NN credit)\u000a  (CC and)\u000a  (NN capital) (NNS markets) (, ,) (JJ extreme) (JJ environmental) (NN degradation) (-LRB- -LRB-) (WDT which) (VBZ depletes) (JJ agricultural) (NN production) (NN potential) (-RRB- -RRB-) (, ,) (JJ corrupt) (NN governance) (, ,) (NN capital) (NN flight) (, ,) (JJ poor) (NN education) (NNS systems) (, ,) (NN disease) (NN ecology) (, ,) (NN lack) (IN of) (JJ public) (NN health) (NN care) (, ,) (NN war)\u000a  (CC and)\u000a  (JJ poor) (NN infrastructure) (-LRB- -LSB-) (NN REF) (-RRB- -RSB-) (. .))
p6709
ssg10
I2
sg36
g4
sg37
(dp6710
sg39
(dp6711
g6693
(lp6712
g459
ag469
ag479
ag489
ag499
ag509
ag519
ag529
ag539
ag549
ag559
ag569
ag579
ag589
ag599
ag609
ag619
ag629
ag639
ag649
ag659
ag669
ag679
ag689
ag699
ag709
ag719
ag729
ag739
ag749
ag759
ag769
ag779
ag789
ag799
ag809
ag819
ag829
ag839
ag849
ag859
ag869
ag879
ag889
ag899
ag909
ag919
ag929
ag939
ag949
ag959
ag969
ag979
ag989
ag999
ag1009
ag1019
ag1029
ag1039
ag1049
ag1059
ag1069
assg41
I215
sg42
g6681
sg43
g6681
sg44
I42
sg45
V\u000a\u000aIn the developing world, many factors can contribute to a poverty trap, including: limited access to credit and capital markets, extreme environmental degradation (which depletes agricultural production potential), corrupt governance, capital flight, poor education systems, disease ecology, lack of public health care, war and poor infrastructure [REF].
p6713
sg47
I104
sg48
I569
sbag0
(g23
g2
Ntp6714
Rp6715
(dp6716
g27
(dp6717
g6687
g6688
sg35
I3
sg6689
V(ROOT\u000a  (S\u000a    (NP\u000a      (NP (NNS Nations))\u000a      (PP (IN like)\u000a        (NP (DT this))))\u000a    (VP (VBP include)\u000a      (NP\u000a        (NP (NNP Sierra) (NNP Leone))\u000a        (CC and)\u000a        (NP\u000a          (NP (DT the) (JJ Democratic) (NN Republic))\u000a          (PP (IN of)\u000a            (NP (DT the) (NNP Congo))))))\u000a    (. .)))
p6718
ssg10
I3
sg36
g4
sg37
(dp6719
sg39
(dp6720
g6693
(lp6721
g1079
ag1089
ag1099
ag1109
ag1119
ag1129
ag1139
ag1149
ag1159
ag1169
ag1179
ag1189
ag1199
ag1209
assg41
I572
sg42
g6681
sg43
g6681
sg44
I104
sg45
V \u000a\u000aNations like this include Sierra Leone and the Democratic Republic of the Congo.
p6722
sg47
I118
sg48
I652
sbag0
(g23
g2
Ntp6723
Rp6724
(dp6725
g27
(dp6726
g6687
g6688
sg35
I4
sg6689
V(ROOT\u000a  (S\u000a    (NP\u000a      (NP (NNP Jeffrey) (NNP Sachs))\u000a      (, ,)\u000a      (PP (IN in)\u000a        (NP (PRP$ his) (NN book)))\u000a      (NP\u000a        (NP (DT The) (NN End))\u000a        (PP (IN of)\u000a          (NP (NNP Poverty))))\u000a      (, ,))\u000a    (VP\u000a      (VP (VBZ discusses)\u000a        (NP (DT the) (NN poverty) (NN trap)))\u000a      (CC and)\u000a      (VP (VBZ prescribes)\u000a        (NP\u000a          (NP (DT a) (NN set))\u000a          (PP (IN of)\u000a            (NP\u000a              (NP (NN policy) (NNS initiatives))\u000a              (VP (VBN intended)\u000a                (S\u000a                  (VP (TO to)\u000a                    (VP (VB end)\u000a                      (NP (DT the) (NN trap)))))))))))\u000a    (. .)))
p6727
ssg10
I4
sg36
g4
sg37
(dp6728
sg39
(dp6729
g6693
(lp6730
g1219
ag1229
ag1239
ag1249
ag1259
ag1269
ag1279
ag1289
ag1299
ag1309
ag1319
ag1329
ag1339
ag1349
ag1359
ag1369
ag1379
ag1389
ag1399
ag1409
ag1419
ag1429
ag1439
ag1449
ag1459
ag1469
ag1479
ag1489
assg41
I655
sg42
g6681
sg43
g6681
sg44
I118
sg45
V \u000a\u000aJeffrey Sachs, in his book The End of Poverty, discusses the poverty trap and prescribes a set of policy initiatives intended to end the trap.
p6731
sg47
I146
sg48
I797
sbag0
(g23
g2
Ntp6732
Rp6733
(dp6734
g27
(dp6735
g6687
g6688
sg35
I5
sg6689
V(ROOT\u000a  (S\u000a    (NP (PRP He))\u000a    (VP (VBZ recommends)\u000a      (SBAR (IN that)\u000a        (S\u000a          (NP (NN aid) (NNS agencies))\u000a          (VP (VBP behave)\u000a            (PP (IN as)\u000a              (NP\u000a                (NP (NN venture) (NNS capitalists))\u000a                (VP (VBG funding)\u000a                  (NP (JJ start-up) (NNS companies)))))))))\u000a    (. .)))
p6736
ssg10
I5
sg36
g4
sg37
(dp6737
sg39
(dp6738
g6693
(lp6739
g1499
ag1509
ag1519
ag1529
ag1539
ag1549
ag1559
ag1569
ag1579
ag1589
ag1599
ag1609
ag1619
assg41
I798
sg42
g6681
sg43
g6681
sg44
I146
sg45
V He recommends that aid agencies behave as venture capitalists funding start-up companies.
p6740
sg47
I159
sg48
I887
sbag0
(g23
g2
Ntp6741
Rp6742
(dp6743
g27
(dp6744
g6687
g6688
sg35
I6
sg6689
V(ROOT\u000a  (S\u000a    (S\u000a      (NP\u000a        (NP (NNP Venture) (NNS capitalists))\u000a        (, ,)\u000a        (SBAR (IN once)\u000a          (S\u000a            (NP (PRP they))\u000a            (VP (VBP choose)\u000a              (S\u000a                (VP (TO to)\u000a                  (VP (VB invest)\u000a                    (PP (IN in)\u000a                      (NP (DT a) (NN venture)))))))))\u000a        (, ,))\u000a      (VP (VBP do) (RB not)\u000a        (VP (VB give)\u000a          (NP\u000a            (NP (JJ only) (NN half))\u000a            (CC or)\u000a            (NP\u000a              (NP (DT a) (JJ third))\u000a              (PP (IN of)\u000a                (NP\u000a                  (NP (DT the) (NN amount))\u000a                  (SBAR\u000a                    (S\u000a                      (NP (PRP they))\u000a                      (VP (VBP feel)\u000a                        (SBAR\u000a                          (S\u000a                            (NP (DT the) (NN venture))\u000a                            (VP (VBZ needs)\u000a                              (SBAR (IN in) (NN order)\u000a                                (S\u000a                                  (VP (TO to)\u000a                                    (VP (VB become)\u000a                                      (ADJP (JJ profitable)))))))))))))))))))\u000a    (: ;)\u000a    (S\u000a      (SBAR (IN if)\u000a        (S\u000a          (NP (PRP they))\u000a          (VP (VBD did))))\u000a      (, ,)\u000a      (NP (PRP$ their) (NN money))\u000a      (VP (MD would)\u000a        (VP (VB be)\u000a          (VP (VBN wasted)))))\u000a    (. .)))
p6745
ssg10
I6
sg36
g4
sg37
(dp6746
sg39
(dp6747
g6693
(lp6748
g1629
ag1639
ag1649
ag1659
ag1669
ag1679
ag1689
ag1699
ag1709
ag1719
ag1729
ag1739
ag1749
ag1759
ag1769
ag1779
ag1789
ag1799
ag1809
ag1819
ag1829
ag1839
ag1849
ag1859
ag1869
ag1879
ag1889
ag1899
ag1909
ag1919
ag1929
ag1939
ag1949
ag1959
ag1969
ag1979
ag1989
ag1999
ag2009
ag2019
ag2029
ag2039
ag2049
ag2059
assg41
I888
sg42
g6681
sg43
g6681
sg44
I159
sg45
V Venture capitalists, once they choose to invest in a venture, do not give only half or a third of the amount they feel the venture needs in order to become profitable; if they did, their money would be wasted.
p6749
sg47
I203
sg48
I1097
sbag0
(g23
g2
Ntp6750
Rp6751
(dp6752
g27
(dp6753
g6687
g6688
sg35
I7
sg6689
V(ROOT\u000a  (S\u000a    (S\u000a      (SBAR (IN If)\u000a        (S\u000a          (NP (DT all))\u000a          (VP (VBZ goes)\u000a            (PP (IN as)\u000a              (ADJP (VBN planned))))))\u000a      (, ,)\u000a      (NP (DT the) (NN venture))\u000a      (VP (MD will)\u000a        (ADVP (RB eventually))\u000a        (VP (VB become)\u000a          (ADJP (JJ profitable)))))\u000a    (CC and)\u000a    (S\u000a      (NP (DT the) (NN venture) (NN capitalist))\u000a      (VP (MD will)\u000a        (VP (VB experience)\u000a          (NP\u000a            (NP (DT an) (JJ adequate) (NN rate))\u000a            (PP (IN of)\u000a              (NP (NN return))))\u000a          (PP (IN on)\u000a            (NP (NN investment))))))\u000a    (. .)))
p6754
ssg10
I7
sg36
g4
sg37
(dp6755
sg39
(dp6756
g6693
(lp6757
g2069
ag2079
ag2089
ag2099
ag2109
ag2119
ag2129
ag2139
ag2149
ag2159
ag2169
ag2179
ag2189
ag2199
ag2209
ag2219
ag2229
ag2239
ag2249
ag2259
ag2269
ag2279
ag2289
ag2299
ag2309
ag2319
assg41
I1098
sg42
g6681
sg43
g6681
sg44
I203
sg45
V If all goes as planned, the venture will eventually become profitable and the venture capitalist will experience an adequate rate of return on investment.
p6758
sg47
I229
sg48
I1252
sbag0
(g23
g2
Ntp6759
Rp6760
(dp6761
g27
(dp6762
g6687
g6688
sg35
I8
sg6689
V(ROOT\u000a  (S\u000a    (ADVP (RB Likewise))\u000a    (, ,)\u000a    (NP (NNP Sachs))\u000a    (VP\u000a      (VP (VBZ proposes))\u000a      (, ,)\u000a      (VP (VBD developed)\u000a        (SBAR\u000a          (S\u000a            (NP (NNS countries))\u000a            (VP (MD can) (RB not)\u000a              (VP (VB give)\u000a                (NP\u000a                  (NP (RB only) (DT a) (NN fraction))\u000a                  (PP (IN of)\u000a                    (SBAR\u000a                      (WHNP (WP what))\u000a                      (S\u000a                        (VP (VBZ is)\u000a                          (VP (VBN needed)\u000a                            (PP (IN in)\u000a                              (NP (NN aid))))))))))))))\u000a      (CC and)\u000a      (VP (VBP expect)\u000a        (S\u000a          (VP (TO to)\u000a            (VP (VB reverse)\u000a              (NP (DT the) (NN poverty) (NN trap))\u000a              (PP (IN in)\u000a                (NP (NNP Africa))))))))\u000a    (. .)))
p6763
ssg10
I8
sg36
g4
sg37
(dp6764
sg39
(dp6765
g6693
(lp6766
g2329
ag2339
ag2349
ag2359
ag2369
ag2379
ag2389
ag2399
ag2409
ag2419
ag2429
ag2439
ag2449
ag2459
ag2469
ag2479
ag2489
ag2499
ag2509
ag2519
ag2529
ag2539
ag2549
ag2559
ag2569
ag2579
ag2589
ag2599
ag2609
assg41
I1253
sg42
g6681
sg43
g6681
sg44
I229
sg45
V Likewise, Sachs proposes, developed countries cannot give only a fraction of what is needed in aid and expect to reverse the poverty trap in Africa.
p6767
sg47
I258
sg48
I1401
sbag0
(g23
g2
Ntp6768
Rp6769
(dp6770
g27
(dp6771
g6687
g6688
sg35
I9
sg6689
V(ROOT\u000a  (S\u000a    (PP (RB Just) (IN like)\u000a      (NP (DT any) (JJ other) (NN start-up)))\u000a    (, ,)\u000a    (NP (VBG developing) (NNS nations))\u000a    (ADVP (RB absolutely))\u000a    (VP (MD must)\u000a      (VP (VB receive)\u000a        (NP\u000a          (NP (DT the) (NN amount))\u000a          (PP (IN of)\u000a            (NP\u000a              (NP (NN aid))\u000a              (ADJP (JJ necessary)))))\u000a        (PRN (-LRB- -LRB-)\u000a          (CC and)\u000a          (VP (VBN promised)\u000a            (PP (IN at)\u000a              (NP\u000a                (NP (DT the) (NNP G-8) (NNP Summit))\u000a                (PP (IN in)\u000a                  (NP (CD 2005) (-LRB- -LSB-) (NN REF) (-RRB- -RSB-))))))\u000a          (-RRB- -RRB-))\u000a        (SBAR (IN for)\u000a          (S\u000a            (NP (PRP them))\u000a            (VP (TO to)\u000a              (VP (VB begin)\u000a                (S\u000a                  (VP (TO to)\u000a                    (VP (VB reverse)\u000a                      (NP (DT the) (NN poverty) (NN trap)))))))))))\u000a    (. .)))
p6772
ssg10
I9
sg36
g4
sg37
(dp6773
sg39
(dp6774
g6693
(lp6775
g2619
ag2629
ag2639
ag2649
ag2659
ag2669
ag2679
ag2689
ag2699
ag2709
ag2719
ag2729
ag2739
ag2749
ag2759
ag2769
ag2779
ag2789
ag2799
ag2809
ag2819
ag2829
ag2839
ag2849
ag2859
ag2869
ag2879
ag2889
ag2899
ag2909
ag2919
ag2929
ag2939
ag2949
ag2959
ag2969
ag2979
ag2989
ag2999
assg41
I1402
sg42
g6681
sg43
g6681
sg44
I258
sg45
V Just like any other start-up, developing nations absolutely must receive the amount of aid necessary (and promised at the G-8 Summit in 2005[REF]) for them to begin to reverse the poverty trap.
p6776
sg47
I297
sg48
I1595
sbag0
(g23
g2
Ntp6777
Rp6778
(dp6779
g27
(dp6780
g6687
g6688
sg35
I10
sg6689
V(ROOT\u000a  (S\u000a    (NP (DT The) (NN problem))\u000a    (VP (VBZ is)\u000a      (SBAR (IN that)\u000a        (S\u000a          (PP (IN unlike)\u000a            (NP\u000a              (NP (NNS start-ups))\u000a              (, ,)\u000a              (SBAR\u000a                (WHNP (WDT which))\u000a                (S\u000a                  (ADVP (RB simply))\u000a                  (VP (VB go)\u000a                    (ADJP (JJ bankrupt))\u000a                    (SBAR (IN if)\u000a                      (S\u000a                        (NP (PRP they))\u000a                        (VP (VBP fail)\u000a                          (S\u000a                            (VP (TO to)\u000a                              (VP (VB receive)\u000a                                (NP (NN funding))\u000a                                (, ,)\u000a                                (PP (IN in)\u000a                                  (NP (NNP Africa))))))))))))))\u000a          (NP (NNS people))\u000a          (VP (VBP continue)\u000a            (S\u000a              (VP (TO to)\u000a                (VP (VB die)\u000a                  (PP (IN at)\u000a                    (NP\u000a                      (NP (DT a) (JJ high) (NN rate))\u000a                      (PP (JJ due) (IN in)\u000a                        (NP (JJ large) (NN part)))))\u000a                  (PP (TO to)\u000a                    (NP\u000a                      (NP (NN lack))\u000a                      (PP (IN of)\u000a                        (NP (JJ sufficient) (NN aid))))))))))))\u000a    (. .)))
p6781
ssg10
I10
sg36
g4
sg37
(dp6782
sg39
(dp6783
g6693
(lp6784
g3009
ag3019
ag3029
ag3039
ag3049
ag3059
ag3069
ag3079
ag3089
ag3099
ag3109
ag3119
ag3129
ag3139
ag3149
ag3159
ag3169
ag3179
ag3189
ag3199
ag3209
ag3219
ag3229
ag3239
ag3249
ag3259
ag3269
ag3279
ag3289
ag3299
ag3309
ag3319
ag3329
ag3339
ag3349
ag3359
ag3369
ag3379
assg41
I1596
sg42
g6681
sg43
g6681
sg44
I297
sg45
V The problem is that unlike start-ups, which simply go bankrupt if they fail to receive funding, in Africa people continue to die at a high rate due in large part to lack of sufficient aid.
p6785
sg47
I335
sg48
I1784
sbag0
(g23
g2
Ntp6786
Rp6787
(dp6788
g27
(dp6789
g6687
g6688
sg35
I11
sg6689
V(ROOT\u000a  (S\u000a    (NP (NNP Sachs))\u000a    (VP (VBZ points)\u000a      (PRT (RP out))\u000a      (SBAR (IN that)\u000a        (S\u000a          (NP\u000a            (NP (DT the) (JJ extreme) (JJ poor) (NN lack))\u000a            (NP\u000a              (NP\u000a                (NP (CD six) (JJ major) (NNS kinds))\u000a                (PP (IN of)\u000a                  (NP (NN capital))))\u000a              (: :)\u000a              (NP\u000a                (NP (JJ human) (NN capital))\u000a                (, ,)\u000a                (NP (NN business) (NN capital))\u000a                (, ,)\u000a                (NP (NN infrastructure))\u000a                (, ,)\u000a                (NP (JJ natural) (NN capital))\u000a                (, ,)\u000a                (NP (JJ public) (JJ institutional) (NN capital))\u000a                (, ,)\u000a                (CC and)\u000a                (NP (NN knowledge) (NN capital)))))\u000a          (VP (-LRB- -LSB-)\u000a            (NP (NN REF) (-RRB- -RSB-))))))\u000a    (. .)))
p6790
ssg10
I11
sg36
g4
sg37
(dp6791
sg39
(dp6792
g6693
(lp6793
g3389
ag3399
ag3409
ag3419
ag3429
ag3439
ag3449
ag3459
ag3469
ag3479
ag3489
ag3499
ag3509
ag3519
ag3529
ag3539
ag3549
ag3559
ag3569
ag3579
ag3589
ag3599
ag3609
ag3619
ag3629
ag3639
ag3649
ag3659
ag3669
ag3679
ag3689
ag3699
ag3709
ag3719
ag3729
ag3739
assg41
I1787
sg42
g6681
sg43
g6681
sg44
I335
sg45
V \u000a\u000aSachs points out that the extreme poor lack six major kinds of capital: human capital, business capital, infrastructure, natural capital, public institutional capital, and knowledge capital [REF].
p6794
sg47
I371
sg48
I1983
sbag0
(g23
g2
Ntp6795
Rp6796
(dp6797
g27
(dp6798
g6687
g6688
sg35
I12
sg6689
V(ROOT\u000a  (S\u000a    (NP (PRP He))\u000a    (ADVP (RB then))\u000a    (NP\u000a      (NP (NNS details))\u000a      (SBAR\u000a        (S\u000a          (NP (DT the) (NN poverty))\u000a          (VP (NN trap) (: :)\u000a            (S\u000a              (NP\u000a                (NP (DT The) (JJ poor) (NN start))\u000a                (PP (IN with)\u000a                  (NP\u000a                    (NP\u000a                      (NP (DT a)\u000a                        (ADJP (RB very) (JJ low))\u000a                        (NN level))\u000a                      (PP (IN of)\u000a                        (NP\u000a                          (NP (NN capital))\u000a                          (PP (IN per)\u000a                            (NP (NN person))))))\u000a                    (, ,)\u000a                    (CC and)\u000a                    (NP (RB then)))))\u000a              (VP (VB find)\u000a                (S\u000a                  (NP (PRP themselves))\u000a                  (VP (VBN trapped)\u000a                    (PP (IN in)\u000a                      (NP (NN poverty)))\u000a                    (PP (IN because)\u000a                      (NP\u000a                        (NP (DT the) (NN ratio))\u000a                        (PP (IN of)\u000a                          (NP\u000a                            (NP (NN capital))\u000a                            (PP (IN per)\u000a                              (NP (NN person)))))))))))))))\u000a    (VP\u000a      (ADVP (RB actually))\u000a      (VBZ falls)\u000a      (PP (IN from)\u000a        (NP (NN generation)))\u000a      (PP (TO to)\u000a        (NP (NN generation))))\u000a    (. .)))
p6799
ssg10
I12
sg36
g4
sg37
(dp6800
sg39
(dp6801
g6693
(lp6802
g3749
ag3759
ag3769
ag3779
ag3789
ag3799
ag3809
ag3819
ag3829
ag3839
ag3849
ag3859
ag3869
ag3879
ag3889
ag3899
ag3909
ag3919
ag3929
ag3939
ag3949
ag3959
ag3969
ag3979
ag3989
ag3999
ag4009
ag4019
ag4029
ag4039
ag4049
ag4059
ag4069
ag4079
ag4089
ag4099
ag4109
ag4119
ag4129
ag4139
ag4149
assg41
I1984
sg42
g6681
sg43
g6681
sg44
I371
sg45
V He then details the poverty trap: The poor start with a very low level of capital per person, and then find themselves trapped in poverty because the ratio of capital per person actually falls from generation to generation.
p6803
sg47
I412
sg48
I2207
sbag0
(g23
g2
Ntp6804
Rp6805
(dp6806
g27
(dp6807
g6687
g6688
sg35
I13
sg6689
V(ROOT\u000a  (S\u000a    (NP\u000a      (NP (DT The) (NN amount))\u000a      (PP (IN of)\u000a        (NP\u000a          (NP (NN capital))\u000a          (PP (IN per)\u000a            (NP (NN person) (NNS declines)))\u000a          (SBAR\u000a            (WHADVP (WRB when))\u000a            (S\u000a              (NP (DT the) (NN population))\u000a              (VP (VBZ is)\u000a                (VP (VBG growing)\u000a                  (ADVP (RBR faster))\u000a                  (PP (IN than)\u000a                    (NP (NN capital))))))))))\u000a    (VP (VBZ is)\u000a      (VP (VBG being)\u000a        (VP (VBN accumulated))))\u000a    (. .)))
p6808
ssg10
I13
sg36
g4
sg37
(dp6809
sg39
(dp6810
g6693
(lp6811
g4159
ag4169
ag4179
ag4189
ag4199
ag4209
ag4219
ag4229
ag4239
ag4249
ag4259
ag4269
ag4279
ag4289
ag4299
ag4309
ag4319
ag4329
ag4339
assg41
I2208
sg42
g6681
sg43
g6681
sg44
I412
sg45
V The amount of capital per person declines when the population is growing faster than capital is being accumulated .
p6812
sg47
I431
sg48
I2323
sbag0
(g23
g2
Ntp6813
Rp6814
(dp6815
g27
(dp6816
g6687
g6688
sg35
I14
sg6689
V(ROOT\u000a  (NP (. .)))
p6817
ssg10
I14
sg36
g4
sg37
(dp6818
sg39
(dp6819
g6693
(lp6820
g4349
assg41
I2322
sg42
g6681
sg43
g6681
sg44
I431
sg45
V.
p6821
sg47
I432
sg48
I2323
sbag0
(g23
g2
Ntp6822
Rp6823
(dp6824
g27
(dp6825
g6687
g6688
sg35
I15
sg6689
V(ROOT\u000a  (S\u000a    (NP (DT The)\u000a      (NAC\u000a        (NP (NN question))\u000a        (PP (IN for)\u000a          (NP (NN growth)))\u000a        (PP (IN in)\u000a          (NP (FW per))))\u000a      (NN capita) (NN income))\u000a    (VP (VBZ is)\u000a      (SBAR (IN whether)\u000a        (S\u000a          (NP (DT the) (JJ net) (NN capital) (NN accumulation))\u000a          (VP (VBZ is)\u000a            (ADJP (JJ large) (RB enough)\u000a              (S\u000a                (VP (TO to)\u000a                  (VP (VB keep)\u000a                    (PRT (RP up))\u000a                    (PP (IN with)\u000a                      (NP (NN population) (NN growth)))))))))))\u000a    (. .)))
p6826
ssg10
I15
sg36
g4
sg37
(dp6827
sg39
(dp6828
g6693
(lp6829
g4359
ag4369
ag4379
ag4389
ag4399
ag4409
ag4419
ag4429
ag4439
ag4449
ag4459
ag4469
ag4479
ag4489
ag4499
ag4509
ag4519
ag4529
ag4539
ag4549
ag4559
ag4569
ag4579
ag4589
assg41
I2325
sg42
g6681
sg43
g6681
sg44
I432
sg45
V The question for growth in per capita income is whether the net capital accumulation is large enough to keep up with population growth.
p6830
sg47
I456
sg48
I2460
sbag0
(g23
g2
Ntp6831
Rp6832
(dp6833
g27
(dp6834
g6687
g6688
sg35
I16
sg6689
V(ROOT\u000a  (S\u000a    (NP (NNP Sachs))\u000a    (VP (VBZ argues)\u000a      (SBAR (IN that)\u000a        (S\u000a          (NP (JJ sufficient) (JJ foreign) (NN aid))\u000a          (VP (MD can)\u000a            (VP (VB make)\u000a              (PRT (RP up))\u000a              (PP (IN for)\u000a                (NP\u000a                  (NP (DT the) (NN lack))\u000a                  (PP (IN of)\u000a                    (NP (NN capital)))\u000a                  (PP (IN in)\u000a                    (NP (JJ poor) (NNS countries)))\u000a                  (, ,)\u000a                  (VP (VBG maintaining)\u000a                    (SBAR (IN that) (, ,) (`` ``)\u000a                      (S\u000a                        (SBAR (IN If)\u000a                          (S\u000a                            (NP (DT the) (JJ foreign) (NN assistance))\u000a                            (VP\u000a                              (VP (VBZ is)\u000a                                (ADJP (JJ substantial) (RB enough)))\u000a                              (, ,)\u000a                              (CC and)\u000a                              (VP (VBZ lasts)\u000a                                (ADVP (RB long) (RB enough))))))\u000a                        (, ,)\u000a                        (NP (DT the) (NN capital) (NN stock))\u000a                        (VP (VBZ rises)\u000a                          (ADJP (RB sufficiently)\u000a                            (S\u000a                              (VP (TO to)\u000a                                (VP (VB lift)\u000a                                  (NP (NNS households))))))))))\u000a                  (PP (IN above)\u000a                    (NP (NN subsistence))))))))))\u000a    (. .) ('' '')))
p6835
ssg10
I16
sg36
g4
sg37
(dp6836
sg39
(dp6837
g6693
(lp6838
g4599
ag4609
ag4619
ag4629
ag4639
ag4649
ag4659
ag4669
ag4679
ag4689
ag4699
ag4709
ag4719
ag4729
ag4739
ag4749
ag4759
ag4769
ag4779
ag4789
ag4799
ag4809
ag4819
ag4829
ag4839
ag4849
ag4859
ag4869
ag4879
ag4889
ag4899
ag4909
ag4919
ag4929
ag4939
ag4949
ag4959
ag4969
ag4979
ag4989
ag4999
ag5009
ag5019
ag5029
ag5039
ag5049
ag5059
assg41
I2463
sg42
g6681
sg43
g6681
sg44
I456
sg45
V \u000a\u000aSachs argues that sufficient foreign aid can make up for the lack of capital in poor countries, maintaining that, \u201cIf the foreign assistance is substantial enough, and lasts long enough, the capital stock rises sufficiently to lift households above subsistence.\u201d
p6839
sg47
I503
sg48
I2725
sbag0
(g23
g2
Ntp6840
Rp6841
(dp6842
g27
(dp6843
g6687
g6688
sg35
I17
sg6689
V(ROOT\u000a  (NP (. .)))
p6844
ssg10
I17
sg36
g4
sg37
(dp6845
sg39
(dp6846
g6693
(lp6847
g5069
assg41
I2726
sg42
g6681
sg43
g6681
sg44
I503
sg45
V .
p6848
sg47
I504
sg48
I2727
sbag0
(g23
g2
Ntp6849
Rp6850
(dp6851
g27
(dp6852
g6687
g6688
sg35
I18
sg6689
V(X (NNP Sachs) (VBZ believes) (DT the) (JJ public) (NN sector) (MD should) (VB focus) (RB mainly) (IN on) (NNS investments) (IN in) (JJ human) (NN capital) (-LRB- -LRB-) (NN health) (, ,) (NN education) (, ,) (NN nutrition) (-RRB- -RRB-) (, ,) (NN infrastructure) (-LRB- -LRB-) (NNS roads) (, ,) (NN power) (, ,) (NN water)\u000a  (CC and)\u000a  (NN sanitation) (, ,) (JJ environmental) (NN conservation) (-RRB- -RRB-) (, ,) (JJ natural) (NN capital) (-LRB- -LRB-) (NN conservation) (IN of) (NN biodiversity)\u000a  (CC and)\u000a  (NNS ecosystems) (-RRB- -RRB-) (, ,) (JJ public) (JJ institutional) (NN capital) (-LRB- -LRB-) (DT a) (JJ well-run) (JJ public) (NN administration) (, ,) (JJ judicial) (NN system) (, ,) (NN police) (NN force) (-RRB- -RRB-) (, ,)\u000a  (CC and)\u000a  (NNS parts) (IN of) (NN knowledge) (NN capital) (-LRB- -LRB-) (JJ scientific) (NN research) (IN for) (NN health) (, ,) (NN energy) (, ,) (NN agriculture) (, ,) (NN climate) (, ,) (NN ecology) (-RRB- -RRB-) (-LRB- -LSB-) (NN REF) (-RRB- -RSB-) (. .))
p6853
ssg10
I18
sg36
g4
sg37
(dp6854
sg39
(dp6855
g6693
(lp6856
g5079
ag5089
ag5099
ag5109
ag5119
ag5129
ag5139
ag5149
ag5159
ag5169
ag5179
ag5189
ag5199
ag5209
ag5219
ag5229
ag5239
ag5249
ag5259
ag5269
ag5279
ag5289
ag5299
ag5309
ag5319
ag5329
ag5339
ag5349
ag5359
ag5369
ag5379
ag5389
ag5399
ag5409
ag5419
ag5429
ag5439
ag5449
ag5459
ag5469
ag5479
ag5489
ag5499
ag5509
ag5519
ag5529
ag5539
ag5549
ag5559
ag5569
ag5579
ag5589
ag5599
ag5609
ag5619
ag5629
ag5639
ag5649
ag5659
ag5669
ag5679
ag5689
ag5699
ag5709
ag5719
ag5729
ag5739
ag5749
ag5759
ag5769
ag5779
ag5789
ag5799
ag5809
ag5819
ag5829
ag5839
ag5849
ag5859
ag5869
ag5879
ag5889
ag5899
ag5909
assg41
I2730
sg42
g6681
sg43
g6681
sg44
I504
sg45
V \u000a\u000aSachs believes the public sector should focus mainly on investments in human capital (health, education, nutrition), infrastructure (roads, power, water and sanitation, environmental conservation), natural capital (conservation of biodiversity and ecosystems), public institutional capital (a well-run public administration, judicial system, police force), and parts of knowledge capital (scientific research for health, energy, agriculture, climate, ecology) [REF].
p6857
sg47
I588
sg48
I3196
sbag0
(g23
g2
Ntp6858
Rp6859
(dp6860
g27
(dp6861
g6687
g6688
sg35
I19
sg6689
V(ROOT\u000a  (S\u000a    (NP (NNP Sachs))\u000a    (VP (VBZ leaves)\u000a      (NP (NN business) (NN capital) (NNS investments))\u000a      (PP (TO to)\u000a        (NP\u000a          (NP (DT the) (JJ private) (NN sector))\u000a          (, ,)\u000a          (SBAR\u000a            (WHNP (WDT which))\u000a            (S\u000a              (VP (MD would)\u000a                (ADVP (RBR more) (RB efficiently))\u000a                (VP (VB use)\u000a                  (S\u000a                    (VP (VBG funding)\u000a                      (S\u000a                        (VP (TO to)\u000a                          (VP (VB develop)\u000a                            (S\u000a                              (NP (DT the) (JJ profitable) (NNS enterprises))\u000a                              (ADJP (JJ necessary)\u000a                                (S\u000a                                  (VP (TO to)\u000a                                    (VP (VB sustain)\u000a                                      (NP (NN growth)))))))))))))))))))\u000a    (. .)))
p6862
ssg10
I19
sg36
g4
sg37
(dp6863
sg39
(dp6864
g6693
(lp6865
g5919
ag5929
ag5939
ag5949
ag5959
ag5969
ag5979
ag5989
ag5999
ag6009
ag6019
ag6029
ag6039
ag6049
ag6059
ag6069
ag6079
ag6089
ag6099
ag6109
ag6119
ag6129
ag6139
ag6149
ag6159
ag6169
assg41
I3197
sg42
g6681
sg43
g6681
sg44
I588
sg45
V Sachs leaves business capital investments to the private sector, which would more efficiently use funding to develop the profitable enterprises necessary to sustain growth.
p6866
sg47
I614
sg48
I3369
sbag0
(g23
g2
Ntp6867
Rp6868
(dp6869
g27
(dp6870
g6687
g6688
sg35
I20
sg6689
V(ROOT\u000a  (S\u000a    (PP (IN In)\u000a      (NP\u000a        (NP (DT this) (NN sense))\u000a        (, ,)\u000a        (NP (NNP Sachs) (NNS views))))\u000a    (NP\u000a      (NP (JJ public) (NNS institutions))\u000a      (PP (IN as)\u000a        (NP\u000a          (ADJP (JJ useful)\u000a            (PP (IN in)\u000a              (S\u000a                (VP (VBG providing)\u000a                  (S\u000a                    (NP (DT the) (JJ public) (NNS goods))\u000a                    (ADJP (JJ necessary)\u000a                      (S\u000a                        (VP (TO to)\u000a                          (VP\u000a                            (VP (VB begin)\u000a                              (NP (DT the) (JJ Rostovian) (NN take-off) (NN model)))\u000a                            (, ,)\u000a                            (CC but)\u000a                            (VP (VBZ maintains)\u000a                              (SBAR (IN that)\u000a                                (S\u000a                                  (NP (JJ private) (NNS goods))\u000a                                  (VP (VBP are)\u000a                                    (ADVP (RBR more) (RB efficiently))\u000a                                    (VP (VBN produced)\u000a                                      (CC and)\u000a                                      (VBN distributed)\u000a                                      (PP (IN by)\u000a                                        (NP (JJ private) (NN enterprise)))))))))))))))))\u000a          (-LRB- -LSB-) (NN REF))))\u000a    (VP (-RRB- -RSB-))\u000a    (. .)))
p6871
ssg10
I20
sg36
g4
sg37
(dp6872
sg39
(dp6873
g6693
(lp6874
g6179
ag6189
ag6199
ag6209
ag6219
ag6229
ag6239
ag6249
ag6259
ag6269
ag6279
ag6289
ag6299
ag6309
ag6319
ag6329
ag6339
ag6349
ag6359
ag6369
ag6379
ag6389
ag6399
ag6409
ag6419
ag6429
ag6439
ag6449
ag6459
ag6469
ag6479
ag6489
ag6499
ag6509
ag6519
ag6529
ag6539
ag6549
ag6559
ag6569
ag6579
assg41
I3370
sg42
g6681
sg43
g6681
sg44
I614
sg45
V In this sense, Sachs views public institutions as useful in providing the public goods necessary to begin the Rostovian take-off model, but maintains that private goods are more efficiently produced and distributed by private enterprise [REF].
p6875
sg47
I655
sg48
I3613
sbag0
(g23
g2
Ntp6876
Rp6877
(dp6878
g27
(dp6879
g6687
g6688
sg35
I21
sg6689
V(ROOT\u000a  (S\u000a    (NP (DT This))\u000a    (VP (VBZ is)\u000a      (NP\u000a        (NP (DT a) (JJ widespread) (NN view))\u000a        (PP (IN in)\u000a          (NP (JJ neoclassical) (NNS economics)))))\u000a    (. .)))
p6880
ssg10
I21
sg36
g4
sg37
(dp6881
sg39
(dp6882
g6693
(lp6883
g6589
ag6599
ag6609
ag6619
ag6629
ag6639
ag6649
ag6659
ag6669
assg41
I3614
sg42
g6681
sg43
g6681
sg44
I655
sg45
V This is a widespread view in neoclassical economics.
p6884
sg47
I664
sg48
I3666
sbassg37
(dp6885
sg39
(dp6886
sg47
I-1
sg6693
g22
sg42
g6678
sg36
Nsg27
(dp6887
sg44
I0
sg45
VA poverty trap is "any self-reinforcing mechanism which causes poverty to persist."[REF] If it persists from generation to generation, the trap begins to reinforce itself if steps are not taken to break the cycle.\u000a\u000aIn the developing world, many factors can contribute to a poverty trap, including: limited access to credit and capital markets, extreme environmental degradation (which depletes agricultural production potential), corrupt governance, capital flight, poor education systems, disease ecology, lack of public health care, war and poor infrastructure [REF]. \u000a\u000aNations like this include Sierra Leone and the Democratic Republic of the Congo. \u000a\u000aJeffrey Sachs, in his book The End of Poverty, discusses the poverty trap and prescribes a set of policy initiatives intended to end the trap. He recommends that aid agencies behave as venture capitalists funding start-up companies. Venture capitalists, once they choose to invest in a venture, do not give only half or a third of the amount they feel the venture needs in order to become profitable; if they did, their money would be wasted. If all goes as planned, the venture will eventually become profitable and the venture capitalist will experience an adequate rate of return on investment. Likewise, Sachs proposes, developed countries cannot give only a fraction of what is needed in aid and expect to reverse the poverty trap in Africa. Just like any other start-up, developing nations absolutely must receive the amount of aid necessary (and promised at the G-8 Summit in 2005[REF]) for them to begin to reverse the poverty trap. The problem is that unlike start-ups, which simply go bankrupt if they fail to receive funding, in Africa people continue to die at a high rate due in large part to lack of sufficient aid. \u000a\u000aSachs points out that the extreme poor lack six major kinds of capital: human capital, business capital, infrastructure, natural capital, public institutional capital, and knowledge capital [REF]. He then details the poverty trap: The poor start with a very low level of capital per person, and then find themselves trapped in poverty because the ratio of capital per person actually falls from generation to generation. The amount of capital per person declines when the population is growing faster than capital is being accumulated .. The question for growth in per capita income is whether the net capital accumulation is large enough to keep up with population growth. \u000a\u000aSachs argues that sufficient foreign aid can make up for the lack of capital in poor countries, maintaining that, \u201cIf the foreign assistance is substantial enough, and lasts long enough, the capital stock rises sufficiently to lift households above subsistence.\u201d . \u000a\u000aSachs believes the public sector should focus mainly on investments in human capital (health, education, nutrition), infrastructure (roads, power, water and sanitation, environmental conservation), natural capital (conservation of biodiversity and ecosystems), public institutional capital (a well-run public administration, judicial system, police force), and parts of knowledge capital (scientific research for health, energy, agriculture, climate, ecology) [REF]. Sachs leaves business capital investments to the private sector, which would more efficiently use funding to develop the profitable enterprises necessary to sustain growth. In this sense, Sachs views public institutions as useful in providing the public goods necessary to begin the Rostovian take-off model, but maintains that private goods are more efficiently produced and distributed by private enterprise [REF]. This is a widespread view in neoclassical economics.
p6888
sS'sents'
p6889
g6682
sg43
g6678
sg41
I0
sS'id'
p6890
g16
sg48
I3666
sS'sentFeatures'
p6891
(lp6892
sb.