ccopy_reg
_reconstructor
p0
(cpygate.doc
Document
p1
c__builtin__
object
p2
Ntp3
Rp4
(dp5
S'src'
p6
V. \u000a\u000aA salted bomb is a variation of a nuclear weapon designed to produce enhanced quantities of radioactive fallout, rendering a large area uninhabitable [REF]. The term is derived both from the means of their manufacture, which involves the incorporation of additional elements to a standard atomic weapon, and from the expression "to salt the earth", meaning to render an area uninhabitable for generations. The idea originated with Hungarian-American physicist Leo Szilard, in February 1950. His intent was not to propose that such a weapon be built, but to show that nuclear weapon technology would soon reach the point where it could end human life on Earth [REF]. \u000a\u000aSalted versions of both fission and fusion weapons can be made by surrounding the core of the explosive device with a material containing an element that can be converted to a highly radioactive isotope by neutron bombardment [REF]. When the bomb explodes, the element absorbs neutrons released by the nuclear reaction, converting it to its radioactive form. The explosion scatters the resulting radioactive material over a wide area, leaving it uninhabitable far longer than an area affected by typical nuclear weapons. \u000a\u000aIn a salted hydrogen bomb, the radiation case around the fusion fuel, which normally is made of some fissionable element, is replaced with a metallic salting element. Salted fission bombs can be made by replacing the neutron reflector between the fissionable core and the explosive layer with a metallic element. The energy yield from a salted weapon is usually lower than from an ordinary weapon of similar size as a consequence of these changes. \u000a\u000aThe radioactive isotope chosen for the fallout material is usually a high intensity gamma ray emitter, with a half-life long enough that it remains lethal for an extended period. It also must have a chemistry that causes it to return to earth as fallout, rather than stay in the atmosphere after being vaporized in the explosion. \u000a\u000aOne example of a salted bomb is a proposed cobalt bomb, which produces the radioactive isotope cobalt-60 (60Co). Other non-fissionable isotopes can be produced, including gold-198 \u000a(198Au), tantalum-182 (182Ta) and zinc-65 \u000a(65Zn) [REF]. Sodium-23 has also been proposed as a salting agent [REF]. \u000a\u000aNo salted bomb has ever been atmospherically tested and as far as is publicly known none have ever been built [REF]. The United Kingdom did test a 1 kiloton bomb incorporating a small amount of cobalt as an experimental radiochemical tracer at their Tadje testing site in Maralinga range, Australia on September 14, 1957[REF].
p7
sS'string'
p8
S'. \n\nA salted bomb is a variation of a nuclear weapon designed to produce enhanced quantities of radioactive fallout, rendering a large area uninhabitable [REF]. The term is derived both from the means of their manufacture, which involves the incorporation of additional elements to a standard atomic weapon, and from the expression "to salt the earth", meaning to render an area uninhabitable for generations. The idea originated with Hungarian-American physicist Leo Szilard, in February 1950. His intent was not to propose that such a weapon be built, but to show that nuclear weapon technology would soon reach the point where it could end human life on Earth [REF]. \n\nSalted versions of both fission and fusion weapons can be made by surrounding the core of the explosive device with a material containing an element that can be converted to a highly radioactive isotope by neutron bombardment [REF]. When the bomb explodes, the element absorbs neutrons released by the nuclear reaction, converting it to its radioactive form. The explosion scatters the resulting radioactive material over a wide area, leaving it uninhabitable far longer than an area affected by typical nuclear weapons. \n\nIn a salted hydrogen bomb, the radiation case around the fusion fuel, which normally is made of some fissionable element, is replaced with a metallic salting element. Salted fission bombs can be made by replacing the neutron reflector between the fissionable core and the explosive layer with a metallic element. The energy yield from a salted weapon is usually lower than from an ordinary weapon of similar size as a consequence of these changes. \n\nThe radioactive isotope chosen for the fallout material is usually a high intensity gamma ray emitter, with a half-life long enough that it remains lethal for an extended period. It also must have a chemistry that causes it to return to earth as fallout, rather than stay in the atmosphere after being vaporized in the explosion. \n\nOne example of a salted bomb is a proposed cobalt bomb, which produces the radioactive isotope cobalt-60 (60Co). Other non-fissionable isotopes can be produced, including gold-198 \n(198Au), tantalum-182 (182Ta) and zinc-65 \n(65Zn) [REF]. Sodium-23 has also been proposed as a salting agent [REF]. \n\nNo salted bomb has ever been atmospherically tested and as far as is publicly known none have ever been built [REF]. The United Kingdom did test a 1 kiloton bomb incorporating a small amount of cobalt as an experimental radiochemical tracer at their Tadje testing site in Maralinga range, Australia on September 14, 1957[REF].'
p9
sS'idx'
p10
I0
sS'tknFeatures'
p11
(lp12
sS'docFeatures'
p13
(dp14
S'file_id'
p15
S'Salted_bomb'
p16
ssS'items'
p17
(dp18
S'raw'
p19
V. \u000a\u000aA salted bomb is a variation of a nuclear weapon designed to produce enhanced quantities of radioactive fallout, rendering a large area uninhabitable [REF]. The term is derived both from the means of their manufacture, which involves the incorporation of additional elements to a standard atomic weapon, and from the expression "to salt the earth", meaning to render an area uninhabitable for generations. The idea originated with Hungarian-American physicist Leo Szilard, in February 1950. His intent was not to propose that such a weapon be built, but to show that nuclear weapon technology would soon reach the point where it could end human life on Earth [REF]. \u000a\u000aSalted versions of both fission and fusion weapons can be made by surrounding the core of the explosive device with a material containing an element that can be converted to a highly radioactive isotope by neutron bombardment [REF]. When the bomb explodes, the element absorbs neutrons released by the nuclear reaction, converting it to its radioactive form. The explosion scatters the resulting radioactive material over a wide area, leaving it uninhabitable far longer than an area affected by typical nuclear weapons. \u000a\u000aIn a salted hydrogen bomb, the radiation case around the fusion fuel, which normally is made of some fissionable element, is replaced with a metallic salting element. Salted fission bombs can be made by replacing the neutron reflector between the fissionable core and the explosive layer with a metallic element. The energy yield from a salted weapon is usually lower than from an ordinary weapon of similar size as a consequence of these changes. \u000a\u000aThe radioactive isotope chosen for the fallout material is usually a high intensity gamma ray emitter, with a half-life long enough that it remains lethal for an extended period. It also must have a chemistry that causes it to return to earth as fallout, rather than stay in the atmosphere after being vaporized in the explosion. \u000a\u000aOne example of a salted bomb is a proposed cobalt bomb, which produces the radioactive isotope cobalt-60 (60Co). Other non-fissionable isotopes can be produced, including gold-198 \u000a(198Au), tantalum-182 (182Ta) and zinc-65 \u000a(65Zn) [REF]. Sodium-23 has also been proposed as a salting agent [REF]. \u000a\u000aNo salted bomb has ever been atmospherically tested and as far as is publicly known none have ever been built [REF]. The United Kingdom did test a 1 kiloton bomb incorporating a small amount of cobalt as an experimental radiochemical tracer at their Tadje testing site in Maralinga range, Australia on September 14, 1957[REF].
p20
sS'Token'
p21
(lp22
g0
(cpygate.annotation
Annotation
p23
g2
Ntp24
Rp25
(dp26
S'features'
p27
(dp28
S'lemma'
p29
V.
p30
sS'ner'
p31
VO
p32
sS'pos'
p33
V.
p34
sS'index'
p35
I1
ssg10
I0
sS'doc'
p36
g4
sS'labels'
p37
(dp38
sS'relations'
p39
(dp40
sS'cStart'
p41
I0
sS'subType'
p42
g21
sS'annoType'
p43
g21
sS'tStart'
p44
I0
sS'text'
p45
V.
p46
sS'tEnd'
p47
I0
sS'cEnd'
p48
I1
sbag0
(g23
g2
Ntp49
Rp50
(dp51
g27
(dp52
g29
Va
p53
sg31
VO
p54
sg33
VDT
p55
sg35
I1
ssg10
I1
sg36
g4
sg37
(dp56
sg39
(dp57
sg41
I4
sg42
g21
sg43
g21
sg44
I1
sg45
VA
p58
sg47
I1
sg48
I5
sbag0
(g23
g2
Ntp59
Rp60
(dp61
g27
(dp62
g29
Vsalted
p63
sg31
VO
p64
sg33
VJJ
p65
sg35
I2
ssg10
I2
sg36
g4
sg37
(dp66
sg39
(dp67
sg41
I6
sg42
g21
sg43
g21
sg44
I2
sg45
Vsalted
p68
sg47
I2
sg48
I12
sbag0
(g23
g2
Ntp69
Rp70
(dp71
g27
(dp72
g29
Vbomb
p73
sg31
VO
p74
sg33
VNN
p75
sg35
I3
ssg10
I3
sg36
g4
sg37
(dp76
sg39
(dp77
sg41
I13
sg42
g21
sg43
g21
sg44
I3
sg45
Vbomb
p78
sg47
I3
sg48
I17
sbag0
(g23
g2
Ntp79
Rp80
(dp81
g27
(dp82
g29
Vbe
p83
sg31
VO
p84
sg33
VVBZ
p85
sg35
I4
ssg10
I4
sg36
g4
sg37
(dp86
sg39
(dp87
sg41
I18
sg42
g21
sg43
g21
sg44
I4
sg45
Vis
p88
sg47
I4
sg48
I20
sbag0
(g23
g2
Ntp89
Rp90
(dp91
g27
(dp92
g29
Va
p93
sg31
VO
p94
sg33
VDT
p95
sg35
I5
ssg10
I5
sg36
g4
sg37
(dp96
sg39
(dp97
sg41
I21
sg42
g21
sg43
g21
sg44
I5
sg45
Va
p98
sg47
I5
sg48
I22
sbag0
(g23
g2
Ntp99
Rp100
(dp101
g27
(dp102
g29
Vvariation
p103
sg31
VO
p104
sg33
VNN
p105
sg35
I6
ssg10
I6
sg36
g4
sg37
(dp106
sg39
(dp107
sg41
I23
sg42
g21
sg43
g21
sg44
I6
sg45
Vvariation
p108
sg47
I6
sg48
I32
sbag0
(g23
g2
Ntp109
Rp110
(dp111
g27
(dp112
g29
Vof
p113
sg31
VO
p114
sg33
VIN
p115
sg35
I7
ssg10
I7
sg36
g4
sg37
(dp116
sg39
(dp117
sg41
I33
sg42
g21
sg43
g21
sg44
I7
sg45
Vof
p118
sg47
I7
sg48
I35
sbag0
(g23
g2
Ntp119
Rp120
(dp121
g27
(dp122
g29
Va
p123
sg31
VO
p124
sg33
VDT
p125
sg35
I8
ssg10
I8
sg36
g4
sg37
(dp126
sg39
(dp127
sg41
I36
sg42
g21
sg43
g21
sg44
I8
sg45
Va
p128
sg47
I8
sg48
I37
sbag0
(g23
g2
Ntp129
Rp130
(dp131
g27
(dp132
g29
Vnuclear
p133
sg31
VO
p134
sg33
VJJ
p135
sg35
I9
ssg10
I9
sg36
g4
sg37
(dp136
sg39
(dp137
sg41
I38
sg42
g21
sg43
g21
sg44
I9
sg45
Vnuclear
p138
sg47
I9
sg48
I45
sbag0
(g23
g2
Ntp139
Rp140
(dp141
g27
(dp142
g29
Vweapon
p143
sg31
VO
p144
sg33
VNN
p145
sg35
I10
ssg10
I10
sg36
g4
sg37
(dp146
sg39
(dp147
sg41
I46
sg42
g21
sg43
g21
sg44
I10
sg45
Vweapon
p148
sg47
I10
sg48
I52
sbag0
(g23
g2
Ntp149
Rp150
(dp151
g27
(dp152
g29
Vdesign
p153
sg31
VO
p154
sg33
VVBN
p155
sg35
I11
ssg10
I11
sg36
g4
sg37
(dp156
sg39
(dp157
sg41
I53
sg42
g21
sg43
g21
sg44
I11
sg45
Vdesigned
p158
sg47
I11
sg48
I61
sbag0
(g23
g2
Ntp159
Rp160
(dp161
g27
(dp162
g29
Vto
p163
sg31
VO
p164
sg33
VTO
p165
sg35
I12
ssg10
I12
sg36
g4
sg37
(dp166
sg39
(dp167
sg41
I62
sg42
g21
sg43
g21
sg44
I12
sg45
Vto
p168
sg47
I12
sg48
I64
sbag0
(g23
g2
Ntp169
Rp170
(dp171
g27
(dp172
g29
Vproduce
p173
sg31
VO
p174
sg33
VVB
p175
sg35
I13
ssg10
I13
sg36
g4
sg37
(dp176
sg39
(dp177
sg41
I65
sg42
g21
sg43
g21
sg44
I13
sg45
Vproduce
p178
sg47
I13
sg48
I72
sbag0
(g23
g2
Ntp179
Rp180
(dp181
g27
(dp182
g29
Venhance
p183
sg31
VO
p184
sg33
VVBN
p185
sg35
I14
ssg10
I14
sg36
g4
sg37
(dp186
sg39
(dp187
sg41
I73
sg42
g21
sg43
g21
sg44
I14
sg45
Venhanced
p188
sg47
I14
sg48
I81
sbag0
(g23
g2
Ntp189
Rp190
(dp191
g27
(dp192
g29
Vquantity
p193
sg31
VO
p194
sg33
VNNS
p195
sg35
I15
ssg10
I15
sg36
g4
sg37
(dp196
sg39
(dp197
sg41
I82
sg42
g21
sg43
g21
sg44
I15
sg45
Vquantities
p198
sg47
I15
sg48
I92
sbag0
(g23
g2
Ntp199
Rp200
(dp201
g27
(dp202
g29
Vof
p203
sg31
VO
p204
sg33
VIN
p205
sg35
I16
ssg10
I16
sg36
g4
sg37
(dp206
sg39
(dp207
sg41
I93
sg42
g21
sg43
g21
sg44
I16
sg45
Vof
p208
sg47
I16
sg48
I95
sbag0
(g23
g2
Ntp209
Rp210
(dp211
g27
(dp212
g29
Vradioactive
p213
sg31
VO
p214
sg33
VJJ
p215
sg35
I17
ssg10
I17
sg36
g4
sg37
(dp216
sg39
(dp217
sg41
I96
sg42
g21
sg43
g21
sg44
I17
sg45
Vradioactive
p218
sg47
I17
sg48
I107
sbag0
(g23
g2
Ntp219
Rp220
(dp221
g27
(dp222
g29
Vfallout
p223
sg31
VO
p224
sg33
VNN
p225
sg35
I18
ssg10
I18
sg36
g4
sg37
(dp226
sg39
(dp227
sg41
I108
sg42
g21
sg43
g21
sg44
I18
sg45
Vfallout
p228
sg47
I18
sg48
I115
sbag0
(g23
g2
Ntp229
Rp230
(dp231
g27
(dp232
g29
V,
p233
sg31
VO
p234
sg33
V,
p235
sg35
I19
ssg10
I19
sg36
g4
sg37
(dp236
sg39
(dp237
sg41
I115
sg42
g21
sg43
g21
sg44
I19
sg45
V,
p238
sg47
I19
sg48
I116
sbag0
(g23
g2
Ntp239
Rp240
(dp241
g27
(dp242
g29
Vrender
p243
sg31
VO
p244
sg33
VVBG
p245
sg35
I20
ssg10
I20
sg36
g4
sg37
(dp246
sg39
(dp247
sg41
I117
sg42
g21
sg43
g21
sg44
I20
sg45
Vrendering
p248
sg47
I20
sg48
I126
sbag0
(g23
g2
Ntp249
Rp250
(dp251
g27
(dp252
g29
Va
p253
sg31
VO
p254
sg33
VDT
p255
sg35
I21
ssg10
I21
sg36
g4
sg37
(dp256
sg39
(dp257
sg41
I127
sg42
g21
sg43
g21
sg44
I21
sg45
Va
p258
sg47
I21
sg48
I128
sbag0
(g23
g2
Ntp259
Rp260
(dp261
g27
(dp262
g29
Vlarge
p263
sg31
VO
p264
sg33
VJJ
p265
sg35
I22
ssg10
I22
sg36
g4
sg37
(dp266
sg39
(dp267
sg41
I129
sg42
g21
sg43
g21
sg44
I22
sg45
Vlarge
p268
sg47
I22
sg48
I134
sbag0
(g23
g2
Ntp269
Rp270
(dp271
g27
(dp272
g29
Varea
p273
sg31
VO
p274
sg33
VNN
p275
sg35
I23
ssg10
I23
sg36
g4
sg37
(dp276
sg39
(dp277
sg41
I135
sg42
g21
sg43
g21
sg44
I23
sg45
Varea
p278
sg47
I23
sg48
I139
sbag0
(g23
g2
Ntp279
Rp280
(dp281
g27
(dp282
g29
Vuninhabitable
p283
sg31
VO
p284
sg33
VJJ
p285
sg35
I24
ssg10
I24
sg36
g4
sg37
(dp286
sg39
(dp287
sg41
I140
sg42
g21
sg43
g21
sg44
I24
sg45
Vuninhabitable
p288
sg47
I24
sg48
I153
sbag0
(g23
g2
Ntp289
Rp290
(dp291
g27
(dp292
g29
V-lsb-
p293
sg31
VO
p294
sg33
V-LRB-
p295
sg35
I25
ssg10
I25
sg36
g4
sg37
(dp296
sg39
(dp297
sg41
I154
sg42
g21
sg43
g21
sg44
I25
sg45
V[
p298
sg47
I25
sg48
I155
sbag0
(g23
g2
Ntp299
Rp300
(dp301
g27
(dp302
g29
Vref
p303
sg31
VO
p304
sg33
VNN
p305
sg35
I26
ssg10
I26
sg36
g4
sg37
(dp306
sg39
(dp307
sg41
I155
sg42
g21
sg43
g21
sg44
I26
sg45
VREF
p308
sg47
I26
sg48
I158
sbag0
(g23
g2
Ntp309
Rp310
(dp311
g27
(dp312
g29
V-rsb-
p313
sg31
VO
p314
sg33
V-RRB-
p315
sg35
I27
ssg10
I27
sg36
g4
sg37
(dp316
sg39
(dp317
sg41
I158
sg42
g21
sg43
g21
sg44
I27
sg45
V]
p318
sg47
I27
sg48
I159
sbag0
(g23
g2
Ntp319
Rp320
(dp321
g27
(dp322
g29
V.
p323
sg31
VO
p324
sg33
V.
p325
sg35
I28
ssg10
I28
sg36
g4
sg37
(dp326
sg39
(dp327
sg41
I159
sg42
g21
sg43
g21
sg44
I28
sg45
V.
p328
sg47
I28
sg48
I160
sbag0
(g23
g2
Ntp329
Rp330
(dp331
g27
(dp332
g29
Vthe
p333
sg31
VO
p334
sg33
VDT
p335
sg35
I1
ssg10
I29
sg36
g4
sg37
(dp336
sg39
(dp337
sg41
I161
sg42
g21
sg43
g21
sg44
I29
sg45
VThe
p338
sg47
I29
sg48
I164
sbag0
(g23
g2
Ntp339
Rp340
(dp341
g27
(dp342
g29
Vterm
p343
sg31
VO
p344
sg33
VNN
p345
sg35
I2
ssg10
I30
sg36
g4
sg37
(dp346
sg39
(dp347
sg41
I165
sg42
g21
sg43
g21
sg44
I30
sg45
Vterm
p348
sg47
I30
sg48
I169
sbag0
(g23
g2
Ntp349
Rp350
(dp351
g27
(dp352
g29
Vbe
p353
sg31
VO
p354
sg33
VVBZ
p355
sg35
I3
ssg10
I31
sg36
g4
sg37
(dp356
sg39
(dp357
sg41
I170
sg42
g21
sg43
g21
sg44
I31
sg45
Vis
p358
sg47
I31
sg48
I172
sbag0
(g23
g2
Ntp359
Rp360
(dp361
g27
(dp362
g29
Vderive
p363
sg31
VO
p364
sg33
VVBN
p365
sg35
I4
ssg10
I32
sg36
g4
sg37
(dp366
sg39
(dp367
sg41
I173
sg42
g21
sg43
g21
sg44
I32
sg45
Vderived
p368
sg47
I32
sg48
I180
sbag0
(g23
g2
Ntp369
Rp370
(dp371
g27
(dp372
g29
Vboth
p373
sg31
VO
p374
sg33
VDT
p375
sg35
I5
ssg10
I33
sg36
g4
sg37
(dp376
sg39
(dp377
sg41
I181
sg42
g21
sg43
g21
sg44
I33
sg45
Vboth
p378
sg47
I33
sg48
I185
sbag0
(g23
g2
Ntp379
Rp380
(dp381
g27
(dp382
g29
Vfrom
p383
sg31
VO
p384
sg33
VIN
p385
sg35
I6
ssg10
I34
sg36
g4
sg37
(dp386
sg39
(dp387
sg41
I186
sg42
g21
sg43
g21
sg44
I34
sg45
Vfrom
p388
sg47
I34
sg48
I190
sbag0
(g23
g2
Ntp389
Rp390
(dp391
g27
(dp392
g29
Vthe
p393
sg31
VO
p394
sg33
VDT
p395
sg35
I7
ssg10
I35
sg36
g4
sg37
(dp396
sg39
(dp397
sg41
I191
sg42
g21
sg43
g21
sg44
I35
sg45
Vthe
p398
sg47
I35
sg48
I194
sbag0
(g23
g2
Ntp399
Rp400
(dp401
g27
(dp402
g29
Vmeans
p403
sg31
VO
p404
sg33
VNNS
p405
sg35
I8
ssg10
I36
sg36
g4
sg37
(dp406
sg39
(dp407
sg41
I195
sg42
g21
sg43
g21
sg44
I36
sg45
Vmeans
p408
sg47
I36
sg48
I200
sbag0
(g23
g2
Ntp409
Rp410
(dp411
g27
(dp412
g29
Vof
p413
sg31
VO
p414
sg33
VIN
p415
sg35
I9
ssg10
I37
sg36
g4
sg37
(dp416
sg39
(dp417
sg41
I201
sg42
g21
sg43
g21
sg44
I37
sg45
Vof
p418
sg47
I37
sg48
I203
sbag0
(g23
g2
Ntp419
Rp420
(dp421
g27
(dp422
g29
Vthey
p423
sg31
VO
p424
sg33
VPRP$
p425
sg35
I10
ssg10
I38
sg36
g4
sg37
(dp426
sg39
(dp427
sg41
I204
sg42
g21
sg43
g21
sg44
I38
sg45
Vtheir
p428
sg47
I38
sg48
I209
sbag0
(g23
g2
Ntp429
Rp430
(dp431
g27
(dp432
g29
Vmanufacture
p433
sg31
VO
p434
sg33
VNN
p435
sg35
I11
ssg10
I39
sg36
g4
sg37
(dp436
sg39
(dp437
sg41
I210
sg42
g21
sg43
g21
sg44
I39
sg45
Vmanufacture
p438
sg47
I39
sg48
I221
sbag0
(g23
g2
Ntp439
Rp440
(dp441
g27
(dp442
g29
V,
p443
sg31
VO
p444
sg33
V,
p445
sg35
I12
ssg10
I40
sg36
g4
sg37
(dp446
sg39
(dp447
sg41
I221
sg42
g21
sg43
g21
sg44
I40
sg45
V,
p448
sg47
I40
sg48
I222
sbag0
(g23
g2
Ntp449
Rp450
(dp451
g27
(dp452
g29
Vwhich
p453
sg31
VO
p454
sg33
VWDT
p455
sg35
I13
ssg10
I41
sg36
g4
sg37
(dp456
sg39
(dp457
sg41
I223
sg42
g21
sg43
g21
sg44
I41
sg45
Vwhich
p458
sg47
I41
sg48
I228
sbag0
(g23
g2
Ntp459
Rp460
(dp461
g27
(dp462
g29
Vinvolve
p463
sg31
VO
p464
sg33
VVBZ
p465
sg35
I14
ssg10
I42
sg36
g4
sg37
(dp466
sg39
(dp467
sg41
I229
sg42
g21
sg43
g21
sg44
I42
sg45
Vinvolves
p468
sg47
I42
sg48
I237
sbag0
(g23
g2
Ntp469
Rp470
(dp471
g27
(dp472
g29
Vthe
p473
sg31
VO
p474
sg33
VDT
p475
sg35
I15
ssg10
I43
sg36
g4
sg37
(dp476
sg39
(dp477
sg41
I238
sg42
g21
sg43
g21
sg44
I43
sg45
Vthe
p478
sg47
I43
sg48
I241
sbag0
(g23
g2
Ntp479
Rp480
(dp481
g27
(dp482
g29
Vincorporation
p483
sg31
VO
p484
sg33
VNN
p485
sg35
I16
ssg10
I44
sg36
g4
sg37
(dp486
sg39
(dp487
sg41
I242
sg42
g21
sg43
g21
sg44
I44
sg45
Vincorporation
p488
sg47
I44
sg48
I255
sbag0
(g23
g2
Ntp489
Rp490
(dp491
g27
(dp492
g29
Vof
p493
sg31
VO
p494
sg33
VIN
p495
sg35
I17
ssg10
I45
sg36
g4
sg37
(dp496
sg39
(dp497
sg41
I256
sg42
g21
sg43
g21
sg44
I45
sg45
Vof
p498
sg47
I45
sg48
I258
sbag0
(g23
g2
Ntp499
Rp500
(dp501
g27
(dp502
g29
Vadditional
p503
sg31
VO
p504
sg33
VJJ
p505
sg35
I18
ssg10
I46
sg36
g4
sg37
(dp506
sg39
(dp507
sg41
I259
sg42
g21
sg43
g21
sg44
I46
sg45
Vadditional
p508
sg47
I46
sg48
I269
sbag0
(g23
g2
Ntp509
Rp510
(dp511
g27
(dp512
g29
Velement
p513
sg31
VO
p514
sg33
VNNS
p515
sg35
I19
ssg10
I47
sg36
g4
sg37
(dp516
sg39
(dp517
sg41
I270
sg42
g21
sg43
g21
sg44
I47
sg45
Velements
p518
sg47
I47
sg48
I278
sbag0
(g23
g2
Ntp519
Rp520
(dp521
g27
(dp522
g29
Vto
p523
sg31
VO
p524
sg33
VTO
p525
sg35
I20
ssg10
I48
sg36
g4
sg37
(dp526
sg39
(dp527
sg41
I279
sg42
g21
sg43
g21
sg44
I48
sg45
Vto
p528
sg47
I48
sg48
I281
sbag0
(g23
g2
Ntp529
Rp530
(dp531
g27
(dp532
g29
Va
p533
sg31
VO
p534
sg33
VDT
p535
sg35
I21
ssg10
I49
sg36
g4
sg37
(dp536
sg39
(dp537
sg41
I282
sg42
g21
sg43
g21
sg44
I49
sg45
Va
p538
sg47
I49
sg48
I283
sbag0
(g23
g2
Ntp539
Rp540
(dp541
g27
(dp542
g29
Vstandard
p543
sg31
VO
p544
sg33
VJJ
p545
sg35
I22
ssg10
I50
sg36
g4
sg37
(dp546
sg39
(dp547
sg41
I284
sg42
g21
sg43
g21
sg44
I50
sg45
Vstandard
p548
sg47
I50
sg48
I292
sbag0
(g23
g2
Ntp549
Rp550
(dp551
g27
(dp552
g29
Vatomic
p553
sg31
VO
p554
sg33
VJJ
p555
sg35
I23
ssg10
I51
sg36
g4
sg37
(dp556
sg39
(dp557
sg41
I293
sg42
g21
sg43
g21
sg44
I51
sg45
Vatomic
p558
sg47
I51
sg48
I299
sbag0
(g23
g2
Ntp559
Rp560
(dp561
g27
(dp562
g29
Vweapon
p563
sg31
VO
p564
sg33
VNN
p565
sg35
I24
ssg10
I52
sg36
g4
sg37
(dp566
sg39
(dp567
sg41
I300
sg42
g21
sg43
g21
sg44
I52
sg45
Vweapon
p568
sg47
I52
sg48
I306
sbag0
(g23
g2
Ntp569
Rp570
(dp571
g27
(dp572
g29
V,
p573
sg31
VO
p574
sg33
V,
p575
sg35
I25
ssg10
I53
sg36
g4
sg37
(dp576
sg39
(dp577
sg41
I306
sg42
g21
sg43
g21
sg44
I53
sg45
V,
p578
sg47
I53
sg48
I307
sbag0
(g23
g2
Ntp579
Rp580
(dp581
g27
(dp582
g29
Vand
p583
sg31
VO
p584
sg33
VCC
p585
sg35
I26
ssg10
I54
sg36
g4
sg37
(dp586
sg39
(dp587
sg41
I308
sg42
g21
sg43
g21
sg44
I54
sg45
Vand
p588
sg47
I54
sg48
I311
sbag0
(g23
g2
Ntp589
Rp590
(dp591
g27
(dp592
g29
Vfrom
p593
sg31
VO
p594
sg33
VIN
p595
sg35
I27
ssg10
I55
sg36
g4
sg37
(dp596
sg39
(dp597
sg41
I312
sg42
g21
sg43
g21
sg44
I55
sg45
Vfrom
p598
sg47
I55
sg48
I316
sbag0
(g23
g2
Ntp599
Rp600
(dp601
g27
(dp602
g29
Vthe
p603
sg31
VO
p604
sg33
VDT
p605
sg35
I28
ssg10
I56
sg36
g4
sg37
(dp606
sg39
(dp607
sg41
I317
sg42
g21
sg43
g21
sg44
I56
sg45
Vthe
p608
sg47
I56
sg48
I320
sbag0
(g23
g2
Ntp609
Rp610
(dp611
g27
(dp612
g29
Vexpression
p613
sg31
VO
p614
sg33
VNN
p615
sg35
I29
ssg10
I57
sg36
g4
sg37
(dp616
sg39
(dp617
sg41
I321
sg42
g21
sg43
g21
sg44
I57
sg45
Vexpression
p618
sg47
I57
sg48
I331
sbag0
(g23
g2
Ntp619
Rp620
(dp621
g27
(dp622
g29
V``
p623
sg31
VO
p624
sg33
V``
p625
sg35
I30
ssg10
I58
sg36
g4
sg37
(dp626
sg39
(dp627
sg41
I332
sg42
g21
sg43
g21
sg44
I58
sg45
V"
p628
sg47
I58
sg48
I333
sbag0
(g23
g2
Ntp629
Rp630
(dp631
g27
(dp632
g29
Vto
p633
sg31
VO
p634
sg33
VTO
p635
sg35
I31
ssg10
I59
sg36
g4
sg37
(dp636
sg39
(dp637
sg41
I333
sg42
g21
sg43
g21
sg44
I59
sg45
Vto
p638
sg47
I59
sg48
I335
sbag0
(g23
g2
Ntp639
Rp640
(dp641
g27
(dp642
g29
Vsalt
p643
sg31
VO
p644
sg33
VNN
p645
sg35
I32
ssg10
I60
sg36
g4
sg37
(dp646
sg39
(dp647
sg41
I336
sg42
g21
sg43
g21
sg44
I60
sg45
Vsalt
p648
sg47
I60
sg48
I340
sbag0
(g23
g2
Ntp649
Rp650
(dp651
g27
(dp652
g29
Vthe
p653
sg31
VO
p654
sg33
VDT
p655
sg35
I33
ssg10
I61
sg36
g4
sg37
(dp656
sg39
(dp657
sg41
I341
sg42
g21
sg43
g21
sg44
I61
sg45
Vthe
p658
sg47
I61
sg48
I344
sbag0
(g23
g2
Ntp659
Rp660
(dp661
g27
(dp662
g29
Vearth
p663
sg31
VO
p664
sg33
VNN
p665
sg35
I34
ssg10
I62
sg36
g4
sg37
(dp666
sg39
(dp667
sg41
I345
sg42
g21
sg43
g21
sg44
I62
sg45
Vearth
p668
sg47
I62
sg48
I350
sbag0
(g23
g2
Ntp669
Rp670
(dp671
g27
(dp672
g29
V''
p673
sg31
VO
p674
sg33
V''
p675
sg35
I35
ssg10
I63
sg36
g4
sg37
(dp676
sg39
(dp677
sg41
I350
sg42
g21
sg43
g21
sg44
I63
sg45
g628
sg47
I63
sg48
I351
sbag0
(g23
g2
Ntp678
Rp679
(dp680
g27
(dp681
g29
V,
p682
sg31
VO
p683
sg33
V,
p684
sg35
I36
ssg10
I64
sg36
g4
sg37
(dp685
sg39
(dp686
sg41
I351
sg42
g21
sg43
g21
sg44
I64
sg45
V,
p687
sg47
I64
sg48
I352
sbag0
(g23
g2
Ntp688
Rp689
(dp690
g27
(dp691
g29
Vmean
p692
sg31
VO
p693
sg33
VVBG
p694
sg35
I37
ssg10
I65
sg36
g4
sg37
(dp695
sg39
(dp696
sg41
I353
sg42
g21
sg43
g21
sg44
I65
sg45
Vmeaning
p697
sg47
I65
sg48
I360
sbag0
(g23
g2
Ntp698
Rp699
(dp700
g27
(dp701
g29
Vto
p702
sg31
VO
p703
sg33
VTO
p704
sg35
I38
ssg10
I66
sg36
g4
sg37
(dp705
sg39
(dp706
sg41
I361
sg42
g21
sg43
g21
sg44
I66
sg45
Vto
p707
sg47
I66
sg48
I363
sbag0
(g23
g2
Ntp708
Rp709
(dp710
g27
(dp711
g29
Vrender
p712
sg31
VO
p713
sg33
VVB
p714
sg35
I39
ssg10
I67
sg36
g4
sg37
(dp715
sg39
(dp716
sg41
I364
sg42
g21
sg43
g21
sg44
I67
sg45
Vrender
p717
sg47
I67
sg48
I370
sbag0
(g23
g2
Ntp718
Rp719
(dp720
g27
(dp721
g29
Va
p722
sg31
VO
p723
sg33
VDT
p724
sg35
I40
ssg10
I68
sg36
g4
sg37
(dp725
sg39
(dp726
sg41
I371
sg42
g21
sg43
g21
sg44
I68
sg45
Van
p727
sg47
I68
sg48
I373
sbag0
(g23
g2
Ntp728
Rp729
(dp730
g27
(dp731
g29
Varea
p732
sg31
VO
p733
sg33
VNN
p734
sg35
I41
ssg10
I69
sg36
g4
sg37
(dp735
sg39
(dp736
sg41
I374
sg42
g21
sg43
g21
sg44
I69
sg45
Varea
p737
sg47
I69
sg48
I378
sbag0
(g23
g2
Ntp738
Rp739
(dp740
g27
(dp741
g29
Vuninhabitable
p742
sg31
VO
p743
sg33
VJJ
p744
sg35
I42
ssg10
I70
sg36
g4
sg37
(dp745
sg39
(dp746
sg41
I379
sg42
g21
sg43
g21
sg44
I70
sg45
Vuninhabitable
p747
sg47
I70
sg48
I392
sbag0
(g23
g2
Ntp748
Rp749
(dp750
g27
(dp751
g29
Vfor
p752
sg31
VO
p753
sg33
VIN
p754
sg35
I43
ssg10
I71
sg36
g4
sg37
(dp755
sg39
(dp756
sg41
I393
sg42
g21
sg43
g21
sg44
I71
sg45
Vfor
p757
sg47
I71
sg48
I396
sbag0
(g23
g2
Ntp758
Rp759
(dp760
g27
(dp761
g29
Vgeneration
p762
sg31
VO
p763
sg33
VNNS
p764
sg35
I44
ssg10
I72
sg36
g4
sg37
(dp765
sg39
(dp766
sg41
I397
sg42
g21
sg43
g21
sg44
I72
sg45
Vgenerations
p767
sg47
I72
sg48
I408
sbag0
(g23
g2
Ntp768
Rp769
(dp770
g27
(dp771
g29
V.
p772
sg31
VO
p773
sg33
V.
p774
sg35
I45
ssg10
I73
sg36
g4
sg37
(dp775
sg39
(dp776
sg41
I408
sg42
g21
sg43
g21
sg44
I73
sg45
V.
p777
sg47
I73
sg48
I409
sbag0
(g23
g2
Ntp778
Rp779
(dp780
g27
(dp781
g29
Vthe
p782
sg31
VO
p783
sg33
VDT
p784
sg35
I1
ssg10
I74
sg36
g4
sg37
(dp785
sg39
(dp786
sg41
I410
sg42
g21
sg43
g21
sg44
I74
sg45
VThe
p787
sg47
I74
sg48
I413
sbag0
(g23
g2
Ntp788
Rp789
(dp790
g27
(dp791
g29
Videa
p792
sg31
VO
p793
sg33
VNN
p794
sg35
I2
ssg10
I75
sg36
g4
sg37
(dp795
sg39
(dp796
sg41
I414
sg42
g21
sg43
g21
sg44
I75
sg45
Videa
p797
sg47
I75
sg48
I418
sbag0
(g23
g2
Ntp798
Rp799
(dp800
g27
(dp801
g29
Voriginate
p802
sg31
VO
p803
sg33
VVBD
p804
sg35
I3
ssg10
I76
sg36
g4
sg37
(dp805
sg39
(dp806
sg41
I419
sg42
g21
sg43
g21
sg44
I76
sg45
Voriginated
p807
sg47
I76
sg48
I429
sbag0
(g23
g2
Ntp808
Rp809
(dp810
g27
(dp811
g29
Vwith
p812
sg31
VO
p813
sg33
VIN
p814
sg35
I4
ssg10
I77
sg36
g4
sg37
(dp815
sg39
(dp816
sg41
I430
sg42
g21
sg43
g21
sg44
I77
sg45
Vwith
p817
sg47
I77
sg48
I434
sbag0
(g23
g2
Ntp818
Rp819
(dp820
g27
(dp821
g29
Vhungarian-american
p822
sg31
VMISC
p823
sg33
VJJ
p824
sg35
I5
ssg10
I78
sg36
g4
sg37
(dp825
sg39
(dp826
sg41
I435
sg42
g21
sg43
g21
sg44
I78
sg45
VHungarian-American
p827
sg47
I78
sg48
I453
sbag0
(g23
g2
Ntp828
Rp829
(dp830
g27
(dp831
g29
Vphysicist
p832
sg31
VO
p833
sg33
VNN
p834
sg35
I6
ssg10
I79
sg36
g4
sg37
(dp835
sg39
(dp836
sg41
I454
sg42
g21
sg43
g21
sg44
I79
sg45
Vphysicist
p837
sg47
I79
sg48
I463
sbag0
(g23
g2
Ntp838
Rp839
(dp840
g27
(dp841
g29
VLeo
p842
sg31
VPERSON
p843
sg33
VNNP
p844
sg35
I7
ssg10
I80
sg36
g4
sg37
(dp845
sg39
(dp846
sg41
I464
sg42
g21
sg43
g21
sg44
I80
sg45
VLeo
p847
sg47
I80
sg48
I467
sbag0
(g23
g2
Ntp848
Rp849
(dp850
g27
(dp851
g29
VSzilard
p852
sg31
VPERSON
p853
sg33
VNNP
p854
sg35
I8
ssg10
I81
sg36
g4
sg37
(dp855
sg39
(dp856
sg41
I468
sg42
g21
sg43
g21
sg44
I81
sg45
VSzilard
p857
sg47
I81
sg48
I475
sbag0
(g23
g2
Ntp858
Rp859
(dp860
g27
(dp861
g29
V,
p862
sg31
VO
p863
sg33
V,
p864
sg35
I9
ssg10
I82
sg36
g4
sg37
(dp865
sg39
(dp866
sg41
I475
sg42
g21
sg43
g21
sg44
I82
sg45
V,
p867
sg47
I82
sg48
I476
sbag0
(g23
g2
Ntp868
Rp869
(dp870
g27
(dp871
g29
Vin
p872
sg31
VO
p873
sg33
VIN
p874
sg35
I10
ssg10
I83
sg36
g4
sg37
(dp875
sg39
(dp876
sg41
I477
sg42
g21
sg43
g21
sg44
I83
sg45
Vin
p877
sg47
I83
sg48
I479
sbag0
(g23
g2
Ntp878
Rp879
(dp880
g27
(dp881
g29
VFebruary
p882
sg31
VDATE
p883
sg33
VNNP
p884
sg35
I11
ssg10
I84
sg36
g4
sg37
(dp885
sg39
(dp886
sg41
I480
sg42
g21
sg43
g21
sg44
I84
sg45
VFebruary
p887
sg47
I84
sg48
I488
sbag0
(g23
g2
Ntp888
Rp889
(dp890
g27
(dp891
g29
V1950
p892
sg31
VDATE
p893
sg33
VCD
p894
sg35
I12
ssg10
I85
sg36
g4
sg37
(dp895
sg39
(dp896
sg41
I489
sg42
g21
sg43
g21
sg44
I85
sg45
V1950
p897
sg47
I85
sg48
I493
sbag0
(g23
g2
Ntp898
Rp899
(dp900
g27
(dp901
g29
V.
p902
sg31
VO
p903
sg33
V.
p904
sg35
I13
ssg10
I86
sg36
g4
sg37
(dp905
sg39
(dp906
sg41
I493
sg42
g21
sg43
g21
sg44
I86
sg45
V.
p907
sg47
I86
sg48
I494
sbag0
(g23
g2
Ntp908
Rp909
(dp910
g27
(dp911
g29
Vhe
p912
sg31
VO
p913
sg33
VPRP$
p914
sg35
I1
ssg10
I87
sg36
g4
sg37
(dp915
sg39
(dp916
sg41
I495
sg42
g21
sg43
g21
sg44
I87
sg45
VHis
p917
sg47
I87
sg48
I498
sbag0
(g23
g2
Ntp918
Rp919
(dp920
g27
(dp921
g29
Vintent
p922
sg31
VO
p923
sg33
VNN
p924
sg35
I2
ssg10
I88
sg36
g4
sg37
(dp925
sg39
(dp926
sg41
I499
sg42
g21
sg43
g21
sg44
I88
sg45
Vintent
p927
sg47
I88
sg48
I505
sbag0
(g23
g2
Ntp928
Rp929
(dp930
g27
(dp931
g29
Vbe
p932
sg31
VO
p933
sg33
VVBD
p934
sg35
I3
ssg10
I89
sg36
g4
sg37
(dp935
sg39
(dp936
sg41
I506
sg42
g21
sg43
g21
sg44
I89
sg45
Vwas
p937
sg47
I89
sg48
I509
sbag0
(g23
g2
Ntp938
Rp939
(dp940
g27
(dp941
g29
Vnot
p942
sg31
VO
p943
sg33
VRB
p944
sg35
I4
ssg10
I90
sg36
g4
sg37
(dp945
sg39
(dp946
sg41
I510
sg42
g21
sg43
g21
sg44
I90
sg45
Vnot
p947
sg47
I90
sg48
I513
sbag0
(g23
g2
Ntp948
Rp949
(dp950
g27
(dp951
g29
Vto
p952
sg31
VO
p953
sg33
VTO
p954
sg35
I5
ssg10
I91
sg36
g4
sg37
(dp955
sg39
(dp956
sg41
I514
sg42
g21
sg43
g21
sg44
I91
sg45
Vto
p957
sg47
I91
sg48
I516
sbag0
(g23
g2
Ntp958
Rp959
(dp960
g27
(dp961
g29
Vpropose
p962
sg31
VO
p963
sg33
VVB
p964
sg35
I6
ssg10
I92
sg36
g4
sg37
(dp965
sg39
(dp966
sg41
I517
sg42
g21
sg43
g21
sg44
I92
sg45
Vpropose
p967
sg47
I92
sg48
I524
sbag0
(g23
g2
Ntp968
Rp969
(dp970
g27
(dp971
g29
Vthat
p972
sg31
VO
p973
sg33
VIN
p974
sg35
I7
ssg10
I93
sg36
g4
sg37
(dp975
sg39
(dp976
sg41
I525
sg42
g21
sg43
g21
sg44
I93
sg45
Vthat
p977
sg47
I93
sg48
I529
sbag0
(g23
g2
Ntp978
Rp979
(dp980
g27
(dp981
g29
Vsuch
p982
sg31
VO
p983
sg33
VPDT
p984
sg35
I8
ssg10
I94
sg36
g4
sg37
(dp985
sg39
(dp986
sg41
I530
sg42
g21
sg43
g21
sg44
I94
sg45
Vsuch
p987
sg47
I94
sg48
I534
sbag0
(g23
g2
Ntp988
Rp989
(dp990
g27
(dp991
g29
Va
p992
sg31
VO
p993
sg33
VDT
p994
sg35
I9
ssg10
I95
sg36
g4
sg37
(dp995
sg39
(dp996
sg41
I535
sg42
g21
sg43
g21
sg44
I95
sg45
Va
p997
sg47
I95
sg48
I536
sbag0
(g23
g2
Ntp998
Rp999
(dp1000
g27
(dp1001
g29
Vweapon
p1002
sg31
VO
p1003
sg33
VNN
p1004
sg35
I10
ssg10
I96
sg36
g4
sg37
(dp1005
sg39
(dp1006
sg41
I537
sg42
g21
sg43
g21
sg44
I96
sg45
Vweapon
p1007
sg47
I96
sg48
I543
sbag0
(g23
g2
Ntp1008
Rp1009
(dp1010
g27
(dp1011
g29
Vbe
p1012
sg31
VO
p1013
sg33
VVB
p1014
sg35
I11
ssg10
I97
sg36
g4
sg37
(dp1015
sg39
(dp1016
sg41
I544
sg42
g21
sg43
g21
sg44
I97
sg45
Vbe
p1017
sg47
I97
sg48
I546
sbag0
(g23
g2
Ntp1018
Rp1019
(dp1020
g27
(dp1021
g29
Vbuild
p1022
sg31
VO
p1023
sg33
VVBN
p1024
sg35
I12
ssg10
I98
sg36
g4
sg37
(dp1025
sg39
(dp1026
sg41
I547
sg42
g21
sg43
g21
sg44
I98
sg45
Vbuilt
p1027
sg47
I98
sg48
I552
sbag0
(g23
g2
Ntp1028
Rp1029
(dp1030
g27
(dp1031
g29
V,
p1032
sg31
VO
p1033
sg33
V,
p1034
sg35
I13
ssg10
I99
sg36
g4
sg37
(dp1035
sg39
(dp1036
sg41
I552
sg42
g21
sg43
g21
sg44
I99
sg45
V,
p1037
sg47
I99
sg48
I553
sbag0
(g23
g2
Ntp1038
Rp1039
(dp1040
g27
(dp1041
g29
Vbut
p1042
sg31
VO
p1043
sg33
VCC
p1044
sg35
I14
ssg10
I100
sg36
g4
sg37
(dp1045
sg39
(dp1046
sg41
I554
sg42
g21
sg43
g21
sg44
I100
sg45
Vbut
p1047
sg47
I100
sg48
I557
sbag0
(g23
g2
Ntp1048
Rp1049
(dp1050
g27
(dp1051
g29
Vto
p1052
sg31
VO
p1053
sg33
VTO
p1054
sg35
I15
ssg10
I101
sg36
g4
sg37
(dp1055
sg39
(dp1056
sg41
I558
sg42
g21
sg43
g21
sg44
I101
sg45
Vto
p1057
sg47
I101
sg48
I560
sbag0
(g23
g2
Ntp1058
Rp1059
(dp1060
g27
(dp1061
g29
Vshow
p1062
sg31
VO
p1063
sg33
VVB
p1064
sg35
I16
ssg10
I102
sg36
g4
sg37
(dp1065
sg39
(dp1066
sg41
I561
sg42
g21
sg43
g21
sg44
I102
sg45
Vshow
p1067
sg47
I102
sg48
I565
sbag0
(g23
g2
Ntp1068
Rp1069
(dp1070
g27
(dp1071
g29
Vthat
p1072
sg31
VO
p1073
sg33
VIN
p1074
sg35
I17
ssg10
I103
sg36
g4
sg37
(dp1075
sg39
(dp1076
sg41
I566
sg42
g21
sg43
g21
sg44
I103
sg45
Vthat
p1077
sg47
I103
sg48
I570
sbag0
(g23
g2
Ntp1078
Rp1079
(dp1080
g27
(dp1081
g29
Vnuclear
p1082
sg31
VO
p1083
sg33
VJJ
p1084
sg35
I18
ssg10
I104
sg36
g4
sg37
(dp1085
sg39
(dp1086
sg41
I571
sg42
g21
sg43
g21
sg44
I104
sg45
Vnuclear
p1087
sg47
I104
sg48
I578
sbag0
(g23
g2
Ntp1088
Rp1089
(dp1090
g27
(dp1091
g29
Vweapon
p1092
sg31
VO
p1093
sg33
VNN
p1094
sg35
I19
ssg10
I105
sg36
g4
sg37
(dp1095
sg39
(dp1096
sg41
I579
sg42
g21
sg43
g21
sg44
I105
sg45
Vweapon
p1097
sg47
I105
sg48
I585
sbag0
(g23
g2
Ntp1098
Rp1099
(dp1100
g27
(dp1101
g29
Vtechnology
p1102
sg31
VO
p1103
sg33
VNN
p1104
sg35
I20
ssg10
I106
sg36
g4
sg37
(dp1105
sg39
(dp1106
sg41
I586
sg42
g21
sg43
g21
sg44
I106
sg45
Vtechnology
p1107
sg47
I106
sg48
I596
sbag0
(g23
g2
Ntp1108
Rp1109
(dp1110
g27
(dp1111
g29
Vwould
p1112
sg31
VO
p1113
sg33
VMD
p1114
sg35
I21
ssg10
I107
sg36
g4
sg37
(dp1115
sg39
(dp1116
sg41
I597
sg42
g21
sg43
g21
sg44
I107
sg45
Vwould
p1117
sg47
I107
sg48
I602
sbag0
(g23
g2
Ntp1118
Rp1119
(dp1120
g27
(dp1121
g29
Vsoon
p1122
sg31
VO
p1123
sg33
VRB
p1124
sg35
I22
ssg10
I108
sg36
g4
sg37
(dp1125
sg39
(dp1126
sg41
I603
sg42
g21
sg43
g21
sg44
I108
sg45
Vsoon
p1127
sg47
I108
sg48
I607
sbag0
(g23
g2
Ntp1128
Rp1129
(dp1130
g27
(dp1131
g29
Vreach
p1132
sg31
VO
p1133
sg33
VVB
p1134
sg35
I23
ssg10
I109
sg36
g4
sg37
(dp1135
sg39
(dp1136
sg41
I608
sg42
g21
sg43
g21
sg44
I109
sg45
Vreach
p1137
sg47
I109
sg48
I613
sbag0
(g23
g2
Ntp1138
Rp1139
(dp1140
g27
(dp1141
g29
Vthe
p1142
sg31
VO
p1143
sg33
VDT
p1144
sg35
I24
ssg10
I110
sg36
g4
sg37
(dp1145
sg39
(dp1146
sg41
I614
sg42
g21
sg43
g21
sg44
I110
sg45
Vthe
p1147
sg47
I110
sg48
I617
sbag0
(g23
g2
Ntp1148
Rp1149
(dp1150
g27
(dp1151
g29
Vpoint
p1152
sg31
VO
p1153
sg33
VNN
p1154
sg35
I25
ssg10
I111
sg36
g4
sg37
(dp1155
sg39
(dp1156
sg41
I618
sg42
g21
sg43
g21
sg44
I111
sg45
Vpoint
p1157
sg47
I111
sg48
I623
sbag0
(g23
g2
Ntp1158
Rp1159
(dp1160
g27
(dp1161
g29
Vwhere
p1162
sg31
VO
p1163
sg33
VWRB
p1164
sg35
I26
ssg10
I112
sg36
g4
sg37
(dp1165
sg39
(dp1166
sg41
I624
sg42
g21
sg43
g21
sg44
I112
sg45
Vwhere
p1167
sg47
I112
sg48
I629
sbag0
(g23
g2
Ntp1168
Rp1169
(dp1170
g27
(dp1171
g29
Vit
p1172
sg31
VO
p1173
sg33
VPRP
p1174
sg35
I27
ssg10
I113
sg36
g4
sg37
(dp1175
sg39
(dp1176
sg41
I630
sg42
g21
sg43
g21
sg44
I113
sg45
Vit
p1177
sg47
I113
sg48
I632
sbag0
(g23
g2
Ntp1178
Rp1179
(dp1180
g27
(dp1181
g29
Vcould
p1182
sg31
VO
p1183
sg33
VMD
p1184
sg35
I28
ssg10
I114
sg36
g4
sg37
(dp1185
sg39
(dp1186
sg41
I633
sg42
g21
sg43
g21
sg44
I114
sg45
Vcould
p1187
sg47
I114
sg48
I638
sbag0
(g23
g2
Ntp1188
Rp1189
(dp1190
g27
(dp1191
g29
Vend
p1192
sg31
VO
p1193
sg33
VVB
p1194
sg35
I29
ssg10
I115
sg36
g4
sg37
(dp1195
sg39
(dp1196
sg41
I639
sg42
g21
sg43
g21
sg44
I115
sg45
Vend
p1197
sg47
I115
sg48
I642
sbag0
(g23
g2
Ntp1198
Rp1199
(dp1200
g27
(dp1201
g29
Vhuman
p1202
sg31
VO
p1203
sg33
VJJ
p1204
sg35
I30
ssg10
I116
sg36
g4
sg37
(dp1205
sg39
(dp1206
sg41
I643
sg42
g21
sg43
g21
sg44
I116
sg45
Vhuman
p1207
sg47
I116
sg48
I648
sbag0
(g23
g2
Ntp1208
Rp1209
(dp1210
g27
(dp1211
g29
Vlife
p1212
sg31
VO
p1213
sg33
VNN
p1214
sg35
I31
ssg10
I117
sg36
g4
sg37
(dp1215
sg39
(dp1216
sg41
I649
sg42
g21
sg43
g21
sg44
I117
sg45
Vlife
p1217
sg47
I117
sg48
I653
sbag0
(g23
g2
Ntp1218
Rp1219
(dp1220
g27
(dp1221
g29
Von
p1222
sg31
VO
p1223
sg33
VIN
p1224
sg35
I32
ssg10
I118
sg36
g4
sg37
(dp1225
sg39
(dp1226
sg41
I654
sg42
g21
sg43
g21
sg44
I118
sg45
Von
p1227
sg47
I118
sg48
I656
sbag0
(g23
g2
Ntp1228
Rp1229
(dp1230
g27
(dp1231
g29
VEarth
p1232
sg31
VLOCATION
p1233
sg33
VNNP
p1234
sg35
I33
ssg10
I119
sg36
g4
sg37
(dp1235
sg39
(dp1236
sg41
I657
sg42
g21
sg43
g21
sg44
I119
sg45
VEarth
p1237
sg47
I119
sg48
I662
sbag0
(g23
g2
Ntp1238
Rp1239
(dp1240
g27
(dp1241
g29
V-lsb-
p1242
sg31
VO
p1243
sg33
V-LRB-
p1244
sg35
I34
ssg10
I120
sg36
g4
sg37
(dp1245
sg39
(dp1246
sg41
I663
sg42
g21
sg43
g21
sg44
I120
sg45
V[
p1247
sg47
I120
sg48
I664
sbag0
(g23
g2
Ntp1248
Rp1249
(dp1250
g27
(dp1251
g29
VREF
p1252
sg31
VO
p1253
sg33
VNNP
p1254
sg35
I35
ssg10
I121
sg36
g4
sg37
(dp1255
sg39
(dp1256
sg41
I664
sg42
g21
sg43
g21
sg44
I121
sg45
VREF
p1257
sg47
I121
sg48
I667
sbag0
(g23
g2
Ntp1258
Rp1259
(dp1260
g27
(dp1261
g29
V-rsb-
p1262
sg31
VO
p1263
sg33
V-RRB-
p1264
sg35
I36
ssg10
I122
sg36
g4
sg37
(dp1265
sg39
(dp1266
sg41
I667
sg42
g21
sg43
g21
sg44
I122
sg45
V]
p1267
sg47
I122
sg48
I668
sbag0
(g23
g2
Ntp1268
Rp1269
(dp1270
g27
(dp1271
g29
V.
p1272
sg31
VO
p1273
sg33
V.
p1274
sg35
I37
ssg10
I123
sg36
g4
sg37
(dp1275
sg39
(dp1276
sg41
I668
sg42
g21
sg43
g21
sg44
I123
sg45
V.
p1277
sg47
I123
sg48
I669
sbag0
(g23
g2
Ntp1278
Rp1279
(dp1280
g27
(dp1281
g29
Vsalted
p1282
sg31
VO
p1283
sg33
VJJ
p1284
sg35
I1
ssg10
I124
sg36
g4
sg37
(dp1285
sg39
(dp1286
sg41
I672
sg42
g21
sg43
g21
sg44
I124
sg45
VSalted
p1287
sg47
I124
sg48
I678
sbag0
(g23
g2
Ntp1288
Rp1289
(dp1290
g27
(dp1291
g29
Vversion
p1292
sg31
VO
p1293
sg33
VNNS
p1294
sg35
I2
ssg10
I125
sg36
g4
sg37
(dp1295
sg39
(dp1296
sg41
I679
sg42
g21
sg43
g21
sg44
I125
sg45
Vversions
p1297
sg47
I125
sg48
I687
sbag0
(g23
g2
Ntp1298
Rp1299
(dp1300
g27
(dp1301
g29
Vof
p1302
sg31
VO
p1303
sg33
VIN
p1304
sg35
I3
ssg10
I126
sg36
g4
sg37
(dp1305
sg39
(dp1306
sg41
I688
sg42
g21
sg43
g21
sg44
I126
sg45
Vof
p1307
sg47
I126
sg48
I690
sbag0
(g23
g2
Ntp1308
Rp1309
(dp1310
g27
(dp1311
g29
Vboth
p1312
sg31
VO
p1313
sg33
VDT
p1314
sg35
I4
ssg10
I127
sg36
g4
sg37
(dp1315
sg39
(dp1316
sg41
I691
sg42
g21
sg43
g21
sg44
I127
sg45
Vboth
p1317
sg47
I127
sg48
I695
sbag0
(g23
g2
Ntp1318
Rp1319
(dp1320
g27
(dp1321
g29
Vfission
p1322
sg31
VO
p1323
sg33
VNN
p1324
sg35
I5
ssg10
I128
sg36
g4
sg37
(dp1325
sg39
(dp1326
sg41
I696
sg42
g21
sg43
g21
sg44
I128
sg45
Vfission
p1327
sg47
I128
sg48
I703
sbag0
(g23
g2
Ntp1328
Rp1329
(dp1330
g27
(dp1331
g29
Vand
p1332
sg31
VO
p1333
sg33
VCC
p1334
sg35
I6
ssg10
I129
sg36
g4
sg37
(dp1335
sg39
(dp1336
sg41
I704
sg42
g21
sg43
g21
sg44
I129
sg45
Vand
p1337
sg47
I129
sg48
I707
sbag0
(g23
g2
Ntp1338
Rp1339
(dp1340
g27
(dp1341
g29
Vfusion
p1342
sg31
VO
p1343
sg33
VNN
p1344
sg35
I7
ssg10
I130
sg36
g4
sg37
(dp1345
sg39
(dp1346
sg41
I708
sg42
g21
sg43
g21
sg44
I130
sg45
Vfusion
p1347
sg47
I130
sg48
I714
sbag0
(g23
g2
Ntp1348
Rp1349
(dp1350
g27
(dp1351
g29
Vweapon
p1352
sg31
VO
p1353
sg33
VNNS
p1354
sg35
I8
ssg10
I131
sg36
g4
sg37
(dp1355
sg39
(dp1356
sg41
I715
sg42
g21
sg43
g21
sg44
I131
sg45
Vweapons
p1357
sg47
I131
sg48
I722
sbag0
(g23
g2
Ntp1358
Rp1359
(dp1360
g27
(dp1361
g29
Vcan
p1362
sg31
VO
p1363
sg33
VMD
p1364
sg35
I9
ssg10
I132
sg36
g4
sg37
(dp1365
sg39
(dp1366
sg41
I723
sg42
g21
sg43
g21
sg44
I132
sg45
Vcan
p1367
sg47
I132
sg48
I726
sbag0
(g23
g2
Ntp1368
Rp1369
(dp1370
g27
(dp1371
g29
Vbe
p1372
sg31
VO
p1373
sg33
VVB
p1374
sg35
I10
ssg10
I133
sg36
g4
sg37
(dp1375
sg39
(dp1376
sg41
I727
sg42
g21
sg43
g21
sg44
I133
sg45
Vbe
p1377
sg47
I133
sg48
I729
sbag0
(g23
g2
Ntp1378
Rp1379
(dp1380
g27
(dp1381
g29
Vmake
p1382
sg31
VO
p1383
sg33
VVBN
p1384
sg35
I11
ssg10
I134
sg36
g4
sg37
(dp1385
sg39
(dp1386
sg41
I730
sg42
g21
sg43
g21
sg44
I134
sg45
Vmade
p1387
sg47
I134
sg48
I734
sbag0
(g23
g2
Ntp1388
Rp1389
(dp1390
g27
(dp1391
g29
Vby
p1392
sg31
VO
p1393
sg33
VIN
p1394
sg35
I12
ssg10
I135
sg36
g4
sg37
(dp1395
sg39
(dp1396
sg41
I735
sg42
g21
sg43
g21
sg44
I135
sg45
Vby
p1397
sg47
I135
sg48
I737
sbag0
(g23
g2
Ntp1398
Rp1399
(dp1400
g27
(dp1401
g29
Vsurround
p1402
sg31
VO
p1403
sg33
VVBG
p1404
sg35
I13
ssg10
I136
sg36
g4
sg37
(dp1405
sg39
(dp1406
sg41
I738
sg42
g21
sg43
g21
sg44
I136
sg45
Vsurrounding
p1407
sg47
I136
sg48
I749
sbag0
(g23
g2
Ntp1408
Rp1409
(dp1410
g27
(dp1411
g29
Vthe
p1412
sg31
VO
p1413
sg33
VDT
p1414
sg35
I14
ssg10
I137
sg36
g4
sg37
(dp1415
sg39
(dp1416
sg41
I750
sg42
g21
sg43
g21
sg44
I137
sg45
Vthe
p1417
sg47
I137
sg48
I753
sbag0
(g23
g2
Ntp1418
Rp1419
(dp1420
g27
(dp1421
g29
Vcore
p1422
sg31
VO
p1423
sg33
VNN
p1424
sg35
I15
ssg10
I138
sg36
g4
sg37
(dp1425
sg39
(dp1426
sg41
I754
sg42
g21
sg43
g21
sg44
I138
sg45
Vcore
p1427
sg47
I138
sg48
I758
sbag0
(g23
g2
Ntp1428
Rp1429
(dp1430
g27
(dp1431
g29
Vof
p1432
sg31
VO
p1433
sg33
VIN
p1434
sg35
I16
ssg10
I139
sg36
g4
sg37
(dp1435
sg39
(dp1436
sg41
I759
sg42
g21
sg43
g21
sg44
I139
sg45
Vof
p1437
sg47
I139
sg48
I761
sbag0
(g23
g2
Ntp1438
Rp1439
(dp1440
g27
(dp1441
g29
Vthe
p1442
sg31
VO
p1443
sg33
VDT
p1444
sg35
I17
ssg10
I140
sg36
g4
sg37
(dp1445
sg39
(dp1446
sg41
I762
sg42
g21
sg43
g21
sg44
I140
sg45
Vthe
p1447
sg47
I140
sg48
I765
sbag0
(g23
g2
Ntp1448
Rp1449
(dp1450
g27
(dp1451
g29
Vexplosive
p1452
sg31
VO
p1453
sg33
VJJ
p1454
sg35
I18
ssg10
I141
sg36
g4
sg37
(dp1455
sg39
(dp1456
sg41
I766
sg42
g21
sg43
g21
sg44
I141
sg45
Vexplosive
p1457
sg47
I141
sg48
I775
sbag0
(g23
g2
Ntp1458
Rp1459
(dp1460
g27
(dp1461
g29
Vdevice
p1462
sg31
VO
p1463
sg33
VNN
p1464
sg35
I19
ssg10
I142
sg36
g4
sg37
(dp1465
sg39
(dp1466
sg41
I776
sg42
g21
sg43
g21
sg44
I142
sg45
Vdevice
p1467
sg47
I142
sg48
I782
sbag0
(g23
g2
Ntp1468
Rp1469
(dp1470
g27
(dp1471
g29
Vwith
p1472
sg31
VO
p1473
sg33
VIN
p1474
sg35
I20
ssg10
I143
sg36
g4
sg37
(dp1475
sg39
(dp1476
sg41
I783
sg42
g21
sg43
g21
sg44
I143
sg45
Vwith
p1477
sg47
I143
sg48
I787
sbag0
(g23
g2
Ntp1478
Rp1479
(dp1480
g27
(dp1481
g29
Va
p1482
sg31
VO
p1483
sg33
VDT
p1484
sg35
I21
ssg10
I144
sg36
g4
sg37
(dp1485
sg39
(dp1486
sg41
I788
sg42
g21
sg43
g21
sg44
I144
sg45
Va
p1487
sg47
I144
sg48
I789
sbag0
(g23
g2
Ntp1488
Rp1489
(dp1490
g27
(dp1491
g29
Vmaterial
p1492
sg31
VO
p1493
sg33
VNN
p1494
sg35
I22
ssg10
I145
sg36
g4
sg37
(dp1495
sg39
(dp1496
sg41
I790
sg42
g21
sg43
g21
sg44
I145
sg45
Vmaterial
p1497
sg47
I145
sg48
I798
sbag0
(g23
g2
Ntp1498
Rp1499
(dp1500
g27
(dp1501
g29
Vcontain
p1502
sg31
VO
p1503
sg33
VVBG
p1504
sg35
I23
ssg10
I146
sg36
g4
sg37
(dp1505
sg39
(dp1506
sg41
I799
sg42
g21
sg43
g21
sg44
I146
sg45
Vcontaining
p1507
sg47
I146
sg48
I809
sbag0
(g23
g2
Ntp1508
Rp1509
(dp1510
g27
(dp1511
g29
Va
p1512
sg31
VO
p1513
sg33
VDT
p1514
sg35
I24
ssg10
I147
sg36
g4
sg37
(dp1515
sg39
(dp1516
sg41
I810
sg42
g21
sg43
g21
sg44
I147
sg45
Van
p1517
sg47
I147
sg48
I812
sbag0
(g23
g2
Ntp1518
Rp1519
(dp1520
g27
(dp1521
g29
Velement
p1522
sg31
VO
p1523
sg33
VNN
p1524
sg35
I25
ssg10
I148
sg36
g4
sg37
(dp1525
sg39
(dp1526
sg41
I813
sg42
g21
sg43
g21
sg44
I148
sg45
Velement
p1527
sg47
I148
sg48
I820
sbag0
(g23
g2
Ntp1528
Rp1529
(dp1530
g27
(dp1531
g29
Vthat
p1532
sg31
VO
p1533
sg33
VWDT
p1534
sg35
I26
ssg10
I149
sg36
g4
sg37
(dp1535
sg39
(dp1536
sg41
I821
sg42
g21
sg43
g21
sg44
I149
sg45
Vthat
p1537
sg47
I149
sg48
I825
sbag0
(g23
g2
Ntp1538
Rp1539
(dp1540
g27
(dp1541
g29
Vcan
p1542
sg31
VO
p1543
sg33
VMD
p1544
sg35
I27
ssg10
I150
sg36
g4
sg37
(dp1545
sg39
(dp1546
sg41
I826
sg42
g21
sg43
g21
sg44
I150
sg45
Vcan
p1547
sg47
I150
sg48
I829
sbag0
(g23
g2
Ntp1548
Rp1549
(dp1550
g27
(dp1551
g29
Vbe
p1552
sg31
VO
p1553
sg33
VVB
p1554
sg35
I28
ssg10
I151
sg36
g4
sg37
(dp1555
sg39
(dp1556
sg41
I830
sg42
g21
sg43
g21
sg44
I151
sg45
Vbe
p1557
sg47
I151
sg48
I832
sbag0
(g23
g2
Ntp1558
Rp1559
(dp1560
g27
(dp1561
g29
Vconvert
p1562
sg31
VO
p1563
sg33
VVBN
p1564
sg35
I29
ssg10
I152
sg36
g4
sg37
(dp1565
sg39
(dp1566
sg41
I833
sg42
g21
sg43
g21
sg44
I152
sg45
Vconverted
p1567
sg47
I152
sg48
I842
sbag0
(g23
g2
Ntp1568
Rp1569
(dp1570
g27
(dp1571
g29
Vto
p1572
sg31
VO
p1573
sg33
VTO
p1574
sg35
I30
ssg10
I153
sg36
g4
sg37
(dp1575
sg39
(dp1576
sg41
I843
sg42
g21
sg43
g21
sg44
I153
sg45
Vto
p1577
sg47
I153
sg48
I845
sbag0
(g23
g2
Ntp1578
Rp1579
(dp1580
g27
(dp1581
g29
Va
p1582
sg31
VO
p1583
sg33
VDT
p1584
sg35
I31
ssg10
I154
sg36
g4
sg37
(dp1585
sg39
(dp1586
sg41
I846
sg42
g21
sg43
g21
sg44
I154
sg45
Va
p1587
sg47
I154
sg48
I847
sbag0
(g23
g2
Ntp1588
Rp1589
(dp1590
g27
(dp1591
g29
Vhighly
p1592
sg31
VO
p1593
sg33
VRB
p1594
sg35
I32
ssg10
I155
sg36
g4
sg37
(dp1595
sg39
(dp1596
sg41
I848
sg42
g21
sg43
g21
sg44
I155
sg45
Vhighly
p1597
sg47
I155
sg48
I854
sbag0
(g23
g2
Ntp1598
Rp1599
(dp1600
g27
(dp1601
g29
Vradioactive
p1602
sg31
VO
p1603
sg33
VJJ
p1604
sg35
I33
ssg10
I156
sg36
g4
sg37
(dp1605
sg39
(dp1606
sg41
I855
sg42
g21
sg43
g21
sg44
I156
sg45
Vradioactive
p1607
sg47
I156
sg48
I866
sbag0
(g23
g2
Ntp1608
Rp1609
(dp1610
g27
(dp1611
g29
Visotope
p1612
sg31
VO
p1613
sg33
VNN
p1614
sg35
I34
ssg10
I157
sg36
g4
sg37
(dp1615
sg39
(dp1616
sg41
I867
sg42
g21
sg43
g21
sg44
I157
sg45
Visotope
p1617
sg47
I157
sg48
I874
sbag0
(g23
g2
Ntp1618
Rp1619
(dp1620
g27
(dp1621
g29
Vby
p1622
sg31
VO
p1623
sg33
VIN
p1624
sg35
I35
ssg10
I158
sg36
g4
sg37
(dp1625
sg39
(dp1626
sg41
I875
sg42
g21
sg43
g21
sg44
I158
sg45
Vby
p1627
sg47
I158
sg48
I877
sbag0
(g23
g2
Ntp1628
Rp1629
(dp1630
g27
(dp1631
g29
Vneutron
p1632
sg31
VO
p1633
sg33
VNN
p1634
sg35
I36
ssg10
I159
sg36
g4
sg37
(dp1635
sg39
(dp1636
sg41
I878
sg42
g21
sg43
g21
sg44
I159
sg45
Vneutron
p1637
sg47
I159
sg48
I885
sbag0
(g23
g2
Ntp1638
Rp1639
(dp1640
g27
(dp1641
g29
Vbombardment
p1642
sg31
VO
p1643
sg33
VNN
p1644
sg35
I37
ssg10
I160
sg36
g4
sg37
(dp1645
sg39
(dp1646
sg41
I886
sg42
g21
sg43
g21
sg44
I160
sg45
Vbombardment
p1647
sg47
I160
sg48
I897
sbag0
(g23
g2
Ntp1648
Rp1649
(dp1650
g27
(dp1651
g29
V-lsb-
p1652
sg31
VO
p1653
sg33
V-LRB-
p1654
sg35
I38
ssg10
I161
sg36
g4
sg37
(dp1655
sg39
(dp1656
sg41
I898
sg42
g21
sg43
g21
sg44
I161
sg45
V[
p1657
sg47
I161
sg48
I899
sbag0
(g23
g2
Ntp1658
Rp1659
(dp1660
g27
(dp1661
g29
Vref
p1662
sg31
VO
p1663
sg33
VNN
p1664
sg35
I39
ssg10
I162
sg36
g4
sg37
(dp1665
sg39
(dp1666
sg41
I899
sg42
g21
sg43
g21
sg44
I162
sg45
VREF
p1667
sg47
I162
sg48
I902
sbag0
(g23
g2
Ntp1668
Rp1669
(dp1670
g27
(dp1671
g29
V-rsb-
p1672
sg31
VO
p1673
sg33
V-RRB-
p1674
sg35
I40
ssg10
I163
sg36
g4
sg37
(dp1675
sg39
(dp1676
sg41
I902
sg42
g21
sg43
g21
sg44
I163
sg45
V]
p1677
sg47
I163
sg48
I903
sbag0
(g23
g2
Ntp1678
Rp1679
(dp1680
g27
(dp1681
g29
V.
p1682
sg31
VO
p1683
sg33
V.
p1684
sg35
I41
ssg10
I164
sg36
g4
sg37
(dp1685
sg39
(dp1686
sg41
I903
sg42
g21
sg43
g21
sg44
I164
sg45
V.
p1687
sg47
I164
sg48
I904
sbag0
(g23
g2
Ntp1688
Rp1689
(dp1690
g27
(dp1691
g29
Vwhen
p1692
sg31
VO
p1693
sg33
VWRB
p1694
sg35
I1
ssg10
I165
sg36
g4
sg37
(dp1695
sg39
(dp1696
sg41
I905
sg42
g21
sg43
g21
sg44
I165
sg45
VWhen
p1697
sg47
I165
sg48
I909
sbag0
(g23
g2
Ntp1698
Rp1699
(dp1700
g27
(dp1701
g29
Vthe
p1702
sg31
VO
p1703
sg33
VDT
p1704
sg35
I2
ssg10
I166
sg36
g4
sg37
(dp1705
sg39
(dp1706
sg41
I910
sg42
g21
sg43
g21
sg44
I166
sg45
Vthe
p1707
sg47
I166
sg48
I913
sbag0
(g23
g2
Ntp1708
Rp1709
(dp1710
g27
(dp1711
g29
Vbomb
p1712
sg31
VO
p1713
sg33
VNN
p1714
sg35
I3
ssg10
I167
sg36
g4
sg37
(dp1715
sg39
(dp1716
sg41
I914
sg42
g21
sg43
g21
sg44
I167
sg45
Vbomb
p1717
sg47
I167
sg48
I918
sbag0
(g23
g2
Ntp1718
Rp1719
(dp1720
g27
(dp1721
g29
Vexplode
p1722
sg31
VO
p1723
sg33
VVBZ
p1724
sg35
I4
ssg10
I168
sg36
g4
sg37
(dp1725
sg39
(dp1726
sg41
I919
sg42
g21
sg43
g21
sg44
I168
sg45
Vexplodes
p1727
sg47
I168
sg48
I927
sbag0
(g23
g2
Ntp1728
Rp1729
(dp1730
g27
(dp1731
g29
V,
p1732
sg31
VO
p1733
sg33
V,
p1734
sg35
I5
ssg10
I169
sg36
g4
sg37
(dp1735
sg39
(dp1736
sg41
I927
sg42
g21
sg43
g21
sg44
I169
sg45
V,
p1737
sg47
I169
sg48
I928
sbag0
(g23
g2
Ntp1738
Rp1739
(dp1740
g27
(dp1741
g29
Vthe
p1742
sg31
VO
p1743
sg33
VDT
p1744
sg35
I6
ssg10
I170
sg36
g4
sg37
(dp1745
sg39
(dp1746
sg41
I929
sg42
g21
sg43
g21
sg44
I170
sg45
Vthe
p1747
sg47
I170
sg48
I932
sbag0
(g23
g2
Ntp1748
Rp1749
(dp1750
g27
(dp1751
g29
Velement
p1752
sg31
VO
p1753
sg33
VNN
p1754
sg35
I7
ssg10
I171
sg36
g4
sg37
(dp1755
sg39
(dp1756
sg41
I933
sg42
g21
sg43
g21
sg44
I171
sg45
Velement
p1757
sg47
I171
sg48
I940
sbag0
(g23
g2
Ntp1758
Rp1759
(dp1760
g27
(dp1761
g29
Vabsorb
p1762
sg31
VO
p1763
sg33
VVBZ
p1764
sg35
I8
ssg10
I172
sg36
g4
sg37
(dp1765
sg39
(dp1766
sg41
I941
sg42
g21
sg43
g21
sg44
I172
sg45
Vabsorbs
p1767
sg47
I172
sg48
I948
sbag0
(g23
g2
Ntp1768
Rp1769
(dp1770
g27
(dp1771
g29
Vneutron
p1772
sg31
VO
p1773
sg33
VNNS
p1774
sg35
I9
ssg10
I173
sg36
g4
sg37
(dp1775
sg39
(dp1776
sg41
I949
sg42
g21
sg43
g21
sg44
I173
sg45
Vneutrons
p1777
sg47
I173
sg48
I957
sbag0
(g23
g2
Ntp1778
Rp1779
(dp1780
g27
(dp1781
g29
Vrelease
p1782
sg31
VO
p1783
sg33
VVBN
p1784
sg35
I10
ssg10
I174
sg36
g4
sg37
(dp1785
sg39
(dp1786
sg41
I958
sg42
g21
sg43
g21
sg44
I174
sg45
Vreleased
p1787
sg47
I174
sg48
I966
sbag0
(g23
g2
Ntp1788
Rp1789
(dp1790
g27
(dp1791
g29
Vby
p1792
sg31
VO
p1793
sg33
VIN
p1794
sg35
I11
ssg10
I175
sg36
g4
sg37
(dp1795
sg39
(dp1796
sg41
I967
sg42
g21
sg43
g21
sg44
I175
sg45
Vby
p1797
sg47
I175
sg48
I969
sbag0
(g23
g2
Ntp1798
Rp1799
(dp1800
g27
(dp1801
g29
Vthe
p1802
sg31
VO
p1803
sg33
VDT
p1804
sg35
I12
ssg10
I176
sg36
g4
sg37
(dp1805
sg39
(dp1806
sg41
I970
sg42
g21
sg43
g21
sg44
I176
sg45
Vthe
p1807
sg47
I176
sg48
I973
sbag0
(g23
g2
Ntp1808
Rp1809
(dp1810
g27
(dp1811
g29
Vnuclear
p1812
sg31
VO
p1813
sg33
VJJ
p1814
sg35
I13
ssg10
I177
sg36
g4
sg37
(dp1815
sg39
(dp1816
sg41
I974
sg42
g21
sg43
g21
sg44
I177
sg45
Vnuclear
p1817
sg47
I177
sg48
I981
sbag0
(g23
g2
Ntp1818
Rp1819
(dp1820
g27
(dp1821
g29
Vreaction
p1822
sg31
VO
p1823
sg33
VNN
p1824
sg35
I14
ssg10
I178
sg36
g4
sg37
(dp1825
sg39
(dp1826
sg41
I982
sg42
g21
sg43
g21
sg44
I178
sg45
Vreaction
p1827
sg47
I178
sg48
I990
sbag0
(g23
g2
Ntp1828
Rp1829
(dp1830
g27
(dp1831
g29
V,
p1832
sg31
VO
p1833
sg33
V,
p1834
sg35
I15
ssg10
I179
sg36
g4
sg37
(dp1835
sg39
(dp1836
sg41
I990
sg42
g21
sg43
g21
sg44
I179
sg45
V,
p1837
sg47
I179
sg48
I991
sbag0
(g23
g2
Ntp1838
Rp1839
(dp1840
g27
(dp1841
g29
Vconvert
p1842
sg31
VO
p1843
sg33
VVBG
p1844
sg35
I16
ssg10
I180
sg36
g4
sg37
(dp1845
sg39
(dp1846
sg41
I992
sg42
g21
sg43
g21
sg44
I180
sg45
Vconverting
p1847
sg47
I180
sg48
I1002
sbag0
(g23
g2
Ntp1848
Rp1849
(dp1850
g27
(dp1851
g29
Vit
p1852
sg31
VO
p1853
sg33
VPRP
p1854
sg35
I17
ssg10
I181
sg36
g4
sg37
(dp1855
sg39
(dp1856
sg41
I1003
sg42
g21
sg43
g21
sg44
I181
sg45
Vit
p1857
sg47
I181
sg48
I1005
sbag0
(g23
g2
Ntp1858
Rp1859
(dp1860
g27
(dp1861
g29
Vto
p1862
sg31
VO
p1863
sg33
VTO
p1864
sg35
I18
ssg10
I182
sg36
g4
sg37
(dp1865
sg39
(dp1866
sg41
I1006
sg42
g21
sg43
g21
sg44
I182
sg45
Vto
p1867
sg47
I182
sg48
I1008
sbag0
(g23
g2
Ntp1868
Rp1869
(dp1870
g27
(dp1871
g29
Vits
p1872
sg31
VO
p1873
sg33
VPRP$
p1874
sg35
I19
ssg10
I183
sg36
g4
sg37
(dp1875
sg39
(dp1876
sg41
I1009
sg42
g21
sg43
g21
sg44
I183
sg45
Vits
p1877
sg47
I183
sg48
I1012
sbag0
(g23
g2
Ntp1878
Rp1879
(dp1880
g27
(dp1881
g29
Vradioactive
p1882
sg31
VO
p1883
sg33
VJJ
p1884
sg35
I20
ssg10
I184
sg36
g4
sg37
(dp1885
sg39
(dp1886
sg41
I1013
sg42
g21
sg43
g21
sg44
I184
sg45
Vradioactive
p1887
sg47
I184
sg48
I1024
sbag0
(g23
g2
Ntp1888
Rp1889
(dp1890
g27
(dp1891
g29
Vform
p1892
sg31
VO
p1893
sg33
VNN
p1894
sg35
I21
ssg10
I185
sg36
g4
sg37
(dp1895
sg39
(dp1896
sg41
I1025
sg42
g21
sg43
g21
sg44
I185
sg45
Vform
p1897
sg47
I185
sg48
I1029
sbag0
(g23
g2
Ntp1898
Rp1899
(dp1900
g27
(dp1901
g29
V.
p1902
sg31
VO
p1903
sg33
V.
p1904
sg35
I22
ssg10
I186
sg36
g4
sg37
(dp1905
sg39
(dp1906
sg41
I1029
sg42
g21
sg43
g21
sg44
I186
sg45
V.
p1907
sg47
I186
sg48
I1030
sbag0
(g23
g2
Ntp1908
Rp1909
(dp1910
g27
(dp1911
g29
Vthe
p1912
sg31
VO
p1913
sg33
VDT
p1914
sg35
I1
ssg10
I187
sg36
g4
sg37
(dp1915
sg39
(dp1916
sg41
I1031
sg42
g21
sg43
g21
sg44
I187
sg45
VThe
p1917
sg47
I187
sg48
I1034
sbag0
(g23
g2
Ntp1918
Rp1919
(dp1920
g27
(dp1921
g29
Vexplosion
p1922
sg31
VO
p1923
sg33
VNN
p1924
sg35
I2
ssg10
I188
sg36
g4
sg37
(dp1925
sg39
(dp1926
sg41
I1035
sg42
g21
sg43
g21
sg44
I188
sg45
Vexplosion
p1927
sg47
I188
sg48
I1044
sbag0
(g23
g2
Ntp1928
Rp1929
(dp1930
g27
(dp1931
g29
Vscatter
p1932
sg31
VO
p1933
sg33
VVBZ
p1934
sg35
I3
ssg10
I189
sg36
g4
sg37
(dp1935
sg39
(dp1936
sg41
I1045
sg42
g21
sg43
g21
sg44
I189
sg45
Vscatters
p1937
sg47
I189
sg48
I1053
sbag0
(g23
g2
Ntp1938
Rp1939
(dp1940
g27
(dp1941
g29
Vthe
p1942
sg31
VO
p1943
sg33
VDT
p1944
sg35
I4
ssg10
I190
sg36
g4
sg37
(dp1945
sg39
(dp1946
sg41
I1054
sg42
g21
sg43
g21
sg44
I190
sg45
Vthe
p1947
sg47
I190
sg48
I1057
sbag0
(g23
g2
Ntp1948
Rp1949
(dp1950
g27
(dp1951
g29
Vresult
p1952
sg31
VO
p1953
sg33
VVBG
p1954
sg35
I5
ssg10
I191
sg36
g4
sg37
(dp1955
sg39
(dp1956
sg41
I1058
sg42
g21
sg43
g21
sg44
I191
sg45
Vresulting
p1957
sg47
I191
sg48
I1067
sbag0
(g23
g2
Ntp1958
Rp1959
(dp1960
g27
(dp1961
g29
Vradioactive
p1962
sg31
VO
p1963
sg33
VJJ
p1964
sg35
I6
ssg10
I192
sg36
g4
sg37
(dp1965
sg39
(dp1966
sg41
I1068
sg42
g21
sg43
g21
sg44
I192
sg45
Vradioactive
p1967
sg47
I192
sg48
I1079
sbag0
(g23
g2
Ntp1968
Rp1969
(dp1970
g27
(dp1971
g29
Vmaterial
p1972
sg31
VO
p1973
sg33
VNN
p1974
sg35
I7
ssg10
I193
sg36
g4
sg37
(dp1975
sg39
(dp1976
sg41
I1080
sg42
g21
sg43
g21
sg44
I193
sg45
Vmaterial
p1977
sg47
I193
sg48
I1088
sbag0
(g23
g2
Ntp1978
Rp1979
(dp1980
g27
(dp1981
g29
Vover
p1982
sg31
VO
p1983
sg33
VIN
p1984
sg35
I8
ssg10
I194
sg36
g4
sg37
(dp1985
sg39
(dp1986
sg41
I1089
sg42
g21
sg43
g21
sg44
I194
sg45
Vover
p1987
sg47
I194
sg48
I1093
sbag0
(g23
g2
Ntp1988
Rp1989
(dp1990
g27
(dp1991
g29
Va
p1992
sg31
VO
p1993
sg33
VDT
p1994
sg35
I9
ssg10
I195
sg36
g4
sg37
(dp1995
sg39
(dp1996
sg41
I1094
sg42
g21
sg43
g21
sg44
I195
sg45
Va
p1997
sg47
I195
sg48
I1095
sbag0
(g23
g2
Ntp1998
Rp1999
(dp2000
g27
(dp2001
g29
Vwide
p2002
sg31
VO
p2003
sg33
VJJ
p2004
sg35
I10
ssg10
I196
sg36
g4
sg37
(dp2005
sg39
(dp2006
sg41
I1096
sg42
g21
sg43
g21
sg44
I196
sg45
Vwide
p2007
sg47
I196
sg48
I1100
sbag0
(g23
g2
Ntp2008
Rp2009
(dp2010
g27
(dp2011
g29
Varea
p2012
sg31
VO
p2013
sg33
VNN
p2014
sg35
I11
ssg10
I197
sg36
g4
sg37
(dp2015
sg39
(dp2016
sg41
I1101
sg42
g21
sg43
g21
sg44
I197
sg45
Varea
p2017
sg47
I197
sg48
I1105
sbag0
(g23
g2
Ntp2018
Rp2019
(dp2020
g27
(dp2021
g29
V,
p2022
sg31
VO
p2023
sg33
V,
p2024
sg35
I12
ssg10
I198
sg36
g4
sg37
(dp2025
sg39
(dp2026
sg41
I1105
sg42
g21
sg43
g21
sg44
I198
sg45
V,
p2027
sg47
I198
sg48
I1106
sbag0
(g23
g2
Ntp2028
Rp2029
(dp2030
g27
(dp2031
g29
Vleave
p2032
sg31
VO
p2033
sg33
VVBG
p2034
sg35
I13
ssg10
I199
sg36
g4
sg37
(dp2035
sg39
(dp2036
sg41
I1107
sg42
g21
sg43
g21
sg44
I199
sg45
Vleaving
p2037
sg47
I199
sg48
I1114
sbag0
(g23
g2
Ntp2038
Rp2039
(dp2040
g27
(dp2041
g29
Vit
p2042
sg31
VO
p2043
sg33
VPRP
p2044
sg35
I14
ssg10
I200
sg36
g4
sg37
(dp2045
sg39
(dp2046
sg41
I1115
sg42
g21
sg43
g21
sg44
I200
sg45
Vit
p2047
sg47
I200
sg48
I1117
sbag0
(g23
g2
Ntp2048
Rp2049
(dp2050
g27
(dp2051
g29
Vuninhabitable
p2052
sg31
VO
p2053
sg33
VJJ
p2054
sg35
I15
ssg10
I201
sg36
g4
sg37
(dp2055
sg39
(dp2056
sg41
I1118
sg42
g21
sg43
g21
sg44
I201
sg45
Vuninhabitable
p2057
sg47
I201
sg48
I1131
sbag0
(g23
g2
Ntp2058
Rp2059
(dp2060
g27
(dp2061
g29
Vfar
p2062
sg31
VO
p2063
sg33
VRB
p2064
sg35
I16
ssg10
I202
sg36
g4
sg37
(dp2065
sg39
(dp2066
sg41
I1132
sg42
g21
sg43
g21
sg44
I202
sg45
Vfar
p2067
sg47
I202
sg48
I1135
sbag0
(g23
g2
Ntp2068
Rp2069
(dp2070
g27
(dp2071
g29
Vlonger
p2072
sg31
VO
p2073
sg33
VJJR
p2074
sg35
I17
ssg10
I203
sg36
g4
sg37
(dp2075
sg39
(dp2076
sg41
I1136
sg42
g21
sg43
g21
sg44
I203
sg45
Vlonger
p2077
sg47
I203
sg48
I1142
sbag0
(g23
g2
Ntp2078
Rp2079
(dp2080
g27
(dp2081
g29
Vthan
p2082
sg31
VO
p2083
sg33
VIN
p2084
sg35
I18
ssg10
I204
sg36
g4
sg37
(dp2085
sg39
(dp2086
sg41
I1143
sg42
g21
sg43
g21
sg44
I204
sg45
Vthan
p2087
sg47
I204
sg48
I1147
sbag0
(g23
g2
Ntp2088
Rp2089
(dp2090
g27
(dp2091
g29
Va
p2092
sg31
VO
p2093
sg33
VDT
p2094
sg35
I19
ssg10
I205
sg36
g4
sg37
(dp2095
sg39
(dp2096
sg41
I1145
sg42
g21
sg43
g21
sg44
I205
sg45
Van
p2097
sg47
I205
sg48
I1147
sbag0
(g23
g2
Ntp2098
Rp2099
(dp2100
g27
(dp2101
g29
Varea
p2102
sg31
VO
p2103
sg33
VNN
p2104
sg35
I20
ssg10
I206
sg36
g4
sg37
(dp2105
sg39
(dp2106
sg41
I1151
sg42
g21
sg43
g21
sg44
I206
sg45
Varea
p2107
sg47
I206
sg48
I1155
sbag0
(g23
g2
Ntp2108
Rp2109
(dp2110
g27
(dp2111
g29
Vaffect
p2112
sg31
VO
p2113
sg33
VVBN
p2114
sg35
I21
ssg10
I207
sg36
g4
sg37
(dp2115
sg39
(dp2116
sg41
I1156
sg42
g21
sg43
g21
sg44
I207
sg45
Vaffected
p2117
sg47
I207
sg48
I1164
sbag0
(g23
g2
Ntp2118
Rp2119
(dp2120
g27
(dp2121
g29
Vby
p2122
sg31
VO
p2123
sg33
VIN
p2124
sg35
I22
ssg10
I208
sg36
g4
sg37
(dp2125
sg39
(dp2126
sg41
I1165
sg42
g21
sg43
g21
sg44
I208
sg45
Vby
p2127
sg47
I208
sg48
I1167
sbag0
(g23
g2
Ntp2128
Rp2129
(dp2130
g27
(dp2131
g29
Vtypical
p2132
sg31
VO
p2133
sg33
VJJ
p2134
sg35
I23
ssg10
I209
sg36
g4
sg37
(dp2135
sg39
(dp2136
sg41
I1168
sg42
g21
sg43
g21
sg44
I209
sg45
Vtypical
p2137
sg47
I209
sg48
I1175
sbag0
(g23
g2
Ntp2138
Rp2139
(dp2140
g27
(dp2141
g29
Vnuclear
p2142
sg31
VO
p2143
sg33
VJJ
p2144
sg35
I24
ssg10
I210
sg36
g4
sg37
(dp2145
sg39
(dp2146
sg41
I1176
sg42
g21
sg43
g21
sg44
I210
sg45
Vnuclear
p2147
sg47
I210
sg48
I1183
sbag0
(g23
g2
Ntp2148
Rp2149
(dp2150
g27
(dp2151
g29
Vweapon
p2152
sg31
VO
p2153
sg33
VNNS
p2154
sg35
I25
ssg10
I211
sg36
g4
sg37
(dp2155
sg39
(dp2156
sg41
I1184
sg42
g21
sg43
g21
sg44
I211
sg45
Vweapons
p2157
sg47
I211
sg48
I1191
sbag0
(g23
g2
Ntp2158
Rp2159
(dp2160
g27
(dp2161
g29
V.
p2162
sg31
VO
p2163
sg33
V.
p2164
sg35
I26
ssg10
I212
sg36
g4
sg37
(dp2165
sg39
(dp2166
sg41
I1191
sg42
g21
sg43
g21
sg44
I212
sg45
V.
p2167
sg47
I212
sg48
I1192
sbag0
(g23
g2
Ntp2168
Rp2169
(dp2170
g27
(dp2171
g29
Vin
p2172
sg31
VO
p2173
sg33
VIN
p2174
sg35
I1
ssg10
I213
sg36
g4
sg37
(dp2175
sg39
(dp2176
sg41
I1195
sg42
g21
sg43
g21
sg44
I213
sg45
VIn
p2177
sg47
I213
sg48
I1197
sbag0
(g23
g2
Ntp2178
Rp2179
(dp2180
g27
(dp2181
g29
Va
p2182
sg31
VO
p2183
sg33
VDT
p2184
sg35
I2
ssg10
I214
sg36
g4
sg37
(dp2185
sg39
(dp2186
sg41
I1198
sg42
g21
sg43
g21
sg44
I214
sg45
Va
p2187
sg47
I214
sg48
I1199
sbag0
(g23
g2
Ntp2188
Rp2189
(dp2190
g27
(dp2191
g29
Vsalted
p2192
sg31
VO
p2193
sg33
VJJ
p2194
sg35
I3
ssg10
I215
sg36
g4
sg37
(dp2195
sg39
(dp2196
sg41
I1200
sg42
g21
sg43
g21
sg44
I215
sg45
Vsalted
p2197
sg47
I215
sg48
I1206
sbag0
(g23
g2
Ntp2198
Rp2199
(dp2200
g27
(dp2201
g29
Vhydrogen
p2202
sg31
VO
p2203
sg33
VNN
p2204
sg35
I4
ssg10
I216
sg36
g4
sg37
(dp2205
sg39
(dp2206
sg41
I1207
sg42
g21
sg43
g21
sg44
I216
sg45
Vhydrogen
p2207
sg47
I216
sg48
I1215
sbag0
(g23
g2
Ntp2208
Rp2209
(dp2210
g27
(dp2211
g29
Vbomb
p2212
sg31
VO
p2213
sg33
VNN
p2214
sg35
I5
ssg10
I217
sg36
g4
sg37
(dp2215
sg39
(dp2216
sg41
I1216
sg42
g21
sg43
g21
sg44
I217
sg45
Vbomb
p2217
sg47
I217
sg48
I1220
sbag0
(g23
g2
Ntp2218
Rp2219
(dp2220
g27
(dp2221
g29
V,
p2222
sg31
VO
p2223
sg33
V,
p2224
sg35
I6
ssg10
I218
sg36
g4
sg37
(dp2225
sg39
(dp2226
sg41
I1220
sg42
g21
sg43
g21
sg44
I218
sg45
V,
p2227
sg47
I218
sg48
I1221
sbag0
(g23
g2
Ntp2228
Rp2229
(dp2230
g27
(dp2231
g29
Vthe
p2232
sg31
VO
p2233
sg33
VDT
p2234
sg35
I7
ssg10
I219
sg36
g4
sg37
(dp2235
sg39
(dp2236
sg41
I1222
sg42
g21
sg43
g21
sg44
I219
sg45
Vthe
p2237
sg47
I219
sg48
I1225
sbag0
(g23
g2
Ntp2238
Rp2239
(dp2240
g27
(dp2241
g29
Vradiation
p2242
sg31
VO
p2243
sg33
VNN
p2244
sg35
I8
ssg10
I220
sg36
g4
sg37
(dp2245
sg39
(dp2246
sg41
I1226
sg42
g21
sg43
g21
sg44
I220
sg45
Vradiation
p2247
sg47
I220
sg48
I1235
sbag0
(g23
g2
Ntp2248
Rp2249
(dp2250
g27
(dp2251
g29
Vcase
p2252
sg31
VO
p2253
sg33
VNN
p2254
sg35
I9
ssg10
I221
sg36
g4
sg37
(dp2255
sg39
(dp2256
sg41
I1236
sg42
g21
sg43
g21
sg44
I221
sg45
Vcase
p2257
sg47
I221
sg48
I1240
sbag0
(g23
g2
Ntp2258
Rp2259
(dp2260
g27
(dp2261
g29
Varound
p2262
sg31
VO
p2263
sg33
VIN
p2264
sg35
I10
ssg10
I222
sg36
g4
sg37
(dp2265
sg39
(dp2266
sg41
I1241
sg42
g21
sg43
g21
sg44
I222
sg45
Varound
p2267
sg47
I222
sg48
I1247
sbag0
(g23
g2
Ntp2268
Rp2269
(dp2270
g27
(dp2271
g29
Vthe
p2272
sg31
VO
p2273
sg33
VDT
p2274
sg35
I11
ssg10
I223
sg36
g4
sg37
(dp2275
sg39
(dp2276
sg41
I1248
sg42
g21
sg43
g21
sg44
I223
sg45
Vthe
p2277
sg47
I223
sg48
I1251
sbag0
(g23
g2
Ntp2278
Rp2279
(dp2280
g27
(dp2281
g29
Vfusion
p2282
sg31
VO
p2283
sg33
VNN
p2284
sg35
I12
ssg10
I224
sg36
g4
sg37
(dp2285
sg39
(dp2286
sg41
I1252
sg42
g21
sg43
g21
sg44
I224
sg45
Vfusion
p2287
sg47
I224
sg48
I1258
sbag0
(g23
g2
Ntp2288
Rp2289
(dp2290
g27
(dp2291
g29
Vfuel
p2292
sg31
VO
p2293
sg33
VNN
p2294
sg35
I13
ssg10
I225
sg36
g4
sg37
(dp2295
sg39
(dp2296
sg41
I1259
sg42
g21
sg43
g21
sg44
I225
sg45
Vfuel
p2297
sg47
I225
sg48
I1263
sbag0
(g23
g2
Ntp2298
Rp2299
(dp2300
g27
(dp2301
g29
V,
p2302
sg31
VO
p2303
sg33
V,
p2304
sg35
I14
ssg10
I226
sg36
g4
sg37
(dp2305
sg39
(dp2306
sg41
I1263
sg42
g21
sg43
g21
sg44
I226
sg45
V,
p2307
sg47
I226
sg48
I1264
sbag0
(g23
g2
Ntp2308
Rp2309
(dp2310
g27
(dp2311
g29
Vwhich
p2312
sg31
VO
p2313
sg33
VWDT
p2314
sg35
I15
ssg10
I227
sg36
g4
sg37
(dp2315
sg39
(dp2316
sg41
I1265
sg42
g21
sg43
g21
sg44
I227
sg45
Vwhich
p2317
sg47
I227
sg48
I1270
sbag0
(g23
g2
Ntp2318
Rp2319
(dp2320
g27
(dp2321
g29
Vnormally
p2322
sg31
VO
p2323
sg33
VRB
p2324
sg35
I16
ssg10
I228
sg36
g4
sg37
(dp2325
sg39
(dp2326
sg41
I1271
sg42
g21
sg43
g21
sg44
I228
sg45
Vnormally
p2327
sg47
I228
sg48
I1279
sbag0
(g23
g2
Ntp2328
Rp2329
(dp2330
g27
(dp2331
g29
Vbe
p2332
sg31
VO
p2333
sg33
VVBZ
p2334
sg35
I17
ssg10
I229
sg36
g4
sg37
(dp2335
sg39
(dp2336
sg41
I1280
sg42
g21
sg43
g21
sg44
I229
sg45
Vis
p2337
sg47
I229
sg48
I1282
sbag0
(g23
g2
Ntp2338
Rp2339
(dp2340
g27
(dp2341
g29
Vmake
p2342
sg31
VO
p2343
sg33
VVBN
p2344
sg35
I18
ssg10
I230
sg36
g4
sg37
(dp2345
sg39
(dp2346
sg41
I1283
sg42
g21
sg43
g21
sg44
I230
sg45
Vmade
p2347
sg47
I230
sg48
I1287
sbag0
(g23
g2
Ntp2348
Rp2349
(dp2350
g27
(dp2351
g29
Vof
p2352
sg31
VO
p2353
sg33
VIN
p2354
sg35
I19
ssg10
I231
sg36
g4
sg37
(dp2355
sg39
(dp2356
sg41
I1288
sg42
g21
sg43
g21
sg44
I231
sg45
Vof
p2357
sg47
I231
sg48
I1290
sbag0
(g23
g2
Ntp2358
Rp2359
(dp2360
g27
(dp2361
g29
Vsome
p2362
sg31
VO
p2363
sg33
VDT
p2364
sg35
I20
ssg10
I232
sg36
g4
sg37
(dp2365
sg39
(dp2366
sg41
I1291
sg42
g21
sg43
g21
sg44
I232
sg45
Vsome
p2367
sg47
I232
sg48
I1295
sbag0
(g23
g2
Ntp2368
Rp2369
(dp2370
g27
(dp2371
g29
Vfissionable
p2372
sg31
VO
p2373
sg33
VJJ
p2374
sg35
I21
ssg10
I233
sg36
g4
sg37
(dp2375
sg39
(dp2376
sg41
I1296
sg42
g21
sg43
g21
sg44
I233
sg45
Vfissionable
p2377
sg47
I233
sg48
I1307
sbag0
(g23
g2
Ntp2378
Rp2379
(dp2380
g27
(dp2381
g29
Velement
p2382
sg31
VO
p2383
sg33
VNN
p2384
sg35
I22
ssg10
I234
sg36
g4
sg37
(dp2385
sg39
(dp2386
sg41
I1308
sg42
g21
sg43
g21
sg44
I234
sg45
Velement
p2387
sg47
I234
sg48
I1315
sbag0
(g23
g2
Ntp2388
Rp2389
(dp2390
g27
(dp2391
g29
V,
p2392
sg31
VO
p2393
sg33
V,
p2394
sg35
I23
ssg10
I235
sg36
g4
sg37
(dp2395
sg39
(dp2396
sg41
I1315
sg42
g21
sg43
g21
sg44
I235
sg45
V,
p2397
sg47
I235
sg48
I1316
sbag0
(g23
g2
Ntp2398
Rp2399
(dp2400
g27
(dp2401
g29
Vbe
p2402
sg31
VO
p2403
sg33
VVBZ
p2404
sg35
I24
ssg10
I236
sg36
g4
sg37
(dp2405
sg39
(dp2406
sg41
I1317
sg42
g21
sg43
g21
sg44
I236
sg45
Vis
p2407
sg47
I236
sg48
I1319
sbag0
(g23
g2
Ntp2408
Rp2409
(dp2410
g27
(dp2411
g29
Vreplace
p2412
sg31
VO
p2413
sg33
VVBN
p2414
sg35
I25
ssg10
I237
sg36
g4
sg37
(dp2415
sg39
(dp2416
sg41
I1320
sg42
g21
sg43
g21
sg44
I237
sg45
Vreplaced
p2417
sg47
I237
sg48
I1328
sbag0
(g23
g2
Ntp2418
Rp2419
(dp2420
g27
(dp2421
g29
Vwith
p2422
sg31
VO
p2423
sg33
VIN
p2424
sg35
I26
ssg10
I238
sg36
g4
sg37
(dp2425
sg39
(dp2426
sg41
I1329
sg42
g21
sg43
g21
sg44
I238
sg45
Vwith
p2427
sg47
I238
sg48
I1333
sbag0
(g23
g2
Ntp2428
Rp2429
(dp2430
g27
(dp2431
g29
Va
p2432
sg31
VO
p2433
sg33
VDT
p2434
sg35
I27
ssg10
I239
sg36
g4
sg37
(dp2435
sg39
(dp2436
sg41
I1334
sg42
g21
sg43
g21
sg44
I239
sg45
Va
p2437
sg47
I239
sg48
I1335
sbag0
(g23
g2
Ntp2438
Rp2439
(dp2440
g27
(dp2441
g29
Vmetallic
p2442
sg31
VO
p2443
sg33
VJJ
p2444
sg35
I28
ssg10
I240
sg36
g4
sg37
(dp2445
sg39
(dp2446
sg41
I1336
sg42
g21
sg43
g21
sg44
I240
sg45
Vmetallic
p2447
sg47
I240
sg48
I1344
sbag0
(g23
g2
Ntp2448
Rp2449
(dp2450
g27
(dp2451
g29
Vsalting
p2452
sg31
VO
p2453
sg33
VNN
p2454
sg35
I29
ssg10
I241
sg36
g4
sg37
(dp2455
sg39
(dp2456
sg41
I1345
sg42
g21
sg43
g21
sg44
I241
sg45
Vsalting
p2457
sg47
I241
sg48
I1352
sbag0
(g23
g2
Ntp2458
Rp2459
(dp2460
g27
(dp2461
g29
Velement
p2462
sg31
VO
p2463
sg33
VNN
p2464
sg35
I30
ssg10
I242
sg36
g4
sg37
(dp2465
sg39
(dp2466
sg41
I1353
sg42
g21
sg43
g21
sg44
I242
sg45
Velement
p2467
sg47
I242
sg48
I1360
sbag0
(g23
g2
Ntp2468
Rp2469
(dp2470
g27
(dp2471
g29
V.
p2472
sg31
VO
p2473
sg33
V.
p2474
sg35
I31
ssg10
I243
sg36
g4
sg37
(dp2475
sg39
(dp2476
sg41
I1360
sg42
g21
sg43
g21
sg44
I243
sg45
V.
p2477
sg47
I243
sg48
I1361
sbag0
(g23
g2
Ntp2478
Rp2479
(dp2480
g27
(dp2481
g29
Vsalted
p2482
sg31
VO
p2483
sg33
VJJ
p2484
sg35
I1
ssg10
I244
sg36
g4
sg37
(dp2485
sg39
(dp2486
sg41
I1362
sg42
g21
sg43
g21
sg44
I244
sg45
VSalted
p2487
sg47
I244
sg48
I1368
sbag0
(g23
g2
Ntp2488
Rp2489
(dp2490
g27
(dp2491
g29
Vfission
p2492
sg31
VO
p2493
sg33
VNN
p2494
sg35
I2
ssg10
I245
sg36
g4
sg37
(dp2495
sg39
(dp2496
sg41
I1369
sg42
g21
sg43
g21
sg44
I245
sg45
Vfission
p2497
sg47
I245
sg48
I1376
sbag0
(g23
g2
Ntp2498
Rp2499
(dp2500
g27
(dp2501
g29
Vbomb
p2502
sg31
VO
p2503
sg33
VNNS
p2504
sg35
I3
ssg10
I246
sg36
g4
sg37
(dp2505
sg39
(dp2506
sg41
I1377
sg42
g21
sg43
g21
sg44
I246
sg45
Vbombs
p2507
sg47
I246
sg48
I1382
sbag0
(g23
g2
Ntp2508
Rp2509
(dp2510
g27
(dp2511
g29
Vcan
p2512
sg31
VO
p2513
sg33
VMD
p2514
sg35
I4
ssg10
I247
sg36
g4
sg37
(dp2515
sg39
(dp2516
sg41
I1383
sg42
g21
sg43
g21
sg44
I247
sg45
Vcan
p2517
sg47
I247
sg48
I1386
sbag0
(g23
g2
Ntp2518
Rp2519
(dp2520
g27
(dp2521
g29
Vbe
p2522
sg31
VO
p2523
sg33
VVB
p2524
sg35
I5
ssg10
I248
sg36
g4
sg37
(dp2525
sg39
(dp2526
sg41
I1387
sg42
g21
sg43
g21
sg44
I248
sg45
Vbe
p2527
sg47
I248
sg48
I1389
sbag0
(g23
g2
Ntp2528
Rp2529
(dp2530
g27
(dp2531
g29
Vmake
p2532
sg31
VO
p2533
sg33
VVBN
p2534
sg35
I6
ssg10
I249
sg36
g4
sg37
(dp2535
sg39
(dp2536
sg41
I1390
sg42
g21
sg43
g21
sg44
I249
sg45
Vmade
p2537
sg47
I249
sg48
I1394
sbag0
(g23
g2
Ntp2538
Rp2539
(dp2540
g27
(dp2541
g29
Vby
p2542
sg31
VO
p2543
sg33
VIN
p2544
sg35
I7
ssg10
I250
sg36
g4
sg37
(dp2545
sg39
(dp2546
sg41
I1395
sg42
g21
sg43
g21
sg44
I250
sg45
Vby
p2547
sg47
I250
sg48
I1397
sbag0
(g23
g2
Ntp2548
Rp2549
(dp2550
g27
(dp2551
g29
Vreplace
p2552
sg31
VO
p2553
sg33
VVBG
p2554
sg35
I8
ssg10
I251
sg36
g4
sg37
(dp2555
sg39
(dp2556
sg41
I1398
sg42
g21
sg43
g21
sg44
I251
sg45
Vreplacing
p2557
sg47
I251
sg48
I1407
sbag0
(g23
g2
Ntp2558
Rp2559
(dp2560
g27
(dp2561
g29
Vthe
p2562
sg31
VO
p2563
sg33
VDT
p2564
sg35
I9
ssg10
I252
sg36
g4
sg37
(dp2565
sg39
(dp2566
sg41
I1408
sg42
g21
sg43
g21
sg44
I252
sg45
Vthe
p2567
sg47
I252
sg48
I1411
sbag0
(g23
g2
Ntp2568
Rp2569
(dp2570
g27
(dp2571
g29
Vneutron
p2572
sg31
VO
p2573
sg33
VNN
p2574
sg35
I10
ssg10
I253
sg36
g4
sg37
(dp2575
sg39
(dp2576
sg41
I1412
sg42
g21
sg43
g21
sg44
I253
sg45
Vneutron
p2577
sg47
I253
sg48
I1419
sbag0
(g23
g2
Ntp2578
Rp2579
(dp2580
g27
(dp2581
g29
Vreflector
p2582
sg31
VO
p2583
sg33
VNN
p2584
sg35
I11
ssg10
I254
sg36
g4
sg37
(dp2585
sg39
(dp2586
sg41
I1420
sg42
g21
sg43
g21
sg44
I254
sg45
Vreflector
p2587
sg47
I254
sg48
I1429
sbag0
(g23
g2
Ntp2588
Rp2589
(dp2590
g27
(dp2591
g29
Vbetween
p2592
sg31
VO
p2593
sg33
VIN
p2594
sg35
I12
ssg10
I255
sg36
g4
sg37
(dp2595
sg39
(dp2596
sg41
I1430
sg42
g21
sg43
g21
sg44
I255
sg45
Vbetween
p2597
sg47
I255
sg48
I1437
sbag0
(g23
g2
Ntp2598
Rp2599
(dp2600
g27
(dp2601
g29
Vthe
p2602
sg31
VO
p2603
sg33
VDT
p2604
sg35
I13
ssg10
I256
sg36
g4
sg37
(dp2605
sg39
(dp2606
sg41
I1438
sg42
g21
sg43
g21
sg44
I256
sg45
Vthe
p2607
sg47
I256
sg48
I1441
sbag0
(g23
g2
Ntp2608
Rp2609
(dp2610
g27
(dp2611
g29
Vfissionable
p2612
sg31
VO
p2613
sg33
VJJ
p2614
sg35
I14
ssg10
I257
sg36
g4
sg37
(dp2615
sg39
(dp2616
sg41
I1442
sg42
g21
sg43
g21
sg44
I257
sg45
Vfissionable
p2617
sg47
I257
sg48
I1453
sbag0
(g23
g2
Ntp2618
Rp2619
(dp2620
g27
(dp2621
g29
Vcore
p2622
sg31
VO
p2623
sg33
VNN
p2624
sg35
I15
ssg10
I258
sg36
g4
sg37
(dp2625
sg39
(dp2626
sg41
I1454
sg42
g21
sg43
g21
sg44
I258
sg45
Vcore
p2627
sg47
I258
sg48
I1458
sbag0
(g23
g2
Ntp2628
Rp2629
(dp2630
g27
(dp2631
g29
Vand
p2632
sg31
VO
p2633
sg33
VCC
p2634
sg35
I16
ssg10
I259
sg36
g4
sg37
(dp2635
sg39
(dp2636
sg41
I1459
sg42
g21
sg43
g21
sg44
I259
sg45
Vand
p2637
sg47
I259
sg48
I1462
sbag0
(g23
g2
Ntp2638
Rp2639
(dp2640
g27
(dp2641
g29
Vthe
p2642
sg31
VO
p2643
sg33
VDT
p2644
sg35
I17
ssg10
I260
sg36
g4
sg37
(dp2645
sg39
(dp2646
sg41
I1463
sg42
g21
sg43
g21
sg44
I260
sg45
Vthe
p2647
sg47
I260
sg48
I1466
sbag0
(g23
g2
Ntp2648
Rp2649
(dp2650
g27
(dp2651
g29
Vexplosive
p2652
sg31
VO
p2653
sg33
VJJ
p2654
sg35
I18
ssg10
I261
sg36
g4
sg37
(dp2655
sg39
(dp2656
sg41
I1467
sg42
g21
sg43
g21
sg44
I261
sg45
Vexplosive
p2657
sg47
I261
sg48
I1476
sbag0
(g23
g2
Ntp2658
Rp2659
(dp2660
g27
(dp2661
g29
Vlayer
p2662
sg31
VO
p2663
sg33
VNN
p2664
sg35
I19
ssg10
I262
sg36
g4
sg37
(dp2665
sg39
(dp2666
sg41
I1477
sg42
g21
sg43
g21
sg44
I262
sg45
Vlayer
p2667
sg47
I262
sg48
I1482
sbag0
(g23
g2
Ntp2668
Rp2669
(dp2670
g27
(dp2671
g29
Vwith
p2672
sg31
VO
p2673
sg33
VIN
p2674
sg35
I20
ssg10
I263
sg36
g4
sg37
(dp2675
sg39
(dp2676
sg41
I1483
sg42
g21
sg43
g21
sg44
I263
sg45
Vwith
p2677
sg47
I263
sg48
I1487
sbag0
(g23
g2
Ntp2678
Rp2679
(dp2680
g27
(dp2681
g29
Va
p2682
sg31
VO
p2683
sg33
VDT
p2684
sg35
I21
ssg10
I264
sg36
g4
sg37
(dp2685
sg39
(dp2686
sg41
I1488
sg42
g21
sg43
g21
sg44
I264
sg45
Va
p2687
sg47
I264
sg48
I1489
sbag0
(g23
g2
Ntp2688
Rp2689
(dp2690
g27
(dp2691
g29
Vmetallic
p2692
sg31
VO
p2693
sg33
VJJ
p2694
sg35
I22
ssg10
I265
sg36
g4
sg37
(dp2695
sg39
(dp2696
sg41
I1490
sg42
g21
sg43
g21
sg44
I265
sg45
Vmetallic
p2697
sg47
I265
sg48
I1498
sbag0
(g23
g2
Ntp2698
Rp2699
(dp2700
g27
(dp2701
g29
Velement
p2702
sg31
VO
p2703
sg33
VNN
p2704
sg35
I23
ssg10
I266
sg36
g4
sg37
(dp2705
sg39
(dp2706
sg41
I1499
sg42
g21
sg43
g21
sg44
I266
sg45
Velement
p2707
sg47
I266
sg48
I1506
sbag0
(g23
g2
Ntp2708
Rp2709
(dp2710
g27
(dp2711
g29
V.
p2712
sg31
VO
p2713
sg33
V.
p2714
sg35
I24
ssg10
I267
sg36
g4
sg37
(dp2715
sg39
(dp2716
sg41
I1506
sg42
g21
sg43
g21
sg44
I267
sg45
V.
p2717
sg47
I267
sg48
I1507
sbag0
(g23
g2
Ntp2718
Rp2719
(dp2720
g27
(dp2721
g29
Vthe
p2722
sg31
VO
p2723
sg33
VDT
p2724
sg35
I1
ssg10
I268
sg36
g4
sg37
(dp2725
sg39
(dp2726
sg41
I1508
sg42
g21
sg43
g21
sg44
I268
sg45
VThe
p2727
sg47
I268
sg48
I1511
sbag0
(g23
g2
Ntp2728
Rp2729
(dp2730
g27
(dp2731
g29
Venergy
p2732
sg31
VO
p2733
sg33
VNN
p2734
sg35
I2
ssg10
I269
sg36
g4
sg37
(dp2735
sg39
(dp2736
sg41
I1512
sg42
g21
sg43
g21
sg44
I269
sg45
Venergy
p2737
sg47
I269
sg48
I1518
sbag0
(g23
g2
Ntp2738
Rp2739
(dp2740
g27
(dp2741
g29
Vyield
p2742
sg31
VO
p2743
sg33
VNN
p2744
sg35
I3
ssg10
I270
sg36
g4
sg37
(dp2745
sg39
(dp2746
sg41
I1519
sg42
g21
sg43
g21
sg44
I270
sg45
Vyield
p2747
sg47
I270
sg48
I1524
sbag0
(g23
g2
Ntp2748
Rp2749
(dp2750
g27
(dp2751
g29
Vfrom
p2752
sg31
VO
p2753
sg33
VIN
p2754
sg35
I4
ssg10
I271
sg36
g4
sg37
(dp2755
sg39
(dp2756
sg41
I1525
sg42
g21
sg43
g21
sg44
I271
sg45
Vfrom
p2757
sg47
I271
sg48
I1529
sbag0
(g23
g2
Ntp2758
Rp2759
(dp2760
g27
(dp2761
g29
Va
p2762
sg31
VO
p2763
sg33
VDT
p2764
sg35
I5
ssg10
I272
sg36
g4
sg37
(dp2765
sg39
(dp2766
sg41
I1530
sg42
g21
sg43
g21
sg44
I272
sg45
Va
p2767
sg47
I272
sg48
I1531
sbag0
(g23
g2
Ntp2768
Rp2769
(dp2770
g27
(dp2771
g29
Vsalted
p2772
sg31
VO
p2773
sg33
VJJ
p2774
sg35
I6
ssg10
I273
sg36
g4
sg37
(dp2775
sg39
(dp2776
sg41
I1532
sg42
g21
sg43
g21
sg44
I273
sg45
Vsalted
p2777
sg47
I273
sg48
I1538
sbag0
(g23
g2
Ntp2778
Rp2779
(dp2780
g27
(dp2781
g29
Vweapon
p2782
sg31
VO
p2783
sg33
VNN
p2784
sg35
I7
ssg10
I274
sg36
g4
sg37
(dp2785
sg39
(dp2786
sg41
I1539
sg42
g21
sg43
g21
sg44
I274
sg45
Vweapon
p2787
sg47
I274
sg48
I1545
sbag0
(g23
g2
Ntp2788
Rp2789
(dp2790
g27
(dp2791
g29
Vbe
p2792
sg31
VO
p2793
sg33
VVBZ
p2794
sg35
I8
ssg10
I275
sg36
g4
sg37
(dp2795
sg39
(dp2796
sg41
I1546
sg42
g21
sg43
g21
sg44
I275
sg45
Vis
p2797
sg47
I275
sg48
I1548
sbag0
(g23
g2
Ntp2798
Rp2799
(dp2800
g27
(dp2801
g29
Vusually
p2802
sg31
VO
p2803
sg33
VRB
p2804
sg35
I9
ssg10
I276
sg36
g4
sg37
(dp2805
sg39
(dp2806
sg41
I1549
sg42
g21
sg43
g21
sg44
I276
sg45
Vusually
p2807
sg47
I276
sg48
I1556
sbag0
(g23
g2
Ntp2808
Rp2809
(dp2810
g27
(dp2811
g29
Vlower
p2812
sg31
VO
p2813
sg33
VJJR
p2814
sg35
I10
ssg10
I277
sg36
g4
sg37
(dp2815
sg39
(dp2816
sg41
I1557
sg42
g21
sg43
g21
sg44
I277
sg45
Vlower
p2817
sg47
I277
sg48
I1562
sbag0
(g23
g2
Ntp2818
Rp2819
(dp2820
g27
(dp2821
g29
Vthan
p2822
sg31
VO
p2823
sg33
VIN
p2824
sg35
I11
ssg10
I278
sg36
g4
sg37
(dp2825
sg39
(dp2826
sg41
I1563
sg42
g21
sg43
g21
sg44
I278
sg45
Vthan
p2827
sg47
I278
sg48
I1567
sbag0
(g23
g2
Ntp2828
Rp2829
(dp2830
g27
(dp2831
g29
Vfrom
p2832
sg31
VO
p2833
sg33
VIN
p2834
sg35
I12
ssg10
I279
sg36
g4
sg37
(dp2835
sg39
(dp2836
sg41
I1568
sg42
g21
sg43
g21
sg44
I279
sg45
Vfrom
p2837
sg47
I279
sg48
I1572
sbag0
(g23
g2
Ntp2838
Rp2839
(dp2840
g27
(dp2841
g29
Va
p2842
sg31
VO
p2843
sg33
VDT
p2844
sg35
I13
ssg10
I280
sg36
g4
sg37
(dp2845
sg39
(dp2846
sg41
I1573
sg42
g21
sg43
g21
sg44
I280
sg45
Van
p2847
sg47
I280
sg48
I1575
sbag0
(g23
g2
Ntp2848
Rp2849
(dp2850
g27
(dp2851
g29
Vordinary
p2852
sg31
VO
p2853
sg33
VJJ
p2854
sg35
I14
ssg10
I281
sg36
g4
sg37
(dp2855
sg39
(dp2856
sg41
I1576
sg42
g21
sg43
g21
sg44
I281
sg45
Vordinary
p2857
sg47
I281
sg48
I1584
sbag0
(g23
g2
Ntp2858
Rp2859
(dp2860
g27
(dp2861
g29
Vweapon
p2862
sg31
VO
p2863
sg33
VNN
p2864
sg35
I15
ssg10
I282
sg36
g4
sg37
(dp2865
sg39
(dp2866
sg41
I1585
sg42
g21
sg43
g21
sg44
I282
sg45
Vweapon
p2867
sg47
I282
sg48
I1591
sbag0
(g23
g2
Ntp2868
Rp2869
(dp2870
g27
(dp2871
g29
Vof
p2872
sg31
VO
p2873
sg33
VIN
p2874
sg35
I16
ssg10
I283
sg36
g4
sg37
(dp2875
sg39
(dp2876
sg41
I1592
sg42
g21
sg43
g21
sg44
I283
sg45
Vof
p2877
sg47
I283
sg48
I1594
sbag0
(g23
g2
Ntp2878
Rp2879
(dp2880
g27
(dp2881
g29
Vsimilar
p2882
sg31
VO
p2883
sg33
VJJ
p2884
sg35
I17
ssg10
I284
sg36
g4
sg37
(dp2885
sg39
(dp2886
sg41
I1595
sg42
g21
sg43
g21
sg44
I284
sg45
Vsimilar
p2887
sg47
I284
sg48
I1602
sbag0
(g23
g2
Ntp2888
Rp2889
(dp2890
g27
(dp2891
g29
Vsize
p2892
sg31
VO
p2893
sg33
VNN
p2894
sg35
I18
ssg10
I285
sg36
g4
sg37
(dp2895
sg39
(dp2896
sg41
I1603
sg42
g21
sg43
g21
sg44
I285
sg45
Vsize
p2897
sg47
I285
sg48
I1607
sbag0
(g23
g2
Ntp2898
Rp2899
(dp2900
g27
(dp2901
g29
Vas
p2902
sg31
VO
p2903
sg33
VIN
p2904
sg35
I19
ssg10
I286
sg36
g4
sg37
(dp2905
sg39
(dp2906
sg41
I1608
sg42
g21
sg43
g21
sg44
I286
sg45
Vas
p2907
sg47
I286
sg48
I1610
sbag0
(g23
g2
Ntp2908
Rp2909
(dp2910
g27
(dp2911
g29
Va
p2912
sg31
VO
p2913
sg33
VDT
p2914
sg35
I20
ssg10
I287
sg36
g4
sg37
(dp2915
sg39
(dp2916
sg41
I1608
sg42
g21
sg43
g21
sg44
I287
sg45
Va
p2917
sg47
I287
sg48
I1609
sbag0
(g23
g2
Ntp2918
Rp2919
(dp2920
g27
(dp2921
g29
Vconsequence
p2922
sg31
VO
p2923
sg33
VNN
p2924
sg35
I21
ssg10
I288
sg36
g4
sg37
(dp2925
sg39
(dp2926
sg41
I1613
sg42
g21
sg43
g21
sg44
I288
sg45
Vconsequence
p2927
sg47
I288
sg48
I1624
sbag0
(g23
g2
Ntp2928
Rp2929
(dp2930
g27
(dp2931
g29
Vof
p2932
sg31
VO
p2933
sg33
VIN
p2934
sg35
I22
ssg10
I289
sg36
g4
sg37
(dp2935
sg39
(dp2936
sg41
I1625
sg42
g21
sg43
g21
sg44
I289
sg45
Vof
p2937
sg47
I289
sg48
I1627
sbag0
(g23
g2
Ntp2938
Rp2939
(dp2940
g27
(dp2941
g29
Vthese
p2942
sg31
VO
p2943
sg33
VDT
p2944
sg35
I23
ssg10
I290
sg36
g4
sg37
(dp2945
sg39
(dp2946
sg41
I1628
sg42
g21
sg43
g21
sg44
I290
sg45
Vthese
p2947
sg47
I290
sg48
I1633
sbag0
(g23
g2
Ntp2948
Rp2949
(dp2950
g27
(dp2951
g29
Vchange
p2952
sg31
VO
p2953
sg33
VNNS
p2954
sg35
I24
ssg10
I291
sg36
g4
sg37
(dp2955
sg39
(dp2956
sg41
I1634
sg42
g21
sg43
g21
sg44
I291
sg45
Vchanges
p2957
sg47
I291
sg48
I1641
sbag0
(g23
g2
Ntp2958
Rp2959
(dp2960
g27
(dp2961
g29
V.
p2962
sg31
VO
p2963
sg33
V.
p2964
sg35
I25
ssg10
I292
sg36
g4
sg37
(dp2965
sg39
(dp2966
sg41
I1641
sg42
g21
sg43
g21
sg44
I292
sg45
V.
p2967
sg47
I292
sg48
I1642
sbag0
(g23
g2
Ntp2968
Rp2969
(dp2970
g27
(dp2971
g29
Vthe
p2972
sg31
VO
p2973
sg33
VDT
p2974
sg35
I1
ssg10
I293
sg36
g4
sg37
(dp2975
sg39
(dp2976
sg41
I1645
sg42
g21
sg43
g21
sg44
I293
sg45
VThe
p2977
sg47
I293
sg48
I1648
sbag0
(g23
g2
Ntp2978
Rp2979
(dp2980
g27
(dp2981
g29
Vradioactive
p2982
sg31
VO
p2983
sg33
VJJ
p2984
sg35
I2
ssg10
I294
sg36
g4
sg37
(dp2985
sg39
(dp2986
sg41
I1649
sg42
g21
sg43
g21
sg44
I294
sg45
Vradioactive
p2987
sg47
I294
sg48
I1660
sbag0
(g23
g2
Ntp2988
Rp2989
(dp2990
g27
(dp2991
g29
Visotope
p2992
sg31
VO
p2993
sg33
VNN
p2994
sg35
I3
ssg10
I295
sg36
g4
sg37
(dp2995
sg39
(dp2996
sg41
I1661
sg42
g21
sg43
g21
sg44
I295
sg45
Visotope
p2997
sg47
I295
sg48
I1668
sbag0
(g23
g2
Ntp2998
Rp2999
(dp3000
g27
(dp3001
g29
Vchoose
p3002
sg31
VO
p3003
sg33
VVBN
p3004
sg35
I4
ssg10
I296
sg36
g4
sg37
(dp3005
sg39
(dp3006
sg41
I1669
sg42
g21
sg43
g21
sg44
I296
sg45
Vchosen
p3007
sg47
I296
sg48
I1675
sbag0
(g23
g2
Ntp3008
Rp3009
(dp3010
g27
(dp3011
g29
Vfor
p3012
sg31
VO
p3013
sg33
VIN
p3014
sg35
I5
ssg10
I297
sg36
g4
sg37
(dp3015
sg39
(dp3016
sg41
I1676
sg42
g21
sg43
g21
sg44
I297
sg45
Vfor
p3017
sg47
I297
sg48
I1679
sbag0
(g23
g2
Ntp3018
Rp3019
(dp3020
g27
(dp3021
g29
Vthe
p3022
sg31
VO
p3023
sg33
VDT
p3024
sg35
I6
ssg10
I298
sg36
g4
sg37
(dp3025
sg39
(dp3026
sg41
I1680
sg42
g21
sg43
g21
sg44
I298
sg45
Vthe
p3027
sg47
I298
sg48
I1683
sbag0
(g23
g2
Ntp3028
Rp3029
(dp3030
g27
(dp3031
g29
Vfallout
p3032
sg31
VO
p3033
sg33
VNN
p3034
sg35
I7
ssg10
I299
sg36
g4
sg37
(dp3035
sg39
(dp3036
sg41
I1684
sg42
g21
sg43
g21
sg44
I299
sg45
Vfallout
p3037
sg47
I299
sg48
I1691
sbag0
(g23
g2
Ntp3038
Rp3039
(dp3040
g27
(dp3041
g29
Vmaterial
p3042
sg31
VO
p3043
sg33
VNN
p3044
sg35
I8
ssg10
I300
sg36
g4
sg37
(dp3045
sg39
(dp3046
sg41
I1692
sg42
g21
sg43
g21
sg44
I300
sg45
Vmaterial
p3047
sg47
I300
sg48
I1700
sbag0
(g23
g2
Ntp3048
Rp3049
(dp3050
g27
(dp3051
g29
Vbe
p3052
sg31
VO
p3053
sg33
VVBZ
p3054
sg35
I9
ssg10
I301
sg36
g4
sg37
(dp3055
sg39
(dp3056
sg41
I1701
sg42
g21
sg43
g21
sg44
I301
sg45
Vis
p3057
sg47
I301
sg48
I1703
sbag0
(g23
g2
Ntp3058
Rp3059
(dp3060
g27
(dp3061
g29
Vusually
p3062
sg31
VO
p3063
sg33
VRB
p3064
sg35
I10
ssg10
I302
sg36
g4
sg37
(dp3065
sg39
(dp3066
sg41
I1704
sg42
g21
sg43
g21
sg44
I302
sg45
Vusually
p3067
sg47
I302
sg48
I1711
sbag0
(g23
g2
Ntp3068
Rp3069
(dp3070
g27
(dp3071
g29
Va
p3072
sg31
VO
p3073
sg33
VDT
p3074
sg35
I11
ssg10
I303
sg36
g4
sg37
(dp3075
sg39
(dp3076
sg41
I1707
sg42
g21
sg43
g21
sg44
I303
sg45
Va
p3077
sg47
I303
sg48
I1708
sbag0
(g23
g2
Ntp3078
Rp3079
(dp3080
g27
(dp3081
g29
Vhigh
p3082
sg31
VO
p3083
sg33
VJJ
p3084
sg35
I12
ssg10
I304
sg36
g4
sg37
(dp3085
sg39
(dp3086
sg41
I1714
sg42
g21
sg43
g21
sg44
I304
sg45
Vhigh
p3087
sg47
I304
sg48
I1718
sbag0
(g23
g2
Ntp3088
Rp3089
(dp3090
g27
(dp3091
g29
Vintensity
p3092
sg31
VO
p3093
sg33
VNN
p3094
sg35
I13
ssg10
I305
sg36
g4
sg37
(dp3095
sg39
(dp3096
sg41
I1719
sg42
g21
sg43
g21
sg44
I305
sg45
Vintensity
p3097
sg47
I305
sg48
I1728
sbag0
(g23
g2
Ntp3098
Rp3099
(dp3100
g27
(dp3101
g29
Vgamma
p3102
sg31
VO
p3103
sg33
VNN
p3104
sg35
I14
ssg10
I306
sg36
g4
sg37
(dp3105
sg39
(dp3106
sg41
I1729
sg42
g21
sg43
g21
sg44
I306
sg45
Vgamma
p3107
sg47
I306
sg48
I1734
sbag0
(g23
g2
Ntp3108
Rp3109
(dp3110
g27
(dp3111
g29
Vray
p3112
sg31
VO
p3113
sg33
VNN
p3114
sg35
I15
ssg10
I307
sg36
g4
sg37
(dp3115
sg39
(dp3116
sg41
I1735
sg42
g21
sg43
g21
sg44
I307
sg45
Vray
p3117
sg47
I307
sg48
I1738
sbag0
(g23
g2
Ntp3118
Rp3119
(dp3120
g27
(dp3121
g29
Vemitter
p3122
sg31
VO
p3123
sg33
VNN
p3124
sg35
I16
ssg10
I308
sg36
g4
sg37
(dp3125
sg39
(dp3126
sg41
I1739
sg42
g21
sg43
g21
sg44
I308
sg45
Vemitter
p3127
sg47
I308
sg48
I1746
sbag0
(g23
g2
Ntp3128
Rp3129
(dp3130
g27
(dp3131
g29
V,
p3132
sg31
VO
p3133
sg33
V,
p3134
sg35
I17
ssg10
I309
sg36
g4
sg37
(dp3135
sg39
(dp3136
sg41
I1746
sg42
g21
sg43
g21
sg44
I309
sg45
V,
p3137
sg47
I309
sg48
I1747
sbag0
(g23
g2
Ntp3138
Rp3139
(dp3140
g27
(dp3141
g29
Vwith
p3142
sg31
VO
p3143
sg33
VIN
p3144
sg35
I18
ssg10
I310
sg36
g4
sg37
(dp3145
sg39
(dp3146
sg41
I1748
sg42
g21
sg43
g21
sg44
I310
sg45
Vwith
p3147
sg47
I310
sg48
I1752
sbag0
(g23
g2
Ntp3148
Rp3149
(dp3150
g27
(dp3151
g29
Va
p3152
sg31
VO
p3153
sg33
VDT
p3154
sg35
I19
ssg10
I311
sg36
g4
sg37
(dp3155
sg39
(dp3156
sg41
I1753
sg42
g21
sg43
g21
sg44
I311
sg45
Va
p3157
sg47
I311
sg48
I1754
sbag0
(g23
g2
Ntp3158
Rp3159
(dp3160
g27
(dp3161
g29
Vhalf-life
p3162
sg31
VO
p3163
sg33
VNN
p3164
sg35
I20
ssg10
I312
sg36
g4
sg37
(dp3165
sg39
(dp3166
sg41
I1755
sg42
g21
sg43
g21
sg44
I312
sg45
Vhalf-life
p3167
sg47
I312
sg48
I1764
sbag0
(g23
g2
Ntp3168
Rp3169
(dp3170
g27
(dp3171
g29
Vlong
p3172
sg31
VO
p3173
sg33
VRB
p3174
sg35
I21
ssg10
I313
sg36
g4
sg37
(dp3175
sg39
(dp3176
sg41
I1765
sg42
g21
sg43
g21
sg44
I313
sg45
Vlong
p3177
sg47
I313
sg48
I1769
sbag0
(g23
g2
Ntp3178
Rp3179
(dp3180
g27
(dp3181
g29
Venough
p3182
sg31
VO
p3183
sg33
VRB
p3184
sg35
I22
ssg10
I314
sg36
g4
sg37
(dp3185
sg39
(dp3186
sg41
I1770
sg42
g21
sg43
g21
sg44
I314
sg45
Venough
p3187
sg47
I314
sg48
I1776
sbag0
(g23
g2
Ntp3188
Rp3189
(dp3190
g27
(dp3191
g29
Vthat
p3192
sg31
VO
p3193
sg33
VIN
p3194
sg35
I23
ssg10
I315
sg36
g4
sg37
(dp3195
sg39
(dp3196
sg41
I1777
sg42
g21
sg43
g21
sg44
I315
sg45
Vthat
p3197
sg47
I315
sg48
I1781
sbag0
(g23
g2
Ntp3198
Rp3199
(dp3200
g27
(dp3201
g29
Vit
p3202
sg31
VO
p3203
sg33
VPRP
p3204
sg35
I24
ssg10
I316
sg36
g4
sg37
(dp3205
sg39
(dp3206
sg41
I1782
sg42
g21
sg43
g21
sg44
I316
sg45
Vit
p3207
sg47
I316
sg48
I1784
sbag0
(g23
g2
Ntp3208
Rp3209
(dp3210
g27
(dp3211
g29
Vremain
p3212
sg31
VO
p3213
sg33
VVBZ
p3214
sg35
I25
ssg10
I317
sg36
g4
sg37
(dp3215
sg39
(dp3216
sg41
I1785
sg42
g21
sg43
g21
sg44
I317
sg45
Vremains
p3217
sg47
I317
sg48
I1792
sbag0
(g23
g2
Ntp3218
Rp3219
(dp3220
g27
(dp3221
g29
Vlethal
p3222
sg31
VO
p3223
sg33
VJJ
p3224
sg35
I26
ssg10
I318
sg36
g4
sg37
(dp3225
sg39
(dp3226
sg41
I1793
sg42
g21
sg43
g21
sg44
I318
sg45
Vlethal
p3227
sg47
I318
sg48
I1799
sbag0
(g23
g2
Ntp3228
Rp3229
(dp3230
g27
(dp3231
g29
Vfor
p3232
sg31
VO
p3233
sg33
VIN
p3234
sg35
I27
ssg10
I319
sg36
g4
sg37
(dp3235
sg39
(dp3236
sg41
I1800
sg42
g21
sg43
g21
sg44
I319
sg45
Vfor
p3237
sg47
I319
sg48
I1803
sbag0
(g23
g2
Ntp3238
Rp3239
(dp3240
g27
(dp3241
g29
Va
p3242
sg31
VO
p3243
sg33
VDT
p3244
sg35
I28
ssg10
I320
sg36
g4
sg37
(dp3245
sg39
(dp3246
sg41
I1804
sg42
g21
sg43
g21
sg44
I320
sg45
Van
p3247
sg47
I320
sg48
I1806
sbag0
(g23
g2
Ntp3248
Rp3249
(dp3250
g27
(dp3251
g29
Vextended
p3252
sg31
VO
p3253
sg33
VJJ
p3254
sg35
I29
ssg10
I321
sg36
g4
sg37
(dp3255
sg39
(dp3256
sg41
I1807
sg42
g21
sg43
g21
sg44
I321
sg45
Vextended
p3257
sg47
I321
sg48
I1815
sbag0
(g23
g2
Ntp3258
Rp3259
(dp3260
g27
(dp3261
g29
Vperiod
p3262
sg31
VO
p3263
sg33
VNN
p3264
sg35
I30
ssg10
I322
sg36
g4
sg37
(dp3265
sg39
(dp3266
sg41
I1816
sg42
g21
sg43
g21
sg44
I322
sg45
Vperiod
p3267
sg47
I322
sg48
I1822
sbag0
(g23
g2
Ntp3268
Rp3269
(dp3270
g27
(dp3271
g29
V.
p3272
sg31
VO
p3273
sg33
V.
p3274
sg35
I31
ssg10
I323
sg36
g4
sg37
(dp3275
sg39
(dp3276
sg41
I1822
sg42
g21
sg43
g21
sg44
I323
sg45
V.
p3277
sg47
I323
sg48
I1823
sbag0
(g23
g2
Ntp3278
Rp3279
(dp3280
g27
(dp3281
g29
Vit
p3282
sg31
VO
p3283
sg33
VPRP
p3284
sg35
I1
ssg10
I324
sg36
g4
sg37
(dp3285
sg39
(dp3286
sg41
I1824
sg42
g21
sg43
g21
sg44
I324
sg45
VIt
p3287
sg47
I324
sg48
I1826
sbag0
(g23
g2
Ntp3288
Rp3289
(dp3290
g27
(dp3291
g29
Valso
p3292
sg31
VO
p3293
sg33
VRB
p3294
sg35
I2
ssg10
I325
sg36
g4
sg37
(dp3295
sg39
(dp3296
sg41
I1827
sg42
g21
sg43
g21
sg44
I325
sg45
Valso
p3297
sg47
I325
sg48
I1831
sbag0
(g23
g2
Ntp3298
Rp3299
(dp3300
g27
(dp3301
g29
Vmust
p3302
sg31
VO
p3303
sg33
VMD
p3304
sg35
I3
ssg10
I326
sg36
g4
sg37
(dp3305
sg39
(dp3306
sg41
I1832
sg42
g21
sg43
g21
sg44
I326
sg45
Vmust
p3307
sg47
I326
sg48
I1836
sbag0
(g23
g2
Ntp3308
Rp3309
(dp3310
g27
(dp3311
g29
Vhave
p3312
sg31
VO
p3313
sg33
VVB
p3314
sg35
I4
ssg10
I327
sg36
g4
sg37
(dp3315
sg39
(dp3316
sg41
I1837
sg42
g21
sg43
g21
sg44
I327
sg45
Vhave
p3317
sg47
I327
sg48
I1841
sbag0
(g23
g2
Ntp3318
Rp3319
(dp3320
g27
(dp3321
g29
Va
p3322
sg31
VO
p3323
sg33
VDT
p3324
sg35
I5
ssg10
I328
sg36
g4
sg37
(dp3325
sg39
(dp3326
sg41
I1838
sg42
g21
sg43
g21
sg44
I328
sg45
Va
p3327
sg47
I328
sg48
I1839
sbag0
(g23
g2
Ntp3328
Rp3329
(dp3330
g27
(dp3331
g29
Vchemistry
p3332
sg31
VO
p3333
sg33
VNN
p3334
sg35
I6
ssg10
I329
sg36
g4
sg37
(dp3335
sg39
(dp3336
sg41
I1844
sg42
g21
sg43
g21
sg44
I329
sg45
Vchemistry
p3337
sg47
I329
sg48
I1853
sbag0
(g23
g2
Ntp3338
Rp3339
(dp3340
g27
(dp3341
g29
Vthat
p3342
sg31
VO
p3343
sg33
VWDT
p3344
sg35
I7
ssg10
I330
sg36
g4
sg37
(dp3345
sg39
(dp3346
sg41
I1854
sg42
g21
sg43
g21
sg44
I330
sg45
Vthat
p3347
sg47
I330
sg48
I1858
sbag0
(g23
g2
Ntp3348
Rp3349
(dp3350
g27
(dp3351
g29
Vcause
p3352
sg31
VO
p3353
sg33
VVBZ
p3354
sg35
I8
ssg10
I331
sg36
g4
sg37
(dp3355
sg39
(dp3356
sg41
I1859
sg42
g21
sg43
g21
sg44
I331
sg45
Vcauses
p3357
sg47
I331
sg48
I1865
sbag0
(g23
g2
Ntp3358
Rp3359
(dp3360
g27
(dp3361
g29
Vit
p3362
sg31
VO
p3363
sg33
VPRP
p3364
sg35
I9
ssg10
I332
sg36
g4
sg37
(dp3365
sg39
(dp3366
sg41
I1866
sg42
g21
sg43
g21
sg44
I332
sg45
Vit
p3367
sg47
I332
sg48
I1868
sbag0
(g23
g2
Ntp3368
Rp3369
(dp3370
g27
(dp3371
g29
Vto
p3372
sg31
VO
p3373
sg33
VTO
p3374
sg35
I10
ssg10
I333
sg36
g4
sg37
(dp3375
sg39
(dp3376
sg41
I1869
sg42
g21
sg43
g21
sg44
I333
sg45
Vto
p3377
sg47
I333
sg48
I1871
sbag0
(g23
g2
Ntp3378
Rp3379
(dp3380
g27
(dp3381
g29
Vreturn
p3382
sg31
VO
p3383
sg33
VVB
p3384
sg35
I11
ssg10
I334
sg36
g4
sg37
(dp3385
sg39
(dp3386
sg41
I1872
sg42
g21
sg43
g21
sg44
I334
sg45
Vreturn
p3387
sg47
I334
sg48
I1878
sbag0
(g23
g2
Ntp3388
Rp3389
(dp3390
g27
(dp3391
g29
Vto
p3392
sg31
VO
p3393
sg33
VTO
p3394
sg35
I12
ssg10
I335
sg36
g4
sg37
(dp3395
sg39
(dp3396
sg41
I1879
sg42
g21
sg43
g21
sg44
I335
sg45
Vto
p3397
sg47
I335
sg48
I1881
sbag0
(g23
g2
Ntp3398
Rp3399
(dp3400
g27
(dp3401
g29
Vearth
p3402
sg31
VO
p3403
sg33
VNN
p3404
sg35
I13
ssg10
I336
sg36
g4
sg37
(dp3405
sg39
(dp3406
sg41
I1882
sg42
g21
sg43
g21
sg44
I336
sg45
Vearth
p3407
sg47
I336
sg48
I1887
sbag0
(g23
g2
Ntp3408
Rp3409
(dp3410
g27
(dp3411
g29
Vas
p3412
sg31
VO
p3413
sg33
VIN
p3414
sg35
I14
ssg10
I337
sg36
g4
sg37
(dp3415
sg39
(dp3416
sg41
I1888
sg42
g21
sg43
g21
sg44
I337
sg45
Vas
p3417
sg47
I337
sg48
I1890
sbag0
(g23
g2
Ntp3418
Rp3419
(dp3420
g27
(dp3421
g29
Vfallout
p3422
sg31
VO
p3423
sg33
VNN
p3424
sg35
I15
ssg10
I338
sg36
g4
sg37
(dp3425
sg39
(dp3426
sg41
I1891
sg42
g21
sg43
g21
sg44
I338
sg45
Vfallout
p3427
sg47
I338
sg48
I1898
sbag0
(g23
g2
Ntp3428
Rp3429
(dp3430
g27
(dp3431
g29
V,
p3432
sg31
VO
p3433
sg33
V,
p3434
sg35
I16
ssg10
I339
sg36
g4
sg37
(dp3435
sg39
(dp3436
sg41
I1898
sg42
g21
sg43
g21
sg44
I339
sg45
V,
p3437
sg47
I339
sg48
I1899
sbag0
(g23
g2
Ntp3438
Rp3439
(dp3440
g27
(dp3441
g29
Vrather
p3442
sg31
VO
p3443
sg33
VRB
p3444
sg35
I17
ssg10
I340
sg36
g4
sg37
(dp3445
sg39
(dp3446
sg41
I1900
sg42
g21
sg43
g21
sg44
I340
sg45
Vrather
p3447
sg47
I340
sg48
I1906
sbag0
(g23
g2
Ntp3448
Rp3449
(dp3450
g27
(dp3451
g29
Vthan
p3452
sg31
VO
p3453
sg33
VIN
p3454
sg35
I18
ssg10
I341
sg36
g4
sg37
(dp3455
sg39
(dp3456
sg41
I1907
sg42
g21
sg43
g21
sg44
I341
sg45
Vthan
p3457
sg47
I341
sg48
I1911
sbag0
(g23
g2
Ntp3458
Rp3459
(dp3460
g27
(dp3461
g29
Vstay
p3462
sg31
VO
p3463
sg33
VVB
p3464
sg35
I19
ssg10
I342
sg36
g4
sg37
(dp3465
sg39
(dp3466
sg41
I1912
sg42
g21
sg43
g21
sg44
I342
sg45
Vstay
p3467
sg47
I342
sg48
I1916
sbag0
(g23
g2
Ntp3468
Rp3469
(dp3470
g27
(dp3471
g29
Vin
p3472
sg31
VO
p3473
sg33
VIN
p3474
sg35
I20
ssg10
I343
sg36
g4
sg37
(dp3475
sg39
(dp3476
sg41
I1917
sg42
g21
sg43
g21
sg44
I343
sg45
Vin
p3477
sg47
I343
sg48
I1919
sbag0
(g23
g2
Ntp3478
Rp3479
(dp3480
g27
(dp3481
g29
Vthe
p3482
sg31
VO
p3483
sg33
VDT
p3484
sg35
I21
ssg10
I344
sg36
g4
sg37
(dp3485
sg39
(dp3486
sg41
I1920
sg42
g21
sg43
g21
sg44
I344
sg45
Vthe
p3487
sg47
I344
sg48
I1923
sbag0
(g23
g2
Ntp3488
Rp3489
(dp3490
g27
(dp3491
g29
Vatmosphere
p3492
sg31
VO
p3493
sg33
VNN
p3494
sg35
I22
ssg10
I345
sg36
g4
sg37
(dp3495
sg39
(dp3496
sg41
I1924
sg42
g21
sg43
g21
sg44
I345
sg45
Vatmosphere
p3497
sg47
I345
sg48
I1934
sbag0
(g23
g2
Ntp3498
Rp3499
(dp3500
g27
(dp3501
g29
Vafter
p3502
sg31
VO
p3503
sg33
VIN
p3504
sg35
I23
ssg10
I346
sg36
g4
sg37
(dp3505
sg39
(dp3506
sg41
I1935
sg42
g21
sg43
g21
sg44
I346
sg45
Vafter
p3507
sg47
I346
sg48
I1940
sbag0
(g23
g2
Ntp3508
Rp3509
(dp3510
g27
(dp3511
g29
Vbe
p3512
sg31
VO
p3513
sg33
VVBG
p3514
sg35
I24
ssg10
I347
sg36
g4
sg37
(dp3515
sg39
(dp3516
sg41
I1941
sg42
g21
sg43
g21
sg44
I347
sg45
Vbeing
p3517
sg47
I347
sg48
I1946
sbag0
(g23
g2
Ntp3518
Rp3519
(dp3520
g27
(dp3521
g29
Vvaporize
p3522
sg31
VO
p3523
sg33
VVBN
p3524
sg35
I25
ssg10
I348
sg36
g4
sg37
(dp3525
sg39
(dp3526
sg41
I1947
sg42
g21
sg43
g21
sg44
I348
sg45
Vvaporized
p3527
sg47
I348
sg48
I1956
sbag0
(g23
g2
Ntp3528
Rp3529
(dp3530
g27
(dp3531
g29
Vin
p3532
sg31
VO
p3533
sg33
VIN
p3534
sg35
I26
ssg10
I349
sg36
g4
sg37
(dp3535
sg39
(dp3536
sg41
I1957
sg42
g21
sg43
g21
sg44
I349
sg45
Vin
p3537
sg47
I349
sg48
I1959
sbag0
(g23
g2
Ntp3538
Rp3539
(dp3540
g27
(dp3541
g29
Vthe
p3542
sg31
VO
p3543
sg33
VDT
p3544
sg35
I27
ssg10
I350
sg36
g4
sg37
(dp3545
sg39
(dp3546
sg41
I1960
sg42
g21
sg43
g21
sg44
I350
sg45
Vthe
p3547
sg47
I350
sg48
I1963
sbag0
(g23
g2
Ntp3548
Rp3549
(dp3550
g27
(dp3551
g29
Vexplosion
p3552
sg31
VO
p3553
sg33
VNN
p3554
sg35
I28
ssg10
I351
sg36
g4
sg37
(dp3555
sg39
(dp3556
sg41
I1964
sg42
g21
sg43
g21
sg44
I351
sg45
Vexplosion
p3557
sg47
I351
sg48
I1973
sbag0
(g23
g2
Ntp3558
Rp3559
(dp3560
g27
(dp3561
g29
V.
p3562
sg31
VO
p3563
sg33
V.
p3564
sg35
I29
ssg10
I352
sg36
g4
sg37
(dp3565
sg39
(dp3566
sg41
I1973
sg42
g21
sg43
g21
sg44
I352
sg45
V.
p3567
sg47
I352
sg48
I1974
sbag0
(g23
g2
Ntp3568
Rp3569
(dp3570
g27
(dp3571
g29
Vone
p3572
sg31
VNUMBER
p3573
sg33
VCD
p3574
sg35
I1
ssg10
I353
sg36
g4
sg37
(dp3575
sg39
(dp3576
sg41
I1977
sg42
g21
sg43
g21
sg44
I353
sg45
VOne
p3577
sg47
I353
sg48
I1980
sbag0
(g23
g2
Ntp3578
Rp3579
(dp3580
g27
(dp3581
g29
Vexample
p3582
sg31
VO
p3583
sg33
VNN
p3584
sg35
I2
ssg10
I354
sg36
g4
sg37
(dp3585
sg39
(dp3586
sg41
I1981
sg42
g21
sg43
g21
sg44
I354
sg45
Vexample
p3587
sg47
I354
sg48
I1988
sbag0
(g23
g2
Ntp3588
Rp3589
(dp3590
g27
(dp3591
g29
Vof
p3592
sg31
VO
p3593
sg33
VIN
p3594
sg35
I3
ssg10
I355
sg36
g4
sg37
(dp3595
sg39
(dp3596
sg41
I1989
sg42
g21
sg43
g21
sg44
I355
sg45
Vof
p3597
sg47
I355
sg48
I1991
sbag0
(g23
g2
Ntp3598
Rp3599
(dp3600
g27
(dp3601
g29
Va
p3602
sg31
VO
p3603
sg33
VDT
p3604
sg35
I4
ssg10
I356
sg36
g4
sg37
(dp3605
sg39
(dp3606
sg41
I1992
sg42
g21
sg43
g21
sg44
I356
sg45
Va
p3607
sg47
I356
sg48
I1993
sbag0
(g23
g2
Ntp3608
Rp3609
(dp3610
g27
(dp3611
g29
Vsalted
p3612
sg31
VO
p3613
sg33
VJJ
p3614
sg35
I5
ssg10
I357
sg36
g4
sg37
(dp3615
sg39
(dp3616
sg41
I1994
sg42
g21
sg43
g21
sg44
I357
sg45
Vsalted
p3617
sg47
I357
sg48
I2000
sbag0
(g23
g2
Ntp3618
Rp3619
(dp3620
g27
(dp3621
g29
Vbomb
p3622
sg31
VO
p3623
sg33
VNN
p3624
sg35
I6
ssg10
I358
sg36
g4
sg37
(dp3625
sg39
(dp3626
sg41
I2001
sg42
g21
sg43
g21
sg44
I358
sg45
Vbomb
p3627
sg47
I358
sg48
I2005
sbag0
(g23
g2
Ntp3628
Rp3629
(dp3630
g27
(dp3631
g29
Vbe
p3632
sg31
VO
p3633
sg33
VVBZ
p3634
sg35
I7
ssg10
I359
sg36
g4
sg37
(dp3635
sg39
(dp3636
sg41
I2006
sg42
g21
sg43
g21
sg44
I359
sg45
Vis
p3637
sg47
I359
sg48
I2008
sbag0
(g23
g2
Ntp3638
Rp3639
(dp3640
g27
(dp3641
g29
Va
p3642
sg31
VO
p3643
sg33
VDT
p3644
sg35
I8
ssg10
I360
sg36
g4
sg37
(dp3645
sg39
(dp3646
sg41
I2009
sg42
g21
sg43
g21
sg44
I360
sg45
Va
p3647
sg47
I360
sg48
I2010
sbag0
(g23
g2
Ntp3648
Rp3649
(dp3650
g27
(dp3651
g29
Vpropose
p3652
sg31
VO
p3653
sg33
VVBN
p3654
sg35
I9
ssg10
I361
sg36
g4
sg37
(dp3655
sg39
(dp3656
sg41
I2011
sg42
g21
sg43
g21
sg44
I361
sg45
Vproposed
p3657
sg47
I361
sg48
I2019
sbag0
(g23
g2
Ntp3658
Rp3659
(dp3660
g27
(dp3661
g29
Vcobalt
p3662
sg31
VO
p3663
sg33
VNN
p3664
sg35
I10
ssg10
I362
sg36
g4
sg37
(dp3665
sg39
(dp3666
sg41
I2020
sg42
g21
sg43
g21
sg44
I362
sg45
Vcobalt
p3667
sg47
I362
sg48
I2026
sbag0
(g23
g2
Ntp3668
Rp3669
(dp3670
g27
(dp3671
g29
Vbomb
p3672
sg31
VO
p3673
sg33
VNN
p3674
sg35
I11
ssg10
I363
sg36
g4
sg37
(dp3675
sg39
(dp3676
sg41
I2027
sg42
g21
sg43
g21
sg44
I363
sg45
Vbomb
p3677
sg47
I363
sg48
I2031
sbag0
(g23
g2
Ntp3678
Rp3679
(dp3680
g27
(dp3681
g29
V,
p3682
sg31
VO
p3683
sg33
V,
p3684
sg35
I12
ssg10
I364
sg36
g4
sg37
(dp3685
sg39
(dp3686
sg41
I2031
sg42
g21
sg43
g21
sg44
I364
sg45
V,
p3687
sg47
I364
sg48
I2032
sbag0
(g23
g2
Ntp3688
Rp3689
(dp3690
g27
(dp3691
g29
Vwhich
p3692
sg31
VO
p3693
sg33
VWDT
p3694
sg35
I13
ssg10
I365
sg36
g4
sg37
(dp3695
sg39
(dp3696
sg41
I2033
sg42
g21
sg43
g21
sg44
I365
sg45
Vwhich
p3697
sg47
I365
sg48
I2038
sbag0
(g23
g2
Ntp3698
Rp3699
(dp3700
g27
(dp3701
g29
Vproduce
p3702
sg31
VO
p3703
sg33
VVBZ
p3704
sg35
I14
ssg10
I366
sg36
g4
sg37
(dp3705
sg39
(dp3706
sg41
I2039
sg42
g21
sg43
g21
sg44
I366
sg45
Vproduces
p3707
sg47
I366
sg48
I2047
sbag0
(g23
g2
Ntp3708
Rp3709
(dp3710
g27
(dp3711
g29
Vthe
p3712
sg31
VO
p3713
sg33
VDT
p3714
sg35
I15
ssg10
I367
sg36
g4
sg37
(dp3715
sg39
(dp3716
sg41
I2048
sg42
g21
sg43
g21
sg44
I367
sg45
Vthe
p3717
sg47
I367
sg48
I2051
sbag0
(g23
g2
Ntp3718
Rp3719
(dp3720
g27
(dp3721
g29
Vradioactive
p3722
sg31
VO
p3723
sg33
VJJ
p3724
sg35
I16
ssg10
I368
sg36
g4
sg37
(dp3725
sg39
(dp3726
sg41
I2052
sg42
g21
sg43
g21
sg44
I368
sg45
Vradioactive
p3727
sg47
I368
sg48
I2063
sbag0
(g23
g2
Ntp3728
Rp3729
(dp3730
g27
(dp3731
g29
Visotope
p3732
sg31
VO
p3733
sg33
VNN
p3734
sg35
I17
ssg10
I369
sg36
g4
sg37
(dp3735
sg39
(dp3736
sg41
I2064
sg42
g21
sg43
g21
sg44
I369
sg45
Visotope
p3737
sg47
I369
sg48
I2071
sbag0
(g23
g2
Ntp3738
Rp3739
(dp3740
g27
(dp3741
g29
Vcobalt-60
p3742
sg31
VO
p3743
sg33
VNN
p3744
sg35
I18
ssg10
I370
sg36
g4
sg37
(dp3745
sg39
(dp3746
sg41
I2072
sg42
g21
sg43
g21
sg44
I370
sg45
Vcobalt-60
p3747
sg47
I370
sg48
I2081
sbag0
(g23
g2
Ntp3748
Rp3749
(dp3750
g27
(dp3751
g29
V-lrb-
p3752
sg31
VO
p3753
sg33
V-LRB-
p3754
sg35
I19
ssg10
I371
sg36
g4
sg37
(dp3755
sg39
(dp3756
sg41
I2082
sg42
g21
sg43
g21
sg44
I371
sg45
V(
p3757
sg47
I371
sg48
I2083
sbag0
(g23
g2
Ntp3758
Rp3759
(dp3760
g27
(dp3761
g29
V60co
p3762
sg31
VO
p3763
sg33
VNN
p3764
sg35
I20
ssg10
I372
sg36
g4
sg37
(dp3765
sg39
(dp3766
sg41
I2083
sg42
g21
sg43
g21
sg44
I372
sg45
V60Co
p3767
sg47
I372
sg48
I2087
sbag0
(g23
g2
Ntp3768
Rp3769
(dp3770
g27
(dp3771
g29
V-rrb-
p3772
sg31
VO
p3773
sg33
V-RRB-
p3774
sg35
I21
ssg10
I373
sg36
g4
sg37
(dp3775
sg39
(dp3776
sg41
I2087
sg42
g21
sg43
g21
sg44
I373
sg45
V)
p3777
sg47
I373
sg48
I2088
sbag0
(g23
g2
Ntp3778
Rp3779
(dp3780
g27
(dp3781
g29
V.
p3782
sg31
VO
p3783
sg33
V.
p3784
sg35
I22
ssg10
I374
sg36
g4
sg37
(dp3785
sg39
(dp3786
sg41
I2088
sg42
g21
sg43
g21
sg44
I374
sg45
V.
p3787
sg47
I374
sg48
I2089
sbag0
(g23
g2
Ntp3788
Rp3789
(dp3790
g27
(dp3791
g29
Vother
p3792
sg31
VO
p3793
sg33
VJJ
p3794
sg35
I1
ssg10
I375
sg36
g4
sg37
(dp3795
sg39
(dp3796
sg41
I2090
sg42
g21
sg43
g21
sg44
I375
sg45
VOther
p3797
sg47
I375
sg48
I2095
sbag0
(g23
g2
Ntp3798
Rp3799
(dp3800
g27
(dp3801
g29
Vnon-fissionable
p3802
sg31
VO
p3803
sg33
VJJ
p3804
sg35
I2
ssg10
I376
sg36
g4
sg37
(dp3805
sg39
(dp3806
sg41
I2096
sg42
g21
sg43
g21
sg44
I376
sg45
Vnon-fissionable
p3807
sg47
I376
sg48
I2111
sbag0
(g23
g2
Ntp3808
Rp3809
(dp3810
g27
(dp3811
g29
Visotope
p3812
sg31
VO
p3813
sg33
VNNS
p3814
sg35
I3
ssg10
I377
sg36
g4
sg37
(dp3815
sg39
(dp3816
sg41
I2112
sg42
g21
sg43
g21
sg44
I377
sg45
Visotopes
p3817
sg47
I377
sg48
I2120
sbag0
(g23
g2
Ntp3818
Rp3819
(dp3820
g27
(dp3821
g29
Vcan
p3822
sg31
VO
p3823
sg33
VMD
p3824
sg35
I4
ssg10
I378
sg36
g4
sg37
(dp3825
sg39
(dp3826
sg41
I2121
sg42
g21
sg43
g21
sg44
I378
sg45
Vcan
p3827
sg47
I378
sg48
I2124
sbag0
(g23
g2
Ntp3828
Rp3829
(dp3830
g27
(dp3831
g29
Vbe
p3832
sg31
VO
p3833
sg33
VVB
p3834
sg35
I5
ssg10
I379
sg36
g4
sg37
(dp3835
sg39
(dp3836
sg41
I2125
sg42
g21
sg43
g21
sg44
I379
sg45
Vbe
p3837
sg47
I379
sg48
I2127
sbag0
(g23
g2
Ntp3838
Rp3839
(dp3840
g27
(dp3841
g29
Vproduce
p3842
sg31
VO
p3843
sg33
VVBN
p3844
sg35
I6
ssg10
I380
sg36
g4
sg37
(dp3845
sg39
(dp3846
sg41
I2128
sg42
g21
sg43
g21
sg44
I380
sg45
Vproduced
p3847
sg47
I380
sg48
I2136
sbag0
(g23
g2
Ntp3848
Rp3849
(dp3850
g27
(dp3851
g29
V,
p3852
sg31
VO
p3853
sg33
V,
p3854
sg35
I7
ssg10
I381
sg36
g4
sg37
(dp3855
sg39
(dp3856
sg41
I2136
sg42
g21
sg43
g21
sg44
I381
sg45
V,
p3857
sg47
I381
sg48
I2137
sbag0
(g23
g2
Ntp3858
Rp3859
(dp3860
g27
(dp3861
g29
Vinclude
p3862
sg31
VO
p3863
sg33
VVBG
p3864
sg35
I8
ssg10
I382
sg36
g4
sg37
(dp3865
sg39
(dp3866
sg41
I2138
sg42
g21
sg43
g21
sg44
I382
sg45
Vincluding
p3867
sg47
I382
sg48
I2147
sbag0
(g23
g2
Ntp3868
Rp3869
(dp3870
g27
(dp3871
g29
Vgold-198
p3872
sg31
VO
p3873
sg33
VNN
p3874
sg35
I9
ssg10
I383
sg36
g4
sg37
(dp3875
sg39
(dp3876
sg41
I2148
sg42
g21
sg43
g21
sg44
I383
sg45
Vgold-198
p3877
sg47
I383
sg48
I2156
sbag0
(g23
g2
Ntp3878
Rp3879
(dp3880
g27
(dp3881
g29
V-lrb-
p3882
sg31
VO
p3883
sg33
V-LRB-
p3884
sg35
I10
ssg10
I384
sg36
g4
sg37
(dp3885
sg39
(dp3886
sg41
I2158
sg42
g21
sg43
g21
sg44
I384
sg45
V(
p3887
sg47
I384
sg48
I2159
sbag0
(g23
g2
Ntp3888
Rp3889
(dp3890
g27
(dp3891
g29
V198au
p3892
sg31
VO
p3893
sg33
VNN
p3894
sg35
I11
ssg10
I385
sg36
g4
sg37
(dp3895
sg39
(dp3896
sg41
I2159
sg42
g21
sg43
g21
sg44
I385
sg45
V198Au
p3897
sg47
I385
sg48
I2164
sbag0
(g23
g2
Ntp3898
Rp3899
(dp3900
g27
(dp3901
g29
V-rrb-
p3902
sg31
VO
p3903
sg33
V-RRB-
p3904
sg35
I12
ssg10
I386
sg36
g4
sg37
(dp3905
sg39
(dp3906
sg41
I2164
sg42
g21
sg43
g21
sg44
I386
sg45
V)
p3907
sg47
I386
sg48
I2165
sbag0
(g23
g2
Ntp3908
Rp3909
(dp3910
g27
(dp3911
g29
V,
p3912
sg31
VO
p3913
sg33
V,
p3914
sg35
I13
ssg10
I387
sg36
g4
sg37
(dp3915
sg39
(dp3916
sg41
I2165
sg42
g21
sg43
g21
sg44
I387
sg45
V,
p3917
sg47
I387
sg48
I2166
sbag0
(g23
g2
Ntp3918
Rp3919
(dp3920
g27
(dp3921
g29
Vtantalum-182
p3922
sg31
VO
p3923
sg33
VNN
p3924
sg35
I14
ssg10
I388
sg36
g4
sg37
(dp3925
sg39
(dp3926
sg41
I2167
sg42
g21
sg43
g21
sg44
I388
sg45
Vtantalum-182
p3927
sg47
I388
sg48
I2179
sbag0
(g23
g2
Ntp3928
Rp3929
(dp3930
g27
(dp3931
g29
V-lrb-
p3932
sg31
VO
p3933
sg33
V-LRB-
p3934
sg35
I15
ssg10
I389
sg36
g4
sg37
(dp3935
sg39
(dp3936
sg41
I2180
sg42
g21
sg43
g21
sg44
I389
sg45
V(
p3937
sg47
I389
sg48
I2181
sbag0
(g23
g2
Ntp3938
Rp3939
(dp3940
g27
(dp3941
g29
V182ta
p3942
sg31
VO
p3943
sg33
VNN
p3944
sg35
I16
ssg10
I390
sg36
g4
sg37
(dp3945
sg39
(dp3946
sg41
I2181
sg42
g21
sg43
g21
sg44
I390
sg45
V182Ta
p3947
sg47
I390
sg48
I2186
sbag0
(g23
g2
Ntp3948
Rp3949
(dp3950
g27
(dp3951
g29
V-rrb-
p3952
sg31
VO
p3953
sg33
V-RRB-
p3954
sg35
I17
ssg10
I391
sg36
g4
sg37
(dp3955
sg39
(dp3956
sg41
I2186
sg42
g21
sg43
g21
sg44
I391
sg45
V)
p3957
sg47
I391
sg48
I2187
sbag0
(g23
g2
Ntp3958
Rp3959
(dp3960
g27
(dp3961
g29
Vand
p3962
sg31
VO
p3963
sg33
VCC
p3964
sg35
I18
ssg10
I392
sg36
g4
sg37
(dp3965
sg39
(dp3966
sg41
I2188
sg42
g21
sg43
g21
sg44
I392
sg45
Vand
p3967
sg47
I392
sg48
I2191
sbag0
(g23
g2
Ntp3968
Rp3969
(dp3970
g27
(dp3971
g29
Vzinc-65
p3972
sg31
VO
p3973
sg33
VNN
p3974
sg35
I19
ssg10
I393
sg36
g4
sg37
(dp3975
sg39
(dp3976
sg41
I2192
sg42
g21
sg43
g21
sg44
I393
sg45
Vzinc-65
p3977
sg47
I393
sg48
I2199
sbag0
(g23
g2
Ntp3978
Rp3979
(dp3980
g27
(dp3981
g29
V-lrb-
p3982
sg31
VO
p3983
sg33
V-LRB-
p3984
sg35
I20
ssg10
I394
sg36
g4
sg37
(dp3985
sg39
(dp3986
sg41
I2201
sg42
g21
sg43
g21
sg44
I394
sg45
V(
p3987
sg47
I394
sg48
I2202
sbag0
(g23
g2
Ntp3988
Rp3989
(dp3990
g27
(dp3991
g29
V65zn
p3992
sg31
VO
p3993
sg33
VNN
p3994
sg35
I21
ssg10
I395
sg36
g4
sg37
(dp3995
sg39
(dp3996
sg41
I2202
sg42
g21
sg43
g21
sg44
I395
sg45
V65Zn
p3997
sg47
I395
sg48
I2206
sbag0
(g23
g2
Ntp3998
Rp3999
(dp4000
g27
(dp4001
g29
V-rrb-
p4002
sg31
VO
p4003
sg33
V-RRB-
p4004
sg35
I22
ssg10
I396
sg36
g4
sg37
(dp4005
sg39
(dp4006
sg41
I2206
sg42
g21
sg43
g21
sg44
I396
sg45
V)
p4007
sg47
I396
sg48
I2207
sbag0
(g23
g2
Ntp4008
Rp4009
(dp4010
g27
(dp4011
g29
V-lsb-
p4012
sg31
VO
p4013
sg33
V-LRB-
p4014
sg35
I23
ssg10
I397
sg36
g4
sg37
(dp4015
sg39
(dp4016
sg41
I2208
sg42
g21
sg43
g21
sg44
I397
sg45
V[
p4017
sg47
I397
sg48
I2209
sbag0
(g23
g2
Ntp4018
Rp4019
(dp4020
g27
(dp4021
g29
Vref
p4022
sg31
VO
p4023
sg33
VNN
p4024
sg35
I24
ssg10
I398
sg36
g4
sg37
(dp4025
sg39
(dp4026
sg41
I2209
sg42
g21
sg43
g21
sg44
I398
sg45
VREF
p4027
sg47
I398
sg48
I2212
sbag0
(g23
g2
Ntp4028
Rp4029
(dp4030
g27
(dp4031
g29
V-rsb-
p4032
sg31
VO
p4033
sg33
V-RRB-
p4034
sg35
I25
ssg10
I399
sg36
g4
sg37
(dp4035
sg39
(dp4036
sg41
I2212
sg42
g21
sg43
g21
sg44
I399
sg45
V]
p4037
sg47
I399
sg48
I2213
sbag0
(g23
g2
Ntp4038
Rp4039
(dp4040
g27
(dp4041
g29
V.
p4042
sg31
VO
p4043
sg33
V.
p4044
sg35
I26
ssg10
I400
sg36
g4
sg37
(dp4045
sg39
(dp4046
sg41
I2213
sg42
g21
sg43
g21
sg44
I400
sg45
V.
p4047
sg47
I400
sg48
I2214
sbag0
(g23
g2
Ntp4048
Rp4049
(dp4050
g27
(dp4051
g29
Vsodium-23
p4052
sg31
VO
p4053
sg33
VNN
p4054
sg35
I1
ssg10
I401
sg36
g4
sg37
(dp4055
sg39
(dp4056
sg41
I2215
sg42
g21
sg43
g21
sg44
I401
sg45
VSodium-23
p4057
sg47
I401
sg48
I2224
sbag0
(g23
g2
Ntp4058
Rp4059
(dp4060
g27
(dp4061
g29
Vhave
p4062
sg31
VO
p4063
sg33
VVBZ
p4064
sg35
I2
ssg10
I402
sg36
g4
sg37
(dp4065
sg39
(dp4066
sg41
I2225
sg42
g21
sg43
g21
sg44
I402
sg45
Vhas
p4067
sg47
I402
sg48
I2228
sbag0
(g23
g2
Ntp4068
Rp4069
(dp4070
g27
(dp4071
g29
Valso
p4072
sg31
VO
p4073
sg33
VRB
p4074
sg35
I3
ssg10
I403
sg36
g4
sg37
(dp4075
sg39
(dp4076
sg41
I2229
sg42
g21
sg43
g21
sg44
I403
sg45
Valso
p4077
sg47
I403
sg48
I2233
sbag0
(g23
g2
Ntp4078
Rp4079
(dp4080
g27
(dp4081
g29
Vbe
p4082
sg31
VO
p4083
sg33
VVBN
p4084
sg35
I4
ssg10
I404
sg36
g4
sg37
(dp4085
sg39
(dp4086
sg41
I2234
sg42
g21
sg43
g21
sg44
I404
sg45
Vbeen
p4087
sg47
I404
sg48
I2238
sbag0
(g23
g2
Ntp4088
Rp4089
(dp4090
g27
(dp4091
g29
Vpropose
p4092
sg31
VO
p4093
sg33
VVBN
p4094
sg35
I5
ssg10
I405
sg36
g4
sg37
(dp4095
sg39
(dp4096
sg41
I2239
sg42
g21
sg43
g21
sg44
I405
sg45
Vproposed
p4097
sg47
I405
sg48
I2247
sbag0
(g23
g2
Ntp4098
Rp4099
(dp4100
g27
(dp4101
g29
Vas
p4102
sg31
VO
p4103
sg33
VIN
p4104
sg35
I6
ssg10
I406
sg36
g4
sg37
(dp4105
sg39
(dp4106
sg41
I2248
sg42
g21
sg43
g21
sg44
I406
sg45
Vas
p4107
sg47
I406
sg48
I2250
sbag0
(g23
g2
Ntp4108
Rp4109
(dp4110
g27
(dp4111
g29
Va
p4112
sg31
VO
p4113
sg33
VDT
p4114
sg35
I7
ssg10
I407
sg36
g4
sg37
(dp4115
sg39
(dp4116
sg41
I2248
sg42
g21
sg43
g21
sg44
I407
sg45
Va
p4117
sg47
I407
sg48
I2249
sbag0
(g23
g2
Ntp4118
Rp4119
(dp4120
g27
(dp4121
g29
Vsalting
p4122
sg31
VO
p4123
sg33
VJJ
p4124
sg35
I8
ssg10
I408
sg36
g4
sg37
(dp4125
sg39
(dp4126
sg41
I2253
sg42
g21
sg43
g21
sg44
I408
sg45
Vsalting
p4127
sg47
I408
sg48
I2260
sbag0
(g23
g2
Ntp4128
Rp4129
(dp4130
g27
(dp4131
g29
Vagent
p4132
sg31
VO
p4133
sg33
VNN
p4134
sg35
I9
ssg10
I409
sg36
g4
sg37
(dp4135
sg39
(dp4136
sg41
I2261
sg42
g21
sg43
g21
sg44
I409
sg45
Vagent
p4137
sg47
I409
sg48
I2266
sbag0
(g23
g2
Ntp4138
Rp4139
(dp4140
g27
(dp4141
g29
V-lsb-
p4142
sg31
VO
p4143
sg33
V-LRB-
p4144
sg35
I10
ssg10
I410
sg36
g4
sg37
(dp4145
sg39
(dp4146
sg41
I2267
sg42
g21
sg43
g21
sg44
I410
sg45
V[
p4147
sg47
I410
sg48
I2268
sbag0
(g23
g2
Ntp4148
Rp4149
(dp4150
g27
(dp4151
g29
Vref
p4152
sg31
VO
p4153
sg33
VNN
p4154
sg35
I11
ssg10
I411
sg36
g4
sg37
(dp4155
sg39
(dp4156
sg41
I2268
sg42
g21
sg43
g21
sg44
I411
sg45
VREF
p4157
sg47
I411
sg48
I2271
sbag0
(g23
g2
Ntp4158
Rp4159
(dp4160
g27
(dp4161
g29
V-rsb-
p4162
sg31
VO
p4163
sg33
V-RRB-
p4164
sg35
I12
ssg10
I412
sg36
g4
sg37
(dp4165
sg39
(dp4166
sg41
I2271
sg42
g21
sg43
g21
sg44
I412
sg45
V]
p4167
sg47
I412
sg48
I2272
sbag0
(g23
g2
Ntp4168
Rp4169
(dp4170
g27
(dp4171
g29
V.
p4172
sg31
VO
p4173
sg33
V.
p4174
sg35
I13
ssg10
I413
sg36
g4
sg37
(dp4175
sg39
(dp4176
sg41
I2272
sg42
g21
sg43
g21
sg44
I413
sg45
V.
p4177
sg47
I413
sg48
I2273
sbag0
(g23
g2
Ntp4178
Rp4179
(dp4180
g27
(dp4181
g29
Vno
p4182
sg31
VO
p4183
sg33
VDT
p4184
sg35
I1
ssg10
I414
sg36
g4
sg37
(dp4185
sg39
(dp4186
sg41
I2276
sg42
g21
sg43
g21
sg44
I414
sg45
VNo
p4187
sg47
I414
sg48
I2278
sbag0
(g23
g2
Ntp4188
Rp4189
(dp4190
g27
(dp4191
g29
Vsalted
p4192
sg31
VO
p4193
sg33
VJJ
p4194
sg35
I2
ssg10
I415
sg36
g4
sg37
(dp4195
sg39
(dp4196
sg41
I2279
sg42
g21
sg43
g21
sg44
I415
sg45
Vsalted
p4197
sg47
I415
sg48
I2285
sbag0
(g23
g2
Ntp4198
Rp4199
(dp4200
g27
(dp4201
g29
Vbomb
p4202
sg31
VO
p4203
sg33
VNN
p4204
sg35
I3
ssg10
I416
sg36
g4
sg37
(dp4205
sg39
(dp4206
sg41
I2286
sg42
g21
sg43
g21
sg44
I416
sg45
Vbomb
p4207
sg47
I416
sg48
I2290
sbag0
(g23
g2
Ntp4208
Rp4209
(dp4210
g27
(dp4211
g29
Vhave
p4212
sg31
VO
p4213
sg33
VVBZ
p4214
sg35
I4
ssg10
I417
sg36
g4
sg37
(dp4215
sg39
(dp4216
sg41
I2291
sg42
g21
sg43
g21
sg44
I417
sg45
Vhas
p4217
sg47
I417
sg48
I2294
sbag0
(g23
g2
Ntp4218
Rp4219
(dp4220
g27
(dp4221
g29
Vever
p4222
sg31
VO
p4223
sg33
VRB
p4224
sg35
I5
ssg10
I418
sg36
g4
sg37
(dp4225
sg39
(dp4226
sg41
I2295
sg42
g21
sg43
g21
sg44
I418
sg45
Vever
p4227
sg47
I418
sg48
I2299
sbag0
(g23
g2
Ntp4228
Rp4229
(dp4230
g27
(dp4231
g29
Vbe
p4232
sg31
VO
p4233
sg33
VVBN
p4234
sg35
I6
ssg10
I419
sg36
g4
sg37
(dp4235
sg39
(dp4236
sg41
I2300
sg42
g21
sg43
g21
sg44
I419
sg45
Vbeen
p4237
sg47
I419
sg48
I2304
sbag0
(g23
g2
Ntp4238
Rp4239
(dp4240
g27
(dp4241
g29
Vatmospherically
p4242
sg31
VO
p4243
sg33
VRB
p4244
sg35
I7
ssg10
I420
sg36
g4
sg37
(dp4245
sg39
(dp4246
sg41
I2305
sg42
g21
sg43
g21
sg44
I420
sg45
Vatmospherically
p4247
sg47
I420
sg48
I2320
sbag0
(g23
g2
Ntp4248
Rp4249
(dp4250
g27
(dp4251
g29
Vtest
p4252
sg31
VO
p4253
sg33
VVBN
p4254
sg35
I8
ssg10
I421
sg36
g4
sg37
(dp4255
sg39
(dp4256
sg41
I2321
sg42
g21
sg43
g21
sg44
I421
sg45
Vtested
p4257
sg47
I421
sg48
I2327
sbag0
(g23
g2
Ntp4258
Rp4259
(dp4260
g27
(dp4261
g29
Vand
p4262
sg31
VO
p4263
sg33
VCC
p4264
sg35
I9
ssg10
I422
sg36
g4
sg37
(dp4265
sg39
(dp4266
sg41
I2328
sg42
g21
sg43
g21
sg44
I422
sg45
Vand
p4267
sg47
I422
sg48
I2331
sbag0
(g23
g2
Ntp4268
Rp4269
(dp4270
g27
(dp4271
g29
Vas
p4272
sg31
VO
p4273
sg33
VIN
p4274
sg35
I10
ssg10
I423
sg36
g4
sg37
(dp4275
sg39
(dp4276
sg41
I2332
sg42
g21
sg43
g21
sg44
I423
sg45
Vas
p4277
sg47
I423
sg48
I2334
sbag0
(g23
g2
Ntp4278
Rp4279
(dp4280
g27
(dp4281
g29
Vfar
p4282
sg31
VO
p4283
sg33
VRB
p4284
sg35
I11
ssg10
I424
sg36
g4
sg37
(dp4285
sg39
(dp4286
sg41
I2335
sg42
g21
sg43
g21
sg44
I424
sg45
Vfar
p4287
sg47
I424
sg48
I2338
sbag0
(g23
g2
Ntp4288
Rp4289
(dp4290
g27
(dp4291
g29
Vas
p4292
sg31
VO
p4293
sg33
VRB
p4294
sg35
I12
ssg10
I425
sg36
g4
sg37
(dp4295
sg39
(dp4296
sg41
I2339
sg42
g21
sg43
g21
sg44
I425
sg45
Vas
p4297
sg47
I425
sg48
I2341
sbag0
(g23
g2
Ntp4298
Rp4299
(dp4300
g27
(dp4301
g29
Vbe
p4302
sg31
VO
p4303
sg33
VVBZ
p4304
sg35
I13
ssg10
I426
sg36
g4
sg37
(dp4305
sg39
(dp4306
sg41
I2342
sg42
g21
sg43
g21
sg44
I426
sg45
Vis
p4307
sg47
I426
sg48
I2344
sbag0
(g23
g2
Ntp4308
Rp4309
(dp4310
g27
(dp4311
g29
Vpublicly
p4312
sg31
VO
p4313
sg33
VRB
p4314
sg35
I14
ssg10
I427
sg36
g4
sg37
(dp4315
sg39
(dp4316
sg41
I2345
sg42
g21
sg43
g21
sg44
I427
sg45
Vpublicly
p4317
sg47
I427
sg48
I2353
sbag0
(g23
g2
Ntp4318
Rp4319
(dp4320
g27
(dp4321
g29
Vknown
p4322
sg31
VO
p4323
sg33
VJJ
p4324
sg35
I15
ssg10
I428
sg36
g4
sg37
(dp4325
sg39
(dp4326
sg41
I2354
sg42
g21
sg43
g21
sg44
I428
sg45
Vknown
p4327
sg47
I428
sg48
I2359
sbag0
(g23
g2
Ntp4328
Rp4329
(dp4330
g27
(dp4331
g29
Vnone
p4332
sg31
VO
p4333
sg33
VNN
p4334
sg35
I16
ssg10
I429
sg36
g4
sg37
(dp4335
sg39
(dp4336
sg41
I2360
sg42
g21
sg43
g21
sg44
I429
sg45
Vnone
p4337
sg47
I429
sg48
I2364
sbag0
(g23
g2
Ntp4338
Rp4339
(dp4340
g27
(dp4341
g29
Vhave
p4342
sg31
VO
p4343
sg33
VVBP
p4344
sg35
I17
ssg10
I430
sg36
g4
sg37
(dp4345
sg39
(dp4346
sg41
I2365
sg42
g21
sg43
g21
sg44
I430
sg45
Vhave
p4347
sg47
I430
sg48
I2369
sbag0
(g23
g2
Ntp4348
Rp4349
(dp4350
g27
(dp4351
g29
Vever
p4352
sg31
VO
p4353
sg33
VRB
p4354
sg35
I18
ssg10
I431
sg36
g4
sg37
(dp4355
sg39
(dp4356
sg41
I2370
sg42
g21
sg43
g21
sg44
I431
sg45
Vever
p4357
sg47
I431
sg48
I2374
sbag0
(g23
g2
Ntp4358
Rp4359
(dp4360
g27
(dp4361
g29
Vbe
p4362
sg31
VO
p4363
sg33
VVBN
p4364
sg35
I19
ssg10
I432
sg36
g4
sg37
(dp4365
sg39
(dp4366
sg41
I2375
sg42
g21
sg43
g21
sg44
I432
sg45
Vbeen
p4367
sg47
I432
sg48
I2379
sbag0
(g23
g2
Ntp4368
Rp4369
(dp4370
g27
(dp4371
g29
Vbuild
p4372
sg31
VO
p4373
sg33
VVBN
p4374
sg35
I20
ssg10
I433
sg36
g4
sg37
(dp4375
sg39
(dp4376
sg41
I2380
sg42
g21
sg43
g21
sg44
I433
sg45
Vbuilt
p4377
sg47
I433
sg48
I2385
sbag0
(g23
g2
Ntp4378
Rp4379
(dp4380
g27
(dp4381
g29
V-lsb-
p4382
sg31
VO
p4383
sg33
V-LRB-
p4384
sg35
I21
ssg10
I434
sg36
g4
sg37
(dp4385
sg39
(dp4386
sg41
I2386
sg42
g21
sg43
g21
sg44
I434
sg45
V[
p4387
sg47
I434
sg48
I2387
sbag0
(g23
g2
Ntp4388
Rp4389
(dp4390
g27
(dp4391
g29
Vref
p4392
sg31
VO
p4393
sg33
VNN
p4394
sg35
I22
ssg10
I435
sg36
g4
sg37
(dp4395
sg39
(dp4396
sg41
I2387
sg42
g21
sg43
g21
sg44
I435
sg45
VREF
p4397
sg47
I435
sg48
I2390
sbag0
(g23
g2
Ntp4398
Rp4399
(dp4400
g27
(dp4401
g29
V-rsb-
p4402
sg31
VO
p4403
sg33
V-RRB-
p4404
sg35
I23
ssg10
I436
sg36
g4
sg37
(dp4405
sg39
(dp4406
sg41
I2390
sg42
g21
sg43
g21
sg44
I436
sg45
V]
p4407
sg47
I436
sg48
I2391
sbag0
(g23
g2
Ntp4408
Rp4409
(dp4410
g27
(dp4411
g29
V.
p4412
sg31
VO
p4413
sg33
V.
p4414
sg35
I24
ssg10
I437
sg36
g4
sg37
(dp4415
sg39
(dp4416
sg41
I2391
sg42
g21
sg43
g21
sg44
I437
sg45
V.
p4417
sg47
I437
sg48
I2392
sbag0
(g23
g2
Ntp4418
Rp4419
(dp4420
g27
(dp4421
g29
Vthe
p4422
sg31
VO
p4423
sg33
VDT
p4424
sg35
I1
ssg10
I438
sg36
g4
sg37
(dp4425
sg39
(dp4426
sg41
I2393
sg42
g21
sg43
g21
sg44
I438
sg45
VThe
p4427
sg47
I438
sg48
I2396
sbag0
(g23
g2
Ntp4428
Rp4429
(dp4430
g27
(dp4431
g29
VUnited
p4432
sg31
VLOCATION
p4433
sg33
VNNP
p4434
sg35
I2
ssg10
I439
sg36
g4
sg37
(dp4435
sg39
(dp4436
sg41
I2397
sg42
g21
sg43
g21
sg44
I439
sg45
VUnited
p4437
sg47
I439
sg48
I2403
sbag0
(g23
g2
Ntp4438
Rp4439
(dp4440
g27
(dp4441
g29
VKingdom
p4442
sg31
VLOCATION
p4443
sg33
VNNP
p4444
sg35
I3
ssg10
I440
sg36
g4
sg37
(dp4445
sg39
(dp4446
sg41
I2404
sg42
g21
sg43
g21
sg44
I440
sg45
VKingdom
p4447
sg47
I440
sg48
I2411
sbag0
(g23
g2
Ntp4448
Rp4449
(dp4450
g27
(dp4451
g29
Vdo
p4452
sg31
VO
p4453
sg33
VVBD
p4454
sg35
I4
ssg10
I441
sg36
g4
sg37
(dp4455
sg39
(dp4456
sg41
I2412
sg42
g21
sg43
g21
sg44
I441
sg45
Vdid
p4457
sg47
I441
sg48
I2415
sbag0
(g23
g2
Ntp4458
Rp4459
(dp4460
g27
(dp4461
g29
Vtest
p4462
sg31
VO
p4463
sg33
VVB
p4464
sg35
I5
ssg10
I442
sg36
g4
sg37
(dp4465
sg39
(dp4466
sg41
I2416
sg42
g21
sg43
g21
sg44
I442
sg45
Vtest
p4467
sg47
I442
sg48
I2420
sbag0
(g23
g2
Ntp4468
Rp4469
(dp4470
g27
(dp4471
g29
Va
p4472
sg31
VO
p4473
sg33
VDT
p4474
sg35
I6
ssg10
I443
sg36
g4
sg37
(dp4475
sg39
(dp4476
sg41
I2421
sg42
g21
sg43
g21
sg44
I443
sg45
Va
p4477
sg47
I443
sg48
I2422
sbag0
(g23
g2
Ntp4478
Rp4479
(dp4480
g27
(dp4481
g29
V1
p4482
sg31
VNUMBER
p4483
sg33
VCD
p4484
sg35
I7
ssg10
I444
sg36
g4
sg37
(dp4485
sg39
(dp4486
sg41
I2423
sg42
g21
sg43
g21
sg44
I444
sg45
V1
p4487
sg47
I444
sg48
I2424
sbag0
(g23
g2
Ntp4488
Rp4489
(dp4490
g27
(dp4491
g29
Vkiloton
p4492
sg31
VO
p4493
sg33
VNN
p4494
sg35
I8
ssg10
I445
sg36
g4
sg37
(dp4495
sg39
(dp4496
sg41
I2425
sg42
g21
sg43
g21
sg44
I445
sg45
Vkiloton
p4497
sg47
I445
sg48
I2432
sbag0
(g23
g2
Ntp4498
Rp4499
(dp4500
g27
(dp4501
g29
Vbomb
p4502
sg31
VO
p4503
sg33
VNN
p4504
sg35
I9
ssg10
I446
sg36
g4
sg37
(dp4505
sg39
(dp4506
sg41
I2433
sg42
g21
sg43
g21
sg44
I446
sg45
Vbomb
p4507
sg47
I446
sg48
I2437
sbag0
(g23
g2
Ntp4508
Rp4509
(dp4510
g27
(dp4511
g29
Vincorporate
p4512
sg31
VO
p4513
sg33
VVBG
p4514
sg35
I10
ssg10
I447
sg36
g4
sg37
(dp4515
sg39
(dp4516
sg41
I2438
sg42
g21
sg43
g21
sg44
I447
sg45
Vincorporating
p4517
sg47
I447
sg48
I2451
sbag0
(g23
g2
Ntp4518
Rp4519
(dp4520
g27
(dp4521
g29
Va
p4522
sg31
VO
p4523
sg33
VDT
p4524
sg35
I11
ssg10
I448
sg36
g4
sg37
(dp4525
sg39
(dp4526
sg41
I2446
sg42
g21
sg43
g21
sg44
I448
sg45
Va
p4527
sg47
I448
sg48
I2447
sbag0
(g23
g2
Ntp4528
Rp4529
(dp4530
g27
(dp4531
g29
Vsmall
p4532
sg31
VO
p4533
sg33
VJJ
p4534
sg35
I12
ssg10
I449
sg36
g4
sg37
(dp4535
sg39
(dp4536
sg41
I2454
sg42
g21
sg43
g21
sg44
I449
sg45
Vsmall
p4537
sg47
I449
sg48
I2459
sbag0
(g23
g2
Ntp4538
Rp4539
(dp4540
g27
(dp4541
g29
Vamount
p4542
sg31
VO
p4543
sg33
VNN
p4544
sg35
I13
ssg10
I450
sg36
g4
sg37
(dp4545
sg39
(dp4546
sg41
I2460
sg42
g21
sg43
g21
sg44
I450
sg45
Vamount
p4547
sg47
I450
sg48
I2466
sbag0
(g23
g2
Ntp4548
Rp4549
(dp4550
g27
(dp4551
g29
Vof
p4552
sg31
VO
p4553
sg33
VIN
p4554
sg35
I14
ssg10
I451
sg36
g4
sg37
(dp4555
sg39
(dp4556
sg41
I2467
sg42
g21
sg43
g21
sg44
I451
sg45
Vof
p4557
sg47
I451
sg48
I2469
sbag0
(g23
g2
Ntp4558
Rp4559
(dp4560
g27
(dp4561
g29
Vcobalt
p4562
sg31
VO
p4563
sg33
VNN
p4564
sg35
I15
ssg10
I452
sg36
g4
sg37
(dp4565
sg39
(dp4566
sg41
I2470
sg42
g21
sg43
g21
sg44
I452
sg45
Vcobalt
p4567
sg47
I452
sg48
I2476
sbag0
(g23
g2
Ntp4568
Rp4569
(dp4570
g27
(dp4571
g29
Vas
p4572
sg31
VO
p4573
sg33
VIN
p4574
sg35
I16
ssg10
I453
sg36
g4
sg37
(dp4575
sg39
(dp4576
sg41
I2477
sg42
g21
sg43
g21
sg44
I453
sg45
Vas
p4577
sg47
I453
sg48
I2479
sbag0
(g23
g2
Ntp4578
Rp4579
(dp4580
g27
(dp4581
g29
Va
p4582
sg31
VO
p4583
sg33
VDT
p4584
sg35
I17
ssg10
I454
sg36
g4
sg37
(dp4585
sg39
(dp4586
sg41
I2480
sg42
g21
sg43
g21
sg44
I454
sg45
Van
p4587
sg47
I454
sg48
I2482
sbag0
(g23
g2
Ntp4588
Rp4589
(dp4590
g27
(dp4591
g29
Vexperimental
p4592
sg31
VO
p4593
sg33
VJJ
p4594
sg35
I18
ssg10
I455
sg36
g4
sg37
(dp4595
sg39
(dp4596
sg41
I2483
sg42
g21
sg43
g21
sg44
I455
sg45
Vexperimental
p4597
sg47
I455
sg48
I2495
sbag0
(g23
g2
Ntp4598
Rp4599
(dp4600
g27
(dp4601
g29
Vradiochemical
p4602
sg31
VO
p4603
sg33
VJJ
p4604
sg35
I19
ssg10
I456
sg36
g4
sg37
(dp4605
sg39
(dp4606
sg41
I2496
sg42
g21
sg43
g21
sg44
I456
sg45
Vradiochemical
p4607
sg47
I456
sg48
I2509
sbag0
(g23
g2
Ntp4608
Rp4609
(dp4610
g27
(dp4611
g29
Vtracer
p4612
sg31
VO
p4613
sg33
VNN
p4614
sg35
I20
ssg10
I457
sg36
g4
sg37
(dp4615
sg39
(dp4616
sg41
I2510
sg42
g21
sg43
g21
sg44
I457
sg45
Vtracer
p4617
sg47
I457
sg48
I2516
sbag0
(g23
g2
Ntp4618
Rp4619
(dp4620
g27
(dp4621
g29
Vat
p4622
sg31
VO
p4623
sg33
VIN
p4624
sg35
I21
ssg10
I458
sg36
g4
sg37
(dp4625
sg39
(dp4626
sg41
I2517
sg42
g21
sg43
g21
sg44
I458
sg45
Vat
p4627
sg47
I458
sg48
I2519
sbag0
(g23
g2
Ntp4628
Rp4629
(dp4630
g27
(dp4631
g29
Vthey
p4632
sg31
VO
p4633
sg33
VPRP$
p4634
sg35
I22
ssg10
I459
sg36
g4
sg37
(dp4635
sg39
(dp4636
sg41
I2520
sg42
g21
sg43
g21
sg44
I459
sg45
Vtheir
p4637
sg47
I459
sg48
I2525
sbag0
(g23
g2
Ntp4638
Rp4639
(dp4640
g27
(dp4641
g29
VTadje
p4642
sg31
VLOCATION
p4643
sg33
VNNP
p4644
sg35
I23
ssg10
I460
sg36
g4
sg37
(dp4645
sg39
(dp4646
sg41
I2526
sg42
g21
sg43
g21
sg44
I460
sg45
VTadje
p4647
sg47
I460
sg48
I2531
sbag0
(g23
g2
Ntp4648
Rp4649
(dp4650
g27
(dp4651
g29
Vtesting
p4652
sg31
VO
p4653
sg33
VNN
p4654
sg35
I24
ssg10
I461
sg36
g4
sg37
(dp4655
sg39
(dp4656
sg41
I2532
sg42
g21
sg43
g21
sg44
I461
sg45
Vtesting
p4657
sg47
I461
sg48
I2539
sbag0
(g23
g2
Ntp4658
Rp4659
(dp4660
g27
(dp4661
g29
Vsite
p4662
sg31
VO
p4663
sg33
VNN
p4664
sg35
I25
ssg10
I462
sg36
g4
sg37
(dp4665
sg39
(dp4666
sg41
I2540
sg42
g21
sg43
g21
sg44
I462
sg45
Vsite
p4667
sg47
I462
sg48
I2544
sbag0
(g23
g2
Ntp4668
Rp4669
(dp4670
g27
(dp4671
g29
Vin
p4672
sg31
VO
p4673
sg33
VIN
p4674
sg35
I26
ssg10
I463
sg36
g4
sg37
(dp4675
sg39
(dp4676
sg41
I2545
sg42
g21
sg43
g21
sg44
I463
sg45
Vin
p4677
sg47
I463
sg48
I2547
sbag0
(g23
g2
Ntp4678
Rp4679
(dp4680
g27
(dp4681
g29
VMaralinga
p4682
sg31
VLOCATION
p4683
sg33
VNNP
p4684
sg35
I27
ssg10
I464
sg36
g4
sg37
(dp4685
sg39
(dp4686
sg41
I2548
sg42
g21
sg43
g21
sg44
I464
sg45
VMaralinga
p4687
sg47
I464
sg48
I2557
sbag0
(g23
g2
Ntp4688
Rp4689
(dp4690
g27
(dp4691
g29
Vrange
p4692
sg31
VO
p4693
sg33
VNN
p4694
sg35
I28
ssg10
I465
sg36
g4
sg37
(dp4695
sg39
(dp4696
sg41
I2558
sg42
g21
sg43
g21
sg44
I465
sg45
Vrange
p4697
sg47
I465
sg48
I2563
sbag0
(g23
g2
Ntp4698
Rp4699
(dp4700
g27
(dp4701
g29
V,
p4702
sg31
VO
p4703
sg33
V,
p4704
sg35
I29
ssg10
I466
sg36
g4
sg37
(dp4705
sg39
(dp4706
sg41
I2563
sg42
g21
sg43
g21
sg44
I466
sg45
V,
p4707
sg47
I466
sg48
I2564
sbag0
(g23
g2
Ntp4708
Rp4709
(dp4710
g27
(dp4711
g29
VAustralia
p4712
sg31
VLOCATION
p4713
sg33
VNNP
p4714
sg35
I30
ssg10
I467
sg36
g4
sg37
(dp4715
sg39
(dp4716
sg41
I2565
sg42
g21
sg43
g21
sg44
I467
sg45
VAustralia
p4717
sg47
I467
sg48
I2574
sbag0
(g23
g2
Ntp4718
Rp4719
(dp4720
g27
(dp4721
g29
Von
p4722
sg31
VO
p4723
sg33
VIN
p4724
sg35
I31
ssg10
I468
sg36
g4
sg37
(dp4725
sg39
(dp4726
sg41
I2575
sg42
g21
sg43
g21
sg44
I468
sg45
Von
p4727
sg47
I468
sg48
I2577
sbag0
(g23
g2
Ntp4728
Rp4729
(dp4730
g27
(dp4731
g29
VSeptember
p4732
sg31
VDATE
p4733
sg33
VNNP
p4734
sg35
I32
ssg10
I469
sg36
g4
sg37
(dp4735
sg39
(dp4736
sg41
I2578
sg42
g21
sg43
g21
sg44
I469
sg45
VSeptember
p4737
sg47
I469
sg48
I2587
sbag0
(g23
g2
Ntp4738
Rp4739
(dp4740
g27
(dp4741
g29
V14
p4742
sg31
VDATE
p4743
sg33
VCD
p4744
sg35
I33
ssg10
I470
sg36
g4
sg37
(dp4745
sg39
(dp4746
sg41
I2588
sg42
g21
sg43
g21
sg44
I470
sg45
V14
p4747
sg47
I470
sg48
I2590
sbag0
(g23
g2
Ntp4748
Rp4749
(dp4750
g27
(dp4751
g29
V,
p4752
sg31
VDATE
p4753
sg33
V,
p4754
sg35
I34
ssg10
I471
sg36
g4
sg37
(dp4755
sg39
(dp4756
sg41
I2590
sg42
g21
sg43
g21
sg44
I471
sg45
V,
p4757
sg47
I471
sg48
I2591
sbag0
(g23
g2
Ntp4758
Rp4759
(dp4760
g27
(dp4761
g29
V1957
p4762
sg31
VDATE
p4763
sg33
VCD
p4764
sg35
I35
ssg10
I472
sg36
g4
sg37
(dp4765
sg39
(dp4766
sg41
I2592
sg42
g21
sg43
g21
sg44
I472
sg45
V1957
p4767
sg47
I472
sg48
I2596
sbag0
(g23
g2
Ntp4768
Rp4769
(dp4770
g27
(dp4771
g29
V-lsb-
p4772
sg31
VO
p4773
sg33
V-LRB-
p4774
sg35
I36
ssg10
I473
sg36
g4
sg37
(dp4775
sg39
(dp4776
sg41
I2596
sg42
g21
sg43
g21
sg44
I473
sg45
V[
p4777
sg47
I473
sg48
I2597
sbag0
(g23
g2
Ntp4778
Rp4779
(dp4780
g27
(dp4781
g29
Vref
p4782
sg31
VO
p4783
sg33
VNN
p4784
sg35
I37
ssg10
I474
sg36
g4
sg37
(dp4785
sg39
(dp4786
sg41
I2597
sg42
g21
sg43
g21
sg44
I474
sg45
VREF
p4787
sg47
I474
sg48
I2600
sbag0
(g23
g2
Ntp4788
Rp4789
(dp4790
g27
(dp4791
g29
V-rsb-
p4792
sg31
VO
p4793
sg33
V-RRB-
p4794
sg35
I38
ssg10
I475
sg36
g4
sg37
(dp4795
sg39
(dp4796
sg41
I2600
sg42
g21
sg43
g21
sg44
I475
sg45
V]
p4797
sg47
I475
sg48
I2601
sbag0
(g23
g2
Ntp4798
Rp4799
(dp4800
g27
(dp4801
g29
V.
p4802
sg31
VO
p4803
sg33
V.
p4804
sg35
I39
ssg10
I476
sg36
g4
sg37
(dp4805
sg39
(dp4806
sg41
I2601
sg42
g21
sg43
g21
sg44
I476
sg45
V.
p4807
sg47
I476
sg48
I2602
sbasS'Document'
p4808
(lp4809
g4
asS'doc-features'
p4810
g14
sS'Sentence'
p4811
(lp4812
g0
(g23
g2
Ntp4813
Rp4814
(dp4815
g27
(dp4816
S'dep-parse'
p4817
S'not implemented!'
p4818
sg35
I0
sS'constituency-parse'
p4819
V(ROOT\u000a  (NP (. .)))
p4820
ssg10
I0
sg36
g4
sg37
(dp4821
sg39
(dp4822
S'tokens'
p4823
(lp4824
g25
assg41
I0
sg42
g4811
sg43
g4811
sg44
I0
sg45
V.
p4825
sg47
I1
sg48
I1
sbag0
(g23
g2
Ntp4826
Rp4827
(dp4828
g27
(dp4829
g4817
g4818
sg35
I1
sg4819
V(ROOT\u000a  (S\u000a    (NP (DT A) (JJ salted) (NN bomb))\u000a    (VP (VBZ is)\u000a      (NP\u000a        (NP (DT a) (NN variation))\u000a        (PP (IN of)\u000a          (NP\u000a            (NP (DT a) (JJ nuclear) (NN weapon))\u000a            (VP (VBN designed)\u000a              (S\u000a                (VP (TO to)\u000a                  (VP (VB produce)\u000a                    (NP\u000a                      (NP (VBN enhanced) (NNS quantities))\u000a                      (PP (IN of)\u000a                        (NP (JJ radioactive) (NN fallout)))))))\u000a              (, ,)\u000a              (S\u000a                (VP (VBG rendering)\u000a                  (NP (DT a) (JJ large) (NN area) (JJ uninhabitable) (-LRB- -LSB-) (NN REF) (-RRB- -RSB-)))))))))\u000a    (. .)))
p4830
ssg10
I1
sg36
g4
sg37
(dp4831
sg39
(dp4832
g4823
(lp4833
g50
ag60
ag70
ag80
ag90
ag100
ag110
ag120
ag130
ag140
ag150
ag160
ag170
ag180
ag190
ag200
ag210
ag220
ag230
ag240
ag250
ag260
ag270
ag280
ag290
ag300
ag310
ag320
assg41
I4
sg42
g4811
sg43
g4811
sg44
I1
sg45
V \u000a\u000aA salted bomb is a variation of a nuclear weapon designed to produce enhanced quantities of radioactive fallout, rendering a large area uninhabitable [REF].
p4834
sg47
I29
sg48
I160
sbag0
(g23
g2
Ntp4835
Rp4836
(dp4837
g27
(dp4838
g4817
g4818
sg35
I2
sg4819
V(ROOT\u000a  (S\u000a    (NP (DT The) (NN term))\u000a    (VP (VBZ is)\u000a      (VP (VBN derived)\u000a        (PP (DT both)\u000a          (PP (IN from)\u000a            (NP\u000a              (NP (DT the) (NNS means))\u000a              (PP (IN of)\u000a                (NP\u000a                  (NP (PRP$ their) (NN manufacture))\u000a                  (, ,)\u000a                  (SBAR\u000a                    (WHNP (WDT which))\u000a                    (S\u000a                      (VP (VBZ involves)\u000a                        (NP\u000a                          (NP (DT the) (NN incorporation))\u000a                          (PP (IN of)\u000a                            (NP (JJ additional) (NNS elements))))\u000a                        (PP (TO to)\u000a                          (NP (DT a) (JJ standard) (JJ atomic) (NN weapon))))))\u000a                  (, ,)))))\u000a          (CC and)\u000a          (PP (IN from)\u000a            (NP\u000a              (NP (DT the) (NN expression))\u000a              (`` ``)\u000a              (PP (TO to)\u000a                (NP\u000a                  (NP\u000a                    (NP (NN salt))\u000a                    (NP (DT the) (NN earth) ('' '')))\u000a                  (, ,)\u000a                  (VP (VBG meaning)\u000a                    (S\u000a                      (VP (TO to)\u000a                        (VP (VB render)\u000a                          (NP\u000a                            (NP (DT an) (NN area) (JJ uninhabitable))\u000a                            (PP (IN for)\u000a                              (NP (NNS generations)))))))))))))))\u000a    (. .)))
p4839
ssg10
I2
sg36
g4
sg37
(dp4840
sg39
(dp4841
g4823
(lp4842
g330
ag340
ag350
ag360
ag370
ag380
ag390
ag400
ag410
ag420
ag430
ag440
ag450
ag460
ag470
ag480
ag490
ag500
ag510
ag520
ag530
ag540
ag550
ag560
ag570
ag580
ag590
ag600
ag610
ag620
ag630
ag640
ag650
ag660
ag670
ag679
ag689
ag699
ag709
ag719
ag729
ag739
ag749
ag759
ag769
assg41
I161
sg42
g4811
sg43
g4811
sg44
I29
sg45
V The term is derived both from the means of their manufacture, which involves the incorporation of additional elements to a standard atomic weapon, and from the expression "to salt the earth", meaning to render an area uninhabitable for generations.
p4843
sg47
I74
sg48
I409
sbag0
(g23
g2
Ntp4844
Rp4845
(dp4846
g27
(dp4847
g4817
g4818
sg35
I3
sg4819
V(ROOT\u000a  (S\u000a    (NP (DT The) (NN idea))\u000a    (VP (VBD originated)\u000a      (PP (IN with)\u000a        (NP (JJ Hungarian-American) (NN physicist) (NNP Leo) (NNP Szilard)))\u000a      (, ,)\u000a      (PP (IN in)\u000a        (NP (NNP February) (CD 1950))))\u000a    (. .)))
p4848
ssg10
I3
sg36
g4
sg37
(dp4849
sg39
(dp4850
g4823
(lp4851
g779
ag789
ag799
ag809
ag819
ag829
ag839
ag849
ag859
ag869
ag879
ag889
ag899
assg41
I410
sg42
g4811
sg43
g4811
sg44
I74
sg45
V The idea originated with Hungarian-American physicist Leo Szilard, in February 1950.
p4852
sg47
I87
sg48
I494
sbag0
(g23
g2
Ntp4853
Rp4854
(dp4855
g27
(dp4856
g4817
g4818
sg35
I4
sg4819
V(ROOT\u000a  (S\u000a    (NP (PRP$ His) (NN intent))\u000a    (VP (VBD was) (RB not)\u000a      (S\u000a        (VP\u000a          (VP (TO to)\u000a            (VP (VB propose)\u000a              (SBAR (IN that)\u000a                (S\u000a                  (NP (PDT such) (DT a) (NN weapon))\u000a                  (VP (VB be)\u000a                    (VP (VBN built)))))))\u000a          (, ,)\u000a          (CC but)\u000a          (VP (TO to)\u000a            (VP (VB show)\u000a              (SBAR (IN that)\u000a                (S\u000a                  (NP (JJ nuclear) (NN weapon) (NN technology))\u000a                  (VP (MD would)\u000a                    (ADVP (RB soon))\u000a                    (VP (VB reach)\u000a                      (NP (DT the) (NN point))\u000a                      (SBAR\u000a                        (WHADVP (WRB where))\u000a                        (S\u000a                          (NP (PRP it))\u000a                          (VP (MD could)\u000a                            (VP (VB end)\u000a                              (NP (JJ human) (NN life))\u000a                              (PP (IN on)\u000a                                (NP (NNP Earth) (-LRB- -LSB-) (NNP REF) (-RRB- -RSB-))))))))))))))))\u000a    (. .)))
p4857
ssg10
I4
sg36
g4
sg37
(dp4858
sg39
(dp4859
g4823
(lp4860
g909
ag919
ag929
ag939
ag949
ag959
ag969
ag979
ag989
ag999
ag1009
ag1019
ag1029
ag1039
ag1049
ag1059
ag1069
ag1079
ag1089
ag1099
ag1109
ag1119
ag1129
ag1139
ag1149
ag1159
ag1169
ag1179
ag1189
ag1199
ag1209
ag1219
ag1229
ag1239
ag1249
ag1259
ag1269
assg41
I495
sg42
g4811
sg43
g4811
sg44
I87
sg45
V His intent was not to propose that such a weapon be built, but to show that nuclear weapon technology would soon reach the point where it could end human life on Earth [REF].
p4861
sg47
I124
sg48
I669
sbag0
(g23
g2
Ntp4862
Rp4863
(dp4864
g27
(dp4865
g4817
g4818
sg35
I5
sg4819
V(ROOT\u000a  (S\u000a    (NP\u000a      (NP (JJ Salted) (NNS versions))\u000a      (PP (IN of)\u000a        (NP (DT both) (NN fission)\u000a          (CC and)\u000a          (NN fusion) (NNS weapons))))\u000a    (VP (MD can)\u000a      (VP (VB be)\u000a        (VP (VBN made)\u000a          (PP (IN by)\u000a            (S\u000a              (VP (VBG surrounding)\u000a                (NP\u000a                  (NP (DT the) (NN core))\u000a                  (PP (IN of)\u000a                    (NP (DT the) (JJ explosive) (NN device))))\u000a                (PP (IN with)\u000a                  (NP\u000a                    (NP (DT a) (NN material))\u000a                    (VP (VBG containing)\u000a                      (NP\u000a                        (NP (DT an) (NN element))\u000a                        (SBAR\u000a                          (WHNP (WDT that))\u000a                          (S\u000a                            (VP (MD can)\u000a                              (VP (VB be)\u000a                                (VP (VBN converted)\u000a                                  (PP (TO to)\u000a                                    (NP (DT a)\u000a                                      (ADJP (RB highly) (JJ radioactive))\u000a                                      (NN isotope)))\u000a                                  (PP (IN by)\u000a                                    (NP (NN neutron) (NN bombardment) (-LRB- -LSB-) (NN REF) (-RRB- -RSB-))))))))))))))))))\u000a    (. .)))
p4866
ssg10
I5
sg36
g4
sg37
(dp4867
sg39
(dp4868
g4823
(lp4869
g1279
ag1289
ag1299
ag1309
ag1319
ag1329
ag1339
ag1349
ag1359
ag1369
ag1379
ag1389
ag1399
ag1409
ag1419
ag1429
ag1439
ag1449
ag1459
ag1469
ag1479
ag1489
ag1499
ag1509
ag1519
ag1529
ag1539
ag1549
ag1559
ag1569
ag1579
ag1589
ag1599
ag1609
ag1619
ag1629
ag1639
ag1649
ag1659
ag1669
ag1679
assg41
I672
sg42
g4811
sg43
g4811
sg44
I124
sg45
V \u000a\u000aSalted versions of both fission and fusion weapons can be made by surrounding the core of the explosive device with a material containing an element that can be converted to a highly radioactive isotope by neutron bombardment [REF].
p4870
sg47
I165
sg48
I904
sbag0
(g23
g2
Ntp4871
Rp4872
(dp4873
g27
(dp4874
g4817
g4818
sg35
I6
sg4819
V(ROOT\u000a  (S\u000a    (SBAR\u000a      (WHADVP (WRB When))\u000a      (S\u000a        (NP (DT the) (NN bomb))\u000a        (VP (VBZ explodes))))\u000a    (, ,)\u000a    (NP (DT the) (NN element))\u000a    (VP (VBZ absorbs)\u000a      (NP\u000a        (NP (NNS neutrons))\u000a        (VP (VBN released)\u000a          (PP (IN by)\u000a            (NP (DT the) (JJ nuclear) (NN reaction)))\u000a          (, ,)\u000a          (S\u000a            (VP (VBG converting)\u000a              (NP (PRP it))\u000a              (PP (TO to)\u000a                (NP (PRP$ its) (JJ radioactive) (NN form))))))))\u000a    (. .)))
p4875
ssg10
I6
sg36
g4
sg37
(dp4876
sg39
(dp4877
g4823
(lp4878
g1689
ag1699
ag1709
ag1719
ag1729
ag1739
ag1749
ag1759
ag1769
ag1779
ag1789
ag1799
ag1809
ag1819
ag1829
ag1839
ag1849
ag1859
ag1869
ag1879
ag1889
ag1899
assg41
I905
sg42
g4811
sg43
g4811
sg44
I165
sg45
V When the bomb explodes, the element absorbs neutrons released by the nuclear reaction, converting it to its radioactive form.
p4879
sg47
I187
sg48
I1030
sbag0
(g23
g2
Ntp4880
Rp4881
(dp4882
g27
(dp4883
g4817
g4818
sg35
I7
sg4819
V(ROOT\u000a  (S\u000a    (NP (DT The) (NN explosion))\u000a    (VP (VBZ scatters)\u000a      (NP\u000a        (NP\u000a          (NP (DT the) (VBG resulting) (JJ radioactive) (NN material))\u000a          (PP (IN over)\u000a            (NP (DT a) (JJ wide) (NN area))))\u000a        (, ,)\u000a        (VP (VBG leaving)\u000a          (NP (PRP it) (JJ uninhabitable))\u000a          (ADVP (RB far) (JJR longer))\u000a          (PP (IN than)\u000a            (NP\u000a              (NP (DT an) (NN area))\u000a              (VP (VBN affected)\u000a                (PP (IN by)\u000a                  (NP (JJ typical) (JJ nuclear) (NNS weapons)))))))))\u000a    (. .)))
p4884
ssg10
I7
sg36
g4
sg37
(dp4885
sg39
(dp4886
g4823
(lp4887
g1909
ag1919
ag1929
ag1939
ag1949
ag1959
ag1969
ag1979
ag1989
ag1999
ag2009
ag2019
ag2029
ag2039
ag2049
ag2059
ag2069
ag2079
ag2089
ag2099
ag2109
ag2119
ag2129
ag2139
ag2149
ag2159
assg41
I1031
sg42
g4811
sg43
g4811
sg44
I187
sg45
V The explosion scatters the resulting radioactive material over a wide area, leaving it uninhabitable far longer than an area affected by typical nuclear weapons.
p4888
sg47
I213
sg48
I1192
sbag0
(g23
g2
Ntp4889
Rp4890
(dp4891
g27
(dp4892
g4817
g4818
sg35
I8
sg4819
V(ROOT\u000a  (S\u000a    (PP (IN In)\u000a      (NP (DT a) (JJ salted) (NN hydrogen) (NN bomb)))\u000a    (, ,)\u000a    (NP\u000a      (NP (DT the) (NN radiation) (NN case))\u000a      (PP (IN around)\u000a        (NP (DT the) (NN fusion) (NN fuel)))\u000a      (, ,)\u000a      (SBAR\u000a        (WHNP (WDT which))\u000a        (S\u000a          (ADVP (RB normally))\u000a          (VP (VBZ is)\u000a            (VP (VBN made)\u000a              (PP (IN of)\u000a                (NP (DT some) (JJ fissionable) (NN element)))))))\u000a      (, ,))\u000a    (VP (VBZ is)\u000a      (VP (VBN replaced)\u000a        (PP (IN with)\u000a          (NP (DT a) (JJ metallic) (NN salting) (NN element)))))\u000a    (. .)))
p4893
ssg10
I8
sg36
g4
sg37
(dp4894
sg39
(dp4895
g4823
(lp4896
g2169
ag2179
ag2189
ag2199
ag2209
ag2219
ag2229
ag2239
ag2249
ag2259
ag2269
ag2279
ag2289
ag2299
ag2309
ag2319
ag2329
ag2339
ag2349
ag2359
ag2369
ag2379
ag2389
ag2399
ag2409
ag2419
ag2429
ag2439
ag2449
ag2459
ag2469
assg41
I1195
sg42
g4811
sg43
g4811
sg44
I213
sg45
V \u000a\u000aIn a salted hydrogen bomb, the radiation case around the fusion fuel, which normally is made of some fissionable element, is replaced with a metallic salting element.
p4897
sg47
I244
sg48
I1361
sbag0
(g23
g2
Ntp4898
Rp4899
(dp4900
g27
(dp4901
g4817
g4818
sg35
I9
sg4819
V(ROOT\u000a  (S\u000a    (NP (JJ Salted) (NN fission) (NNS bombs))\u000a    (VP (MD can)\u000a      (VP (VB be)\u000a        (VP (VBN made)\u000a          (PP (IN by)\u000a            (S\u000a              (VP (VBG replacing)\u000a                (NP\u000a                  (NP (DT the) (NN neutron) (NN reflector))\u000a                  (PP (IN between)\u000a                    (NP\u000a                      (NP (DT the) (JJ fissionable) (NN core))\u000a                      (CC and)\u000a                      (NP (DT the) (JJ explosive) (NN layer)))))\u000a                (PP (IN with)\u000a                  (NP (DT a) (JJ metallic) (NN element)))))))))\u000a    (. .)))
p4902
ssg10
I9
sg36
g4
sg37
(dp4903
sg39
(dp4904
g4823
(lp4905
g2479
ag2489
ag2499
ag2509
ag2519
ag2529
ag2539
ag2549
ag2559
ag2569
ag2579
ag2589
ag2599
ag2609
ag2619
ag2629
ag2639
ag2649
ag2659
ag2669
ag2679
ag2689
ag2699
ag2709
assg41
I1362
sg42
g4811
sg43
g4811
sg44
I244
sg45
V Salted fission bombs can be made by replacing the neutron reflector between the fissionable core and the explosive layer with a metallic element.
p4906
sg47
I268
sg48
I1507
sbag0
(g23
g2
Ntp4907
Rp4908
(dp4909
g27
(dp4910
g4817
g4818
sg35
I10
sg4819
V(ROOT\u000a  (S\u000a    (NP\u000a      (NP (DT The) (NN energy) (NN yield))\u000a      (PP (IN from)\u000a        (NP (DT a) (JJ salted) (NN weapon))))\u000a    (VP (VBZ is)\u000a      (ADJP\u000a        (ADJP (RB usually) (JJR lower)\u000a          (PP (IN than)\u000a            (PP (IN from)\u000a              (NP\u000a                (NP (DT an) (JJ ordinary) (NN weapon))\u000a                (PP (IN of)\u000a                  (NP (JJ similar) (NN size)))))))\u000a        (PP (IN as)\u000a          (NP\u000a            (NP (DT a) (NN consequence))\u000a            (PP (IN of)\u000a              (NP (DT these) (NNS changes)))))))\u000a    (. .)))
p4911
ssg10
I10
sg36
g4
sg37
(dp4912
sg39
(dp4913
g4823
(lp4914
g2719
ag2729
ag2739
ag2749
ag2759
ag2769
ag2779
ag2789
ag2799
ag2809
ag2819
ag2829
ag2839
ag2849
ag2859
ag2869
ag2879
ag2889
ag2899
ag2909
ag2919
ag2929
ag2939
ag2949
ag2959
assg41
I1508
sg42
g4811
sg43
g4811
sg44
I268
sg45
V The energy yield from a salted weapon is usually lower than from an ordinary weapon of similar size as a consequence of these changes.
p4915
sg47
I293
sg48
I1642
sbag0
(g23
g2
Ntp4916
Rp4917
(dp4918
g27
(dp4919
g4817
g4818
sg35
I11
sg4819
V(ROOT\u000a  (S\u000a    (NP\u000a      (NP (DT The) (JJ radioactive) (NN isotope))\u000a      (VP (VBN chosen)\u000a        (PP (IN for)\u000a          (NP (DT the) (NN fallout) (NN material)))))\u000a    (VP (VBZ is)\u000a      (ADVP (RB usually))\u000a      (NP (DT a) (JJ high) (NN intensity) (NN gamma) (NN ray) (NN emitter))\u000a      (, ,)\u000a      (PP (IN with)\u000a        (NP (DT a) (NN half-life)))\u000a      (ADVP\u000a        (ADVP (RB long) (RB enough))\u000a        (SBAR (IN that)\u000a          (S\u000a            (NP (PRP it))\u000a            (VP (VBZ remains)\u000a              (ADJP (JJ lethal)\u000a                (PP (IN for)\u000a                  (NP (DT an) (JJ extended) (NN period)))))))))\u000a    (. .)))
p4920
ssg10
I11
sg36
g4
sg37
(dp4921
sg39
(dp4922
g4823
(lp4923
g2969
ag2979
ag2989
ag2999
ag3009
ag3019
ag3029
ag3039
ag3049
ag3059
ag3069
ag3079
ag3089
ag3099
ag3109
ag3119
ag3129
ag3139
ag3149
ag3159
ag3169
ag3179
ag3189
ag3199
ag3209
ag3219
ag3229
ag3239
ag3249
ag3259
ag3269
assg41
I1645
sg42
g4811
sg43
g4811
sg44
I293
sg45
V \u000a\u000aThe radioactive isotope chosen for the fallout material is usually a high intensity gamma ray emitter, with a half-life long enough that it remains lethal for an extended period.
p4924
sg47
I324
sg48
I1823
sbag0
(g23
g2
Ntp4925
Rp4926
(dp4927
g27
(dp4928
g4817
g4818
sg35
I12
sg4819
V(ROOT\u000a  (S\u000a    (NP (PRP It))\u000a    (ADVP (RB also))\u000a    (VP (MD must)\u000a      (VP (VB have)\u000a        (NP\u000a          (NP (DT a) (NN chemistry))\u000a          (SBAR\u000a            (WHNP (WDT that))\u000a            (S\u000a              (VP (VBZ causes)\u000a                (S\u000a                  (NP (PRP it))\u000a                  (VP (TO to)\u000a                    (VP\u000a                      (VP (VB return)\u000a                        (PP (TO to)\u000a                          (NP (NN earth)))\u000a                        (PP (IN as)\u000a                          (NP (NN fallout))))\u000a                      (, ,)\u000a                      (CONJP (RB rather) (IN than))\u000a                      (VP (VB stay)\u000a                        (PP (IN in)\u000a                          (NP (DT the) (NN atmosphere)))\u000a                        (PP (IN after)\u000a                          (S\u000a                            (VP (VBG being)\u000a                              (VP (VBN vaporized)\u000a                                (PP (IN in)\u000a                                  (NP (DT the) (NN explosion)))))))))))))))))\u000a    (. .)))
p4929
ssg10
I12
sg36
g4
sg37
(dp4930
sg39
(dp4931
g4823
(lp4932
g3279
ag3289
ag3299
ag3309
ag3319
ag3329
ag3339
ag3349
ag3359
ag3369
ag3379
ag3389
ag3399
ag3409
ag3419
ag3429
ag3439
ag3449
ag3459
ag3469
ag3479
ag3489
ag3499
ag3509
ag3519
ag3529
ag3539
ag3549
ag3559
assg41
I1824
sg42
g4811
sg43
g4811
sg44
I324
sg45
V It also must have a chemistry that causes it to return to earth as fallout, rather than stay in the atmosphere after being vaporized in the explosion.
p4933
sg47
I353
sg48
I1974
sbag0
(g23
g2
Ntp4934
Rp4935
(dp4936
g27
(dp4937
g4817
g4818
sg35
I13
sg4819
V(ROOT\u000a  (S\u000a    (NP\u000a      (NP (CD One) (NN example))\u000a      (PP (IN of)\u000a        (NP (DT a) (JJ salted) (NN bomb))))\u000a    (VP (VBZ is)\u000a      (NP\u000a        (NP (DT a) (VBN proposed) (NN cobalt) (NN bomb))\u000a        (, ,)\u000a        (SBAR\u000a          (WHNP (WDT which))\u000a          (S\u000a            (VP (VBZ produces)\u000a              (NP\u000a                (NP (DT the) (JJ radioactive) (NN isotope) (NN cobalt-60))\u000a                (PRN (-LRB- -LRB-)\u000a                  (NP (NN 60Co))\u000a                  (-RRB- -RRB-))))))))\u000a    (. .)))
p4938
ssg10
I13
sg36
g4
sg37
(dp4939
sg39
(dp4940
g4823
(lp4941
g3569
ag3579
ag3589
ag3599
ag3609
ag3619
ag3629
ag3639
ag3649
ag3659
ag3669
ag3679
ag3689
ag3699
ag3709
ag3719
ag3729
ag3739
ag3749
ag3759
ag3769
ag3779
assg41
I1977
sg42
g4811
sg43
g4811
sg44
I353
sg45
V \u000a\u000aOne example of a salted bomb is a proposed cobalt bomb, which produces the radioactive isotope cobalt-60 (60Co).
p4942
sg47
I375
sg48
I2089
sbag0
(g23
g2
Ntp4943
Rp4944
(dp4945
g27
(dp4946
g4817
g4818
sg35
I14
sg4819
V(ROOT\u000a  (S\u000a    (NP (JJ Other) (JJ non-fissionable) (NNS isotopes))\u000a    (VP (MD can)\u000a      (VP (VB be)\u000a        (VP (VBN produced) (, ,)\u000a          (PP (VBG including)\u000a            (NP\u000a              (NP\u000a                (NP (NN gold-198))\u000a                (PRN (-LRB- -LRB-)\u000a                  (NP (NN 198Au))\u000a                  (-RRB- -RRB-)))\u000a              (, ,)\u000a              (NP\u000a                (NP (NN tantalum-182))\u000a                (PRN (-LRB- -LRB-)\u000a                  (NP (NN 182Ta))\u000a                  (-RRB- -RRB-)))\u000a              (CC and)\u000a              (NP\u000a                (NP\u000a                  (NP (NN zinc-65))\u000a                  (PRN (-LRB- -LRB-)\u000a                    (NP (NN 65Zn))\u000a                    (-RRB- -RRB-)))\u000a                (PP (-LRB- -LSB-)\u000a                  (NP (NN REF) (-RRB- -RSB-)))))))))\u000a    (. .)))
p4947
ssg10
I14
sg36
g4
sg37
(dp4948
sg39
(dp4949
g4823
(lp4950
g3789
ag3799
ag3809
ag3819
ag3829
ag3839
ag3849
ag3859
ag3869
ag3879
ag3889
ag3899
ag3909
ag3919
ag3929
ag3939
ag3949
ag3959
ag3969
ag3979
ag3989
ag3999
ag4009
ag4019
ag4029
ag4039
assg41
I2090
sg42
g4811
sg43
g4811
sg44
I375
sg45
V Other non-fissionable isotopes can be produced, including gold-198 \u000a(198Au), tantalum-182 (182Ta) and zinc-65 \u000a(65Zn) [REF].
p4951
sg47
I401
sg48
I2214
sbag0
(g23
g2
Ntp4952
Rp4953
(dp4954
g27
(dp4955
g4817
g4818
sg35
I15
sg4819
V(ROOT\u000a  (S\u000a    (NP (NN Sodium-23))\u000a    (VP (VBZ has)\u000a      (ADVP (RB also))\u000a      (VP (VBN been)\u000a        (VP (VBN proposed)\u000a          (PP (IN as)\u000a            (NP\u000a              (NP (DT a) (JJ salting) (NN agent))\u000a              (PP (-LRB- -LSB-)\u000a                (NP (NN REF) (-RRB- -RSB-))))))))\u000a    (. .)))
p4956
ssg10
I15
sg36
g4
sg37
(dp4957
sg39
(dp4958
g4823
(lp4959
g4049
ag4059
ag4069
ag4079
ag4089
ag4099
ag4109
ag4119
ag4129
ag4139
ag4149
ag4159
ag4169
assg41
I2215
sg42
g4811
sg43
g4811
sg44
I401
sg45
V Sodium-23 has also been proposed as a salting agent [REF].
p4960
sg47
I414
sg48
I2273
sbag0
(g23
g2
Ntp4961
Rp4962
(dp4963
g27
(dp4964
g4817
g4818
sg35
I16
sg4819
V(ROOT\u000a  (S\u000a    (S\u000a      (NP (DT No) (JJ salted) (NN bomb))\u000a      (VP (VBZ has)\u000a        (ADVP (RB ever))\u000a        (VP (VBN been)\u000a          (VP\u000a            (ADVP (RB atmospherically))\u000a            (VBN tested)))))\u000a    (CC and)\u000a    (S\u000a      (SBAR (IN as)\u000a        (S\u000a          (ADVP (RB far) (RB as))\u000a          (VP (VBZ is)\u000a            (ADJP (RB publicly) (JJ known)))))\u000a      (NP (NN none))\u000a      (VP (VBP have)\u000a        (ADVP (RB ever))\u000a        (VP (VBN been)\u000a          (VP (VBN built)\u000a            (PP (-LRB- -LSB-)\u000a              (NP (NN REF) (-RRB- -RSB-)))))))\u000a    (. .)))
p4965
ssg10
I16
sg36
g4
sg37
(dp4966
sg39
(dp4967
g4823
(lp4968
g4179
ag4189
ag4199
ag4209
ag4219
ag4229
ag4239
ag4249
ag4259
ag4269
ag4279
ag4289
ag4299
ag4309
ag4319
ag4329
ag4339
ag4349
ag4359
ag4369
ag4379
ag4389
ag4399
ag4409
assg41
I2276
sg42
g4811
sg43
g4811
sg44
I414
sg45
V \u000a\u000aNo salted bomb has ever been atmospherically tested and as far as is publicly known none have ever been built [REF].
p4969
sg47
I438
sg48
I2392
sbag0
(g23
g2
Ntp4970
Rp4971
(dp4972
g27
(dp4973
g4817
g4818
sg35
I17
sg4819
V(ROOT\u000a  (S\u000a    (NP (DT The) (NNP United) (NNP Kingdom))\u000a    (VP (VBD did)\u000a      (VP (VB test)\u000a        (NP\u000a          (NP (DT a) (CD 1) (NN kiloton) (NN bomb))\u000a          (VP (VBG incorporating)\u000a            (NP\u000a              (NP (DT a) (JJ small) (NN amount))\u000a              (PP (IN of)\u000a                (NP (NN cobalt))))\u000a            (PP (IN as)\u000a              (NP\u000a                (NP (DT an) (JJ experimental) (JJ radiochemical) (NN tracer))\u000a                (PP (IN at)\u000a                  (NP\u000a                    (NP (PRP$ their) (NNP Tadje) (NN testing) (NN site))\u000a                    (PP (IN in)\u000a                      (NP (NNP Maralinga) (NN range)))))))\u000a            (, ,)\u000a            (NP\u000a              (NP (NNP Australia))\u000a              (PP (IN on)\u000a                (NP (NNP September) (CD 14) (, ,) (CD 1957)))\u000a              (PP (-LRB- -LSB-)\u000a                (NP (NN REF) (-RRB- -RSB-))))))))\u000a    (. .)))
p4974
ssg10
I17
sg36
g4
sg37
(dp4975
sg39
(dp4976
g4823
(lp4977
g4419
ag4429
ag4439
ag4449
ag4459
ag4469
ag4479
ag4489
ag4499
ag4509
ag4519
ag4529
ag4539
ag4549
ag4559
ag4569
ag4579
ag4589
ag4599
ag4609
ag4619
ag4629
ag4639
ag4649
ag4659
ag4669
ag4679
ag4689
ag4699
ag4709
ag4719
ag4729
ag4739
ag4749
ag4759
ag4769
ag4779
ag4789
ag4799
assg41
I2393
sg42
g4811
sg43
g4811
sg44
I438
sg45
V The United Kingdom did test a 1 kiloton bomb incorporating a small amount of cobalt as an experimental radiochemical tracer at their Tadje testing site in Maralinga range, Australia on September 14, 1957[REF].
p4978
sg47
I477
sg48
I2602
sbassg37
(dp4979
sg39
(dp4980
sg47
I-1
sg4823
g22
sg42
g4808
sg36
Nsg27
(dp4981
sg44
I0
sg45
V. \u000a\u000aA salted bomb is a variation of a nuclear weapon designed to produce enhanced quantities of radioactive fallout, rendering a large area uninhabitable [REF]. The term is derived both from the means of their manufacture, which involves the incorporation of additional elements to a standard atomic weapon, and from the expression "to salt the earth", meaning to render an area uninhabitable for generations. The idea originated with Hungarian-American physicist Leo Szilard, in February 1950. His intent was not to propose that such a weapon be built, but to show that nuclear weapon technology would soon reach the point where it could end human life on Earth [REF]. \u000a\u000aSalted versions of both fission and fusion weapons can be made by surrounding the core of the explosive device with a material containing an element that can be converted to a highly radioactive isotope by neutron bombardment [REF]. When the bomb explodes, the element absorbs neutrons released by the nuclear reaction, converting it to its radioactive form. The explosion scatters the resulting radioactive material over a wide area, leaving it uninhabitable far longer than an area affected by typical nuclear weapons. \u000a\u000aIn a salted hydrogen bomb, the radiation case around the fusion fuel, which normally is made of some fissionable element, is replaced with a metallic salting element. Salted fission bombs can be made by replacing the neutron reflector between the fissionable core and the explosive layer with a metallic element. The energy yield from a salted weapon is usually lower than from an ordinary weapon of similar size as a consequence of these changes. \u000a\u000aThe radioactive isotope chosen for the fallout material is usually a high intensity gamma ray emitter, with a half-life long enough that it remains lethal for an extended period. It also must have a chemistry that causes it to return to earth as fallout, rather than stay in the atmosphere after being vaporized in the explosion. \u000a\u000aOne example of a salted bomb is a proposed cobalt bomb, which produces the radioactive isotope cobalt-60 (60Co). Other non-fissionable isotopes can be produced, including gold-198 \u000a(198Au), tantalum-182 (182Ta) and zinc-65 \u000a(65Zn) [REF]. Sodium-23 has also been proposed as a salting agent [REF]. \u000a\u000aNo salted bomb has ever been atmospherically tested and as far as is publicly known none have ever been built [REF]. The United Kingdom did test a 1 kiloton bomb incorporating a small amount of cobalt as an experimental radiochemical tracer at their Tadje testing site in Maralinga range, Australia on September 14, 1957[REF].
p4982
sS'sents'
p4983
g4812
sg43
g4808
sg41
I0
sS'id'
p4984
g16
sg48
I2602
sS'sentFeatures'
p4985
(lp4986
sb.