ccopy_reg
_reconstructor
p0
(cpygate.doc
Document
p1
c__builtin__
object
p2
Ntp3
Rp4
(dp5
S'src'
p6
V. \u000a\u000aSedentary lifestyle is a medical term used to denote a type of lifestyle with no or irregular physical activity [REF]. A person who lives a sedentary lifestyle may colloquially be known as a couch potato. It is commonly found in both the developed and developing world. Sedentary activities include sitting, reading, watching television, playing certain video games, and computer use for much of the day with little or no vigorous physical exercise. A sedentary lifestyle can contribute to many preventable causes of death.\u000a\u000aA lack of physical activity is one of the leading causes of preventable death worldwide [REF]. \u000a\u000aA sedentary lifestyle and lack of physical activity can contribute to or be a risk factor for:\u000a\u000aAnxiety[REF][REF][REF]\u000aCardiovascular disease[REF][REF] \u000aMortality in elderly men by 30% and double the risk in elderly women[REF]\u000aDeep vein thrombosis\u000aDepression[REF][REF]\u000aDiabetes[REF]\u000aColon cancer[REF]\u000aHigh blood pressure[REF][REF]\u000aObesity[REF][REF]\u000aOsteoporosis[REF][REF][REF] \u000aLipid disorders[REF]\u000aKidney stones .\u000a\u000aOne response that has been adopted by many organizations concerned with health and environment is the promotion of active travel, which seeks to promote walking and cycling as safe and attractive alternatives to motorized transport [REF]. Given that many journeys are for relatively short distances, there is considerable scope to replace car use with walking or cycling, though in many settings this may require some infrastructure modification. \u000a\u000aImplementing Wellness Programs is becoming another popular trend among organizations. Wellness programs can be unique to each organization and can focus on a variety of objectives. For example, some organizations try to get their employees moving through exercise classes at lunch or walking challenges among co-workers. Other organizations offer a number of different screenings for employees such as cholesterol or blood pressure screenings. \u000a\u000aAccording to Worksite Health Promotion with Infinite Wellness Solutions, it is essential wellness programs have specific goals that provide a specific direction for the program [REF]. Goals can include keeping tracking of the number of participants who improved their fitness level or the number of participants screened.\u000a\u000aThe term "couch potato" was coined by underground comics artist Robert Armstrong in the 1970s, in a series of comics featuring sedentary characters. \u000a\u000aThe condition, which predates the term, is characterized by sitting or remaining inactive for most of the day with little or no exercise. \u000a\u000aLack of exercise causes muscle atrophy, i.e. shrinking and weakening of the muscles and accordingly increases susceptibility to physical injury. Additionally, physical fitness is correlated with immune system function[REF]; a reduction in physical fitness is generally accompanied by a weakening of the immune system. A review in Nature Reviews Cardiology suggests that since illness or injury are associated with prolonged periods of enforced rest, such sedentariness has physiologically become linked to life-preserving metabolic and stress related responses such as inflammation that aid recovery during illness and injury but which due to being nonadaptive during health now lead to chronic diseases [REF]. \u000a\u000aDespite the well-known benefits of physical activity, many adults and many children lead a relatively sedentary lifestyle[REF][REF] and are not active enough to achieve these health benefits. \u000a\u000aIn the 2008 United States American National Health Interview Survey (NHIS) 36% of adults were considered inactive [REF]. 59% of adult respondents never participated in vigorous physical activity lasting more than 10 minutes per week [REF].
p7
sS'string'
p8
S'. \n\nSedentary lifestyle is a medical term used to denote a type of lifestyle with no or irregular physical activity [REF]. A person who lives a sedentary lifestyle may colloquially be known as a couch potato. It is commonly found in both the developed and developing world. Sedentary activities include sitting, reading, watching television, playing certain video games, and computer use for much of the day with little or no vigorous physical exercise. A sedentary lifestyle can contribute to many preventable causes of death.\n\nA lack of physical activity is one of the leading causes of preventable death worldwide [REF]. \n\nA sedentary lifestyle and lack of physical activity can contribute to or be a risk factor for:\n\nAnxiety[REF][REF][REF]\nCardiovascular disease[REF][REF] \nMortality in elderly men by 30% and double the risk in elderly women[REF]\nDeep vein thrombosis\nDepression[REF][REF]\nDiabetes[REF]\nColon cancer[REF]\nHigh blood pressure[REF][REF]\nObesity[REF][REF]\nOsteoporosis[REF][REF][REF] \nLipid disorders[REF]\nKidney stones .\n\nOne response that has been adopted by many organizations concerned with health and environment is the promotion of active travel, which seeks to promote walking and cycling as safe and attractive alternatives to motorized transport [REF]. Given that many journeys are for relatively short distances, there is considerable scope to replace car use with walking or cycling, though in many settings this may require some infrastructure modification. \n\nImplementing Wellness Programs is becoming another popular trend among organizations. Wellness programs can be unique to each organization and can focus on a variety of objectives. For example, some organizations try to get their employees moving through exercise classes at lunch or walking challenges among co-workers. Other organizations offer a number of different screenings for employees such as cholesterol or blood pressure screenings. \n\nAccording to Worksite Health Promotion with Infinite Wellness Solutions, it is essential wellness programs have specific goals that provide a specific direction for the program [REF]. Goals can include keeping tracking of the number of participants who improved their fitness level or the number of participants screened.\n\nThe term "couch potato" was coined by underground comics artist Robert Armstrong in the 1970s, in a series of comics featuring sedentary characters. \n\nThe condition, which predates the term, is characterized by sitting or remaining inactive for most of the day with little or no exercise. \n\nLack of exercise causes muscle atrophy, i.e. shrinking and weakening of the muscles and accordingly increases susceptibility to physical injury. Additionally, physical fitness is correlated with immune system function[REF]; a reduction in physical fitness is generally accompanied by a weakening of the immune system. A review in Nature Reviews Cardiology suggests that since illness or injury are associated with prolonged periods of enforced rest, such sedentariness has physiologically become linked to life-preserving metabolic and stress related responses such as inflammation that aid recovery during illness and injury but which due to being nonadaptive during health now lead to chronic diseases [REF]. \n\nDespite the well-known benefits of physical activity, many adults and many children lead a relatively sedentary lifestyle[REF][REF] and are not active enough to achieve these health benefits. \n\nIn the 2008 United States American National Health Interview Survey (NHIS) 36% of adults were considered inactive [REF]. 59% of adult respondents never participated in vigorous physical activity lasting more than 10 minutes per week [REF].'
p9
sS'idx'
p10
I0
sS'tknFeatures'
p11
(lp12
sS'docFeatures'
p13
(dp14
S'file_id'
p15
S'Sedentary_lifestyle'
p16
ssS'items'
p17
(dp18
S'raw'
p19
V. \u000a\u000aSedentary lifestyle is a medical term used to denote a type of lifestyle with no or irregular physical activity [REF]. A person who lives a sedentary lifestyle may colloquially be known as a couch potato. It is commonly found in both the developed and developing world. Sedentary activities include sitting, reading, watching television, playing certain video games, and computer use for much of the day with little or no vigorous physical exercise. A sedentary lifestyle can contribute to many preventable causes of death.\u000a\u000aA lack of physical activity is one of the leading causes of preventable death worldwide [REF]. \u000a\u000aA sedentary lifestyle and lack of physical activity can contribute to or be a risk factor for:\u000a\u000aAnxiety[REF][REF][REF]\u000aCardiovascular disease[REF][REF] \u000aMortality in elderly men by 30% and double the risk in elderly women[REF]\u000aDeep vein thrombosis\u000aDepression[REF][REF]\u000aDiabetes[REF]\u000aColon cancer[REF]\u000aHigh blood pressure[REF][REF]\u000aObesity[REF][REF]\u000aOsteoporosis[REF][REF][REF] \u000aLipid disorders[REF]\u000aKidney stones .\u000a\u000aOne response that has been adopted by many organizations concerned with health and environment is the promotion of active travel, which seeks to promote walking and cycling as safe and attractive alternatives to motorized transport [REF]. Given that many journeys are for relatively short distances, there is considerable scope to replace car use with walking or cycling, though in many settings this may require some infrastructure modification. \u000a\u000aImplementing Wellness Programs is becoming another popular trend among organizations. Wellness programs can be unique to each organization and can focus on a variety of objectives. For example, some organizations try to get their employees moving through exercise classes at lunch or walking challenges among co-workers. Other organizations offer a number of different screenings for employees such as cholesterol or blood pressure screenings. \u000a\u000aAccording to Worksite Health Promotion with Infinite Wellness Solutions, it is essential wellness programs have specific goals that provide a specific direction for the program [REF]. Goals can include keeping tracking of the number of participants who improved their fitness level or the number of participants screened.\u000a\u000aThe term "couch potato" was coined by underground comics artist Robert Armstrong in the 1970s, in a series of comics featuring sedentary characters. \u000a\u000aThe condition, which predates the term, is characterized by sitting or remaining inactive for most of the day with little or no exercise. \u000a\u000aLack of exercise causes muscle atrophy, i.e. shrinking and weakening of the muscles and accordingly increases susceptibility to physical injury. Additionally, physical fitness is correlated with immune system function[REF]; a reduction in physical fitness is generally accompanied by a weakening of the immune system. A review in Nature Reviews Cardiology suggests that since illness or injury are associated with prolonged periods of enforced rest, such sedentariness has physiologically become linked to life-preserving metabolic and stress related responses such as inflammation that aid recovery during illness and injury but which due to being nonadaptive during health now lead to chronic diseases [REF]. \u000a\u000aDespite the well-known benefits of physical activity, many adults and many children lead a relatively sedentary lifestyle[REF][REF] and are not active enough to achieve these health benefits. \u000a\u000aIn the 2008 United States American National Health Interview Survey (NHIS) 36% of adults were considered inactive [REF]. 59% of adult respondents never participated in vigorous physical activity lasting more than 10 minutes per week [REF].
p20
sS'Token'
p21
(lp22
g0
(cpygate.annotation
Annotation
p23
g2
Ntp24
Rp25
(dp26
S'features'
p27
(dp28
S'lemma'
p29
V.
p30
sS'ner'
p31
VO
p32
sS'pos'
p33
V.
p34
sS'index'
p35
I1
ssg10
I0
sS'doc'
p36
g4
sS'labels'
p37
(dp38
sS'relations'
p39
(dp40
sS'cStart'
p41
I0
sS'subType'
p42
g21
sS'annoType'
p43
g21
sS'tStart'
p44
I0
sS'text'
p45
V.
p46
sS'tEnd'
p47
I0
sS'cEnd'
p48
I1
sbag0
(g23
g2
Ntp49
Rp50
(dp51
g27
(dp52
g29
Vsedentary
p53
sg31
VO
p54
sg33
VJJ
p55
sg35
I1
ssg10
I1
sg36
g4
sg37
(dp56
sg39
(dp57
sg41
I4
sg42
g21
sg43
g21
sg44
I1
sg45
VSedentary
p58
sg47
I1
sg48
I13
sbag0
(g23
g2
Ntp59
Rp60
(dp61
g27
(dp62
g29
Vlifestyle
p63
sg31
VO
p64
sg33
VNN
p65
sg35
I2
ssg10
I2
sg36
g4
sg37
(dp66
sg39
(dp67
sg41
I14
sg42
g21
sg43
g21
sg44
I2
sg45
Vlifestyle
p68
sg47
I2
sg48
I23
sbag0
(g23
g2
Ntp69
Rp70
(dp71
g27
(dp72
g29
Vbe
p73
sg31
VO
p74
sg33
VVBZ
p75
sg35
I3
ssg10
I3
sg36
g4
sg37
(dp76
sg39
(dp77
sg41
I24
sg42
g21
sg43
g21
sg44
I3
sg45
Vis
p78
sg47
I3
sg48
I26
sbag0
(g23
g2
Ntp79
Rp80
(dp81
g27
(dp82
g29
Va
p83
sg31
VO
p84
sg33
VDT
p85
sg35
I4
ssg10
I4
sg36
g4
sg37
(dp86
sg39
(dp87
sg41
I27
sg42
g21
sg43
g21
sg44
I4
sg45
Va
p88
sg47
I4
sg48
I28
sbag0
(g23
g2
Ntp89
Rp90
(dp91
g27
(dp92
g29
Vmedical
p93
sg31
VO
p94
sg33
VJJ
p95
sg35
I5
ssg10
I5
sg36
g4
sg37
(dp96
sg39
(dp97
sg41
I29
sg42
g21
sg43
g21
sg44
I5
sg45
Vmedical
p98
sg47
I5
sg48
I36
sbag0
(g23
g2
Ntp99
Rp100
(dp101
g27
(dp102
g29
Vterm
p103
sg31
VO
p104
sg33
VNN
p105
sg35
I6
ssg10
I6
sg36
g4
sg37
(dp106
sg39
(dp107
sg41
I37
sg42
g21
sg43
g21
sg44
I6
sg45
Vterm
p108
sg47
I6
sg48
I41
sbag0
(g23
g2
Ntp109
Rp110
(dp111
g27
(dp112
g29
Vuse
p113
sg31
VO
p114
sg33
VVBN
p115
sg35
I7
ssg10
I7
sg36
g4
sg37
(dp116
sg39
(dp117
sg41
I42
sg42
g21
sg43
g21
sg44
I7
sg45
Vused
p118
sg47
I7
sg48
I46
sbag0
(g23
g2
Ntp119
Rp120
(dp121
g27
(dp122
g29
Vto
p123
sg31
VO
p124
sg33
VTO
p125
sg35
I8
ssg10
I8
sg36
g4
sg37
(dp126
sg39
(dp127
sg41
I47
sg42
g21
sg43
g21
sg44
I8
sg45
Vto
p128
sg47
I8
sg48
I49
sbag0
(g23
g2
Ntp129
Rp130
(dp131
g27
(dp132
g29
Vdenote
p133
sg31
VO
p134
sg33
VVB
p135
sg35
I9
ssg10
I9
sg36
g4
sg37
(dp136
sg39
(dp137
sg41
I50
sg42
g21
sg43
g21
sg44
I9
sg45
Vdenote
p138
sg47
I9
sg48
I56
sbag0
(g23
g2
Ntp139
Rp140
(dp141
g27
(dp142
g29
Va
p143
sg31
VO
p144
sg33
VDT
p145
sg35
I10
ssg10
I10
sg36
g4
sg37
(dp146
sg39
(dp147
sg41
I57
sg42
g21
sg43
g21
sg44
I10
sg45
Va
p148
sg47
I10
sg48
I58
sbag0
(g23
g2
Ntp149
Rp150
(dp151
g27
(dp152
g29
Vtype
p153
sg31
VO
p154
sg33
VNN
p155
sg35
I11
ssg10
I11
sg36
g4
sg37
(dp156
sg39
(dp157
sg41
I59
sg42
g21
sg43
g21
sg44
I11
sg45
Vtype
p158
sg47
I11
sg48
I63
sbag0
(g23
g2
Ntp159
Rp160
(dp161
g27
(dp162
g29
Vof
p163
sg31
VO
p164
sg33
VIN
p165
sg35
I12
ssg10
I12
sg36
g4
sg37
(dp166
sg39
(dp167
sg41
I64
sg42
g21
sg43
g21
sg44
I12
sg45
Vof
p168
sg47
I12
sg48
I66
sbag0
(g23
g2
Ntp169
Rp170
(dp171
g27
(dp172
g29
Vlifestyle
p173
sg31
VO
p174
sg33
VNN
p175
sg35
I13
ssg10
I13
sg36
g4
sg37
(dp176
sg39
(dp177
sg41
I67
sg42
g21
sg43
g21
sg44
I13
sg45
Vlifestyle
p178
sg47
I13
sg48
I76
sbag0
(g23
g2
Ntp179
Rp180
(dp181
g27
(dp182
g29
Vwith
p183
sg31
VO
p184
sg33
VIN
p185
sg35
I14
ssg10
I14
sg36
g4
sg37
(dp186
sg39
(dp187
sg41
I77
sg42
g21
sg43
g21
sg44
I14
sg45
Vwith
p188
sg47
I14
sg48
I81
sbag0
(g23
g2
Ntp189
Rp190
(dp191
g27
(dp192
g29
Vno
p193
sg31
VO
p194
sg33
VDT
p195
sg35
I15
ssg10
I15
sg36
g4
sg37
(dp196
sg39
(dp197
sg41
I82
sg42
g21
sg43
g21
sg44
I15
sg45
Vno
p198
sg47
I15
sg48
I84
sbag0
(g23
g2
Ntp199
Rp200
(dp201
g27
(dp202
g29
Vor
p203
sg31
VO
p204
sg33
VCC
p205
sg35
I16
ssg10
I16
sg36
g4
sg37
(dp206
sg39
(dp207
sg41
I85
sg42
g21
sg43
g21
sg44
I16
sg45
Vor
p208
sg47
I16
sg48
I87
sbag0
(g23
g2
Ntp209
Rp210
(dp211
g27
(dp212
g29
Virregular
p213
sg31
VO
p214
sg33
VJJ
p215
sg35
I17
ssg10
I17
sg36
g4
sg37
(dp216
sg39
(dp217
sg41
I88
sg42
g21
sg43
g21
sg44
I17
sg45
Virregular
p218
sg47
I17
sg48
I97
sbag0
(g23
g2
Ntp219
Rp220
(dp221
g27
(dp222
g29
Vphysical
p223
sg31
VO
p224
sg33
VJJ
p225
sg35
I18
ssg10
I18
sg36
g4
sg37
(dp226
sg39
(dp227
sg41
I98
sg42
g21
sg43
g21
sg44
I18
sg45
Vphysical
p228
sg47
I18
sg48
I106
sbag0
(g23
g2
Ntp229
Rp230
(dp231
g27
(dp232
g29
Vactivity
p233
sg31
VO
p234
sg33
VNN
p235
sg35
I19
ssg10
I19
sg36
g4
sg37
(dp236
sg39
(dp237
sg41
I107
sg42
g21
sg43
g21
sg44
I19
sg45
Vactivity
p238
sg47
I19
sg48
I115
sbag0
(g23
g2
Ntp239
Rp240
(dp241
g27
(dp242
g29
V-lsb-
p243
sg31
VO
p244
sg33
V-LRB-
p245
sg35
I20
ssg10
I20
sg36
g4
sg37
(dp246
sg39
(dp247
sg41
I116
sg42
g21
sg43
g21
sg44
I20
sg45
V[
p248
sg47
I20
sg48
I117
sbag0
(g23
g2
Ntp249
Rp250
(dp251
g27
(dp252
g29
Vref
p253
sg31
VO
p254
sg33
VNN
p255
sg35
I21
ssg10
I21
sg36
g4
sg37
(dp256
sg39
(dp257
sg41
I117
sg42
g21
sg43
g21
sg44
I21
sg45
VREF
p258
sg47
I21
sg48
I120
sbag0
(g23
g2
Ntp259
Rp260
(dp261
g27
(dp262
g29
V-rsb-
p263
sg31
VO
p264
sg33
V-RRB-
p265
sg35
I22
ssg10
I22
sg36
g4
sg37
(dp266
sg39
(dp267
sg41
I120
sg42
g21
sg43
g21
sg44
I22
sg45
V]
p268
sg47
I22
sg48
I121
sbag0
(g23
g2
Ntp269
Rp270
(dp271
g27
(dp272
g29
V.
p273
sg31
VO
p274
sg33
V.
p275
sg35
I23
ssg10
I23
sg36
g4
sg37
(dp276
sg39
(dp277
sg41
I121
sg42
g21
sg43
g21
sg44
I23
sg45
V.
p278
sg47
I23
sg48
I122
sbag0
(g23
g2
Ntp279
Rp280
(dp281
g27
(dp282
g29
Va
p283
sg31
VO
p284
sg33
VDT
p285
sg35
I1
ssg10
I24
sg36
g4
sg37
(dp286
sg39
(dp287
sg41
I123
sg42
g21
sg43
g21
sg44
I24
sg45
VA
p288
sg47
I24
sg48
I124
sbag0
(g23
g2
Ntp289
Rp290
(dp291
g27
(dp292
g29
Vperson
p293
sg31
VO
p294
sg33
VNN
p295
sg35
I2
ssg10
I25
sg36
g4
sg37
(dp296
sg39
(dp297
sg41
I125
sg42
g21
sg43
g21
sg44
I25
sg45
Vperson
p298
sg47
I25
sg48
I131
sbag0
(g23
g2
Ntp299
Rp300
(dp301
g27
(dp302
g29
Vwho
p303
sg31
VO
p304
sg33
VWP
p305
sg35
I3
ssg10
I26
sg36
g4
sg37
(dp306
sg39
(dp307
sg41
I132
sg42
g21
sg43
g21
sg44
I26
sg45
Vwho
p308
sg47
I26
sg48
I135
sbag0
(g23
g2
Ntp309
Rp310
(dp311
g27
(dp312
g29
Vlive
p313
sg31
VO
p314
sg33
VVBZ
p315
sg35
I4
ssg10
I27
sg36
g4
sg37
(dp316
sg39
(dp317
sg41
I136
sg42
g21
sg43
g21
sg44
I27
sg45
Vlives
p318
sg47
I27
sg48
I141
sbag0
(g23
g2
Ntp319
Rp320
(dp321
g27
(dp322
g29
Va
p323
sg31
VO
p324
sg33
VDT
p325
sg35
I5
ssg10
I28
sg36
g4
sg37
(dp326
sg39
(dp327
sg41
I142
sg42
g21
sg43
g21
sg44
I28
sg45
Va
p328
sg47
I28
sg48
I143
sbag0
(g23
g2
Ntp329
Rp330
(dp331
g27
(dp332
g29
Vsedentary
p333
sg31
VO
p334
sg33
VJJ
p335
sg35
I6
ssg10
I29
sg36
g4
sg37
(dp336
sg39
(dp337
sg41
I144
sg42
g21
sg43
g21
sg44
I29
sg45
Vsedentary
p338
sg47
I29
sg48
I153
sbag0
(g23
g2
Ntp339
Rp340
(dp341
g27
(dp342
g29
Vlifestyle
p343
sg31
VO
p344
sg33
VNN
p345
sg35
I7
ssg10
I30
sg36
g4
sg37
(dp346
sg39
(dp347
sg41
I154
sg42
g21
sg43
g21
sg44
I30
sg45
Vlifestyle
p348
sg47
I30
sg48
I163
sbag0
(g23
g2
Ntp349
Rp350
(dp351
g27
(dp352
g29
Vmay
p353
sg31
VO
p354
sg33
VMD
p355
sg35
I8
ssg10
I31
sg36
g4
sg37
(dp356
sg39
(dp357
sg41
I164
sg42
g21
sg43
g21
sg44
I31
sg45
Vmay
p358
sg47
I31
sg48
I167
sbag0
(g23
g2
Ntp359
Rp360
(dp361
g27
(dp362
g29
Vcolloquially
p363
sg31
VO
p364
sg33
VRB
p365
sg35
I9
ssg10
I32
sg36
g4
sg37
(dp366
sg39
(dp367
sg41
I168
sg42
g21
sg43
g21
sg44
I32
sg45
Vcolloquially
p368
sg47
I32
sg48
I180
sbag0
(g23
g2
Ntp369
Rp370
(dp371
g27
(dp372
g29
Vbe
p373
sg31
VO
p374
sg33
VVB
p375
sg35
I10
ssg10
I33
sg36
g4
sg37
(dp376
sg39
(dp377
sg41
I181
sg42
g21
sg43
g21
sg44
I33
sg45
Vbe
p378
sg47
I33
sg48
I183
sbag0
(g23
g2
Ntp379
Rp380
(dp381
g27
(dp382
g29
Vknow
p383
sg31
VO
p384
sg33
VVBN
p385
sg35
I11
ssg10
I34
sg36
g4
sg37
(dp386
sg39
(dp387
sg41
I184
sg42
g21
sg43
g21
sg44
I34
sg45
Vknown
p388
sg47
I34
sg48
I189
sbag0
(g23
g2
Ntp389
Rp390
(dp391
g27
(dp392
g29
Vas
p393
sg31
VO
p394
sg33
VIN
p395
sg35
I12
ssg10
I35
sg36
g4
sg37
(dp396
sg39
(dp397
sg41
I190
sg42
g21
sg43
g21
sg44
I35
sg45
Vas
p398
sg47
I35
sg48
I192
sbag0
(g23
g2
Ntp399
Rp400
(dp401
g27
(dp402
g29
Va
p403
sg31
VO
p404
sg33
VDT
p405
sg35
I13
ssg10
I36
sg36
g4
sg37
(dp406
sg39
(dp407
sg41
I190
sg42
g21
sg43
g21
sg44
I36
sg45
Va
p408
sg47
I36
sg48
I191
sbag0
(g23
g2
Ntp409
Rp410
(dp411
g27
(dp412
g29
Vcouch
p413
sg31
VO
p414
sg33
VNN
p415
sg35
I14
ssg10
I37
sg36
g4
sg37
(dp416
sg39
(dp417
sg41
I195
sg42
g21
sg43
g21
sg44
I37
sg45
Vcouch
p418
sg47
I37
sg48
I200
sbag0
(g23
g2
Ntp419
Rp420
(dp421
g27
(dp422
g29
Vpotato
p423
sg31
VO
p424
sg33
VNN
p425
sg35
I15
ssg10
I38
sg36
g4
sg37
(dp426
sg39
(dp427
sg41
I201
sg42
g21
sg43
g21
sg44
I38
sg45
Vpotato
p428
sg47
I38
sg48
I207
sbag0
(g23
g2
Ntp429
Rp430
(dp431
g27
(dp432
g29
V.
p433
sg31
VO
p434
sg33
V.
p435
sg35
I16
ssg10
I39
sg36
g4
sg37
(dp436
sg39
(dp437
sg41
I207
sg42
g21
sg43
g21
sg44
I39
sg45
V.
p438
sg47
I39
sg48
I208
sbag0
(g23
g2
Ntp439
Rp440
(dp441
g27
(dp442
g29
Vit
p443
sg31
VO
p444
sg33
VPRP
p445
sg35
I1
ssg10
I40
sg36
g4
sg37
(dp446
sg39
(dp447
sg41
I209
sg42
g21
sg43
g21
sg44
I40
sg45
VIt
p448
sg47
I40
sg48
I211
sbag0
(g23
g2
Ntp449
Rp450
(dp451
g27
(dp452
g29
Vbe
p453
sg31
VO
p454
sg33
VVBZ
p455
sg35
I2
ssg10
I41
sg36
g4
sg37
(dp456
sg39
(dp457
sg41
I212
sg42
g21
sg43
g21
sg44
I41
sg45
Vis
p458
sg47
I41
sg48
I214
sbag0
(g23
g2
Ntp459
Rp460
(dp461
g27
(dp462
g29
Vcommonly
p463
sg31
VO
p464
sg33
VRB
p465
sg35
I3
ssg10
I42
sg36
g4
sg37
(dp466
sg39
(dp467
sg41
I215
sg42
g21
sg43
g21
sg44
I42
sg45
Vcommonly
p468
sg47
I42
sg48
I223
sbag0
(g23
g2
Ntp469
Rp470
(dp471
g27
(dp472
g29
Vfind
p473
sg31
VO
p474
sg33
VVBN
p475
sg35
I4
ssg10
I43
sg36
g4
sg37
(dp476
sg39
(dp477
sg41
I224
sg42
g21
sg43
g21
sg44
I43
sg45
Vfound
p478
sg47
I43
sg48
I229
sbag0
(g23
g2
Ntp479
Rp480
(dp481
g27
(dp482
g29
Vin
p483
sg31
VO
p484
sg33
VIN
p485
sg35
I5
ssg10
I44
sg36
g4
sg37
(dp486
sg39
(dp487
sg41
I230
sg42
g21
sg43
g21
sg44
I44
sg45
Vin
p488
sg47
I44
sg48
I232
sbag0
(g23
g2
Ntp489
Rp490
(dp491
g27
(dp492
g29
Vboth
p493
sg31
VO
p494
sg33
VCC
p495
sg35
I6
ssg10
I45
sg36
g4
sg37
(dp496
sg39
(dp497
sg41
I233
sg42
g21
sg43
g21
sg44
I45
sg45
Vboth
p498
sg47
I45
sg48
I237
sbag0
(g23
g2
Ntp499
Rp500
(dp501
g27
(dp502
g29
Vthe
p503
sg31
VO
p504
sg33
VDT
p505
sg35
I7
ssg10
I46
sg36
g4
sg37
(dp506
sg39
(dp507
sg41
I238
sg42
g21
sg43
g21
sg44
I46
sg45
Vthe
p508
sg47
I46
sg48
I241
sbag0
(g23
g2
Ntp509
Rp510
(dp511
g27
(dp512
g29
Vdevelop
p513
sg31
VO
p514
sg33
VVBN
p515
sg35
I8
ssg10
I47
sg36
g4
sg37
(dp516
sg39
(dp517
sg41
I242
sg42
g21
sg43
g21
sg44
I47
sg45
Vdeveloped
p518
sg47
I47
sg48
I251
sbag0
(g23
g2
Ntp519
Rp520
(dp521
g27
(dp522
g29
Vand
p523
sg31
VO
p524
sg33
VCC
p525
sg35
I9
ssg10
I48
sg36
g4
sg37
(dp526
sg39
(dp527
sg41
I252
sg42
g21
sg43
g21
sg44
I48
sg45
Vand
p528
sg47
I48
sg48
I255
sbag0
(g23
g2
Ntp529
Rp530
(dp531
g27
(dp532
g29
Vdevelop
p533
sg31
VO
p534
sg33
VVBG
p535
sg35
I10
ssg10
I49
sg36
g4
sg37
(dp536
sg39
(dp537
sg41
I256
sg42
g21
sg43
g21
sg44
I49
sg45
Vdeveloping
p538
sg47
I49
sg48
I266
sbag0
(g23
g2
Ntp539
Rp540
(dp541
g27
(dp542
g29
Vworld
p543
sg31
VO
p544
sg33
VNN
p545
sg35
I11
ssg10
I50
sg36
g4
sg37
(dp546
sg39
(dp547
sg41
I267
sg42
g21
sg43
g21
sg44
I50
sg45
Vworld
p548
sg47
I50
sg48
I272
sbag0
(g23
g2
Ntp549
Rp550
(dp551
g27
(dp552
g29
V.
p553
sg31
VO
p554
sg33
V.
p555
sg35
I12
ssg10
I51
sg36
g4
sg37
(dp556
sg39
(dp557
sg41
I272
sg42
g21
sg43
g21
sg44
I51
sg45
V.
p558
sg47
I51
sg48
I273
sbag0
(g23
g2
Ntp559
Rp560
(dp561
g27
(dp562
g29
Vsedentary
p563
sg31
VO
p564
sg33
VJJ
p565
sg35
I1
ssg10
I52
sg36
g4
sg37
(dp566
sg39
(dp567
sg41
I274
sg42
g21
sg43
g21
sg44
I52
sg45
VSedentary
p568
sg47
I52
sg48
I283
sbag0
(g23
g2
Ntp569
Rp570
(dp571
g27
(dp572
g29
Vactivity
p573
sg31
VO
p574
sg33
VNNS
p575
sg35
I2
ssg10
I53
sg36
g4
sg37
(dp576
sg39
(dp577
sg41
I284
sg42
g21
sg43
g21
sg44
I53
sg45
Vactivities
p578
sg47
I53
sg48
I294
sbag0
(g23
g2
Ntp579
Rp580
(dp581
g27
(dp582
g29
Vinclude
p583
sg31
VO
p584
sg33
VVBP
p585
sg35
I3
ssg10
I54
sg36
g4
sg37
(dp586
sg39
(dp587
sg41
I295
sg42
g21
sg43
g21
sg44
I54
sg45
Vinclude
p588
sg47
I54
sg48
I302
sbag0
(g23
g2
Ntp589
Rp590
(dp591
g27
(dp592
g29
Vsit
p593
sg31
VO
p594
sg33
VVBG
p595
sg35
I4
ssg10
I55
sg36
g4
sg37
(dp596
sg39
(dp597
sg41
I303
sg42
g21
sg43
g21
sg44
I55
sg45
Vsitting
p598
sg47
I55
sg48
I310
sbag0
(g23
g2
Ntp599
Rp600
(dp601
g27
(dp602
g29
V,
p603
sg31
VO
p604
sg33
V,
p605
sg35
I5
ssg10
I56
sg36
g4
sg37
(dp606
sg39
(dp607
sg41
I310
sg42
g21
sg43
g21
sg44
I56
sg45
V,
p608
sg47
I56
sg48
I311
sbag0
(g23
g2
Ntp609
Rp610
(dp611
g27
(dp612
g29
Vreading
p613
sg31
VO
p614
sg33
VNN
p615
sg35
I6
ssg10
I57
sg36
g4
sg37
(dp616
sg39
(dp617
sg41
I312
sg42
g21
sg43
g21
sg44
I57
sg45
Vreading
p618
sg47
I57
sg48
I319
sbag0
(g23
g2
Ntp619
Rp620
(dp621
g27
(dp622
g29
V,
p623
sg31
VO
p624
sg33
V,
p625
sg35
I7
ssg10
I58
sg36
g4
sg37
(dp626
sg39
(dp627
sg41
I319
sg42
g21
sg43
g21
sg44
I58
sg45
V,
p628
sg47
I58
sg48
I320
sbag0
(g23
g2
Ntp629
Rp630
(dp631
g27
(dp632
g29
Vwatch
p633
sg31
VO
p634
sg33
VVBG
p635
sg35
I8
ssg10
I59
sg36
g4
sg37
(dp636
sg39
(dp637
sg41
I321
sg42
g21
sg43
g21
sg44
I59
sg45
Vwatching
p638
sg47
I59
sg48
I329
sbag0
(g23
g2
Ntp639
Rp640
(dp641
g27
(dp642
g29
Vtelevision
p643
sg31
VO
p644
sg33
VNN
p645
sg35
I9
ssg10
I60
sg36
g4
sg37
(dp646
sg39
(dp647
sg41
I330
sg42
g21
sg43
g21
sg44
I60
sg45
Vtelevision
p648
sg47
I60
sg48
I340
sbag0
(g23
g2
Ntp649
Rp650
(dp651
g27
(dp652
g29
V,
p653
sg31
VO
p654
sg33
V,
p655
sg35
I10
ssg10
I61
sg36
g4
sg37
(dp656
sg39
(dp657
sg41
I340
sg42
g21
sg43
g21
sg44
I61
sg45
V,
p658
sg47
I61
sg48
I341
sbag0
(g23
g2
Ntp659
Rp660
(dp661
g27
(dp662
g29
Vplay
p663
sg31
VO
p664
sg33
VVBG
p665
sg35
I11
ssg10
I62
sg36
g4
sg37
(dp666
sg39
(dp667
sg41
I342
sg42
g21
sg43
g21
sg44
I62
sg45
Vplaying
p668
sg47
I62
sg48
I349
sbag0
(g23
g2
Ntp669
Rp670
(dp671
g27
(dp672
g29
Vcertain
p673
sg31
VO
p674
sg33
VJJ
p675
sg35
I12
ssg10
I63
sg36
g4
sg37
(dp676
sg39
(dp677
sg41
I350
sg42
g21
sg43
g21
sg44
I63
sg45
Vcertain
p678
sg47
I63
sg48
I357
sbag0
(g23
g2
Ntp679
Rp680
(dp681
g27
(dp682
g29
Vvideo
p683
sg31
VO
p684
sg33
VNN
p685
sg35
I13
ssg10
I64
sg36
g4
sg37
(dp686
sg39
(dp687
sg41
I358
sg42
g21
sg43
g21
sg44
I64
sg45
Vvideo
p688
sg47
I64
sg48
I363
sbag0
(g23
g2
Ntp689
Rp690
(dp691
g27
(dp692
g29
Vgame
p693
sg31
VO
p694
sg33
VNNS
p695
sg35
I14
ssg10
I65
sg36
g4
sg37
(dp696
sg39
(dp697
sg41
I364
sg42
g21
sg43
g21
sg44
I65
sg45
Vgames
p698
sg47
I65
sg48
I369
sbag0
(g23
g2
Ntp699
Rp700
(dp701
g27
(dp702
g29
V,
p703
sg31
VO
p704
sg33
V,
p705
sg35
I15
ssg10
I66
sg36
g4
sg37
(dp706
sg39
(dp707
sg41
I369
sg42
g21
sg43
g21
sg44
I66
sg45
V,
p708
sg47
I66
sg48
I370
sbag0
(g23
g2
Ntp709
Rp710
(dp711
g27
(dp712
g29
Vand
p713
sg31
VO
p714
sg33
VCC
p715
sg35
I16
ssg10
I67
sg36
g4
sg37
(dp716
sg39
(dp717
sg41
I371
sg42
g21
sg43
g21
sg44
I67
sg45
Vand
p718
sg47
I67
sg48
I374
sbag0
(g23
g2
Ntp719
Rp720
(dp721
g27
(dp722
g29
Vcomputer
p723
sg31
VO
p724
sg33
VNN
p725
sg35
I17
ssg10
I68
sg36
g4
sg37
(dp726
sg39
(dp727
sg41
I375
sg42
g21
sg43
g21
sg44
I68
sg45
Vcomputer
p728
sg47
I68
sg48
I383
sbag0
(g23
g2
Ntp729
Rp730
(dp731
g27
(dp732
g29
Vuse
p733
sg31
VO
p734
sg33
VNN
p735
sg35
I18
ssg10
I69
sg36
g4
sg37
(dp736
sg39
(dp737
sg41
I384
sg42
g21
sg43
g21
sg44
I69
sg45
Vuse
p738
sg47
I69
sg48
I387
sbag0
(g23
g2
Ntp739
Rp740
(dp741
g27
(dp742
g29
Vfor
p743
sg31
VO
p744
sg33
VIN
p745
sg35
I19
ssg10
I70
sg36
g4
sg37
(dp746
sg39
(dp747
sg41
I388
sg42
g21
sg43
g21
sg44
I70
sg45
Vfor
p748
sg47
I70
sg48
I391
sbag0
(g23
g2
Ntp749
Rp750
(dp751
g27
(dp752
g29
Vmuch
p753
sg31
VO
p754
sg33
VJJ
p755
sg35
I20
ssg10
I71
sg36
g4
sg37
(dp756
sg39
(dp757
sg41
I392
sg42
g21
sg43
g21
sg44
I71
sg45
Vmuch
p758
sg47
I71
sg48
I396
sbag0
(g23
g2
Ntp759
Rp760
(dp761
g27
(dp762
g29
Vof
p763
sg31
VO
p764
sg33
VIN
p765
sg35
I21
ssg10
I72
sg36
g4
sg37
(dp766
sg39
(dp767
sg41
I397
sg42
g21
sg43
g21
sg44
I72
sg45
Vof
p768
sg47
I72
sg48
I399
sbag0
(g23
g2
Ntp769
Rp770
(dp771
g27
(dp772
g29
Vthe
p773
sg31
VDATE
p774
sg33
VDT
p775
sg35
I22
ssg10
I73
sg36
g4
sg37
(dp776
sg39
(dp777
sg41
I400
sg42
g21
sg43
g21
sg44
I73
sg45
Vthe
p778
sg47
I73
sg48
I403
sbag0
(g23
g2
Ntp779
Rp780
(dp781
g27
(dp782
g29
Vday
p783
sg31
VDATE
p784
sg33
VNN
p785
sg35
I23
ssg10
I74
sg36
g4
sg37
(dp786
sg39
(dp787
sg41
I404
sg42
g21
sg43
g21
sg44
I74
sg45
Vday
p788
sg47
I74
sg48
I407
sbag0
(g23
g2
Ntp789
Rp790
(dp791
g27
(dp792
g29
Vwith
p793
sg31
VO
p794
sg33
VIN
p795
sg35
I24
ssg10
I75
sg36
g4
sg37
(dp796
sg39
(dp797
sg41
I408
sg42
g21
sg43
g21
sg44
I75
sg45
Vwith
p798
sg47
I75
sg48
I412
sbag0
(g23
g2
Ntp799
Rp800
(dp801
g27
(dp802
g29
Vlittle
p803
sg31
VO
p804
sg33
VJJ
p805
sg35
I25
ssg10
I76
sg36
g4
sg37
(dp806
sg39
(dp807
sg41
I413
sg42
g21
sg43
g21
sg44
I76
sg45
Vlittle
p808
sg47
I76
sg48
I419
sbag0
(g23
g2
Ntp809
Rp810
(dp811
g27
(dp812
g29
Vor
p813
sg31
VO
p814
sg33
VCC
p815
sg35
I26
ssg10
I77
sg36
g4
sg37
(dp816
sg39
(dp817
sg41
I420
sg42
g21
sg43
g21
sg44
I77
sg45
Vor
p818
sg47
I77
sg48
I422
sbag0
(g23
g2
Ntp819
Rp820
(dp821
g27
(dp822
g29
Vno
p823
sg31
VO
p824
sg33
VDT
p825
sg35
I27
ssg10
I78
sg36
g4
sg37
(dp826
sg39
(dp827
sg41
I423
sg42
g21
sg43
g21
sg44
I78
sg45
Vno
p828
sg47
I78
sg48
I425
sbag0
(g23
g2
Ntp829
Rp830
(dp831
g27
(dp832
g29
Vvigorous
p833
sg31
VO
p834
sg33
VJJ
p835
sg35
I28
ssg10
I79
sg36
g4
sg37
(dp836
sg39
(dp837
sg41
I426
sg42
g21
sg43
g21
sg44
I79
sg45
Vvigorous
p838
sg47
I79
sg48
I434
sbag0
(g23
g2
Ntp839
Rp840
(dp841
g27
(dp842
g29
Vphysical
p843
sg31
VO
p844
sg33
VJJ
p845
sg35
I29
ssg10
I80
sg36
g4
sg37
(dp846
sg39
(dp847
sg41
I435
sg42
g21
sg43
g21
sg44
I80
sg45
Vphysical
p848
sg47
I80
sg48
I443
sbag0
(g23
g2
Ntp849
Rp850
(dp851
g27
(dp852
g29
Vexercise
p853
sg31
VO
p854
sg33
VNN
p855
sg35
I30
ssg10
I81
sg36
g4
sg37
(dp856
sg39
(dp857
sg41
I444
sg42
g21
sg43
g21
sg44
I81
sg45
Vexercise
p858
sg47
I81
sg48
I452
sbag0
(g23
g2
Ntp859
Rp860
(dp861
g27
(dp862
g29
V.
p863
sg31
VO
p864
sg33
V.
p865
sg35
I31
ssg10
I82
sg36
g4
sg37
(dp866
sg39
(dp867
sg41
I452
sg42
g21
sg43
g21
sg44
I82
sg45
V.
p868
sg47
I82
sg48
I453
sbag0
(g23
g2
Ntp869
Rp870
(dp871
g27
(dp872
g29
Va
p873
sg31
VO
p874
sg33
VDT
p875
sg35
I1
ssg10
I83
sg36
g4
sg37
(dp876
sg39
(dp877
sg41
I454
sg42
g21
sg43
g21
sg44
I83
sg45
VA
p878
sg47
I83
sg48
I455
sbag0
(g23
g2
Ntp879
Rp880
(dp881
g27
(dp882
g29
Vsedentary
p883
sg31
VO
p884
sg33
VJJ
p885
sg35
I2
ssg10
I84
sg36
g4
sg37
(dp886
sg39
(dp887
sg41
I456
sg42
g21
sg43
g21
sg44
I84
sg45
Vsedentary
p888
sg47
I84
sg48
I465
sbag0
(g23
g2
Ntp889
Rp890
(dp891
g27
(dp892
g29
Vlifestyle
p893
sg31
VO
p894
sg33
VNN
p895
sg35
I3
ssg10
I85
sg36
g4
sg37
(dp896
sg39
(dp897
sg41
I466
sg42
g21
sg43
g21
sg44
I85
sg45
Vlifestyle
p898
sg47
I85
sg48
I475
sbag0
(g23
g2
Ntp899
Rp900
(dp901
g27
(dp902
g29
Vcan
p903
sg31
VO
p904
sg33
VMD
p905
sg35
I4
ssg10
I86
sg36
g4
sg37
(dp906
sg39
(dp907
sg41
I476
sg42
g21
sg43
g21
sg44
I86
sg45
Vcan
p908
sg47
I86
sg48
I479
sbag0
(g23
g2
Ntp909
Rp910
(dp911
g27
(dp912
g29
Vcontribute
p913
sg31
VO
p914
sg33
VVB
p915
sg35
I5
ssg10
I87
sg36
g4
sg37
(dp916
sg39
(dp917
sg41
I480
sg42
g21
sg43
g21
sg44
I87
sg45
Vcontribute
p918
sg47
I87
sg48
I490
sbag0
(g23
g2
Ntp919
Rp920
(dp921
g27
(dp922
g29
Vto
p923
sg31
VO
p924
sg33
VTO
p925
sg35
I6
ssg10
I88
sg36
g4
sg37
(dp926
sg39
(dp927
sg41
I491
sg42
g21
sg43
g21
sg44
I88
sg45
Vto
p928
sg47
I88
sg48
I493
sbag0
(g23
g2
Ntp929
Rp930
(dp931
g27
(dp932
g29
Vmany
p933
sg31
VO
p934
sg33
VJJ
p935
sg35
I7
ssg10
I89
sg36
g4
sg37
(dp936
sg39
(dp937
sg41
I494
sg42
g21
sg43
g21
sg44
I89
sg45
Vmany
p938
sg47
I89
sg48
I498
sbag0
(g23
g2
Ntp939
Rp940
(dp941
g27
(dp942
g29
Vpreventable
p943
sg31
VO
p944
sg33
VJJ
p945
sg35
I8
ssg10
I90
sg36
g4
sg37
(dp946
sg39
(dp947
sg41
I499
sg42
g21
sg43
g21
sg44
I90
sg45
Vpreventable
p948
sg47
I90
sg48
I510
sbag0
(g23
g2
Ntp949
Rp950
(dp951
g27
(dp952
g29
Vcause
p953
sg31
VO
p954
sg33
VNNS
p955
sg35
I9
ssg10
I91
sg36
g4
sg37
(dp956
sg39
(dp957
sg41
I511
sg42
g21
sg43
g21
sg44
I91
sg45
Vcauses
p958
sg47
I91
sg48
I517
sbag0
(g23
g2
Ntp959
Rp960
(dp961
g27
(dp962
g29
Vof
p963
sg31
VO
p964
sg33
VIN
p965
sg35
I10
ssg10
I92
sg36
g4
sg37
(dp966
sg39
(dp967
sg41
I518
sg42
g21
sg43
g21
sg44
I92
sg45
Vof
p968
sg47
I92
sg48
I520
sbag0
(g23
g2
Ntp969
Rp970
(dp971
g27
(dp972
g29
Vdeath
p973
sg31
VO
p974
sg33
VNN
p975
sg35
I11
ssg10
I93
sg36
g4
sg37
(dp976
sg39
(dp977
sg41
I521
sg42
g21
sg43
g21
sg44
I93
sg45
Vdeath
p978
sg47
I93
sg48
I526
sbag0
(g23
g2
Ntp979
Rp980
(dp981
g27
(dp982
g29
V.
p983
sg31
VO
p984
sg33
V.
p985
sg35
I12
ssg10
I94
sg36
g4
sg37
(dp986
sg39
(dp987
sg41
I526
sg42
g21
sg43
g21
sg44
I94
sg45
V.
p988
sg47
I94
sg48
I527
sbag0
(g23
g2
Ntp989
Rp990
(dp991
g27
(dp992
g29
Va
p993
sg31
VO
p994
sg33
VDT
p995
sg35
I1
ssg10
I95
sg36
g4
sg37
(dp996
sg39
(dp997
sg41
I529
sg42
g21
sg43
g21
sg44
I95
sg45
VA
p998
sg47
I95
sg48
I530
sbag0
(g23
g2
Ntp999
Rp1000
(dp1001
g27
(dp1002
g29
Vlack
p1003
sg31
VO
p1004
sg33
VNN
p1005
sg35
I2
ssg10
I96
sg36
g4
sg37
(dp1006
sg39
(dp1007
sg41
I531
sg42
g21
sg43
g21
sg44
I96
sg45
Vlack
p1008
sg47
I96
sg48
I535
sbag0
(g23
g2
Ntp1009
Rp1010
(dp1011
g27
(dp1012
g29
Vof
p1013
sg31
VO
p1014
sg33
VIN
p1015
sg35
I3
ssg10
I97
sg36
g4
sg37
(dp1016
sg39
(dp1017
sg41
I536
sg42
g21
sg43
g21
sg44
I97
sg45
Vof
p1018
sg47
I97
sg48
I538
sbag0
(g23
g2
Ntp1019
Rp1020
(dp1021
g27
(dp1022
g29
Vphysical
p1023
sg31
VO
p1024
sg33
VJJ
p1025
sg35
I4
ssg10
I98
sg36
g4
sg37
(dp1026
sg39
(dp1027
sg41
I539
sg42
g21
sg43
g21
sg44
I98
sg45
Vphysical
p1028
sg47
I98
sg48
I547
sbag0
(g23
g2
Ntp1029
Rp1030
(dp1031
g27
(dp1032
g29
Vactivity
p1033
sg31
VO
p1034
sg33
VNN
p1035
sg35
I5
ssg10
I99
sg36
g4
sg37
(dp1036
sg39
(dp1037
sg41
I548
sg42
g21
sg43
g21
sg44
I99
sg45
Vactivity
p1038
sg47
I99
sg48
I556
sbag0
(g23
g2
Ntp1039
Rp1040
(dp1041
g27
(dp1042
g29
Vbe
p1043
sg31
VO
p1044
sg33
VVBZ
p1045
sg35
I6
ssg10
I100
sg36
g4
sg37
(dp1046
sg39
(dp1047
sg41
I557
sg42
g21
sg43
g21
sg44
I100
sg45
Vis
p1048
sg47
I100
sg48
I559
sbag0
(g23
g2
Ntp1049
Rp1050
(dp1051
g27
(dp1052
g29
Vone
p1053
sg31
VNUMBER
p1054
sg33
VCD
p1055
sg35
I7
ssg10
I101
sg36
g4
sg37
(dp1056
sg39
(dp1057
sg41
I560
sg42
g21
sg43
g21
sg44
I101
sg45
Vone
p1058
sg47
I101
sg48
I563
sbag0
(g23
g2
Ntp1059
Rp1060
(dp1061
g27
(dp1062
g29
Vof
p1063
sg31
VO
p1064
sg33
VIN
p1065
sg35
I8
ssg10
I102
sg36
g4
sg37
(dp1066
sg39
(dp1067
sg41
I564
sg42
g21
sg43
g21
sg44
I102
sg45
Vof
p1068
sg47
I102
sg48
I566
sbag0
(g23
g2
Ntp1069
Rp1070
(dp1071
g27
(dp1072
g29
Vthe
p1073
sg31
VO
p1074
sg33
VDT
p1075
sg35
I9
ssg10
I103
sg36
g4
sg37
(dp1076
sg39
(dp1077
sg41
I567
sg42
g21
sg43
g21
sg44
I103
sg45
Vthe
p1078
sg47
I103
sg48
I570
sbag0
(g23
g2
Ntp1079
Rp1080
(dp1081
g27
(dp1082
g29
Vlead
p1083
sg31
VO
p1084
sg33
VVBG
p1085
sg35
I10
ssg10
I104
sg36
g4
sg37
(dp1086
sg39
(dp1087
sg41
I571
sg42
g21
sg43
g21
sg44
I104
sg45
Vleading
p1088
sg47
I104
sg48
I578
sbag0
(g23
g2
Ntp1089
Rp1090
(dp1091
g27
(dp1092
g29
Vcause
p1093
sg31
VO
p1094
sg33
VNNS
p1095
sg35
I11
ssg10
I105
sg36
g4
sg37
(dp1096
sg39
(dp1097
sg41
I579
sg42
g21
sg43
g21
sg44
I105
sg45
Vcauses
p1098
sg47
I105
sg48
I585
sbag0
(g23
g2
Ntp1099
Rp1100
(dp1101
g27
(dp1102
g29
Vof
p1103
sg31
VO
p1104
sg33
VIN
p1105
sg35
I12
ssg10
I106
sg36
g4
sg37
(dp1106
sg39
(dp1107
sg41
I586
sg42
g21
sg43
g21
sg44
I106
sg45
Vof
p1108
sg47
I106
sg48
I588
sbag0
(g23
g2
Ntp1109
Rp1110
(dp1111
g27
(dp1112
g29
Vpreventable
p1113
sg31
VO
p1114
sg33
VJJ
p1115
sg35
I13
ssg10
I107
sg36
g4
sg37
(dp1116
sg39
(dp1117
sg41
I589
sg42
g21
sg43
g21
sg44
I107
sg45
Vpreventable
p1118
sg47
I107
sg48
I600
sbag0
(g23
g2
Ntp1119
Rp1120
(dp1121
g27
(dp1122
g29
Vdeath
p1123
sg31
VO
p1124
sg33
VNN
p1125
sg35
I14
ssg10
I108
sg36
g4
sg37
(dp1126
sg39
(dp1127
sg41
I601
sg42
g21
sg43
g21
sg44
I108
sg45
Vdeath
p1128
sg47
I108
sg48
I606
sbag0
(g23
g2
Ntp1129
Rp1130
(dp1131
g27
(dp1132
g29
Vworldwide
p1133
sg31
VO
p1134
sg33
VJJ
p1135
sg35
I15
ssg10
I109
sg36
g4
sg37
(dp1136
sg39
(dp1137
sg41
I607
sg42
g21
sg43
g21
sg44
I109
sg45
Vworldwide
p1138
sg47
I109
sg48
I616
sbag0
(g23
g2
Ntp1139
Rp1140
(dp1141
g27
(dp1142
g29
V-lsb-
p1143
sg31
VO
p1144
sg33
V-LRB-
p1145
sg35
I16
ssg10
I110
sg36
g4
sg37
(dp1146
sg39
(dp1147
sg41
I617
sg42
g21
sg43
g21
sg44
I110
sg45
V[
p1148
sg47
I110
sg48
I618
sbag0
(g23
g2
Ntp1149
Rp1150
(dp1151
g27
(dp1152
g29
Vref
p1153
sg31
VO
p1154
sg33
VNN
p1155
sg35
I17
ssg10
I111
sg36
g4
sg37
(dp1156
sg39
(dp1157
sg41
I618
sg42
g21
sg43
g21
sg44
I111
sg45
VREF
p1158
sg47
I111
sg48
I621
sbag0
(g23
g2
Ntp1159
Rp1160
(dp1161
g27
(dp1162
g29
V-rsb-
p1163
sg31
VO
p1164
sg33
V-RRB-
p1165
sg35
I18
ssg10
I112
sg36
g4
sg37
(dp1166
sg39
(dp1167
sg41
I621
sg42
g21
sg43
g21
sg44
I112
sg45
V]
p1168
sg47
I112
sg48
I622
sbag0
(g23
g2
Ntp1169
Rp1170
(dp1171
g27
(dp1172
g29
V.
p1173
sg31
VO
p1174
sg33
V.
p1175
sg35
I19
ssg10
I113
sg36
g4
sg37
(dp1176
sg39
(dp1177
sg41
I622
sg42
g21
sg43
g21
sg44
I113
sg45
V.
p1178
sg47
I113
sg48
I623
sbag0
(g23
g2
Ntp1179
Rp1180
(dp1181
g27
(dp1182
g29
Va
p1183
sg31
VO
p1184
sg33
VDT
p1185
sg35
I1
ssg10
I114
sg36
g4
sg37
(dp1186
sg39
(dp1187
sg41
I626
sg42
g21
sg43
g21
sg44
I114
sg45
VA
p1188
sg47
I114
sg48
I627
sbag0
(g23
g2
Ntp1189
Rp1190
(dp1191
g27
(dp1192
g29
Vsedentary
p1193
sg31
VO
p1194
sg33
VJJ
p1195
sg35
I2
ssg10
I115
sg36
g4
sg37
(dp1196
sg39
(dp1197
sg41
I628
sg42
g21
sg43
g21
sg44
I115
sg45
Vsedentary
p1198
sg47
I115
sg48
I637
sbag0
(g23
g2
Ntp1199
Rp1200
(dp1201
g27
(dp1202
g29
Vlifestyle
p1203
sg31
VO
p1204
sg33
VNN
p1205
sg35
I3
ssg10
I116
sg36
g4
sg37
(dp1206
sg39
(dp1207
sg41
I638
sg42
g21
sg43
g21
sg44
I116
sg45
Vlifestyle
p1208
sg47
I116
sg48
I647
sbag0
(g23
g2
Ntp1209
Rp1210
(dp1211
g27
(dp1212
g29
Vand
p1213
sg31
VO
p1214
sg33
VCC
p1215
sg35
I4
ssg10
I117
sg36
g4
sg37
(dp1216
sg39
(dp1217
sg41
I648
sg42
g21
sg43
g21
sg44
I117
sg45
Vand
p1218
sg47
I117
sg48
I651
sbag0
(g23
g2
Ntp1219
Rp1220
(dp1221
g27
(dp1222
g29
Vlack
p1223
sg31
VO
p1224
sg33
VNN
p1225
sg35
I5
ssg10
I118
sg36
g4
sg37
(dp1226
sg39
(dp1227
sg41
I652
sg42
g21
sg43
g21
sg44
I118
sg45
Vlack
p1228
sg47
I118
sg48
I656
sbag0
(g23
g2
Ntp1229
Rp1230
(dp1231
g27
(dp1232
g29
Vof
p1233
sg31
VO
p1234
sg33
VIN
p1235
sg35
I6
ssg10
I119
sg36
g4
sg37
(dp1236
sg39
(dp1237
sg41
I657
sg42
g21
sg43
g21
sg44
I119
sg45
Vof
p1238
sg47
I119
sg48
I659
sbag0
(g23
g2
Ntp1239
Rp1240
(dp1241
g27
(dp1242
g29
Vphysical
p1243
sg31
VO
p1244
sg33
VJJ
p1245
sg35
I7
ssg10
I120
sg36
g4
sg37
(dp1246
sg39
(dp1247
sg41
I660
sg42
g21
sg43
g21
sg44
I120
sg45
Vphysical
p1248
sg47
I120
sg48
I668
sbag0
(g23
g2
Ntp1249
Rp1250
(dp1251
g27
(dp1252
g29
Vactivity
p1253
sg31
VO
p1254
sg33
VNN
p1255
sg35
I8
ssg10
I121
sg36
g4
sg37
(dp1256
sg39
(dp1257
sg41
I669
sg42
g21
sg43
g21
sg44
I121
sg45
Vactivity
p1258
sg47
I121
sg48
I677
sbag0
(g23
g2
Ntp1259
Rp1260
(dp1261
g27
(dp1262
g29
Vcan
p1263
sg31
VO
p1264
sg33
VMD
p1265
sg35
I9
ssg10
I122
sg36
g4
sg37
(dp1266
sg39
(dp1267
sg41
I678
sg42
g21
sg43
g21
sg44
I122
sg45
Vcan
p1268
sg47
I122
sg48
I681
sbag0
(g23
g2
Ntp1269
Rp1270
(dp1271
g27
(dp1272
g29
Vcontribute
p1273
sg31
VO
p1274
sg33
VVB
p1275
sg35
I10
ssg10
I123
sg36
g4
sg37
(dp1276
sg39
(dp1277
sg41
I682
sg42
g21
sg43
g21
sg44
I123
sg45
Vcontribute
p1278
sg47
I123
sg48
I692
sbag0
(g23
g2
Ntp1279
Rp1280
(dp1281
g27
(dp1282
g29
Vto
p1283
sg31
VO
p1284
sg33
VTO
p1285
sg35
I11
ssg10
I124
sg36
g4
sg37
(dp1286
sg39
(dp1287
sg41
I693
sg42
g21
sg43
g21
sg44
I124
sg45
Vto
p1288
sg47
I124
sg48
I695
sbag0
(g23
g2
Ntp1289
Rp1290
(dp1291
g27
(dp1292
g29
Vor
p1293
sg31
VO
p1294
sg33
VCC
p1295
sg35
I12
ssg10
I125
sg36
g4
sg37
(dp1296
sg39
(dp1297
sg41
I696
sg42
g21
sg43
g21
sg44
I125
sg45
Vor
p1298
sg47
I125
sg48
I698
sbag0
(g23
g2
Ntp1299
Rp1300
(dp1301
g27
(dp1302
g29
Vbe
p1303
sg31
VO
p1304
sg33
VVB
p1305
sg35
I13
ssg10
I126
sg36
g4
sg37
(dp1306
sg39
(dp1307
sg41
I699
sg42
g21
sg43
g21
sg44
I126
sg45
Vbe
p1308
sg47
I126
sg48
I701
sbag0
(g23
g2
Ntp1309
Rp1310
(dp1311
g27
(dp1312
g29
Va
p1313
sg31
VO
p1314
sg33
VDT
p1315
sg35
I14
ssg10
I127
sg36
g4
sg37
(dp1316
sg39
(dp1317
sg41
I702
sg42
g21
sg43
g21
sg44
I127
sg45
Va
p1318
sg47
I127
sg48
I703
sbag0
(g23
g2
Ntp1319
Rp1320
(dp1321
g27
(dp1322
g29
Vrisk
p1323
sg31
VO
p1324
sg33
VNN
p1325
sg35
I15
ssg10
I128
sg36
g4
sg37
(dp1326
sg39
(dp1327
sg41
I704
sg42
g21
sg43
g21
sg44
I128
sg45
Vrisk
p1328
sg47
I128
sg48
I708
sbag0
(g23
g2
Ntp1329
Rp1330
(dp1331
g27
(dp1332
g29
Vfactor
p1333
sg31
VO
p1334
sg33
VNN
p1335
sg35
I16
ssg10
I129
sg36
g4
sg37
(dp1336
sg39
(dp1337
sg41
I709
sg42
g21
sg43
g21
sg44
I129
sg45
Vfactor
p1338
sg47
I129
sg48
I715
sbag0
(g23
g2
Ntp1339
Rp1340
(dp1341
g27
(dp1342
g29
Vfor
p1343
sg31
VO
p1344
sg33
VIN
p1345
sg35
I17
ssg10
I130
sg36
g4
sg37
(dp1346
sg39
(dp1347
sg41
I716
sg42
g21
sg43
g21
sg44
I130
sg45
Vfor
p1348
sg47
I130
sg48
I719
sbag0
(g23
g2
Ntp1349
Rp1350
(dp1351
g27
(dp1352
g29
V:
p1353
sg31
VO
p1354
sg33
V:
p1355
sg35
I18
ssg10
I131
sg36
g4
sg37
(dp1356
sg39
(dp1357
sg41
I719
sg42
g21
sg43
g21
sg44
I131
sg45
V:
p1358
sg47
I131
sg48
I720
sbag0
(g23
g2
Ntp1359
Rp1360
(dp1361
g27
(dp1362
g29
Vanxiety
p1363
sg31
VO
p1364
sg33
VNN
p1365
sg35
I19
ssg10
I132
sg36
g4
sg37
(dp1366
sg39
(dp1367
sg41
I722
sg42
g21
sg43
g21
sg44
I132
sg45
VAnxiety
p1368
sg47
I132
sg48
I729
sbag0
(g23
g2
Ntp1369
Rp1370
(dp1371
g27
(dp1372
g29
V-lsb-
p1373
sg31
VO
p1374
sg33
V-LRB-
p1375
sg35
I20
ssg10
I133
sg36
g4
sg37
(dp1376
sg39
(dp1377
sg41
I729
sg42
g21
sg43
g21
sg44
I133
sg45
V[
p1378
sg47
I133
sg48
I730
sbag0
(g23
g2
Ntp1379
Rp1380
(dp1381
g27
(dp1382
g29
Vref
p1383
sg31
VO
p1384
sg33
VNN
p1385
sg35
I21
ssg10
I134
sg36
g4
sg37
(dp1386
sg39
(dp1387
sg41
I730
sg42
g21
sg43
g21
sg44
I134
sg45
VREF
p1388
sg47
I134
sg48
I733
sbag0
(g23
g2
Ntp1389
Rp1390
(dp1391
g27
(dp1392
g29
V-rsb-
p1393
sg31
VO
p1394
sg33
V-RRB-
p1395
sg35
I22
ssg10
I135
sg36
g4
sg37
(dp1396
sg39
(dp1397
sg41
I733
sg42
g21
sg43
g21
sg44
I135
sg45
V]
p1398
sg47
I135
sg48
I734
sbag0
(g23
g2
Ntp1399
Rp1400
(dp1401
g27
(dp1402
g29
V-lsb-
p1403
sg31
VO
p1404
sg33
V-LRB-
p1405
sg35
I23
ssg10
I136
sg36
g4
sg37
(dp1406
sg39
(dp1407
sg41
I734
sg42
g21
sg43
g21
sg44
I136
sg45
V[
p1408
sg47
I136
sg48
I735
sbag0
(g23
g2
Ntp1409
Rp1410
(dp1411
g27
(dp1412
g29
Vref
p1413
sg31
VO
p1414
sg33
VNN
p1415
sg35
I24
ssg10
I137
sg36
g4
sg37
(dp1416
sg39
(dp1417
sg41
I735
sg42
g21
sg43
g21
sg44
I137
sg45
VREF
p1418
sg47
I137
sg48
I738
sbag0
(g23
g2
Ntp1419
Rp1420
(dp1421
g27
(dp1422
g29
V-rsb-
p1423
sg31
VO
p1424
sg33
V-RRB-
p1425
sg35
I25
ssg10
I138
sg36
g4
sg37
(dp1426
sg39
(dp1427
sg41
I738
sg42
g21
sg43
g21
sg44
I138
sg45
V]
p1428
sg47
I138
sg48
I739
sbag0
(g23
g2
Ntp1429
Rp1430
(dp1431
g27
(dp1432
g29
V-lsb-
p1433
sg31
VO
p1434
sg33
V-LRB-
p1435
sg35
I26
ssg10
I139
sg36
g4
sg37
(dp1436
sg39
(dp1437
sg41
I739
sg42
g21
sg43
g21
sg44
I139
sg45
V[
p1438
sg47
I139
sg48
I740
sbag0
(g23
g2
Ntp1439
Rp1440
(dp1441
g27
(dp1442
g29
Vref
p1443
sg31
VO
p1444
sg33
VNN
p1445
sg35
I27
ssg10
I140
sg36
g4
sg37
(dp1446
sg39
(dp1447
sg41
I740
sg42
g21
sg43
g21
sg44
I140
sg45
VREF
p1448
sg47
I140
sg48
I743
sbag0
(g23
g2
Ntp1449
Rp1450
(dp1451
g27
(dp1452
g29
V-rsb-
p1453
sg31
VO
p1454
sg33
V-RRB-
p1455
sg35
I28
ssg10
I141
sg36
g4
sg37
(dp1456
sg39
(dp1457
sg41
I743
sg42
g21
sg43
g21
sg44
I141
sg45
V]
p1458
sg47
I141
sg48
I744
sbag0
(g23
g2
Ntp1459
Rp1460
(dp1461
g27
(dp1462
g29
VCardiovascular
p1463
sg31
VO
p1464
sg33
VNNP
p1465
sg35
I29
ssg10
I142
sg36
g4
sg37
(dp1466
sg39
(dp1467
sg41
I745
sg42
g21
sg43
g21
sg44
I142
sg45
VCardiovascular
p1468
sg47
I142
sg48
I759
sbag0
(g23
g2
Ntp1469
Rp1470
(dp1471
g27
(dp1472
g29
Vdisease
p1473
sg31
VO
p1474
sg33
VNN
p1475
sg35
I30
ssg10
I143
sg36
g4
sg37
(dp1476
sg39
(dp1477
sg41
I760
sg42
g21
sg43
g21
sg44
I143
sg45
Vdisease
p1478
sg47
I143
sg48
I767
sbag0
(g23
g2
Ntp1479
Rp1480
(dp1481
g27
(dp1482
g29
V-lsb-
p1483
sg31
VO
p1484
sg33
V-LRB-
p1485
sg35
I31
ssg10
I144
sg36
g4
sg37
(dp1486
sg39
(dp1487
sg41
I767
sg42
g21
sg43
g21
sg44
I144
sg45
V[
p1488
sg47
I144
sg48
I768
sbag0
(g23
g2
Ntp1489
Rp1490
(dp1491
g27
(dp1492
g29
Vref
p1493
sg31
VO
p1494
sg33
VNN
p1495
sg35
I32
ssg10
I145
sg36
g4
sg37
(dp1496
sg39
(dp1497
sg41
I768
sg42
g21
sg43
g21
sg44
I145
sg45
VREF
p1498
sg47
I145
sg48
I771
sbag0
(g23
g2
Ntp1499
Rp1500
(dp1501
g27
(dp1502
g29
V-rsb-
p1503
sg31
VO
p1504
sg33
V-RRB-
p1505
sg35
I33
ssg10
I146
sg36
g4
sg37
(dp1506
sg39
(dp1507
sg41
I771
sg42
g21
sg43
g21
sg44
I146
sg45
V]
p1508
sg47
I146
sg48
I772
sbag0
(g23
g2
Ntp1509
Rp1510
(dp1511
g27
(dp1512
g29
V-lsb-
p1513
sg31
VO
p1514
sg33
V-LRB-
p1515
sg35
I34
ssg10
I147
sg36
g4
sg37
(dp1516
sg39
(dp1517
sg41
I772
sg42
g21
sg43
g21
sg44
I147
sg45
V[
p1518
sg47
I147
sg48
I773
sbag0
(g23
g2
Ntp1519
Rp1520
(dp1521
g27
(dp1522
g29
Vref
p1523
sg31
VO
p1524
sg33
VNN
p1525
sg35
I35
ssg10
I148
sg36
g4
sg37
(dp1526
sg39
(dp1527
sg41
I773
sg42
g21
sg43
g21
sg44
I148
sg45
VREF
p1528
sg47
I148
sg48
I776
sbag0
(g23
g2
Ntp1529
Rp1530
(dp1531
g27
(dp1532
g29
V-rsb-
p1533
sg31
VO
p1534
sg33
V-RRB-
p1535
sg35
I36
ssg10
I149
sg36
g4
sg37
(dp1536
sg39
(dp1537
sg41
I776
sg42
g21
sg43
g21
sg44
I149
sg45
V]
p1538
sg47
I149
sg48
I777
sbag0
(g23
g2
Ntp1539
Rp1540
(dp1541
g27
(dp1542
g29
Vmortality
p1543
sg31
VO
p1544
sg33
VNN
p1545
sg35
I37
ssg10
I150
sg36
g4
sg37
(dp1546
sg39
(dp1547
sg41
I779
sg42
g21
sg43
g21
sg44
I150
sg45
VMortality
p1548
sg47
I150
sg48
I788
sbag0
(g23
g2
Ntp1549
Rp1550
(dp1551
g27
(dp1552
g29
Vin
p1553
sg31
VO
p1554
sg33
VIN
p1555
sg35
I38
ssg10
I151
sg36
g4
sg37
(dp1556
sg39
(dp1557
sg41
I789
sg42
g21
sg43
g21
sg44
I151
sg45
Vin
p1558
sg47
I151
sg48
I791
sbag0
(g23
g2
Ntp1559
Rp1560
(dp1561
g27
(dp1562
g29
Velderly
p1563
sg31
VO
p1564
sg33
VJJ
p1565
sg35
I39
ssg10
I152
sg36
g4
sg37
(dp1566
sg39
(dp1567
sg41
I792
sg42
g21
sg43
g21
sg44
I152
sg45
Velderly
p1568
sg47
I152
sg48
I799
sbag0
(g23
g2
Ntp1569
Rp1570
(dp1571
g27
(dp1572
g29
Vman
p1573
sg31
VO
p1574
sg33
VNNS
p1575
sg35
I40
ssg10
I153
sg36
g4
sg37
(dp1576
sg39
(dp1577
sg41
I800
sg42
g21
sg43
g21
sg44
I153
sg45
Vmen
p1578
sg47
I153
sg48
I803
sbag0
(g23
g2
Ntp1579
Rp1580
(dp1581
g27
(dp1582
g29
Vby
p1583
sg31
VO
p1584
sg33
VIN
p1585
sg35
I41
ssg10
I154
sg36
g4
sg37
(dp1586
sg39
(dp1587
sg41
I804
sg42
g21
sg43
g21
sg44
I154
sg45
Vby
p1588
sg47
I154
sg48
I806
sbag0
(g23
g2
Ntp1589
Rp1590
(dp1591
g27
(dp1592
g29
V30
p1593
sg31
VPERCENT
p1594
sg33
VCD
p1595
sg35
I42
ssg10
I155
sg36
g4
sg37
(dp1596
sg39
(dp1597
sg41
I807
sg42
g21
sg43
g21
sg44
I155
sg45
V30
p1598
sg47
I155
sg48
I809
sbag0
(g23
g2
Ntp1599
Rp1600
(dp1601
g27
(dp1602
g29
V%
p1603
sg31
VPERCENT
p1604
sg33
VNN
p1605
sg35
I43
ssg10
I156
sg36
g4
sg37
(dp1606
sg39
(dp1607
sg41
I809
sg42
g21
sg43
g21
sg44
I156
sg45
V%
p1608
sg47
I156
sg48
I810
sbag0
(g23
g2
Ntp1609
Rp1610
(dp1611
g27
(dp1612
g29
Vand
p1613
sg31
VO
p1614
sg33
VCC
p1615
sg35
I44
ssg10
I157
sg36
g4
sg37
(dp1616
sg39
(dp1617
sg41
I811
sg42
g21
sg43
g21
sg44
I157
sg45
Vand
p1618
sg47
I157
sg48
I814
sbag0
(g23
g2
Ntp1619
Rp1620
(dp1621
g27
(dp1622
g29
Vdouble
p1623
sg31
VO
p1624
sg33
VVB
p1625
sg35
I45
ssg10
I158
sg36
g4
sg37
(dp1626
sg39
(dp1627
sg41
I815
sg42
g21
sg43
g21
sg44
I158
sg45
Vdouble
p1628
sg47
I158
sg48
I821
sbag0
(g23
g2
Ntp1629
Rp1630
(dp1631
g27
(dp1632
g29
Vthe
p1633
sg31
VO
p1634
sg33
VDT
p1635
sg35
I46
ssg10
I159
sg36
g4
sg37
(dp1636
sg39
(dp1637
sg41
I822
sg42
g21
sg43
g21
sg44
I159
sg45
Vthe
p1638
sg47
I159
sg48
I825
sbag0
(g23
g2
Ntp1639
Rp1640
(dp1641
g27
(dp1642
g29
Vrisk
p1643
sg31
VO
p1644
sg33
VNN
p1645
sg35
I47
ssg10
I160
sg36
g4
sg37
(dp1646
sg39
(dp1647
sg41
I826
sg42
g21
sg43
g21
sg44
I160
sg45
Vrisk
p1648
sg47
I160
sg48
I830
sbag0
(g23
g2
Ntp1649
Rp1650
(dp1651
g27
(dp1652
g29
Vin
p1653
sg31
VO
p1654
sg33
VIN
p1655
sg35
I48
ssg10
I161
sg36
g4
sg37
(dp1656
sg39
(dp1657
sg41
I831
sg42
g21
sg43
g21
sg44
I161
sg45
Vin
p1658
sg47
I161
sg48
I833
sbag0
(g23
g2
Ntp1659
Rp1660
(dp1661
g27
(dp1662
g29
Velderly
p1663
sg31
VO
p1664
sg33
VJJ
p1665
sg35
I49
ssg10
I162
sg36
g4
sg37
(dp1666
sg39
(dp1667
sg41
I834
sg42
g21
sg43
g21
sg44
I162
sg45
Velderly
p1668
sg47
I162
sg48
I841
sbag0
(g23
g2
Ntp1669
Rp1670
(dp1671
g27
(dp1672
g29
Vwoman
p1673
sg31
VO
p1674
sg33
VNNS
p1675
sg35
I50
ssg10
I163
sg36
g4
sg37
(dp1676
sg39
(dp1677
sg41
I842
sg42
g21
sg43
g21
sg44
I163
sg45
Vwomen
p1678
sg47
I163
sg48
I847
sbag0
(g23
g2
Ntp1679
Rp1680
(dp1681
g27
(dp1682
g29
V-lsb-
p1683
sg31
VO
p1684
sg33
V-LRB-
p1685
sg35
I51
ssg10
I164
sg36
g4
sg37
(dp1686
sg39
(dp1687
sg41
I847
sg42
g21
sg43
g21
sg44
I164
sg45
V[
p1688
sg47
I164
sg48
I848
sbag0
(g23
g2
Ntp1689
Rp1690
(dp1691
g27
(dp1692
g29
Vref
p1693
sg31
VO
p1694
sg33
VNN
p1695
sg35
I52
ssg10
I165
sg36
g4
sg37
(dp1696
sg39
(dp1697
sg41
I848
sg42
g21
sg43
g21
sg44
I165
sg45
VREF
p1698
sg47
I165
sg48
I851
sbag0
(g23
g2
Ntp1699
Rp1700
(dp1701
g27
(dp1702
g29
V-rsb-
p1703
sg31
VO
p1704
sg33
V-RRB-
p1705
sg35
I53
ssg10
I166
sg36
g4
sg37
(dp1706
sg39
(dp1707
sg41
I851
sg42
g21
sg43
g21
sg44
I166
sg45
V]
p1708
sg47
I166
sg48
I852
sbag0
(g23
g2
Ntp1709
Rp1710
(dp1711
g27
(dp1712
g29
Vdeep
p1713
sg31
VO
p1714
sg33
VJJ
p1715
sg35
I54
ssg10
I167
sg36
g4
sg37
(dp1716
sg39
(dp1717
sg41
I853
sg42
g21
sg43
g21
sg44
I167
sg45
VDeep
p1718
sg47
I167
sg48
I857
sbag0
(g23
g2
Ntp1719
Rp1720
(dp1721
g27
(dp1722
g29
Vvein
p1723
sg31
VO
p1724
sg33
VNN
p1725
sg35
I55
ssg10
I168
sg36
g4
sg37
(dp1726
sg39
(dp1727
sg41
I858
sg42
g21
sg43
g21
sg44
I168
sg45
Vvein
p1728
sg47
I168
sg48
I862
sbag0
(g23
g2
Ntp1729
Rp1730
(dp1731
g27
(dp1732
g29
Vthrombosis
p1733
sg31
VO
p1734
sg33
VNN
p1735
sg35
I56
ssg10
I169
sg36
g4
sg37
(dp1736
sg39
(dp1737
sg41
I863
sg42
g21
sg43
g21
sg44
I169
sg45
Vthrombosis
p1738
sg47
I169
sg48
I873
sbag0
(g23
g2
Ntp1739
Rp1740
(dp1741
g27
(dp1742
g29
Vdepression
p1743
sg31
VO
p1744
sg33
VNN
p1745
sg35
I57
ssg10
I170
sg36
g4
sg37
(dp1746
sg39
(dp1747
sg41
I874
sg42
g21
sg43
g21
sg44
I170
sg45
VDepression
p1748
sg47
I170
sg48
I884
sbag0
(g23
g2
Ntp1749
Rp1750
(dp1751
g27
(dp1752
g29
V-lsb-
p1753
sg31
VO
p1754
sg33
V-LRB-
p1755
sg35
I58
ssg10
I171
sg36
g4
sg37
(dp1756
sg39
(dp1757
sg41
I884
sg42
g21
sg43
g21
sg44
I171
sg45
V[
p1758
sg47
I171
sg48
I885
sbag0
(g23
g2
Ntp1759
Rp1760
(dp1761
g27
(dp1762
g29
Vref
p1763
sg31
VO
p1764
sg33
VNN
p1765
sg35
I59
ssg10
I172
sg36
g4
sg37
(dp1766
sg39
(dp1767
sg41
I885
sg42
g21
sg43
g21
sg44
I172
sg45
VREF
p1768
sg47
I172
sg48
I888
sbag0
(g23
g2
Ntp1769
Rp1770
(dp1771
g27
(dp1772
g29
V-rsb-
p1773
sg31
VO
p1774
sg33
V-RRB-
p1775
sg35
I60
ssg10
I173
sg36
g4
sg37
(dp1776
sg39
(dp1777
sg41
I888
sg42
g21
sg43
g21
sg44
I173
sg45
V]
p1778
sg47
I173
sg48
I889
sbag0
(g23
g2
Ntp1779
Rp1780
(dp1781
g27
(dp1782
g29
V-lsb-
p1783
sg31
VO
p1784
sg33
V-LRB-
p1785
sg35
I61
ssg10
I174
sg36
g4
sg37
(dp1786
sg39
(dp1787
sg41
I889
sg42
g21
sg43
g21
sg44
I174
sg45
V[
p1788
sg47
I174
sg48
I890
sbag0
(g23
g2
Ntp1789
Rp1790
(dp1791
g27
(dp1792
g29
Vref
p1793
sg31
VO
p1794
sg33
VNN
p1795
sg35
I62
ssg10
I175
sg36
g4
sg37
(dp1796
sg39
(dp1797
sg41
I890
sg42
g21
sg43
g21
sg44
I175
sg45
VREF
p1798
sg47
I175
sg48
I893
sbag0
(g23
g2
Ntp1799
Rp1800
(dp1801
g27
(dp1802
g29
V-rsb-
p1803
sg31
VO
p1804
sg33
V-RRB-
p1805
sg35
I63
ssg10
I176
sg36
g4
sg37
(dp1806
sg39
(dp1807
sg41
I893
sg42
g21
sg43
g21
sg44
I176
sg45
V]
p1808
sg47
I176
sg48
I894
sbag0
(g23
g2
Ntp1809
Rp1810
(dp1811
g27
(dp1812
g29
VDiabetes
p1813
sg31
VO
p1814
sg33
VNNP
p1815
sg35
I64
ssg10
I177
sg36
g4
sg37
(dp1816
sg39
(dp1817
sg41
I895
sg42
g21
sg43
g21
sg44
I177
sg45
VDiabetes
p1818
sg47
I177
sg48
I903
sbag0
(g23
g2
Ntp1819
Rp1820
(dp1821
g27
(dp1822
g29
V-lsb-
p1823
sg31
VO
p1824
sg33
V-LRB-
p1825
sg35
I65
ssg10
I178
sg36
g4
sg37
(dp1826
sg39
(dp1827
sg41
I903
sg42
g21
sg43
g21
sg44
I178
sg45
V[
p1828
sg47
I178
sg48
I904
sbag0
(g23
g2
Ntp1829
Rp1830
(dp1831
g27
(dp1832
g29
VREF
p1833
sg31
VO
p1834
sg33
VNNP
p1835
sg35
I66
ssg10
I179
sg36
g4
sg37
(dp1836
sg39
(dp1837
sg41
I904
sg42
g21
sg43
g21
sg44
I179
sg45
VREF
p1838
sg47
I179
sg48
I907
sbag0
(g23
g2
Ntp1839
Rp1840
(dp1841
g27
(dp1842
g29
V-rsb-
p1843
sg31
VO
p1844
sg33
V-RRB-
p1845
sg35
I67
ssg10
I180
sg36
g4
sg37
(dp1846
sg39
(dp1847
sg41
I907
sg42
g21
sg43
g21
sg44
I180
sg45
V]
p1848
sg47
I180
sg48
I908
sbag0
(g23
g2
Ntp1849
Rp1850
(dp1851
g27
(dp1852
g29
Vcolon
p1853
sg31
VO
p1854
sg33
VNN
p1855
sg35
I68
ssg10
I181
sg36
g4
sg37
(dp1856
sg39
(dp1857
sg41
I909
sg42
g21
sg43
g21
sg44
I181
sg45
VColon
p1858
sg47
I181
sg48
I914
sbag0
(g23
g2
Ntp1859
Rp1860
(dp1861
g27
(dp1862
g29
Vcancer
p1863
sg31
VO
p1864
sg33
VNN
p1865
sg35
I69
ssg10
I182
sg36
g4
sg37
(dp1866
sg39
(dp1867
sg41
I915
sg42
g21
sg43
g21
sg44
I182
sg45
Vcancer
p1868
sg47
I182
sg48
I921
sbag0
(g23
g2
Ntp1869
Rp1870
(dp1871
g27
(dp1872
g29
V-lsb-
p1873
sg31
VO
p1874
sg33
V-LRB-
p1875
sg35
I70
ssg10
I183
sg36
g4
sg37
(dp1876
sg39
(dp1877
sg41
I921
sg42
g21
sg43
g21
sg44
I183
sg45
V[
p1878
sg47
I183
sg48
I922
sbag0
(g23
g2
Ntp1879
Rp1880
(dp1881
g27
(dp1882
g29
Vref
p1883
sg31
VO
p1884
sg33
VNN
p1885
sg35
I71
ssg10
I184
sg36
g4
sg37
(dp1886
sg39
(dp1887
sg41
I922
sg42
g21
sg43
g21
sg44
I184
sg45
VREF
p1888
sg47
I184
sg48
I925
sbag0
(g23
g2
Ntp1889
Rp1890
(dp1891
g27
(dp1892
g29
V-rsb-
p1893
sg31
VO
p1894
sg33
V-RRB-
p1895
sg35
I72
ssg10
I185
sg36
g4
sg37
(dp1896
sg39
(dp1897
sg41
I925
sg42
g21
sg43
g21
sg44
I185
sg45
V]
p1898
sg47
I185
sg48
I926
sbag0
(g23
g2
Ntp1899
Rp1900
(dp1901
g27
(dp1902
g29
Vhigh
p1903
sg31
VO
p1904
sg33
VJJ
p1905
sg35
I73
ssg10
I186
sg36
g4
sg37
(dp1906
sg39
(dp1907
sg41
I927
sg42
g21
sg43
g21
sg44
I186
sg45
VHigh
p1908
sg47
I186
sg48
I931
sbag0
(g23
g2
Ntp1909
Rp1910
(dp1911
g27
(dp1912
g29
Vblood
p1913
sg31
VO
p1914
sg33
VNN
p1915
sg35
I74
ssg10
I187
sg36
g4
sg37
(dp1916
sg39
(dp1917
sg41
I932
sg42
g21
sg43
g21
sg44
I187
sg45
Vblood
p1918
sg47
I187
sg48
I937
sbag0
(g23
g2
Ntp1919
Rp1920
(dp1921
g27
(dp1922
g29
Vpressure
p1923
sg31
VO
p1924
sg33
VNN
p1925
sg35
I75
ssg10
I188
sg36
g4
sg37
(dp1926
sg39
(dp1927
sg41
I938
sg42
g21
sg43
g21
sg44
I188
sg45
Vpressure
p1928
sg47
I188
sg48
I946
sbag0
(g23
g2
Ntp1929
Rp1930
(dp1931
g27
(dp1932
g29
V-lsb-
p1933
sg31
VO
p1934
sg33
V-LRB-
p1935
sg35
I76
ssg10
I189
sg36
g4
sg37
(dp1936
sg39
(dp1937
sg41
I946
sg42
g21
sg43
g21
sg44
I189
sg45
V[
p1938
sg47
I189
sg48
I947
sbag0
(g23
g2
Ntp1939
Rp1940
(dp1941
g27
(dp1942
g29
Vref
p1943
sg31
VO
p1944
sg33
VNN
p1945
sg35
I77
ssg10
I190
sg36
g4
sg37
(dp1946
sg39
(dp1947
sg41
I947
sg42
g21
sg43
g21
sg44
I190
sg45
VREF
p1948
sg47
I190
sg48
I950
sbag0
(g23
g2
Ntp1949
Rp1950
(dp1951
g27
(dp1952
g29
V-rsb-
p1953
sg31
VO
p1954
sg33
V-RRB-
p1955
sg35
I78
ssg10
I191
sg36
g4
sg37
(dp1956
sg39
(dp1957
sg41
I950
sg42
g21
sg43
g21
sg44
I191
sg45
V]
p1958
sg47
I191
sg48
I951
sbag0
(g23
g2
Ntp1959
Rp1960
(dp1961
g27
(dp1962
g29
V-lsb-
p1963
sg31
VO
p1964
sg33
V-LRB-
p1965
sg35
I79
ssg10
I192
sg36
g4
sg37
(dp1966
sg39
(dp1967
sg41
I951
sg42
g21
sg43
g21
sg44
I192
sg45
V[
p1968
sg47
I192
sg48
I952
sbag0
(g23
g2
Ntp1969
Rp1970
(dp1971
g27
(dp1972
g29
Vref
p1973
sg31
VO
p1974
sg33
VNN
p1975
sg35
I80
ssg10
I193
sg36
g4
sg37
(dp1976
sg39
(dp1977
sg41
I952
sg42
g21
sg43
g21
sg44
I193
sg45
VREF
p1978
sg47
I193
sg48
I955
sbag0
(g23
g2
Ntp1979
Rp1980
(dp1981
g27
(dp1982
g29
V-rsb-
p1983
sg31
VO
p1984
sg33
V-RRB-
p1985
sg35
I81
ssg10
I194
sg36
g4
sg37
(dp1986
sg39
(dp1987
sg41
I955
sg42
g21
sg43
g21
sg44
I194
sg45
V]
p1988
sg47
I194
sg48
I956
sbag0
(g23
g2
Ntp1989
Rp1990
(dp1991
g27
(dp1992
g29
Vobesity
p1993
sg31
VO
p1994
sg33
VNN
p1995
sg35
I82
ssg10
I195
sg36
g4
sg37
(dp1996
sg39
(dp1997
sg41
I957
sg42
g21
sg43
g21
sg44
I195
sg45
VObesity
p1998
sg47
I195
sg48
I964
sbag0
(g23
g2
Ntp1999
Rp2000
(dp2001
g27
(dp2002
g29
V-lsb-
p2003
sg31
VO
p2004
sg33
V-LRB-
p2005
sg35
I83
ssg10
I196
sg36
g4
sg37
(dp2006
sg39
(dp2007
sg41
I964
sg42
g21
sg43
g21
sg44
I196
sg45
V[
p2008
sg47
I196
sg48
I965
sbag0
(g23
g2
Ntp2009
Rp2010
(dp2011
g27
(dp2012
g29
Vref
p2013
sg31
VO
p2014
sg33
VNN
p2015
sg35
I84
ssg10
I197
sg36
g4
sg37
(dp2016
sg39
(dp2017
sg41
I965
sg42
g21
sg43
g21
sg44
I197
sg45
VREF
p2018
sg47
I197
sg48
I968
sbag0
(g23
g2
Ntp2019
Rp2020
(dp2021
g27
(dp2022
g29
V-rsb-
p2023
sg31
VO
p2024
sg33
V-RRB-
p2025
sg35
I85
ssg10
I198
sg36
g4
sg37
(dp2026
sg39
(dp2027
sg41
I968
sg42
g21
sg43
g21
sg44
I198
sg45
V]
p2028
sg47
I198
sg48
I969
sbag0
(g23
g2
Ntp2029
Rp2030
(dp2031
g27
(dp2032
g29
V-lsb-
p2033
sg31
VO
p2034
sg33
V-LRB-
p2035
sg35
I86
ssg10
I199
sg36
g4
sg37
(dp2036
sg39
(dp2037
sg41
I969
sg42
g21
sg43
g21
sg44
I199
sg45
V[
p2038
sg47
I199
sg48
I970
sbag0
(g23
g2
Ntp2039
Rp2040
(dp2041
g27
(dp2042
g29
Vref
p2043
sg31
VO
p2044
sg33
VNN
p2045
sg35
I87
ssg10
I200
sg36
g4
sg37
(dp2046
sg39
(dp2047
sg41
I970
sg42
g21
sg43
g21
sg44
I200
sg45
VREF
p2048
sg47
I200
sg48
I973
sbag0
(g23
g2
Ntp2049
Rp2050
(dp2051
g27
(dp2052
g29
V-rsb-
p2053
sg31
VO
p2054
sg33
V-RRB-
p2055
sg35
I88
ssg10
I201
sg36
g4
sg37
(dp2056
sg39
(dp2057
sg41
I973
sg42
g21
sg43
g21
sg44
I201
sg45
V]
p2058
sg47
I201
sg48
I974
sbag0
(g23
g2
Ntp2059
Rp2060
(dp2061
g27
(dp2062
g29
Vosteoporosis
p2063
sg31
VO
p2064
sg33
VNN
p2065
sg35
I89
ssg10
I202
sg36
g4
sg37
(dp2066
sg39
(dp2067
sg41
I975
sg42
g21
sg43
g21
sg44
I202
sg45
VOsteoporosis
p2068
sg47
I202
sg48
I987
sbag0
(g23
g2
Ntp2069
Rp2070
(dp2071
g27
(dp2072
g29
V-lsb-
p2073
sg31
VO
p2074
sg33
V-LRB-
p2075
sg35
I90
ssg10
I203
sg36
g4
sg37
(dp2076
sg39
(dp2077
sg41
I987
sg42
g21
sg43
g21
sg44
I203
sg45
V[
p2078
sg47
I203
sg48
I988
sbag0
(g23
g2
Ntp2079
Rp2080
(dp2081
g27
(dp2082
g29
Vref
p2083
sg31
VO
p2084
sg33
VNN
p2085
sg35
I91
ssg10
I204
sg36
g4
sg37
(dp2086
sg39
(dp2087
sg41
I988
sg42
g21
sg43
g21
sg44
I204
sg45
VREF
p2088
sg47
I204
sg48
I991
sbag0
(g23
g2
Ntp2089
Rp2090
(dp2091
g27
(dp2092
g29
V-rsb-
p2093
sg31
VO
p2094
sg33
V-RRB-
p2095
sg35
I92
ssg10
I205
sg36
g4
sg37
(dp2096
sg39
(dp2097
sg41
I991
sg42
g21
sg43
g21
sg44
I205
sg45
V]
p2098
sg47
I205
sg48
I992
sbag0
(g23
g2
Ntp2099
Rp2100
(dp2101
g27
(dp2102
g29
V-lsb-
p2103
sg31
VO
p2104
sg33
V-LRB-
p2105
sg35
I93
ssg10
I206
sg36
g4
sg37
(dp2106
sg39
(dp2107
sg41
I992
sg42
g21
sg43
g21
sg44
I206
sg45
V[
p2108
sg47
I206
sg48
I993
sbag0
(g23
g2
Ntp2109
Rp2110
(dp2111
g27
(dp2112
g29
Vref
p2113
sg31
VO
p2114
sg33
VNN
p2115
sg35
I94
ssg10
I207
sg36
g4
sg37
(dp2116
sg39
(dp2117
sg41
I993
sg42
g21
sg43
g21
sg44
I207
sg45
VREF
p2118
sg47
I207
sg48
I996
sbag0
(g23
g2
Ntp2119
Rp2120
(dp2121
g27
(dp2122
g29
V-rsb-
p2123
sg31
VO
p2124
sg33
V-RRB-
p2125
sg35
I95
ssg10
I208
sg36
g4
sg37
(dp2126
sg39
(dp2127
sg41
I996
sg42
g21
sg43
g21
sg44
I208
sg45
V]
p2128
sg47
I208
sg48
I997
sbag0
(g23
g2
Ntp2129
Rp2130
(dp2131
g27
(dp2132
g29
V-lsb-
p2133
sg31
VO
p2134
sg33
V-LRB-
p2135
sg35
I96
ssg10
I209
sg36
g4
sg37
(dp2136
sg39
(dp2137
sg41
I997
sg42
g21
sg43
g21
sg44
I209
sg45
V[
p2138
sg47
I209
sg48
I998
sbag0
(g23
g2
Ntp2139
Rp2140
(dp2141
g27
(dp2142
g29
Vref
p2143
sg31
VO
p2144
sg33
VNN
p2145
sg35
I97
ssg10
I210
sg36
g4
sg37
(dp2146
sg39
(dp2147
sg41
I998
sg42
g21
sg43
g21
sg44
I210
sg45
VREF
p2148
sg47
I210
sg48
I1001
sbag0
(g23
g2
Ntp2149
Rp2150
(dp2151
g27
(dp2152
g29
V-rsb-
p2153
sg31
VO
p2154
sg33
V-RRB-
p2155
sg35
I98
ssg10
I211
sg36
g4
sg37
(dp2156
sg39
(dp2157
sg41
I1001
sg42
g21
sg43
g21
sg44
I211
sg45
V]
p2158
sg47
I211
sg48
I1002
sbag0
(g23
g2
Ntp2159
Rp2160
(dp2161
g27
(dp2162
g29
Vlipid
p2163
sg31
VO
p2164
sg33
VNN
p2165
sg35
I99
ssg10
I212
sg36
g4
sg37
(dp2166
sg39
(dp2167
sg41
I1004
sg42
g21
sg43
g21
sg44
I212
sg45
VLipid
p2168
sg47
I212
sg48
I1009
sbag0
(g23
g2
Ntp2169
Rp2170
(dp2171
g27
(dp2172
g29
Vdisorder
p2173
sg31
VO
p2174
sg33
VNNS
p2175
sg35
I100
ssg10
I213
sg36
g4
sg37
(dp2176
sg39
(dp2177
sg41
I1010
sg42
g21
sg43
g21
sg44
I213
sg45
Vdisorders
p2178
sg47
I213
sg48
I1019
sbag0
(g23
g2
Ntp2179
Rp2180
(dp2181
g27
(dp2182
g29
V-lsb-
p2183
sg31
VO
p2184
sg33
V-LRB-
p2185
sg35
I101
ssg10
I214
sg36
g4
sg37
(dp2186
sg39
(dp2187
sg41
I1019
sg42
g21
sg43
g21
sg44
I214
sg45
V[
p2188
sg47
I214
sg48
I1020
sbag0
(g23
g2
Ntp2189
Rp2190
(dp2191
g27
(dp2192
g29
Vref
p2193
sg31
VO
p2194
sg33
VNN
p2195
sg35
I102
ssg10
I215
sg36
g4
sg37
(dp2196
sg39
(dp2197
sg41
I1020
sg42
g21
sg43
g21
sg44
I215
sg45
VREF
p2198
sg47
I215
sg48
I1023
sbag0
(g23
g2
Ntp2199
Rp2200
(dp2201
g27
(dp2202
g29
V-rsb-
p2203
sg31
VO
p2204
sg33
V-RRB-
p2205
sg35
I103
ssg10
I216
sg36
g4
sg37
(dp2206
sg39
(dp2207
sg41
I1023
sg42
g21
sg43
g21
sg44
I216
sg45
V]
p2208
sg47
I216
sg48
I1024
sbag0
(g23
g2
Ntp2209
Rp2210
(dp2211
g27
(dp2212
g29
Vkidney
p2213
sg31
VO
p2214
sg33
VNN
p2215
sg35
I104
ssg10
I217
sg36
g4
sg37
(dp2216
sg39
(dp2217
sg41
I1025
sg42
g21
sg43
g21
sg44
I217
sg45
VKidney
p2218
sg47
I217
sg48
I1031
sbag0
(g23
g2
Ntp2219
Rp2220
(dp2221
g27
(dp2222
g29
Vstone
p2223
sg31
VO
p2224
sg33
VNNS
p2225
sg35
I105
ssg10
I218
sg36
g4
sg37
(dp2226
sg39
(dp2227
sg41
I1032
sg42
g21
sg43
g21
sg44
I218
sg45
Vstones
p2228
sg47
I218
sg48
I1038
sbag0
(g23
g2
Ntp2229
Rp2230
(dp2231
g27
(dp2232
g29
V.
p2233
sg31
VO
p2234
sg33
V.
p2235
sg35
I106
ssg10
I219
sg36
g4
sg37
(dp2236
sg39
(dp2237
sg41
I1039
sg42
g21
sg43
g21
sg44
I219
sg45
V.
p2238
sg47
I219
sg48
I1040
sbag0
(g23
g2
Ntp2239
Rp2240
(dp2241
g27
(dp2242
g29
Vone
p2243
sg31
VNUMBER
p2244
sg33
VCD
p2245
sg35
I1
ssg10
I220
sg36
g4
sg37
(dp2246
sg39
(dp2247
sg41
I1042
sg42
g21
sg43
g21
sg44
I220
sg45
VOne
p2248
sg47
I220
sg48
I1045
sbag0
(g23
g2
Ntp2249
Rp2250
(dp2251
g27
(dp2252
g29
Vresponse
p2253
sg31
VO
p2254
sg33
VNN
p2255
sg35
I2
ssg10
I221
sg36
g4
sg37
(dp2256
sg39
(dp2257
sg41
I1046
sg42
g21
sg43
g21
sg44
I221
sg45
Vresponse
p2258
sg47
I221
sg48
I1054
sbag0
(g23
g2
Ntp2259
Rp2260
(dp2261
g27
(dp2262
g29
Vthat
p2263
sg31
VO
p2264
sg33
VWDT
p2265
sg35
I3
ssg10
I222
sg36
g4
sg37
(dp2266
sg39
(dp2267
sg41
I1055
sg42
g21
sg43
g21
sg44
I222
sg45
Vthat
p2268
sg47
I222
sg48
I1059
sbag0
(g23
g2
Ntp2269
Rp2270
(dp2271
g27
(dp2272
g29
Vhave
p2273
sg31
VO
p2274
sg33
VVBZ
p2275
sg35
I4
ssg10
I223
sg36
g4
sg37
(dp2276
sg39
(dp2277
sg41
I1060
sg42
g21
sg43
g21
sg44
I223
sg45
Vhas
p2278
sg47
I223
sg48
I1063
sbag0
(g23
g2
Ntp2279
Rp2280
(dp2281
g27
(dp2282
g29
Vbe
p2283
sg31
VO
p2284
sg33
VVBN
p2285
sg35
I5
ssg10
I224
sg36
g4
sg37
(dp2286
sg39
(dp2287
sg41
I1064
sg42
g21
sg43
g21
sg44
I224
sg45
Vbeen
p2288
sg47
I224
sg48
I1068
sbag0
(g23
g2
Ntp2289
Rp2290
(dp2291
g27
(dp2292
g29
Vadopt
p2293
sg31
VO
p2294
sg33
VVBN
p2295
sg35
I6
ssg10
I225
sg36
g4
sg37
(dp2296
sg39
(dp2297
sg41
I1069
sg42
g21
sg43
g21
sg44
I225
sg45
Vadopted
p2298
sg47
I225
sg48
I1076
sbag0
(g23
g2
Ntp2299
Rp2300
(dp2301
g27
(dp2302
g29
Vby
p2303
sg31
VO
p2304
sg33
VIN
p2305
sg35
I7
ssg10
I226
sg36
g4
sg37
(dp2306
sg39
(dp2307
sg41
I1077
sg42
g21
sg43
g21
sg44
I226
sg45
Vby
p2308
sg47
I226
sg48
I1079
sbag0
(g23
g2
Ntp2309
Rp2310
(dp2311
g27
(dp2312
g29
Vmany
p2313
sg31
VO
p2314
sg33
VJJ
p2315
sg35
I8
ssg10
I227
sg36
g4
sg37
(dp2316
sg39
(dp2317
sg41
I1080
sg42
g21
sg43
g21
sg44
I227
sg45
Vmany
p2318
sg47
I227
sg48
I1084
sbag0
(g23
g2
Ntp2319
Rp2320
(dp2321
g27
(dp2322
g29
Vorganization
p2323
sg31
VO
p2324
sg33
VNNS
p2325
sg35
I9
ssg10
I228
sg36
g4
sg37
(dp2326
sg39
(dp2327
sg41
I1085
sg42
g21
sg43
g21
sg44
I228
sg45
Vorganizations
p2328
sg47
I228
sg48
I1098
sbag0
(g23
g2
Ntp2329
Rp2330
(dp2331
g27
(dp2332
g29
Vconcern
p2333
sg31
VO
p2334
sg33
VVBN
p2335
sg35
I10
ssg10
I229
sg36
g4
sg37
(dp2336
sg39
(dp2337
sg41
I1099
sg42
g21
sg43
g21
sg44
I229
sg45
Vconcerned
p2338
sg47
I229
sg48
I1108
sbag0
(g23
g2
Ntp2339
Rp2340
(dp2341
g27
(dp2342
g29
Vwith
p2343
sg31
VO
p2344
sg33
VIN
p2345
sg35
I11
ssg10
I230
sg36
g4
sg37
(dp2346
sg39
(dp2347
sg41
I1109
sg42
g21
sg43
g21
sg44
I230
sg45
Vwith
p2348
sg47
I230
sg48
I1113
sbag0
(g23
g2
Ntp2349
Rp2350
(dp2351
g27
(dp2352
g29
Vhealth
p2353
sg31
VO
p2354
sg33
VNN
p2355
sg35
I12
ssg10
I231
sg36
g4
sg37
(dp2356
sg39
(dp2357
sg41
I1114
sg42
g21
sg43
g21
sg44
I231
sg45
Vhealth
p2358
sg47
I231
sg48
I1120
sbag0
(g23
g2
Ntp2359
Rp2360
(dp2361
g27
(dp2362
g29
Vand
p2363
sg31
VO
p2364
sg33
VCC
p2365
sg35
I13
ssg10
I232
sg36
g4
sg37
(dp2366
sg39
(dp2367
sg41
I1121
sg42
g21
sg43
g21
sg44
I232
sg45
Vand
p2368
sg47
I232
sg48
I1124
sbag0
(g23
g2
Ntp2369
Rp2370
(dp2371
g27
(dp2372
g29
Venvironment
p2373
sg31
VO
p2374
sg33
VNN
p2375
sg35
I14
ssg10
I233
sg36
g4
sg37
(dp2376
sg39
(dp2377
sg41
I1125
sg42
g21
sg43
g21
sg44
I233
sg45
Venvironment
p2378
sg47
I233
sg48
I1136
sbag0
(g23
g2
Ntp2379
Rp2380
(dp2381
g27
(dp2382
g29
Vbe
p2383
sg31
VO
p2384
sg33
VVBZ
p2385
sg35
I15
ssg10
I234
sg36
g4
sg37
(dp2386
sg39
(dp2387
sg41
I1137
sg42
g21
sg43
g21
sg44
I234
sg45
Vis
p2388
sg47
I234
sg48
I1139
sbag0
(g23
g2
Ntp2389
Rp2390
(dp2391
g27
(dp2392
g29
Vthe
p2393
sg31
VO
p2394
sg33
VDT
p2395
sg35
I16
ssg10
I235
sg36
g4
sg37
(dp2396
sg39
(dp2397
sg41
I1140
sg42
g21
sg43
g21
sg44
I235
sg45
Vthe
p2398
sg47
I235
sg48
I1143
sbag0
(g23
g2
Ntp2399
Rp2400
(dp2401
g27
(dp2402
g29
Vpromotion
p2403
sg31
VO
p2404
sg33
VNN
p2405
sg35
I17
ssg10
I236
sg36
g4
sg37
(dp2406
sg39
(dp2407
sg41
I1144
sg42
g21
sg43
g21
sg44
I236
sg45
Vpromotion
p2408
sg47
I236
sg48
I1153
sbag0
(g23
g2
Ntp2409
Rp2410
(dp2411
g27
(dp2412
g29
Vof
p2413
sg31
VO
p2414
sg33
VIN
p2415
sg35
I18
ssg10
I237
sg36
g4
sg37
(dp2416
sg39
(dp2417
sg41
I1154
sg42
g21
sg43
g21
sg44
I237
sg45
Vof
p2418
sg47
I237
sg48
I1156
sbag0
(g23
g2
Ntp2419
Rp2420
(dp2421
g27
(dp2422
g29
Vactive
p2423
sg31
VO
p2424
sg33
VJJ
p2425
sg35
I19
ssg10
I238
sg36
g4
sg37
(dp2426
sg39
(dp2427
sg41
I1157
sg42
g21
sg43
g21
sg44
I238
sg45
Vactive
p2428
sg47
I238
sg48
I1163
sbag0
(g23
g2
Ntp2429
Rp2430
(dp2431
g27
(dp2432
g29
Vtravel
p2433
sg31
VO
p2434
sg33
VNN
p2435
sg35
I20
ssg10
I239
sg36
g4
sg37
(dp2436
sg39
(dp2437
sg41
I1164
sg42
g21
sg43
g21
sg44
I239
sg45
Vtravel
p2438
sg47
I239
sg48
I1170
sbag0
(g23
g2
Ntp2439
Rp2440
(dp2441
g27
(dp2442
g29
V,
p2443
sg31
VO
p2444
sg33
V,
p2445
sg35
I21
ssg10
I240
sg36
g4
sg37
(dp2446
sg39
(dp2447
sg41
I1170
sg42
g21
sg43
g21
sg44
I240
sg45
V,
p2448
sg47
I240
sg48
I1171
sbag0
(g23
g2
Ntp2449
Rp2450
(dp2451
g27
(dp2452
g29
Vwhich
p2453
sg31
VO
p2454
sg33
VWDT
p2455
sg35
I22
ssg10
I241
sg36
g4
sg37
(dp2456
sg39
(dp2457
sg41
I1172
sg42
g21
sg43
g21
sg44
I241
sg45
Vwhich
p2458
sg47
I241
sg48
I1177
sbag0
(g23
g2
Ntp2459
Rp2460
(dp2461
g27
(dp2462
g29
Vseek
p2463
sg31
VO
p2464
sg33
VVBZ
p2465
sg35
I23
ssg10
I242
sg36
g4
sg37
(dp2466
sg39
(dp2467
sg41
I1178
sg42
g21
sg43
g21
sg44
I242
sg45
Vseeks
p2468
sg47
I242
sg48
I1183
sbag0
(g23
g2
Ntp2469
Rp2470
(dp2471
g27
(dp2472
g29
Vto
p2473
sg31
VO
p2474
sg33
VTO
p2475
sg35
I24
ssg10
I243
sg36
g4
sg37
(dp2476
sg39
(dp2477
sg41
I1184
sg42
g21
sg43
g21
sg44
I243
sg45
Vto
p2478
sg47
I243
sg48
I1186
sbag0
(g23
g2
Ntp2479
Rp2480
(dp2481
g27
(dp2482
g29
Vpromote
p2483
sg31
VO
p2484
sg33
VVB
p2485
sg35
I25
ssg10
I244
sg36
g4
sg37
(dp2486
sg39
(dp2487
sg41
I1187
sg42
g21
sg43
g21
sg44
I244
sg45
Vpromote
p2488
sg47
I244
sg48
I1194
sbag0
(g23
g2
Ntp2489
Rp2490
(dp2491
g27
(dp2492
g29
Vwalking
p2493
sg31
VO
p2494
sg33
VNN
p2495
sg35
I26
ssg10
I245
sg36
g4
sg37
(dp2496
sg39
(dp2497
sg41
I1195
sg42
g21
sg43
g21
sg44
I245
sg45
Vwalking
p2498
sg47
I245
sg48
I1202
sbag0
(g23
g2
Ntp2499
Rp2500
(dp2501
g27
(dp2502
g29
Vand
p2503
sg31
VO
p2504
sg33
VCC
p2505
sg35
I27
ssg10
I246
sg36
g4
sg37
(dp2506
sg39
(dp2507
sg41
I1203
sg42
g21
sg43
g21
sg44
I246
sg45
Vand
p2508
sg47
I246
sg48
I1206
sbag0
(g23
g2
Ntp2509
Rp2510
(dp2511
g27
(dp2512
g29
Vcycling
p2513
sg31
VO
p2514
sg33
VNN
p2515
sg35
I28
ssg10
I247
sg36
g4
sg37
(dp2516
sg39
(dp2517
sg41
I1207
sg42
g21
sg43
g21
sg44
I247
sg45
Vcycling
p2518
sg47
I247
sg48
I1214
sbag0
(g23
g2
Ntp2519
Rp2520
(dp2521
g27
(dp2522
g29
Vas
p2523
sg31
VO
p2524
sg33
VIN
p2525
sg35
I29
ssg10
I248
sg36
g4
sg37
(dp2526
sg39
(dp2527
sg41
I1215
sg42
g21
sg43
g21
sg44
I248
sg45
Vas
p2528
sg47
I248
sg48
I1217
sbag0
(g23
g2
Ntp2529
Rp2530
(dp2531
g27
(dp2532
g29
Vsafe
p2533
sg31
VO
p2534
sg33
VJJ
p2535
sg35
I30
ssg10
I249
sg36
g4
sg37
(dp2536
sg39
(dp2537
sg41
I1218
sg42
g21
sg43
g21
sg44
I249
sg45
Vsafe
p2538
sg47
I249
sg48
I1222
sbag0
(g23
g2
Ntp2539
Rp2540
(dp2541
g27
(dp2542
g29
Vand
p2543
sg31
VO
p2544
sg33
VCC
p2545
sg35
I31
ssg10
I250
sg36
g4
sg37
(dp2546
sg39
(dp2547
sg41
I1223
sg42
g21
sg43
g21
sg44
I250
sg45
Vand
p2548
sg47
I250
sg48
I1226
sbag0
(g23
g2
Ntp2549
Rp2550
(dp2551
g27
(dp2552
g29
Vattractive
p2553
sg31
VO
p2554
sg33
VJJ
p2555
sg35
I32
ssg10
I251
sg36
g4
sg37
(dp2556
sg39
(dp2557
sg41
I1227
sg42
g21
sg43
g21
sg44
I251
sg45
Vattractive
p2558
sg47
I251
sg48
I1237
sbag0
(g23
g2
Ntp2559
Rp2560
(dp2561
g27
(dp2562
g29
Valternative
p2563
sg31
VO
p2564
sg33
VNNS
p2565
sg35
I33
ssg10
I252
sg36
g4
sg37
(dp2566
sg39
(dp2567
sg41
I1238
sg42
g21
sg43
g21
sg44
I252
sg45
Valternatives
p2568
sg47
I252
sg48
I1250
sbag0
(g23
g2
Ntp2569
Rp2570
(dp2571
g27
(dp2572
g29
Vto
p2573
sg31
VO
p2574
sg33
VTO
p2575
sg35
I34
ssg10
I253
sg36
g4
sg37
(dp2576
sg39
(dp2577
sg41
I1251
sg42
g21
sg43
g21
sg44
I253
sg45
Vto
p2578
sg47
I253
sg48
I1253
sbag0
(g23
g2
Ntp2579
Rp2580
(dp2581
g27
(dp2582
g29
Vmotorized
p2583
sg31
VO
p2584
sg33
VJJ
p2585
sg35
I35
ssg10
I254
sg36
g4
sg37
(dp2586
sg39
(dp2587
sg41
I1254
sg42
g21
sg43
g21
sg44
I254
sg45
Vmotorized
p2588
sg47
I254
sg48
I1263
sbag0
(g23
g2
Ntp2589
Rp2590
(dp2591
g27
(dp2592
g29
Vtransport
p2593
sg31
VO
p2594
sg33
VNN
p2595
sg35
I36
ssg10
I255
sg36
g4
sg37
(dp2596
sg39
(dp2597
sg41
I1264
sg42
g21
sg43
g21
sg44
I255
sg45
Vtransport
p2598
sg47
I255
sg48
I1273
sbag0
(g23
g2
Ntp2599
Rp2600
(dp2601
g27
(dp2602
g29
V-lsb-
p2603
sg31
VO
p2604
sg33
V-LRB-
p2605
sg35
I37
ssg10
I256
sg36
g4
sg37
(dp2606
sg39
(dp2607
sg41
I1274
sg42
g21
sg43
g21
sg44
I256
sg45
V[
p2608
sg47
I256
sg48
I1275
sbag0
(g23
g2
Ntp2609
Rp2610
(dp2611
g27
(dp2612
g29
Vref
p2613
sg31
VO
p2614
sg33
VNN
p2615
sg35
I38
ssg10
I257
sg36
g4
sg37
(dp2616
sg39
(dp2617
sg41
I1275
sg42
g21
sg43
g21
sg44
I257
sg45
VREF
p2618
sg47
I257
sg48
I1278
sbag0
(g23
g2
Ntp2619
Rp2620
(dp2621
g27
(dp2622
g29
V-rsb-
p2623
sg31
VO
p2624
sg33
V-RRB-
p2625
sg35
I39
ssg10
I258
sg36
g4
sg37
(dp2626
sg39
(dp2627
sg41
I1278
sg42
g21
sg43
g21
sg44
I258
sg45
V]
p2628
sg47
I258
sg48
I1279
sbag0
(g23
g2
Ntp2629
Rp2630
(dp2631
g27
(dp2632
g29
V.
p2633
sg31
VO
p2634
sg33
V.
p2635
sg35
I40
ssg10
I259
sg36
g4
sg37
(dp2636
sg39
(dp2637
sg41
I1279
sg42
g21
sg43
g21
sg44
I259
sg45
V.
p2638
sg47
I259
sg48
I1280
sbag0
(g23
g2
Ntp2639
Rp2640
(dp2641
g27
(dp2642
g29
Vgive
p2643
sg31
VO
p2644
sg33
VVBN
p2645
sg35
I1
ssg10
I260
sg36
g4
sg37
(dp2646
sg39
(dp2647
sg41
I1281
sg42
g21
sg43
g21
sg44
I260
sg45
VGiven
p2648
sg47
I260
sg48
I1286
sbag0
(g23
g2
Ntp2649
Rp2650
(dp2651
g27
(dp2652
g29
Vthat
p2653
sg31
VO
p2654
sg33
VIN
p2655
sg35
I2
ssg10
I261
sg36
g4
sg37
(dp2656
sg39
(dp2657
sg41
I1287
sg42
g21
sg43
g21
sg44
I261
sg45
Vthat
p2658
sg47
I261
sg48
I1291
sbag0
(g23
g2
Ntp2659
Rp2660
(dp2661
g27
(dp2662
g29
Vmany
p2663
sg31
VO
p2664
sg33
VJJ
p2665
sg35
I3
ssg10
I262
sg36
g4
sg37
(dp2666
sg39
(dp2667
sg41
I1292
sg42
g21
sg43
g21
sg44
I262
sg45
Vmany
p2668
sg47
I262
sg48
I1296
sbag0
(g23
g2
Ntp2669
Rp2670
(dp2671
g27
(dp2672
g29
Vjourney
p2673
sg31
VO
p2674
sg33
VNNS
p2675
sg35
I4
ssg10
I263
sg36
g4
sg37
(dp2676
sg39
(dp2677
sg41
I1297
sg42
g21
sg43
g21
sg44
I263
sg45
Vjourneys
p2678
sg47
I263
sg48
I1305
sbag0
(g23
g2
Ntp2679
Rp2680
(dp2681
g27
(dp2682
g29
Vbe
p2683
sg31
VO
p2684
sg33
VVBP
p2685
sg35
I5
ssg10
I264
sg36
g4
sg37
(dp2686
sg39
(dp2687
sg41
I1306
sg42
g21
sg43
g21
sg44
I264
sg45
Vare
p2688
sg47
I264
sg48
I1309
sbag0
(g23
g2
Ntp2689
Rp2690
(dp2691
g27
(dp2692
g29
Vfor
p2693
sg31
VO
p2694
sg33
VIN
p2695
sg35
I6
ssg10
I265
sg36
g4
sg37
(dp2696
sg39
(dp2697
sg41
I1310
sg42
g21
sg43
g21
sg44
I265
sg45
Vfor
p2698
sg47
I265
sg48
I1313
sbag0
(g23
g2
Ntp2699
Rp2700
(dp2701
g27
(dp2702
g29
Vrelatively
p2703
sg31
VO
p2704
sg33
VRB
p2705
sg35
I7
ssg10
I266
sg36
g4
sg37
(dp2706
sg39
(dp2707
sg41
I1314
sg42
g21
sg43
g21
sg44
I266
sg45
Vrelatively
p2708
sg47
I266
sg48
I1324
sbag0
(g23
g2
Ntp2709
Rp2710
(dp2711
g27
(dp2712
g29
Vshort
p2713
sg31
VO
p2714
sg33
VJJ
p2715
sg35
I8
ssg10
I267
sg36
g4
sg37
(dp2716
sg39
(dp2717
sg41
I1325
sg42
g21
sg43
g21
sg44
I267
sg45
Vshort
p2718
sg47
I267
sg48
I1330
sbag0
(g23
g2
Ntp2719
Rp2720
(dp2721
g27
(dp2722
g29
Vdistance
p2723
sg31
VO
p2724
sg33
VNNS
p2725
sg35
I9
ssg10
I268
sg36
g4
sg37
(dp2726
sg39
(dp2727
sg41
I1331
sg42
g21
sg43
g21
sg44
I268
sg45
Vdistances
p2728
sg47
I268
sg48
I1340
sbag0
(g23
g2
Ntp2729
Rp2730
(dp2731
g27
(dp2732
g29
V,
p2733
sg31
VO
p2734
sg33
V,
p2735
sg35
I10
ssg10
I269
sg36
g4
sg37
(dp2736
sg39
(dp2737
sg41
I1340
sg42
g21
sg43
g21
sg44
I269
sg45
V,
p2738
sg47
I269
sg48
I1341
sbag0
(g23
g2
Ntp2739
Rp2740
(dp2741
g27
(dp2742
g29
Vthere
p2743
sg31
VO
p2744
sg33
VEX
p2745
sg35
I11
ssg10
I270
sg36
g4
sg37
(dp2746
sg39
(dp2747
sg41
I1342
sg42
g21
sg43
g21
sg44
I270
sg45
Vthere
p2748
sg47
I270
sg48
I1347
sbag0
(g23
g2
Ntp2749
Rp2750
(dp2751
g27
(dp2752
g29
Vbe
p2753
sg31
VO
p2754
sg33
VVBZ
p2755
sg35
I12
ssg10
I271
sg36
g4
sg37
(dp2756
sg39
(dp2757
sg41
I1348
sg42
g21
sg43
g21
sg44
I271
sg45
Vis
p2758
sg47
I271
sg48
I1350
sbag0
(g23
g2
Ntp2759
Rp2760
(dp2761
g27
(dp2762
g29
Vconsiderable
p2763
sg31
VO
p2764
sg33
VJJ
p2765
sg35
I13
ssg10
I272
sg36
g4
sg37
(dp2766
sg39
(dp2767
sg41
I1351
sg42
g21
sg43
g21
sg44
I272
sg45
Vconsiderable
p2768
sg47
I272
sg48
I1363
sbag0
(g23
g2
Ntp2769
Rp2770
(dp2771
g27
(dp2772
g29
Vscope
p2773
sg31
VO
p2774
sg33
VNN
p2775
sg35
I14
ssg10
I273
sg36
g4
sg37
(dp2776
sg39
(dp2777
sg41
I1364
sg42
g21
sg43
g21
sg44
I273
sg45
Vscope
p2778
sg47
I273
sg48
I1369
sbag0
(g23
g2
Ntp2779
Rp2780
(dp2781
g27
(dp2782
g29
Vto
p2783
sg31
VO
p2784
sg33
VTO
p2785
sg35
I15
ssg10
I274
sg36
g4
sg37
(dp2786
sg39
(dp2787
sg41
I1370
sg42
g21
sg43
g21
sg44
I274
sg45
Vto
p2788
sg47
I274
sg48
I1372
sbag0
(g23
g2
Ntp2789
Rp2790
(dp2791
g27
(dp2792
g29
Vreplace
p2793
sg31
VO
p2794
sg33
VVB
p2795
sg35
I16
ssg10
I275
sg36
g4
sg37
(dp2796
sg39
(dp2797
sg41
I1373
sg42
g21
sg43
g21
sg44
I275
sg45
Vreplace
p2798
sg47
I275
sg48
I1380
sbag0
(g23
g2
Ntp2799
Rp2800
(dp2801
g27
(dp2802
g29
Vcar
p2803
sg31
VO
p2804
sg33
VNN
p2805
sg35
I17
ssg10
I276
sg36
g4
sg37
(dp2806
sg39
(dp2807
sg41
I1381
sg42
g21
sg43
g21
sg44
I276
sg45
Vcar
p2808
sg47
I276
sg48
I1384
sbag0
(g23
g2
Ntp2809
Rp2810
(dp2811
g27
(dp2812
g29
Vuse
p2813
sg31
VO
p2814
sg33
VNN
p2815
sg35
I18
ssg10
I277
sg36
g4
sg37
(dp2816
sg39
(dp2817
sg41
I1385
sg42
g21
sg43
g21
sg44
I277
sg45
Vuse
p2818
sg47
I277
sg48
I1388
sbag0
(g23
g2
Ntp2819
Rp2820
(dp2821
g27
(dp2822
g29
Vwith
p2823
sg31
VO
p2824
sg33
VIN
p2825
sg35
I19
ssg10
I278
sg36
g4
sg37
(dp2826
sg39
(dp2827
sg41
I1389
sg42
g21
sg43
g21
sg44
I278
sg45
Vwith
p2828
sg47
I278
sg48
I1393
sbag0
(g23
g2
Ntp2829
Rp2830
(dp2831
g27
(dp2832
g29
Vwalk
p2833
sg31
VO
p2834
sg33
VVBG
p2835
sg35
I20
ssg10
I279
sg36
g4
sg37
(dp2836
sg39
(dp2837
sg41
I1394
sg42
g21
sg43
g21
sg44
I279
sg45
Vwalking
p2838
sg47
I279
sg48
I1401
sbag0
(g23
g2
Ntp2839
Rp2840
(dp2841
g27
(dp2842
g29
Vor
p2843
sg31
VO
p2844
sg33
VCC
p2845
sg35
I21
ssg10
I280
sg36
g4
sg37
(dp2846
sg39
(dp2847
sg41
I1402
sg42
g21
sg43
g21
sg44
I280
sg45
Vor
p2848
sg47
I280
sg48
I1404
sbag0
(g23
g2
Ntp2849
Rp2850
(dp2851
g27
(dp2852
g29
Vcycling
p2853
sg31
VO
p2854
sg33
VNN
p2855
sg35
I22
ssg10
I281
sg36
g4
sg37
(dp2856
sg39
(dp2857
sg41
I1405
sg42
g21
sg43
g21
sg44
I281
sg45
Vcycling
p2858
sg47
I281
sg48
I1412
sbag0
(g23
g2
Ntp2859
Rp2860
(dp2861
g27
(dp2862
g29
V,
p2863
sg31
VO
p2864
sg33
V,
p2865
sg35
I23
ssg10
I282
sg36
g4
sg37
(dp2866
sg39
(dp2867
sg41
I1412
sg42
g21
sg43
g21
sg44
I282
sg45
V,
p2868
sg47
I282
sg48
I1413
sbag0
(g23
g2
Ntp2869
Rp2870
(dp2871
g27
(dp2872
g29
Vthough
p2873
sg31
VO
p2874
sg33
VIN
p2875
sg35
I24
ssg10
I283
sg36
g4
sg37
(dp2876
sg39
(dp2877
sg41
I1414
sg42
g21
sg43
g21
sg44
I283
sg45
Vthough
p2878
sg47
I283
sg48
I1420
sbag0
(g23
g2
Ntp2879
Rp2880
(dp2881
g27
(dp2882
g29
Vin
p2883
sg31
VO
p2884
sg33
VIN
p2885
sg35
I25
ssg10
I284
sg36
g4
sg37
(dp2886
sg39
(dp2887
sg41
I1421
sg42
g21
sg43
g21
sg44
I284
sg45
Vin
p2888
sg47
I284
sg48
I1423
sbag0
(g23
g2
Ntp2889
Rp2890
(dp2891
g27
(dp2892
g29
Vmany
p2893
sg31
VO
p2894
sg33
VJJ
p2895
sg35
I26
ssg10
I285
sg36
g4
sg37
(dp2896
sg39
(dp2897
sg41
I1424
sg42
g21
sg43
g21
sg44
I285
sg45
Vmany
p2898
sg47
I285
sg48
I1428
sbag0
(g23
g2
Ntp2899
Rp2900
(dp2901
g27
(dp2902
g29
Vsetting
p2903
sg31
VO
p2904
sg33
VNNS
p2905
sg35
I27
ssg10
I286
sg36
g4
sg37
(dp2906
sg39
(dp2907
sg41
I1429
sg42
g21
sg43
g21
sg44
I286
sg45
Vsettings
p2908
sg47
I286
sg48
I1437
sbag0
(g23
g2
Ntp2909
Rp2910
(dp2911
g27
(dp2912
g29
Vthis
p2913
sg31
VDATE
p2914
sg33
VDT
p2915
sg35
I28
ssg10
I287
sg36
g4
sg37
(dp2916
sg39
(dp2917
sg41
I1438
sg42
g21
sg43
g21
sg44
I287
sg45
Vthis
p2918
sg47
I287
sg48
I1442
sbag0
(g23
g2
Ntp2919
Rp2920
(dp2921
g27
(dp2922
g29
Vmay
p2923
sg31
VDATE
p2924
sg33
VMD
p2925
sg35
I29
ssg10
I288
sg36
g4
sg37
(dp2926
sg39
(dp2927
sg41
I1443
sg42
g21
sg43
g21
sg44
I288
sg45
Vmay
p2928
sg47
I288
sg48
I1446
sbag0
(g23
g2
Ntp2929
Rp2930
(dp2931
g27
(dp2932
g29
Vrequire
p2933
sg31
VO
p2934
sg33
VVB
p2935
sg35
I30
ssg10
I289
sg36
g4
sg37
(dp2936
sg39
(dp2937
sg41
I1447
sg42
g21
sg43
g21
sg44
I289
sg45
Vrequire
p2938
sg47
I289
sg48
I1454
sbag0
(g23
g2
Ntp2939
Rp2940
(dp2941
g27
(dp2942
g29
Vsome
p2943
sg31
VO
p2944
sg33
VDT
p2945
sg35
I31
ssg10
I290
sg36
g4
sg37
(dp2946
sg39
(dp2947
sg41
I1455
sg42
g21
sg43
g21
sg44
I290
sg45
Vsome
p2948
sg47
I290
sg48
I1459
sbag0
(g23
g2
Ntp2949
Rp2950
(dp2951
g27
(dp2952
g29
Vinfrastructure
p2953
sg31
VO
p2954
sg33
VNN
p2955
sg35
I32
ssg10
I291
sg36
g4
sg37
(dp2956
sg39
(dp2957
sg41
I1460
sg42
g21
sg43
g21
sg44
I291
sg45
Vinfrastructure
p2958
sg47
I291
sg48
I1474
sbag0
(g23
g2
Ntp2959
Rp2960
(dp2961
g27
(dp2962
g29
Vmodification
p2963
sg31
VO
p2964
sg33
VNN
p2965
sg35
I33
ssg10
I292
sg36
g4
sg37
(dp2966
sg39
(dp2967
sg41
I1475
sg42
g21
sg43
g21
sg44
I292
sg45
Vmodification
p2968
sg47
I292
sg48
I1487
sbag0
(g23
g2
Ntp2969
Rp2970
(dp2971
g27
(dp2972
g29
V.
p2973
sg31
VO
p2974
sg33
V.
p2975
sg35
I34
ssg10
I293
sg36
g4
sg37
(dp2976
sg39
(dp2977
sg41
I1487
sg42
g21
sg43
g21
sg44
I293
sg45
V.
p2978
sg47
I293
sg48
I1488
sbag0
(g23
g2
Ntp2979
Rp2980
(dp2981
g27
(dp2982
g29
Vimplement
p2983
sg31
VORGANIZATION
p2984
sg33
VVBG
p2985
sg35
I1
ssg10
I294
sg36
g4
sg37
(dp2986
sg39
(dp2987
sg41
I1491
sg42
g21
sg43
g21
sg44
I294
sg45
VImplementing
p2988
sg47
I294
sg48
I1503
sbag0
(g23
g2
Ntp2989
Rp2990
(dp2991
g27
(dp2992
g29
VWellness
p2993
sg31
VORGANIZATION
p2994
sg33
VNNP
p2995
sg35
I2
ssg10
I295
sg36
g4
sg37
(dp2996
sg39
(dp2997
sg41
I1504
sg42
g21
sg43
g21
sg44
I295
sg45
VWellness
p2998
sg47
I295
sg48
I1512
sbag0
(g23
g2
Ntp2999
Rp3000
(dp3001
g27
(dp3002
g29
VPrograms
p3003
sg31
VORGANIZATION
p3004
sg33
VNNP
p3005
sg35
I3
ssg10
I296
sg36
g4
sg37
(dp3006
sg39
(dp3007
sg41
I1513
sg42
g21
sg43
g21
sg44
I296
sg45
VPrograms
p3008
sg47
I296
sg48
I1521
sbag0
(g23
g2
Ntp3009
Rp3010
(dp3011
g27
(dp3012
g29
Vbe
p3013
sg31
VO
p3014
sg33
VVBZ
p3015
sg35
I4
ssg10
I297
sg36
g4
sg37
(dp3016
sg39
(dp3017
sg41
I1522
sg42
g21
sg43
g21
sg44
I297
sg45
Vis
p3018
sg47
I297
sg48
I1524
sbag0
(g23
g2
Ntp3019
Rp3020
(dp3021
g27
(dp3022
g29
Vbecome
p3023
sg31
VO
p3024
sg33
VVBG
p3025
sg35
I5
ssg10
I298
sg36
g4
sg37
(dp3026
sg39
(dp3027
sg41
I1525
sg42
g21
sg43
g21
sg44
I298
sg45
Vbecoming
p3028
sg47
I298
sg48
I1533
sbag0
(g23
g2
Ntp3029
Rp3030
(dp3031
g27
(dp3032
g29
Vanother
p3033
sg31
VO
p3034
sg33
VDT
p3035
sg35
I6
ssg10
I299
sg36
g4
sg37
(dp3036
sg39
(dp3037
sg41
I1534
sg42
g21
sg43
g21
sg44
I299
sg45
Vanother
p3038
sg47
I299
sg48
I1541
sbag0
(g23
g2
Ntp3039
Rp3040
(dp3041
g27
(dp3042
g29
Vpopular
p3043
sg31
VO
p3044
sg33
VJJ
p3045
sg35
I7
ssg10
I300
sg36
g4
sg37
(dp3046
sg39
(dp3047
sg41
I1542
sg42
g21
sg43
g21
sg44
I300
sg45
Vpopular
p3048
sg47
I300
sg48
I1549
sbag0
(g23
g2
Ntp3049
Rp3050
(dp3051
g27
(dp3052
g29
Vtrend
p3053
sg31
VO
p3054
sg33
VNN
p3055
sg35
I8
ssg10
I301
sg36
g4
sg37
(dp3056
sg39
(dp3057
sg41
I1550
sg42
g21
sg43
g21
sg44
I301
sg45
Vtrend
p3058
sg47
I301
sg48
I1555
sbag0
(g23
g2
Ntp3059
Rp3060
(dp3061
g27
(dp3062
g29
Vamong
p3063
sg31
VO
p3064
sg33
VIN
p3065
sg35
I9
ssg10
I302
sg36
g4
sg37
(dp3066
sg39
(dp3067
sg41
I1556
sg42
g21
sg43
g21
sg44
I302
sg45
Vamong
p3068
sg47
I302
sg48
I1561
sbag0
(g23
g2
Ntp3069
Rp3070
(dp3071
g27
(dp3072
g29
Vorganization
p3073
sg31
VO
p3074
sg33
VNNS
p3075
sg35
I10
ssg10
I303
sg36
g4
sg37
(dp3076
sg39
(dp3077
sg41
I1562
sg42
g21
sg43
g21
sg44
I303
sg45
Vorganizations
p3078
sg47
I303
sg48
I1575
sbag0
(g23
g2
Ntp3079
Rp3080
(dp3081
g27
(dp3082
g29
V.
p3083
sg31
VO
p3084
sg33
V.
p3085
sg35
I11
ssg10
I304
sg36
g4
sg37
(dp3086
sg39
(dp3087
sg41
I1575
sg42
g21
sg43
g21
sg44
I304
sg45
V.
p3088
sg47
I304
sg48
I1576
sbag0
(g23
g2
Ntp3089
Rp3090
(dp3091
g27
(dp3092
g29
VWellness
p3093
sg31
VO
p3094
sg33
VNNP
p3095
sg35
I1
ssg10
I305
sg36
g4
sg37
(dp3096
sg39
(dp3097
sg41
I1577
sg42
g21
sg43
g21
sg44
I305
sg45
VWellness
p3098
sg47
I305
sg48
I1585
sbag0
(g23
g2
Ntp3099
Rp3100
(dp3101
g27
(dp3102
g29
Vprogram
p3103
sg31
VO
p3104
sg33
VNNS
p3105
sg35
I2
ssg10
I306
sg36
g4
sg37
(dp3106
sg39
(dp3107
sg41
I1586
sg42
g21
sg43
g21
sg44
I306
sg45
Vprograms
p3108
sg47
I306
sg48
I1594
sbag0
(g23
g2
Ntp3109
Rp3110
(dp3111
g27
(dp3112
g29
Vcan
p3113
sg31
VO
p3114
sg33
VMD
p3115
sg35
I3
ssg10
I307
sg36
g4
sg37
(dp3116
sg39
(dp3117
sg41
I1595
sg42
g21
sg43
g21
sg44
I307
sg45
Vcan
p3118
sg47
I307
sg48
I1598
sbag0
(g23
g2
Ntp3119
Rp3120
(dp3121
g27
(dp3122
g29
Vbe
p3123
sg31
VO
p3124
sg33
VVB
p3125
sg35
I4
ssg10
I308
sg36
g4
sg37
(dp3126
sg39
(dp3127
sg41
I1599
sg42
g21
sg43
g21
sg44
I308
sg45
Vbe
p3128
sg47
I308
sg48
I1601
sbag0
(g23
g2
Ntp3129
Rp3130
(dp3131
g27
(dp3132
g29
Vunique
p3133
sg31
VO
p3134
sg33
VJJ
p3135
sg35
I5
ssg10
I309
sg36
g4
sg37
(dp3136
sg39
(dp3137
sg41
I1602
sg42
g21
sg43
g21
sg44
I309
sg45
Vunique
p3138
sg47
I309
sg48
I1608
sbag0
(g23
g2
Ntp3139
Rp3140
(dp3141
g27
(dp3142
g29
Vto
p3143
sg31
VO
p3144
sg33
VTO
p3145
sg35
I6
ssg10
I310
sg36
g4
sg37
(dp3146
sg39
(dp3147
sg41
I1609
sg42
g21
sg43
g21
sg44
I310
sg45
Vto
p3148
sg47
I310
sg48
I1611
sbag0
(g23
g2
Ntp3149
Rp3150
(dp3151
g27
(dp3152
g29
Veach
p3153
sg31
VO
p3154
sg33
VDT
p3155
sg35
I7
ssg10
I311
sg36
g4
sg37
(dp3156
sg39
(dp3157
sg41
I1612
sg42
g21
sg43
g21
sg44
I311
sg45
Veach
p3158
sg47
I311
sg48
I1616
sbag0
(g23
g2
Ntp3159
Rp3160
(dp3161
g27
(dp3162
g29
Vorganization
p3163
sg31
VO
p3164
sg33
VNN
p3165
sg35
I8
ssg10
I312
sg36
g4
sg37
(dp3166
sg39
(dp3167
sg41
I1617
sg42
g21
sg43
g21
sg44
I312
sg45
Vorganization
p3168
sg47
I312
sg48
I1629
sbag0
(g23
g2
Ntp3169
Rp3170
(dp3171
g27
(dp3172
g29
Vand
p3173
sg31
VO
p3174
sg33
VCC
p3175
sg35
I9
ssg10
I313
sg36
g4
sg37
(dp3176
sg39
(dp3177
sg41
I1630
sg42
g21
sg43
g21
sg44
I313
sg45
Vand
p3178
sg47
I313
sg48
I1633
sbag0
(g23
g2
Ntp3179
Rp3180
(dp3181
g27
(dp3182
g29
Vcan
p3183
sg31
VO
p3184
sg33
VMD
p3185
sg35
I10
ssg10
I314
sg36
g4
sg37
(dp3186
sg39
(dp3187
sg41
I1634
sg42
g21
sg43
g21
sg44
I314
sg45
Vcan
p3188
sg47
I314
sg48
I1637
sbag0
(g23
g2
Ntp3189
Rp3190
(dp3191
g27
(dp3192
g29
Vfocus
p3193
sg31
VO
p3194
sg33
VVB
p3195
sg35
I11
ssg10
I315
sg36
g4
sg37
(dp3196
sg39
(dp3197
sg41
I1638
sg42
g21
sg43
g21
sg44
I315
sg45
Vfocus
p3198
sg47
I315
sg48
I1643
sbag0
(g23
g2
Ntp3199
Rp3200
(dp3201
g27
(dp3202
g29
Von
p3203
sg31
VO
p3204
sg33
VIN
p3205
sg35
I12
ssg10
I316
sg36
g4
sg37
(dp3206
sg39
(dp3207
sg41
I1644
sg42
g21
sg43
g21
sg44
I316
sg45
Von
p3208
sg47
I316
sg48
I1646
sbag0
(g23
g2
Ntp3209
Rp3210
(dp3211
g27
(dp3212
g29
Va
p3213
sg31
VO
p3214
sg33
VDT
p3215
sg35
I13
ssg10
I317
sg36
g4
sg37
(dp3216
sg39
(dp3217
sg41
I1647
sg42
g21
sg43
g21
sg44
I317
sg45
Va
p3218
sg47
I317
sg48
I1648
sbag0
(g23
g2
Ntp3219
Rp3220
(dp3221
g27
(dp3222
g29
Vvariety
p3223
sg31
VO
p3224
sg33
VNN
p3225
sg35
I14
ssg10
I318
sg36
g4
sg37
(dp3226
sg39
(dp3227
sg41
I1649
sg42
g21
sg43
g21
sg44
I318
sg45
Vvariety
p3228
sg47
I318
sg48
I1656
sbag0
(g23
g2
Ntp3229
Rp3230
(dp3231
g27
(dp3232
g29
Vof
p3233
sg31
VO
p3234
sg33
VIN
p3235
sg35
I15
ssg10
I319
sg36
g4
sg37
(dp3236
sg39
(dp3237
sg41
I1657
sg42
g21
sg43
g21
sg44
I319
sg45
Vof
p3238
sg47
I319
sg48
I1659
sbag0
(g23
g2
Ntp3239
Rp3240
(dp3241
g27
(dp3242
g29
Vobjective
p3243
sg31
VO
p3244
sg33
VNNS
p3245
sg35
I16
ssg10
I320
sg36
g4
sg37
(dp3246
sg39
(dp3247
sg41
I1660
sg42
g21
sg43
g21
sg44
I320
sg45
Vobjectives
p3248
sg47
I320
sg48
I1670
sbag0
(g23
g2
Ntp3249
Rp3250
(dp3251
g27
(dp3252
g29
V.
p3253
sg31
VO
p3254
sg33
V.
p3255
sg35
I17
ssg10
I321
sg36
g4
sg37
(dp3256
sg39
(dp3257
sg41
I1670
sg42
g21
sg43
g21
sg44
I321
sg45
V.
p3258
sg47
I321
sg48
I1671
sbag0
(g23
g2
Ntp3259
Rp3260
(dp3261
g27
(dp3262
g29
Vfor
p3263
sg31
VO
p3264
sg33
VIN
p3265
sg35
I1
ssg10
I322
sg36
g4
sg37
(dp3266
sg39
(dp3267
sg41
I1672
sg42
g21
sg43
g21
sg44
I322
sg45
VFor
p3268
sg47
I322
sg48
I1675
sbag0
(g23
g2
Ntp3269
Rp3270
(dp3271
g27
(dp3272
g29
Vexample
p3273
sg31
VO
p3274
sg33
VNN
p3275
sg35
I2
ssg10
I323
sg36
g4
sg37
(dp3276
sg39
(dp3277
sg41
I1676
sg42
g21
sg43
g21
sg44
I323
sg45
Vexample
p3278
sg47
I323
sg48
I1683
sbag0
(g23
g2
Ntp3279
Rp3280
(dp3281
g27
(dp3282
g29
V,
p3283
sg31
VO
p3284
sg33
V,
p3285
sg35
I3
ssg10
I324
sg36
g4
sg37
(dp3286
sg39
(dp3287
sg41
I1683
sg42
g21
sg43
g21
sg44
I324
sg45
V,
p3288
sg47
I324
sg48
I1684
sbag0
(g23
g2
Ntp3289
Rp3290
(dp3291
g27
(dp3292
g29
Vsome
p3293
sg31
VO
p3294
sg33
VDT
p3295
sg35
I4
ssg10
I325
sg36
g4
sg37
(dp3296
sg39
(dp3297
sg41
I1685
sg42
g21
sg43
g21
sg44
I325
sg45
Vsome
p3298
sg47
I325
sg48
I1689
sbag0
(g23
g2
Ntp3299
Rp3300
(dp3301
g27
(dp3302
g29
Vorganization
p3303
sg31
VO
p3304
sg33
VNNS
p3305
sg35
I5
ssg10
I326
sg36
g4
sg37
(dp3306
sg39
(dp3307
sg41
I1690
sg42
g21
sg43
g21
sg44
I326
sg45
Vorganizations
p3308
sg47
I326
sg48
I1703
sbag0
(g23
g2
Ntp3309
Rp3310
(dp3311
g27
(dp3312
g29
Vtry
p3313
sg31
VO
p3314
sg33
VVBP
p3315
sg35
I6
ssg10
I327
sg36
g4
sg37
(dp3316
sg39
(dp3317
sg41
I1704
sg42
g21
sg43
g21
sg44
I327
sg45
Vtry
p3318
sg47
I327
sg48
I1707
sbag0
(g23
g2
Ntp3319
Rp3320
(dp3321
g27
(dp3322
g29
Vto
p3323
sg31
VO
p3324
sg33
VTO
p3325
sg35
I7
ssg10
I328
sg36
g4
sg37
(dp3326
sg39
(dp3327
sg41
I1708
sg42
g21
sg43
g21
sg44
I328
sg45
Vto
p3328
sg47
I328
sg48
I1710
sbag0
(g23
g2
Ntp3329
Rp3330
(dp3331
g27
(dp3332
g29
Vget
p3333
sg31
VO
p3334
sg33
VVB
p3335
sg35
I8
ssg10
I329
sg36
g4
sg37
(dp3336
sg39
(dp3337
sg41
I1711
sg42
g21
sg43
g21
sg44
I329
sg45
Vget
p3338
sg47
I329
sg48
I1714
sbag0
(g23
g2
Ntp3339
Rp3340
(dp3341
g27
(dp3342
g29
Vthey
p3343
sg31
VO
p3344
sg33
VPRP$
p3345
sg35
I9
ssg10
I330
sg36
g4
sg37
(dp3346
sg39
(dp3347
sg41
I1715
sg42
g21
sg43
g21
sg44
I330
sg45
Vtheir
p3348
sg47
I330
sg48
I1720
sbag0
(g23
g2
Ntp3349
Rp3350
(dp3351
g27
(dp3352
g29
Vemployee
p3353
sg31
VO
p3354
sg33
VNNS
p3355
sg35
I10
ssg10
I331
sg36
g4
sg37
(dp3356
sg39
(dp3357
sg41
I1721
sg42
g21
sg43
g21
sg44
I331
sg45
Vemployees
p3358
sg47
I331
sg48
I1730
sbag0
(g23
g2
Ntp3359
Rp3360
(dp3361
g27
(dp3362
g29
Vmove
p3363
sg31
VO
p3364
sg33
VVBG
p3365
sg35
I11
ssg10
I332
sg36
g4
sg37
(dp3366
sg39
(dp3367
sg41
I1731
sg42
g21
sg43
g21
sg44
I332
sg45
Vmoving
p3368
sg47
I332
sg48
I1737
sbag0
(g23
g2
Ntp3369
Rp3370
(dp3371
g27
(dp3372
g29
Vthrough
p3373
sg31
VO
p3374
sg33
VIN
p3375
sg35
I12
ssg10
I333
sg36
g4
sg37
(dp3376
sg39
(dp3377
sg41
I1738
sg42
g21
sg43
g21
sg44
I333
sg45
Vthrough
p3378
sg47
I333
sg48
I1745
sbag0
(g23
g2
Ntp3379
Rp3380
(dp3381
g27
(dp3382
g29
Vexercise
p3383
sg31
VO
p3384
sg33
VNN
p3385
sg35
I13
ssg10
I334
sg36
g4
sg37
(dp3386
sg39
(dp3387
sg41
I1746
sg42
g21
sg43
g21
sg44
I334
sg45
Vexercise
p3388
sg47
I334
sg48
I1754
sbag0
(g23
g2
Ntp3389
Rp3390
(dp3391
g27
(dp3392
g29
Vclass
p3393
sg31
VO
p3394
sg33
VNNS
p3395
sg35
I14
ssg10
I335
sg36
g4
sg37
(dp3396
sg39
(dp3397
sg41
I1755
sg42
g21
sg43
g21
sg44
I335
sg45
Vclasses
p3398
sg47
I335
sg48
I1762
sbag0
(g23
g2
Ntp3399
Rp3400
(dp3401
g27
(dp3402
g29
Vat
p3403
sg31
VO
p3404
sg33
VIN
p3405
sg35
I15
ssg10
I336
sg36
g4
sg37
(dp3406
sg39
(dp3407
sg41
I1763
sg42
g21
sg43
g21
sg44
I336
sg45
Vat
p3408
sg47
I336
sg48
I1765
sbag0
(g23
g2
Ntp3409
Rp3410
(dp3411
g27
(dp3412
g29
Vlunch
p3413
sg31
VO
p3414
sg33
VNN
p3415
sg35
I16
ssg10
I337
sg36
g4
sg37
(dp3416
sg39
(dp3417
sg41
I1766
sg42
g21
sg43
g21
sg44
I337
sg45
Vlunch
p3418
sg47
I337
sg48
I1771
sbag0
(g23
g2
Ntp3419
Rp3420
(dp3421
g27
(dp3422
g29
Vor
p3423
sg31
VO
p3424
sg33
VCC
p3425
sg35
I17
ssg10
I338
sg36
g4
sg37
(dp3426
sg39
(dp3427
sg41
I1772
sg42
g21
sg43
g21
sg44
I338
sg45
Vor
p3428
sg47
I338
sg48
I1774
sbag0
(g23
g2
Ntp3429
Rp3430
(dp3431
g27
(dp3432
g29
Vwalk
p3433
sg31
VO
p3434
sg33
VVBG
p3435
sg35
I18
ssg10
I339
sg36
g4
sg37
(dp3436
sg39
(dp3437
sg41
I1775
sg42
g21
sg43
g21
sg44
I339
sg45
Vwalking
p3438
sg47
I339
sg48
I1782
sbag0
(g23
g2
Ntp3439
Rp3440
(dp3441
g27
(dp3442
g29
Vchallenge
p3443
sg31
VO
p3444
sg33
VNNS
p3445
sg35
I19
ssg10
I340
sg36
g4
sg37
(dp3446
sg39
(dp3447
sg41
I1783
sg42
g21
sg43
g21
sg44
I340
sg45
Vchallenges
p3448
sg47
I340
sg48
I1793
sbag0
(g23
g2
Ntp3449
Rp3450
(dp3451
g27
(dp3452
g29
Vamong
p3453
sg31
VO
p3454
sg33
VIN
p3455
sg35
I20
ssg10
I341
sg36
g4
sg37
(dp3456
sg39
(dp3457
sg41
I1794
sg42
g21
sg43
g21
sg44
I341
sg45
Vamong
p3458
sg47
I341
sg48
I1799
sbag0
(g23
g2
Ntp3459
Rp3460
(dp3461
g27
(dp3462
g29
Vco-worker
p3463
sg31
VO
p3464
sg33
VNNS
p3465
sg35
I21
ssg10
I342
sg36
g4
sg37
(dp3466
sg39
(dp3467
sg41
I1800
sg42
g21
sg43
g21
sg44
I342
sg45
Vco-workers
p3468
sg47
I342
sg48
I1810
sbag0
(g23
g2
Ntp3469
Rp3470
(dp3471
g27
(dp3472
g29
V.
p3473
sg31
VO
p3474
sg33
V.
p3475
sg35
I22
ssg10
I343
sg36
g4
sg37
(dp3476
sg39
(dp3477
sg41
I1810
sg42
g21
sg43
g21
sg44
I343
sg45
V.
p3478
sg47
I343
sg48
I1811
sbag0
(g23
g2
Ntp3479
Rp3480
(dp3481
g27
(dp3482
g29
Vother
p3483
sg31
VO
p3484
sg33
VJJ
p3485
sg35
I1
ssg10
I344
sg36
g4
sg37
(dp3486
sg39
(dp3487
sg41
I1812
sg42
g21
sg43
g21
sg44
I344
sg45
VOther
p3488
sg47
I344
sg48
I1817
sbag0
(g23
g2
Ntp3489
Rp3490
(dp3491
g27
(dp3492
g29
Vorganization
p3493
sg31
VO
p3494
sg33
VNNS
p3495
sg35
I2
ssg10
I345
sg36
g4
sg37
(dp3496
sg39
(dp3497
sg41
I1818
sg42
g21
sg43
g21
sg44
I345
sg45
Vorganizations
p3498
sg47
I345
sg48
I1831
sbag0
(g23
g2
Ntp3499
Rp3500
(dp3501
g27
(dp3502
g29
Voffer
p3503
sg31
VO
p3504
sg33
VVBP
p3505
sg35
I3
ssg10
I346
sg36
g4
sg37
(dp3506
sg39
(dp3507
sg41
I1832
sg42
g21
sg43
g21
sg44
I346
sg45
Voffer
p3508
sg47
I346
sg48
I1837
sbag0
(g23
g2
Ntp3509
Rp3510
(dp3511
g27
(dp3512
g29
Va
p3513
sg31
VO
p3514
sg33
VDT
p3515
sg35
I4
ssg10
I347
sg36
g4
sg37
(dp3516
sg39
(dp3517
sg41
I1838
sg42
g21
sg43
g21
sg44
I347
sg45
Va
p3518
sg47
I347
sg48
I1839
sbag0
(g23
g2
Ntp3519
Rp3520
(dp3521
g27
(dp3522
g29
Vnumber
p3523
sg31
VO
p3524
sg33
VNN
p3525
sg35
I5
ssg10
I348
sg36
g4
sg37
(dp3526
sg39
(dp3527
sg41
I1840
sg42
g21
sg43
g21
sg44
I348
sg45
Vnumber
p3528
sg47
I348
sg48
I1846
sbag0
(g23
g2
Ntp3529
Rp3530
(dp3531
g27
(dp3532
g29
Vof
p3533
sg31
VO
p3534
sg33
VIN
p3535
sg35
I6
ssg10
I349
sg36
g4
sg37
(dp3536
sg39
(dp3537
sg41
I1847
sg42
g21
sg43
g21
sg44
I349
sg45
Vof
p3538
sg47
I349
sg48
I1849
sbag0
(g23
g2
Ntp3539
Rp3540
(dp3541
g27
(dp3542
g29
Vdifferent
p3543
sg31
VO
p3544
sg33
VJJ
p3545
sg35
I7
ssg10
I350
sg36
g4
sg37
(dp3546
sg39
(dp3547
sg41
I1850
sg42
g21
sg43
g21
sg44
I350
sg45
Vdifferent
p3548
sg47
I350
sg48
I1859
sbag0
(g23
g2
Ntp3549
Rp3550
(dp3551
g27
(dp3552
g29
Vscreening
p3553
sg31
VO
p3554
sg33
VNNS
p3555
sg35
I8
ssg10
I351
sg36
g4
sg37
(dp3556
sg39
(dp3557
sg41
I1860
sg42
g21
sg43
g21
sg44
I351
sg45
Vscreenings
p3558
sg47
I351
sg48
I1870
sbag0
(g23
g2
Ntp3559
Rp3560
(dp3561
g27
(dp3562
g29
Vfor
p3563
sg31
VO
p3564
sg33
VIN
p3565
sg35
I9
ssg10
I352
sg36
g4
sg37
(dp3566
sg39
(dp3567
sg41
I1871
sg42
g21
sg43
g21
sg44
I352
sg45
Vfor
p3568
sg47
I352
sg48
I1874
sbag0
(g23
g2
Ntp3569
Rp3570
(dp3571
g27
(dp3572
g29
Vemployee
p3573
sg31
VO
p3574
sg33
VNNS
p3575
sg35
I10
ssg10
I353
sg36
g4
sg37
(dp3576
sg39
(dp3577
sg41
I1875
sg42
g21
sg43
g21
sg44
I353
sg45
Vemployees
p3578
sg47
I353
sg48
I1884
sbag0
(g23
g2
Ntp3579
Rp3580
(dp3581
g27
(dp3582
g29
Vsuch
p3583
sg31
VO
p3584
sg33
VJJ
p3585
sg35
I11
ssg10
I354
sg36
g4
sg37
(dp3586
sg39
(dp3587
sg41
I1885
sg42
g21
sg43
g21
sg44
I354
sg45
Vsuch
p3588
sg47
I354
sg48
I1889
sbag0
(g23
g2
Ntp3589
Rp3590
(dp3591
g27
(dp3592
g29
Vas
p3593
sg31
VO
p3594
sg33
VIN
p3595
sg35
I12
ssg10
I355
sg36
g4
sg37
(dp3596
sg39
(dp3597
sg41
I1890
sg42
g21
sg43
g21
sg44
I355
sg45
Vas
p3598
sg47
I355
sg48
I1892
sbag0
(g23
g2
Ntp3599
Rp3600
(dp3601
g27
(dp3602
g29
Vcholesterol
p3603
sg31
VO
p3604
sg33
VNN
p3605
sg35
I13
ssg10
I356
sg36
g4
sg37
(dp3606
sg39
(dp3607
sg41
I1893
sg42
g21
sg43
g21
sg44
I356
sg45
Vcholesterol
p3608
sg47
I356
sg48
I1904
sbag0
(g23
g2
Ntp3609
Rp3610
(dp3611
g27
(dp3612
g29
Vor
p3613
sg31
VO
p3614
sg33
VCC
p3615
sg35
I14
ssg10
I357
sg36
g4
sg37
(dp3616
sg39
(dp3617
sg41
I1905
sg42
g21
sg43
g21
sg44
I357
sg45
Vor
p3618
sg47
I357
sg48
I1907
sbag0
(g23
g2
Ntp3619
Rp3620
(dp3621
g27
(dp3622
g29
Vblood
p3623
sg31
VO
p3624
sg33
VNN
p3625
sg35
I15
ssg10
I358
sg36
g4
sg37
(dp3626
sg39
(dp3627
sg41
I1908
sg42
g21
sg43
g21
sg44
I358
sg45
Vblood
p3628
sg47
I358
sg48
I1913
sbag0
(g23
g2
Ntp3629
Rp3630
(dp3631
g27
(dp3632
g29
Vpressure
p3633
sg31
VO
p3634
sg33
VNN
p3635
sg35
I16
ssg10
I359
sg36
g4
sg37
(dp3636
sg39
(dp3637
sg41
I1914
sg42
g21
sg43
g21
sg44
I359
sg45
Vpressure
p3638
sg47
I359
sg48
I1922
sbag0
(g23
g2
Ntp3639
Rp3640
(dp3641
g27
(dp3642
g29
Vscreening
p3643
sg31
VO
p3644
sg33
VNNS
p3645
sg35
I17
ssg10
I360
sg36
g4
sg37
(dp3646
sg39
(dp3647
sg41
I1923
sg42
g21
sg43
g21
sg44
I360
sg45
Vscreenings
p3648
sg47
I360
sg48
I1933
sbag0
(g23
g2
Ntp3649
Rp3650
(dp3651
g27
(dp3652
g29
V.
p3653
sg31
VO
p3654
sg33
V.
p3655
sg35
I18
ssg10
I361
sg36
g4
sg37
(dp3656
sg39
(dp3657
sg41
I1933
sg42
g21
sg43
g21
sg44
I361
sg45
V.
p3658
sg47
I361
sg48
I1934
sbag0
(g23
g2
Ntp3659
Rp3660
(dp3661
g27
(dp3662
g29
Vaccord
p3663
sg31
VO
p3664
sg33
VVBG
p3665
sg35
I1
ssg10
I362
sg36
g4
sg37
(dp3666
sg39
(dp3667
sg41
I1937
sg42
g21
sg43
g21
sg44
I362
sg45
VAccording
p3668
sg47
I362
sg48
I1946
sbag0
(g23
g2
Ntp3669
Rp3670
(dp3671
g27
(dp3672
g29
Vto
p3673
sg31
VO
p3674
sg33
VTO
p3675
sg35
I2
ssg10
I363
sg36
g4
sg37
(dp3676
sg39
(dp3677
sg41
I1947
sg42
g21
sg43
g21
sg44
I363
sg45
Vto
p3678
sg47
I363
sg48
I1949
sbag0
(g23
g2
Ntp3679
Rp3680
(dp3681
g27
(dp3682
g29
VWorksite
p3683
sg31
VORGANIZATION
p3684
sg33
VNNP
p3685
sg35
I3
ssg10
I364
sg36
g4
sg37
(dp3686
sg39
(dp3687
sg41
I1950
sg42
g21
sg43
g21
sg44
I364
sg45
VWorksite
p3688
sg47
I364
sg48
I1958
sbag0
(g23
g2
Ntp3689
Rp3690
(dp3691
g27
(dp3692
g29
VHealth
p3693
sg31
VORGANIZATION
p3694
sg33
VNNP
p3695
sg35
I4
ssg10
I365
sg36
g4
sg37
(dp3696
sg39
(dp3697
sg41
I1959
sg42
g21
sg43
g21
sg44
I365
sg45
VHealth
p3698
sg47
I365
sg48
I1965
sbag0
(g23
g2
Ntp3699
Rp3700
(dp3701
g27
(dp3702
g29
VPromotion
p3703
sg31
VORGANIZATION
p3704
sg33
VNNP
p3705
sg35
I5
ssg10
I366
sg36
g4
sg37
(dp3706
sg39
(dp3707
sg41
I1966
sg42
g21
sg43
g21
sg44
I366
sg45
VPromotion
p3708
sg47
I366
sg48
I1975
sbag0
(g23
g2
Ntp3709
Rp3710
(dp3711
g27
(dp3712
g29
Vwith
p3713
sg31
VORGANIZATION
p3714
sg33
VIN
p3715
sg35
I6
ssg10
I367
sg36
g4
sg37
(dp3716
sg39
(dp3717
sg41
I1976
sg42
g21
sg43
g21
sg44
I367
sg45
Vwith
p3718
sg47
I367
sg48
I1980
sbag0
(g23
g2
Ntp3719
Rp3720
(dp3721
g27
(dp3722
g29
VInfinite
p3723
sg31
VORGANIZATION
p3724
sg33
VNNP
p3725
sg35
I7
ssg10
I368
sg36
g4
sg37
(dp3726
sg39
(dp3727
sg41
I1981
sg42
g21
sg43
g21
sg44
I368
sg45
VInfinite
p3728
sg47
I368
sg48
I1989
sbag0
(g23
g2
Ntp3729
Rp3730
(dp3731
g27
(dp3732
g29
VWellness
p3733
sg31
VORGANIZATION
p3734
sg33
VNNP
p3735
sg35
I8
ssg10
I369
sg36
g4
sg37
(dp3736
sg39
(dp3737
sg41
I1990
sg42
g21
sg43
g21
sg44
I369
sg45
VWellness
p3738
sg47
I369
sg48
I1998
sbag0
(g23
g2
Ntp3739
Rp3740
(dp3741
g27
(dp3742
g29
VSolutions
p3743
sg31
VORGANIZATION
p3744
sg33
VNNPS
p3745
sg35
I9
ssg10
I370
sg36
g4
sg37
(dp3746
sg39
(dp3747
sg41
I1999
sg42
g21
sg43
g21
sg44
I370
sg45
VSolutions
p3748
sg47
I370
sg48
I2008
sbag0
(g23
g2
Ntp3749
Rp3750
(dp3751
g27
(dp3752
g29
V,
p3753
sg31
VO
p3754
sg33
V,
p3755
sg35
I10
ssg10
I371
sg36
g4
sg37
(dp3756
sg39
(dp3757
sg41
I2008
sg42
g21
sg43
g21
sg44
I371
sg45
V,
p3758
sg47
I371
sg48
I2009
sbag0
(g23
g2
Ntp3759
Rp3760
(dp3761
g27
(dp3762
g29
Vit
p3763
sg31
VO
p3764
sg33
VPRP
p3765
sg35
I11
ssg10
I372
sg36
g4
sg37
(dp3766
sg39
(dp3767
sg41
I2010
sg42
g21
sg43
g21
sg44
I372
sg45
Vit
p3768
sg47
I372
sg48
I2012
sbag0
(g23
g2
Ntp3769
Rp3770
(dp3771
g27
(dp3772
g29
Vbe
p3773
sg31
VO
p3774
sg33
VVBZ
p3775
sg35
I12
ssg10
I373
sg36
g4
sg37
(dp3776
sg39
(dp3777
sg41
I2013
sg42
g21
sg43
g21
sg44
I373
sg45
Vis
p3778
sg47
I373
sg48
I2015
sbag0
(g23
g2
Ntp3779
Rp3780
(dp3781
g27
(dp3782
g29
Vessential
p3783
sg31
VO
p3784
sg33
VJJ
p3785
sg35
I13
ssg10
I374
sg36
g4
sg37
(dp3786
sg39
(dp3787
sg41
I2016
sg42
g21
sg43
g21
sg44
I374
sg45
Vessential
p3788
sg47
I374
sg48
I2025
sbag0
(g23
g2
Ntp3789
Rp3790
(dp3791
g27
(dp3792
g29
Vwellness
p3793
sg31
VO
p3794
sg33
VNN
p3795
sg35
I14
ssg10
I375
sg36
g4
sg37
(dp3796
sg39
(dp3797
sg41
I2026
sg42
g21
sg43
g21
sg44
I375
sg45
Vwellness
p3798
sg47
I375
sg48
I2034
sbag0
(g23
g2
Ntp3799
Rp3800
(dp3801
g27
(dp3802
g29
Vprogram
p3803
sg31
VO
p3804
sg33
VNNS
p3805
sg35
I15
ssg10
I376
sg36
g4
sg37
(dp3806
sg39
(dp3807
sg41
I2035
sg42
g21
sg43
g21
sg44
I376
sg45
Vprograms
p3808
sg47
I376
sg48
I2043
sbag0
(g23
g2
Ntp3809
Rp3810
(dp3811
g27
(dp3812
g29
Vhave
p3813
sg31
VO
p3814
sg33
VVBP
p3815
sg35
I16
ssg10
I377
sg36
g4
sg37
(dp3816
sg39
(dp3817
sg41
I2044
sg42
g21
sg43
g21
sg44
I377
sg45
Vhave
p3818
sg47
I377
sg48
I2048
sbag0
(g23
g2
Ntp3819
Rp3820
(dp3821
g27
(dp3822
g29
Vspecific
p3823
sg31
VO
p3824
sg33
VJJ
p3825
sg35
I17
ssg10
I378
sg36
g4
sg37
(dp3826
sg39
(dp3827
sg41
I2049
sg42
g21
sg43
g21
sg44
I378
sg45
Vspecific
p3828
sg47
I378
sg48
I2057
sbag0
(g23
g2
Ntp3829
Rp3830
(dp3831
g27
(dp3832
g29
Vgoal
p3833
sg31
VO
p3834
sg33
VNNS
p3835
sg35
I18
ssg10
I379
sg36
g4
sg37
(dp3836
sg39
(dp3837
sg41
I2058
sg42
g21
sg43
g21
sg44
I379
sg45
Vgoals
p3838
sg47
I379
sg48
I2063
sbag0
(g23
g2
Ntp3839
Rp3840
(dp3841
g27
(dp3842
g29
Vthat
p3843
sg31
VO
p3844
sg33
VWDT
p3845
sg35
I19
ssg10
I380
sg36
g4
sg37
(dp3846
sg39
(dp3847
sg41
I2064
sg42
g21
sg43
g21
sg44
I380
sg45
Vthat
p3848
sg47
I380
sg48
I2068
sbag0
(g23
g2
Ntp3849
Rp3850
(dp3851
g27
(dp3852
g29
Vprovide
p3853
sg31
VO
p3854
sg33
VVBP
p3855
sg35
I20
ssg10
I381
sg36
g4
sg37
(dp3856
sg39
(dp3857
sg41
I2069
sg42
g21
sg43
g21
sg44
I381
sg45
Vprovide
p3858
sg47
I381
sg48
I2076
sbag0
(g23
g2
Ntp3859
Rp3860
(dp3861
g27
(dp3862
g29
Va
p3863
sg31
VO
p3864
sg33
VDT
p3865
sg35
I21
ssg10
I382
sg36
g4
sg37
(dp3866
sg39
(dp3867
sg41
I2077
sg42
g21
sg43
g21
sg44
I382
sg45
Va
p3868
sg47
I382
sg48
I2078
sbag0
(g23
g2
Ntp3869
Rp3870
(dp3871
g27
(dp3872
g29
Vspecific
p3873
sg31
VO
p3874
sg33
VJJ
p3875
sg35
I22
ssg10
I383
sg36
g4
sg37
(dp3876
sg39
(dp3877
sg41
I2079
sg42
g21
sg43
g21
sg44
I383
sg45
Vspecific
p3878
sg47
I383
sg48
I2087
sbag0
(g23
g2
Ntp3879
Rp3880
(dp3881
g27
(dp3882
g29
Vdirection
p3883
sg31
VO
p3884
sg33
VNN
p3885
sg35
I23
ssg10
I384
sg36
g4
sg37
(dp3886
sg39
(dp3887
sg41
I2088
sg42
g21
sg43
g21
sg44
I384
sg45
Vdirection
p3888
sg47
I384
sg48
I2097
sbag0
(g23
g2
Ntp3889
Rp3890
(dp3891
g27
(dp3892
g29
Vfor
p3893
sg31
VO
p3894
sg33
VIN
p3895
sg35
I24
ssg10
I385
sg36
g4
sg37
(dp3896
sg39
(dp3897
sg41
I2098
sg42
g21
sg43
g21
sg44
I385
sg45
Vfor
p3898
sg47
I385
sg48
I2101
sbag0
(g23
g2
Ntp3899
Rp3900
(dp3901
g27
(dp3902
g29
Vthe
p3903
sg31
VO
p3904
sg33
VDT
p3905
sg35
I25
ssg10
I386
sg36
g4
sg37
(dp3906
sg39
(dp3907
sg41
I2102
sg42
g21
sg43
g21
sg44
I386
sg45
Vthe
p3908
sg47
I386
sg48
I2105
sbag0
(g23
g2
Ntp3909
Rp3910
(dp3911
g27
(dp3912
g29
Vprogram
p3913
sg31
VO
p3914
sg33
VNN
p3915
sg35
I26
ssg10
I387
sg36
g4
sg37
(dp3916
sg39
(dp3917
sg41
I2106
sg42
g21
sg43
g21
sg44
I387
sg45
Vprogram
p3918
sg47
I387
sg48
I2113
sbag0
(g23
g2
Ntp3919
Rp3920
(dp3921
g27
(dp3922
g29
V-lsb-
p3923
sg31
VO
p3924
sg33
V-LRB-
p3925
sg35
I27
ssg10
I388
sg36
g4
sg37
(dp3926
sg39
(dp3927
sg41
I2114
sg42
g21
sg43
g21
sg44
I388
sg45
V[
p3928
sg47
I388
sg48
I2115
sbag0
(g23
g2
Ntp3929
Rp3930
(dp3931
g27
(dp3932
g29
Vref
p3933
sg31
VO
p3934
sg33
VNN
p3935
sg35
I28
ssg10
I389
sg36
g4
sg37
(dp3936
sg39
(dp3937
sg41
I2115
sg42
g21
sg43
g21
sg44
I389
sg45
VREF
p3938
sg47
I389
sg48
I2118
sbag0
(g23
g2
Ntp3939
Rp3940
(dp3941
g27
(dp3942
g29
V-rsb-
p3943
sg31
VO
p3944
sg33
V-RRB-
p3945
sg35
I29
ssg10
I390
sg36
g4
sg37
(dp3946
sg39
(dp3947
sg41
I2118
sg42
g21
sg43
g21
sg44
I390
sg45
V]
p3948
sg47
I390
sg48
I2119
sbag0
(g23
g2
Ntp3949
Rp3950
(dp3951
g27
(dp3952
g29
V.
p3953
sg31
VO
p3954
sg33
V.
p3955
sg35
I30
ssg10
I391
sg36
g4
sg37
(dp3956
sg39
(dp3957
sg41
I2119
sg42
g21
sg43
g21
sg44
I391
sg45
V.
p3958
sg47
I391
sg48
I2120
sbag0
(g23
g2
Ntp3959
Rp3960
(dp3961
g27
(dp3962
g29
Vgoal
p3963
sg31
VO
p3964
sg33
VNNS
p3965
sg35
I1
ssg10
I392
sg36
g4
sg37
(dp3966
sg39
(dp3967
sg41
I2121
sg42
g21
sg43
g21
sg44
I392
sg45
VGoals
p3968
sg47
I392
sg48
I2126
sbag0
(g23
g2
Ntp3969
Rp3970
(dp3971
g27
(dp3972
g29
Vcan
p3973
sg31
VO
p3974
sg33
VMD
p3975
sg35
I2
ssg10
I393
sg36
g4
sg37
(dp3976
sg39
(dp3977
sg41
I2127
sg42
g21
sg43
g21
sg44
I393
sg45
Vcan
p3978
sg47
I393
sg48
I2130
sbag0
(g23
g2
Ntp3979
Rp3980
(dp3981
g27
(dp3982
g29
Vinclude
p3983
sg31
VO
p3984
sg33
VVB
p3985
sg35
I3
ssg10
I394
sg36
g4
sg37
(dp3986
sg39
(dp3987
sg41
I2131
sg42
g21
sg43
g21
sg44
I394
sg45
Vinclude
p3988
sg47
I394
sg48
I2138
sbag0
(g23
g2
Ntp3989
Rp3990
(dp3991
g27
(dp3992
g29
Vkeep
p3993
sg31
VO
p3994
sg33
VVBG
p3995
sg35
I4
ssg10
I395
sg36
g4
sg37
(dp3996
sg39
(dp3997
sg41
I2139
sg42
g21
sg43
g21
sg44
I395
sg45
Vkeeping
p3998
sg47
I395
sg48
I2146
sbag0
(g23
g2
Ntp3999
Rp4000
(dp4001
g27
(dp4002
g29
Vtracking
p4003
sg31
VO
p4004
sg33
VNN
p4005
sg35
I5
ssg10
I396
sg36
g4
sg37
(dp4006
sg39
(dp4007
sg41
I2147
sg42
g21
sg43
g21
sg44
I396
sg45
Vtracking
p4008
sg47
I396
sg48
I2155
sbag0
(g23
g2
Ntp4009
Rp4010
(dp4011
g27
(dp4012
g29
Vof
p4013
sg31
VO
p4014
sg33
VIN
p4015
sg35
I6
ssg10
I397
sg36
g4
sg37
(dp4016
sg39
(dp4017
sg41
I2156
sg42
g21
sg43
g21
sg44
I397
sg45
Vof
p4018
sg47
I397
sg48
I2158
sbag0
(g23
g2
Ntp4019
Rp4020
(dp4021
g27
(dp4022
g29
Vthe
p4023
sg31
VO
p4024
sg33
VDT
p4025
sg35
I7
ssg10
I398
sg36
g4
sg37
(dp4026
sg39
(dp4027
sg41
I2159
sg42
g21
sg43
g21
sg44
I398
sg45
Vthe
p4028
sg47
I398
sg48
I2162
sbag0
(g23
g2
Ntp4029
Rp4030
(dp4031
g27
(dp4032
g29
Vnumber
p4033
sg31
VO
p4034
sg33
VNN
p4035
sg35
I8
ssg10
I399
sg36
g4
sg37
(dp4036
sg39
(dp4037
sg41
I2163
sg42
g21
sg43
g21
sg44
I399
sg45
Vnumber
p4038
sg47
I399
sg48
I2169
sbag0
(g23
g2
Ntp4039
Rp4040
(dp4041
g27
(dp4042
g29
Vof
p4043
sg31
VO
p4044
sg33
VIN
p4045
sg35
I9
ssg10
I400
sg36
g4
sg37
(dp4046
sg39
(dp4047
sg41
I2170
sg42
g21
sg43
g21
sg44
I400
sg45
Vof
p4048
sg47
I400
sg48
I2172
sbag0
(g23
g2
Ntp4049
Rp4050
(dp4051
g27
(dp4052
g29
Vparticipant
p4053
sg31
VO
p4054
sg33
VNNS
p4055
sg35
I10
ssg10
I401
sg36
g4
sg37
(dp4056
sg39
(dp4057
sg41
I2173
sg42
g21
sg43
g21
sg44
I401
sg45
Vparticipants
p4058
sg47
I401
sg48
I2185
sbag0
(g23
g2
Ntp4059
Rp4060
(dp4061
g27
(dp4062
g29
Vwho
p4063
sg31
VO
p4064
sg33
VWP
p4065
sg35
I11
ssg10
I402
sg36
g4
sg37
(dp4066
sg39
(dp4067
sg41
I2186
sg42
g21
sg43
g21
sg44
I402
sg45
Vwho
p4068
sg47
I402
sg48
I2189
sbag0
(g23
g2
Ntp4069
Rp4070
(dp4071
g27
(dp4072
g29
Vimprove
p4073
sg31
VO
p4074
sg33
VVBD
p4075
sg35
I12
ssg10
I403
sg36
g4
sg37
(dp4076
sg39
(dp4077
sg41
I2190
sg42
g21
sg43
g21
sg44
I403
sg45
Vimproved
p4078
sg47
I403
sg48
I2198
sbag0
(g23
g2
Ntp4079
Rp4080
(dp4081
g27
(dp4082
g29
Vthey
p4083
sg31
VO
p4084
sg33
VPRP$
p4085
sg35
I13
ssg10
I404
sg36
g4
sg37
(dp4086
sg39
(dp4087
sg41
I2199
sg42
g21
sg43
g21
sg44
I404
sg45
Vtheir
p4088
sg47
I404
sg48
I2204
sbag0
(g23
g2
Ntp4089
Rp4090
(dp4091
g27
(dp4092
g29
Vfitness
p4093
sg31
VO
p4094
sg33
VNN
p4095
sg35
I14
ssg10
I405
sg36
g4
sg37
(dp4096
sg39
(dp4097
sg41
I2205
sg42
g21
sg43
g21
sg44
I405
sg45
Vfitness
p4098
sg47
I405
sg48
I2212
sbag0
(g23
g2
Ntp4099
Rp4100
(dp4101
g27
(dp4102
g29
Vlevel
p4103
sg31
VO
p4104
sg33
VNN
p4105
sg35
I15
ssg10
I406
sg36
g4
sg37
(dp4106
sg39
(dp4107
sg41
I2213
sg42
g21
sg43
g21
sg44
I406
sg45
Vlevel
p4108
sg47
I406
sg48
I2218
sbag0
(g23
g2
Ntp4109
Rp4110
(dp4111
g27
(dp4112
g29
Vor
p4113
sg31
VO
p4114
sg33
VCC
p4115
sg35
I16
ssg10
I407
sg36
g4
sg37
(dp4116
sg39
(dp4117
sg41
I2219
sg42
g21
sg43
g21
sg44
I407
sg45
Vor
p4118
sg47
I407
sg48
I2221
sbag0
(g23
g2
Ntp4119
Rp4120
(dp4121
g27
(dp4122
g29
Vthe
p4123
sg31
VO
p4124
sg33
VDT
p4125
sg35
I17
ssg10
I408
sg36
g4
sg37
(dp4126
sg39
(dp4127
sg41
I2222
sg42
g21
sg43
g21
sg44
I408
sg45
Vthe
p4128
sg47
I408
sg48
I2225
sbag0
(g23
g2
Ntp4129
Rp4130
(dp4131
g27
(dp4132
g29
Vnumber
p4133
sg31
VO
p4134
sg33
VNN
p4135
sg35
I18
ssg10
I409
sg36
g4
sg37
(dp4136
sg39
(dp4137
sg41
I2226
sg42
g21
sg43
g21
sg44
I409
sg45
Vnumber
p4138
sg47
I409
sg48
I2232
sbag0
(g23
g2
Ntp4139
Rp4140
(dp4141
g27
(dp4142
g29
Vof
p4143
sg31
VO
p4144
sg33
VIN
p4145
sg35
I19
ssg10
I410
sg36
g4
sg37
(dp4146
sg39
(dp4147
sg41
I2233
sg42
g21
sg43
g21
sg44
I410
sg45
Vof
p4148
sg47
I410
sg48
I2235
sbag0
(g23
g2
Ntp4149
Rp4150
(dp4151
g27
(dp4152
g29
Vparticipant
p4153
sg31
VO
p4154
sg33
VNNS
p4155
sg35
I20
ssg10
I411
sg36
g4
sg37
(dp4156
sg39
(dp4157
sg41
I2236
sg42
g21
sg43
g21
sg44
I411
sg45
Vparticipants
p4158
sg47
I411
sg48
I2248
sbag0
(g23
g2
Ntp4159
Rp4160
(dp4161
g27
(dp4162
g29
Vscreen
p4163
sg31
VO
p4164
sg33
VVBN
p4165
sg35
I21
ssg10
I412
sg36
g4
sg37
(dp4166
sg39
(dp4167
sg41
I2249
sg42
g21
sg43
g21
sg44
I412
sg45
Vscreened
p4168
sg47
I412
sg48
I2257
sbag0
(g23
g2
Ntp4169
Rp4170
(dp4171
g27
(dp4172
g29
V.
p4173
sg31
VO
p4174
sg33
V.
p4175
sg35
I22
ssg10
I413
sg36
g4
sg37
(dp4176
sg39
(dp4177
sg41
I2257
sg42
g21
sg43
g21
sg44
I413
sg45
V.
p4178
sg47
I413
sg48
I2258
sbag0
(g23
g2
Ntp4179
Rp4180
(dp4181
g27
(dp4182
g29
Vthe
p4183
sg31
VO
p4184
sg33
VDT
p4185
sg35
I1
ssg10
I414
sg36
g4
sg37
(dp4186
sg39
(dp4187
sg41
I2260
sg42
g21
sg43
g21
sg44
I414
sg45
VThe
p4188
sg47
I414
sg48
I2263
sbag0
(g23
g2
Ntp4189
Rp4190
(dp4191
g27
(dp4192
g29
Vterm
p4193
sg31
VO
p4194
sg33
VNN
p4195
sg35
I2
ssg10
I415
sg36
g4
sg37
(dp4196
sg39
(dp4197
sg41
I2264
sg42
g21
sg43
g21
sg44
I415
sg45
Vterm
p4198
sg47
I415
sg48
I2268
sbag0
(g23
g2
Ntp4199
Rp4200
(dp4201
g27
(dp4202
g29
V``
p4203
sg31
VO
p4204
sg33
V``
p4205
sg35
I3
ssg10
I416
sg36
g4
sg37
(dp4206
sg39
(dp4207
sg41
I2269
sg42
g21
sg43
g21
sg44
I416
sg45
V"
p4208
sg47
I416
sg48
I2270
sbag0
(g23
g2
Ntp4209
Rp4210
(dp4211
g27
(dp4212
g29
Vcouch
p4213
sg31
VO
p4214
sg33
VNN
p4215
sg35
I4
ssg10
I417
sg36
g4
sg37
(dp4216
sg39
(dp4217
sg41
I2270
sg42
g21
sg43
g21
sg44
I417
sg45
Vcouch
p4218
sg47
I417
sg48
I2275
sbag0
(g23
g2
Ntp4219
Rp4220
(dp4221
g27
(dp4222
g29
Vpotato
p4223
sg31
VO
p4224
sg33
VNN
p4225
sg35
I5
ssg10
I418
sg36
g4
sg37
(dp4226
sg39
(dp4227
sg41
I2276
sg42
g21
sg43
g21
sg44
I418
sg45
Vpotato
p4228
sg47
I418
sg48
I2282
sbag0
(g23
g2
Ntp4229
Rp4230
(dp4231
g27
(dp4232
g29
V''
p4233
sg31
VO
p4234
sg33
V''
p4235
sg35
I6
ssg10
I419
sg36
g4
sg37
(dp4236
sg39
(dp4237
sg41
I2282
sg42
g21
sg43
g21
sg44
I419
sg45
g4208
sg47
I419
sg48
I2283
sbag0
(g23
g2
Ntp4238
Rp4239
(dp4240
g27
(dp4241
g29
Vbe
p4242
sg31
VO
p4243
sg33
VVBD
p4244
sg35
I7
ssg10
I420
sg36
g4
sg37
(dp4245
sg39
(dp4246
sg41
I2284
sg42
g21
sg43
g21
sg44
I420
sg45
Vwas
p4247
sg47
I420
sg48
I2287
sbag0
(g23
g2
Ntp4248
Rp4249
(dp4250
g27
(dp4251
g29
Vcoin
p4252
sg31
VO
p4253
sg33
VVBN
p4254
sg35
I8
ssg10
I421
sg36
g4
sg37
(dp4255
sg39
(dp4256
sg41
I2288
sg42
g21
sg43
g21
sg44
I421
sg45
Vcoined
p4257
sg47
I421
sg48
I2294
sbag0
(g23
g2
Ntp4258
Rp4259
(dp4260
g27
(dp4261
g29
Vby
p4262
sg31
VO
p4263
sg33
VIN
p4264
sg35
I9
ssg10
I422
sg36
g4
sg37
(dp4265
sg39
(dp4266
sg41
I2295
sg42
g21
sg43
g21
sg44
I422
sg45
Vby
p4267
sg47
I422
sg48
I2297
sbag0
(g23
g2
Ntp4268
Rp4269
(dp4270
g27
(dp4271
g29
Vunderground
p4272
sg31
VO
p4273
sg33
VJJ
p4274
sg35
I10
ssg10
I423
sg36
g4
sg37
(dp4275
sg39
(dp4276
sg41
I2298
sg42
g21
sg43
g21
sg44
I423
sg45
Vunderground
p4277
sg47
I423
sg48
I2309
sbag0
(g23
g2
Ntp4278
Rp4279
(dp4280
g27
(dp4281
g29
Vcomic
p4282
sg31
VO
p4283
sg33
VNNS
p4284
sg35
I11
ssg10
I424
sg36
g4
sg37
(dp4285
sg39
(dp4286
sg41
I2310
sg42
g21
sg43
g21
sg44
I424
sg45
Vcomics
p4287
sg47
I424
sg48
I2316
sbag0
(g23
g2
Ntp4288
Rp4289
(dp4290
g27
(dp4291
g29
Vartist
p4292
sg31
VO
p4293
sg33
VNN
p4294
sg35
I12
ssg10
I425
sg36
g4
sg37
(dp4295
sg39
(dp4296
sg41
I2317
sg42
g21
sg43
g21
sg44
I425
sg45
Vartist
p4297
sg47
I425
sg48
I2323
sbag0
(g23
g2
Ntp4298
Rp4299
(dp4300
g27
(dp4301
g29
VRobert
p4302
sg31
VPERSON
p4303
sg33
VNNP
p4304
sg35
I13
ssg10
I426
sg36
g4
sg37
(dp4305
sg39
(dp4306
sg41
I2324
sg42
g21
sg43
g21
sg44
I426
sg45
VRobert
p4307
sg47
I426
sg48
I2330
sbag0
(g23
g2
Ntp4308
Rp4309
(dp4310
g27
(dp4311
g29
VArmstrong
p4312
sg31
VPERSON
p4313
sg33
VNNP
p4314
sg35
I14
ssg10
I427
sg36
g4
sg37
(dp4315
sg39
(dp4316
sg41
I2331
sg42
g21
sg43
g21
sg44
I427
sg45
VArmstrong
p4317
sg47
I427
sg48
I2340
sbag0
(g23
g2
Ntp4318
Rp4319
(dp4320
g27
(dp4321
g29
Vin
p4322
sg31
VO
p4323
sg33
VIN
p4324
sg35
I15
ssg10
I428
sg36
g4
sg37
(dp4325
sg39
(dp4326
sg41
I2341
sg42
g21
sg43
g21
sg44
I428
sg45
Vin
p4327
sg47
I428
sg48
I2343
sbag0
(g23
g2
Ntp4328
Rp4329
(dp4330
g27
(dp4331
g29
Vthe
p4332
sg31
VDATE
p4333
sg33
VDT
p4334
sg35
I16
ssg10
I429
sg36
g4
sg37
(dp4335
sg39
(dp4336
sg41
I2344
sg42
g21
sg43
g21
sg44
I429
sg45
Vthe
p4337
sg47
I429
sg48
I2347
sbag0
(g23
g2
Ntp4338
Rp4339
(dp4340
g27
(dp4341
g29
V1970
p4342
sg31
VDATE
p4343
sg33
VNNS
p4344
sg35
I17
ssg10
I430
sg36
g4
sg37
(dp4345
sg39
(dp4346
sg41
I2348
sg42
g21
sg43
g21
sg44
I430
sg45
V1970s
p4347
sg47
I430
sg48
I2353
sbag0
(g23
g2
Ntp4348
Rp4349
(dp4350
g27
(dp4351
g29
V,
p4352
sg31
VO
p4353
sg33
V,
p4354
sg35
I18
ssg10
I431
sg36
g4
sg37
(dp4355
sg39
(dp4356
sg41
I2353
sg42
g21
sg43
g21
sg44
I431
sg45
V,
p4357
sg47
I431
sg48
I2354
sbag0
(g23
g2
Ntp4358
Rp4359
(dp4360
g27
(dp4361
g29
Vin
p4362
sg31
VO
p4363
sg33
VIN
p4364
sg35
I19
ssg10
I432
sg36
g4
sg37
(dp4365
sg39
(dp4366
sg41
I2355
sg42
g21
sg43
g21
sg44
I432
sg45
Vin
p4367
sg47
I432
sg48
I2357
sbag0
(g23
g2
Ntp4368
Rp4369
(dp4370
g27
(dp4371
g29
Va
p4372
sg31
VO
p4373
sg33
VDT
p4374
sg35
I20
ssg10
I433
sg36
g4
sg37
(dp4375
sg39
(dp4376
sg41
I2358
sg42
g21
sg43
g21
sg44
I433
sg45
Va
p4377
sg47
I433
sg48
I2359
sbag0
(g23
g2
Ntp4378
Rp4379
(dp4380
g27
(dp4381
g29
Vseries
p4382
sg31
VO
p4383
sg33
VNN
p4384
sg35
I21
ssg10
I434
sg36
g4
sg37
(dp4385
sg39
(dp4386
sg41
I2360
sg42
g21
sg43
g21
sg44
I434
sg45
Vseries
p4387
sg47
I434
sg48
I2366
sbag0
(g23
g2
Ntp4388
Rp4389
(dp4390
g27
(dp4391
g29
Vof
p4392
sg31
VO
p4393
sg33
VIN
p4394
sg35
I22
ssg10
I435
sg36
g4
sg37
(dp4395
sg39
(dp4396
sg41
I2367
sg42
g21
sg43
g21
sg44
I435
sg45
Vof
p4397
sg47
I435
sg48
I2369
sbag0
(g23
g2
Ntp4398
Rp4399
(dp4400
g27
(dp4401
g29
Vcomic
p4402
sg31
VO
p4403
sg33
VNNS
p4404
sg35
I23
ssg10
I436
sg36
g4
sg37
(dp4405
sg39
(dp4406
sg41
I2370
sg42
g21
sg43
g21
sg44
I436
sg45
Vcomics
p4407
sg47
I436
sg48
I2376
sbag0
(g23
g2
Ntp4408
Rp4409
(dp4410
g27
(dp4411
g29
Vfeature
p4412
sg31
VO
p4413
sg33
VVBG
p4414
sg35
I24
ssg10
I437
sg36
g4
sg37
(dp4415
sg39
(dp4416
sg41
I2377
sg42
g21
sg43
g21
sg44
I437
sg45
Vfeaturing
p4417
sg47
I437
sg48
I2386
sbag0
(g23
g2
Ntp4418
Rp4419
(dp4420
g27
(dp4421
g29
Vsedentary
p4422
sg31
VO
p4423
sg33
VJJ
p4424
sg35
I25
ssg10
I438
sg36
g4
sg37
(dp4425
sg39
(dp4426
sg41
I2387
sg42
g21
sg43
g21
sg44
I438
sg45
Vsedentary
p4427
sg47
I438
sg48
I2396
sbag0
(g23
g2
Ntp4428
Rp4429
(dp4430
g27
(dp4431
g29
Vcharacter
p4432
sg31
VO
p4433
sg33
VNNS
p4434
sg35
I26
ssg10
I439
sg36
g4
sg37
(dp4435
sg39
(dp4436
sg41
I2397
sg42
g21
sg43
g21
sg44
I439
sg45
Vcharacters
p4437
sg47
I439
sg48
I2407
sbag0
(g23
g2
Ntp4438
Rp4439
(dp4440
g27
(dp4441
g29
V.
p4442
sg31
VO
p4443
sg33
V.
p4444
sg35
I27
ssg10
I440
sg36
g4
sg37
(dp4445
sg39
(dp4446
sg41
I2407
sg42
g21
sg43
g21
sg44
I440
sg45
V.
p4447
sg47
I440
sg48
I2408
sbag0
(g23
g2
Ntp4448
Rp4449
(dp4450
g27
(dp4451
g29
Vthe
p4452
sg31
VO
p4453
sg33
VDT
p4454
sg35
I1
ssg10
I441
sg36
g4
sg37
(dp4455
sg39
(dp4456
sg41
I2411
sg42
g21
sg43
g21
sg44
I441
sg45
VThe
p4457
sg47
I441
sg48
I2414
sbag0
(g23
g2
Ntp4458
Rp4459
(dp4460
g27
(dp4461
g29
Vcondition
p4462
sg31
VO
p4463
sg33
VNN
p4464
sg35
I2
ssg10
I442
sg36
g4
sg37
(dp4465
sg39
(dp4466
sg41
I2415
sg42
g21
sg43
g21
sg44
I442
sg45
Vcondition
p4467
sg47
I442
sg48
I2424
sbag0
(g23
g2
Ntp4468
Rp4469
(dp4470
g27
(dp4471
g29
V,
p4472
sg31
VO
p4473
sg33
V,
p4474
sg35
I3
ssg10
I443
sg36
g4
sg37
(dp4475
sg39
(dp4476
sg41
I2424
sg42
g21
sg43
g21
sg44
I443
sg45
V,
p4477
sg47
I443
sg48
I2425
sbag0
(g23
g2
Ntp4478
Rp4479
(dp4480
g27
(dp4481
g29
Vwhich
p4482
sg31
VO
p4483
sg33
VWDT
p4484
sg35
I4
ssg10
I444
sg36
g4
sg37
(dp4485
sg39
(dp4486
sg41
I2426
sg42
g21
sg43
g21
sg44
I444
sg45
Vwhich
p4487
sg47
I444
sg48
I2431
sbag0
(g23
g2
Ntp4488
Rp4489
(dp4490
g27
(dp4491
g29
Vpredate
p4492
sg31
VO
p4493
sg33
VVBZ
p4494
sg35
I5
ssg10
I445
sg36
g4
sg37
(dp4495
sg39
(dp4496
sg41
I2432
sg42
g21
sg43
g21
sg44
I445
sg45
Vpredates
p4497
sg47
I445
sg48
I2440
sbag0
(g23
g2
Ntp4498
Rp4499
(dp4500
g27
(dp4501
g29
Vthe
p4502
sg31
VO
p4503
sg33
VDT
p4504
sg35
I6
ssg10
I446
sg36
g4
sg37
(dp4505
sg39
(dp4506
sg41
I2441
sg42
g21
sg43
g21
sg44
I446
sg45
Vthe
p4507
sg47
I446
sg48
I2444
sbag0
(g23
g2
Ntp4508
Rp4509
(dp4510
g27
(dp4511
g29
Vterm
p4512
sg31
VO
p4513
sg33
VNN
p4514
sg35
I7
ssg10
I447
sg36
g4
sg37
(dp4515
sg39
(dp4516
sg41
I2445
sg42
g21
sg43
g21
sg44
I447
sg45
Vterm
p4517
sg47
I447
sg48
I2449
sbag0
(g23
g2
Ntp4518
Rp4519
(dp4520
g27
(dp4521
g29
V,
p4522
sg31
VO
p4523
sg33
V,
p4524
sg35
I8
ssg10
I448
sg36
g4
sg37
(dp4525
sg39
(dp4526
sg41
I2449
sg42
g21
sg43
g21
sg44
I448
sg45
V,
p4527
sg47
I448
sg48
I2450
sbag0
(g23
g2
Ntp4528
Rp4529
(dp4530
g27
(dp4531
g29
Vbe
p4532
sg31
VO
p4533
sg33
VVBZ
p4534
sg35
I9
ssg10
I449
sg36
g4
sg37
(dp4535
sg39
(dp4536
sg41
I2451
sg42
g21
sg43
g21
sg44
I449
sg45
Vis
p4537
sg47
I449
sg48
I2453
sbag0
(g23
g2
Ntp4538
Rp4539
(dp4540
g27
(dp4541
g29
Vcharacterize
p4542
sg31
VO
p4543
sg33
VVBN
p4544
sg35
I10
ssg10
I450
sg36
g4
sg37
(dp4545
sg39
(dp4546
sg41
I2454
sg42
g21
sg43
g21
sg44
I450
sg45
Vcharacterized
p4547
sg47
I450
sg48
I2467
sbag0
(g23
g2
Ntp4548
Rp4549
(dp4550
g27
(dp4551
g29
Vby
p4552
sg31
VO
p4553
sg33
VIN
p4554
sg35
I11
ssg10
I451
sg36
g4
sg37
(dp4555
sg39
(dp4556
sg41
I2468
sg42
g21
sg43
g21
sg44
I451
sg45
Vby
p4557
sg47
I451
sg48
I2470
sbag0
(g23
g2
Ntp4558
Rp4559
(dp4560
g27
(dp4561
g29
Vsit
p4562
sg31
VO
p4563
sg33
VVBG
p4564
sg35
I12
ssg10
I452
sg36
g4
sg37
(dp4565
sg39
(dp4566
sg41
I2471
sg42
g21
sg43
g21
sg44
I452
sg45
Vsitting
p4567
sg47
I452
sg48
I2478
sbag0
(g23
g2
Ntp4568
Rp4569
(dp4570
g27
(dp4571
g29
Vor
p4572
sg31
VO
p4573
sg33
VCC
p4574
sg35
I13
ssg10
I453
sg36
g4
sg37
(dp4575
sg39
(dp4576
sg41
I2479
sg42
g21
sg43
g21
sg44
I453
sg45
Vor
p4577
sg47
I453
sg48
I2481
sbag0
(g23
g2
Ntp4578
Rp4579
(dp4580
g27
(dp4581
g29
Vremain
p4582
sg31
VO
p4583
sg33
VVBG
p4584
sg35
I14
ssg10
I454
sg36
g4
sg37
(dp4585
sg39
(dp4586
sg41
I2482
sg42
g21
sg43
g21
sg44
I454
sg45
Vremaining
p4587
sg47
I454
sg48
I2491
sbag0
(g23
g2
Ntp4588
Rp4589
(dp4590
g27
(dp4591
g29
Vinactive
p4592
sg31
VO
p4593
sg33
VJJ
p4594
sg35
I15
ssg10
I455
sg36
g4
sg37
(dp4595
sg39
(dp4596
sg41
I2492
sg42
g21
sg43
g21
sg44
I455
sg45
Vinactive
p4597
sg47
I455
sg48
I2500
sbag0
(g23
g2
Ntp4598
Rp4599
(dp4600
g27
(dp4601
g29
Vfor
p4602
sg31
VO
p4603
sg33
VIN
p4604
sg35
I16
ssg10
I456
sg36
g4
sg37
(dp4605
sg39
(dp4606
sg41
I2501
sg42
g21
sg43
g21
sg44
I456
sg45
Vfor
p4607
sg47
I456
sg48
I2504
sbag0
(g23
g2
Ntp4608
Rp4609
(dp4610
g27
(dp4611
g29
Vmost
p4612
sg31
VO
p4613
sg33
VJJS
p4614
sg35
I17
ssg10
I457
sg36
g4
sg37
(dp4615
sg39
(dp4616
sg41
I2505
sg42
g21
sg43
g21
sg44
I457
sg45
Vmost
p4617
sg47
I457
sg48
I2509
sbag0
(g23
g2
Ntp4618
Rp4619
(dp4620
g27
(dp4621
g29
Vof
p4622
sg31
VO
p4623
sg33
VIN
p4624
sg35
I18
ssg10
I458
sg36
g4
sg37
(dp4625
sg39
(dp4626
sg41
I2510
sg42
g21
sg43
g21
sg44
I458
sg45
Vof
p4627
sg47
I458
sg48
I2512
sbag0
(g23
g2
Ntp4628
Rp4629
(dp4630
g27
(dp4631
g29
Vthe
p4632
sg31
VDATE
p4633
sg33
VDT
p4634
sg35
I19
ssg10
I459
sg36
g4
sg37
(dp4635
sg39
(dp4636
sg41
I2513
sg42
g21
sg43
g21
sg44
I459
sg45
Vthe
p4637
sg47
I459
sg48
I2516
sbag0
(g23
g2
Ntp4638
Rp4639
(dp4640
g27
(dp4641
g29
Vday
p4642
sg31
VDATE
p4643
sg33
VNN
p4644
sg35
I20
ssg10
I460
sg36
g4
sg37
(dp4645
sg39
(dp4646
sg41
I2517
sg42
g21
sg43
g21
sg44
I460
sg45
Vday
p4647
sg47
I460
sg48
I2520
sbag0
(g23
g2
Ntp4648
Rp4649
(dp4650
g27
(dp4651
g29
Vwith
p4652
sg31
VO
p4653
sg33
VIN
p4654
sg35
I21
ssg10
I461
sg36
g4
sg37
(dp4655
sg39
(dp4656
sg41
I2521
sg42
g21
sg43
g21
sg44
I461
sg45
Vwith
p4657
sg47
I461
sg48
I2525
sbag0
(g23
g2
Ntp4658
Rp4659
(dp4660
g27
(dp4661
g29
Vlittle
p4662
sg31
VO
p4663
sg33
VJJ
p4664
sg35
I22
ssg10
I462
sg36
g4
sg37
(dp4665
sg39
(dp4666
sg41
I2526
sg42
g21
sg43
g21
sg44
I462
sg45
Vlittle
p4667
sg47
I462
sg48
I2532
sbag0
(g23
g2
Ntp4668
Rp4669
(dp4670
g27
(dp4671
g29
Vor
p4672
sg31
VO
p4673
sg33
VCC
p4674
sg35
I23
ssg10
I463
sg36
g4
sg37
(dp4675
sg39
(dp4676
sg41
I2533
sg42
g21
sg43
g21
sg44
I463
sg45
Vor
p4677
sg47
I463
sg48
I2535
sbag0
(g23
g2
Ntp4678
Rp4679
(dp4680
g27
(dp4681
g29
Vno
p4682
sg31
VO
p4683
sg33
VDT
p4684
sg35
I24
ssg10
I464
sg36
g4
sg37
(dp4685
sg39
(dp4686
sg41
I2536
sg42
g21
sg43
g21
sg44
I464
sg45
Vno
p4687
sg47
I464
sg48
I2538
sbag0
(g23
g2
Ntp4688
Rp4689
(dp4690
g27
(dp4691
g29
Vexercise
p4692
sg31
VO
p4693
sg33
VNN
p4694
sg35
I25
ssg10
I465
sg36
g4
sg37
(dp4695
sg39
(dp4696
sg41
I2539
sg42
g21
sg43
g21
sg44
I465
sg45
Vexercise
p4697
sg47
I465
sg48
I2547
sbag0
(g23
g2
Ntp4698
Rp4699
(dp4700
g27
(dp4701
g29
V.
p4702
sg31
VO
p4703
sg33
V.
p4704
sg35
I26
ssg10
I466
sg36
g4
sg37
(dp4705
sg39
(dp4706
sg41
I2547
sg42
g21
sg43
g21
sg44
I466
sg45
V.
p4707
sg47
I466
sg48
I2548
sbag0
(g23
g2
Ntp4708
Rp4709
(dp4710
g27
(dp4711
g29
Vlack
p4712
sg31
VO
p4713
sg33
VNN
p4714
sg35
I1
ssg10
I467
sg36
g4
sg37
(dp4715
sg39
(dp4716
sg41
I2551
sg42
g21
sg43
g21
sg44
I467
sg45
VLack
p4717
sg47
I467
sg48
I2555
sbag0
(g23
g2
Ntp4718
Rp4719
(dp4720
g27
(dp4721
g29
Vof
p4722
sg31
VO
p4723
sg33
VIN
p4724
sg35
I2
ssg10
I468
sg36
g4
sg37
(dp4725
sg39
(dp4726
sg41
I2556
sg42
g21
sg43
g21
sg44
I468
sg45
Vof
p4727
sg47
I468
sg48
I2558
sbag0
(g23
g2
Ntp4728
Rp4729
(dp4730
g27
(dp4731
g29
Vexercise
p4732
sg31
VO
p4733
sg33
VNN
p4734
sg35
I3
ssg10
I469
sg36
g4
sg37
(dp4735
sg39
(dp4736
sg41
I2559
sg42
g21
sg43
g21
sg44
I469
sg45
Vexercise
p4737
sg47
I469
sg48
I2567
sbag0
(g23
g2
Ntp4738
Rp4739
(dp4740
g27
(dp4741
g29
Vcause
p4742
sg31
VO
p4743
sg33
VVBZ
p4744
sg35
I4
ssg10
I470
sg36
g4
sg37
(dp4745
sg39
(dp4746
sg41
I2568
sg42
g21
sg43
g21
sg44
I470
sg45
Vcauses
p4747
sg47
I470
sg48
I2574
sbag0
(g23
g2
Ntp4748
Rp4749
(dp4750
g27
(dp4751
g29
Vmuscle
p4752
sg31
VO
p4753
sg33
VNN
p4754
sg35
I5
ssg10
I471
sg36
g4
sg37
(dp4755
sg39
(dp4756
sg41
I2575
sg42
g21
sg43
g21
sg44
I471
sg45
Vmuscle
p4757
sg47
I471
sg48
I2581
sbag0
(g23
g2
Ntp4758
Rp4759
(dp4760
g27
(dp4761
g29
Vatrophy
p4762
sg31
VO
p4763
sg33
VNN
p4764
sg35
I6
ssg10
I472
sg36
g4
sg37
(dp4765
sg39
(dp4766
sg41
I2582
sg42
g21
sg43
g21
sg44
I472
sg45
Vatrophy
p4767
sg47
I472
sg48
I2589
sbag0
(g23
g2
Ntp4768
Rp4769
(dp4770
g27
(dp4771
g29
V,
p4772
sg31
VO
p4773
sg33
V,
p4774
sg35
I7
ssg10
I473
sg36
g4
sg37
(dp4775
sg39
(dp4776
sg41
I2589
sg42
g21
sg43
g21
sg44
I473
sg45
V,
p4777
sg47
I473
sg48
I2590
sbag0
(g23
g2
Ntp4778
Rp4779
(dp4780
g27
(dp4781
g29
Vi.e.
p4782
sg31
VO
p4783
sg33
VFW
p4784
sg35
I8
ssg10
I474
sg36
g4
sg37
(dp4785
sg39
(dp4786
sg41
I2591
sg42
g21
sg43
g21
sg44
I474
sg45
Vi.e.
p4787
sg47
I474
sg48
I2595
sbag0
(g23
g2
Ntp4788
Rp4789
(dp4790
g27
(dp4791
g29
Vshrink
p4792
sg31
VO
p4793
sg33
VVBG
p4794
sg35
I9
ssg10
I475
sg36
g4
sg37
(dp4795
sg39
(dp4796
sg41
I2596
sg42
g21
sg43
g21
sg44
I475
sg45
Vshrinking
p4797
sg47
I475
sg48
I2605
sbag0
(g23
g2
Ntp4798
Rp4799
(dp4800
g27
(dp4801
g29
Vand
p4802
sg31
VO
p4803
sg33
VCC
p4804
sg35
I10
ssg10
I476
sg36
g4
sg37
(dp4805
sg39
(dp4806
sg41
I2606
sg42
g21
sg43
g21
sg44
I476
sg45
Vand
p4807
sg47
I476
sg48
I2609
sbag0
(g23
g2
Ntp4808
Rp4809
(dp4810
g27
(dp4811
g29
Vweaken
p4812
sg31
VO
p4813
sg33
VVBG
p4814
sg35
I11
ssg10
I477
sg36
g4
sg37
(dp4815
sg39
(dp4816
sg41
I2610
sg42
g21
sg43
g21
sg44
I477
sg45
Vweakening
p4817
sg47
I477
sg48
I2619
sbag0
(g23
g2
Ntp4818
Rp4819
(dp4820
g27
(dp4821
g29
Vof
p4822
sg31
VO
p4823
sg33
VIN
p4824
sg35
I12
ssg10
I478
sg36
g4
sg37
(dp4825
sg39
(dp4826
sg41
I2620
sg42
g21
sg43
g21
sg44
I478
sg45
Vof
p4827
sg47
I478
sg48
I2622
sbag0
(g23
g2
Ntp4828
Rp4829
(dp4830
g27
(dp4831
g29
Vthe
p4832
sg31
VO
p4833
sg33
VDT
p4834
sg35
I13
ssg10
I479
sg36
g4
sg37
(dp4835
sg39
(dp4836
sg41
I2623
sg42
g21
sg43
g21
sg44
I479
sg45
Vthe
p4837
sg47
I479
sg48
I2626
sbag0
(g23
g2
Ntp4838
Rp4839
(dp4840
g27
(dp4841
g29
Vmuscle
p4842
sg31
VO
p4843
sg33
VNNS
p4844
sg35
I14
ssg10
I480
sg36
g4
sg37
(dp4845
sg39
(dp4846
sg41
I2627
sg42
g21
sg43
g21
sg44
I480
sg45
Vmuscles
p4847
sg47
I480
sg48
I2634
sbag0
(g23
g2
Ntp4848
Rp4849
(dp4850
g27
(dp4851
g29
Vand
p4852
sg31
VO
p4853
sg33
VCC
p4854
sg35
I15
ssg10
I481
sg36
g4
sg37
(dp4855
sg39
(dp4856
sg41
I2635
sg42
g21
sg43
g21
sg44
I481
sg45
Vand
p4857
sg47
I481
sg48
I2638
sbag0
(g23
g2
Ntp4858
Rp4859
(dp4860
g27
(dp4861
g29
Vaccordingly
p4862
sg31
VO
p4863
sg33
VRB
p4864
sg35
I16
ssg10
I482
sg36
g4
sg37
(dp4865
sg39
(dp4866
sg41
I2639
sg42
g21
sg43
g21
sg44
I482
sg45
Vaccordingly
p4867
sg47
I482
sg48
I2650
sbag0
(g23
g2
Ntp4868
Rp4869
(dp4870
g27
(dp4871
g29
Vincrease
p4872
sg31
VO
p4873
sg33
VVBZ
p4874
sg35
I17
ssg10
I483
sg36
g4
sg37
(dp4875
sg39
(dp4876
sg41
I2651
sg42
g21
sg43
g21
sg44
I483
sg45
Vincreases
p4877
sg47
I483
sg48
I2660
sbag0
(g23
g2
Ntp4878
Rp4879
(dp4880
g27
(dp4881
g29
Vsusceptibility
p4882
sg31
VO
p4883
sg33
VNN
p4884
sg35
I18
ssg10
I484
sg36
g4
sg37
(dp4885
sg39
(dp4886
sg41
I2661
sg42
g21
sg43
g21
sg44
I484
sg45
Vsusceptibility
p4887
sg47
I484
sg48
I2675
sbag0
(g23
g2
Ntp4888
Rp4889
(dp4890
g27
(dp4891
g29
Vto
p4892
sg31
VO
p4893
sg33
VTO
p4894
sg35
I19
ssg10
I485
sg36
g4
sg37
(dp4895
sg39
(dp4896
sg41
I2676
sg42
g21
sg43
g21
sg44
I485
sg45
Vto
p4897
sg47
I485
sg48
I2678
sbag0
(g23
g2
Ntp4898
Rp4899
(dp4900
g27
(dp4901
g29
Vphysical
p4902
sg31
VO
p4903
sg33
VJJ
p4904
sg35
I20
ssg10
I486
sg36
g4
sg37
(dp4905
sg39
(dp4906
sg41
I2679
sg42
g21
sg43
g21
sg44
I486
sg45
Vphysical
p4907
sg47
I486
sg48
I2687
sbag0
(g23
g2
Ntp4908
Rp4909
(dp4910
g27
(dp4911
g29
Vinjury
p4912
sg31
VO
p4913
sg33
VNN
p4914
sg35
I21
ssg10
I487
sg36
g4
sg37
(dp4915
sg39
(dp4916
sg41
I2688
sg42
g21
sg43
g21
sg44
I487
sg45
Vinjury
p4917
sg47
I487
sg48
I2694
sbag0
(g23
g2
Ntp4918
Rp4919
(dp4920
g27
(dp4921
g29
V.
p4922
sg31
VO
p4923
sg33
V.
p4924
sg35
I22
ssg10
I488
sg36
g4
sg37
(dp4925
sg39
(dp4926
sg41
I2694
sg42
g21
sg43
g21
sg44
I488
sg45
V.
p4927
sg47
I488
sg48
I2695
sbag0
(g23
g2
Ntp4928
Rp4929
(dp4930
g27
(dp4931
g29
Vadditionally
p4932
sg31
VO
p4933
sg33
VRB
p4934
sg35
I1
ssg10
I489
sg36
g4
sg37
(dp4935
sg39
(dp4936
sg41
I2696
sg42
g21
sg43
g21
sg44
I489
sg45
VAdditionally
p4937
sg47
I489
sg48
I2708
sbag0
(g23
g2
Ntp4938
Rp4939
(dp4940
g27
(dp4941
g29
V,
p4942
sg31
VO
p4943
sg33
V,
p4944
sg35
I2
ssg10
I490
sg36
g4
sg37
(dp4945
sg39
(dp4946
sg41
I2708
sg42
g21
sg43
g21
sg44
I490
sg45
V,
p4947
sg47
I490
sg48
I2709
sbag0
(g23
g2
Ntp4948
Rp4949
(dp4950
g27
(dp4951
g29
Vphysical
p4952
sg31
VO
p4953
sg33
VJJ
p4954
sg35
I3
ssg10
I491
sg36
g4
sg37
(dp4955
sg39
(dp4956
sg41
I2710
sg42
g21
sg43
g21
sg44
I491
sg45
Vphysical
p4957
sg47
I491
sg48
I2718
sbag0
(g23
g2
Ntp4958
Rp4959
(dp4960
g27
(dp4961
g29
Vfitness
p4962
sg31
VO
p4963
sg33
VNN
p4964
sg35
I4
ssg10
I492
sg36
g4
sg37
(dp4965
sg39
(dp4966
sg41
I2719
sg42
g21
sg43
g21
sg44
I492
sg45
Vfitness
p4967
sg47
I492
sg48
I2726
sbag0
(g23
g2
Ntp4968
Rp4969
(dp4970
g27
(dp4971
g29
Vbe
p4972
sg31
VO
p4973
sg33
VVBZ
p4974
sg35
I5
ssg10
I493
sg36
g4
sg37
(dp4975
sg39
(dp4976
sg41
I2727
sg42
g21
sg43
g21
sg44
I493
sg45
Vis
p4977
sg47
I493
sg48
I2729
sbag0
(g23
g2
Ntp4978
Rp4979
(dp4980
g27
(dp4981
g29
Vcorrelate
p4982
sg31
VO
p4983
sg33
VVBN
p4984
sg35
I6
ssg10
I494
sg36
g4
sg37
(dp4985
sg39
(dp4986
sg41
I2730
sg42
g21
sg43
g21
sg44
I494
sg45
Vcorrelated
p4987
sg47
I494
sg48
I2740
sbag0
(g23
g2
Ntp4988
Rp4989
(dp4990
g27
(dp4991
g29
Vwith
p4992
sg31
VO
p4993
sg33
VIN
p4994
sg35
I7
ssg10
I495
sg36
g4
sg37
(dp4995
sg39
(dp4996
sg41
I2741
sg42
g21
sg43
g21
sg44
I495
sg45
Vwith
p4997
sg47
I495
sg48
I2745
sbag0
(g23
g2
Ntp4998
Rp4999
(dp5000
g27
(dp5001
g29
Vimmune
p5002
sg31
VO
p5003
sg33
VJJ
p5004
sg35
I8
ssg10
I496
sg36
g4
sg37
(dp5005
sg39
(dp5006
sg41
I2746
sg42
g21
sg43
g21
sg44
I496
sg45
Vimmune
p5007
sg47
I496
sg48
I2752
sbag0
(g23
g2
Ntp5008
Rp5009
(dp5010
g27
(dp5011
g29
Vsystem
p5012
sg31
VO
p5013
sg33
VNN
p5014
sg35
I9
ssg10
I497
sg36
g4
sg37
(dp5015
sg39
(dp5016
sg41
I2753
sg42
g21
sg43
g21
sg44
I497
sg45
Vsystem
p5017
sg47
I497
sg48
I2759
sbag0
(g23
g2
Ntp5018
Rp5019
(dp5020
g27
(dp5021
g29
Vfunction
p5022
sg31
VO
p5023
sg33
VNN
p5024
sg35
I10
ssg10
I498
sg36
g4
sg37
(dp5025
sg39
(dp5026
sg41
I2760
sg42
g21
sg43
g21
sg44
I498
sg45
Vfunction
p5027
sg47
I498
sg48
I2768
sbag0
(g23
g2
Ntp5028
Rp5029
(dp5030
g27
(dp5031
g29
V-lsb-
p5032
sg31
VO
p5033
sg33
V-LRB-
p5034
sg35
I11
ssg10
I499
sg36
g4
sg37
(dp5035
sg39
(dp5036
sg41
I2768
sg42
g21
sg43
g21
sg44
I499
sg45
V[
p5037
sg47
I499
sg48
I2769
sbag0
(g23
g2
Ntp5038
Rp5039
(dp5040
g27
(dp5041
g29
Vref
p5042
sg31
VO
p5043
sg33
VNN
p5044
sg35
I12
ssg10
I500
sg36
g4
sg37
(dp5045
sg39
(dp5046
sg41
I2769
sg42
g21
sg43
g21
sg44
I500
sg45
VREF
p5047
sg47
I500
sg48
I2772
sbag0
(g23
g2
Ntp5048
Rp5049
(dp5050
g27
(dp5051
g29
V-rsb-
p5052
sg31
VO
p5053
sg33
V-RRB-
p5054
sg35
I13
ssg10
I501
sg36
g4
sg37
(dp5055
sg39
(dp5056
sg41
I2772
sg42
g21
sg43
g21
sg44
I501
sg45
V]
p5057
sg47
I501
sg48
I2773
sbag0
(g23
g2
Ntp5058
Rp5059
(dp5060
g27
(dp5061
g29
V;
p5062
sg31
VO
p5063
sg33
V:
p5064
sg35
I14
ssg10
I502
sg36
g4
sg37
(dp5065
sg39
(dp5066
sg41
I2773
sg42
g21
sg43
g21
sg44
I502
sg45
V;
p5067
sg47
I502
sg48
I2774
sbag0
(g23
g2
Ntp5068
Rp5069
(dp5070
g27
(dp5071
g29
Va
p5072
sg31
VO
p5073
sg33
VDT
p5074
sg35
I15
ssg10
I503
sg36
g4
sg37
(dp5075
sg39
(dp5076
sg41
I2775
sg42
g21
sg43
g21
sg44
I503
sg45
Va
p5077
sg47
I503
sg48
I2776
sbag0
(g23
g2
Ntp5078
Rp5079
(dp5080
g27
(dp5081
g29
Vreduction
p5082
sg31
VO
p5083
sg33
VNN
p5084
sg35
I16
ssg10
I504
sg36
g4
sg37
(dp5085
sg39
(dp5086
sg41
I2777
sg42
g21
sg43
g21
sg44
I504
sg45
Vreduction
p5087
sg47
I504
sg48
I2786
sbag0
(g23
g2
Ntp5088
Rp5089
(dp5090
g27
(dp5091
g29
Vin
p5092
sg31
VO
p5093
sg33
VIN
p5094
sg35
I17
ssg10
I505
sg36
g4
sg37
(dp5095
sg39
(dp5096
sg41
I2787
sg42
g21
sg43
g21
sg44
I505
sg45
Vin
p5097
sg47
I505
sg48
I2789
sbag0
(g23
g2
Ntp5098
Rp5099
(dp5100
g27
(dp5101
g29
Vphysical
p5102
sg31
VO
p5103
sg33
VJJ
p5104
sg35
I18
ssg10
I506
sg36
g4
sg37
(dp5105
sg39
(dp5106
sg41
I2790
sg42
g21
sg43
g21
sg44
I506
sg45
Vphysical
p5107
sg47
I506
sg48
I2798
sbag0
(g23
g2
Ntp5108
Rp5109
(dp5110
g27
(dp5111
g29
Vfitness
p5112
sg31
VO
p5113
sg33
VNN
p5114
sg35
I19
ssg10
I507
sg36
g4
sg37
(dp5115
sg39
(dp5116
sg41
I2799
sg42
g21
sg43
g21
sg44
I507
sg45
Vfitness
p5117
sg47
I507
sg48
I2806
sbag0
(g23
g2
Ntp5118
Rp5119
(dp5120
g27
(dp5121
g29
Vbe
p5122
sg31
VO
p5123
sg33
VVBZ
p5124
sg35
I20
ssg10
I508
sg36
g4
sg37
(dp5125
sg39
(dp5126
sg41
I2807
sg42
g21
sg43
g21
sg44
I508
sg45
Vis
p5127
sg47
I508
sg48
I2809
sbag0
(g23
g2
Ntp5128
Rp5129
(dp5130
g27
(dp5131
g29
Vgenerally
p5132
sg31
VO
p5133
sg33
VRB
p5134
sg35
I21
ssg10
I509
sg36
g4
sg37
(dp5135
sg39
(dp5136
sg41
I2810
sg42
g21
sg43
g21
sg44
I509
sg45
Vgenerally
p5137
sg47
I509
sg48
I2819
sbag0
(g23
g2
Ntp5138
Rp5139
(dp5140
g27
(dp5141
g29
Vaccompany
p5142
sg31
VO
p5143
sg33
VVBN
p5144
sg35
I22
ssg10
I510
sg36
g4
sg37
(dp5145
sg39
(dp5146
sg41
I2820
sg42
g21
sg43
g21
sg44
I510
sg45
Vaccompanied
p5147
sg47
I510
sg48
I2831
sbag0
(g23
g2
Ntp5148
Rp5149
(dp5150
g27
(dp5151
g29
Vby
p5152
sg31
VO
p5153
sg33
VIN
p5154
sg35
I23
ssg10
I511
sg36
g4
sg37
(dp5155
sg39
(dp5156
sg41
I2832
sg42
g21
sg43
g21
sg44
I511
sg45
Vby
p5157
sg47
I511
sg48
I2834
sbag0
(g23
g2
Ntp5158
Rp5159
(dp5160
g27
(dp5161
g29
Va
p5162
sg31
VO
p5163
sg33
VDT
p5164
sg35
I24
ssg10
I512
sg36
g4
sg37
(dp5165
sg39
(dp5166
sg41
I2835
sg42
g21
sg43
g21
sg44
I512
sg45
Va
p5167
sg47
I512
sg48
I2836
sbag0
(g23
g2
Ntp5168
Rp5169
(dp5170
g27
(dp5171
g29
Vweakening
p5172
sg31
VO
p5173
sg33
VNN
p5174
sg35
I25
ssg10
I513
sg36
g4
sg37
(dp5175
sg39
(dp5176
sg41
I2837
sg42
g21
sg43
g21
sg44
I513
sg45
Vweakening
p5177
sg47
I513
sg48
I2846
sbag0
(g23
g2
Ntp5178
Rp5179
(dp5180
g27
(dp5181
g29
Vof
p5182
sg31
VO
p5183
sg33
VIN
p5184
sg35
I26
ssg10
I514
sg36
g4
sg37
(dp5185
sg39
(dp5186
sg41
I2847
sg42
g21
sg43
g21
sg44
I514
sg45
Vof
p5187
sg47
I514
sg48
I2849
sbag0
(g23
g2
Ntp5188
Rp5189
(dp5190
g27
(dp5191
g29
Vthe
p5192
sg31
VO
p5193
sg33
VDT
p5194
sg35
I27
ssg10
I515
sg36
g4
sg37
(dp5195
sg39
(dp5196
sg41
I2850
sg42
g21
sg43
g21
sg44
I515
sg45
Vthe
p5197
sg47
I515
sg48
I2853
sbag0
(g23
g2
Ntp5198
Rp5199
(dp5200
g27
(dp5201
g29
Vimmune
p5202
sg31
VO
p5203
sg33
VJJ
p5204
sg35
I28
ssg10
I516
sg36
g4
sg37
(dp5205
sg39
(dp5206
sg41
I2854
sg42
g21
sg43
g21
sg44
I516
sg45
Vimmune
p5207
sg47
I516
sg48
I2860
sbag0
(g23
g2
Ntp5208
Rp5209
(dp5210
g27
(dp5211
g29
Vsystem
p5212
sg31
VO
p5213
sg33
VNN
p5214
sg35
I29
ssg10
I517
sg36
g4
sg37
(dp5215
sg39
(dp5216
sg41
I2861
sg42
g21
sg43
g21
sg44
I517
sg45
Vsystem
p5217
sg47
I517
sg48
I2867
sbag0
(g23
g2
Ntp5218
Rp5219
(dp5220
g27
(dp5221
g29
V.
p5222
sg31
VO
p5223
sg33
V.
p5224
sg35
I30
ssg10
I518
sg36
g4
sg37
(dp5225
sg39
(dp5226
sg41
I2867
sg42
g21
sg43
g21
sg44
I518
sg45
V.
p5227
sg47
I518
sg48
I2868
sbag0
(g23
g2
Ntp5228
Rp5229
(dp5230
g27
(dp5231
g29
Va
p5232
sg31
VO
p5233
sg33
VDT
p5234
sg35
I1
ssg10
I519
sg36
g4
sg37
(dp5235
sg39
(dp5236
sg41
I2869
sg42
g21
sg43
g21
sg44
I519
sg45
VA
p5237
sg47
I519
sg48
I2870
sbag0
(g23
g2
Ntp5238
Rp5239
(dp5240
g27
(dp5241
g29
Vreview
p5242
sg31
VO
p5243
sg33
VNN
p5244
sg35
I2
ssg10
I520
sg36
g4
sg37
(dp5245
sg39
(dp5246
sg41
I2871
sg42
g21
sg43
g21
sg44
I520
sg45
Vreview
p5247
sg47
I520
sg48
I2877
sbag0
(g23
g2
Ntp5248
Rp5249
(dp5250
g27
(dp5251
g29
Vin
p5252
sg31
VO
p5253
sg33
VIN
p5254
sg35
I3
ssg10
I521
sg36
g4
sg37
(dp5255
sg39
(dp5256
sg41
I2878
sg42
g21
sg43
g21
sg44
I521
sg45
Vin
p5257
sg47
I521
sg48
I2880
sbag0
(g23
g2
Ntp5258
Rp5259
(dp5260
g27
(dp5261
g29
VNature
p5262
sg31
VORGANIZATION
p5263
sg33
VNNP
p5264
sg35
I4
ssg10
I522
sg36
g4
sg37
(dp5265
sg39
(dp5266
sg41
I2881
sg42
g21
sg43
g21
sg44
I522
sg45
VNature
p5267
sg47
I522
sg48
I2887
sbag0
(g23
g2
Ntp5268
Rp5269
(dp5270
g27
(dp5271
g29
VReviews
p5272
sg31
VORGANIZATION
p5273
sg33
VNNP
p5274
sg35
I5
ssg10
I523
sg36
g4
sg37
(dp5275
sg39
(dp5276
sg41
I2888
sg42
g21
sg43
g21
sg44
I523
sg45
VReviews
p5277
sg47
I523
sg48
I2895
sbag0
(g23
g2
Ntp5278
Rp5279
(dp5280
g27
(dp5281
g29
VCardiology
p5282
sg31
VORGANIZATION
p5283
sg33
VNNP
p5284
sg35
I6
ssg10
I524
sg36
g4
sg37
(dp5285
sg39
(dp5286
sg41
I2896
sg42
g21
sg43
g21
sg44
I524
sg45
VCardiology
p5287
sg47
I524
sg48
I2906
sbag0
(g23
g2
Ntp5288
Rp5289
(dp5290
g27
(dp5291
g29
Vsuggest
p5292
sg31
VO
p5293
sg33
VVBZ
p5294
sg35
I7
ssg10
I525
sg36
g4
sg37
(dp5295
sg39
(dp5296
sg41
I2907
sg42
g21
sg43
g21
sg44
I525
sg45
Vsuggests
p5297
sg47
I525
sg48
I2915
sbag0
(g23
g2
Ntp5298
Rp5299
(dp5300
g27
(dp5301
g29
Vthat
p5302
sg31
VO
p5303
sg33
VIN
p5304
sg35
I8
ssg10
I526
sg36
g4
sg37
(dp5305
sg39
(dp5306
sg41
I2916
sg42
g21
sg43
g21
sg44
I526
sg45
Vthat
p5307
sg47
I526
sg48
I2920
sbag0
(g23
g2
Ntp5308
Rp5309
(dp5310
g27
(dp5311
g29
Vsince
p5312
sg31
VO
p5313
sg33
VIN
p5314
sg35
I9
ssg10
I527
sg36
g4
sg37
(dp5315
sg39
(dp5316
sg41
I2921
sg42
g21
sg43
g21
sg44
I527
sg45
Vsince
p5317
sg47
I527
sg48
I2926
sbag0
(g23
g2
Ntp5318
Rp5319
(dp5320
g27
(dp5321
g29
Villness
p5322
sg31
VO
p5323
sg33
VNN
p5324
sg35
I10
ssg10
I528
sg36
g4
sg37
(dp5325
sg39
(dp5326
sg41
I2927
sg42
g21
sg43
g21
sg44
I528
sg45
Villness
p5327
sg47
I528
sg48
I2934
sbag0
(g23
g2
Ntp5328
Rp5329
(dp5330
g27
(dp5331
g29
Vor
p5332
sg31
VO
p5333
sg33
VCC
p5334
sg35
I11
ssg10
I529
sg36
g4
sg37
(dp5335
sg39
(dp5336
sg41
I2935
sg42
g21
sg43
g21
sg44
I529
sg45
Vor
p5337
sg47
I529
sg48
I2937
sbag0
(g23
g2
Ntp5338
Rp5339
(dp5340
g27
(dp5341
g29
Vinjury
p5342
sg31
VO
p5343
sg33
VNN
p5344
sg35
I12
ssg10
I530
sg36
g4
sg37
(dp5345
sg39
(dp5346
sg41
I2938
sg42
g21
sg43
g21
sg44
I530
sg45
Vinjury
p5347
sg47
I530
sg48
I2944
sbag0
(g23
g2
Ntp5348
Rp5349
(dp5350
g27
(dp5351
g29
Vbe
p5352
sg31
VO
p5353
sg33
VVBP
p5354
sg35
I13
ssg10
I531
sg36
g4
sg37
(dp5355
sg39
(dp5356
sg41
I2945
sg42
g21
sg43
g21
sg44
I531
sg45
Vare
p5357
sg47
I531
sg48
I2948
sbag0
(g23
g2
Ntp5358
Rp5359
(dp5360
g27
(dp5361
g29
Vassociate
p5362
sg31
VO
p5363
sg33
VVBN
p5364
sg35
I14
ssg10
I532
sg36
g4
sg37
(dp5365
sg39
(dp5366
sg41
I2949
sg42
g21
sg43
g21
sg44
I532
sg45
Vassociated
p5367
sg47
I532
sg48
I2959
sbag0
(g23
g2
Ntp5368
Rp5369
(dp5370
g27
(dp5371
g29
Vwith
p5372
sg31
VO
p5373
sg33
VIN
p5374
sg35
I15
ssg10
I533
sg36
g4
sg37
(dp5375
sg39
(dp5376
sg41
I2960
sg42
g21
sg43
g21
sg44
I533
sg45
Vwith
p5377
sg47
I533
sg48
I2964
sbag0
(g23
g2
Ntp5378
Rp5379
(dp5380
g27
(dp5381
g29
Vprolonged
p5382
sg31
VO
p5383
sg33
VJJ
p5384
sg35
I16
ssg10
I534
sg36
g4
sg37
(dp5385
sg39
(dp5386
sg41
I2965
sg42
g21
sg43
g21
sg44
I534
sg45
Vprolonged
p5387
sg47
I534
sg48
I2974
sbag0
(g23
g2
Ntp5388
Rp5389
(dp5390
g27
(dp5391
g29
Vperiod
p5392
sg31
VO
p5393
sg33
VNNS
p5394
sg35
I17
ssg10
I535
sg36
g4
sg37
(dp5395
sg39
(dp5396
sg41
I2975
sg42
g21
sg43
g21
sg44
I535
sg45
Vperiods
p5397
sg47
I535
sg48
I2982
sbag0
(g23
g2
Ntp5398
Rp5399
(dp5400
g27
(dp5401
g29
Vof
p5402
sg31
VO
p5403
sg33
VIN
p5404
sg35
I18
ssg10
I536
sg36
g4
sg37
(dp5405
sg39
(dp5406
sg41
I2983
sg42
g21
sg43
g21
sg44
I536
sg45
Vof
p5407
sg47
I536
sg48
I2985
sbag0
(g23
g2
Ntp5408
Rp5409
(dp5410
g27
(dp5411
g29
Venforced
p5412
sg31
VO
p5413
sg33
VJJ
p5414
sg35
I19
ssg10
I537
sg36
g4
sg37
(dp5415
sg39
(dp5416
sg41
I2986
sg42
g21
sg43
g21
sg44
I537
sg45
Venforced
p5417
sg47
I537
sg48
I2994
sbag0
(g23
g2
Ntp5418
Rp5419
(dp5420
g27
(dp5421
g29
Vrest
p5422
sg31
VO
p5423
sg33
VNN
p5424
sg35
I20
ssg10
I538
sg36
g4
sg37
(dp5425
sg39
(dp5426
sg41
I2995
sg42
g21
sg43
g21
sg44
I538
sg45
Vrest
p5427
sg47
I538
sg48
I2999
sbag0
(g23
g2
Ntp5428
Rp5429
(dp5430
g27
(dp5431
g29
V,
p5432
sg31
VO
p5433
sg33
V,
p5434
sg35
I21
ssg10
I539
sg36
g4
sg37
(dp5435
sg39
(dp5436
sg41
I2999
sg42
g21
sg43
g21
sg44
I539
sg45
V,
p5437
sg47
I539
sg48
I3000
sbag0
(g23
g2
Ntp5438
Rp5439
(dp5440
g27
(dp5441
g29
Vsuch
p5442
sg31
VO
p5443
sg33
VJJ
p5444
sg35
I22
ssg10
I540
sg36
g4
sg37
(dp5445
sg39
(dp5446
sg41
I3001
sg42
g21
sg43
g21
sg44
I540
sg45
Vsuch
p5447
sg47
I540
sg48
I3005
sbag0
(g23
g2
Ntp5448
Rp5449
(dp5450
g27
(dp5451
g29
Vsedentariness
p5452
sg31
VO
p5453
sg33
VNN
p5454
sg35
I23
ssg10
I541
sg36
g4
sg37
(dp5455
sg39
(dp5456
sg41
I3006
sg42
g21
sg43
g21
sg44
I541
sg45
Vsedentariness
p5457
sg47
I541
sg48
I3019
sbag0
(g23
g2
Ntp5458
Rp5459
(dp5460
g27
(dp5461
g29
Vhave
p5462
sg31
VO
p5463
sg33
VVBZ
p5464
sg35
I24
ssg10
I542
sg36
g4
sg37
(dp5465
sg39
(dp5466
sg41
I3020
sg42
g21
sg43
g21
sg44
I542
sg45
Vhas
p5467
sg47
I542
sg48
I3023
sbag0
(g23
g2
Ntp5468
Rp5469
(dp5470
g27
(dp5471
g29
Vphysiologically
p5472
sg31
VO
p5473
sg33
VRB
p5474
sg35
I25
ssg10
I543
sg36
g4
sg37
(dp5475
sg39
(dp5476
sg41
I3024
sg42
g21
sg43
g21
sg44
I543
sg45
Vphysiologically
p5477
sg47
I543
sg48
I3039
sbag0
(g23
g2
Ntp5478
Rp5479
(dp5480
g27
(dp5481
g29
Vbecome
p5482
sg31
VO
p5483
sg33
VVBN
p5484
sg35
I26
ssg10
I544
sg36
g4
sg37
(dp5485
sg39
(dp5486
sg41
I3040
sg42
g21
sg43
g21
sg44
I544
sg45
Vbecome
p5487
sg47
I544
sg48
I3046
sbag0
(g23
g2
Ntp5488
Rp5489
(dp5490
g27
(dp5491
g29
Vlink
p5492
sg31
VO
p5493
sg33
VVBN
p5494
sg35
I27
ssg10
I545
sg36
g4
sg37
(dp5495
sg39
(dp5496
sg41
I3047
sg42
g21
sg43
g21
sg44
I545
sg45
Vlinked
p5497
sg47
I545
sg48
I3053
sbag0
(g23
g2
Ntp5498
Rp5499
(dp5500
g27
(dp5501
g29
Vto
p5502
sg31
VO
p5503
sg33
VTO
p5504
sg35
I28
ssg10
I546
sg36
g4
sg37
(dp5505
sg39
(dp5506
sg41
I3054
sg42
g21
sg43
g21
sg44
I546
sg45
Vto
p5507
sg47
I546
sg48
I3056
sbag0
(g23
g2
Ntp5508
Rp5509
(dp5510
g27
(dp5511
g29
Vlife-preserving
p5512
sg31
VO
p5513
sg33
VJJ
p5514
sg35
I29
ssg10
I547
sg36
g4
sg37
(dp5515
sg39
(dp5516
sg41
I3057
sg42
g21
sg43
g21
sg44
I547
sg45
Vlife-preserving
p5517
sg47
I547
sg48
I3072
sbag0
(g23
g2
Ntp5518
Rp5519
(dp5520
g27
(dp5521
g29
Vmetabolic
p5522
sg31
VO
p5523
sg33
VJJ
p5524
sg35
I30
ssg10
I548
sg36
g4
sg37
(dp5525
sg39
(dp5526
sg41
I3073
sg42
g21
sg43
g21
sg44
I548
sg45
Vmetabolic
p5527
sg47
I548
sg48
I3082
sbag0
(g23
g2
Ntp5528
Rp5529
(dp5530
g27
(dp5531
g29
Vand
p5532
sg31
VO
p5533
sg33
VCC
p5534
sg35
I31
ssg10
I549
sg36
g4
sg37
(dp5535
sg39
(dp5536
sg41
I3083
sg42
g21
sg43
g21
sg44
I549
sg45
Vand
p5537
sg47
I549
sg48
I3086
sbag0
(g23
g2
Ntp5538
Rp5539
(dp5540
g27
(dp5541
g29
Vstress
p5542
sg31
VO
p5543
sg33
VNN
p5544
sg35
I32
ssg10
I550
sg36
g4
sg37
(dp5545
sg39
(dp5546
sg41
I3087
sg42
g21
sg43
g21
sg44
I550
sg45
Vstress
p5547
sg47
I550
sg48
I3093
sbag0
(g23
g2
Ntp5548
Rp5549
(dp5550
g27
(dp5551
g29
Vrelated
p5552
sg31
VO
p5553
sg33
VJJ
p5554
sg35
I33
ssg10
I551
sg36
g4
sg37
(dp5555
sg39
(dp5556
sg41
I3094
sg42
g21
sg43
g21
sg44
I551
sg45
Vrelated
p5557
sg47
I551
sg48
I3101
sbag0
(g23
g2
Ntp5558
Rp5559
(dp5560
g27
(dp5561
g29
Vresponse
p5562
sg31
VO
p5563
sg33
VNNS
p5564
sg35
I34
ssg10
I552
sg36
g4
sg37
(dp5565
sg39
(dp5566
sg41
I3102
sg42
g21
sg43
g21
sg44
I552
sg45
Vresponses
p5567
sg47
I552
sg48
I3111
sbag0
(g23
g2
Ntp5568
Rp5569
(dp5570
g27
(dp5571
g29
Vsuch
p5572
sg31
VO
p5573
sg33
VJJ
p5574
sg35
I35
ssg10
I553
sg36
g4
sg37
(dp5575
sg39
(dp5576
sg41
I3112
sg42
g21
sg43
g21
sg44
I553
sg45
Vsuch
p5577
sg47
I553
sg48
I3116
sbag0
(g23
g2
Ntp5578
Rp5579
(dp5580
g27
(dp5581
g29
Vas
p5582
sg31
VO
p5583
sg33
VIN
p5584
sg35
I36
ssg10
I554
sg36
g4
sg37
(dp5585
sg39
(dp5586
sg41
I3117
sg42
g21
sg43
g21
sg44
I554
sg45
Vas
p5587
sg47
I554
sg48
I3119
sbag0
(g23
g2
Ntp5588
Rp5589
(dp5590
g27
(dp5591
g29
Vinflammation
p5592
sg31
VO
p5593
sg33
VNN
p5594
sg35
I37
ssg10
I555
sg36
g4
sg37
(dp5595
sg39
(dp5596
sg41
I3120
sg42
g21
sg43
g21
sg44
I555
sg45
Vinflammation
p5597
sg47
I555
sg48
I3132
sbag0
(g23
g2
Ntp5598
Rp5599
(dp5600
g27
(dp5601
g29
Vthat
p5602
sg31
VO
p5603
sg33
VIN
p5604
sg35
I38
ssg10
I556
sg36
g4
sg37
(dp5605
sg39
(dp5606
sg41
I3133
sg42
g21
sg43
g21
sg44
I556
sg45
Vthat
p5607
sg47
I556
sg48
I3137
sbag0
(g23
g2
Ntp5608
Rp5609
(dp5610
g27
(dp5611
g29
Vaid
p5612
sg31
VO
p5613
sg33
VNN
p5614
sg35
I39
ssg10
I557
sg36
g4
sg37
(dp5615
sg39
(dp5616
sg41
I3138
sg42
g21
sg43
g21
sg44
I557
sg45
Vaid
p5617
sg47
I557
sg48
I3141
sbag0
(g23
g2
Ntp5618
Rp5619
(dp5620
g27
(dp5621
g29
Vrecovery
p5622
sg31
VO
p5623
sg33
VNN
p5624
sg35
I40
ssg10
I558
sg36
g4
sg37
(dp5625
sg39
(dp5626
sg41
I3142
sg42
g21
sg43
g21
sg44
I558
sg45
Vrecovery
p5627
sg47
I558
sg48
I3150
sbag0
(g23
g2
Ntp5628
Rp5629
(dp5630
g27
(dp5631
g29
Vduring
p5632
sg31
VO
p5633
sg33
VIN
p5634
sg35
I41
ssg10
I559
sg36
g4
sg37
(dp5635
sg39
(dp5636
sg41
I3151
sg42
g21
sg43
g21
sg44
I559
sg45
Vduring
p5637
sg47
I559
sg48
I3157
sbag0
(g23
g2
Ntp5638
Rp5639
(dp5640
g27
(dp5641
g29
Villness
p5642
sg31
VO
p5643
sg33
VNN
p5644
sg35
I42
ssg10
I560
sg36
g4
sg37
(dp5645
sg39
(dp5646
sg41
I3158
sg42
g21
sg43
g21
sg44
I560
sg45
Villness
p5647
sg47
I560
sg48
I3165
sbag0
(g23
g2
Ntp5648
Rp5649
(dp5650
g27
(dp5651
g29
Vand
p5652
sg31
VO
p5653
sg33
VCC
p5654
sg35
I43
ssg10
I561
sg36
g4
sg37
(dp5655
sg39
(dp5656
sg41
I3166
sg42
g21
sg43
g21
sg44
I561
sg45
Vand
p5657
sg47
I561
sg48
I3169
sbag0
(g23
g2
Ntp5658
Rp5659
(dp5660
g27
(dp5661
g29
Vinjury
p5662
sg31
VO
p5663
sg33
VNN
p5664
sg35
I44
ssg10
I562
sg36
g4
sg37
(dp5665
sg39
(dp5666
sg41
I3170
sg42
g21
sg43
g21
sg44
I562
sg45
Vinjury
p5667
sg47
I562
sg48
I3176
sbag0
(g23
g2
Ntp5668
Rp5669
(dp5670
g27
(dp5671
g29
Vbut
p5672
sg31
VO
p5673
sg33
VCC
p5674
sg35
I45
ssg10
I563
sg36
g4
sg37
(dp5675
sg39
(dp5676
sg41
I3177
sg42
g21
sg43
g21
sg44
I563
sg45
Vbut
p5677
sg47
I563
sg48
I3180
sbag0
(g23
g2
Ntp5678
Rp5679
(dp5680
g27
(dp5681
g29
Vwhich
p5682
sg31
VO
p5683
sg33
VWDT
p5684
sg35
I46
ssg10
I564
sg36
g4
sg37
(dp5685
sg39
(dp5686
sg41
I3181
sg42
g21
sg43
g21
sg44
I564
sg45
Vwhich
p5687
sg47
I564
sg48
I3186
sbag0
(g23
g2
Ntp5688
Rp5689
(dp5690
g27
(dp5691
g29
Vdue
p5692
sg31
VO
p5693
sg33
VJJ
p5694
sg35
I47
ssg10
I565
sg36
g4
sg37
(dp5695
sg39
(dp5696
sg41
I3187
sg42
g21
sg43
g21
sg44
I565
sg45
Vdue
p5697
sg47
I565
sg48
I3190
sbag0
(g23
g2
Ntp5698
Rp5699
(dp5700
g27
(dp5701
g29
Vto
p5702
sg31
VO
p5703
sg33
VTO
p5704
sg35
I48
ssg10
I566
sg36
g4
sg37
(dp5705
sg39
(dp5706
sg41
I3191
sg42
g21
sg43
g21
sg44
I566
sg45
Vto
p5707
sg47
I566
sg48
I3193
sbag0
(g23
g2
Ntp5708
Rp5709
(dp5710
g27
(dp5711
g29
Vbe
p5712
sg31
VO
p5713
sg33
VVBG
p5714
sg35
I49
ssg10
I567
sg36
g4
sg37
(dp5715
sg39
(dp5716
sg41
I3194
sg42
g21
sg43
g21
sg44
I567
sg45
Vbeing
p5717
sg47
I567
sg48
I3199
sbag0
(g23
g2
Ntp5718
Rp5719
(dp5720
g27
(dp5721
g29
Vnonadaptive
p5722
sg31
VO
p5723
sg33
VJJ
p5724
sg35
I50
ssg10
I568
sg36
g4
sg37
(dp5725
sg39
(dp5726
sg41
I3200
sg42
g21
sg43
g21
sg44
I568
sg45
Vnonadaptive
p5727
sg47
I568
sg48
I3211
sbag0
(g23
g2
Ntp5728
Rp5729
(dp5730
g27
(dp5731
g29
Vduring
p5732
sg31
VO
p5733
sg33
VIN
p5734
sg35
I51
ssg10
I569
sg36
g4
sg37
(dp5735
sg39
(dp5736
sg41
I3212
sg42
g21
sg43
g21
sg44
I569
sg45
Vduring
p5737
sg47
I569
sg48
I3218
sbag0
(g23
g2
Ntp5738
Rp5739
(dp5740
g27
(dp5741
g29
Vhealth
p5742
sg31
VO
p5743
sg33
VNN
p5744
sg35
I52
ssg10
I570
sg36
g4
sg37
(dp5745
sg39
(dp5746
sg41
I3219
sg42
g21
sg43
g21
sg44
I570
sg45
Vhealth
p5747
sg47
I570
sg48
I3225
sbag0
(g23
g2
Ntp5748
Rp5749
(dp5750
g27
(dp5751
g29
Vnow
p5752
sg31
VDATE
p5753
sg33
VRB
p5754
sg35
I53
ssg10
I571
sg36
g4
sg37
(dp5755
sg39
(dp5756
sg41
I3226
sg42
g21
sg43
g21
sg44
I571
sg45
Vnow
p5757
sg47
I571
sg48
I3229
sbag0
(g23
g2
Ntp5758
Rp5759
(dp5760
g27
(dp5761
g29
Vlead
p5762
sg31
VO
p5763
sg33
VVBP
p5764
sg35
I54
ssg10
I572
sg36
g4
sg37
(dp5765
sg39
(dp5766
sg41
I3230
sg42
g21
sg43
g21
sg44
I572
sg45
Vlead
p5767
sg47
I572
sg48
I3234
sbag0
(g23
g2
Ntp5768
Rp5769
(dp5770
g27
(dp5771
g29
Vto
p5772
sg31
VO
p5773
sg33
VTO
p5774
sg35
I55
ssg10
I573
sg36
g4
sg37
(dp5775
sg39
(dp5776
sg41
I3235
sg42
g21
sg43
g21
sg44
I573
sg45
Vto
p5777
sg47
I573
sg48
I3237
sbag0
(g23
g2
Ntp5778
Rp5779
(dp5780
g27
(dp5781
g29
Vchronic
p5782
sg31
VO
p5783
sg33
VJJ
p5784
sg35
I56
ssg10
I574
sg36
g4
sg37
(dp5785
sg39
(dp5786
sg41
I3238
sg42
g21
sg43
g21
sg44
I574
sg45
Vchronic
p5787
sg47
I574
sg48
I3245
sbag0
(g23
g2
Ntp5788
Rp5789
(dp5790
g27
(dp5791
g29
Vdisease
p5792
sg31
VO
p5793
sg33
VNNS
p5794
sg35
I57
ssg10
I575
sg36
g4
sg37
(dp5795
sg39
(dp5796
sg41
I3246
sg42
g21
sg43
g21
sg44
I575
sg45
Vdiseases
p5797
sg47
I575
sg48
I3254
sbag0
(g23
g2
Ntp5798
Rp5799
(dp5800
g27
(dp5801
g29
V-lsb-
p5802
sg31
VO
p5803
sg33
V-LRB-
p5804
sg35
I58
ssg10
I576
sg36
g4
sg37
(dp5805
sg39
(dp5806
sg41
I3255
sg42
g21
sg43
g21
sg44
I576
sg45
V[
p5807
sg47
I576
sg48
I3256
sbag0
(g23
g2
Ntp5808
Rp5809
(dp5810
g27
(dp5811
g29
Vref
p5812
sg31
VO
p5813
sg33
VNN
p5814
sg35
I59
ssg10
I577
sg36
g4
sg37
(dp5815
sg39
(dp5816
sg41
I3256
sg42
g21
sg43
g21
sg44
I577
sg45
VREF
p5817
sg47
I577
sg48
I3259
sbag0
(g23
g2
Ntp5818
Rp5819
(dp5820
g27
(dp5821
g29
V-rsb-
p5822
sg31
VO
p5823
sg33
V-RRB-
p5824
sg35
I60
ssg10
I578
sg36
g4
sg37
(dp5825
sg39
(dp5826
sg41
I3259
sg42
g21
sg43
g21
sg44
I578
sg45
V]
p5827
sg47
I578
sg48
I3260
sbag0
(g23
g2
Ntp5828
Rp5829
(dp5830
g27
(dp5831
g29
V.
p5832
sg31
VO
p5833
sg33
V.
p5834
sg35
I61
ssg10
I579
sg36
g4
sg37
(dp5835
sg39
(dp5836
sg41
I3260
sg42
g21
sg43
g21
sg44
I579
sg45
V.
p5837
sg47
I579
sg48
I3261
sbag0
(g23
g2
Ntp5838
Rp5839
(dp5840
g27
(dp5841
g29
Vdespite
p5842
sg31
VO
p5843
sg33
VIN
p5844
sg35
I1
ssg10
I580
sg36
g4
sg37
(dp5845
sg39
(dp5846
sg41
I3264
sg42
g21
sg43
g21
sg44
I580
sg45
VDespite
p5847
sg47
I580
sg48
I3271
sbag0
(g23
g2
Ntp5848
Rp5849
(dp5850
g27
(dp5851
g29
Vthe
p5852
sg31
VO
p5853
sg33
VDT
p5854
sg35
I2
ssg10
I581
sg36
g4
sg37
(dp5855
sg39
(dp5856
sg41
I3272
sg42
g21
sg43
g21
sg44
I581
sg45
Vthe
p5857
sg47
I581
sg48
I3275
sbag0
(g23
g2
Ntp5858
Rp5859
(dp5860
g27
(dp5861
g29
Vwell-known
p5862
sg31
VO
p5863
sg33
VJJ
p5864
sg35
I3
ssg10
I582
sg36
g4
sg37
(dp5865
sg39
(dp5866
sg41
I3276
sg42
g21
sg43
g21
sg44
I582
sg45
Vwell-known
p5867
sg47
I582
sg48
I3286
sbag0
(g23
g2
Ntp5868
Rp5869
(dp5870
g27
(dp5871
g29
Vbenefit
p5872
sg31
VO
p5873
sg33
VNNS
p5874
sg35
I4
ssg10
I583
sg36
g4
sg37
(dp5875
sg39
(dp5876
sg41
I3287
sg42
g21
sg43
g21
sg44
I583
sg45
Vbenefits
p5877
sg47
I583
sg48
I3295
sbag0
(g23
g2
Ntp5878
Rp5879
(dp5880
g27
(dp5881
g29
Vof
p5882
sg31
VO
p5883
sg33
VIN
p5884
sg35
I5
ssg10
I584
sg36
g4
sg37
(dp5885
sg39
(dp5886
sg41
I3296
sg42
g21
sg43
g21
sg44
I584
sg45
Vof
p5887
sg47
I584
sg48
I3298
sbag0
(g23
g2
Ntp5888
Rp5889
(dp5890
g27
(dp5891
g29
Vphysical
p5892
sg31
VO
p5893
sg33
VJJ
p5894
sg35
I6
ssg10
I585
sg36
g4
sg37
(dp5895
sg39
(dp5896
sg41
I3299
sg42
g21
sg43
g21
sg44
I585
sg45
Vphysical
p5897
sg47
I585
sg48
I3307
sbag0
(g23
g2
Ntp5898
Rp5899
(dp5900
g27
(dp5901
g29
Vactivity
p5902
sg31
VO
p5903
sg33
VNN
p5904
sg35
I7
ssg10
I586
sg36
g4
sg37
(dp5905
sg39
(dp5906
sg41
I3308
sg42
g21
sg43
g21
sg44
I586
sg45
Vactivity
p5907
sg47
I586
sg48
I3316
sbag0
(g23
g2
Ntp5908
Rp5909
(dp5910
g27
(dp5911
g29
V,
p5912
sg31
VO
p5913
sg33
V,
p5914
sg35
I8
ssg10
I587
sg36
g4
sg37
(dp5915
sg39
(dp5916
sg41
I3316
sg42
g21
sg43
g21
sg44
I587
sg45
V,
p5917
sg47
I587
sg48
I3317
sbag0
(g23
g2
Ntp5918
Rp5919
(dp5920
g27
(dp5921
g29
Vmany
p5922
sg31
VO
p5923
sg33
VJJ
p5924
sg35
I9
ssg10
I588
sg36
g4
sg37
(dp5925
sg39
(dp5926
sg41
I3318
sg42
g21
sg43
g21
sg44
I588
sg45
Vmany
p5927
sg47
I588
sg48
I3322
sbag0
(g23
g2
Ntp5928
Rp5929
(dp5930
g27
(dp5931
g29
Vadult
p5932
sg31
VO
p5933
sg33
VNNS
p5934
sg35
I10
ssg10
I589
sg36
g4
sg37
(dp5935
sg39
(dp5936
sg41
I3323
sg42
g21
sg43
g21
sg44
I589
sg45
Vadults
p5937
sg47
I589
sg48
I3329
sbag0
(g23
g2
Ntp5938
Rp5939
(dp5940
g27
(dp5941
g29
Vand
p5942
sg31
VO
p5943
sg33
VCC
p5944
sg35
I11
ssg10
I590
sg36
g4
sg37
(dp5945
sg39
(dp5946
sg41
I3330
sg42
g21
sg43
g21
sg44
I590
sg45
Vand
p5947
sg47
I590
sg48
I3333
sbag0
(g23
g2
Ntp5948
Rp5949
(dp5950
g27
(dp5951
g29
Vmany
p5952
sg31
VO
p5953
sg33
VJJ
p5954
sg35
I12
ssg10
I591
sg36
g4
sg37
(dp5955
sg39
(dp5956
sg41
I3334
sg42
g21
sg43
g21
sg44
I591
sg45
Vmany
p5957
sg47
I591
sg48
I3338
sbag0
(g23
g2
Ntp5958
Rp5959
(dp5960
g27
(dp5961
g29
Vchild
p5962
sg31
VO
p5963
sg33
VNNS
p5964
sg35
I13
ssg10
I592
sg36
g4
sg37
(dp5965
sg39
(dp5966
sg41
I3339
sg42
g21
sg43
g21
sg44
I592
sg45
Vchildren
p5967
sg47
I592
sg48
I3347
sbag0
(g23
g2
Ntp5968
Rp5969
(dp5970
g27
(dp5971
g29
Vlead
p5972
sg31
VO
p5973
sg33
VVBP
p5974
sg35
I14
ssg10
I593
sg36
g4
sg37
(dp5975
sg39
(dp5976
sg41
I3348
sg42
g21
sg43
g21
sg44
I593
sg45
Vlead
p5977
sg47
I593
sg48
I3352
sbag0
(g23
g2
Ntp5978
Rp5979
(dp5980
g27
(dp5981
g29
Va
p5982
sg31
VO
p5983
sg33
VDT
p5984
sg35
I15
ssg10
I594
sg36
g4
sg37
(dp5985
sg39
(dp5986
sg41
I3350
sg42
g21
sg43
g21
sg44
I594
sg45
Va
p5987
sg47
I594
sg48
I3351
sbag0
(g23
g2
Ntp5988
Rp5989
(dp5990
g27
(dp5991
g29
Vrelatively
p5992
sg31
VO
p5993
sg33
VRB
p5994
sg35
I16
ssg10
I595
sg36
g4
sg37
(dp5995
sg39
(dp5996
sg41
I3355
sg42
g21
sg43
g21
sg44
I595
sg45
Vrelatively
p5997
sg47
I595
sg48
I3365
sbag0
(g23
g2
Ntp5998
Rp5999
(dp6000
g27
(dp6001
g29
Vsedentary
p6002
sg31
VO
p6003
sg33
VJJ
p6004
sg35
I17
ssg10
I596
sg36
g4
sg37
(dp6005
sg39
(dp6006
sg41
I3366
sg42
g21
sg43
g21
sg44
I596
sg45
Vsedentary
p6007
sg47
I596
sg48
I3375
sbag0
(g23
g2
Ntp6008
Rp6009
(dp6010
g27
(dp6011
g29
Vlifestyle
p6012
sg31
VO
p6013
sg33
VNN
p6014
sg35
I18
ssg10
I597
sg36
g4
sg37
(dp6015
sg39
(dp6016
sg41
I3376
sg42
g21
sg43
g21
sg44
I597
sg45
Vlifestyle
p6017
sg47
I597
sg48
I3385
sbag0
(g23
g2
Ntp6018
Rp6019
(dp6020
g27
(dp6021
g29
V-lsb-
p6022
sg31
VO
p6023
sg33
V-LRB-
p6024
sg35
I19
ssg10
I598
sg36
g4
sg37
(dp6025
sg39
(dp6026
sg41
I3385
sg42
g21
sg43
g21
sg44
I598
sg45
V[
p6027
sg47
I598
sg48
I3386
sbag0
(g23
g2
Ntp6028
Rp6029
(dp6030
g27
(dp6031
g29
Vref
p6032
sg31
VO
p6033
sg33
VNN
p6034
sg35
I20
ssg10
I599
sg36
g4
sg37
(dp6035
sg39
(dp6036
sg41
I3386
sg42
g21
sg43
g21
sg44
I599
sg45
VREF
p6037
sg47
I599
sg48
I3389
sbag0
(g23
g2
Ntp6038
Rp6039
(dp6040
g27
(dp6041
g29
V-rsb-
p6042
sg31
VO
p6043
sg33
V-RRB-
p6044
sg35
I21
ssg10
I600
sg36
g4
sg37
(dp6045
sg39
(dp6046
sg41
I3389
sg42
g21
sg43
g21
sg44
I600
sg45
V]
p6047
sg47
I600
sg48
I3390
sbag0
(g23
g2
Ntp6048
Rp6049
(dp6050
g27
(dp6051
g29
V-lsb-
p6052
sg31
VO
p6053
sg33
V-LRB-
p6054
sg35
I22
ssg10
I601
sg36
g4
sg37
(dp6055
sg39
(dp6056
sg41
I3390
sg42
g21
sg43
g21
sg44
I601
sg45
V[
p6057
sg47
I601
sg48
I3391
sbag0
(g23
g2
Ntp6058
Rp6059
(dp6060
g27
(dp6061
g29
Vref
p6062
sg31
VO
p6063
sg33
VNN
p6064
sg35
I23
ssg10
I602
sg36
g4
sg37
(dp6065
sg39
(dp6066
sg41
I3391
sg42
g21
sg43
g21
sg44
I602
sg45
VREF
p6067
sg47
I602
sg48
I3394
sbag0
(g23
g2
Ntp6068
Rp6069
(dp6070
g27
(dp6071
g29
V-rsb-
p6072
sg31
VO
p6073
sg33
V-RRB-
p6074
sg35
I24
ssg10
I603
sg36
g4
sg37
(dp6075
sg39
(dp6076
sg41
I3394
sg42
g21
sg43
g21
sg44
I603
sg45
V]
p6077
sg47
I603
sg48
I3395
sbag0
(g23
g2
Ntp6078
Rp6079
(dp6080
g27
(dp6081
g29
Vand
p6082
sg31
VO
p6083
sg33
VCC
p6084
sg35
I25
ssg10
I604
sg36
g4
sg37
(dp6085
sg39
(dp6086
sg41
I3396
sg42
g21
sg43
g21
sg44
I604
sg45
Vand
p6087
sg47
I604
sg48
I3399
sbag0
(g23
g2
Ntp6088
Rp6089
(dp6090
g27
(dp6091
g29
Vbe
p6092
sg31
VO
p6093
sg33
VVBP
p6094
sg35
I26
ssg10
I605
sg36
g4
sg37
(dp6095
sg39
(dp6096
sg41
I3400
sg42
g21
sg43
g21
sg44
I605
sg45
Vare
p6097
sg47
I605
sg48
I3403
sbag0
(g23
g2
Ntp6098
Rp6099
(dp6100
g27
(dp6101
g29
Vnot
p6102
sg31
VO
p6103
sg33
VRB
p6104
sg35
I27
ssg10
I606
sg36
g4
sg37
(dp6105
sg39
(dp6106
sg41
I3404
sg42
g21
sg43
g21
sg44
I606
sg45
Vnot
p6107
sg47
I606
sg48
I3407
sbag0
(g23
g2
Ntp6108
Rp6109
(dp6110
g27
(dp6111
g29
Vactive
p6112
sg31
VO
p6113
sg33
VJJ
p6114
sg35
I28
ssg10
I607
sg36
g4
sg37
(dp6115
sg39
(dp6116
sg41
I3408
sg42
g21
sg43
g21
sg44
I607
sg45
Vactive
p6117
sg47
I607
sg48
I3414
sbag0
(g23
g2
Ntp6118
Rp6119
(dp6120
g27
(dp6121
g29
Venough
p6122
sg31
VO
p6123
sg33
VJJ
p6124
sg35
I29
ssg10
I608
sg36
g4
sg37
(dp6125
sg39
(dp6126
sg41
I3415
sg42
g21
sg43
g21
sg44
I608
sg45
Venough
p6127
sg47
I608
sg48
I3421
sbag0
(g23
g2
Ntp6128
Rp6129
(dp6130
g27
(dp6131
g29
Vto
p6132
sg31
VO
p6133
sg33
VTO
p6134
sg35
I30
ssg10
I609
sg36
g4
sg37
(dp6135
sg39
(dp6136
sg41
I3422
sg42
g21
sg43
g21
sg44
I609
sg45
Vto
p6137
sg47
I609
sg48
I3424
sbag0
(g23
g2
Ntp6138
Rp6139
(dp6140
g27
(dp6141
g29
Vachieve
p6142
sg31
VO
p6143
sg33
VVB
p6144
sg35
I31
ssg10
I610
sg36
g4
sg37
(dp6145
sg39
(dp6146
sg41
I3425
sg42
g21
sg43
g21
sg44
I610
sg45
Vachieve
p6147
sg47
I610
sg48
I3432
sbag0
(g23
g2
Ntp6148
Rp6149
(dp6150
g27
(dp6151
g29
Vthese
p6152
sg31
VO
p6153
sg33
VDT
p6154
sg35
I32
ssg10
I611
sg36
g4
sg37
(dp6155
sg39
(dp6156
sg41
I3433
sg42
g21
sg43
g21
sg44
I611
sg45
Vthese
p6157
sg47
I611
sg48
I3438
sbag0
(g23
g2
Ntp6158
Rp6159
(dp6160
g27
(dp6161
g29
Vhealth
p6162
sg31
VO
p6163
sg33
VNN
p6164
sg35
I33
ssg10
I612
sg36
g4
sg37
(dp6165
sg39
(dp6166
sg41
I3439
sg42
g21
sg43
g21
sg44
I612
sg45
Vhealth
p6167
sg47
I612
sg48
I3445
sbag0
(g23
g2
Ntp6168
Rp6169
(dp6170
g27
(dp6171
g29
Vbenefit
p6172
sg31
VO
p6173
sg33
VNNS
p6174
sg35
I34
ssg10
I613
sg36
g4
sg37
(dp6175
sg39
(dp6176
sg41
I3446
sg42
g21
sg43
g21
sg44
I613
sg45
Vbenefits
p6177
sg47
I613
sg48
I3454
sbag0
(g23
g2
Ntp6178
Rp6179
(dp6180
g27
(dp6181
g29
V.
p6182
sg31
VO
p6183
sg33
V.
p6184
sg35
I35
ssg10
I614
sg36
g4
sg37
(dp6185
sg39
(dp6186
sg41
I3454
sg42
g21
sg43
g21
sg44
I614
sg45
V.
p6187
sg47
I614
sg48
I3455
sbag0
(g23
g2
Ntp6188
Rp6189
(dp6190
g27
(dp6191
g29
Vin
p6192
sg31
VO
p6193
sg33
VIN
p6194
sg35
I1
ssg10
I615
sg36
g4
sg37
(dp6195
sg39
(dp6196
sg41
I3458
sg42
g21
sg43
g21
sg44
I615
sg45
VIn
p6197
sg47
I615
sg48
I3460
sbag0
(g23
g2
Ntp6198
Rp6199
(dp6200
g27
(dp6201
g29
Vthe
p6202
sg31
VO
p6203
sg33
VDT
p6204
sg35
I2
ssg10
I616
sg36
g4
sg37
(dp6205
sg39
(dp6206
sg41
I3461
sg42
g21
sg43
g21
sg44
I616
sg45
Vthe
p6207
sg47
I616
sg48
I3464
sbag0
(g23
g2
Ntp6208
Rp6209
(dp6210
g27
(dp6211
g29
V2008
p6212
sg31
VDATE
p6213
sg33
VCD
p6214
sg35
I3
ssg10
I617
sg36
g4
sg37
(dp6215
sg39
(dp6216
sg41
I3465
sg42
g21
sg43
g21
sg44
I617
sg45
V2008
p6217
sg47
I617
sg48
I3469
sbag0
(g23
g2
Ntp6218
Rp6219
(dp6220
g27
(dp6221
g29
VUnited
p6222
sg31
VORGANIZATION
p6223
sg33
VNNP
p6224
sg35
I4
ssg10
I618
sg36
g4
sg37
(dp6225
sg39
(dp6226
sg41
I3470
sg42
g21
sg43
g21
sg44
I618
sg45
VUnited
p6227
sg47
I618
sg48
I3476
sbag0
(g23
g2
Ntp6228
Rp6229
(dp6230
g27
(dp6231
g29
VStates
p6232
sg31
VORGANIZATION
p6233
sg33
VNNPS
p6234
sg35
I5
ssg10
I619
sg36
g4
sg37
(dp6235
sg39
(dp6236
sg41
I3477
sg42
g21
sg43
g21
sg44
I619
sg45
VStates
p6237
sg47
I619
sg48
I3483
sbag0
(g23
g2
Ntp6238
Rp6239
(dp6240
g27
(dp6241
g29
VAmerican
p6242
sg31
VORGANIZATION
p6243
sg33
VNNP
p6244
sg35
I6
ssg10
I620
sg36
g4
sg37
(dp6245
sg39
(dp6246
sg41
I3484
sg42
g21
sg43
g21
sg44
I620
sg45
VAmerican
p6247
sg47
I620
sg48
I3492
sbag0
(g23
g2
Ntp6248
Rp6249
(dp6250
g27
(dp6251
g29
VNational
p6252
sg31
VORGANIZATION
p6253
sg33
VNNP
p6254
sg35
I7
ssg10
I621
sg36
g4
sg37
(dp6255
sg39
(dp6256
sg41
I3493
sg42
g21
sg43
g21
sg44
I621
sg45
VNational
p6257
sg47
I621
sg48
I3501
sbag0
(g23
g2
Ntp6258
Rp6259
(dp6260
g27
(dp6261
g29
VHealth
p6262
sg31
VORGANIZATION
p6263
sg33
VNNP
p6264
sg35
I8
ssg10
I622
sg36
g4
sg37
(dp6265
sg39
(dp6266
sg41
I3502
sg42
g21
sg43
g21
sg44
I622
sg45
VHealth
p6267
sg47
I622
sg48
I3508
sbag0
(g23
g2
Ntp6268
Rp6269
(dp6270
g27
(dp6271
g29
VInterview
p6272
sg31
VORGANIZATION
p6273
sg33
VNNP
p6274
sg35
I9
ssg10
I623
sg36
g4
sg37
(dp6275
sg39
(dp6276
sg41
I3509
sg42
g21
sg43
g21
sg44
I623
sg45
VInterview
p6277
sg47
I623
sg48
I3518
sbag0
(g23
g2
Ntp6278
Rp6279
(dp6280
g27
(dp6281
g29
Vsurvey
p6282
sg31
VORGANIZATION
p6283
sg33
VNN
p6284
sg35
I10
ssg10
I624
sg36
g4
sg37
(dp6285
sg39
(dp6286
sg41
I3519
sg42
g21
sg43
g21
sg44
I624
sg45
VSurvey
p6287
sg47
I624
sg48
I3525
sbag0
(g23
g2
Ntp6288
Rp6289
(dp6290
g27
(dp6291
g29
V-lrb-
p6292
sg31
VO
p6293
sg33
V-LRB-
p6294
sg35
I11
ssg10
I625
sg36
g4
sg37
(dp6295
sg39
(dp6296
sg41
I3526
sg42
g21
sg43
g21
sg44
I625
sg45
V(
p6297
sg47
I625
sg48
I3527
sbag0
(g23
g2
Ntp6298
Rp6299
(dp6300
g27
(dp6301
g29
Vnhis
p6302
sg31
VORGANIZATION
p6303
sg33
VNN
p6304
sg35
I12
ssg10
I626
sg36
g4
sg37
(dp6305
sg39
(dp6306
sg41
I3527
sg42
g21
sg43
g21
sg44
I626
sg45
VNHIS
p6307
sg47
I626
sg48
I3531
sbag0
(g23
g2
Ntp6308
Rp6309
(dp6310
g27
(dp6311
g29
V-rrb-
p6312
sg31
VO
p6313
sg33
V-RRB-
p6314
sg35
I13
ssg10
I627
sg36
g4
sg37
(dp6315
sg39
(dp6316
sg41
I3531
sg42
g21
sg43
g21
sg44
I627
sg45
V)
p6317
sg47
I627
sg48
I3532
sbag0
(g23
g2
Ntp6318
Rp6319
(dp6320
g27
(dp6321
g29
V36
p6322
sg31
VPERCENT
p6323
sg33
VCD
p6324
sg35
I14
ssg10
I628
sg36
g4
sg37
(dp6325
sg39
(dp6326
sg41
I3533
sg42
g21
sg43
g21
sg44
I628
sg45
V36
p6327
sg47
I628
sg48
I3535
sbag0
(g23
g2
Ntp6328
Rp6329
(dp6330
g27
(dp6331
g29
V%
p6332
sg31
VPERCENT
p6333
sg33
VNN
p6334
sg35
I15
ssg10
I629
sg36
g4
sg37
(dp6335
sg39
(dp6336
sg41
I3535
sg42
g21
sg43
g21
sg44
I629
sg45
V%
p6337
sg47
I629
sg48
I3536
sbag0
(g23
g2
Ntp6338
Rp6339
(dp6340
g27
(dp6341
g29
Vof
p6342
sg31
VO
p6343
sg33
VIN
p6344
sg35
I16
ssg10
I630
sg36
g4
sg37
(dp6345
sg39
(dp6346
sg41
I3537
sg42
g21
sg43
g21
sg44
I630
sg45
Vof
p6347
sg47
I630
sg48
I3539
sbag0
(g23
g2
Ntp6348
Rp6349
(dp6350
g27
(dp6351
g29
Vadult
p6352
sg31
VO
p6353
sg33
VNNS
p6354
sg35
I17
ssg10
I631
sg36
g4
sg37
(dp6355
sg39
(dp6356
sg41
I3540
sg42
g21
sg43
g21
sg44
I631
sg45
Vadults
p6357
sg47
I631
sg48
I3546
sbag0
(g23
g2
Ntp6358
Rp6359
(dp6360
g27
(dp6361
g29
Vbe
p6362
sg31
VO
p6363
sg33
VVBD
p6364
sg35
I18
ssg10
I632
sg36
g4
sg37
(dp6365
sg39
(dp6366
sg41
I3547
sg42
g21
sg43
g21
sg44
I632
sg45
Vwere
p6367
sg47
I632
sg48
I3551
sbag0
(g23
g2
Ntp6368
Rp6369
(dp6370
g27
(dp6371
g29
Vconsider
p6372
sg31
VO
p6373
sg33
VVBN
p6374
sg35
I19
ssg10
I633
sg36
g4
sg37
(dp6375
sg39
(dp6376
sg41
I3552
sg42
g21
sg43
g21
sg44
I633
sg45
Vconsidered
p6377
sg47
I633
sg48
I3562
sbag0
(g23
g2
Ntp6378
Rp6379
(dp6380
g27
(dp6381
g29
Vinactive
p6382
sg31
VO
p6383
sg33
VJJ
p6384
sg35
I20
ssg10
I634
sg36
g4
sg37
(dp6385
sg39
(dp6386
sg41
I3563
sg42
g21
sg43
g21
sg44
I634
sg45
Vinactive
p6387
sg47
I634
sg48
I3571
sbag0
(g23
g2
Ntp6388
Rp6389
(dp6390
g27
(dp6391
g29
V-lsb-
p6392
sg31
VO
p6393
sg33
V-LRB-
p6394
sg35
I21
ssg10
I635
sg36
g4
sg37
(dp6395
sg39
(dp6396
sg41
I3572
sg42
g21
sg43
g21
sg44
I635
sg45
V[
p6397
sg47
I635
sg48
I3573
sbag0
(g23
g2
Ntp6398
Rp6399
(dp6400
g27
(dp6401
g29
Vref
p6402
sg31
VO
p6403
sg33
VNN
p6404
sg35
I22
ssg10
I636
sg36
g4
sg37
(dp6405
sg39
(dp6406
sg41
I3573
sg42
g21
sg43
g21
sg44
I636
sg45
VREF
p6407
sg47
I636
sg48
I3576
sbag0
(g23
g2
Ntp6408
Rp6409
(dp6410
g27
(dp6411
g29
V-rsb-
p6412
sg31
VO
p6413
sg33
V-RRB-
p6414
sg35
I23
ssg10
I637
sg36
g4
sg37
(dp6415
sg39
(dp6416
sg41
I3576
sg42
g21
sg43
g21
sg44
I637
sg45
V]
p6417
sg47
I637
sg48
I3577
sbag0
(g23
g2
Ntp6418
Rp6419
(dp6420
g27
(dp6421
g29
V.
p6422
sg31
VO
p6423
sg33
V.
p6424
sg35
I24
ssg10
I638
sg36
g4
sg37
(dp6425
sg39
(dp6426
sg41
I3577
sg42
g21
sg43
g21
sg44
I638
sg45
V.
p6427
sg47
I638
sg48
I3578
sbag0
(g23
g2
Ntp6428
Rp6429
(dp6430
g27
(dp6431
g29
V59
p6432
sg31
VPERCENT
p6433
sg33
VCD
p6434
sg35
I1
ssg10
I639
sg36
g4
sg37
(dp6435
sg39
(dp6436
sg41
I3579
sg42
g21
sg43
g21
sg44
I639
sg45
V59
p6437
sg47
I639
sg48
I3581
sbag0
(g23
g2
Ntp6438
Rp6439
(dp6440
g27
(dp6441
g29
V%
p6442
sg31
VPERCENT
p6443
sg33
VNN
p6444
sg35
I2
ssg10
I640
sg36
g4
sg37
(dp6445
sg39
(dp6446
sg41
I3581
sg42
g21
sg43
g21
sg44
I640
sg45
V%
p6447
sg47
I640
sg48
I3582
sbag0
(g23
g2
Ntp6448
Rp6449
(dp6450
g27
(dp6451
g29
Vof
p6452
sg31
VO
p6453
sg33
VIN
p6454
sg35
I3
ssg10
I641
sg36
g4
sg37
(dp6455
sg39
(dp6456
sg41
I3583
sg42
g21
sg43
g21
sg44
I641
sg45
Vof
p6457
sg47
I641
sg48
I3585
sbag0
(g23
g2
Ntp6458
Rp6459
(dp6460
g27
(dp6461
g29
Vadult
p6462
sg31
VO
p6463
sg33
VJJ
p6464
sg35
I4
ssg10
I642
sg36
g4
sg37
(dp6465
sg39
(dp6466
sg41
I3586
sg42
g21
sg43
g21
sg44
I642
sg45
Vadult
p6467
sg47
I642
sg48
I3591
sbag0
(g23
g2
Ntp6468
Rp6469
(dp6470
g27
(dp6471
g29
Vrespondent
p6472
sg31
VO
p6473
sg33
VNNS
p6474
sg35
I5
ssg10
I643
sg36
g4
sg37
(dp6475
sg39
(dp6476
sg41
I3592
sg42
g21
sg43
g21
sg44
I643
sg45
Vrespondents
p6477
sg47
I643
sg48
I3603
sbag0
(g23
g2
Ntp6478
Rp6479
(dp6480
g27
(dp6481
g29
Vnever
p6482
sg31
VO
p6483
sg33
VRB
p6484
sg35
I6
ssg10
I644
sg36
g4
sg37
(dp6485
sg39
(dp6486
sg41
I3604
sg42
g21
sg43
g21
sg44
I644
sg45
Vnever
p6487
sg47
I644
sg48
I3609
sbag0
(g23
g2
Ntp6488
Rp6489
(dp6490
g27
(dp6491
g29
Vparticipate
p6492
sg31
VO
p6493
sg33
VVBD
p6494
sg35
I7
ssg10
I645
sg36
g4
sg37
(dp6495
sg39
(dp6496
sg41
I3610
sg42
g21
sg43
g21
sg44
I645
sg45
Vparticipated
p6497
sg47
I645
sg48
I3622
sbag0
(g23
g2
Ntp6498
Rp6499
(dp6500
g27
(dp6501
g29
Vin
p6502
sg31
VO
p6503
sg33
VIN
p6504
sg35
I8
ssg10
I646
sg36
g4
sg37
(dp6505
sg39
(dp6506
sg41
I3623
sg42
g21
sg43
g21
sg44
I646
sg45
Vin
p6507
sg47
I646
sg48
I3625
sbag0
(g23
g2
Ntp6508
Rp6509
(dp6510
g27
(dp6511
g29
Vvigorous
p6512
sg31
VO
p6513
sg33
VJJ
p6514
sg35
I9
ssg10
I647
sg36
g4
sg37
(dp6515
sg39
(dp6516
sg41
I3626
sg42
g21
sg43
g21
sg44
I647
sg45
Vvigorous
p6517
sg47
I647
sg48
I3634
sbag0
(g23
g2
Ntp6518
Rp6519
(dp6520
g27
(dp6521
g29
Vphysical
p6522
sg31
VO
p6523
sg33
VJJ
p6524
sg35
I10
ssg10
I648
sg36
g4
sg37
(dp6525
sg39
(dp6526
sg41
I3635
sg42
g21
sg43
g21
sg44
I648
sg45
Vphysical
p6527
sg47
I648
sg48
I3643
sbag0
(g23
g2
Ntp6528
Rp6529
(dp6530
g27
(dp6531
g29
Vactivity
p6532
sg31
VO
p6533
sg33
VNN
p6534
sg35
I11
ssg10
I649
sg36
g4
sg37
(dp6535
sg39
(dp6536
sg41
I3644
sg42
g21
sg43
g21
sg44
I649
sg45
Vactivity
p6537
sg47
I649
sg48
I3652
sbag0
(g23
g2
Ntp6538
Rp6539
(dp6540
g27
(dp6541
g29
Vlast
p6542
sg31
VO
p6543
sg33
VVBG
p6544
sg35
I12
ssg10
I650
sg36
g4
sg37
(dp6545
sg39
(dp6546
sg41
I3653
sg42
g21
sg43
g21
sg44
I650
sg45
Vlasting
p6547
sg47
I650
sg48
I3660
sbag0
(g23
g2
Ntp6548
Rp6549
(dp6550
g27
(dp6551
g29
Vmore
p6552
sg31
VDURATION
p6553
sg33
VJJR
p6554
sg35
I13
ssg10
I651
sg36
g4
sg37
(dp6555
sg39
(dp6556
sg41
I3661
sg42
g21
sg43
g21
sg44
I651
sg45
Vmore
p6557
sg47
I651
sg48
I3665
sbag0
(g23
g2
Ntp6558
Rp6559
(dp6560
g27
(dp6561
g29
Vthan
p6562
sg31
VDURATION
p6563
sg33
VIN
p6564
sg35
I14
ssg10
I652
sg36
g4
sg37
(dp6565
sg39
(dp6566
sg41
I3666
sg42
g21
sg43
g21
sg44
I652
sg45
Vthan
p6567
sg47
I652
sg48
I3670
sbag0
(g23
g2
Ntp6568
Rp6569
(dp6570
g27
(dp6571
g29
V10
p6572
sg31
VDURATION
p6573
sg33
VCD
p6574
sg35
I15
ssg10
I653
sg36
g4
sg37
(dp6575
sg39
(dp6576
sg41
I3671
sg42
g21
sg43
g21
sg44
I653
sg45
V10
p6577
sg47
I653
sg48
I3673
sbag0
(g23
g2
Ntp6578
Rp6579
(dp6580
g27
(dp6581
g29
Vminute
p6582
sg31
VDURATION
p6583
sg33
VNNS
p6584
sg35
I16
ssg10
I654
sg36
g4
sg37
(dp6585
sg39
(dp6586
sg41
I3674
sg42
g21
sg43
g21
sg44
I654
sg45
Vminutes
p6587
sg47
I654
sg48
I3681
sbag0
(g23
g2
Ntp6588
Rp6589
(dp6590
g27
(dp6591
g29
Vper
p6592
sg31
VO
p6593
sg33
VIN
p6594
sg35
I17
ssg10
I655
sg36
g4
sg37
(dp6595
sg39
(dp6596
sg41
I3682
sg42
g21
sg43
g21
sg44
I655
sg45
Vper
p6597
sg47
I655
sg48
I3685
sbag0
(g23
g2
Ntp6598
Rp6599
(dp6600
g27
(dp6601
g29
Vweek
p6602
sg31
VDURATION
p6603
sg33
VNN
p6604
sg35
I18
ssg10
I656
sg36
g4
sg37
(dp6605
sg39
(dp6606
sg41
I3686
sg42
g21
sg43
g21
sg44
I656
sg45
Vweek
p6607
sg47
I656
sg48
I3690
sbag0
(g23
g2
Ntp6608
Rp6609
(dp6610
g27
(dp6611
g29
V-lsb-
p6612
sg31
VO
p6613
sg33
V-LRB-
p6614
sg35
I19
ssg10
I657
sg36
g4
sg37
(dp6615
sg39
(dp6616
sg41
I3691
sg42
g21
sg43
g21
sg44
I657
sg45
V[
p6617
sg47
I657
sg48
I3692
sbag0
(g23
g2
Ntp6618
Rp6619
(dp6620
g27
(dp6621
g29
Vref
p6622
sg31
VO
p6623
sg33
VNN
p6624
sg35
I20
ssg10
I658
sg36
g4
sg37
(dp6625
sg39
(dp6626
sg41
I3692
sg42
g21
sg43
g21
sg44
I658
sg45
VREF
p6627
sg47
I658
sg48
I3695
sbag0
(g23
g2
Ntp6628
Rp6629
(dp6630
g27
(dp6631
g29
V-rsb-
p6632
sg31
VO
p6633
sg33
V-RRB-
p6634
sg35
I21
ssg10
I659
sg36
g4
sg37
(dp6635
sg39
(dp6636
sg41
I3695
sg42
g21
sg43
g21
sg44
I659
sg45
V]
p6637
sg47
I659
sg48
I3696
sbag0
(g23
g2
Ntp6638
Rp6639
(dp6640
g27
(dp6641
g29
V.
p6642
sg31
VO
p6643
sg33
V.
p6644
sg35
I22
ssg10
I660
sg36
g4
sg37
(dp6645
sg39
(dp6646
sg41
I3696
sg42
g21
sg43
g21
sg44
I660
sg45
V.
p6647
sg47
I660
sg48
I3697
sbasS'Document'
p6648
(lp6649
g4
asS'doc-features'
p6650
g14
sS'Sentence'
p6651
(lp6652
g0
(g23
g2
Ntp6653
Rp6654
(dp6655
g27
(dp6656
S'dep-parse'
p6657
S'not implemented!'
p6658
sg35
I0
sS'constituency-parse'
p6659
V(ROOT\u000a  (NP (. .)))
p6660
ssg10
I0
sg36
g4
sg37
(dp6661
sg39
(dp6662
S'tokens'
p6663
(lp6664
g25
assg41
I0
sg42
g6651
sg43
g6651
sg44
I0
sg45
V.
p6665
sg47
I1
sg48
I1
sbag0
(g23
g2
Ntp6666
Rp6667
(dp6668
g27
(dp6669
g6657
g6658
sg35
I1
sg6659
V(ROOT\u000a  (S\u000a    (NP (JJ Sedentary) (NN lifestyle))\u000a    (VP (VBZ is)\u000a      (NP\u000a        (NP (DT a) (JJ medical) (NN term))\u000a        (VP (VBN used)\u000a          (S\u000a            (VP (TO to)\u000a              (VP (VB denote)\u000a                (NP\u000a                  (NP (DT a) (NN type))\u000a                  (PP (IN of)\u000a                    (NP (NN lifestyle))))\u000a                (PP (IN with)\u000a                  (NP\u000a                    (NP\u000a                      (ADJP (DT no)\u000a                        (CC or)\u000a                        (JJ irregular))\u000a                      (JJ physical) (NN activity))\u000a                    (PP (-LRB- -LSB-)\u000a                      (NP (NN REF) (-RRB- -RSB-)))))))))))\u000a    (. .)))
p6670
ssg10
I1
sg36
g4
sg37
(dp6671
sg39
(dp6672
g6663
(lp6673
g50
ag60
ag70
ag80
ag90
ag100
ag110
ag120
ag130
ag140
ag150
ag160
ag170
ag180
ag190
ag200
ag210
ag220
ag230
ag240
ag250
ag260
ag270
assg41
I4
sg42
g6651
sg43
g6651
sg44
I1
sg45
V \u000a\u000aSedentary lifestyle is a medical term used to denote a type of lifestyle with no or irregular physical activity [REF].
p6674
sg47
I24
sg48
I122
sbag0
(g23
g2
Ntp6675
Rp6676
(dp6677
g27
(dp6678
g6657
g6658
sg35
I2
sg6659
V(ROOT\u000a  (S\u000a    (NP\u000a      (NP (DT A) (NN person))\u000a      (SBAR\u000a        (WHNP (WP who))\u000a        (S\u000a          (VP (VBZ lives)\u000a            (NP (DT a) (JJ sedentary) (NN lifestyle))))))\u000a    (VP (MD may)\u000a      (ADVP (RB colloquially))\u000a      (VP (VB be)\u000a        (VP (VBN known)\u000a          (PP (IN as)\u000a            (NP (DT a) (NN couch) (NN potato))))))\u000a    (. .)))
p6679
ssg10
I2
sg36
g4
sg37
(dp6680
sg39
(dp6681
g6663
(lp6682
g280
ag290
ag300
ag310
ag320
ag330
ag340
ag350
ag360
ag370
ag380
ag390
ag400
ag410
ag420
ag430
assg41
I123
sg42
g6651
sg43
g6651
sg44
I24
sg45
V A person who lives a sedentary lifestyle may colloquially be known as a couch potato.
p6683
sg47
I40
sg48
I208
sbag0
(g23
g2
Ntp6684
Rp6685
(dp6686
g27
(dp6687
g6657
g6658
sg35
I3
sg6659
V(ROOT\u000a  (S\u000a    (NP (PRP It))\u000a    (VP (VBZ is)\u000a      (ADVP (RB commonly))\u000a      (VP (VBN found)\u000a        (NP\u000a          (NP (IN in))\u000a          (PP (CC both)\u000a            (NP (DT the) (VBN developed)\u000a              (CC and)\u000a              (VBG developing) (NN world))))))\u000a    (. .)))
p6688
ssg10
I3
sg36
g4
sg37
(dp6689
sg39
(dp6690
g6663
(lp6691
g440
ag450
ag460
ag470
ag480
ag490
ag500
ag510
ag520
ag530
ag540
ag550
assg41
I209
sg42
g6651
sg43
g6651
sg44
I40
sg45
V It is commonly found in both the developed and developing world.
p6692
sg47
I52
sg48
I273
sbag0
(g23
g2
Ntp6693
Rp6694
(dp6695
g27
(dp6696
g6657
g6658
sg35
I4
sg6659
V(ROOT\u000a  (S\u000a    (NP (JJ Sedentary) (NNS activities))\u000a    (VP (VBP include)\u000a      (NP\u000a        (NP (VBG sitting))\u000a        (, ,)\u000a        (NP\u000a          (NP (NN reading))\u000a          (, ,)\u000a          (VP (VBG watching)\u000a            (NP (NN television))\u000a            (, ,)\u000a            (S\u000a              (VP (VBG playing)\u000a                (NP (JJ certain) (NN video) (NNS games))))))\u000a        (, ,)\u000a        (CC and)\u000a        (NP\u000a          (NP (NN computer) (NN use))\u000a          (PP (IN for)\u000a            (NP\u000a              (NP (JJ much))\u000a              (PP (IN of)\u000a                (NP\u000a                  (NP (DT the) (NN day))\u000a                  (PP (IN with)\u000a                    (NP\u000a                      (NP (JJ little))\u000a                      (CC or)\u000a                      (NP (DT no) (JJ vigorous) (JJ physical) (NN exercise)))))))))))\u000a    (. .)))
p6697
ssg10
I4
sg36
g4
sg37
(dp6698
sg39
(dp6699
g6663
(lp6700
g560
ag570
ag580
ag590
ag600
ag610
ag620
ag630
ag640
ag650
ag660
ag670
ag680
ag690
ag700
ag710
ag720
ag730
ag740
ag750
ag760
ag770
ag780
ag790
ag800
ag810
ag820
ag830
ag840
ag850
ag860
assg41
I274
sg42
g6651
sg43
g6651
sg44
I52
sg45
V Sedentary activities include sitting, reading, watching television, playing certain video games, and computer use for much of the day with little or no vigorous physical exercise.
p6701
sg47
I83
sg48
I453
sbag0
(g23
g2
Ntp6702
Rp6703
(dp6704
g27
(dp6705
g6657
g6658
sg35
I5
sg6659
V(ROOT\u000a  (S\u000a    (NP (DT A) (JJ sedentary) (NN lifestyle))\u000a    (VP (MD can)\u000a      (VP (VB contribute)\u000a        (PP (TO to)\u000a          (NP\u000a            (NP (JJ many) (JJ preventable) (NNS causes))\u000a            (PP (IN of)\u000a              (NP (NN death)))))))\u000a    (. .)))
p6706
ssg10
I5
sg36
g4
sg37
(dp6707
sg39
(dp6708
g6663
(lp6709
g870
ag880
ag890
ag900
ag910
ag920
ag930
ag940
ag950
ag960
ag970
ag980
assg41
I454
sg42
g6651
sg43
g6651
sg44
I83
sg45
V A sedentary lifestyle can contribute to many preventable causes of death.
p6710
sg47
I95
sg48
I527
sbag0
(g23
g2
Ntp6711
Rp6712
(dp6713
g27
(dp6714
g6657
g6658
sg35
I6
sg6659
V(ROOT\u000a  (S\u000a    (NP\u000a      (NP (DT A) (NN lack))\u000a      (PP (IN of)\u000a        (NP (JJ physical) (NN activity))))\u000a    (VP (VBZ is)\u000a      (NP\u000a        (NP (CD one))\u000a        (PP (IN of)\u000a          (NP\u000a            (NP (DT the) (VBG leading) (NNS causes))\u000a            (PP (IN of)\u000a              (NP (JJ preventable) (NN death) (JJ worldwide) (-LRB- -LSB-) (NN REF) (-RRB- -RSB-)))))))\u000a    (. .)))
p6715
ssg10
I6
sg36
g4
sg37
(dp6716
sg39
(dp6717
g6663
(lp6718
g990
ag1000
ag1010
ag1020
ag1030
ag1040
ag1050
ag1060
ag1070
ag1080
ag1090
ag1100
ag1110
ag1120
ag1130
ag1140
ag1150
ag1160
ag1170
assg41
I529
sg42
g6651
sg43
g6651
sg44
I95
sg45
V\u000a\u000aA lack of physical activity is one of the leading causes of preventable death worldwide [REF].
p6719
sg47
I114
sg48
I623
sbag0
(g23
g2
Ntp6720
Rp6721
(dp6722
g27
(dp6723
g6657
g6658
sg35
I7
sg6659
V(X (DT A) (JJ sedentary) (NN lifestyle)\u000a  (CC and)\u000a  (NN lack) (IN of) (JJ physical) (NN activity) (MD can) (VB contribute) (TO to)\u000a  (CC or)\u000a  (VB be) (DT a) (NN risk) (NN factor) (IN for) (: :) (NN Anxiety) (-LRB- -LSB-) (NN REF) (-RRB- -RSB-) (-LRB- -LSB-) (NN REF) (-RRB- -RSB-) (-LRB- -LSB-) (NN REF) (-RRB- -RSB-) (NNP Cardiovascular) (NN disease) (-LRB- -LSB-) (NN REF) (-RRB- -RSB-) (-LRB- -LSB-) (NN REF) (-RRB- -RSB-) (NN Mortality) (IN in) (JJ elderly) (NNS men) (IN by) (CD 30) (NN %)\u000a  (CC and)\u000a  (VB double) (DT the) (NN risk) (IN in) (JJ elderly) (NNS women) (-LRB- -LSB-) (NN REF) (-RRB- -RSB-) (JJ Deep) (NN vein) (NN thrombosis) (NN Depression) (-LRB- -LSB-) (NN REF) (-RRB- -RSB-) (-LRB- -LSB-) (NN REF) (-RRB- -RSB-) (NNP Diabetes) (-LRB- -LSB-) (NNP REF) (-RRB- -RSB-) (NN Colon) (NN cancer) (-LRB- -LSB-) (NN REF) (-RRB- -RSB-) (JJ High) (NN blood) (NN pressure) (-LRB- -LSB-) (NN REF) (-RRB- -RSB-) (-LRB- -LSB-) (NN REF) (-RRB- -RSB-) (NN Obesity) (-LRB- -LSB-) (NN REF) (-RRB- -RSB-) (-LRB- -LSB-) (NN REF) (-RRB- -RSB-) (NN Osteoporosis) (-LRB- -LSB-) (NN REF) (-RRB- -RSB-) (-LRB- -LSB-) (NN REF) (-RRB- -RSB-) (-LRB- -LSB-) (NN REF) (-RRB- -RSB-) (NN Lipid) (NNS disorders) (-LRB- -LSB-) (NN REF) (-RRB- -RSB-) (NN Kidney) (NNS stones) (. .))
p6724
ssg10
I7
sg36
g4
sg37
(dp6725
sg39
(dp6726
g6663
(lp6727
g1180
ag1190
ag1200
ag1210
ag1220
ag1230
ag1240
ag1250
ag1260
ag1270
ag1280
ag1290
ag1300
ag1310
ag1320
ag1330
ag1340
ag1350
ag1360
ag1370
ag1380
ag1390
ag1400
ag1410
ag1420
ag1430
ag1440
ag1450
ag1460
ag1470
ag1480
ag1490
ag1500
ag1510
ag1520
ag1530
ag1540
ag1550
ag1560
ag1570
ag1580
ag1590
ag1600
ag1610
ag1620
ag1630
ag1640
ag1650
ag1660
ag1670
ag1680
ag1690
ag1700
ag1710
ag1720
ag1730
ag1740
ag1750
ag1760
ag1770
ag1780
ag1790
ag1800
ag1810
ag1820
ag1830
ag1840
ag1850
ag1860
ag1870
ag1880
ag1890
ag1900
ag1910
ag1920
ag1930
ag1940
ag1950
ag1960
ag1970
ag1980
ag1990
ag2000
ag2010
ag2020
ag2030
ag2040
ag2050
ag2060
ag2070
ag2080
ag2090
ag2100
ag2110
ag2120
ag2130
ag2140
ag2150
ag2160
ag2170
ag2180
ag2190
ag2200
ag2210
ag2220
ag2230
assg41
I626
sg42
g6651
sg43
g6651
sg44
I114
sg45
V \u000a\u000aA sedentary lifestyle and lack of physical activity can contribute to or be a risk factor for:\u000a\u000aAnxiety[REF][REF][REF]\u000aCardiovascular disease[REF][REF] \u000aMortality in elderly men by 30% and double the risk in elderly women[REF]\u000aDeep vein thrombosis\u000aDepression[REF][REF]\u000aDiabetes[REF]\u000aColon cancer[REF]\u000aHigh blood pressure[REF][REF]\u000aObesity[REF][REF]\u000aOsteoporosis[REF][REF][REF] \u000aLipid disorders[REF]\u000aKidney stones .
p6728
sg47
I220
sg48
I1040
sbag0
(g23
g2
Ntp6729
Rp6730
(dp6731
g27
(dp6732
g6657
g6658
sg35
I8
sg6659
V(ROOT\u000a  (S\u000a    (NP (CD One) (NN response)\u000a      (SBAR\u000a        (WHNP (WDT that))\u000a        (S\u000a          (VP (VBZ has)\u000a            (VP (VBN been)\u000a              (VP (VBN adopted)\u000a                (PP (IN by)\u000a                  (NP\u000a                    (NP (JJ many) (NNS organizations))\u000a                    (VP (VBN concerned)\u000a                      (PP (IN with)\u000a                        (NP (NN health)\u000a                          (CC and)\u000a                          (NN environment))))))))))))\u000a    (VP (VBZ is)\u000a      (NP\u000a        (NP (DT the) (NN promotion))\u000a        (PP (IN of)\u000a          (NP\u000a            (NP (JJ active) (NN travel))\u000a            (, ,)\u000a            (SBAR\u000a              (WHNP (WDT which))\u000a              (S\u000a                (VP (VBZ seeks)\u000a                  (S\u000a                    (VP (TO to)\u000a                      (VP (VB promote)\u000a                        (NP (NN walking)\u000a                          (CC and)\u000a                          (NN cycling))\u000a                        (PP (IN as)\u000a                          (NP\u000a                            (ADJP (JJ safe)\u000a                              (CC and)\u000a                              (JJ attractive))\u000a                            (NNS alternatives)))\u000a                        (PP (TO to)\u000a                          (NP (JJ motorized) (NN transport) (-LRB- -LSB-) (NN REF) (-RRB- -RSB-)))))))))))))\u000a    (. .)))
p6733
ssg10
I8
sg36
g4
sg37
(dp6734
sg39
(dp6735
g6663
(lp6736
g2240
ag2250
ag2260
ag2270
ag2280
ag2290
ag2300
ag2310
ag2320
ag2330
ag2340
ag2350
ag2360
ag2370
ag2380
ag2390
ag2400
ag2410
ag2420
ag2430
ag2440
ag2450
ag2460
ag2470
ag2480
ag2490
ag2500
ag2510
ag2520
ag2530
ag2540
ag2550
ag2560
ag2570
ag2580
ag2590
ag2600
ag2610
ag2620
ag2630
assg41
I1042
sg42
g6651
sg43
g6651
sg44
I220
sg45
V\u000a\u000aOne response that has been adopted by many organizations concerned with health and environment is the promotion of active travel, which seeks to promote walking and cycling as safe and attractive alternatives to motorized transport [REF].
p6737
sg47
I260
sg48
I1280
sbag0
(g23
g2
Ntp6738
Rp6739
(dp6740
g27
(dp6741
g6657
g6658
sg35
I9
sg6659
V(ROOT\u000a  (S\u000a    (PP (VBN Given)\u000a      (SBAR (IN that)\u000a        (S\u000a          (NP (JJ many) (NNS journeys))\u000a          (VP (VBP are)\u000a            (PP (IN for)\u000a              (NP\u000a                (ADJP (RB relatively) (JJ short))\u000a                (NNS distances)))))))\u000a    (, ,)\u000a    (NP (EX there))\u000a    (VP (VBZ is)\u000a      (NP (JJ considerable) (NN scope)\u000a        (S\u000a          (VP (TO to)\u000a            (VP (VB replace)\u000a              (NP (NN car) (NN use))\u000a              (PP (IN with)\u000a                (NP\u000a                  (NP (VBG walking)\u000a                    (CC or)\u000a                    (NN cycling))\u000a                  (, ,)\u000a                  (SBAR (IN though)\u000a                    (S\u000a                      (PP (IN in)\u000a                        (NP (JJ many) (NNS settings)))\u000a                      (NP (DT this))\u000a                      (VP (MD may)\u000a                        (VP (VB require)\u000a                          (NP (DT some) (NN infrastructure) (NN modification)))))))))))))\u000a    (. .)))
p6742
ssg10
I9
sg36
g4
sg37
(dp6743
sg39
(dp6744
g6663
(lp6745
g2640
ag2650
ag2660
ag2670
ag2680
ag2690
ag2700
ag2710
ag2720
ag2730
ag2740
ag2750
ag2760
ag2770
ag2780
ag2790
ag2800
ag2810
ag2820
ag2830
ag2840
ag2850
ag2860
ag2870
ag2880
ag2890
ag2900
ag2910
ag2920
ag2930
ag2940
ag2950
ag2960
ag2970
assg41
I1281
sg42
g6651
sg43
g6651
sg44
I260
sg45
V Given that many journeys are for relatively short distances, there is considerable scope to replace car use with walking or cycling, though in many settings this may require some infrastructure modification.
p6746
sg47
I294
sg48
I1488
sbag0
(g23
g2
Ntp6747
Rp6748
(dp6749
g27
(dp6750
g6657
g6658
sg35
I10
sg6659
V(ROOT\u000a  (S\u000a    (S\u000a      (VP (VBG Implementing)\u000a        (NP (NNP Wellness) (NNP Programs))))\u000a    (VP (VBZ is)\u000a      (VP (VBG becoming)\u000a        (NP (DT another) (JJ popular) (NN trend))\u000a        (PP (IN among)\u000a          (NP (NNS organizations)))))\u000a    (. .)))
p6751
ssg10
I10
sg36
g4
sg37
(dp6752
sg39
(dp6753
g6663
(lp6754
g2980
ag2990
ag3000
ag3010
ag3020
ag3030
ag3040
ag3050
ag3060
ag3070
ag3080
assg41
I1491
sg42
g6651
sg43
g6651
sg44
I294
sg45
V \u000a\u000aImplementing Wellness Programs is becoming another popular trend among organizations.
p6755
sg47
I305
sg48
I1576
sbag0
(g23
g2
Ntp6756
Rp6757
(dp6758
g27
(dp6759
g6657
g6658
sg35
I11
sg6659
V(ROOT\u000a  (S\u000a    (NP (NNP Wellness) (NNS programs))\u000a    (VP\u000a      (VP (MD can)\u000a        (VP (VB be)\u000a          (ADJP (JJ unique)\u000a            (PP (TO to)\u000a              (NP (DT each) (NN organization))))))\u000a      (CC and)\u000a      (VP (MD can)\u000a        (VP (VB focus)\u000a          (PP (IN on)\u000a            (NP\u000a              (NP (DT a) (NN variety))\u000a              (PP (IN of)\u000a                (NP (NNS objectives))))))))\u000a    (. .)))
p6760
ssg10
I11
sg36
g4
sg37
(dp6761
sg39
(dp6762
g6663
(lp6763
g3090
ag3100
ag3110
ag3120
ag3130
ag3140
ag3150
ag3160
ag3170
ag3180
ag3190
ag3200
ag3210
ag3220
ag3230
ag3240
ag3250
assg41
I1577
sg42
g6651
sg43
g6651
sg44
I305
sg45
V Wellness programs can be unique to each organization and can focus on a variety of objectives.
p6764
sg47
I322
sg48
I1671
sbag0
(g23
g2
Ntp6765
Rp6766
(dp6767
g27
(dp6768
g6657
g6658
sg35
I12
sg6659
V(ROOT\u000a  (S\u000a    (PP (IN For)\u000a      (NP (NN example)))\u000a    (, ,)\u000a    (NP (DT some) (NNS organizations))\u000a    (VP (VBP try)\u000a      (S\u000a        (VP (TO to)\u000a          (VP (VB get)\u000a            (NP (PRP$ their) (NNS employees))\u000a            (S\u000a              (VP\u000a                (VP (VBG moving)\u000a                  (PP (IN through)\u000a                    (NP (NN exercise) (NNS classes)))\u000a                  (PP (IN at)\u000a                    (NP (NN lunch))))\u000a                (CC or)\u000a                (VP (VBG walking)\u000a                  (NP (NNS challenges))\u000a                  (PP (IN among)\u000a                    (NP (NNS co-workers))))))))))\u000a    (. .)))
p6769
ssg10
I12
sg36
g4
sg37
(dp6770
sg39
(dp6771
g6663
(lp6772
g3260
ag3270
ag3280
ag3290
ag3300
ag3310
ag3320
ag3330
ag3340
ag3350
ag3360
ag3370
ag3380
ag3390
ag3400
ag3410
ag3420
ag3430
ag3440
ag3450
ag3460
ag3470
assg41
I1672
sg42
g6651
sg43
g6651
sg44
I322
sg45
V For example, some organizations try to get their employees moving through exercise classes at lunch or walking challenges among co-workers.
p6773
sg47
I344
sg48
I1811
sbag0
(g23
g2
Ntp6774
Rp6775
(dp6776
g27
(dp6777
g6657
g6658
sg35
I13
sg6659
V(ROOT\u000a  (S\u000a    (NP (JJ Other) (NNS organizations))\u000a    (VP (VBP offer)\u000a      (NP\u000a        (NP (DT a) (NN number))\u000a        (PP (IN of)\u000a          (NP\u000a            (NP (JJ different) (NNS screenings))\u000a            (PP (IN for)\u000a              (NP\u000a                (NP (NNS employees))\u000a                (PP (JJ such) (IN as)\u000a                  (NP (NN cholesterol)\u000a                    (CC or)\u000a                    (NN blood) (NN pressure) (NNS screenings)))))))))\u000a    (. .)))
p6778
ssg10
I13
sg36
g4
sg37
(dp6779
sg39
(dp6780
g6663
(lp6781
g3480
ag3490
ag3500
ag3510
ag3520
ag3530
ag3540
ag3550
ag3560
ag3570
ag3580
ag3590
ag3600
ag3610
ag3620
ag3630
ag3640
ag3650
assg41
I1812
sg42
g6651
sg43
g6651
sg44
I344
sg45
V Other organizations offer a number of different screenings for employees such as cholesterol or blood pressure screenings.
p6782
sg47
I362
sg48
I1934
sbag0
(g23
g2
Ntp6783
Rp6784
(dp6785
g27
(dp6786
g6657
g6658
sg35
I14
sg6659
V(ROOT\u000a  (S\u000a    (PP (VBG According)\u000a      (PP (TO to)\u000a        (NP\u000a          (NP (NNP Worksite) (NNP Health) (NNP Promotion))\u000a          (PP (IN with)\u000a            (NP (NNP Infinite) (NNP Wellness) (NNPS Solutions))))))\u000a    (, ,)\u000a    (NP (PRP it))\u000a    (VP (VBZ is)\u000a      (ADJP (JJ essential)\u000a        (SBAR\u000a          (S\u000a            (NP (NN wellness) (NNS programs))\u000a            (VP (VBP have)\u000a              (NP\u000a                (NP (JJ specific) (NNS goals))\u000a                (SBAR\u000a                  (WHNP (WDT that))\u000a                  (S\u000a                    (VP (VBP provide)\u000a                      (NP\u000a                        (NP (DT a) (JJ specific) (NN direction))\u000a                        (PP (IN for)\u000a                          (NP\u000a                            (NP (DT the) (NN program) (-LRB- -LSB-))\u000a                            (NN REF) (-RRB- -RSB-)))))))))))))\u000a    (. .)))
p6787
ssg10
I14
sg36
g4
sg37
(dp6788
sg39
(dp6789
g6663
(lp6790
g3660
ag3670
ag3680
ag3690
ag3700
ag3710
ag3720
ag3730
ag3740
ag3750
ag3760
ag3770
ag3780
ag3790
ag3800
ag3810
ag3820
ag3830
ag3840
ag3850
ag3860
ag3870
ag3880
ag3890
ag3900
ag3910
ag3920
ag3930
ag3940
ag3950
assg41
I1937
sg42
g6651
sg43
g6651
sg44
I362
sg45
V \u000a\u000aAccording to Worksite Health Promotion with Infinite Wellness Solutions, it is essential wellness programs have specific goals that provide a specific direction for the program [REF].
p6791
sg47
I392
sg48
I2120
sbag0
(g23
g2
Ntp6792
Rp6793
(dp6794
g27
(dp6795
g6657
g6658
sg35
I15
sg6659
V(ROOT\u000a  (S\u000a    (NP (NNS Goals))\u000a    (VP (MD can)\u000a      (VP (VB include)\u000a        (NP\u000a          (NP (VBG keeping) (NN tracking))\u000a          (PP (IN of)\u000a            (NP\u000a              (NP (DT the) (NN number))\u000a              (PP (IN of)\u000a                (NP\u000a                  (NP\u000a                    (NP (NNS participants))\u000a                    (SBAR\u000a                      (WHNP (WP who))\u000a                      (S\u000a                        (VP (VBD improved)\u000a                          (NP (PRP$ their) (NN fitness) (NN level))))))\u000a                  (CC or)\u000a                  (NP\u000a                    (NP (DT the) (NN number))\u000a                    (PP (IN of)\u000a                      (NP\u000a                        (NP (NNS participants))\u000a                        (VP (VBN screened))))))))))))\u000a    (. .)))
p6796
ssg10
I15
sg36
g4
sg37
(dp6797
sg39
(dp6798
g6663
(lp6799
g3960
ag3970
ag3980
ag3990
ag4000
ag4010
ag4020
ag4030
ag4040
ag4050
ag4060
ag4070
ag4080
ag4090
ag4100
ag4110
ag4120
ag4130
ag4140
ag4150
ag4160
ag4170
assg41
I2121
sg42
g6651
sg43
g6651
sg44
I392
sg45
V Goals can include keeping tracking of the number of participants who improved their fitness level or the number of participants screened.
p6800
sg47
I414
sg48
I2258
sbag0
(g23
g2
Ntp6801
Rp6802
(dp6803
g27
(dp6804
g6657
g6658
sg35
I16
sg6659
V(ROOT\u000a  (S\u000a    (NP\u000a      (NP (DT The) (NN term))\u000a      (`` ``)\u000a      (NP (NN couch) (NN potato))\u000a      ('' ''))\u000a    (VP (VBD was)\u000a      (VP (VBN coined)\u000a        (PP (IN by)\u000a          (NP\u000a            (NP (JJ underground) (NNS comics) (NN artist) (NNP Robert) (NNP Armstrong))\u000a            (PP (IN in)\u000a              (NP (DT the) (NNS 1970s)))))\u000a        (, ,)\u000a        (PP (IN in)\u000a          (NP\u000a            (NP (DT a) (NN series))\u000a            (PP (IN of)\u000a              (NP\u000a                (NP (NNS comics))\u000a                (VP (VBG featuring)\u000a                  (NP (JJ sedentary) (NNS characters)))))))))\u000a    (. .)))
p6805
ssg10
I16
sg36
g4
sg37
(dp6806
sg39
(dp6807
g6663
(lp6808
g4180
ag4190
ag4200
ag4210
ag4220
ag4230
ag4239
ag4249
ag4259
ag4269
ag4279
ag4289
ag4299
ag4309
ag4319
ag4329
ag4339
ag4349
ag4359
ag4369
ag4379
ag4389
ag4399
ag4409
ag4419
ag4429
ag4439
assg41
I2260
sg42
g6651
sg43
g6651
sg44
I414
sg45
V\u000a\u000aThe term "couch potato" was coined by underground comics artist Robert Armstrong in the 1970s, in a series of comics featuring sedentary characters.
p6809
sg47
I441
sg48
I2408
sbag0
(g23
g2
Ntp6810
Rp6811
(dp6812
g27
(dp6813
g6657
g6658
sg35
I17
sg6659
V(ROOT\u000a  (S\u000a    (NP\u000a      (NP (DT The) (NN condition))\u000a      (, ,)\u000a      (SBAR\u000a        (WHNP (WDT which))\u000a        (S\u000a          (VP (VBZ predates)\u000a            (NP (DT the) (NN term)))))\u000a      (, ,))\u000a    (VP (VBZ is)\u000a      (VP (VBN characterized)\u000a        (PP (IN by)\u000a          (S\u000a            (VP\u000a              (VP (VBG sitting))\u000a              (CC or)\u000a              (VP (VBG remaining)\u000a                (ADJP (JJ inactive)\u000a                  (PP (IN for)\u000a                    (NP\u000a                      (NP (JJS most))\u000a                      (PP (IN of)\u000a                        (NP\u000a                          (NP (DT the) (NN day))\u000a                          (PP (IN with)\u000a                            (NP\u000a                              (NP (JJ little))\u000a                              (CC or)\u000a                              (NP (DT no) (NN exercise)))))))))))))))\u000a    (. .)))
p6814
ssg10
I17
sg36
g4
sg37
(dp6815
sg39
(dp6816
g6663
(lp6817
g4449
ag4459
ag4469
ag4479
ag4489
ag4499
ag4509
ag4519
ag4529
ag4539
ag4549
ag4559
ag4569
ag4579
ag4589
ag4599
ag4609
ag4619
ag4629
ag4639
ag4649
ag4659
ag4669
ag4679
ag4689
ag4699
assg41
I2411
sg42
g6651
sg43
g6651
sg44
I441
sg45
V \u000a\u000aThe condition, which predates the term, is characterized by sitting or remaining inactive for most of the day with little or no exercise.
p6818
sg47
I467
sg48
I2548
sbag0
(g23
g2
Ntp6819
Rp6820
(dp6821
g27
(dp6822
g6657
g6658
sg35
I18
sg6659
V(ROOT\u000a  (S\u000a    (NP\u000a      (NP (NN Lack))\u000a      (PP (IN of)\u000a        (NP (NN exercise))))\u000a    (VP\u000a      (VP (VBZ causes)\u000a        (NP\u000a          (NP (NN muscle) (NN atrophy))\u000a          (, ,)\u000a          (NP\u000a            (NP (FW i.e.))\u000a            (VP (VBG shrinking)\u000a              (CC and)\u000a              (VBG weakening)\u000a              (PP (IN of)\u000a                (NP (DT the) (NNS muscles)))))))\u000a      (CC and)\u000a      (VP\u000a        (ADVP (RB accordingly))\u000a        (VBZ increases)\u000a        (NP (NN susceptibility))\u000a        (PP (TO to)\u000a          (NP (JJ physical) (NN injury)))))\u000a    (. .)))
p6823
ssg10
I18
sg36
g4
sg37
(dp6824
sg39
(dp6825
g6663
(lp6826
g4709
ag4719
ag4729
ag4739
ag4749
ag4759
ag4769
ag4779
ag4789
ag4799
ag4809
ag4819
ag4829
ag4839
ag4849
ag4859
ag4869
ag4879
ag4889
ag4899
ag4909
ag4919
assg41
I2551
sg42
g6651
sg43
g6651
sg44
I467
sg45
V \u000a\u000aLack of exercise causes muscle atrophy, i.e. shrinking and weakening of the muscles and accordingly increases susceptibility to physical injury.
p6827
sg47
I489
sg48
I2695
sbag0
(g23
g2
Ntp6828
Rp6829
(dp6830
g27
(dp6831
g6657
g6658
sg35
I19
sg6659
V(ROOT\u000a  (S\u000a    (S\u000a      (ADVP (RB Additionally))\u000a      (, ,)\u000a      (NP (JJ physical) (NN fitness))\u000a      (VP (VBZ is)\u000a        (VP (VBN correlated)\u000a          (PP (IN with)\u000a            (NP (JJ immune) (NN system) (NN function) (-LRB- -LSB-) (NN REF) (-RRB- -RSB-))))))\u000a    (: ;)\u000a    (S\u000a      (NP\u000a        (NP (DT a) (NN reduction))\u000a        (PP (IN in)\u000a          (NP (JJ physical) (NN fitness))))\u000a      (VP (VBZ is)\u000a        (ADVP (RB generally))\u000a        (VP (VBN accompanied)\u000a          (PP (IN by)\u000a            (NP\u000a              (NP (DT a) (NN weakening))\u000a              (PP (IN of)\u000a                (NP (DT the) (JJ immune) (NN system))))))))\u000a    (. .)))
p6832
ssg10
I19
sg36
g4
sg37
(dp6833
sg39
(dp6834
g6663
(lp6835
g4929
ag4939
ag4949
ag4959
ag4969
ag4979
ag4989
ag4999
ag5009
ag5019
ag5029
ag5039
ag5049
ag5059
ag5069
ag5079
ag5089
ag5099
ag5109
ag5119
ag5129
ag5139
ag5149
ag5159
ag5169
ag5179
ag5189
ag5199
ag5209
ag5219
assg41
I2696
sg42
g6651
sg43
g6651
sg44
I489
sg45
V Additionally, physical fitness is correlated with immune system function[REF]; a reduction in physical fitness is generally accompanied by a weakening of the immune system.
p6836
sg47
I519
sg48
I2868
sbag0
(g23
g2
Ntp6837
Rp6838
(dp6839
g27
(dp6840
g6657
g6658
sg35
I20
sg6659
V(X (DT A) (NN review) (IN in) (NNP Nature) (NNP Reviews) (NNP Cardiology) (VBZ suggests) (IN that) (IN since) (NN illness)\u000a  (CC or)\u000a  (NN injury) (VBP are) (VBN associated) (IN with) (JJ prolonged) (NNS periods) (IN of) (JJ enforced) (NN rest) (, ,) (JJ such) (NN sedentariness) (VBZ has) (RB physiologically) (VBN become) (VBN linked) (TO to) (JJ life-preserving) (JJ metabolic)\u000a  (CC and)\u000a  (NN stress) (JJ related) (NNS responses) (JJ such) (IN as) (NN inflammation) (IN that) (NN aid) (NN recovery) (IN during) (NN illness)\u000a  (CC and)\u000a  (NN injury)\u000a  (CC but)\u000a  (WDT which) (JJ due) (TO to) (VBG being) (JJ nonadaptive) (IN during) (NN health) (RB now) (VBP lead) (TO to) (JJ chronic) (NNS diseases) (-LRB- -LSB-) (NN REF) (-RRB- -RSB-) (. .))
p6841
ssg10
I20
sg36
g4
sg37
(dp6842
sg39
(dp6843
g6663
(lp6844
g5229
ag5239
ag5249
ag5259
ag5269
ag5279
ag5289
ag5299
ag5309
ag5319
ag5329
ag5339
ag5349
ag5359
ag5369
ag5379
ag5389
ag5399
ag5409
ag5419
ag5429
ag5439
ag5449
ag5459
ag5469
ag5479
ag5489
ag5499
ag5509
ag5519
ag5529
ag5539
ag5549
ag5559
ag5569
ag5579
ag5589
ag5599
ag5609
ag5619
ag5629
ag5639
ag5649
ag5659
ag5669
ag5679
ag5689
ag5699
ag5709
ag5719
ag5729
ag5739
ag5749
ag5759
ag5769
ag5779
ag5789
ag5799
ag5809
ag5819
ag5829
assg41
I2869
sg42
g6651
sg43
g6651
sg44
I519
sg45
V A review in Nature Reviews Cardiology suggests that since illness or injury are associated with prolonged periods of enforced rest, such sedentariness has physiologically become linked to life-preserving metabolic and stress related responses such as inflammation that aid recovery during illness and injury but which due to being nonadaptive during health now lead to chronic diseases [REF].
p6845
sg47
I580
sg48
I3261
sbag0
(g23
g2
Ntp6846
Rp6847
(dp6848
g27
(dp6849
g6657
g6658
sg35
I21
sg6659
V(ROOT\u000a  (S\u000a    (PP (IN Despite)\u000a      (NP\u000a        (NP (DT the) (JJ well-known) (NNS benefits))\u000a        (PP (IN of)\u000a          (NP (JJ physical) (NN activity)))))\u000a    (, ,)\u000a    (NP\u000a      (NP (JJ many) (NNS adults))\u000a      (CC and)\u000a      (NP (JJ many) (NNS children)))\u000a    (VP\u000a      (VP (VBP lead)\u000a        (NP\u000a          (NP (DT a)\u000a            (ADJP (RB relatively) (JJ sedentary))\u000a            (NN lifestyle) (-LRB- -LSB-) (NN REF))\u000a          (PP (-RRB- -RSB-)\u000a            (NP (-LRB- -LSB-) (NN REF)))))\u000a      (-RRB- -RSB-)\u000a      (CC and)\u000a      (VP (VBP are) (RB not)\u000a        (ADJP\u000a          (ADJP (JJ active) (JJ enough))\u000a          (S\u000a            (VP (TO to)\u000a              (VP (VB achieve)\u000a                (NP (DT these) (NN health) (NNS benefits))))))))\u000a    (. .)))
p6850
ssg10
I21
sg36
g4
sg37
(dp6851
sg39
(dp6852
g6663
(lp6853
g5839
ag5849
ag5859
ag5869
ag5879
ag5889
ag5899
ag5909
ag5919
ag5929
ag5939
ag5949
ag5959
ag5969
ag5979
ag5989
ag5999
ag6009
ag6019
ag6029
ag6039
ag6049
ag6059
ag6069
ag6079
ag6089
ag6099
ag6109
ag6119
ag6129
ag6139
ag6149
ag6159
ag6169
ag6179
assg41
I3264
sg42
g6651
sg43
g6651
sg44
I580
sg45
V \u000a\u000aDespite the well-known benefits of physical activity, many adults and many children lead a relatively sedentary lifestyle[REF][REF] and are not active enough to achieve these health benefits.
p6854
sg47
I615
sg48
I3455
sbag0
(g23
g2
Ntp6855
Rp6856
(dp6857
g27
(dp6858
g6657
g6658
sg35
I22
sg6659
V(ROOT\u000a  (S\u000a    (PP (IN In)\u000a      (NP (DT the) (CD 2008) (NNP United) (NNPS States)))\u000a    (NP\u000a      (NP\u000a        (NP\u000a          (NP (NNP American) (NNP National) (NNP Health) (NNP Interview) (NN Survey))\u000a          (PRN (-LRB- -LRB-)\u000a            (NP (NN NHIS))\u000a            (-RRB- -RRB-)))\u000a        (ADJP (CD 36) (NN %)))\u000a      (PP (IN of)\u000a        (NP (NNS adults))))\u000a    (VP (VBD were)\u000a      (VP (VBN considered)\u000a        (NP (JJ inactive) (-LRB- -LSB-) (NN REF) (-RRB- -RSB-))))\u000a    (. .)))
p6859
ssg10
I22
sg36
g4
sg37
(dp6860
sg39
(dp6861
g6663
(lp6862
g6189
ag6199
ag6209
ag6219
ag6229
ag6239
ag6249
ag6259
ag6269
ag6279
ag6289
ag6299
ag6309
ag6319
ag6329
ag6339
ag6349
ag6359
ag6369
ag6379
ag6389
ag6399
ag6409
ag6419
assg41
I3458
sg42
g6651
sg43
g6651
sg44
I615
sg45
V \u000a\u000aIn the 2008 United States American National Health Interview Survey (NHIS) 36% of adults were considered inactive [REF].
p6863
sg47
I639
sg48
I3578
sbag0
(g23
g2
Ntp6864
Rp6865
(dp6866
g27
(dp6867
g6657
g6658
sg35
I23
sg6659
V(ROOT\u000a  (S\u000a    (NP\u000a      (NP (CD 59) (NN %))\u000a      (PP (IN of)\u000a        (NP (JJ adult) (NNS respondents))))\u000a    (ADVP (RB never))\u000a    (VP (VBD participated)\u000a      (PP (IN in)\u000a        (NP (JJ vigorous) (JJ physical) (NN activity)))\u000a      (S\u000a        (VP (VBG lasting)\u000a          (NP-TMP\u000a            (QP (JJR more) (IN than) (CD 10))\u000a            (NNS minutes))\u000a          (PP (IN per)\u000a            (NP (NN week) (-LRB- -LSB-) (NN REF) (-RRB- -RSB-))))))\u000a    (. .)))
p6868
ssg10
I23
sg36
g4
sg37
(dp6869
sg39
(dp6870
g6663
(lp6871
g6429
ag6439
ag6449
ag6459
ag6469
ag6479
ag6489
ag6499
ag6509
ag6519
ag6529
ag6539
ag6549
ag6559
ag6569
ag6579
ag6589
ag6599
ag6609
ag6619
ag6629
ag6639
assg41
I3579
sg42
g6651
sg43
g6651
sg44
I639
sg45
V 59% of adult respondents never participated in vigorous physical activity lasting more than 10 minutes per week [REF].
p6872
sg47
I661
sg48
I3697
sbassg37
(dp6873
sg39
(dp6874
sg47
I-1
sg6663
g22
sg42
g6648
sg36
Nsg27
(dp6875
sg44
I0
sg45
V. \u000a\u000aSedentary lifestyle is a medical term used to denote a type of lifestyle with no or irregular physical activity [REF]. A person who lives a sedentary lifestyle may colloquially be known as a couch potato. It is commonly found in both the developed and developing world. Sedentary activities include sitting, reading, watching television, playing certain video games, and computer use for much of the day with little or no vigorous physical exercise. A sedentary lifestyle can contribute to many preventable causes of death.\u000a\u000aA lack of physical activity is one of the leading causes of preventable death worldwide [REF]. \u000a\u000aA sedentary lifestyle and lack of physical activity can contribute to or be a risk factor for:\u000a\u000aAnxiety[REF][REF][REF]\u000aCardiovascular disease[REF][REF] \u000aMortality in elderly men by 30% and double the risk in elderly women[REF]\u000aDeep vein thrombosis\u000aDepression[REF][REF]\u000aDiabetes[REF]\u000aColon cancer[REF]\u000aHigh blood pressure[REF][REF]\u000aObesity[REF][REF]\u000aOsteoporosis[REF][REF][REF] \u000aLipid disorders[REF]\u000aKidney stones .\u000a\u000aOne response that has been adopted by many organizations concerned with health and environment is the promotion of active travel, which seeks to promote walking and cycling as safe and attractive alternatives to motorized transport [REF]. Given that many journeys are for relatively short distances, there is considerable scope to replace car use with walking or cycling, though in many settings this may require some infrastructure modification. \u000a\u000aImplementing Wellness Programs is becoming another popular trend among organizations. Wellness programs can be unique to each organization and can focus on a variety of objectives. For example, some organizations try to get their employees moving through exercise classes at lunch or walking challenges among co-workers. Other organizations offer a number of different screenings for employees such as cholesterol or blood pressure screenings. \u000a\u000aAccording to Worksite Health Promotion with Infinite Wellness Solutions, it is essential wellness programs have specific goals that provide a specific direction for the program [REF]. Goals can include keeping tracking of the number of participants who improved their fitness level or the number of participants screened.\u000a\u000aThe term "couch potato" was coined by underground comics artist Robert Armstrong in the 1970s, in a series of comics featuring sedentary characters. \u000a\u000aThe condition, which predates the term, is characterized by sitting or remaining inactive for most of the day with little or no exercise. \u000a\u000aLack of exercise causes muscle atrophy, i.e. shrinking and weakening of the muscles and accordingly increases susceptibility to physical injury. Additionally, physical fitness is correlated with immune system function[REF]; a reduction in physical fitness is generally accompanied by a weakening of the immune system. A review in Nature Reviews Cardiology suggests that since illness or injury are associated with prolonged periods of enforced rest, such sedentariness has physiologically become linked to life-preserving metabolic and stress related responses such as inflammation that aid recovery during illness and injury but which due to being nonadaptive during health now lead to chronic diseases [REF]. \u000a\u000aDespite the well-known benefits of physical activity, many adults and many children lead a relatively sedentary lifestyle[REF][REF] and are not active enough to achieve these health benefits. \u000a\u000aIn the 2008 United States American National Health Interview Survey (NHIS) 36% of adults were considered inactive [REF]. 59% of adult respondents never participated in vigorous physical activity lasting more than 10 minutes per week [REF].
p6876
sS'sents'
p6877
g6652
sg43
g6648
sg41
I0
sS'id'
p6878
g16
sg48
I3697
sS'sentFeatures'
p6879
(lp6880
sb.