ccopy_reg
_reconstructor
p0
(cpygate.doc
Document
p1
c__builtin__
object
p2
Ntp3
Rp4
(dp5
S'src'
p6
V. \u000a\u000aThe Universal Declaration on Cultural Diversity is a declaration adopted by the General Conference of the United Nations Educational, Scientific and Cultural Organization (UNESCO) at its thirty-first session on 2 November 2001[REF] . \u000a\u000aThis Declaration is constituted by 12 Articles; Article 1 titled "Cultural diversity, the common heritage of humanity" states that "As a sorce of exchange, innovation and creativity, cultural diversity is as necessary for humankind as biodiversity is for the nature. In this sense, it is the common heritage of humanity and should be recognized and affiemed for the benefit of present and future generations." And Article 12 defines on the role of the UNESCO.
p7
sS'string'
p8
S'. \n\nThe Universal Declaration on Cultural Diversity is a declaration adopted by the General Conference of the United Nations Educational, Scientific and Cultural Organization (UNESCO) at its thirty-first session on 2 November 2001[REF] . \n\nThis Declaration is constituted by 12 Articles; Article 1 titled "Cultural diversity, the common heritage of humanity" states that "As a sorce of exchange, innovation and creativity, cultural diversity is as necessary for humankind as biodiversity is for the nature. In this sense, it is the common heritage of humanity and should be recognized and affiemed for the benefit of present and future generations." And Article 12 defines on the role of the UNESCO.'
p9
sS'idx'
p10
I0
sS'tknFeatures'
p11
(lp12
sS'docFeatures'
p13
(dp14
S'file_id'
p15
S'Universal_Declaration_on_Cultural_Diversity'
p16
ssS'items'
p17
(dp18
S'raw'
p19
V. \u000a\u000aThe Universal Declaration on Cultural Diversity is a declaration adopted by the General Conference of the United Nations Educational, Scientific and Cultural Organization (UNESCO) at its thirty-first session on 2 November 2001[REF] . \u000a\u000aThis Declaration is constituted by 12 Articles; Article 1 titled "Cultural diversity, the common heritage of humanity" states that "As a sorce of exchange, innovation and creativity, cultural diversity is as necessary for humankind as biodiversity is for the nature. In this sense, it is the common heritage of humanity and should be recognized and affiemed for the benefit of present and future generations." And Article 12 defines on the role of the UNESCO.
p20
sS'Token'
p21
(lp22
g0
(cpygate.annotation
Annotation
p23
g2
Ntp24
Rp25
(dp26
S'features'
p27
(dp28
S'lemma'
p29
V.
p30
sS'ner'
p31
VO
p32
sS'pos'
p33
V.
p34
sS'index'
p35
I1
ssg10
I0
sS'doc'
p36
g4
sS'labels'
p37
(dp38
sS'relations'
p39
(dp40
sS'cStart'
p41
I0
sS'subType'
p42
g21
sS'annoType'
p43
g21
sS'tStart'
p44
I0
sS'text'
p45
V.
p46
sS'tEnd'
p47
I0
sS'cEnd'
p48
I1
sbag0
(g23
g2
Ntp49
Rp50
(dp51
g27
(dp52
g29
Vthe
p53
sg31
VO
p54
sg33
VDT
p55
sg35
I1
ssg10
I1
sg36
g4
sg37
(dp56
sg39
(dp57
sg41
I4
sg42
g21
sg43
g21
sg44
I1
sg45
VThe
p58
sg47
I1
sg48
I7
sbag0
(g23
g2
Ntp59
Rp60
(dp61
g27
(dp62
g29
VUniversal
p63
sg31
VO
p64
sg33
VNNP
p65
sg35
I2
ssg10
I2
sg36
g4
sg37
(dp66
sg39
(dp67
sg41
I8
sg42
g21
sg43
g21
sg44
I2
sg45
VUniversal
p68
sg47
I2
sg48
I17
sbag0
(g23
g2
Ntp69
Rp70
(dp71
g27
(dp72
g29
VDeclaration
p73
sg31
VO
p74
sg33
VNNP
p75
sg35
I3
ssg10
I3
sg36
g4
sg37
(dp76
sg39
(dp77
sg41
I18
sg42
g21
sg43
g21
sg44
I3
sg45
VDeclaration
p78
sg47
I3
sg48
I29
sbag0
(g23
g2
Ntp79
Rp80
(dp81
g27
(dp82
g29
Von
p83
sg31
VO
p84
sg33
VIN
p85
sg35
I4
ssg10
I4
sg36
g4
sg37
(dp86
sg39
(dp87
sg41
I27
sg42
g21
sg43
g21
sg44
I4
sg45
Von
p88
sg47
I4
sg48
I29
sbag0
(g23
g2
Ntp89
Rp90
(dp91
g27
(dp92
g29
VCultural
p93
sg31
VO
p94
sg33
VNNP
p95
sg35
I5
ssg10
I5
sg36
g4
sg37
(dp96
sg39
(dp97
sg41
I33
sg42
g21
sg43
g21
sg44
I5
sg45
VCultural
p98
sg47
I5
sg48
I41
sbag0
(g23
g2
Ntp99
Rp100
(dp101
g27
(dp102
g29
VDiversity
p103
sg31
VO
p104
sg33
VNNP
p105
sg35
I6
ssg10
I6
sg36
g4
sg37
(dp106
sg39
(dp107
sg41
I42
sg42
g21
sg43
g21
sg44
I6
sg45
VDiversity
p108
sg47
I6
sg48
I51
sbag0
(g23
g2
Ntp109
Rp110
(dp111
g27
(dp112
g29
Vbe
p113
sg31
VO
p114
sg33
VVBZ
p115
sg35
I7
ssg10
I7
sg36
g4
sg37
(dp116
sg39
(dp117
sg41
I52
sg42
g21
sg43
g21
sg44
I7
sg45
Vis
p118
sg47
I7
sg48
I54
sbag0
(g23
g2
Ntp119
Rp120
(dp121
g27
(dp122
g29
Va
p123
sg31
VO
p124
sg33
VDT
p125
sg35
I8
ssg10
I8
sg36
g4
sg37
(dp126
sg39
(dp127
sg41
I55
sg42
g21
sg43
g21
sg44
I8
sg45
Va
p128
sg47
I8
sg48
I56
sbag0
(g23
g2
Ntp129
Rp130
(dp131
g27
(dp132
g29
Vdeclaration
p133
sg31
VO
p134
sg33
VNN
p135
sg35
I9
ssg10
I9
sg36
g4
sg37
(dp136
sg39
(dp137
sg41
I57
sg42
g21
sg43
g21
sg44
I9
sg45
Vdeclaration
p138
sg47
I9
sg48
I68
sbag0
(g23
g2
Ntp139
Rp140
(dp141
g27
(dp142
g29
Vadopt
p143
sg31
VO
p144
sg33
VVBN
p145
sg35
I10
ssg10
I10
sg36
g4
sg37
(dp146
sg39
(dp147
sg41
I69
sg42
g21
sg43
g21
sg44
I10
sg45
Vadopted
p148
sg47
I10
sg48
I76
sbag0
(g23
g2
Ntp149
Rp150
(dp151
g27
(dp152
g29
Vby
p153
sg31
VO
p154
sg33
VIN
p155
sg35
I11
ssg10
I11
sg36
g4
sg37
(dp156
sg39
(dp157
sg41
I77
sg42
g21
sg43
g21
sg44
I11
sg45
Vby
p158
sg47
I11
sg48
I79
sbag0
(g23
g2
Ntp159
Rp160
(dp161
g27
(dp162
g29
Vthe
p163
sg31
VO
p164
sg33
VDT
p165
sg35
I12
ssg10
I12
sg36
g4
sg37
(dp166
sg39
(dp167
sg41
I80
sg42
g21
sg43
g21
sg44
I12
sg45
Vthe
p168
sg47
I12
sg48
I83
sbag0
(g23
g2
Ntp169
Rp170
(dp171
g27
(dp172
g29
VGeneral
p173
sg31
VORGANIZATION
p174
sg33
VNNP
p175
sg35
I13
ssg10
I13
sg36
g4
sg37
(dp176
sg39
(dp177
sg41
I84
sg42
g21
sg43
g21
sg44
I13
sg45
VGeneral
p178
sg47
I13
sg48
I91
sbag0
(g23
g2
Ntp179
Rp180
(dp181
g27
(dp182
g29
VConference
p183
sg31
VORGANIZATION
p184
sg33
VNNP
p185
sg35
I14
ssg10
I14
sg36
g4
sg37
(dp186
sg39
(dp187
sg41
I92
sg42
g21
sg43
g21
sg44
I14
sg45
VConference
p188
sg47
I14
sg48
I102
sbag0
(g23
g2
Ntp189
Rp190
(dp191
g27
(dp192
g29
Vof
p193
sg31
VORGANIZATION
p194
sg33
VIN
p195
sg35
I15
ssg10
I15
sg36
g4
sg37
(dp196
sg39
(dp197
sg41
I103
sg42
g21
sg43
g21
sg44
I15
sg45
Vof
p198
sg47
I15
sg48
I105
sbag0
(g23
g2
Ntp199
Rp200
(dp201
g27
(dp202
g29
Vthe
p203
sg31
VORGANIZATION
p204
sg33
VDT
p205
sg35
I16
ssg10
I16
sg36
g4
sg37
(dp206
sg39
(dp207
sg41
I106
sg42
g21
sg43
g21
sg44
I16
sg45
Vthe
p208
sg47
I16
sg48
I109
sbag0
(g23
g2
Ntp209
Rp210
(dp211
g27
(dp212
g29
VUnited
p213
sg31
VORGANIZATION
p214
sg33
VNNP
p215
sg35
I17
ssg10
I17
sg36
g4
sg37
(dp216
sg39
(dp217
sg41
I110
sg42
g21
sg43
g21
sg44
I17
sg45
VUnited
p218
sg47
I17
sg48
I116
sbag0
(g23
g2
Ntp219
Rp220
(dp221
g27
(dp222
g29
VNations
p223
sg31
VORGANIZATION
p224
sg33
VNNPS
p225
sg35
I18
ssg10
I18
sg36
g4
sg37
(dp226
sg39
(dp227
sg41
I117
sg42
g21
sg43
g21
sg44
I18
sg45
VNations
p228
sg47
I18
sg48
I124
sbag0
(g23
g2
Ntp229
Rp230
(dp231
g27
(dp232
g29
VEducational
p233
sg31
VORGANIZATION
p234
sg33
VNNP
p235
sg35
I19
ssg10
I19
sg36
g4
sg37
(dp236
sg39
(dp237
sg41
I125
sg42
g21
sg43
g21
sg44
I19
sg45
VEducational
p238
sg47
I19
sg48
I136
sbag0
(g23
g2
Ntp239
Rp240
(dp241
g27
(dp242
g29
V,
p243
sg31
VO
p244
sg33
V,
p245
sg35
I20
ssg10
I20
sg36
g4
sg37
(dp246
sg39
(dp247
sg41
I136
sg42
g21
sg43
g21
sg44
I20
sg45
V,
p248
sg47
I20
sg48
I137
sbag0
(g23
g2
Ntp249
Rp250
(dp251
g27
(dp252
g29
VScientific
p253
sg31
VO
p254
sg33
VNNP
p255
sg35
I21
ssg10
I21
sg36
g4
sg37
(dp256
sg39
(dp257
sg41
I138
sg42
g21
sg43
g21
sg44
I21
sg45
VScientific
p258
sg47
I21
sg48
I148
sbag0
(g23
g2
Ntp259
Rp260
(dp261
g27
(dp262
g29
Vand
p263
sg31
VO
p264
sg33
VCC
p265
sg35
I22
ssg10
I22
sg36
g4
sg37
(dp266
sg39
(dp267
sg41
I149
sg42
g21
sg43
g21
sg44
I22
sg45
Vand
p268
sg47
I22
sg48
I152
sbag0
(g23
g2
Ntp269
Rp270
(dp271
g27
(dp272
g29
VCultural
p273
sg31
VO
p274
sg33
VNNP
p275
sg35
I23
ssg10
I23
sg36
g4
sg37
(dp276
sg39
(dp277
sg41
I153
sg42
g21
sg43
g21
sg44
I23
sg45
VCultural
p278
sg47
I23
sg48
I161
sbag0
(g23
g2
Ntp279
Rp280
(dp281
g27
(dp282
g29
VOrganization
p283
sg31
VO
p284
sg33
VNNP
p285
sg35
I24
ssg10
I24
sg36
g4
sg37
(dp286
sg39
(dp287
sg41
I162
sg42
g21
sg43
g21
sg44
I24
sg45
VOrganization
p288
sg47
I24
sg48
I174
sbag0
(g23
g2
Ntp289
Rp290
(dp291
g27
(dp292
g29
V-lrb-
p293
sg31
VO
p294
sg33
V-LRB-
p295
sg35
I25
ssg10
I25
sg36
g4
sg37
(dp296
sg39
(dp297
sg41
I175
sg42
g21
sg43
g21
sg44
I25
sg45
V(
p298
sg47
I25
sg48
I176
sbag0
(g23
g2
Ntp299
Rp300
(dp301
g27
(dp302
g29
VUNESCO
p303
sg31
VORGANIZATION
p304
sg33
VNNP
p305
sg35
I26
ssg10
I26
sg36
g4
sg37
(dp306
sg39
(dp307
sg41
I176
sg42
g21
sg43
g21
sg44
I26
sg45
VUNESCO
p308
sg47
I26
sg48
I182
sbag0
(g23
g2
Ntp309
Rp310
(dp311
g27
(dp312
g29
V-rrb-
p313
sg31
VO
p314
sg33
V-RRB-
p315
sg35
I27
ssg10
I27
sg36
g4
sg37
(dp316
sg39
(dp317
sg41
I182
sg42
g21
sg43
g21
sg44
I27
sg45
V)
p318
sg47
I27
sg48
I183
sbag0
(g23
g2
Ntp319
Rp320
(dp321
g27
(dp322
g29
Vat
p323
sg31
VO
p324
sg33
VIN
p325
sg35
I28
ssg10
I28
sg36
g4
sg37
(dp326
sg39
(dp327
sg41
I184
sg42
g21
sg43
g21
sg44
I28
sg45
Vat
p328
sg47
I28
sg48
I186
sbag0
(g23
g2
Ntp329
Rp330
(dp331
g27
(dp332
g29
Vits
p333
sg31
VO
p334
sg33
VPRP$
p335
sg35
I29
ssg10
I29
sg36
g4
sg37
(dp336
sg39
(dp337
sg41
I187
sg42
g21
sg43
g21
sg44
I29
sg45
Vits
p338
sg47
I29
sg48
I190
sbag0
(g23
g2
Ntp339
Rp340
(dp341
g27
(dp342
g29
Vthirty-first
p343
sg31
VORDINAL
p344
sg33
VJJ
p345
sg35
I30
ssg10
I30
sg36
g4
sg37
(dp346
sg39
(dp347
sg41
I191
sg42
g21
sg43
g21
sg44
I30
sg45
Vthirty-first
p348
sg47
I30
sg48
I203
sbag0
(g23
g2
Ntp349
Rp350
(dp351
g27
(dp352
g29
Vsession
p353
sg31
VO
p354
sg33
VNN
p355
sg35
I31
ssg10
I31
sg36
g4
sg37
(dp356
sg39
(dp357
sg41
I204
sg42
g21
sg43
g21
sg44
I31
sg45
Vsession
p358
sg47
I31
sg48
I211
sbag0
(g23
g2
Ntp359
Rp360
(dp361
g27
(dp362
g29
Von
p363
sg31
VO
p364
sg33
VIN
p365
sg35
I32
ssg10
I32
sg36
g4
sg37
(dp366
sg39
(dp367
sg41
I209
sg42
g21
sg43
g21
sg44
I32
sg45
Von
p368
sg47
I32
sg48
I211
sbag0
(g23
g2
Ntp369
Rp370
(dp371
g27
(dp372
g29
V2
p373
sg31
VDATE
p374
sg33
VCD
p375
sg35
I33
ssg10
I33
sg36
g4
sg37
(dp376
sg39
(dp377
sg41
I215
sg42
g21
sg43
g21
sg44
I33
sg45
V2
p378
sg47
I33
sg48
I216
sbag0
(g23
g2
Ntp379
Rp380
(dp381
g27
(dp382
g29
VNovember
p383
sg31
VDATE
p384
sg33
VNNP
p385
sg35
I34
ssg10
I34
sg36
g4
sg37
(dp386
sg39
(dp387
sg41
I217
sg42
g21
sg43
g21
sg44
I34
sg45
VNovember
p388
sg47
I34
sg48
I225
sbag0
(g23
g2
Ntp389
Rp390
(dp391
g27
(dp392
g29
V2001
p393
sg31
VDATE
p394
sg33
VCD
p395
sg35
I35
ssg10
I35
sg36
g4
sg37
(dp396
sg39
(dp397
sg41
I226
sg42
g21
sg43
g21
sg44
I35
sg45
V2001
p398
sg47
I35
sg48
I230
sbag0
(g23
g2
Ntp399
Rp400
(dp401
g27
(dp402
g29
V-lsb-
p403
sg31
VO
p404
sg33
V-LRB-
p405
sg35
I36
ssg10
I36
sg36
g4
sg37
(dp406
sg39
(dp407
sg41
I230
sg42
g21
sg43
g21
sg44
I36
sg45
V[
p408
sg47
I36
sg48
I231
sbag0
(g23
g2
Ntp409
Rp410
(dp411
g27
(dp412
g29
Vref
p413
sg31
VO
p414
sg33
VNN
p415
sg35
I37
ssg10
I37
sg36
g4
sg37
(dp416
sg39
(dp417
sg41
I231
sg42
g21
sg43
g21
sg44
I37
sg45
VREF
p418
sg47
I37
sg48
I234
sbag0
(g23
g2
Ntp419
Rp420
(dp421
g27
(dp422
g29
V-rsb-
p423
sg31
VO
p424
sg33
V-RRB-
p425
sg35
I38
ssg10
I38
sg36
g4
sg37
(dp426
sg39
(dp427
sg41
I234
sg42
g21
sg43
g21
sg44
I38
sg45
V]
p428
sg47
I38
sg48
I235
sbag0
(g23
g2
Ntp429
Rp430
(dp431
g27
(dp432
g29
V.
p433
sg31
VO
p434
sg33
V.
p435
sg35
I39
ssg10
I39
sg36
g4
sg37
(dp436
sg39
(dp437
sg41
I236
sg42
g21
sg43
g21
sg44
I39
sg45
V.
p438
sg47
I39
sg48
I237
sbag0
(g23
g2
Ntp439
Rp440
(dp441
g27
(dp442
g29
Vthis
p443
sg31
VO
p444
sg33
VDT
p445
sg35
I1
ssg10
I40
sg36
g4
sg37
(dp446
sg39
(dp447
sg41
I240
sg42
g21
sg43
g21
sg44
I40
sg45
VThis
p448
sg47
I40
sg48
I244
sbag0
(g23
g2
Ntp449
Rp450
(dp451
g27
(dp452
g29
Vdeclaration
p453
sg31
VO
p454
sg33
VNN
p455
sg35
I2
ssg10
I41
sg36
g4
sg37
(dp456
sg39
(dp457
sg41
I245
sg42
g21
sg43
g21
sg44
I41
sg45
VDeclaration
p458
sg47
I41
sg48
I256
sbag0
(g23
g2
Ntp459
Rp460
(dp461
g27
(dp462
g29
Vbe
p463
sg31
VO
p464
sg33
VVBZ
p465
sg35
I3
ssg10
I42
sg36
g4
sg37
(dp466
sg39
(dp467
sg41
I257
sg42
g21
sg43
g21
sg44
I42
sg45
Vis
p468
sg47
I42
sg48
I259
sbag0
(g23
g2
Ntp469
Rp470
(dp471
g27
(dp472
g29
Vconstitute
p473
sg31
VO
p474
sg33
VVBN
p475
sg35
I4
ssg10
I43
sg36
g4
sg37
(dp476
sg39
(dp477
sg41
I260
sg42
g21
sg43
g21
sg44
I43
sg45
Vconstituted
p478
sg47
I43
sg48
I271
sbag0
(g23
g2
Ntp479
Rp480
(dp481
g27
(dp482
g29
Vby
p483
sg31
VO
p484
sg33
VIN
p485
sg35
I5
ssg10
I44
sg36
g4
sg37
(dp486
sg39
(dp487
sg41
I272
sg42
g21
sg43
g21
sg44
I44
sg45
Vby
p488
sg47
I44
sg48
I274
sbag0
(g23
g2
Ntp489
Rp490
(dp491
g27
(dp492
g29
V12
p493
sg31
VNUMBER
p494
sg33
VCD
p495
sg35
I6
ssg10
I45
sg36
g4
sg37
(dp496
sg39
(dp497
sg41
I275
sg42
g21
sg43
g21
sg44
I45
sg45
V12
p498
sg47
I45
sg48
I277
sbag0
(g23
g2
Ntp499
Rp500
(dp501
g27
(dp502
g29
VArticles
p503
sg31
VO
p504
sg33
VNNPS
p505
sg35
I7
ssg10
I46
sg36
g4
sg37
(dp506
sg39
(dp507
sg41
I278
sg42
g21
sg43
g21
sg44
I46
sg45
VArticles
p508
sg47
I46
sg48
I286
sbag0
(g23
g2
Ntp509
Rp510
(dp511
g27
(dp512
g29
V;
p513
sg31
VO
p514
sg33
V:
p515
sg35
I8
ssg10
I47
sg36
g4
sg37
(dp516
sg39
(dp517
sg41
I286
sg42
g21
sg43
g21
sg44
I47
sg45
V;
p518
sg47
I47
sg48
I287
sbag0
(g23
g2
Ntp519
Rp520
(dp521
g27
(dp522
g29
VArticle
p523
sg31
VO
p524
sg33
VNNP
p525
sg35
I9
ssg10
I48
sg36
g4
sg37
(dp526
sg39
(dp527
sg41
I288
sg42
g21
sg43
g21
sg44
I48
sg45
VArticle
p528
sg47
I48
sg48
I295
sbag0
(g23
g2
Ntp529
Rp530
(dp531
g27
(dp532
g29
V1
p533
sg31
VNUMBER
p534
sg33
VCD
p535
sg35
I10
ssg10
I49
sg36
g4
sg37
(dp536
sg39
(dp537
sg41
I296
sg42
g21
sg43
g21
sg44
I49
sg45
V1
p538
sg47
I49
sg48
I297
sbag0
(g23
g2
Ntp539
Rp540
(dp541
g27
(dp542
g29
Vtitle
p543
sg31
VO
p544
sg33
VVBN
p545
sg35
I11
ssg10
I50
sg36
g4
sg37
(dp546
sg39
(dp547
sg41
I298
sg42
g21
sg43
g21
sg44
I50
sg45
Vtitled
p548
sg47
I50
sg48
I304
sbag0
(g23
g2
Ntp549
Rp550
(dp551
g27
(dp552
g29
V``
p553
sg31
VO
p554
sg33
V``
p555
sg35
I12
ssg10
I51
sg36
g4
sg37
(dp556
sg39
(dp557
sg41
I305
sg42
g21
sg43
g21
sg44
I51
sg45
V"
p558
sg47
I51
sg48
I306
sbag0
(g23
g2
Ntp559
Rp560
(dp561
g27
(dp562
g29
Vcultural
p563
sg31
VO
p564
sg33
VJJ
p565
sg35
I13
ssg10
I52
sg36
g4
sg37
(dp566
sg39
(dp567
sg41
I306
sg42
g21
sg43
g21
sg44
I52
sg45
VCultural
p568
sg47
I52
sg48
I314
sbag0
(g23
g2
Ntp569
Rp570
(dp571
g27
(dp572
g29
Vdiversity
p573
sg31
VO
p574
sg33
VNN
p575
sg35
I14
ssg10
I53
sg36
g4
sg37
(dp576
sg39
(dp577
sg41
I315
sg42
g21
sg43
g21
sg44
I53
sg45
Vdiversity
p578
sg47
I53
sg48
I324
sbag0
(g23
g2
Ntp579
Rp580
(dp581
g27
(dp582
g29
V,
p583
sg31
VO
p584
sg33
V,
p585
sg35
I15
ssg10
I54
sg36
g4
sg37
(dp586
sg39
(dp587
sg41
I324
sg42
g21
sg43
g21
sg44
I54
sg45
V,
p588
sg47
I54
sg48
I325
sbag0
(g23
g2
Ntp589
Rp590
(dp591
g27
(dp592
g29
Vthe
p593
sg31
VO
p594
sg33
VDT
p595
sg35
I16
ssg10
I55
sg36
g4
sg37
(dp596
sg39
(dp597
sg41
I326
sg42
g21
sg43
g21
sg44
I55
sg45
Vthe
p598
sg47
I55
sg48
I329
sbag0
(g23
g2
Ntp599
Rp600
(dp601
g27
(dp602
g29
Vcommon
p603
sg31
VO
p604
sg33
VJJ
p605
sg35
I17
ssg10
I56
sg36
g4
sg37
(dp606
sg39
(dp607
sg41
I330
sg42
g21
sg43
g21
sg44
I56
sg45
Vcommon
p608
sg47
I56
sg48
I336
sbag0
(g23
g2
Ntp609
Rp610
(dp611
g27
(dp612
g29
Vheritage
p613
sg31
VO
p614
sg33
VNN
p615
sg35
I18
ssg10
I57
sg36
g4
sg37
(dp616
sg39
(dp617
sg41
I337
sg42
g21
sg43
g21
sg44
I57
sg45
Vheritage
p618
sg47
I57
sg48
I345
sbag0
(g23
g2
Ntp619
Rp620
(dp621
g27
(dp622
g29
Vof
p623
sg31
VO
p624
sg33
VIN
p625
sg35
I19
ssg10
I58
sg36
g4
sg37
(dp626
sg39
(dp627
sg41
I346
sg42
g21
sg43
g21
sg44
I58
sg45
Vof
p628
sg47
I58
sg48
I348
sbag0
(g23
g2
Ntp629
Rp630
(dp631
g27
(dp632
g29
Vhumanity
p633
sg31
VO
p634
sg33
VNN
p635
sg35
I20
ssg10
I59
sg36
g4
sg37
(dp636
sg39
(dp637
sg41
I349
sg42
g21
sg43
g21
sg44
I59
sg45
Vhumanity
p638
sg47
I59
sg48
I357
sbag0
(g23
g2
Ntp639
Rp640
(dp641
g27
(dp642
g29
V''
p643
sg31
VO
p644
sg33
V''
p645
sg35
I21
ssg10
I60
sg36
g4
sg37
(dp646
sg39
(dp647
sg41
I357
sg42
g21
sg43
g21
sg44
I60
sg45
g558
sg47
I60
sg48
I358
sbag0
(g23
g2
Ntp648
Rp649
(dp650
g27
(dp651
g29
Vstate
p652
sg31
VO
p653
sg33
VNNS
p654
sg35
I22
ssg10
I61
sg36
g4
sg37
(dp655
sg39
(dp656
sg41
I359
sg42
g21
sg43
g21
sg44
I61
sg45
Vstates
p657
sg47
I61
sg48
I365
sbag0
(g23
g2
Ntp658
Rp659
(dp660
g27
(dp661
g29
Vthat
p662
sg31
VO
p663
sg33
VIN
p664
sg35
I23
ssg10
I62
sg36
g4
sg37
(dp665
sg39
(dp666
sg41
I366
sg42
g21
sg43
g21
sg44
I62
sg45
Vthat
p667
sg47
I62
sg48
I370
sbag0
(g23
g2
Ntp668
Rp669
(dp670
g27
(dp671
g29
V``
p672
sg31
VO
p673
sg33
V``
p674
sg35
I24
ssg10
I63
sg36
g4
sg37
(dp675
sg39
(dp676
sg41
I371
sg42
g21
sg43
g21
sg44
I63
sg45
g558
sg47
I63
sg48
I372
sbag0
(g23
g2
Ntp677
Rp678
(dp679
g27
(dp680
g29
Vas
p681
sg31
VO
p682
sg33
VIN
p683
sg35
I25
ssg10
I64
sg36
g4
sg37
(dp684
sg39
(dp685
sg41
I372
sg42
g21
sg43
g21
sg44
I64
sg45
VAs
p686
sg47
I64
sg48
I374
sbag0
(g23
g2
Ntp687
Rp688
(dp689
g27
(dp690
g29
Va
p691
sg31
VO
p692
sg33
VDT
p693
sg35
I26
ssg10
I65
sg36
g4
sg37
(dp694
sg39
(dp695
sg41
I375
sg42
g21
sg43
g21
sg44
I65
sg45
Va
p696
sg47
I65
sg48
I376
sbag0
(g23
g2
Ntp697
Rp698
(dp699
g27
(dp700
g29
Vsorce
p701
sg31
VO
p702
sg33
VNN
p703
sg35
I27
ssg10
I66
sg36
g4
sg37
(dp704
sg39
(dp705
sg41
I377
sg42
g21
sg43
g21
sg44
I66
sg45
Vsorce
p706
sg47
I66
sg48
I382
sbag0
(g23
g2
Ntp707
Rp708
(dp709
g27
(dp710
g29
Vof
p711
sg31
VO
p712
sg33
VIN
p713
sg35
I28
ssg10
I67
sg36
g4
sg37
(dp714
sg39
(dp715
sg41
I383
sg42
g21
sg43
g21
sg44
I67
sg45
Vof
p716
sg47
I67
sg48
I385
sbag0
(g23
g2
Ntp717
Rp718
(dp719
g27
(dp720
g29
Vexchange
p721
sg31
VO
p722
sg33
VNN
p723
sg35
I29
ssg10
I68
sg36
g4
sg37
(dp724
sg39
(dp725
sg41
I386
sg42
g21
sg43
g21
sg44
I68
sg45
Vexchange
p726
sg47
I68
sg48
I394
sbag0
(g23
g2
Ntp727
Rp728
(dp729
g27
(dp730
g29
V,
p731
sg31
VO
p732
sg33
V,
p733
sg35
I30
ssg10
I69
sg36
g4
sg37
(dp734
sg39
(dp735
sg41
I394
sg42
g21
sg43
g21
sg44
I69
sg45
V,
p736
sg47
I69
sg48
I395
sbag0
(g23
g2
Ntp737
Rp738
(dp739
g27
(dp740
g29
Vinnovation
p741
sg31
VO
p742
sg33
VNN
p743
sg35
I31
ssg10
I70
sg36
g4
sg37
(dp744
sg39
(dp745
sg41
I396
sg42
g21
sg43
g21
sg44
I70
sg45
Vinnovation
p746
sg47
I70
sg48
I406
sbag0
(g23
g2
Ntp747
Rp748
(dp749
g27
(dp750
g29
Vand
p751
sg31
VO
p752
sg33
VCC
p753
sg35
I32
ssg10
I71
sg36
g4
sg37
(dp754
sg39
(dp755
sg41
I407
sg42
g21
sg43
g21
sg44
I71
sg45
Vand
p756
sg47
I71
sg48
I410
sbag0
(g23
g2
Ntp757
Rp758
(dp759
g27
(dp760
g29
Vcreativity
p761
sg31
VO
p762
sg33
VNN
p763
sg35
I33
ssg10
I72
sg36
g4
sg37
(dp764
sg39
(dp765
sg41
I411
sg42
g21
sg43
g21
sg44
I72
sg45
Vcreativity
p766
sg47
I72
sg48
I421
sbag0
(g23
g2
Ntp767
Rp768
(dp769
g27
(dp770
g29
V,
p771
sg31
VO
p772
sg33
V,
p773
sg35
I34
ssg10
I73
sg36
g4
sg37
(dp774
sg39
(dp775
sg41
I421
sg42
g21
sg43
g21
sg44
I73
sg45
V,
p776
sg47
I73
sg48
I422
sbag0
(g23
g2
Ntp777
Rp778
(dp779
g27
(dp780
g29
Vcultural
p781
sg31
VO
p782
sg33
VJJ
p783
sg35
I35
ssg10
I74
sg36
g4
sg37
(dp784
sg39
(dp785
sg41
I423
sg42
g21
sg43
g21
sg44
I74
sg45
Vcultural
p786
sg47
I74
sg48
I431
sbag0
(g23
g2
Ntp787
Rp788
(dp789
g27
(dp790
g29
Vdiversity
p791
sg31
VO
p792
sg33
VNN
p793
sg35
I36
ssg10
I75
sg36
g4
sg37
(dp794
sg39
(dp795
sg41
I432
sg42
g21
sg43
g21
sg44
I75
sg45
Vdiversity
p796
sg47
I75
sg48
I441
sbag0
(g23
g2
Ntp797
Rp798
(dp799
g27
(dp800
g29
Vbe
p801
sg31
VO
p802
sg33
VVBZ
p803
sg35
I37
ssg10
I76
sg36
g4
sg37
(dp804
sg39
(dp805
sg41
I442
sg42
g21
sg43
g21
sg44
I76
sg45
Vis
p806
sg47
I76
sg48
I444
sbag0
(g23
g2
Ntp807
Rp808
(dp809
g27
(dp810
g29
Vas
p811
sg31
VO
p812
sg33
VRB
p813
sg35
I38
ssg10
I77
sg36
g4
sg37
(dp814
sg39
(dp815
sg41
I445
sg42
g21
sg43
g21
sg44
I77
sg45
Vas
p816
sg47
I77
sg48
I447
sbag0
(g23
g2
Ntp817
Rp818
(dp819
g27
(dp820
g29
Vnecessary
p821
sg31
VO
p822
sg33
VJJ
p823
sg35
I39
ssg10
I78
sg36
g4
sg37
(dp824
sg39
(dp825
sg41
I448
sg42
g21
sg43
g21
sg44
I78
sg45
Vnecessary
p826
sg47
I78
sg48
I457
sbag0
(g23
g2
Ntp827
Rp828
(dp829
g27
(dp830
g29
Vfor
p831
sg31
VO
p832
sg33
VIN
p833
sg35
I40
ssg10
I79
sg36
g4
sg37
(dp834
sg39
(dp835
sg41
I458
sg42
g21
sg43
g21
sg44
I79
sg45
Vfor
p836
sg47
I79
sg48
I461
sbag0
(g23
g2
Ntp837
Rp838
(dp839
g27
(dp840
g29
Vhumankind
p841
sg31
VO
p842
sg33
VNN
p843
sg35
I41
ssg10
I80
sg36
g4
sg37
(dp844
sg39
(dp845
sg41
I462
sg42
g21
sg43
g21
sg44
I80
sg45
Vhumankind
p846
sg47
I80
sg48
I471
sbag0
(g23
g2
Ntp847
Rp848
(dp849
g27
(dp850
g29
Vas
p851
sg31
VO
p852
sg33
VIN
p853
sg35
I42
ssg10
I81
sg36
g4
sg37
(dp854
sg39
(dp855
sg41
I472
sg42
g21
sg43
g21
sg44
I81
sg45
Vas
p856
sg47
I81
sg48
I474
sbag0
(g23
g2
Ntp857
Rp858
(dp859
g27
(dp860
g29
Vbiodiversity
p861
sg31
VO
p862
sg33
VNN
p863
sg35
I43
ssg10
I82
sg36
g4
sg37
(dp864
sg39
(dp865
sg41
I475
sg42
g21
sg43
g21
sg44
I82
sg45
Vbiodiversity
p866
sg47
I82
sg48
I487
sbag0
(g23
g2
Ntp867
Rp868
(dp869
g27
(dp870
g29
Vbe
p871
sg31
VO
p872
sg33
VVBZ
p873
sg35
I44
ssg10
I83
sg36
g4
sg37
(dp874
sg39
(dp875
sg41
I488
sg42
g21
sg43
g21
sg44
I83
sg45
Vis
p876
sg47
I83
sg48
I490
sbag0
(g23
g2
Ntp877
Rp878
(dp879
g27
(dp880
g29
Vfor
p881
sg31
VO
p882
sg33
VIN
p883
sg35
I45
ssg10
I84
sg36
g4
sg37
(dp884
sg39
(dp885
sg41
I491
sg42
g21
sg43
g21
sg44
I84
sg45
Vfor
p886
sg47
I84
sg48
I494
sbag0
(g23
g2
Ntp887
Rp888
(dp889
g27
(dp890
g29
Vthe
p891
sg31
VO
p892
sg33
VDT
p893
sg35
I46
ssg10
I85
sg36
g4
sg37
(dp894
sg39
(dp895
sg41
I495
sg42
g21
sg43
g21
sg44
I85
sg45
Vthe
p896
sg47
I85
sg48
I498
sbag0
(g23
g2
Ntp897
Rp898
(dp899
g27
(dp900
g29
Vnature
p901
sg31
VO
p902
sg33
VNN
p903
sg35
I47
ssg10
I86
sg36
g4
sg37
(dp904
sg39
(dp905
sg41
I499
sg42
g21
sg43
g21
sg44
I86
sg45
Vnature
p906
sg47
I86
sg48
I505
sbag0
(g23
g2
Ntp907
Rp908
(dp909
g27
(dp910
g29
V.
p911
sg31
VO
p912
sg33
V.
p913
sg35
I48
ssg10
I87
sg36
g4
sg37
(dp914
sg39
(dp915
sg41
I505
sg42
g21
sg43
g21
sg44
I87
sg45
V.
p916
sg47
I87
sg48
I506
sbag0
(g23
g2
Ntp917
Rp918
(dp919
g27
(dp920
g29
Vin
p921
sg31
VO
p922
sg33
VIN
p923
sg35
I1
ssg10
I88
sg36
g4
sg37
(dp924
sg39
(dp925
sg41
I507
sg42
g21
sg43
g21
sg44
I88
sg45
VIn
p926
sg47
I88
sg48
I509
sbag0
(g23
g2
Ntp927
Rp928
(dp929
g27
(dp930
g29
Vthis
p931
sg31
VO
p932
sg33
VDT
p933
sg35
I2
ssg10
I89
sg36
g4
sg37
(dp934
sg39
(dp935
sg41
I510
sg42
g21
sg43
g21
sg44
I89
sg45
Vthis
p936
sg47
I89
sg48
I514
sbag0
(g23
g2
Ntp937
Rp938
(dp939
g27
(dp940
g29
Vsense
p941
sg31
VO
p942
sg33
VNN
p943
sg35
I3
ssg10
I90
sg36
g4
sg37
(dp944
sg39
(dp945
sg41
I515
sg42
g21
sg43
g21
sg44
I90
sg45
Vsense
p946
sg47
I90
sg48
I520
sbag0
(g23
g2
Ntp947
Rp948
(dp949
g27
(dp950
g29
V,
p951
sg31
VO
p952
sg33
V,
p953
sg35
I4
ssg10
I91
sg36
g4
sg37
(dp954
sg39
(dp955
sg41
I520
sg42
g21
sg43
g21
sg44
I91
sg45
V,
p956
sg47
I91
sg48
I521
sbag0
(g23
g2
Ntp957
Rp958
(dp959
g27
(dp960
g29
Vit
p961
sg31
VO
p962
sg33
VPRP
p963
sg35
I5
ssg10
I92
sg36
g4
sg37
(dp964
sg39
(dp965
sg41
I522
sg42
g21
sg43
g21
sg44
I92
sg45
Vit
p966
sg47
I92
sg48
I524
sbag0
(g23
g2
Ntp967
Rp968
(dp969
g27
(dp970
g29
Vbe
p971
sg31
VO
p972
sg33
VVBZ
p973
sg35
I6
ssg10
I93
sg36
g4
sg37
(dp974
sg39
(dp975
sg41
I525
sg42
g21
sg43
g21
sg44
I93
sg45
Vis
p976
sg47
I93
sg48
I527
sbag0
(g23
g2
Ntp977
Rp978
(dp979
g27
(dp980
g29
Vthe
p981
sg31
VO
p982
sg33
VDT
p983
sg35
I7
ssg10
I94
sg36
g4
sg37
(dp984
sg39
(dp985
sg41
I528
sg42
g21
sg43
g21
sg44
I94
sg45
Vthe
p986
sg47
I94
sg48
I531
sbag0
(g23
g2
Ntp987
Rp988
(dp989
g27
(dp990
g29
Vcommon
p991
sg31
VO
p992
sg33
VJJ
p993
sg35
I8
ssg10
I95
sg36
g4
sg37
(dp994
sg39
(dp995
sg41
I532
sg42
g21
sg43
g21
sg44
I95
sg45
Vcommon
p996
sg47
I95
sg48
I538
sbag0
(g23
g2
Ntp997
Rp998
(dp999
g27
(dp1000
g29
Vheritage
p1001
sg31
VO
p1002
sg33
VNN
p1003
sg35
I9
ssg10
I96
sg36
g4
sg37
(dp1004
sg39
(dp1005
sg41
I539
sg42
g21
sg43
g21
sg44
I96
sg45
Vheritage
p1006
sg47
I96
sg48
I547
sbag0
(g23
g2
Ntp1007
Rp1008
(dp1009
g27
(dp1010
g29
Vof
p1011
sg31
VO
p1012
sg33
VIN
p1013
sg35
I10
ssg10
I97
sg36
g4
sg37
(dp1014
sg39
(dp1015
sg41
I548
sg42
g21
sg43
g21
sg44
I97
sg45
Vof
p1016
sg47
I97
sg48
I550
sbag0
(g23
g2
Ntp1017
Rp1018
(dp1019
g27
(dp1020
g29
Vhumanity
p1021
sg31
VO
p1022
sg33
VNN
p1023
sg35
I11
ssg10
I98
sg36
g4
sg37
(dp1024
sg39
(dp1025
sg41
I551
sg42
g21
sg43
g21
sg44
I98
sg45
Vhumanity
p1026
sg47
I98
sg48
I559
sbag0
(g23
g2
Ntp1027
Rp1028
(dp1029
g27
(dp1030
g29
Vand
p1031
sg31
VO
p1032
sg33
VCC
p1033
sg35
I12
ssg10
I99
sg36
g4
sg37
(dp1034
sg39
(dp1035
sg41
I560
sg42
g21
sg43
g21
sg44
I99
sg45
Vand
p1036
sg47
I99
sg48
I563
sbag0
(g23
g2
Ntp1037
Rp1038
(dp1039
g27
(dp1040
g29
Vshould
p1041
sg31
VO
p1042
sg33
VMD
p1043
sg35
I13
ssg10
I100
sg36
g4
sg37
(dp1044
sg39
(dp1045
sg41
I564
sg42
g21
sg43
g21
sg44
I100
sg45
Vshould
p1046
sg47
I100
sg48
I570
sbag0
(g23
g2
Ntp1047
Rp1048
(dp1049
g27
(dp1050
g29
Vbe
p1051
sg31
VO
p1052
sg33
VVB
p1053
sg35
I14
ssg10
I101
sg36
g4
sg37
(dp1054
sg39
(dp1055
sg41
I571
sg42
g21
sg43
g21
sg44
I101
sg45
Vbe
p1056
sg47
I101
sg48
I573
sbag0
(g23
g2
Ntp1057
Rp1058
(dp1059
g27
(dp1060
g29
Vrecognize
p1061
sg31
VO
p1062
sg33
VVBN
p1063
sg35
I15
ssg10
I102
sg36
g4
sg37
(dp1064
sg39
(dp1065
sg41
I574
sg42
g21
sg43
g21
sg44
I102
sg45
Vrecognized
p1066
sg47
I102
sg48
I584
sbag0
(g23
g2
Ntp1067
Rp1068
(dp1069
g27
(dp1070
g29
Vand
p1071
sg31
VO
p1072
sg33
VCC
p1073
sg35
I16
ssg10
I103
sg36
g4
sg37
(dp1074
sg39
(dp1075
sg41
I585
sg42
g21
sg43
g21
sg44
I103
sg45
Vand
p1076
sg47
I103
sg48
I588
sbag0
(g23
g2
Ntp1077
Rp1078
(dp1079
g27
(dp1080
g29
Vaffiem
p1081
sg31
VO
p1082
sg33
VVBN
p1083
sg35
I17
ssg10
I104
sg36
g4
sg37
(dp1084
sg39
(dp1085
sg41
I589
sg42
g21
sg43
g21
sg44
I104
sg45
Vaffiemed
p1086
sg47
I104
sg48
I597
sbag0
(g23
g2
Ntp1087
Rp1088
(dp1089
g27
(dp1090
g29
Vfor
p1091
sg31
VO
p1092
sg33
VIN
p1093
sg35
I18
ssg10
I105
sg36
g4
sg37
(dp1094
sg39
(dp1095
sg41
I598
sg42
g21
sg43
g21
sg44
I105
sg45
Vfor
p1096
sg47
I105
sg48
I601
sbag0
(g23
g2
Ntp1097
Rp1098
(dp1099
g27
(dp1100
g29
Vthe
p1101
sg31
VO
p1102
sg33
VDT
p1103
sg35
I19
ssg10
I106
sg36
g4
sg37
(dp1104
sg39
(dp1105
sg41
I602
sg42
g21
sg43
g21
sg44
I106
sg45
Vthe
p1106
sg47
I106
sg48
I605
sbag0
(g23
g2
Ntp1107
Rp1108
(dp1109
g27
(dp1110
g29
Vbenefit
p1111
sg31
VO
p1112
sg33
VNN
p1113
sg35
I20
ssg10
I107
sg36
g4
sg37
(dp1114
sg39
(dp1115
sg41
I606
sg42
g21
sg43
g21
sg44
I107
sg45
Vbenefit
p1116
sg47
I107
sg48
I613
sbag0
(g23
g2
Ntp1117
Rp1118
(dp1119
g27
(dp1120
g29
Vof
p1121
sg31
VO
p1122
sg33
VIN
p1123
sg35
I21
ssg10
I108
sg36
g4
sg37
(dp1124
sg39
(dp1125
sg41
I614
sg42
g21
sg43
g21
sg44
I108
sg45
Vof
p1126
sg47
I108
sg48
I616
sbag0
(g23
g2
Ntp1127
Rp1128
(dp1129
g27
(dp1130
g29
Vpresent
p1131
sg31
VDATE
p1132
sg33
VJJ
p1133
sg35
I22
ssg10
I109
sg36
g4
sg37
(dp1134
sg39
(dp1135
sg41
I617
sg42
g21
sg43
g21
sg44
I109
sg45
Vpresent
p1136
sg47
I109
sg48
I624
sbag0
(g23
g2
Ntp1137
Rp1138
(dp1139
g27
(dp1140
g29
Vand
p1141
sg31
VO
p1142
sg33
VCC
p1143
sg35
I23
ssg10
I110
sg36
g4
sg37
(dp1144
sg39
(dp1145
sg41
I625
sg42
g21
sg43
g21
sg44
I110
sg45
Vand
p1146
sg47
I110
sg48
I628
sbag0
(g23
g2
Ntp1147
Rp1148
(dp1149
g27
(dp1150
g29
Vfuture
p1151
sg31
VDATE
p1152
sg33
VJJ
p1153
sg35
I24
ssg10
I111
sg36
g4
sg37
(dp1154
sg39
(dp1155
sg41
I629
sg42
g21
sg43
g21
sg44
I111
sg45
Vfuture
p1156
sg47
I111
sg48
I635
sbag0
(g23
g2
Ntp1157
Rp1158
(dp1159
g27
(dp1160
g29
Vgeneration
p1161
sg31
VO
p1162
sg33
VNNS
p1163
sg35
I25
ssg10
I112
sg36
g4
sg37
(dp1164
sg39
(dp1165
sg41
I636
sg42
g21
sg43
g21
sg44
I112
sg45
Vgenerations
p1166
sg47
I112
sg48
I647
sbag0
(g23
g2
Ntp1167
Rp1168
(dp1169
g27
(dp1170
g29
V.
p1171
sg31
VO
p1172
sg33
V.
p1173
sg35
I26
ssg10
I113
sg36
g4
sg37
(dp1174
sg39
(dp1175
sg41
I647
sg42
g21
sg43
g21
sg44
I113
sg45
V.
p1176
sg47
I113
sg48
I648
sbag0
(g23
g2
Ntp1177
Rp1178
(dp1179
g27
(dp1180
g29
V''
p1181
sg31
VO
p1182
sg33
V''
p1183
sg35
I27
ssg10
I114
sg36
g4
sg37
(dp1184
sg39
(dp1185
sg41
I648
sg42
g21
sg43
g21
sg44
I114
sg45
g558
sg47
I114
sg48
I649
sbag0
(g23
g2
Ntp1186
Rp1187
(dp1188
g27
(dp1189
g29
Vand
p1190
sg31
VO
p1191
sg33
VCC
p1192
sg35
I1
ssg10
I115
sg36
g4
sg37
(dp1193
sg39
(dp1194
sg41
I650
sg42
g21
sg43
g21
sg44
I115
sg45
VAnd
p1195
sg47
I115
sg48
I653
sbag0
(g23
g2
Ntp1196
Rp1197
(dp1198
g27
(dp1199
g29
VArticle
p1200
sg31
VO
p1201
sg33
VNNP
p1202
sg35
I2
ssg10
I116
sg36
g4
sg37
(dp1203
sg39
(dp1204
sg41
I654
sg42
g21
sg43
g21
sg44
I116
sg45
VArticle
p1205
sg47
I116
sg48
I661
sbag0
(g23
g2
Ntp1206
Rp1207
(dp1208
g27
(dp1209
g29
V12
p1210
sg31
VNUMBER
p1211
sg33
VCD
p1212
sg35
I3
ssg10
I117
sg36
g4
sg37
(dp1213
sg39
(dp1214
sg41
I662
sg42
g21
sg43
g21
sg44
I117
sg45
V12
p1215
sg47
I117
sg48
I664
sbag0
(g23
g2
Ntp1216
Rp1217
(dp1218
g27
(dp1219
g29
Vdefine
p1220
sg31
VO
p1221
sg33
VVBZ
p1222
sg35
I4
ssg10
I118
sg36
g4
sg37
(dp1223
sg39
(dp1224
sg41
I665
sg42
g21
sg43
g21
sg44
I118
sg45
Vdefines
p1225
sg47
I118
sg48
I672
sbag0
(g23
g2
Ntp1226
Rp1227
(dp1228
g27
(dp1229
g29
Von
p1230
sg31
VO
p1231
sg33
VIN
p1232
sg35
I5
ssg10
I119
sg36
g4
sg37
(dp1233
sg39
(dp1234
sg41
I673
sg42
g21
sg43
g21
sg44
I119
sg45
Von
p1235
sg47
I119
sg48
I675
sbag0
(g23
g2
Ntp1236
Rp1237
(dp1238
g27
(dp1239
g29
Vthe
p1240
sg31
VO
p1241
sg33
VDT
p1242
sg35
I6
ssg10
I120
sg36
g4
sg37
(dp1243
sg39
(dp1244
sg41
I676
sg42
g21
sg43
g21
sg44
I120
sg45
Vthe
p1245
sg47
I120
sg48
I679
sbag0
(g23
g2
Ntp1246
Rp1247
(dp1248
g27
(dp1249
g29
Vrole
p1250
sg31
VO
p1251
sg33
VNN
p1252
sg35
I7
ssg10
I121
sg36
g4
sg37
(dp1253
sg39
(dp1254
sg41
I680
sg42
g21
sg43
g21
sg44
I121
sg45
Vrole
p1255
sg47
I121
sg48
I684
sbag0
(g23
g2
Ntp1256
Rp1257
(dp1258
g27
(dp1259
g29
Vof
p1260
sg31
VO
p1261
sg33
VIN
p1262
sg35
I8
ssg10
I122
sg36
g4
sg37
(dp1263
sg39
(dp1264
sg41
I685
sg42
g21
sg43
g21
sg44
I122
sg45
Vof
p1265
sg47
I122
sg48
I687
sbag0
(g23
g2
Ntp1266
Rp1267
(dp1268
g27
(dp1269
g29
Vthe
p1270
sg31
VO
p1271
sg33
VDT
p1272
sg35
I9
ssg10
I123
sg36
g4
sg37
(dp1273
sg39
(dp1274
sg41
I688
sg42
g21
sg43
g21
sg44
I123
sg45
Vthe
p1275
sg47
I123
sg48
I691
sbag0
(g23
g2
Ntp1276
Rp1277
(dp1278
g27
(dp1279
g29
VUNESCO
p1280
sg31
VORGANIZATION
p1281
sg33
VNNP
p1282
sg35
I10
ssg10
I124
sg36
g4
sg37
(dp1283
sg39
(dp1284
sg41
I692
sg42
g21
sg43
g21
sg44
I124
sg45
VUNESCO
p1285
sg47
I124
sg48
I698
sbag0
(g23
g2
Ntp1286
Rp1287
(dp1288
g27
(dp1289
g29
V.
p1290
sg31
VO
p1291
sg33
V.
p1292
sg35
I11
ssg10
I125
sg36
g4
sg37
(dp1293
sg39
(dp1294
sg41
I698
sg42
g21
sg43
g21
sg44
I125
sg45
V.
p1295
sg47
I125
sg48
I699
sbasS'Document'
p1296
(lp1297
g4
asS'doc-features'
p1298
g14
sS'Sentence'
p1299
(lp1300
g0
(g23
g2
Ntp1301
Rp1302
(dp1303
g27
(dp1304
S'dep-parse'
p1305
S'not implemented!'
p1306
sg35
I0
sS'constituency-parse'
p1307
V(ROOT\u000a  (NP (. .)))
p1308
ssg10
I0
sg36
g4
sg37
(dp1309
sg39
(dp1310
S'tokens'
p1311
(lp1312
g25
assg41
I0
sg42
g1299
sg43
g1299
sg44
I0
sg45
V.
p1313
sg47
I1
sg48
I1
sbag0
(g23
g2
Ntp1314
Rp1315
(dp1316
g27
(dp1317
g1305
g1306
sg35
I1
sg1307
V(ROOT\u000a  (S\u000a    (NP\u000a      (NP (DT The) (NNP Universal) (NNP Declaration))\u000a      (PP (IN on)\u000a        (NP (NNP Cultural) (NNP Diversity))))\u000a    (VP (VBZ is)\u000a      (NP\u000a        (NP (DT a) (NN declaration))\u000a        (VP (VBN adopted)\u000a          (PP (IN by)\u000a            (NP\u000a              (NP (DT the) (NNP General) (NNP Conference))\u000a              (PP (IN of)\u000a                (NP\u000a                  (NP\u000a                    (NP (DT the) (NNP United) (NNPS Nations) (NNP Educational) (, ,) (NNP Scientific)\u000a                      (CC and)\u000a                      (NNP Cultural) (NNP Organization))\u000a                    (PRN (-LRB- -LRB-)\u000a                      (NP (NNP UNESCO))\u000a                      (-RRB- -RRB-)))\u000a                  (PP (IN at)\u000a                    (NP\u000a                      (NP (PRP$ its) (JJ thirty-first) (NN session))\u000a                      (PP (IN on)\u000a                        (NP (CD 2)))))))))\u000a          (NP-TMP (NNP November) (CD 2001))\u000a          (PP (-LRB- -LSB-)\u000a            (NP (NN REF) (-RRB- -RSB-))))))\u000a    (. .)))
p1318
ssg10
I1
sg36
g4
sg37
(dp1319
sg39
(dp1320
g1311
(lp1321
g50
ag60
ag70
ag80
ag90
ag100
ag110
ag120
ag130
ag140
ag150
ag160
ag170
ag180
ag190
ag200
ag210
ag220
ag230
ag240
ag250
ag260
ag270
ag280
ag290
ag300
ag310
ag320
ag330
ag340
ag350
ag360
ag370
ag380
ag390
ag400
ag410
ag420
ag430
assg41
I4
sg42
g1299
sg43
g1299
sg44
I1
sg45
V \u000a\u000aThe Universal Declaration on Cultural Diversity is a declaration adopted by the General Conference of the United Nations Educational, Scientific and Cultural Organization (UNESCO) at its thirty-first session on 2 November 2001[REF] .
p1322
sg47
I40
sg48
I237
sbag0
(g23
g2
Ntp1323
Rp1324
(dp1325
g27
(dp1326
g1305
g1306
sg35
I2
sg1307
V(ROOT\u000a  (S\u000a    (NP (DT This) (NN Declaration))\u000a    (VP (VBZ is)\u000a      (VP (VBN constituted)\u000a        (PP (IN by)\u000a          (NP\u000a            (NP (CD 12) (NNPS Articles))\u000a            (: ;)\u000a            (NP\u000a              (NP (NNP Article) (CD 1))\u000a              (VP (VBN titled)\u000a                (NP (`` ``)\u000a                  (NP\u000a                    (NP (JJ Cultural) (NN diversity))\u000a                    (, ,)\u000a                    (NP\u000a                      (NP (DT the) (JJ common) (NN heritage))\u000a                      (PP (IN of)\u000a                        (NP (NN humanity)))))\u000a                  ('' '')\u000a                  (SBAR\u000a                    (S\u000a                      (NP\u000a                        (NP (NNS states))\u000a                        (SBAR (IN that)\u000a                          (S (`` ``)\u000a                            (PP (IN As)\u000a                              (NP\u000a                                (NP (DT a) (NN sorce))\u000a                                (PP (IN of)\u000a                                  (NP (NN exchange) (, ,) (NN innovation)\u000a                                    (CC and)\u000a                                    (NN creativity)))))\u000a                            (, ,)\u000a                            (NP (JJ cultural) (NN diversity))\u000a                            (VP (VBZ is)\u000a                              (ADJP (RB as) (JJ necessary)\u000a                                (PP (IN for)\u000a                                  (NP\u000a                                    (NP (NN humankind))\u000a                                    (PP (IN as)\u000a                                      (NP (NN biodiversity))))))))))\u000a                      (VP (VBZ is)\u000a                        (PP (IN for)\u000a                          (NP (DT the) (NN nature)))))))))))))\u000a    (. .)))
p1327
ssg10
I2
sg36
g4
sg37
(dp1328
sg39
(dp1329
g1311
(lp1330
g440
ag450
ag460
ag470
ag480
ag490
ag500
ag510
ag520
ag530
ag540
ag550
ag560
ag570
ag580
ag590
ag600
ag610
ag620
ag630
ag640
ag649
ag659
ag669
ag678
ag688
ag698
ag708
ag718
ag728
ag738
ag748
ag758
ag768
ag778
ag788
ag798
ag808
ag818
ag828
ag838
ag848
ag858
ag868
ag878
ag888
ag898
ag908
assg41
I240
sg42
g1299
sg43
g1299
sg44
I40
sg45
V \u000a\u000aThis Declaration is constituted by 12 Articles; Article 1 titled "Cultural diversity, the common heritage of humanity" states that "As a sorce of exchange, innovation and creativity, cultural diversity is as necessary for humankind as biodiversity is for the nature.
p1331
sg47
I88
sg48
I506
sbag0
(g23
g2
Ntp1332
Rp1333
(dp1334
g27
(dp1335
g1305
g1306
sg35
I3
sg1307
V(ROOT\u000a  (S\u000a    (PP (IN In)\u000a      (NP (DT this) (NN sense)))\u000a    (, ,)\u000a    (NP (PRP it))\u000a    (VP\u000a      (VP (VBZ is)\u000a        (NP\u000a          (NP (DT the) (JJ common) (NN heritage))\u000a          (PP (IN of)\u000a            (NP (NN humanity)))))\u000a      (CC and)\u000a      (VP (MD should)\u000a        (VP (VB be)\u000a          (VP (VBN recognized)\u000a            (CC and)\u000a            (VBN affiemed)\u000a            (PP (IN for)\u000a              (NP\u000a                (NP (DT the) (NN benefit))\u000a                (PP (IN of)\u000a                  (NP (JJ present)\u000a                    (CC and)\u000a                    (JJ future) (NNS generations)))))))))\u000a    (. .) ('' '')))
p1336
ssg10
I3
sg36
g4
sg37
(dp1337
sg39
(dp1338
g1311
(lp1339
g918
ag928
ag938
ag948
ag958
ag968
ag978
ag988
ag998
ag1008
ag1018
ag1028
ag1038
ag1048
ag1058
ag1068
ag1078
ag1088
ag1098
ag1108
ag1118
ag1128
ag1138
ag1148
ag1158
ag1168
ag1178
assg41
I507
sg42
g1299
sg43
g1299
sg44
I88
sg45
V In this sense, it is the common heritage of humanity and should be recognized and affiemed for the benefit of present and future generations."
p1340
sg47
I115
sg48
I649
sbag0
(g23
g2
Ntp1341
Rp1342
(dp1343
g27
(dp1344
g1305
g1306
sg35
I4
sg1307
V(ROOT\u000a  (S (CC And)\u000a    (NP (NNP Article) (CD 12))\u000a    (VP (VBZ defines)\u000a      (PP (IN on)\u000a        (NP\u000a          (NP (DT the) (NN role))\u000a          (PP (IN of)\u000a            (NP (DT the) (NNP UNESCO))))))\u000a    (. .)))
p1345
ssg10
I4
sg36
g4
sg37
(dp1346
sg39
(dp1347
g1311
(lp1348
g1187
ag1197
ag1207
ag1217
ag1227
ag1237
ag1247
ag1257
ag1267
ag1277
ag1287
assg41
I650
sg42
g1299
sg43
g1299
sg44
I115
sg45
V And Article 12 defines on the role of the UNESCO.
p1349
sg47
I126
sg48
I699
sbassg37
(dp1350
sg39
(dp1351
sg47
I-1
sg1311
g22
sg42
g1296
sg36
Nsg27
(dp1352
sg44
I0
sg45
V. \u000a\u000aThe Universal Declaration on Cultural Diversity is a declaration adopted by the General Conference of the United Nations Educational, Scientific and Cultural Organization (UNESCO) at its thirty-first session on 2 November 2001[REF] . \u000a\u000aThis Declaration is constituted by 12 Articles; Article 1 titled "Cultural diversity, the common heritage of humanity" states that "As a sorce of exchange, innovation and creativity, cultural diversity is as necessary for humankind as biodiversity is for the nature. In this sense, it is the common heritage of humanity and should be recognized and affiemed for the benefit of present and future generations." And Article 12 defines on the role of the UNESCO.
p1353
sS'sents'
p1354
g1300
sg43
g1296
sg41
I0
sS'id'
p1355
g16
sg48
I699
sS'sentFeatures'
p1356
(lp1357
sb.